
RF_Driver_V2.elf:     file format elf32-littlearm

Sections:
Idx Name          Size      VMA       LMA       File off  Algn
  0 .isr_vector   000001c4  08000000  08000000  00010000  2**0
                  CONTENTS, ALLOC, LOAD, READONLY, DATA
  1 .text         00003590  080001d0  080001d0  000101d0  2**4
                  CONTENTS, ALLOC, LOAD, READONLY, CODE
  2 .rodata       00000064  08003760  08003760  00013760  2**2
                  CONTENTS, ALLOC, LOAD, READONLY, DATA
  3 .ARM.extab    00000000  080037c4  080037c4  00020070  2**0
                  CONTENTS
  4 .ARM          00000008  080037c4  080037c4  000137c4  2**2
                  CONTENTS, ALLOC, LOAD, READONLY, DATA
  5 .preinit_array 00000000  080037cc  080037cc  00020070  2**0
                  CONTENTS, ALLOC, LOAD, DATA
  6 .init_array   00000004  080037cc  080037cc  000137cc  2**2
                  CONTENTS, ALLOC, LOAD, DATA
  7 .fini_array   00000004  080037d0  080037d0  000137d0  2**2
                  CONTENTS, ALLOC, LOAD, DATA
  8 .data         00000070  20000000  080037d4  00020000  2**2
                  CONTENTS, ALLOC, LOAD, DATA
  9 .bss          000000c8  20000070  08003844  00020070  2**2
                  ALLOC
 10 ._user_heap_stack 00000600  20000138  08003844  00020138  2**0
                  ALLOC
 11 .ARM.attributes 00000030  00000000  00000000  00020070  2**0
                  CONTENTS, READONLY
 12 .debug_info   00009e0d  00000000  00000000  000200a0  2**0
                  CONTENTS, READONLY, DEBUGGING
 13 .debug_abbrev 000019cb  00000000  00000000  00029ead  2**0
                  CONTENTS, READONLY, DEBUGGING
 14 .debug_aranges 000008e8  00000000  00000000  0002b878  2**3
                  CONTENTS, READONLY, DEBUGGING
 15 .debug_ranges 00000800  00000000  00000000  0002c160  2**3
                  CONTENTS, READONLY, DEBUGGING
 16 .debug_macro  00021907  00000000  00000000  0002c960  2**0
                  CONTENTS, READONLY, DEBUGGING
 17 .debug_line   00008947  00000000  00000000  0004e267  2**0
                  CONTENTS, READONLY, DEBUGGING
 18 .debug_str    000ca027  00000000  00000000  00056bae  2**0
                  CONTENTS, READONLY, DEBUGGING
 19 .comment      0000007b  00000000  00000000  00120bd5  2**0
                  CONTENTS, READONLY
 20 .debug_frame  00002658  00000000  00000000  00120c50  2**2
                  CONTENTS, READONLY, DEBUGGING

Disassembly of section .text:

080001d0 <__do_global_dtors_aux>:
 80001d0:	b510      	push	{r4, lr}
 80001d2:	4c05      	ldr	r4, [pc, #20]	; (80001e8 <__do_global_dtors_aux+0x18>)
 80001d4:	7823      	ldrb	r3, [r4, #0]
 80001d6:	b933      	cbnz	r3, 80001e6 <__do_global_dtors_aux+0x16>
 80001d8:	4b04      	ldr	r3, [pc, #16]	; (80001ec <__do_global_dtors_aux+0x1c>)
 80001da:	b113      	cbz	r3, 80001e2 <__do_global_dtors_aux+0x12>
 80001dc:	4804      	ldr	r0, [pc, #16]	; (80001f0 <__do_global_dtors_aux+0x20>)
 80001de:	f3af 8000 	nop.w
 80001e2:	2301      	movs	r3, #1
 80001e4:	7023      	strb	r3, [r4, #0]
 80001e6:	bd10      	pop	{r4, pc}
 80001e8:	20000070 	.word	0x20000070
 80001ec:	00000000 	.word	0x00000000
 80001f0:	08003748 	.word	0x08003748

080001f4 <frame_dummy>:
 80001f4:	b508      	push	{r3, lr}
 80001f6:	4b03      	ldr	r3, [pc, #12]	; (8000204 <frame_dummy+0x10>)
 80001f8:	b11b      	cbz	r3, 8000202 <frame_dummy+0xe>
 80001fa:	4903      	ldr	r1, [pc, #12]	; (8000208 <frame_dummy+0x14>)
 80001fc:	4803      	ldr	r0, [pc, #12]	; (800020c <frame_dummy+0x18>)
 80001fe:	f3af 8000 	nop.w
 8000202:	bd08      	pop	{r3, pc}
 8000204:	00000000 	.word	0x00000000
 8000208:	20000074 	.word	0x20000074
 800020c:	08003748 	.word	0x08003748

08000210 <strlen>:
 8000210:	4603      	mov	r3, r0
 8000212:	f813 2b01 	ldrb.w	r2, [r3], #1
 8000216:	2a00      	cmp	r2, #0
 8000218:	d1fb      	bne.n	8000212 <strlen+0x2>
 800021a:	1a18      	subs	r0, r3, r0
 800021c:	3801      	subs	r0, #1
 800021e:	4770      	bx	lr

08000220 <memchr>:
 8000220:	f001 01ff 	and.w	r1, r1, #255	; 0xff
 8000224:	2a10      	cmp	r2, #16
 8000226:	db2b      	blt.n	8000280 <memchr+0x60>
 8000228:	f010 0f07 	tst.w	r0, #7
 800022c:	d008      	beq.n	8000240 <memchr+0x20>
 800022e:	f810 3b01 	ldrb.w	r3, [r0], #1
 8000232:	3a01      	subs	r2, #1
 8000234:	428b      	cmp	r3, r1
 8000236:	d02d      	beq.n	8000294 <memchr+0x74>
 8000238:	f010 0f07 	tst.w	r0, #7
 800023c:	b342      	cbz	r2, 8000290 <memchr+0x70>
 800023e:	d1f6      	bne.n	800022e <memchr+0xe>
 8000240:	b4f0      	push	{r4, r5, r6, r7}
 8000242:	ea41 2101 	orr.w	r1, r1, r1, lsl #8
 8000246:	ea41 4101 	orr.w	r1, r1, r1, lsl #16
 800024a:	f022 0407 	bic.w	r4, r2, #7
 800024e:	f07f 0700 	mvns.w	r7, #0
 8000252:	2300      	movs	r3, #0
 8000254:	e8f0 5602 	ldrd	r5, r6, [r0], #8
 8000258:	3c08      	subs	r4, #8
 800025a:	ea85 0501 	eor.w	r5, r5, r1
 800025e:	ea86 0601 	eor.w	r6, r6, r1
 8000262:	fa85 f547 	uadd8	r5, r5, r7
 8000266:	faa3 f587 	sel	r5, r3, r7
 800026a:	fa86 f647 	uadd8	r6, r6, r7
 800026e:	faa5 f687 	sel	r6, r5, r7
 8000272:	b98e      	cbnz	r6, 8000298 <memchr+0x78>
 8000274:	d1ee      	bne.n	8000254 <memchr+0x34>
 8000276:	bcf0      	pop	{r4, r5, r6, r7}
 8000278:	f001 01ff 	and.w	r1, r1, #255	; 0xff
 800027c:	f002 0207 	and.w	r2, r2, #7
 8000280:	b132      	cbz	r2, 8000290 <memchr+0x70>
 8000282:	f810 3b01 	ldrb.w	r3, [r0], #1
 8000286:	3a01      	subs	r2, #1
 8000288:	ea83 0301 	eor.w	r3, r3, r1
 800028c:	b113      	cbz	r3, 8000294 <memchr+0x74>
 800028e:	d1f8      	bne.n	8000282 <memchr+0x62>
 8000290:	2000      	movs	r0, #0
 8000292:	4770      	bx	lr
 8000294:	3801      	subs	r0, #1
 8000296:	4770      	bx	lr
 8000298:	2d00      	cmp	r5, #0
 800029a:	bf06      	itte	eq
 800029c:	4635      	moveq	r5, r6
 800029e:	3803      	subeq	r0, #3
 80002a0:	3807      	subne	r0, #7
 80002a2:	f015 0f01 	tst.w	r5, #1
 80002a6:	d107      	bne.n	80002b8 <memchr+0x98>
 80002a8:	3001      	adds	r0, #1
 80002aa:	f415 7f80 	tst.w	r5, #256	; 0x100
 80002ae:	bf02      	ittt	eq
 80002b0:	3001      	addeq	r0, #1
 80002b2:	f415 3fc0 	tsteq.w	r5, #98304	; 0x18000
 80002b6:	3001      	addeq	r0, #1
 80002b8:	bcf0      	pop	{r4, r5, r6, r7}
 80002ba:	3801      	subs	r0, #1
 80002bc:	4770      	bx	lr
 80002be:	bf00      	nop

080002c0 <__aeabi_uldivmod>:
 80002c0:	b953      	cbnz	r3, 80002d8 <__aeabi_uldivmod+0x18>
 80002c2:	b94a      	cbnz	r2, 80002d8 <__aeabi_uldivmod+0x18>
 80002c4:	2900      	cmp	r1, #0
 80002c6:	bf08      	it	eq
 80002c8:	2800      	cmpeq	r0, #0
 80002ca:	bf1c      	itt	ne
 80002cc:	f04f 31ff 	movne.w	r1, #4294967295
 80002d0:	f04f 30ff 	movne.w	r0, #4294967295
 80002d4:	f000 b972 	b.w	80005bc <__aeabi_idiv0>
 80002d8:	f1ad 0c08 	sub.w	ip, sp, #8
 80002dc:	e96d ce04 	strd	ip, lr, [sp, #-16]!
 80002e0:	f000 f806 	bl	80002f0 <__udivmoddi4>
 80002e4:	f8dd e004 	ldr.w	lr, [sp, #4]
 80002e8:	e9dd 2302 	ldrd	r2, r3, [sp, #8]
 80002ec:	b004      	add	sp, #16
 80002ee:	4770      	bx	lr

080002f0 <__udivmoddi4>:
 80002f0:	e92d 47f0 	stmdb	sp!, {r4, r5, r6, r7, r8, r9, sl, lr}
 80002f4:	9e08      	ldr	r6, [sp, #32]
 80002f6:	4604      	mov	r4, r0
 80002f8:	4688      	mov	r8, r1
 80002fa:	2b00      	cmp	r3, #0
 80002fc:	d14b      	bne.n	8000396 <__udivmoddi4+0xa6>
 80002fe:	428a      	cmp	r2, r1
 8000300:	4615      	mov	r5, r2
 8000302:	d967      	bls.n	80003d4 <__udivmoddi4+0xe4>
 8000304:	fab2 f282 	clz	r2, r2
 8000308:	b14a      	cbz	r2, 800031e <__udivmoddi4+0x2e>
 800030a:	f1c2 0720 	rsb	r7, r2, #32
 800030e:	fa01 f302 	lsl.w	r3, r1, r2
 8000312:	fa20 f707 	lsr.w	r7, r0, r7
 8000316:	4095      	lsls	r5, r2
 8000318:	ea47 0803 	orr.w	r8, r7, r3
 800031c:	4094      	lsls	r4, r2
 800031e:	ea4f 4e15 	mov.w	lr, r5, lsr #16
 8000322:	0c23      	lsrs	r3, r4, #16
 8000324:	fbb8 f7fe 	udiv	r7, r8, lr
 8000328:	fa1f fc85 	uxth.w	ip, r5
 800032c:	fb0e 8817 	mls	r8, lr, r7, r8
 8000330:	ea43 4308 	orr.w	r3, r3, r8, lsl #16
 8000334:	fb07 f10c 	mul.w	r1, r7, ip
 8000338:	4299      	cmp	r1, r3
 800033a:	d909      	bls.n	8000350 <__udivmoddi4+0x60>
 800033c:	18eb      	adds	r3, r5, r3
 800033e:	f107 30ff 	add.w	r0, r7, #4294967295
 8000342:	f080 811b 	bcs.w	800057c <__udivmoddi4+0x28c>
 8000346:	4299      	cmp	r1, r3
 8000348:	f240 8118 	bls.w	800057c <__udivmoddi4+0x28c>
 800034c:	3f02      	subs	r7, #2
 800034e:	442b      	add	r3, r5
 8000350:	1a5b      	subs	r3, r3, r1
 8000352:	b2a4      	uxth	r4, r4
 8000354:	fbb3 f0fe 	udiv	r0, r3, lr
 8000358:	fb0e 3310 	mls	r3, lr, r0, r3
 800035c:	ea44 4403 	orr.w	r4, r4, r3, lsl #16
 8000360:	fb00 fc0c 	mul.w	ip, r0, ip
 8000364:	45a4      	cmp	ip, r4
 8000366:	d909      	bls.n	800037c <__udivmoddi4+0x8c>
 8000368:	192c      	adds	r4, r5, r4
 800036a:	f100 33ff 	add.w	r3, r0, #4294967295
 800036e:	f080 8107 	bcs.w	8000580 <__udivmoddi4+0x290>
 8000372:	45a4      	cmp	ip, r4
 8000374:	f240 8104 	bls.w	8000580 <__udivmoddi4+0x290>
 8000378:	3802      	subs	r0, #2
 800037a:	442c      	add	r4, r5
 800037c:	ea40 4007 	orr.w	r0, r0, r7, lsl #16
 8000380:	eba4 040c 	sub.w	r4, r4, ip
 8000384:	2700      	movs	r7, #0
 8000386:	b11e      	cbz	r6, 8000390 <__udivmoddi4+0xa0>
 8000388:	40d4      	lsrs	r4, r2
 800038a:	2300      	movs	r3, #0
 800038c:	e9c6 4300 	strd	r4, r3, [r6]
 8000390:	4639      	mov	r1, r7
 8000392:	e8bd 87f0 	ldmia.w	sp!, {r4, r5, r6, r7, r8, r9, sl, pc}
 8000396:	428b      	cmp	r3, r1
 8000398:	d909      	bls.n	80003ae <__udivmoddi4+0xbe>
 800039a:	2e00      	cmp	r6, #0
 800039c:	f000 80eb 	beq.w	8000576 <__udivmoddi4+0x286>
 80003a0:	2700      	movs	r7, #0
 80003a2:	e9c6 0100 	strd	r0, r1, [r6]
 80003a6:	4638      	mov	r0, r7
 80003a8:	4639      	mov	r1, r7
 80003aa:	e8bd 87f0 	ldmia.w	sp!, {r4, r5, r6, r7, r8, r9, sl, pc}
 80003ae:	fab3 f783 	clz	r7, r3
 80003b2:	2f00      	cmp	r7, #0
 80003b4:	d147      	bne.n	8000446 <__udivmoddi4+0x156>
 80003b6:	428b      	cmp	r3, r1
 80003b8:	d302      	bcc.n	80003c0 <__udivmoddi4+0xd0>
 80003ba:	4282      	cmp	r2, r0
 80003bc:	f200 80fa 	bhi.w	80005b4 <__udivmoddi4+0x2c4>
 80003c0:	1a84      	subs	r4, r0, r2
 80003c2:	eb61 0303 	sbc.w	r3, r1, r3
 80003c6:	2001      	movs	r0, #1
 80003c8:	4698      	mov	r8, r3
 80003ca:	2e00      	cmp	r6, #0
 80003cc:	d0e0      	beq.n	8000390 <__udivmoddi4+0xa0>
 80003ce:	e9c6 4800 	strd	r4, r8, [r6]
 80003d2:	e7dd      	b.n	8000390 <__udivmoddi4+0xa0>
 80003d4:	b902      	cbnz	r2, 80003d8 <__udivmoddi4+0xe8>
 80003d6:	deff      	udf	#255	; 0xff
 80003d8:	fab2 f282 	clz	r2, r2
 80003dc:	2a00      	cmp	r2, #0
 80003de:	f040 808f 	bne.w	8000500 <__udivmoddi4+0x210>
 80003e2:	1b49      	subs	r1, r1, r5
 80003e4:	ea4f 4e15 	mov.w	lr, r5, lsr #16
 80003e8:	fa1f f885 	uxth.w	r8, r5
 80003ec:	2701      	movs	r7, #1
 80003ee:	fbb1 fcfe 	udiv	ip, r1, lr
 80003f2:	0c23      	lsrs	r3, r4, #16
 80003f4:	fb0e 111c 	mls	r1, lr, ip, r1
 80003f8:	ea43 4301 	orr.w	r3, r3, r1, lsl #16
 80003fc:	fb08 f10c 	mul.w	r1, r8, ip
 8000400:	4299      	cmp	r1, r3
 8000402:	d907      	bls.n	8000414 <__udivmoddi4+0x124>
 8000404:	18eb      	adds	r3, r5, r3
 8000406:	f10c 30ff 	add.w	r0, ip, #4294967295
 800040a:	d202      	bcs.n	8000412 <__udivmoddi4+0x122>
 800040c:	4299      	cmp	r1, r3
 800040e:	f200 80cd 	bhi.w	80005ac <__udivmoddi4+0x2bc>
 8000412:	4684      	mov	ip, r0
 8000414:	1a59      	subs	r1, r3, r1
 8000416:	b2a3      	uxth	r3, r4
 8000418:	fbb1 f0fe 	udiv	r0, r1, lr
 800041c:	fb0e 1410 	mls	r4, lr, r0, r1
 8000420:	ea43 4404 	orr.w	r4, r3, r4, lsl #16
 8000424:	fb08 f800 	mul.w	r8, r8, r0
 8000428:	45a0      	cmp	r8, r4
 800042a:	d907      	bls.n	800043c <__udivmoddi4+0x14c>
 800042c:	192c      	adds	r4, r5, r4
 800042e:	f100 33ff 	add.w	r3, r0, #4294967295
 8000432:	d202      	bcs.n	800043a <__udivmoddi4+0x14a>
 8000434:	45a0      	cmp	r8, r4
 8000436:	f200 80b6 	bhi.w	80005a6 <__udivmoddi4+0x2b6>
 800043a:	4618      	mov	r0, r3
 800043c:	eba4 0408 	sub.w	r4, r4, r8
 8000440:	ea40 400c 	orr.w	r0, r0, ip, lsl #16
 8000444:	e79f      	b.n	8000386 <__udivmoddi4+0x96>
 8000446:	f1c7 0c20 	rsb	ip, r7, #32
 800044a:	40bb      	lsls	r3, r7
 800044c:	fa22 fe0c 	lsr.w	lr, r2, ip
 8000450:	ea4e 0e03 	orr.w	lr, lr, r3
 8000454:	fa01 f407 	lsl.w	r4, r1, r7
 8000458:	fa20 f50c 	lsr.w	r5, r0, ip
 800045c:	fa21 f30c 	lsr.w	r3, r1, ip
 8000460:	ea4f 481e 	mov.w	r8, lr, lsr #16
 8000464:	4325      	orrs	r5, r4
 8000466:	fbb3 f9f8 	udiv	r9, r3, r8
 800046a:	0c2c      	lsrs	r4, r5, #16
 800046c:	fb08 3319 	mls	r3, r8, r9, r3
 8000470:	fa1f fa8e 	uxth.w	sl, lr
 8000474:	ea44 4303 	orr.w	r3, r4, r3, lsl #16
 8000478:	fb09 f40a 	mul.w	r4, r9, sl
 800047c:	429c      	cmp	r4, r3
 800047e:	fa02 f207 	lsl.w	r2, r2, r7
 8000482:	fa00 f107 	lsl.w	r1, r0, r7
 8000486:	d90b      	bls.n	80004a0 <__udivmoddi4+0x1b0>
 8000488:	eb1e 0303 	adds.w	r3, lr, r3
 800048c:	f109 30ff 	add.w	r0, r9, #4294967295
 8000490:	f080 8087 	bcs.w	80005a2 <__udivmoddi4+0x2b2>
 8000494:	429c      	cmp	r4, r3
 8000496:	f240 8084 	bls.w	80005a2 <__udivmoddi4+0x2b2>
 800049a:	f1a9 0902 	sub.w	r9, r9, #2
 800049e:	4473      	add	r3, lr
 80004a0:	1b1b      	subs	r3, r3, r4
 80004a2:	b2ad      	uxth	r5, r5
 80004a4:	fbb3 f0f8 	udiv	r0, r3, r8
 80004a8:	fb08 3310 	mls	r3, r8, r0, r3
 80004ac:	ea45 4403 	orr.w	r4, r5, r3, lsl #16
 80004b0:	fb00 fa0a 	mul.w	sl, r0, sl
 80004b4:	45a2      	cmp	sl, r4
 80004b6:	d908      	bls.n	80004ca <__udivmoddi4+0x1da>
 80004b8:	eb1e 0404 	adds.w	r4, lr, r4
 80004bc:	f100 33ff 	add.w	r3, r0, #4294967295
 80004c0:	d26b      	bcs.n	800059a <__udivmoddi4+0x2aa>
 80004c2:	45a2      	cmp	sl, r4
 80004c4:	d969      	bls.n	800059a <__udivmoddi4+0x2aa>
 80004c6:	3802      	subs	r0, #2
 80004c8:	4474      	add	r4, lr
 80004ca:	ea40 4009 	orr.w	r0, r0, r9, lsl #16
 80004ce:	fba0 8902 	umull	r8, r9, r0, r2
 80004d2:	eba4 040a 	sub.w	r4, r4, sl
 80004d6:	454c      	cmp	r4, r9
 80004d8:	46c2      	mov	sl, r8
 80004da:	464b      	mov	r3, r9
 80004dc:	d354      	bcc.n	8000588 <__udivmoddi4+0x298>
 80004de:	d051      	beq.n	8000584 <__udivmoddi4+0x294>
 80004e0:	2e00      	cmp	r6, #0
 80004e2:	d069      	beq.n	80005b8 <__udivmoddi4+0x2c8>
 80004e4:	ebb1 050a 	subs.w	r5, r1, sl
 80004e8:	eb64 0403 	sbc.w	r4, r4, r3
 80004ec:	fa04 fc0c 	lsl.w	ip, r4, ip
 80004f0:	40fd      	lsrs	r5, r7
 80004f2:	40fc      	lsrs	r4, r7
 80004f4:	ea4c 0505 	orr.w	r5, ip, r5
 80004f8:	e9c6 5400 	strd	r5, r4, [r6]
 80004fc:	2700      	movs	r7, #0
 80004fe:	e747      	b.n	8000390 <__udivmoddi4+0xa0>
 8000500:	f1c2 0320 	rsb	r3, r2, #32
 8000504:	fa20 f703 	lsr.w	r7, r0, r3
 8000508:	4095      	lsls	r5, r2
 800050a:	fa01 f002 	lsl.w	r0, r1, r2
 800050e:	fa21 f303 	lsr.w	r3, r1, r3
 8000512:	ea4f 4e15 	mov.w	lr, r5, lsr #16
 8000516:	4338      	orrs	r0, r7
 8000518:	0c01      	lsrs	r1, r0, #16
 800051a:	fbb3 f7fe 	udiv	r7, r3, lr
 800051e:	fa1f f885 	uxth.w	r8, r5
 8000522:	fb0e 3317 	mls	r3, lr, r7, r3
 8000526:	ea41 4103 	orr.w	r1, r1, r3, lsl #16
 800052a:	fb07 f308 	mul.w	r3, r7, r8
 800052e:	428b      	cmp	r3, r1
 8000530:	fa04 f402 	lsl.w	r4, r4, r2
 8000534:	d907      	bls.n	8000546 <__udivmoddi4+0x256>
 8000536:	1869      	adds	r1, r5, r1
 8000538:	f107 3cff 	add.w	ip, r7, #4294967295
 800053c:	d22f      	bcs.n	800059e <__udivmoddi4+0x2ae>
 800053e:	428b      	cmp	r3, r1
 8000540:	d92d      	bls.n	800059e <__udivmoddi4+0x2ae>
 8000542:	3f02      	subs	r7, #2
 8000544:	4429      	add	r1, r5
 8000546:	1acb      	subs	r3, r1, r3
 8000548:	b281      	uxth	r1, r0
 800054a:	fbb3 f0fe 	udiv	r0, r3, lr
 800054e:	fb0e 3310 	mls	r3, lr, r0, r3
 8000552:	ea41 4103 	orr.w	r1, r1, r3, lsl #16
 8000556:	fb00 f308 	mul.w	r3, r0, r8
 800055a:	428b      	cmp	r3, r1
 800055c:	d907      	bls.n	800056e <__udivmoddi4+0x27e>
 800055e:	1869      	adds	r1, r5, r1
 8000560:	f100 3cff 	add.w	ip, r0, #4294967295
 8000564:	d217      	bcs.n	8000596 <__udivmoddi4+0x2a6>
 8000566:	428b      	cmp	r3, r1
 8000568:	d915      	bls.n	8000596 <__udivmoddi4+0x2a6>
 800056a:	3802      	subs	r0, #2
 800056c:	4429      	add	r1, r5
 800056e:	1ac9      	subs	r1, r1, r3
 8000570:	ea40 4707 	orr.w	r7, r0, r7, lsl #16
 8000574:	e73b      	b.n	80003ee <__udivmoddi4+0xfe>
 8000576:	4637      	mov	r7, r6
 8000578:	4630      	mov	r0, r6
 800057a:	e709      	b.n	8000390 <__udivmoddi4+0xa0>
 800057c:	4607      	mov	r7, r0
 800057e:	e6e7      	b.n	8000350 <__udivmoddi4+0x60>
 8000580:	4618      	mov	r0, r3
 8000582:	e6fb      	b.n	800037c <__udivmoddi4+0x8c>
 8000584:	4541      	cmp	r1, r8
 8000586:	d2ab      	bcs.n	80004e0 <__udivmoddi4+0x1f0>
 8000588:	ebb8 0a02 	subs.w	sl, r8, r2
 800058c:	eb69 020e 	sbc.w	r2, r9, lr
 8000590:	3801      	subs	r0, #1
 8000592:	4613      	mov	r3, r2
 8000594:	e7a4      	b.n	80004e0 <__udivmoddi4+0x1f0>
 8000596:	4660      	mov	r0, ip
 8000598:	e7e9      	b.n	800056e <__udivmoddi4+0x27e>
 800059a:	4618      	mov	r0, r3
 800059c:	e795      	b.n	80004ca <__udivmoddi4+0x1da>
 800059e:	4667      	mov	r7, ip
 80005a0:	e7d1      	b.n	8000546 <__udivmoddi4+0x256>
 80005a2:	4681      	mov	r9, r0
 80005a4:	e77c      	b.n	80004a0 <__udivmoddi4+0x1b0>
 80005a6:	3802      	subs	r0, #2
 80005a8:	442c      	add	r4, r5
 80005aa:	e747      	b.n	800043c <__udivmoddi4+0x14c>
 80005ac:	f1ac 0c02 	sub.w	ip, ip, #2
 80005b0:	442b      	add	r3, r5
 80005b2:	e72f      	b.n	8000414 <__udivmoddi4+0x124>
 80005b4:	4638      	mov	r0, r7
 80005b6:	e708      	b.n	80003ca <__udivmoddi4+0xda>
 80005b8:	4637      	mov	r7, r6
 80005ba:	e6e9      	b.n	8000390 <__udivmoddi4+0xa0>

080005bc <__aeabi_idiv0>:
 80005bc:	4770      	bx	lr
 80005be:	bf00      	nop

080005c0 <AD9838_Init>:
 * @brief Initializes the SPI communication peripheral and resets the part.
 *
 * @return 1.
*******************************************************************************/
unsigned char AD9838_Init(void)
{
 80005c0:	b580      	push	{r7, lr}
 80005c2:	af00      	add	r7, sp, #0
    GPIO1_PIN_OUT;
   	GPIO2_PIN_OUT;
    GPIO1_PIN_HIGH;
   	GPIO2_PIN_HIGH;

    SPI_Init(0, 1000000, 1, 1);
 80005c4:	2301      	movs	r3, #1
 80005c6:	2201      	movs	r2, #1
 80005c8:	4905      	ldr	r1, [pc, #20]	; (80005e0 <AD9838_Init+0x20>)
 80005ca:	2000      	movs	r0, #0
 80005cc:	f000 f8a2 	bl	8000714 <SPI_Init>
    AD9838_SetRegisterValue(AD9838_REG_CMD | AD9838_RESET);
 80005d0:	f44f 7080 	mov.w	r0, #256	; 0x100
 80005d4:	f000 f80e 	bl	80005f4 <AD9838_SetRegisterValue>
	
    return (1);
 80005d8:	2301      	movs	r3, #1
}
 80005da:	4618      	mov	r0, r3
 80005dc:	bd80      	pop	{r7, pc}
 80005de:	bf00      	nop
 80005e0:	000f4240 	.word	0x000f4240

080005e4 <AD9838_Reset>:
 * @brief Sets the Reset bit of the AD9838.
 *
 * @return None.
*******************************************************************************/
void AD9838_Reset(void)
{
 80005e4:	b580      	push	{r7, lr}
 80005e6:	af00      	add	r7, sp, #0
    AD9838_SetRegisterValue(AD9838_REG_CMD | AD9838_RESET);
 80005e8:	f44f 7080 	mov.w	r0, #256	; 0x100
 80005ec:	f000 f802 	bl	80005f4 <AD9838_SetRegisterValue>
    //HAL_Delay(0.01);
}
 80005f0:	bf00      	nop
 80005f2:	bd80      	pop	{r7, pc}

080005f4 <AD9838_SetRegisterValue>:
 * @param -  regValue - The value to write to the register.
 *
 * @return  None.    
*******************************************************************************/
void AD9838_SetRegisterValue(unsigned short regValue)
{
 80005f4:	b580      	push	{r7, lr}
 80005f6:	b084      	sub	sp, #16
 80005f8:	af00      	add	r7, sp, #0
 80005fa:	4603      	mov	r3, r0
 80005fc:	80fb      	strh	r3, [r7, #6]
	unsigned char data[5] = {0x03, 0x00, 0x00};	
 80005fe:	f107 0308 	add.w	r3, r7, #8
 8000602:	2200      	movs	r2, #0
 8000604:	601a      	str	r2, [r3, #0]
 8000606:	711a      	strb	r2, [r3, #4]
 8000608:	2303      	movs	r3, #3
 800060a:	723b      	strb	r3, [r7, #8]
	
	data[1] = (unsigned char)((regValue & 0xFF00) >> 8);
 800060c:	88fb      	ldrh	r3, [r7, #6]
 800060e:	0a1b      	lsrs	r3, r3, #8
 8000610:	b29b      	uxth	r3, r3
 8000612:	b2db      	uxtb	r3, r3
 8000614:	727b      	strb	r3, [r7, #9]
	data[2] = (unsigned char)((regValue & 0x00FF) >> 0);
 8000616:	88fb      	ldrh	r3, [r7, #6]
 8000618:	b2db      	uxtb	r3, r3
 800061a:	72bb      	strb	r3, [r7, #10]
	ADI_CS_LOW;	    
 800061c:	2200      	movs	r2, #0
 800061e:	f44f 6180 	mov.w	r1, #1024	; 0x400
 8000622:	4809      	ldr	r0, [pc, #36]	; (8000648 <AD9838_SetRegisterValue+0x54>)
 8000624:	f000 ffbe 	bl	80015a4 <HAL_GPIO_WritePin>
	//HAL_Delay(0.01);
	SPI_Write(data,2);
 8000628:	f107 0308 	add.w	r3, r7, #8
 800062c:	2102      	movs	r1, #2
 800062e:	4618      	mov	r0, r3
 8000630:	f000 f88a 	bl	8000748 <SPI_Write>
	//HAL_Delay(0.01);
	ADI_CS_HIGH;
 8000634:	2201      	movs	r2, #1
 8000636:	f44f 6180 	mov.w	r1, #1024	; 0x400
 800063a:	4803      	ldr	r0, [pc, #12]	; (8000648 <AD9838_SetRegisterValue+0x54>)
 800063c:	f000 ffb2 	bl	80015a4 <HAL_GPIO_WritePin>
}
 8000640:	bf00      	nop
 8000642:	3710      	adds	r7, #16
 8000644:	46bd      	mov	sp, r7
 8000646:	bd80      	pop	{r7, pc}
 8000648:	40020000 	.word	0x40020000

0800064c <AD9838_SetFrequency>:
 * @param -  val - The value to be written.
 *
 * @return  None.    
*******************************************************************************/
void AD9838_SetFrequency(unsigned short reg, unsigned long val)
{
 800064c:	b580      	push	{r7, lr}
 800064e:	b084      	sub	sp, #16
 8000650:	af00      	add	r7, sp, #0
 8000652:	4603      	mov	r3, r0
 8000654:	6039      	str	r1, [r7, #0]
 8000656:	80fb      	strh	r3, [r7, #6]
	unsigned short freqHi = reg;
 8000658:	88fb      	ldrh	r3, [r7, #6]
 800065a:	81fb      	strh	r3, [r7, #14]
	unsigned short freqLo = reg;
 800065c:	88fb      	ldrh	r3, [r7, #6]
 800065e:	81bb      	strh	r3, [r7, #12]
	
	FSEL_PIN_OUT;		// Declare FSEL pin as output
	PSEL_PIN_OUT;		// Declare PSEL pin as output
	PSEL_LOW;
	FSEL_LOW;
	freqHi |= (val & 0xFFFC000) >> 14 ;
 8000660:	683b      	ldr	r3, [r7, #0]
 8000662:	0b9b      	lsrs	r3, r3, #14
 8000664:	b29b      	uxth	r3, r3
 8000666:	f3c3 030d 	ubfx	r3, r3, #0, #14
 800066a:	b29a      	uxth	r2, r3
 800066c:	89fb      	ldrh	r3, [r7, #14]
 800066e:	4313      	orrs	r3, r2
 8000670:	81fb      	strh	r3, [r7, #14]
	freqLo |= (val & 0x3FFF);
 8000672:	683b      	ldr	r3, [r7, #0]
 8000674:	b29b      	uxth	r3, r3
 8000676:	f3c3 030d 	ubfx	r3, r3, #0, #14
 800067a:	b29a      	uxth	r2, r3
 800067c:	89bb      	ldrh	r3, [r7, #12]
 800067e:	4313      	orrs	r3, r2
 8000680:	81bb      	strh	r3, [r7, #12]
	AD9838_SetRegisterValue(AD9838_B28);
 8000682:	f44f 5000 	mov.w	r0, #8192	; 0x2000
 8000686:	f7ff ffb5 	bl	80005f4 <AD9838_SetRegisterValue>
	AD9838_SetRegisterValue(freqLo);
 800068a:	89bb      	ldrh	r3, [r7, #12]
 800068c:	4618      	mov	r0, r3
 800068e:	f7ff ffb1 	bl	80005f4 <AD9838_SetRegisterValue>
	AD9838_SetRegisterValue(freqHi);
 8000692:	89fb      	ldrh	r3, [r7, #14]
 8000694:	4618      	mov	r0, r3
 8000696:	f7ff ffad 	bl	80005f4 <AD9838_SetRegisterValue>
}
 800069a:	bf00      	nop
 800069c:	3710      	adds	r7, #16
 800069e:	46bd      	mov	sp, r7
 80006a0:	bd80      	pop	{r7, pc}

080006a2 <AD9838_SetPhase>:
 * @param -  val - The value to be written.
 *
 * @return  None.    
*******************************************************************************/
void AD9838_SetPhase(unsigned short reg, unsigned short val)
{
 80006a2:	b580      	push	{r7, lr}
 80006a4:	b084      	sub	sp, #16
 80006a6:	af00      	add	r7, sp, #0
 80006a8:	4603      	mov	r3, r0
 80006aa:	460a      	mov	r2, r1
 80006ac:	80fb      	strh	r3, [r7, #6]
 80006ae:	4613      	mov	r3, r2
 80006b0:	80bb      	strh	r3, [r7, #4]
	unsigned short phase = reg;
 80006b2:	88fb      	ldrh	r3, [r7, #6]
 80006b4:	81fb      	strh	r3, [r7, #14]
	phase |= val;
 80006b6:	89fa      	ldrh	r2, [r7, #14]
 80006b8:	88bb      	ldrh	r3, [r7, #4]
 80006ba:	4313      	orrs	r3, r2
 80006bc:	81fb      	strh	r3, [r7, #14]
	AD9838_SetRegisterValue(phase);
 80006be:	89fb      	ldrh	r3, [r7, #14]
 80006c0:	4618      	mov	r0, r3
 80006c2:	f7ff ff97 	bl	80005f4 <AD9838_SetRegisterValue>
}
 80006c6:	bf00      	nop
 80006c8:	3710      	adds	r7, #16
 80006ca:	46bd      	mov	sp, r7
 80006cc:	bd80      	pop	{r7, pc}

080006ce <AD9838_Setup>:
*******************************************************************************/
void AD9838_Setup(unsigned short freq,
				  unsigned short phase,
			 	  unsigned short type,
				  unsigned short commandType)
{
 80006ce:	b590      	push	{r4, r7, lr}
 80006d0:	b085      	sub	sp, #20
 80006d2:	af00      	add	r7, sp, #0
 80006d4:	4604      	mov	r4, r0
 80006d6:	4608      	mov	r0, r1
 80006d8:	4611      	mov	r1, r2
 80006da:	461a      	mov	r2, r3
 80006dc:	4623      	mov	r3, r4
 80006de:	80fb      	strh	r3, [r7, #6]
 80006e0:	4603      	mov	r3, r0
 80006e2:	80bb      	strh	r3, [r7, #4]
 80006e4:	460b      	mov	r3, r1
 80006e6:	807b      	strh	r3, [r7, #2]
 80006e8:	4613      	mov	r3, r2
 80006ea:	803b      	strh	r3, [r7, #0]
	unsigned short val = 0;
 80006ec:	2300      	movs	r3, #0
 80006ee:	81fb      	strh	r3, [r7, #14]
	val = freq | phase | type | commandType;
 80006f0:	88fa      	ldrh	r2, [r7, #6]
 80006f2:	88bb      	ldrh	r3, [r7, #4]
 80006f4:	4313      	orrs	r3, r2
 80006f6:	b29a      	uxth	r2, r3
 80006f8:	887b      	ldrh	r3, [r7, #2]
 80006fa:	4313      	orrs	r3, r2
 80006fc:	b29a      	uxth	r2, r3
 80006fe:	883b      	ldrh	r3, [r7, #0]
 8000700:	4313      	orrs	r3, r2
 8000702:	81fb      	strh	r3, [r7, #14]
		else
		{
			PSEL_LOW;	
		}
	}
	AD9838_SetRegisterValue(val);
 8000704:	89fb      	ldrh	r3, [r7, #14]
 8000706:	4618      	mov	r0, r3
 8000708:	f7ff ff74 	bl	80005f4 <AD9838_SetRegisterValue>

}
 800070c:	bf00      	nop
 800070e:	3714      	adds	r7, #20
 8000710:	46bd      	mov	sp, r7
 8000712:	bd90      	pop	{r4, r7, pc}

08000714 <SPI_Init>:
*******************************************************************************/
unsigned char SPI_Init(unsigned char lsbFirst,
                       unsigned long clockFreq,
                       unsigned char clockPol,
                       unsigned char clockPha)
{
 8000714:	b580      	push	{r7, lr}
 8000716:	b082      	sub	sp, #8
 8000718:	af00      	add	r7, sp, #0
 800071a:	6039      	str	r1, [r7, #0]
 800071c:	4611      	mov	r1, r2
 800071e:	461a      	mov	r2, r3
 8000720:	4603      	mov	r3, r0
 8000722:	71fb      	strb	r3, [r7, #7]
 8000724:	460b      	mov	r3, r1
 8000726:	71bb      	strb	r3, [r7, #6]
 8000728:	4613      	mov	r3, r2
 800072a:	717b      	strb	r3, [r7, #5]
	ADI_CS_HIGH;
 800072c:	2201      	movs	r2, #1
 800072e:	f44f 6180 	mov.w	r1, #1024	; 0x400
 8000732:	4804      	ldr	r0, [pc, #16]	; (8000744 <SPI_Init+0x30>)
 8000734:	f000 ff36 	bl	80015a4 <HAL_GPIO_WritePin>
	return 1;
 8000738:	2301      	movs	r3, #1
}
 800073a:	4618      	mov	r0, r3
 800073c:	3708      	adds	r7, #8
 800073e:	46bd      	mov	sp, r7
 8000740:	bd80      	pop	{r7, pc}
 8000742:	bf00      	nop
 8000744:	40020000 	.word	0x40020000

08000748 <SPI_Write>:
 *
 * @return Number of written bytes.
*******************************************************************************/
unsigned char SPI_Write(unsigned char* data,
                        unsigned char bytesNumber)
{
 8000748:	b580      	push	{r7, lr}
 800074a:	b09e      	sub	sp, #120	; 0x78
 800074c:	af02      	add	r7, sp, #8
 800074e:	6078      	str	r0, [r7, #4]
 8000750:	460b      	mov	r3, r1
 8000752:	70fb      	strb	r3, [r7, #3]
	unsigned char chipSelect = data[0];
 8000754:	687b      	ldr	r3, [r7, #4]
 8000756:	781b      	ldrb	r3, [r3, #0]
 8000758:	f887 306d 	strb.w	r3, [r7, #109]	; 0x6d
	unsigned char writeData[4] = {0, 0, 0, 0};
 800075c:	2300      	movs	r3, #0
 800075e:	663b      	str	r3, [r7, #96]	; 0x60
	unsigned char readData[4] = {0, 0, 0, 0};
 8000760:	2300      	movs	r3, #0
 8000762:	65fb      	str	r3, [r7, #92]	; 0x5c
	unsigned char byte = 0;
 8000764:	2300      	movs	r3, #0
 8000766:	f887 306f 	strb.w	r3, [r7, #111]	; 0x6f

	for (byte = 0; byte < bytesNumber; byte++) {
 800076a:	2300      	movs	r3, #0
 800076c:	f887 306f 	strb.w	r3, [r7, #111]	; 0x6f
 8000770:	e011      	b.n	8000796 <SPI_Write+0x4e>
		writeData[byte] = data[byte + 1];
 8000772:	f897 306f 	ldrb.w	r3, [r7, #111]	; 0x6f
 8000776:	3301      	adds	r3, #1
 8000778:	687a      	ldr	r2, [r7, #4]
 800077a:	441a      	add	r2, r3
 800077c:	f897 306f 	ldrb.w	r3, [r7, #111]	; 0x6f
 8000780:	7812      	ldrb	r2, [r2, #0]
 8000782:	f107 0170 	add.w	r1, r7, #112	; 0x70
 8000786:	440b      	add	r3, r1
 8000788:	f803 2c10 	strb.w	r2, [r3, #-16]
	for (byte = 0; byte < bytesNumber; byte++) {
 800078c:	f897 306f 	ldrb.w	r3, [r7, #111]	; 0x6f
 8000790:	3301      	adds	r3, #1
 8000792:	f887 306f 	strb.w	r3, [r7, #111]	; 0x6f
 8000796:	f897 206f 	ldrb.w	r2, [r7, #111]	; 0x6f
 800079a:	78fb      	ldrb	r3, [r7, #3]
 800079c:	429a      	cmp	r2, r3
 800079e:	d3e8      	bcc.n	8000772 <SPI_Write+0x2a>
	}
	SPI_HandleTypeDef* spi = Get_SPI();
 80007a0:	f000 fa54 	bl	8000c4c <Get_SPI>
 80007a4:	66b8      	str	r0, [r7, #104]	; 0x68
	HAL_StatusTypeDef status;
	for (byte = 0; byte < bytesNumber; byte++) {
 80007a6:	2300      	movs	r3, #0
 80007a8:	f887 306f 	strb.w	r3, [r7, #111]	; 0x6f
 80007ac:	e01b      	b.n	80007e6 <SPI_Write+0x9e>
		status = HAL_SPI_TransmitReceive(spi, (uint8_t*)&writeData[byte], (uint8_t*)readData, 1, 100);
 80007ae:	f897 306f 	ldrb.w	r3, [r7, #111]	; 0x6f
 80007b2:	f107 0260 	add.w	r2, r7, #96	; 0x60
 80007b6:	18d1      	adds	r1, r2, r3
 80007b8:	f107 025c 	add.w	r2, r7, #92	; 0x5c
 80007bc:	2364      	movs	r3, #100	; 0x64
 80007be:	9300      	str	r3, [sp, #0]
 80007c0:	2301      	movs	r3, #1
 80007c2:	6eb8      	ldr	r0, [r7, #104]	; 0x68
 80007c4:	f001 fc80 	bl	80020c8 <HAL_SPI_TransmitReceive>
 80007c8:	4603      	mov	r3, r0
 80007ca:	f887 306e 	strb.w	r3, [r7, #110]	; 0x6e
		while (HAL_SPI_GetState(spi) != HAL_SPI_STATE_READY);
 80007ce:	bf00      	nop
 80007d0:	6eb8      	ldr	r0, [r7, #104]	; 0x68
 80007d2:	f001 fe1b 	bl	800240c <HAL_SPI_GetState>
 80007d6:	4603      	mov	r3, r0
 80007d8:	2b01      	cmp	r3, #1
 80007da:	d1f9      	bne.n	80007d0 <SPI_Write+0x88>
	for (byte = 0; byte < bytesNumber; byte++) {
 80007dc:	f897 306f 	ldrb.w	r3, [r7, #111]	; 0x6f
 80007e0:	3301      	adds	r3, #1
 80007e2:	f887 306f 	strb.w	r3, [r7, #111]	; 0x6f
 80007e6:	f897 206f 	ldrb.w	r2, [r7, #111]	; 0x6f
 80007ea:	78fb      	ldrb	r3, [r7, #3]
 80007ec:	429a      	cmp	r2, r3
 80007ee:	d3de      	bcc.n	80007ae <SPI_Write+0x66>
	}
	UART_HandleTypeDef* uart = Get_UART();
 80007f0:	f000 fa36 	bl	8000c60 <Get_UART>
 80007f4:	6678      	str	r0, [r7, #100]	; 0x64
	if (status == HAL_OK) {
 80007f6:	f897 306e 	ldrb.w	r3, [r7, #110]	; 0x6e
 80007fa:	2b00      	cmp	r3, #0
 80007fc:	d115      	bne.n	800082a <SPI_Write+0xe2>
		char msg[16];
		sprintf(msg, "%s\n", "OK");
 80007fe:	f107 034c 	add.w	r3, r7, #76	; 0x4c
 8000802:	4a3e      	ldr	r2, [pc, #248]	; (80008fc <SPI_Write+0x1b4>)
 8000804:	493e      	ldr	r1, [pc, #248]	; (8000900 <SPI_Write+0x1b8>)
 8000806:	4618      	mov	r0, r3
 8000808:	f002 fb98 	bl	8002f3c <siprintf>
		HAL_UART_Transmit(uart, (uint8_t*)msg, strlen(msg), HAL_MAX_DELAY);
 800080c:	f107 034c 	add.w	r3, r7, #76	; 0x4c
 8000810:	4618      	mov	r0, r3
 8000812:	f7ff fcfd 	bl	8000210 <strlen>
 8000816:	4603      	mov	r3, r0
 8000818:	b29a      	uxth	r2, r3
 800081a:	f107 014c 	add.w	r1, r7, #76	; 0x4c
 800081e:	f04f 33ff 	mov.w	r3, #4294967295
 8000822:	6e78      	ldr	r0, [r7, #100]	; 0x64
 8000824:	f001 fef9 	bl	800261a <HAL_UART_Transmit>
 8000828:	e062      	b.n	80008f0 <SPI_Write+0x1a8>
	} else if (status == HAL_ERROR) {
 800082a:	f897 306e 	ldrb.w	r3, [r7, #110]	; 0x6e
 800082e:	2b01      	cmp	r3, #1
 8000830:	d115      	bne.n	800085e <SPI_Write+0x116>
		char msg[16];
		sprintf(msg, "%s\n", "ER");
 8000832:	f107 033c 	add.w	r3, r7, #60	; 0x3c
 8000836:	4a33      	ldr	r2, [pc, #204]	; (8000904 <SPI_Write+0x1bc>)
 8000838:	4931      	ldr	r1, [pc, #196]	; (8000900 <SPI_Write+0x1b8>)
 800083a:	4618      	mov	r0, r3
 800083c:	f002 fb7e 	bl	8002f3c <siprintf>
		HAL_UART_Transmit(uart, (uint8_t*)msg, strlen(msg), HAL_MAX_DELAY);
 8000840:	f107 033c 	add.w	r3, r7, #60	; 0x3c
 8000844:	4618      	mov	r0, r3
 8000846:	f7ff fce3 	bl	8000210 <strlen>
 800084a:	4603      	mov	r3, r0
 800084c:	b29a      	uxth	r2, r3
 800084e:	f107 013c 	add.w	r1, r7, #60	; 0x3c
 8000852:	f04f 33ff 	mov.w	r3, #4294967295
 8000856:	6e78      	ldr	r0, [r7, #100]	; 0x64
 8000858:	f001 fedf 	bl	800261a <HAL_UART_Transmit>
 800085c:	e048      	b.n	80008f0 <SPI_Write+0x1a8>
	} else if (status == HAL_BUSY) {
 800085e:	f897 306e 	ldrb.w	r3, [r7, #110]	; 0x6e
 8000862:	2b02      	cmp	r3, #2
 8000864:	d115      	bne.n	8000892 <SPI_Write+0x14a>
		char msg[16];
		sprintf(msg, "%s\n", "BU");
 8000866:	f107 032c 	add.w	r3, r7, #44	; 0x2c
 800086a:	4a27      	ldr	r2, [pc, #156]	; (8000908 <SPI_Write+0x1c0>)
 800086c:	4924      	ldr	r1, [pc, #144]	; (8000900 <SPI_Write+0x1b8>)
 800086e:	4618      	mov	r0, r3
 8000870:	f002 fb64 	bl	8002f3c <siprintf>
		HAL_UART_Transmit(uart, (uint8_t*)msg, strlen(msg), HAL_MAX_DELAY);
 8000874:	f107 032c 	add.w	r3, r7, #44	; 0x2c
 8000878:	4618      	mov	r0, r3
 800087a:	f7ff fcc9 	bl	8000210 <strlen>
 800087e:	4603      	mov	r3, r0
 8000880:	b29a      	uxth	r2, r3
 8000882:	f107 012c 	add.w	r1, r7, #44	; 0x2c
 8000886:	f04f 33ff 	mov.w	r3, #4294967295
 800088a:	6e78      	ldr	r0, [r7, #100]	; 0x64
 800088c:	f001 fec5 	bl	800261a <HAL_UART_Transmit>
 8000890:	e02e      	b.n	80008f0 <SPI_Write+0x1a8>
	} else if (status == HAL_TIMEOUT) {
 8000892:	f897 306e 	ldrb.w	r3, [r7, #110]	; 0x6e
 8000896:	2b03      	cmp	r3, #3
 8000898:	d115      	bne.n	80008c6 <SPI_Write+0x17e>
		char msg[16];
		sprintf(msg, "%s\n", "TO");
 800089a:	f107 031c 	add.w	r3, r7, #28
 800089e:	4a1b      	ldr	r2, [pc, #108]	; (800090c <SPI_Write+0x1c4>)
 80008a0:	4917      	ldr	r1, [pc, #92]	; (8000900 <SPI_Write+0x1b8>)
 80008a2:	4618      	mov	r0, r3
 80008a4:	f002 fb4a 	bl	8002f3c <siprintf>
		HAL_UART_Transmit(uart, (uint8_t*)msg, strlen(msg), HAL_MAX_DELAY);
 80008a8:	f107 031c 	add.w	r3, r7, #28
 80008ac:	4618      	mov	r0, r3
 80008ae:	f7ff fcaf 	bl	8000210 <strlen>
 80008b2:	4603      	mov	r3, r0
 80008b4:	b29a      	uxth	r2, r3
 80008b6:	f107 011c 	add.w	r1, r7, #28
 80008ba:	f04f 33ff 	mov.w	r3, #4294967295
 80008be:	6e78      	ldr	r0, [r7, #100]	; 0x64
 80008c0:	f001 feab 	bl	800261a <HAL_UART_Transmit>
 80008c4:	e014      	b.n	80008f0 <SPI_Write+0x1a8>
	} else {
		char msg[16];
		sprintf(msg, "%s\n", "UK");
 80008c6:	f107 030c 	add.w	r3, r7, #12
 80008ca:	4a11      	ldr	r2, [pc, #68]	; (8000910 <SPI_Write+0x1c8>)
 80008cc:	490c      	ldr	r1, [pc, #48]	; (8000900 <SPI_Write+0x1b8>)
 80008ce:	4618      	mov	r0, r3
 80008d0:	f002 fb34 	bl	8002f3c <siprintf>
		HAL_UART_Transmit(uart, (uint8_t*)msg, strlen(msg), HAL_MAX_DELAY);
 80008d4:	f107 030c 	add.w	r3, r7, #12
 80008d8:	4618      	mov	r0, r3
 80008da:	f7ff fc99 	bl	8000210 <strlen>
 80008de:	4603      	mov	r3, r0
 80008e0:	b29a      	uxth	r2, r3
 80008e2:	f107 010c 	add.w	r1, r7, #12
 80008e6:	f04f 33ff 	mov.w	r3, #4294967295
 80008ea:	6e78      	ldr	r0, [r7, #100]	; 0x64
 80008ec:	f001 fe95 	bl	800261a <HAL_UART_Transmit>
	}
	return bytesNumber;
 80008f0:	78fb      	ldrb	r3, [r7, #3]
}
 80008f2:	4618      	mov	r0, r3
 80008f4:	3770      	adds	r7, #112	; 0x70
 80008f6:	46bd      	mov	sp, r7
 80008f8:	bd80      	pop	{r7, pc}
 80008fa:	bf00      	nop
 80008fc:	08003760 	.word	0x08003760
 8000900:	08003764 	.word	0x08003764
 8000904:	08003768 	.word	0x08003768
 8000908:	0800376c 	.word	0x0800376c
 800090c:	08003770 	.word	0x08003770
 8000910:	08003774 	.word	0x08003774

08000914 <main>:
/**
  * @brief  The application entry point.
  * @retval int
  */
int main(void)
{
 8000914:	b580      	push	{r7, lr}
 8000916:	b082      	sub	sp, #8
 8000918:	af00      	add	r7, sp, #0
  /* USER CODE END 1 */

  /* MCU Configuration--------------------------------------------------------*/

  /* Reset of all peripherals, Initializes the Flash interface and the Systick. */
  HAL_Init();
 800091a:	f000 fb37 	bl	8000f8c <HAL_Init>
  /* USER CODE BEGIN Init */

  /* USER CODE END Init */

  /* Configure the system clock */
  SystemClock_Config();
 800091e:	f000 f841 	bl	80009a4 <SystemClock_Config>
  /* USER CODE BEGIN SysInit */

  /* USER CODE END SysInit */

  /* Initialize all configured peripherals */
  MX_GPIO_Init();
 8000922:	f000 f90b 	bl	8000b3c <MX_GPIO_Init>
  MX_USART2_UART_Init();
 8000926:	f000 f8df 	bl	8000ae8 <MX_USART2_UART_Init>
  MX_SPI2_Init();
 800092a:	f000 f8a7 	bl	8000a7c <MX_SPI2_Init>
  /* USER CODE BEGIN 2 */
  HAL_GPIO_WritePin(GPIOA, GPIO_PIN_10, GPIO_PIN_SET);
 800092e:	2201      	movs	r2, #1
 8000930:	f44f 6180 	mov.w	r1, #1024	; 0x400
 8000934:	4819      	ldr	r0, [pc, #100]	; (800099c <main+0x88>)
 8000936:	f000 fe35 	bl	80015a4 <HAL_GPIO_WritePin>
  AD9838_Init();
 800093a:	f7ff fe41 	bl	80005c0 <AD9838_Init>
  //AD9838_Setup(AD9838_FSEL0, AD9838_PSEL1, AD9838_OUT_SINUS, AD9838_CMD_SW);
  AD9838_Reset();
 800093e:	f7ff fe51 	bl	80005e4 <AD9838_Reset>
  HAL_Delay(0.05);
 8000942:	2000      	movs	r0, #0
 8000944:	f000 fb94 	bl	8001070 <HAL_Delay>
  AD9838_SetFrequency(AD9838_REG_FREQ0, 1000);
 8000948:	f44f 717a 	mov.w	r1, #1000	; 0x3e8
 800094c:	f44f 4080 	mov.w	r0, #16384	; 0x4000
 8000950:	f7ff fe7c 	bl	800064c <AD9838_SetFrequency>
  AD9838_SetFrequency(AD9838_REG_FREQ1, 0x666666);
 8000954:	4912      	ldr	r1, [pc, #72]	; (80009a0 <main+0x8c>)
 8000956:	f44f 4000 	mov.w	r0, #32768	; 0x8000
 800095a:	f7ff fe77 	bl	800064c <AD9838_SetFrequency>
  AD9838_SetPhase(AD9838_REG_PHASE0, 0x00);
 800095e:	2100      	movs	r1, #0
 8000960:	f44f 4040 	mov.w	r0, #49152	; 0xc000
 8000964:	f7ff fe9d 	bl	80006a2 <AD9838_SetPhase>
  AD9838_SetPhase(AD9838_REG_PHASE1, 0x00);
 8000968:	2100      	movs	r1, #0
 800096a:	f44f 4060 	mov.w	r0, #57344	; 0xe000
 800096e:	f7ff fe98 	bl	80006a2 <AD9838_SetPhase>
  //AD9838_ClearReset();
  AD9838_Setup(AD9838_FSEL0, AD9838_PSEL1, AD9838_OUT_SINUS, AD9838_CMD_SW);
 8000972:	2300      	movs	r3, #0
 8000974:	2200      	movs	r2, #0
 8000976:	f44f 6180 	mov.w	r1, #1024	; 0x400
 800097a:	2000      	movs	r0, #0
 800097c:	f7ff fea7 	bl	80006ce <AD9838_Setup>
  HAL_Delay(500);
 8000980:	f44f 70fa 	mov.w	r0, #500	; 0x1f4
 8000984:	f000 fb74 	bl	8001070 <HAL_Delay>
  HAL_GPIO_WritePin(GPIOA, GPIO_PIN_10, GPIO_PIN_RESET);
 8000988:	2200      	movs	r2, #0
 800098a:	f44f 6180 	mov.w	r1, #1024	; 0x400
 800098e:	4803      	ldr	r0, [pc, #12]	; (800099c <main+0x88>)
 8000990:	f000 fe08 	bl	80015a4 <HAL_GPIO_WritePin>
  int i = 0;
 8000994:	2300      	movs	r3, #0
 8000996:	607b      	str	r3, [r7, #4]
  /* USER CODE END 2 */

  /* Infinite loop */
  /* USER CODE BEGIN WHILE */
  while (1)
 8000998:	e7fe      	b.n	8000998 <main+0x84>
 800099a:	bf00      	nop
 800099c:	40020000 	.word	0x40020000
 80009a0:	00666666 	.word	0x00666666

080009a4 <SystemClock_Config>:
/**
  * @brief System Clock Configuration
  * @retval None
  */
void SystemClock_Config(void)
{
 80009a4:	b580      	push	{r7, lr}
 80009a6:	b094      	sub	sp, #80	; 0x50
 80009a8:	af00      	add	r7, sp, #0
  RCC_OscInitTypeDef RCC_OscInitStruct = {0};
 80009aa:	f107 031c 	add.w	r3, r7, #28
 80009ae:	2234      	movs	r2, #52	; 0x34
 80009b0:	2100      	movs	r1, #0
 80009b2:	4618      	mov	r0, r3
 80009b4:	f002 faba 	bl	8002f2c <memset>
  RCC_ClkInitTypeDef RCC_ClkInitStruct = {0};
 80009b8:	f107 0308 	add.w	r3, r7, #8
 80009bc:	2200      	movs	r2, #0
 80009be:	601a      	str	r2, [r3, #0]
 80009c0:	605a      	str	r2, [r3, #4]
 80009c2:	609a      	str	r2, [r3, #8]
 80009c4:	60da      	str	r2, [r3, #12]
 80009c6:	611a      	str	r2, [r3, #16]

  /** Configure the main internal regulator output voltage
  */
  __HAL_RCC_PWR_CLK_ENABLE();
 80009c8:	2300      	movs	r3, #0
 80009ca:	607b      	str	r3, [r7, #4]
 80009cc:	4b29      	ldr	r3, [pc, #164]	; (8000a74 <SystemClock_Config+0xd0>)
 80009ce:	6c1b      	ldr	r3, [r3, #64]	; 0x40
 80009d0:	4a28      	ldr	r2, [pc, #160]	; (8000a74 <SystemClock_Config+0xd0>)
 80009d2:	f043 5380 	orr.w	r3, r3, #268435456	; 0x10000000
 80009d6:	6413      	str	r3, [r2, #64]	; 0x40
 80009d8:	4b26      	ldr	r3, [pc, #152]	; (8000a74 <SystemClock_Config+0xd0>)
 80009da:	6c1b      	ldr	r3, [r3, #64]	; 0x40
 80009dc:	f003 5380 	and.w	r3, r3, #268435456	; 0x10000000
 80009e0:	607b      	str	r3, [r7, #4]
 80009e2:	687b      	ldr	r3, [r7, #4]
  __HAL_PWR_VOLTAGESCALING_CONFIG(PWR_REGULATOR_VOLTAGE_SCALE3);
 80009e4:	2300      	movs	r3, #0
 80009e6:	603b      	str	r3, [r7, #0]
 80009e8:	4b23      	ldr	r3, [pc, #140]	; (8000a78 <SystemClock_Config+0xd4>)
 80009ea:	681b      	ldr	r3, [r3, #0]
 80009ec:	f423 4340 	bic.w	r3, r3, #49152	; 0xc000
 80009f0:	4a21      	ldr	r2, [pc, #132]	; (8000a78 <SystemClock_Config+0xd4>)
 80009f2:	f443 4380 	orr.w	r3, r3, #16384	; 0x4000
 80009f6:	6013      	str	r3, [r2, #0]
 80009f8:	4b1f      	ldr	r3, [pc, #124]	; (8000a78 <SystemClock_Config+0xd4>)
 80009fa:	681b      	ldr	r3, [r3, #0]
 80009fc:	f403 4340 	and.w	r3, r3, #49152	; 0xc000
 8000a00:	603b      	str	r3, [r7, #0]
 8000a02:	683b      	ldr	r3, [r7, #0]
  /** Initializes the RCC Oscillators according to the specified parameters
  * in the RCC_OscInitTypeDef structure.
  */
  RCC_OscInitStruct.OscillatorType = RCC_OSCILLATORTYPE_HSI;
 8000a04:	2302      	movs	r3, #2
 8000a06:	61fb      	str	r3, [r7, #28]
  RCC_OscInitStruct.HSIState = RCC_HSI_ON;
 8000a08:	2301      	movs	r3, #1
 8000a0a:	62bb      	str	r3, [r7, #40]	; 0x28
  RCC_OscInitStruct.HSICalibrationValue = RCC_HSICALIBRATION_DEFAULT;
 8000a0c:	2310      	movs	r3, #16
 8000a0e:	62fb      	str	r3, [r7, #44]	; 0x2c
  RCC_OscInitStruct.PLL.PLLState = RCC_PLL_ON;
 8000a10:	2302      	movs	r3, #2
 8000a12:	637b      	str	r3, [r7, #52]	; 0x34
  RCC_OscInitStruct.PLL.PLLSource = RCC_PLLSOURCE_HSI;
 8000a14:	2300      	movs	r3, #0
 8000a16:	63bb      	str	r3, [r7, #56]	; 0x38
  RCC_OscInitStruct.PLL.PLLM = 8;
 8000a18:	2308      	movs	r3, #8
 8000a1a:	63fb      	str	r3, [r7, #60]	; 0x3c
  RCC_OscInitStruct.PLL.PLLN = 64;
 8000a1c:	2340      	movs	r3, #64	; 0x40
 8000a1e:	643b      	str	r3, [r7, #64]	; 0x40
  RCC_OscInitStruct.PLL.PLLP = RCC_PLLP_DIV2;
 8000a20:	2302      	movs	r3, #2
 8000a22:	647b      	str	r3, [r7, #68]	; 0x44
  RCC_OscInitStruct.PLL.PLLQ = 2;
 8000a24:	2302      	movs	r3, #2
 8000a26:	64bb      	str	r3, [r7, #72]	; 0x48
  RCC_OscInitStruct.PLL.PLLR = 2;
 8000a28:	2302      	movs	r3, #2
 8000a2a:	64fb      	str	r3, [r7, #76]	; 0x4c
  if (HAL_RCC_OscConfig(&RCC_OscInitStruct) != HAL_OK)
 8000a2c:	f107 031c 	add.w	r3, r7, #28
 8000a30:	4618      	mov	r0, r3
 8000a32:	f001 f88b 	bl	8001b4c <HAL_RCC_OscConfig>
 8000a36:	4603      	mov	r3, r0
 8000a38:	2b00      	cmp	r3, #0
 8000a3a:	d001      	beq.n	8000a40 <SystemClock_Config+0x9c>
  {
    Error_Handler();
 8000a3c:	f000 f91a 	bl	8000c74 <Error_Handler>
  }
  /** Initializes the CPU, AHB and APB buses clocks
  */
  RCC_ClkInitStruct.ClockType = RCC_CLOCKTYPE_HCLK|RCC_CLOCKTYPE_SYSCLK
 8000a40:	230f      	movs	r3, #15
 8000a42:	60bb      	str	r3, [r7, #8]
                              |RCC_CLOCKTYPE_PCLK1|RCC_CLOCKTYPE_PCLK2;
  RCC_ClkInitStruct.SYSCLKSource = RCC_SYSCLKSOURCE_PLLCLK;
 8000a44:	2302      	movs	r3, #2
 8000a46:	60fb      	str	r3, [r7, #12]
  RCC_ClkInitStruct.AHBCLKDivider = RCC_SYSCLK_DIV1;
 8000a48:	2300      	movs	r3, #0
 8000a4a:	613b      	str	r3, [r7, #16]
  RCC_ClkInitStruct.APB1CLKDivider = RCC_HCLK_DIV2;
 8000a4c:	f44f 5380 	mov.w	r3, #4096	; 0x1000
 8000a50:	617b      	str	r3, [r7, #20]
  RCC_ClkInitStruct.APB2CLKDivider = RCC_HCLK_DIV1;
 8000a52:	2300      	movs	r3, #0
 8000a54:	61bb      	str	r3, [r7, #24]

  if (HAL_RCC_ClockConfig(&RCC_ClkInitStruct, FLASH_LATENCY_2) != HAL_OK)
 8000a56:	f107 0308 	add.w	r3, r7, #8
 8000a5a:	2102      	movs	r1, #2
 8000a5c:	4618      	mov	r0, r3
 8000a5e:	f000 fdbb 	bl	80015d8 <HAL_RCC_ClockConfig>
 8000a62:	4603      	mov	r3, r0
 8000a64:	2b00      	cmp	r3, #0
 8000a66:	d001      	beq.n	8000a6c <SystemClock_Config+0xc8>
  {
    Error_Handler();
 8000a68:	f000 f904 	bl	8000c74 <Error_Handler>
  }
}
 8000a6c:	bf00      	nop
 8000a6e:	3750      	adds	r7, #80	; 0x50
 8000a70:	46bd      	mov	sp, r7
 8000a72:	bd80      	pop	{r7, pc}
 8000a74:	40023800 	.word	0x40023800
 8000a78:	40007000 	.word	0x40007000

08000a7c <MX_SPI2_Init>:
  * @brief SPI2 Initialization Function
  * @param None
  * @retval None
  */
static void MX_SPI2_Init(void)
{
 8000a7c:	b580      	push	{r7, lr}
 8000a7e:	af00      	add	r7, sp, #0

  /* USER CODE BEGIN SPI2_Init 1 */

  /* USER CODE END SPI2_Init 1 */
  /* SPI2 parameter configuration*/
  hspi2.Instance = SPI2;
 8000a80:	4b17      	ldr	r3, [pc, #92]	; (8000ae0 <MX_SPI2_Init+0x64>)
 8000a82:	4a18      	ldr	r2, [pc, #96]	; (8000ae4 <MX_SPI2_Init+0x68>)
 8000a84:	601a      	str	r2, [r3, #0]
  hspi2.Init.Mode = SPI_MODE_MASTER;
 8000a86:	4b16      	ldr	r3, [pc, #88]	; (8000ae0 <MX_SPI2_Init+0x64>)
 8000a88:	f44f 7282 	mov.w	r2, #260	; 0x104
 8000a8c:	605a      	str	r2, [r3, #4]
  hspi2.Init.Direction = SPI_DIRECTION_2LINES;
 8000a8e:	4b14      	ldr	r3, [pc, #80]	; (8000ae0 <MX_SPI2_Init+0x64>)
 8000a90:	2200      	movs	r2, #0
 8000a92:	609a      	str	r2, [r3, #8]
  hspi2.Init.DataSize = SPI_DATASIZE_8BIT;
 8000a94:	4b12      	ldr	r3, [pc, #72]	; (8000ae0 <MX_SPI2_Init+0x64>)
 8000a96:	2200      	movs	r2, #0
 8000a98:	60da      	str	r2, [r3, #12]
  hspi2.Init.CLKPolarity = SPI_POLARITY_HIGH;
 8000a9a:	4b11      	ldr	r3, [pc, #68]	; (8000ae0 <MX_SPI2_Init+0x64>)
 8000a9c:	2202      	movs	r2, #2
 8000a9e:	611a      	str	r2, [r3, #16]
  hspi2.Init.CLKPhase = SPI_PHASE_2EDGE;
 8000aa0:	4b0f      	ldr	r3, [pc, #60]	; (8000ae0 <MX_SPI2_Init+0x64>)
 8000aa2:	2201      	movs	r2, #1
 8000aa4:	615a      	str	r2, [r3, #20]
  hspi2.Init.NSS = SPI_NSS_SOFT;
 8000aa6:	4b0e      	ldr	r3, [pc, #56]	; (8000ae0 <MX_SPI2_Init+0x64>)
 8000aa8:	f44f 7200 	mov.w	r2, #512	; 0x200
 8000aac:	619a      	str	r2, [r3, #24]
  hspi2.Init.BaudRatePrescaler = SPI_BAUDRATEPRESCALER_32;
 8000aae:	4b0c      	ldr	r3, [pc, #48]	; (8000ae0 <MX_SPI2_Init+0x64>)
 8000ab0:	2220      	movs	r2, #32
 8000ab2:	61da      	str	r2, [r3, #28]
  hspi2.Init.FirstBit = SPI_FIRSTBIT_MSB;
 8000ab4:	4b0a      	ldr	r3, [pc, #40]	; (8000ae0 <MX_SPI2_Init+0x64>)
 8000ab6:	2200      	movs	r2, #0
 8000ab8:	621a      	str	r2, [r3, #32]
  hspi2.Init.TIMode = SPI_TIMODE_DISABLE;
 8000aba:	4b09      	ldr	r3, [pc, #36]	; (8000ae0 <MX_SPI2_Init+0x64>)
 8000abc:	2200      	movs	r2, #0
 8000abe:	625a      	str	r2, [r3, #36]	; 0x24
  hspi2.Init.CRCCalculation = SPI_CRCCALCULATION_DISABLE;
 8000ac0:	4b07      	ldr	r3, [pc, #28]	; (8000ae0 <MX_SPI2_Init+0x64>)
 8000ac2:	2200      	movs	r2, #0
 8000ac4:	629a      	str	r2, [r3, #40]	; 0x28
  hspi2.Init.CRCPolynomial = 10;
 8000ac6:	4b06      	ldr	r3, [pc, #24]	; (8000ae0 <MX_SPI2_Init+0x64>)
 8000ac8:	220a      	movs	r2, #10
 8000aca:	62da      	str	r2, [r3, #44]	; 0x2c
  if (HAL_SPI_Init(&hspi2) != HAL_OK)
 8000acc:	4804      	ldr	r0, [pc, #16]	; (8000ae0 <MX_SPI2_Init+0x64>)
 8000ace:	f001 fa97 	bl	8002000 <HAL_SPI_Init>
 8000ad2:	4603      	mov	r3, r0
 8000ad4:	2b00      	cmp	r3, #0
 8000ad6:	d001      	beq.n	8000adc <MX_SPI2_Init+0x60>
  {
    Error_Handler();
 8000ad8:	f000 f8cc 	bl	8000c74 <Error_Handler>
  }
  /* USER CODE BEGIN SPI2_Init 2 */

  /* USER CODE END SPI2_Init 2 */

}
 8000adc:	bf00      	nop
 8000ade:	bd80      	pop	{r7, pc}
 8000ae0:	20000098 	.word	0x20000098
 8000ae4:	40003800 	.word	0x40003800

08000ae8 <MX_USART2_UART_Init>:
  * @brief USART2 Initialization Function
  * @param None
  * @retval None
  */
static void MX_USART2_UART_Init(void)
{
 8000ae8:	b580      	push	{r7, lr}
 8000aea:	af00      	add	r7, sp, #0
  /* USER CODE END USART2_Init 0 */

  /* USER CODE BEGIN USART2_Init 1 */

  /* USER CODE END USART2_Init 1 */
  huart2.Instance = USART2;
 8000aec:	4b11      	ldr	r3, [pc, #68]	; (8000b34 <MX_USART2_UART_Init+0x4c>)
 8000aee:	4a12      	ldr	r2, [pc, #72]	; (8000b38 <MX_USART2_UART_Init+0x50>)
 8000af0:	601a      	str	r2, [r3, #0]
  huart2.Init.BaudRate = 115200;
 8000af2:	4b10      	ldr	r3, [pc, #64]	; (8000b34 <MX_USART2_UART_Init+0x4c>)
 8000af4:	f44f 32e1 	mov.w	r2, #115200	; 0x1c200
 8000af8:	605a      	str	r2, [r3, #4]
  huart2.Init.WordLength = UART_WORDLENGTH_8B;
 8000afa:	4b0e      	ldr	r3, [pc, #56]	; (8000b34 <MX_USART2_UART_Init+0x4c>)
 8000afc:	2200      	movs	r2, #0
 8000afe:	609a      	str	r2, [r3, #8]
  huart2.Init.StopBits = UART_STOPBITS_1;
 8000b00:	4b0c      	ldr	r3, [pc, #48]	; (8000b34 <MX_USART2_UART_Init+0x4c>)
 8000b02:	2200      	movs	r2, #0
 8000b04:	60da      	str	r2, [r3, #12]
  huart2.Init.Parity = UART_PARITY_NONE;
 8000b06:	4b0b      	ldr	r3, [pc, #44]	; (8000b34 <MX_USART2_UART_Init+0x4c>)
 8000b08:	2200      	movs	r2, #0
 8000b0a:	611a      	str	r2, [r3, #16]
  huart2.Init.Mode = UART_MODE_TX_RX;
 8000b0c:	4b09      	ldr	r3, [pc, #36]	; (8000b34 <MX_USART2_UART_Init+0x4c>)
 8000b0e:	220c      	movs	r2, #12
 8000b10:	615a      	str	r2, [r3, #20]
  huart2.Init.HwFlowCtl = UART_HWCONTROL_NONE;
 8000b12:	4b08      	ldr	r3, [pc, #32]	; (8000b34 <MX_USART2_UART_Init+0x4c>)
 8000b14:	2200      	movs	r2, #0
 8000b16:	619a      	str	r2, [r3, #24]
  huart2.Init.OverSampling = UART_OVERSAMPLING_16;
 8000b18:	4b06      	ldr	r3, [pc, #24]	; (8000b34 <MX_USART2_UART_Init+0x4c>)
 8000b1a:	2200      	movs	r2, #0
 8000b1c:	61da      	str	r2, [r3, #28]
  if (HAL_UART_Init(&huart2) != HAL_OK)
 8000b1e:	4805      	ldr	r0, [pc, #20]	; (8000b34 <MX_USART2_UART_Init+0x4c>)
 8000b20:	f001 fd2e 	bl	8002580 <HAL_UART_Init>
 8000b24:	4603      	mov	r3, r0
 8000b26:	2b00      	cmp	r3, #0
 8000b28:	d001      	beq.n	8000b2e <MX_USART2_UART_Init+0x46>
  {
    Error_Handler();
 8000b2a:	f000 f8a3 	bl	8000c74 <Error_Handler>
  }
  /* USER CODE BEGIN USART2_Init 2 */

  /* USER CODE END USART2_Init 2 */

}
 8000b2e:	bf00      	nop
 8000b30:	bd80      	pop	{r7, pc}
 8000b32:	bf00      	nop
 8000b34:	200000f0 	.word	0x200000f0
 8000b38:	40004400 	.word	0x40004400

08000b3c <MX_GPIO_Init>:
  * @brief GPIO Initialization Function
  * @param None
  * @retval None
  */
static void MX_GPIO_Init(void)
{
 8000b3c:	b580      	push	{r7, lr}
 8000b3e:	b08a      	sub	sp, #40	; 0x28
 8000b40:	af00      	add	r7, sp, #0
  GPIO_InitTypeDef GPIO_InitStruct = {0};
 8000b42:	f107 0314 	add.w	r3, r7, #20
 8000b46:	2200      	movs	r2, #0
 8000b48:	601a      	str	r2, [r3, #0]
 8000b4a:	605a      	str	r2, [r3, #4]
 8000b4c:	609a      	str	r2, [r3, #8]
 8000b4e:	60da      	str	r2, [r3, #12]
 8000b50:	611a      	str	r2, [r3, #16]

  /* GPIO Ports Clock Enable */
  __HAL_RCC_GPIOC_CLK_ENABLE();
 8000b52:	2300      	movs	r3, #0
 8000b54:	613b      	str	r3, [r7, #16]
 8000b56:	4b38      	ldr	r3, [pc, #224]	; (8000c38 <MX_GPIO_Init+0xfc>)
 8000b58:	6b1b      	ldr	r3, [r3, #48]	; 0x30
 8000b5a:	4a37      	ldr	r2, [pc, #220]	; (8000c38 <MX_GPIO_Init+0xfc>)
 8000b5c:	f043 0304 	orr.w	r3, r3, #4
 8000b60:	6313      	str	r3, [r2, #48]	; 0x30
 8000b62:	4b35      	ldr	r3, [pc, #212]	; (8000c38 <MX_GPIO_Init+0xfc>)
 8000b64:	6b1b      	ldr	r3, [r3, #48]	; 0x30
 8000b66:	f003 0304 	and.w	r3, r3, #4
 8000b6a:	613b      	str	r3, [r7, #16]
 8000b6c:	693b      	ldr	r3, [r7, #16]
  __HAL_RCC_GPIOH_CLK_ENABLE();
 8000b6e:	2300      	movs	r3, #0
 8000b70:	60fb      	str	r3, [r7, #12]
 8000b72:	4b31      	ldr	r3, [pc, #196]	; (8000c38 <MX_GPIO_Init+0xfc>)
 8000b74:	6b1b      	ldr	r3, [r3, #48]	; 0x30
 8000b76:	4a30      	ldr	r2, [pc, #192]	; (8000c38 <MX_GPIO_Init+0xfc>)
 8000b78:	f043 0380 	orr.w	r3, r3, #128	; 0x80
 8000b7c:	6313      	str	r3, [r2, #48]	; 0x30
 8000b7e:	4b2e      	ldr	r3, [pc, #184]	; (8000c38 <MX_GPIO_Init+0xfc>)
 8000b80:	6b1b      	ldr	r3, [r3, #48]	; 0x30
 8000b82:	f003 0380 	and.w	r3, r3, #128	; 0x80
 8000b86:	60fb      	str	r3, [r7, #12]
 8000b88:	68fb      	ldr	r3, [r7, #12]
  __HAL_RCC_GPIOA_CLK_ENABLE();
 8000b8a:	2300      	movs	r3, #0
 8000b8c:	60bb      	str	r3, [r7, #8]
 8000b8e:	4b2a      	ldr	r3, [pc, #168]	; (8000c38 <MX_GPIO_Init+0xfc>)
 8000b90:	6b1b      	ldr	r3, [r3, #48]	; 0x30
 8000b92:	4a29      	ldr	r2, [pc, #164]	; (8000c38 <MX_GPIO_Init+0xfc>)
 8000b94:	f043 0301 	orr.w	r3, r3, #1
 8000b98:	6313      	str	r3, [r2, #48]	; 0x30
 8000b9a:	4b27      	ldr	r3, [pc, #156]	; (8000c38 <MX_GPIO_Init+0xfc>)
 8000b9c:	6b1b      	ldr	r3, [r3, #48]	; 0x30
 8000b9e:	f003 0301 	and.w	r3, r3, #1
 8000ba2:	60bb      	str	r3, [r7, #8]
 8000ba4:	68bb      	ldr	r3, [r7, #8]
  __HAL_RCC_GPIOB_CLK_ENABLE();
 8000ba6:	2300      	movs	r3, #0
 8000ba8:	607b      	str	r3, [r7, #4]
 8000baa:	4b23      	ldr	r3, [pc, #140]	; (8000c38 <MX_GPIO_Init+0xfc>)
 8000bac:	6b1b      	ldr	r3, [r3, #48]	; 0x30
 8000bae:	4a22      	ldr	r2, [pc, #136]	; (8000c38 <MX_GPIO_Init+0xfc>)
 8000bb0:	f043 0302 	orr.w	r3, r3, #2
 8000bb4:	6313      	str	r3, [r2, #48]	; 0x30
 8000bb6:	4b20      	ldr	r3, [pc, #128]	; (8000c38 <MX_GPIO_Init+0xfc>)
 8000bb8:	6b1b      	ldr	r3, [r3, #48]	; 0x30
 8000bba:	f003 0302 	and.w	r3, r3, #2
 8000bbe:	607b      	str	r3, [r7, #4]
 8000bc0:	687b      	ldr	r3, [r7, #4]

  /*Configure GPIO pin Output Level */
  HAL_GPIO_WritePin(GPIOA, GPIO_PIN_10, GPIO_PIN_RESET);
 8000bc2:	2200      	movs	r2, #0
 8000bc4:	f44f 6180 	mov.w	r1, #1024	; 0x400
 8000bc8:	481c      	ldr	r0, [pc, #112]	; (8000c3c <MX_GPIO_Init+0x100>)
 8000bca:	f000 fceb 	bl	80015a4 <HAL_GPIO_WritePin>

  /*Configure GPIO pin Output Level */
  HAL_GPIO_WritePin(GPIOB, GPIO_PIN_9, GPIO_PIN_RESET);
 8000bce:	2200      	movs	r2, #0
 8000bd0:	f44f 7100 	mov.w	r1, #512	; 0x200
 8000bd4:	481a      	ldr	r0, [pc, #104]	; (8000c40 <MX_GPIO_Init+0x104>)
 8000bd6:	f000 fce5 	bl	80015a4 <HAL_GPIO_WritePin>

  /*Configure GPIO pin : B1_Pin */
  GPIO_InitStruct.Pin = B1_Pin;
 8000bda:	f44f 5300 	mov.w	r3, #8192	; 0x2000
 8000bde:	617b      	str	r3, [r7, #20]
  GPIO_InitStruct.Mode = GPIO_MODE_IT_FALLING;
 8000be0:	4b18      	ldr	r3, [pc, #96]	; (8000c44 <MX_GPIO_Init+0x108>)
 8000be2:	61bb      	str	r3, [r7, #24]
  GPIO_InitStruct.Pull = GPIO_NOPULL;
 8000be4:	2300      	movs	r3, #0
 8000be6:	61fb      	str	r3, [r7, #28]
  HAL_GPIO_Init(B1_GPIO_Port, &GPIO_InitStruct);
 8000be8:	f107 0314 	add.w	r3, r7, #20
 8000bec:	4619      	mov	r1, r3
 8000bee:	4816      	ldr	r0, [pc, #88]	; (8000c48 <MX_GPIO_Init+0x10c>)
 8000bf0:	f000 fb46 	bl	8001280 <HAL_GPIO_Init>

  /*Configure GPIO pin : PA10 */
  GPIO_InitStruct.Pin = GPIO_PIN_10;
 8000bf4:	f44f 6380 	mov.w	r3, #1024	; 0x400
 8000bf8:	617b      	str	r3, [r7, #20]
  GPIO_InitStruct.Mode = GPIO_MODE_OUTPUT_PP;
 8000bfa:	2301      	movs	r3, #1
 8000bfc:	61bb      	str	r3, [r7, #24]
  GPIO_InitStruct.Pull = GPIO_NOPULL;
 8000bfe:	2300      	movs	r3, #0
 8000c00:	61fb      	str	r3, [r7, #28]
  GPIO_InitStruct.Speed = GPIO_SPEED_FREQ_LOW;
 8000c02:	2300      	movs	r3, #0
 8000c04:	623b      	str	r3, [r7, #32]
  HAL_GPIO_Init(GPIOA, &GPIO_InitStruct);
 8000c06:	f107 0314 	add.w	r3, r7, #20
 8000c0a:	4619      	mov	r1, r3
 8000c0c:	480b      	ldr	r0, [pc, #44]	; (8000c3c <MX_GPIO_Init+0x100>)
 8000c0e:	f000 fb37 	bl	8001280 <HAL_GPIO_Init>

  /*Configure GPIO pin : PB9 */
  GPIO_InitStruct.Pin = GPIO_PIN_9;
 8000c12:	f44f 7300 	mov.w	r3, #512	; 0x200
 8000c16:	617b      	str	r3, [r7, #20]
  GPIO_InitStruct.Mode = GPIO_MODE_OUTPUT_PP;
 8000c18:	2301      	movs	r3, #1
 8000c1a:	61bb      	str	r3, [r7, #24]
  GPIO_InitStruct.Pull = GPIO_NOPULL;
 8000c1c:	2300      	movs	r3, #0
 8000c1e:	61fb      	str	r3, [r7, #28]
  GPIO_InitStruct.Speed = GPIO_SPEED_FREQ_LOW;
 8000c20:	2300      	movs	r3, #0
 8000c22:	623b      	str	r3, [r7, #32]
  HAL_GPIO_Init(GPIOB, &GPIO_InitStruct);
 8000c24:	f107 0314 	add.w	r3, r7, #20
 8000c28:	4619      	mov	r1, r3
 8000c2a:	4805      	ldr	r0, [pc, #20]	; (8000c40 <MX_GPIO_Init+0x104>)
 8000c2c:	f000 fb28 	bl	8001280 <HAL_GPIO_Init>

}
 8000c30:	bf00      	nop
 8000c32:	3728      	adds	r7, #40	; 0x28
 8000c34:	46bd      	mov	sp, r7
 8000c36:	bd80      	pop	{r7, pc}
 8000c38:	40023800 	.word	0x40023800
 8000c3c:	40020000 	.word	0x40020000
 8000c40:	40020400 	.word	0x40020400
 8000c44:	10210000 	.word	0x10210000
 8000c48:	40020800 	.word	0x40020800

08000c4c <Get_SPI>:

/* USER CODE BEGIN 4 */
SPI_HandleTypeDef* Get_SPI(void) {
 8000c4c:	b480      	push	{r7}
 8000c4e:	af00      	add	r7, sp, #0
	return &hspi2;
 8000c50:	4b02      	ldr	r3, [pc, #8]	; (8000c5c <Get_SPI+0x10>)
}
 8000c52:	4618      	mov	r0, r3
 8000c54:	46bd      	mov	sp, r7
 8000c56:	f85d 7b04 	ldr.w	r7, [sp], #4
 8000c5a:	4770      	bx	lr
 8000c5c:	20000098 	.word	0x20000098

08000c60 <Get_UART>:

UART_HandleTypeDef* Get_UART(void) {
 8000c60:	b480      	push	{r7}
 8000c62:	af00      	add	r7, sp, #0
	return &huart2;
 8000c64:	4b02      	ldr	r3, [pc, #8]	; (8000c70 <Get_UART+0x10>)
}
 8000c66:	4618      	mov	r0, r3
 8000c68:	46bd      	mov	sp, r7
 8000c6a:	f85d 7b04 	ldr.w	r7, [sp], #4
 8000c6e:	4770      	bx	lr
 8000c70:	200000f0 	.word	0x200000f0

08000c74 <Error_Handler>:
/**
  * @brief  This function is executed in case of error occurrence.
  * @retval None
  */
void Error_Handler(void)
{
 8000c74:	b480      	push	{r7}
 8000c76:	af00      	add	r7, sp, #0
  \details Disables IRQ interrupts by setting the I-bit in the CPSR.
           Can only be executed in Privileged modes.
 */
__STATIC_FORCEINLINE void __disable_irq(void)
{
  __ASM volatile ("cpsid i" : : : "memory");
 8000c78:	b672      	cpsid	i
  /* USER CODE BEGIN Error_Handler_Debug */
  /* User can add his own implementation to report the HAL error return state */
  __disable_irq();
  while (1)
 8000c7a:	e7fe      	b.n	8000c7a <Error_Handler+0x6>

08000c7c <HAL_MspInit>:
/* USER CODE END 0 */
/**
  * Initializes the Global MSP.
  */
void HAL_MspInit(void)
{
 8000c7c:	b580      	push	{r7, lr}
 8000c7e:	b082      	sub	sp, #8
 8000c80:	af00      	add	r7, sp, #0
  /* USER CODE BEGIN MspInit 0 */

  /* USER CODE END MspInit 0 */

  __HAL_RCC_SYSCFG_CLK_ENABLE();
 8000c82:	2300      	movs	r3, #0
 8000c84:	607b      	str	r3, [r7, #4]
 8000c86:	4b10      	ldr	r3, [pc, #64]	; (8000cc8 <HAL_MspInit+0x4c>)
 8000c88:	6c5b      	ldr	r3, [r3, #68]	; 0x44
 8000c8a:	4a0f      	ldr	r2, [pc, #60]	; (8000cc8 <HAL_MspInit+0x4c>)
 8000c8c:	f443 4380 	orr.w	r3, r3, #16384	; 0x4000
 8000c90:	6453      	str	r3, [r2, #68]	; 0x44
 8000c92:	4b0d      	ldr	r3, [pc, #52]	; (8000cc8 <HAL_MspInit+0x4c>)
 8000c94:	6c5b      	ldr	r3, [r3, #68]	; 0x44
 8000c96:	f403 4380 	and.w	r3, r3, #16384	; 0x4000
 8000c9a:	607b      	str	r3, [r7, #4]
 8000c9c:	687b      	ldr	r3, [r7, #4]
  __HAL_RCC_PWR_CLK_ENABLE();
 8000c9e:	2300      	movs	r3, #0
 8000ca0:	603b      	str	r3, [r7, #0]
 8000ca2:	4b09      	ldr	r3, [pc, #36]	; (8000cc8 <HAL_MspInit+0x4c>)
 8000ca4:	6c1b      	ldr	r3, [r3, #64]	; 0x40
 8000ca6:	4a08      	ldr	r2, [pc, #32]	; (8000cc8 <HAL_MspInit+0x4c>)
 8000ca8:	f043 5380 	orr.w	r3, r3, #268435456	; 0x10000000
 8000cac:	6413      	str	r3, [r2, #64]	; 0x40
 8000cae:	4b06      	ldr	r3, [pc, #24]	; (8000cc8 <HAL_MspInit+0x4c>)
 8000cb0:	6c1b      	ldr	r3, [r3, #64]	; 0x40
 8000cb2:	f003 5380 	and.w	r3, r3, #268435456	; 0x10000000
 8000cb6:	603b      	str	r3, [r7, #0]
 8000cb8:	683b      	ldr	r3, [r7, #0]

  HAL_NVIC_SetPriorityGrouping(NVIC_PRIORITYGROUP_0);
 8000cba:	2007      	movs	r0, #7
 8000cbc:	f000 faac 	bl	8001218 <HAL_NVIC_SetPriorityGrouping>
  /* System interrupt init*/

  /* USER CODE BEGIN MspInit 1 */

  /* USER CODE END MspInit 1 */
}
 8000cc0:	bf00      	nop
 8000cc2:	3708      	adds	r7, #8
 8000cc4:	46bd      	mov	sp, r7
 8000cc6:	bd80      	pop	{r7, pc}
 8000cc8:	40023800 	.word	0x40023800

08000ccc <HAL_SPI_MspInit>:
* This function configures the hardware resources used in this example
* @param hspi: SPI handle pointer
* @retval None
*/
void HAL_SPI_MspInit(SPI_HandleTypeDef* hspi)
{
 8000ccc:	b580      	push	{r7, lr}
 8000cce:	b08a      	sub	sp, #40	; 0x28
 8000cd0:	af00      	add	r7, sp, #0
 8000cd2:	6078      	str	r0, [r7, #4]
  GPIO_InitTypeDef GPIO_InitStruct = {0};
 8000cd4:	f107 0314 	add.w	r3, r7, #20
 8000cd8:	2200      	movs	r2, #0
 8000cda:	601a      	str	r2, [r3, #0]
 8000cdc:	605a      	str	r2, [r3, #4]
 8000cde:	609a      	str	r2, [r3, #8]
 8000ce0:	60da      	str	r2, [r3, #12]
 8000ce2:	611a      	str	r2, [r3, #16]
  if(hspi->Instance==SPI2)
 8000ce4:	687b      	ldr	r3, [r7, #4]
 8000ce6:	681b      	ldr	r3, [r3, #0]
 8000ce8:	4a30      	ldr	r2, [pc, #192]	; (8000dac <HAL_SPI_MspInit+0xe0>)
 8000cea:	4293      	cmp	r3, r2
 8000cec:	d15a      	bne.n	8000da4 <HAL_SPI_MspInit+0xd8>
  {
  /* USER CODE BEGIN SPI2_MspInit 0 */

  /* USER CODE END SPI2_MspInit 0 */
    /* Peripheral clock enable */
    __HAL_RCC_SPI2_CLK_ENABLE();
 8000cee:	2300      	movs	r3, #0
 8000cf0:	613b      	str	r3, [r7, #16]
 8000cf2:	4b2f      	ldr	r3, [pc, #188]	; (8000db0 <HAL_SPI_MspInit+0xe4>)
 8000cf4:	6c1b      	ldr	r3, [r3, #64]	; 0x40
 8000cf6:	4a2e      	ldr	r2, [pc, #184]	; (8000db0 <HAL_SPI_MspInit+0xe4>)
 8000cf8:	f443 4380 	orr.w	r3, r3, #16384	; 0x4000
 8000cfc:	6413      	str	r3, [r2, #64]	; 0x40
 8000cfe:	4b2c      	ldr	r3, [pc, #176]	; (8000db0 <HAL_SPI_MspInit+0xe4>)
 8000d00:	6c1b      	ldr	r3, [r3, #64]	; 0x40
 8000d02:	f403 4380 	and.w	r3, r3, #16384	; 0x4000
 8000d06:	613b      	str	r3, [r7, #16]
 8000d08:	693b      	ldr	r3, [r7, #16]

    __HAL_RCC_GPIOC_CLK_ENABLE();
 8000d0a:	2300      	movs	r3, #0
 8000d0c:	60fb      	str	r3, [r7, #12]
 8000d0e:	4b28      	ldr	r3, [pc, #160]	; (8000db0 <HAL_SPI_MspInit+0xe4>)
 8000d10:	6b1b      	ldr	r3, [r3, #48]	; 0x30
 8000d12:	4a27      	ldr	r2, [pc, #156]	; (8000db0 <HAL_SPI_MspInit+0xe4>)
 8000d14:	f043 0304 	orr.w	r3, r3, #4
 8000d18:	6313      	str	r3, [r2, #48]	; 0x30
 8000d1a:	4b25      	ldr	r3, [pc, #148]	; (8000db0 <HAL_SPI_MspInit+0xe4>)
 8000d1c:	6b1b      	ldr	r3, [r3, #48]	; 0x30
 8000d1e:	f003 0304 	and.w	r3, r3, #4
 8000d22:	60fb      	str	r3, [r7, #12]
 8000d24:	68fb      	ldr	r3, [r7, #12]
    __HAL_RCC_GPIOB_CLK_ENABLE();
 8000d26:	2300      	movs	r3, #0
 8000d28:	60bb      	str	r3, [r7, #8]
 8000d2a:	4b21      	ldr	r3, [pc, #132]	; (8000db0 <HAL_SPI_MspInit+0xe4>)
 8000d2c:	6b1b      	ldr	r3, [r3, #48]	; 0x30
 8000d2e:	4a20      	ldr	r2, [pc, #128]	; (8000db0 <HAL_SPI_MspInit+0xe4>)
 8000d30:	f043 0302 	orr.w	r3, r3, #2
 8000d34:	6313      	str	r3, [r2, #48]	; 0x30
 8000d36:	4b1e      	ldr	r3, [pc, #120]	; (8000db0 <HAL_SPI_MspInit+0xe4>)
 8000d38:	6b1b      	ldr	r3, [r3, #48]	; 0x30
 8000d3a:	f003 0302 	and.w	r3, r3, #2
 8000d3e:	60bb      	str	r3, [r7, #8]
 8000d40:	68bb      	ldr	r3, [r7, #8]
    /**SPI2 GPIO Configuration
    PC1     ------> SPI2_MOSI
    PC2     ------> SPI2_MISO
    PB10     ------> SPI2_SCK
    */
    GPIO_InitStruct.Pin = GPIO_PIN_1;
 8000d42:	2302      	movs	r3, #2
 8000d44:	617b      	str	r3, [r7, #20]
    GPIO_InitStruct.Mode = GPIO_MODE_AF_PP;
 8000d46:	2302      	movs	r3, #2
 8000d48:	61bb      	str	r3, [r7, #24]
    GPIO_InitStruct.Pull = GPIO_NOPULL;
 8000d4a:	2300      	movs	r3, #0
 8000d4c:	61fb      	str	r3, [r7, #28]
    GPIO_InitStruct.Speed = GPIO_SPEED_FREQ_VERY_HIGH;
 8000d4e:	2303      	movs	r3, #3
 8000d50:	623b      	str	r3, [r7, #32]
    GPIO_InitStruct.Alternate = GPIO_AF7_SPI2;
 8000d52:	2307      	movs	r3, #7
 8000d54:	627b      	str	r3, [r7, #36]	; 0x24
    HAL_GPIO_Init(GPIOC, &GPIO_InitStruct);
 8000d56:	f107 0314 	add.w	r3, r7, #20
 8000d5a:	4619      	mov	r1, r3
 8000d5c:	4815      	ldr	r0, [pc, #84]	; (8000db4 <HAL_SPI_MspInit+0xe8>)
 8000d5e:	f000 fa8f 	bl	8001280 <HAL_GPIO_Init>

    GPIO_InitStruct.Pin = GPIO_PIN_2;
 8000d62:	2304      	movs	r3, #4
 8000d64:	617b      	str	r3, [r7, #20]
    GPIO_InitStruct.Mode = GPIO_MODE_AF_PP;
 8000d66:	2302      	movs	r3, #2
 8000d68:	61bb      	str	r3, [r7, #24]
    GPIO_InitStruct.Pull = GPIO_NOPULL;
 8000d6a:	2300      	movs	r3, #0
 8000d6c:	61fb      	str	r3, [r7, #28]
    GPIO_InitStruct.Speed = GPIO_SPEED_FREQ_VERY_HIGH;
 8000d6e:	2303      	movs	r3, #3
 8000d70:	623b      	str	r3, [r7, #32]
    GPIO_InitStruct.Alternate = GPIO_AF5_SPI2;
 8000d72:	2305      	movs	r3, #5
 8000d74:	627b      	str	r3, [r7, #36]	; 0x24
    HAL_GPIO_Init(GPIOC, &GPIO_InitStruct);
 8000d76:	f107 0314 	add.w	r3, r7, #20
 8000d7a:	4619      	mov	r1, r3
 8000d7c:	480d      	ldr	r0, [pc, #52]	; (8000db4 <HAL_SPI_MspInit+0xe8>)
 8000d7e:	f000 fa7f 	bl	8001280 <HAL_GPIO_Init>

    GPIO_InitStruct.Pin = GPIO_PIN_10;
 8000d82:	f44f 6380 	mov.w	r3, #1024	; 0x400
 8000d86:	617b      	str	r3, [r7, #20]
    GPIO_InitStruct.Mode = GPIO_MODE_AF_PP;
 8000d88:	2302      	movs	r3, #2
 8000d8a:	61bb      	str	r3, [r7, #24]
    GPIO_InitStruct.Pull = GPIO_NOPULL;
 8000d8c:	2300      	movs	r3, #0
 8000d8e:	61fb      	str	r3, [r7, #28]
    GPIO_InitStruct.Speed = GPIO_SPEED_FREQ_VERY_HIGH;
 8000d90:	2303      	movs	r3, #3
 8000d92:	623b      	str	r3, [r7, #32]
    GPIO_InitStruct.Alternate = GPIO_AF5_SPI2;
 8000d94:	2305      	movs	r3, #5
 8000d96:	627b      	str	r3, [r7, #36]	; 0x24
    HAL_GPIO_Init(GPIOB, &GPIO_InitStruct);
 8000d98:	f107 0314 	add.w	r3, r7, #20
 8000d9c:	4619      	mov	r1, r3
 8000d9e:	4806      	ldr	r0, [pc, #24]	; (8000db8 <HAL_SPI_MspInit+0xec>)
 8000da0:	f000 fa6e 	bl	8001280 <HAL_GPIO_Init>
  /* USER CODE BEGIN SPI2_MspInit 1 */

  /* USER CODE END SPI2_MspInit 1 */
  }

}
 8000da4:	bf00      	nop
 8000da6:	3728      	adds	r7, #40	; 0x28
 8000da8:	46bd      	mov	sp, r7
 8000daa:	bd80      	pop	{r7, pc}
 8000dac:	40003800 	.word	0x40003800
 8000db0:	40023800 	.word	0x40023800
 8000db4:	40020800 	.word	0x40020800
 8000db8:	40020400 	.word	0x40020400

08000dbc <HAL_UART_MspInit>:
* This function configures the hardware resources used in this example
* @param huart: UART handle pointer
* @retval None
*/
void HAL_UART_MspInit(UART_HandleTypeDef* huart)
{
 8000dbc:	b580      	push	{r7, lr}
 8000dbe:	b08a      	sub	sp, #40	; 0x28
 8000dc0:	af00      	add	r7, sp, #0
 8000dc2:	6078      	str	r0, [r7, #4]
  GPIO_InitTypeDef GPIO_InitStruct = {0};
 8000dc4:	f107 0314 	add.w	r3, r7, #20
 8000dc8:	2200      	movs	r2, #0
 8000dca:	601a      	str	r2, [r3, #0]
 8000dcc:	605a      	str	r2, [r3, #4]
 8000dce:	609a      	str	r2, [r3, #8]
 8000dd0:	60da      	str	r2, [r3, #12]
 8000dd2:	611a      	str	r2, [r3, #16]
  if(huart->Instance==USART2)
 8000dd4:	687b      	ldr	r3, [r7, #4]
 8000dd6:	681b      	ldr	r3, [r3, #0]
 8000dd8:	4a19      	ldr	r2, [pc, #100]	; (8000e40 <HAL_UART_MspInit+0x84>)
 8000dda:	4293      	cmp	r3, r2
 8000ddc:	d12b      	bne.n	8000e36 <HAL_UART_MspInit+0x7a>
  {
  /* USER CODE BEGIN USART2_MspInit 0 */

  /* USER CODE END USART2_MspInit 0 */
    /* Peripheral clock enable */
    __HAL_RCC_USART2_CLK_ENABLE();
 8000dde:	2300      	movs	r3, #0
 8000de0:	613b      	str	r3, [r7, #16]
 8000de2:	4b18      	ldr	r3, [pc, #96]	; (8000e44 <HAL_UART_MspInit+0x88>)
 8000de4:	6c1b      	ldr	r3, [r3, #64]	; 0x40
 8000de6:	4a17      	ldr	r2, [pc, #92]	; (8000e44 <HAL_UART_MspInit+0x88>)
 8000de8:	f443 3300 	orr.w	r3, r3, #131072	; 0x20000
 8000dec:	6413      	str	r3, [r2, #64]	; 0x40
 8000dee:	4b15      	ldr	r3, [pc, #84]	; (8000e44 <HAL_UART_MspInit+0x88>)
 8000df0:	6c1b      	ldr	r3, [r3, #64]	; 0x40
 8000df2:	f403 3300 	and.w	r3, r3, #131072	; 0x20000
 8000df6:	613b      	str	r3, [r7, #16]
 8000df8:	693b      	ldr	r3, [r7, #16]

    __HAL_RCC_GPIOA_CLK_ENABLE();
 8000dfa:	2300      	movs	r3, #0
 8000dfc:	60fb      	str	r3, [r7, #12]
 8000dfe:	4b11      	ldr	r3, [pc, #68]	; (8000e44 <HAL_UART_MspInit+0x88>)
 8000e00:	6b1b      	ldr	r3, [r3, #48]	; 0x30
 8000e02:	4a10      	ldr	r2, [pc, #64]	; (8000e44 <HAL_UART_MspInit+0x88>)
 8000e04:	f043 0301 	orr.w	r3, r3, #1
 8000e08:	6313      	str	r3, [r2, #48]	; 0x30
 8000e0a:	4b0e      	ldr	r3, [pc, #56]	; (8000e44 <HAL_UART_MspInit+0x88>)
 8000e0c:	6b1b      	ldr	r3, [r3, #48]	; 0x30
 8000e0e:	f003 0301 	and.w	r3, r3, #1
 8000e12:	60fb      	str	r3, [r7, #12]
 8000e14:	68fb      	ldr	r3, [r7, #12]
    /**USART2 GPIO Configuration
    PA2     ------> USART2_TX
    PA3     ------> USART2_RX
    */
    GPIO_InitStruct.Pin = USART_TX_Pin|USART_RX_Pin;
 8000e16:	230c      	movs	r3, #12
 8000e18:	617b      	str	r3, [r7, #20]
    GPIO_InitStruct.Mode = GPIO_MODE_AF_PP;
 8000e1a:	2302      	movs	r3, #2
 8000e1c:	61bb      	str	r3, [r7, #24]
    GPIO_InitStruct.Pull = GPIO_NOPULL;
 8000e1e:	2300      	movs	r3, #0
 8000e20:	61fb      	str	r3, [r7, #28]
    GPIO_InitStruct.Speed = GPIO_SPEED_FREQ_VERY_HIGH;
 8000e22:	2303      	movs	r3, #3
 8000e24:	623b      	str	r3, [r7, #32]
    GPIO_InitStruct.Alternate = GPIO_AF7_USART2;
 8000e26:	2307      	movs	r3, #7
 8000e28:	627b      	str	r3, [r7, #36]	; 0x24
    HAL_GPIO_Init(GPIOA, &GPIO_InitStruct);
 8000e2a:	f107 0314 	add.w	r3, r7, #20
 8000e2e:	4619      	mov	r1, r3
 8000e30:	4805      	ldr	r0, [pc, #20]	; (8000e48 <HAL_UART_MspInit+0x8c>)
 8000e32:	f000 fa25 	bl	8001280 <HAL_GPIO_Init>
  /* USER CODE BEGIN USART2_MspInit 1 */

  /* USER CODE END USART2_MspInit 1 */
  }

}
 8000e36:	bf00      	nop
 8000e38:	3728      	adds	r7, #40	; 0x28
 8000e3a:	46bd      	mov	sp, r7
 8000e3c:	bd80      	pop	{r7, pc}
 8000e3e:	bf00      	nop
 8000e40:	40004400 	.word	0x40004400
 8000e44:	40023800 	.word	0x40023800
 8000e48:	40020000 	.word	0x40020000

08000e4c <NMI_Handler>:
/******************************************************************************/
/**
  * @brief This function handles Non maskable interrupt.
  */
void NMI_Handler(void)
{
 8000e4c:	b480      	push	{r7}
 8000e4e:	af00      	add	r7, sp, #0
  /* USER CODE BEGIN NonMaskableInt_IRQn 0 */

  /* USER CODE END NonMaskableInt_IRQn 0 */
  /* USER CODE BEGIN NonMaskableInt_IRQn 1 */
  while (1)
 8000e50:	e7fe      	b.n	8000e50 <NMI_Handler+0x4>

08000e52 <HardFault_Handler>:

/**
  * @brief This function handles Hard fault interrupt.
  */
void HardFault_Handler(void)
{
 8000e52:	b480      	push	{r7}
 8000e54:	af00      	add	r7, sp, #0
  /* USER CODE BEGIN HardFault_IRQn 0 */

  /* USER CODE END HardFault_IRQn 0 */
  while (1)
 8000e56:	e7fe      	b.n	8000e56 <HardFault_Handler+0x4>

08000e58 <MemManage_Handler>:

/**
  * @brief This function handles Memory management fault.
  */
void MemManage_Handler(void)
{
 8000e58:	b480      	push	{r7}
 8000e5a:	af00      	add	r7, sp, #0
  /* USER CODE BEGIN MemoryManagement_IRQn 0 */

  /* USER CODE END MemoryManagement_IRQn 0 */
  while (1)
 8000e5c:	e7fe      	b.n	8000e5c <MemManage_Handler+0x4>

08000e5e <BusFault_Handler>:

/**
  * @brief This function handles Pre-fetch fault, memory access fault.
  */
void BusFault_Handler(void)
{
 8000e5e:	b480      	push	{r7}
 8000e60:	af00      	add	r7, sp, #0
  /* USER CODE BEGIN BusFault_IRQn 0 */

  /* USER CODE END BusFault_IRQn 0 */
  while (1)
 8000e62:	e7fe      	b.n	8000e62 <BusFault_Handler+0x4>

08000e64 <UsageFault_Handler>:

/**
  * @brief This function handles Undefined instruction or illegal state.
  */
void UsageFault_Handler(void)
{
 8000e64:	b480      	push	{r7}
 8000e66:	af00      	add	r7, sp, #0
  /* USER CODE BEGIN UsageFault_IRQn 0 */

  /* USER CODE END UsageFault_IRQn 0 */
  while (1)
 8000e68:	e7fe      	b.n	8000e68 <UsageFault_Handler+0x4>

08000e6a <SVC_Handler>:

/**
  * @brief This function handles System service call via SWI instruction.
  */
void SVC_Handler(void)
{
 8000e6a:	b480      	push	{r7}
 8000e6c:	af00      	add	r7, sp, #0

  /* USER CODE END SVCall_IRQn 0 */
  /* USER CODE BEGIN SVCall_IRQn 1 */

  /* USER CODE END SVCall_IRQn 1 */
}
 8000e6e:	bf00      	nop
 8000e70:	46bd      	mov	sp, r7
 8000e72:	f85d 7b04 	ldr.w	r7, [sp], #4
 8000e76:	4770      	bx	lr

08000e78 <DebugMon_Handler>:

/**
  * @brief This function handles Debug monitor.
  */
void DebugMon_Handler(void)
{
 8000e78:	b480      	push	{r7}
 8000e7a:	af00      	add	r7, sp, #0

  /* USER CODE END DebugMonitor_IRQn 0 */
  /* USER CODE BEGIN DebugMonitor_IRQn 1 */

  /* USER CODE END DebugMonitor_IRQn 1 */
}
 8000e7c:	bf00      	nop
 8000e7e:	46bd      	mov	sp, r7
 8000e80:	f85d 7b04 	ldr.w	r7, [sp], #4
 8000e84:	4770      	bx	lr

08000e86 <PendSV_Handler>:

/**
  * @brief This function handles Pendable request for system service.
  */
void PendSV_Handler(void)
{
 8000e86:	b480      	push	{r7}
 8000e88:	af00      	add	r7, sp, #0

  /* USER CODE END PendSV_IRQn 0 */
  /* USER CODE BEGIN PendSV_IRQn 1 */

  /* USER CODE END PendSV_IRQn 1 */
}
 8000e8a:	bf00      	nop
 8000e8c:	46bd      	mov	sp, r7
 8000e8e:	f85d 7b04 	ldr.w	r7, [sp], #4
 8000e92:	4770      	bx	lr

08000e94 <SysTick_Handler>:

/**
  * @brief This function handles System tick timer.
  */
void SysTick_Handler(void)
{
 8000e94:	b580      	push	{r7, lr}
 8000e96:	af00      	add	r7, sp, #0
  /* USER CODE BEGIN SysTick_IRQn 0 */

  /* USER CODE END SysTick_IRQn 0 */
  HAL_IncTick();
 8000e98:	f000 f8ca 	bl	8001030 <HAL_IncTick>
  /* USER CODE BEGIN SysTick_IRQn 1 */

  /* USER CODE END SysTick_IRQn 1 */
}
 8000e9c:	bf00      	nop
 8000e9e:	bd80      	pop	{r7, pc}

08000ea0 <_sbrk>:
 *
 * @param incr Memory size
 * @return Pointer to allocated memory
 */
void *_sbrk(ptrdiff_t incr)
{
 8000ea0:	b580      	push	{r7, lr}
 8000ea2:	b086      	sub	sp, #24
 8000ea4:	af00      	add	r7, sp, #0
 8000ea6:	6078      	str	r0, [r7, #4]
  extern uint8_t _end; /* Symbol defined in the linker script */
  extern uint8_t _estack; /* Symbol defined in the linker script */
  extern uint32_t _Min_Stack_Size; /* Symbol defined in the linker script */
  const uint32_t stack_limit = (uint32_t)&_estack - (uint32_t)&_Min_Stack_Size;
 8000ea8:	4a14      	ldr	r2, [pc, #80]	; (8000efc <_sbrk+0x5c>)
 8000eaa:	4b15      	ldr	r3, [pc, #84]	; (8000f00 <_sbrk+0x60>)
 8000eac:	1ad3      	subs	r3, r2, r3
 8000eae:	617b      	str	r3, [r7, #20]
  const uint8_t *max_heap = (uint8_t *)stack_limit;
 8000eb0:	697b      	ldr	r3, [r7, #20]
 8000eb2:	613b      	str	r3, [r7, #16]
  uint8_t *prev_heap_end;

  /* Initialize heap end at first call */
  if (NULL == __sbrk_heap_end)
 8000eb4:	4b13      	ldr	r3, [pc, #76]	; (8000f04 <_sbrk+0x64>)
 8000eb6:	681b      	ldr	r3, [r3, #0]
 8000eb8:	2b00      	cmp	r3, #0
 8000eba:	d102      	bne.n	8000ec2 <_sbrk+0x22>
  {
    __sbrk_heap_end = &_end;
 8000ebc:	4b11      	ldr	r3, [pc, #68]	; (8000f04 <_sbrk+0x64>)
 8000ebe:	4a12      	ldr	r2, [pc, #72]	; (8000f08 <_sbrk+0x68>)
 8000ec0:	601a      	str	r2, [r3, #0]
  }

  /* Protect heap from growing into the reserved MSP stack */
  if (__sbrk_heap_end + incr > max_heap)
 8000ec2:	4b10      	ldr	r3, [pc, #64]	; (8000f04 <_sbrk+0x64>)
 8000ec4:	681a      	ldr	r2, [r3, #0]
 8000ec6:	687b      	ldr	r3, [r7, #4]
 8000ec8:	4413      	add	r3, r2
 8000eca:	693a      	ldr	r2, [r7, #16]
 8000ecc:	429a      	cmp	r2, r3
 8000ece:	d207      	bcs.n	8000ee0 <_sbrk+0x40>
  {
    errno = ENOMEM;
 8000ed0:	f002 f802 	bl	8002ed8 <__errno>
 8000ed4:	4602      	mov	r2, r0
 8000ed6:	230c      	movs	r3, #12
 8000ed8:	6013      	str	r3, [r2, #0]
    return (void *)-1;
 8000eda:	f04f 33ff 	mov.w	r3, #4294967295
 8000ede:	e009      	b.n	8000ef4 <_sbrk+0x54>
  }

  prev_heap_end = __sbrk_heap_end;
 8000ee0:	4b08      	ldr	r3, [pc, #32]	; (8000f04 <_sbrk+0x64>)
 8000ee2:	681b      	ldr	r3, [r3, #0]
 8000ee4:	60fb      	str	r3, [r7, #12]
  __sbrk_heap_end += incr;
 8000ee6:	4b07      	ldr	r3, [pc, #28]	; (8000f04 <_sbrk+0x64>)
 8000ee8:	681a      	ldr	r2, [r3, #0]
 8000eea:	687b      	ldr	r3, [r7, #4]
 8000eec:	4413      	add	r3, r2
 8000eee:	4a05      	ldr	r2, [pc, #20]	; (8000f04 <_sbrk+0x64>)
 8000ef0:	6013      	str	r3, [r2, #0]

  return (void *)prev_heap_end;
 8000ef2:	68fb      	ldr	r3, [r7, #12]
}
 8000ef4:	4618      	mov	r0, r3
 8000ef6:	3718      	adds	r7, #24
 8000ef8:	46bd      	mov	sp, r7
 8000efa:	bd80      	pop	{r7, pc}
 8000efc:	20020000 	.word	0x20020000
 8000f00:	00000400 	.word	0x00000400
 8000f04:	2000008c 	.word	0x2000008c
 8000f08:	20000138 	.word	0x20000138

08000f0c <SystemInit>:
  *         configuration.
  * @param  None
  * @retval None
  */
void SystemInit(void)
{
 8000f0c:	b480      	push	{r7}
 8000f0e:	af00      	add	r7, sp, #0
  /* FPU settings ------------------------------------------------------------*/
  #if (__FPU_PRESENT == 1) && (__FPU_USED == 1)
    SCB->CPACR |= ((3UL << 10*2)|(3UL << 11*2));  /* set CP10 and CP11 Full Access */
 8000f10:	4b08      	ldr	r3, [pc, #32]	; (8000f34 <SystemInit+0x28>)
 8000f12:	f8d3 3088 	ldr.w	r3, [r3, #136]	; 0x88
 8000f16:	4a07      	ldr	r2, [pc, #28]	; (8000f34 <SystemInit+0x28>)
 8000f18:	f443 0370 	orr.w	r3, r3, #15728640	; 0xf00000
 8000f1c:	f8c2 3088 	str.w	r3, [r2, #136]	; 0x88

  /* Configure the Vector Table location add offset address ------------------*/
#ifdef VECT_TAB_SRAM
  SCB->VTOR = SRAM_BASE | VECT_TAB_OFFSET; /* Vector Table Relocation in Internal SRAM */
#else
  SCB->VTOR = FLASH_BASE | VECT_TAB_OFFSET; /* Vector Table Relocation in Internal FLASH */
 8000f20:	4b04      	ldr	r3, [pc, #16]	; (8000f34 <SystemInit+0x28>)
 8000f22:	f04f 6200 	mov.w	r2, #134217728	; 0x8000000
 8000f26:	609a      	str	r2, [r3, #8]
#endif
}
 8000f28:	bf00      	nop
 8000f2a:	46bd      	mov	sp, r7
 8000f2c:	f85d 7b04 	ldr.w	r7, [sp], #4
 8000f30:	4770      	bx	lr
 8000f32:	bf00      	nop
 8000f34:	e000ed00 	.word	0xe000ed00

08000f38 <Reset_Handler>:

    .section  .text.Reset_Handler
  .weak  Reset_Handler
  .type  Reset_Handler, %function
Reset_Handler:  
  ldr   sp, =_estack      /* set stack pointer */
 8000f38:	f8df d034 	ldr.w	sp, [pc, #52]	; 8000f70 <LoopFillZerobss+0x14>

/* Copy the data segment initializers from flash to SRAM */  
  movs  r1, #0
 8000f3c:	2100      	movs	r1, #0
  b  LoopCopyDataInit
 8000f3e:	e003      	b.n	8000f48 <LoopCopyDataInit>

08000f40 <CopyDataInit>:

CopyDataInit:
  ldr  r3, =_sidata
 8000f40:	4b0c      	ldr	r3, [pc, #48]	; (8000f74 <LoopFillZerobss+0x18>)
  ldr  r3, [r3, r1]
 8000f42:	585b      	ldr	r3, [r3, r1]
  str  r3, [r0, r1]
 8000f44:	5043      	str	r3, [r0, r1]
  adds  r1, r1, #4
 8000f46:	3104      	adds	r1, #4

08000f48 <LoopCopyDataInit>:
    
LoopCopyDataInit:
  ldr  r0, =_sdata
 8000f48:	480b      	ldr	r0, [pc, #44]	; (8000f78 <LoopFillZerobss+0x1c>)
  ldr  r3, =_edata
 8000f4a:	4b0c      	ldr	r3, [pc, #48]	; (8000f7c <LoopFillZerobss+0x20>)
  adds  r2, r0, r1
 8000f4c:	1842      	adds	r2, r0, r1
  cmp  r2, r3
 8000f4e:	429a      	cmp	r2, r3
  bcc  CopyDataInit
 8000f50:	d3f6      	bcc.n	8000f40 <CopyDataInit>
  ldr  r2, =_sbss
 8000f52:	4a0b      	ldr	r2, [pc, #44]	; (8000f80 <LoopFillZerobss+0x24>)
  b  LoopFillZerobss
 8000f54:	e002      	b.n	8000f5c <LoopFillZerobss>

08000f56 <FillZerobss>:
/* Zero fill the bss segment. */  
FillZerobss:
  movs  r3, #0
 8000f56:	2300      	movs	r3, #0
  str  r3, [r2], #4
 8000f58:	f842 3b04 	str.w	r3, [r2], #4

08000f5c <LoopFillZerobss>:
    
LoopFillZerobss:
  ldr  r3, = _ebss
 8000f5c:	4b09      	ldr	r3, [pc, #36]	; (8000f84 <LoopFillZerobss+0x28>)
  cmp  r2, r3
 8000f5e:	429a      	cmp	r2, r3
  bcc  FillZerobss
 8000f60:	d3f9      	bcc.n	8000f56 <FillZerobss>

/* Call the clock system intitialization function.*/
  bl  SystemInit   
 8000f62:	f7ff ffd3 	bl	8000f0c <SystemInit>
/* Call static constructors */
    bl __libc_init_array
 8000f66:	f001 ffbd 	bl	8002ee4 <__libc_init_array>
/* Call the application's entry point.*/
  bl  main
 8000f6a:	f7ff fcd3 	bl	8000914 <main>
  bx  lr    
 8000f6e:	4770      	bx	lr
  ldr   sp, =_estack      /* set stack pointer */
 8000f70:	20020000 	.word	0x20020000
  ldr  r3, =_sidata
 8000f74:	080037d4 	.word	0x080037d4
  ldr  r0, =_sdata
 8000f78:	20000000 	.word	0x20000000
  ldr  r3, =_edata
 8000f7c:	20000070 	.word	0x20000070
  ldr  r2, =_sbss
 8000f80:	20000070 	.word	0x20000070
  ldr  r3, = _ebss
 8000f84:	20000138 	.word	0x20000138

08000f88 <ADC_IRQHandler>:
 * @retval None       
*/
    .section  .text.Default_Handler,"ax",%progbits
Default_Handler:
Infinite_Loop:
  b  Infinite_Loop
 8000f88:	e7fe      	b.n	8000f88 <ADC_IRQHandler>
	...

08000f8c <HAL_Init>:
  *         need to ensure that the SysTick time base is always set to 1 millisecond
  *         to have correct HAL operation.
  * @retval HAL status
  */
HAL_StatusTypeDef HAL_Init(void)
{
 8000f8c:	b580      	push	{r7, lr}
 8000f8e:	af00      	add	r7, sp, #0
  /* Configure Flash prefetch, Instruction cache, Data cache */ 
#if (INSTRUCTION_CACHE_ENABLE != 0U)
  __HAL_FLASH_INSTRUCTION_CACHE_ENABLE();
 8000f90:	4b0e      	ldr	r3, [pc, #56]	; (8000fcc <HAL_Init+0x40>)
 8000f92:	681b      	ldr	r3, [r3, #0]
 8000f94:	4a0d      	ldr	r2, [pc, #52]	; (8000fcc <HAL_Init+0x40>)
 8000f96:	f443 7300 	orr.w	r3, r3, #512	; 0x200
 8000f9a:	6013      	str	r3, [r2, #0]
#endif /* INSTRUCTION_CACHE_ENABLE */

#if (DATA_CACHE_ENABLE != 0U)
  __HAL_FLASH_DATA_CACHE_ENABLE();
 8000f9c:	4b0b      	ldr	r3, [pc, #44]	; (8000fcc <HAL_Init+0x40>)
 8000f9e:	681b      	ldr	r3, [r3, #0]
 8000fa0:	4a0a      	ldr	r2, [pc, #40]	; (8000fcc <HAL_Init+0x40>)
 8000fa2:	f443 6380 	orr.w	r3, r3, #1024	; 0x400
 8000fa6:	6013      	str	r3, [r2, #0]
#endif /* DATA_CACHE_ENABLE */

#if (PREFETCH_ENABLE != 0U)
  __HAL_FLASH_PREFETCH_BUFFER_ENABLE();
 8000fa8:	4b08      	ldr	r3, [pc, #32]	; (8000fcc <HAL_Init+0x40>)
 8000faa:	681b      	ldr	r3, [r3, #0]
 8000fac:	4a07      	ldr	r2, [pc, #28]	; (8000fcc <HAL_Init+0x40>)
 8000fae:	f443 7380 	orr.w	r3, r3, #256	; 0x100
 8000fb2:	6013      	str	r3, [r2, #0]
#endif /* PREFETCH_ENABLE */

  /* Set Interrupt Group Priority */
  HAL_NVIC_SetPriorityGrouping(NVIC_PRIORITYGROUP_4);
 8000fb4:	2003      	movs	r0, #3
 8000fb6:	f000 f92f 	bl	8001218 <HAL_NVIC_SetPriorityGrouping>

  /* Use systick as time base source and configure 1ms tick (default clock after Reset is HSI) */
  HAL_InitTick(TICK_INT_PRIORITY);
 8000fba:	2000      	movs	r0, #0
 8000fbc:	f000 f808 	bl	8000fd0 <HAL_InitTick>

  /* Init the low level hardware */
  HAL_MspInit();
 8000fc0:	f7ff fe5c 	bl	8000c7c <HAL_MspInit>

  /* Return function status */
  return HAL_OK;
 8000fc4:	2300      	movs	r3, #0
}
 8000fc6:	4618      	mov	r0, r3
 8000fc8:	bd80      	pop	{r7, pc}
 8000fca:	bf00      	nop
 8000fcc:	40023c00 	.word	0x40023c00

08000fd0 <HAL_InitTick>:
  *       implementation  in user file.
  * @param TickPriority Tick interrupt priority.
  * @retval HAL status
  */
__weak HAL_StatusTypeDef HAL_InitTick(uint32_t TickPriority)
{
 8000fd0:	b580      	push	{r7, lr}
 8000fd2:	b082      	sub	sp, #8
 8000fd4:	af00      	add	r7, sp, #0
 8000fd6:	6078      	str	r0, [r7, #4]
  /* Configure the SysTick to have interrupt in 1ms time basis*/
  if (HAL_SYSTICK_Config(SystemCoreClock / (1000U / uwTickFreq)) > 0U)
 8000fd8:	4b12      	ldr	r3, [pc, #72]	; (8001024 <HAL_InitTick+0x54>)
 8000fda:	681a      	ldr	r2, [r3, #0]
 8000fdc:	4b12      	ldr	r3, [pc, #72]	; (8001028 <HAL_InitTick+0x58>)
 8000fde:	781b      	ldrb	r3, [r3, #0]
 8000fe0:	4619      	mov	r1, r3
 8000fe2:	f44f 737a 	mov.w	r3, #1000	; 0x3e8
 8000fe6:	fbb3 f3f1 	udiv	r3, r3, r1
 8000fea:	fbb2 f3f3 	udiv	r3, r2, r3
 8000fee:	4618      	mov	r0, r3
 8000ff0:	f000 f939 	bl	8001266 <HAL_SYSTICK_Config>
 8000ff4:	4603      	mov	r3, r0
 8000ff6:	2b00      	cmp	r3, #0
 8000ff8:	d001      	beq.n	8000ffe <HAL_InitTick+0x2e>
  {
    return HAL_ERROR;
 8000ffa:	2301      	movs	r3, #1
 8000ffc:	e00e      	b.n	800101c <HAL_InitTick+0x4c>
  }

  /* Configure the SysTick IRQ priority */
  if (TickPriority < (1UL << __NVIC_PRIO_BITS))
 8000ffe:	687b      	ldr	r3, [r7, #4]
 8001000:	2b0f      	cmp	r3, #15
 8001002:	d80a      	bhi.n	800101a <HAL_InitTick+0x4a>
  {
    HAL_NVIC_SetPriority(SysTick_IRQn, TickPriority, 0U);
 8001004:	2200      	movs	r2, #0
 8001006:	6879      	ldr	r1, [r7, #4]
 8001008:	f04f 30ff 	mov.w	r0, #4294967295
 800100c:	f000 f90f 	bl	800122e <HAL_NVIC_SetPriority>
    uwTickPrio = TickPriority;
 8001010:	4a06      	ldr	r2, [pc, #24]	; (800102c <HAL_InitTick+0x5c>)
 8001012:	687b      	ldr	r3, [r7, #4]
 8001014:	6013      	str	r3, [r2, #0]
  {
    return HAL_ERROR;
  }

  /* Return function status */
  return HAL_OK;
 8001016:	2300      	movs	r3, #0
 8001018:	e000      	b.n	800101c <HAL_InitTick+0x4c>
    return HAL_ERROR;
 800101a:	2301      	movs	r3, #1
}
 800101c:	4618      	mov	r0, r3
 800101e:	3708      	adds	r7, #8
 8001020:	46bd      	mov	sp, r7
 8001022:	bd80      	pop	{r7, pc}
 8001024:	20000000 	.word	0x20000000
 8001028:	20000008 	.word	0x20000008
 800102c:	20000004 	.word	0x20000004

08001030 <HAL_IncTick>:
 * @note This function is declared as __weak to be overwritten in case of other 
  *      implementations in user file.
  * @retval None
  */
__weak void HAL_IncTick(void)
{
 8001030:	b480      	push	{r7}
 8001032:	af00      	add	r7, sp, #0
  uwTick += uwTickFreq;
 8001034:	4b06      	ldr	r3, [pc, #24]	; (8001050 <HAL_IncTick+0x20>)
 8001036:	781b      	ldrb	r3, [r3, #0]
 8001038:	461a      	mov	r2, r3
 800103a:	4b06      	ldr	r3, [pc, #24]	; (8001054 <HAL_IncTick+0x24>)
 800103c:	681b      	ldr	r3, [r3, #0]
 800103e:	4413      	add	r3, r2
 8001040:	4a04      	ldr	r2, [pc, #16]	; (8001054 <HAL_IncTick+0x24>)
 8001042:	6013      	str	r3, [r2, #0]
}
 8001044:	bf00      	nop
 8001046:	46bd      	mov	sp, r7
 8001048:	f85d 7b04 	ldr.w	r7, [sp], #4
 800104c:	4770      	bx	lr
 800104e:	bf00      	nop
 8001050:	20000008 	.word	0x20000008
 8001054:	20000130 	.word	0x20000130

08001058 <HAL_GetTick>:
  * @note This function is declared as __weak to be overwritten in case of other 
  *       implementations in user file.
  * @retval tick value
  */
__weak uint32_t HAL_GetTick(void)
{
 8001058:	b480      	push	{r7}
 800105a:	af00      	add	r7, sp, #0
  return uwTick;
 800105c:	4b03      	ldr	r3, [pc, #12]	; (800106c <HAL_GetTick+0x14>)
 800105e:	681b      	ldr	r3, [r3, #0]
}
 8001060:	4618      	mov	r0, r3
 8001062:	46bd      	mov	sp, r7
 8001064:	f85d 7b04 	ldr.w	r7, [sp], #4
 8001068:	4770      	bx	lr
 800106a:	bf00      	nop
 800106c:	20000130 	.word	0x20000130

08001070 <HAL_Delay>:
  *       implementations in user file.
  * @param Delay specifies the delay time length, in milliseconds.
  * @retval None
  */
__weak void HAL_Delay(uint32_t Delay)
{
 8001070:	b580      	push	{r7, lr}
 8001072:	b084      	sub	sp, #16
 8001074:	af00      	add	r7, sp, #0
 8001076:	6078      	str	r0, [r7, #4]
  uint32_t tickstart = HAL_GetTick();
 8001078:	f7ff ffee 	bl	8001058 <HAL_GetTick>
 800107c:	60b8      	str	r0, [r7, #8]
  uint32_t wait = Delay;
 800107e:	687b      	ldr	r3, [r7, #4]
 8001080:	60fb      	str	r3, [r7, #12]

  /* Add a freq to guarantee minimum wait */
  if (wait < HAL_MAX_DELAY)
 8001082:	68fb      	ldr	r3, [r7, #12]
 8001084:	f1b3 3fff 	cmp.w	r3, #4294967295
 8001088:	d005      	beq.n	8001096 <HAL_Delay+0x26>
  {
    wait += (uint32_t)(uwTickFreq);
 800108a:	4b09      	ldr	r3, [pc, #36]	; (80010b0 <HAL_Delay+0x40>)
 800108c:	781b      	ldrb	r3, [r3, #0]
 800108e:	461a      	mov	r2, r3
 8001090:	68fb      	ldr	r3, [r7, #12]
 8001092:	4413      	add	r3, r2
 8001094:	60fb      	str	r3, [r7, #12]
  }

  while((HAL_GetTick() - tickstart) < wait)
 8001096:	bf00      	nop
 8001098:	f7ff ffde 	bl	8001058 <HAL_GetTick>
 800109c:	4602      	mov	r2, r0
 800109e:	68bb      	ldr	r3, [r7, #8]
 80010a0:	1ad3      	subs	r3, r2, r3
 80010a2:	68fa      	ldr	r2, [r7, #12]
 80010a4:	429a      	cmp	r2, r3
 80010a6:	d8f7      	bhi.n	8001098 <HAL_Delay+0x28>
  {
  }
}
 80010a8:	bf00      	nop
 80010aa:	3710      	adds	r7, #16
 80010ac:	46bd      	mov	sp, r7
 80010ae:	bd80      	pop	{r7, pc}
 80010b0:	20000008 	.word	0x20000008

080010b4 <__NVIC_SetPriorityGrouping>:
           In case of a conflict between priority grouping and available
           priority bits (__NVIC_PRIO_BITS), the smallest possible priority group is set.
  \param [in]      PriorityGroup  Priority grouping field.
 */
__STATIC_INLINE void __NVIC_SetPriorityGrouping(uint32_t PriorityGroup)
{
 80010b4:	b480      	push	{r7}
 80010b6:	b085      	sub	sp, #20
 80010b8:	af00      	add	r7, sp, #0
 80010ba:	6078      	str	r0, [r7, #4]
  uint32_t reg_value;
  uint32_t PriorityGroupTmp = (PriorityGroup & (uint32_t)0x07UL);             /* only values 0..7 are used          */
 80010bc:	687b      	ldr	r3, [r7, #4]
 80010be:	f003 0307 	and.w	r3, r3, #7
 80010c2:	60fb      	str	r3, [r7, #12]

  reg_value  =  SCB->AIRCR;                                                   /* read old register configuration    */
 80010c4:	4b0c      	ldr	r3, [pc, #48]	; (80010f8 <__NVIC_SetPriorityGrouping+0x44>)
 80010c6:	68db      	ldr	r3, [r3, #12]
 80010c8:	60bb      	str	r3, [r7, #8]
  reg_value &= ~((uint32_t)(SCB_AIRCR_VECTKEY_Msk | SCB_AIRCR_PRIGROUP_Msk)); /* clear bits to change               */
 80010ca:	68ba      	ldr	r2, [r7, #8]
 80010cc:	f64f 03ff 	movw	r3, #63743	; 0xf8ff
 80010d0:	4013      	ands	r3, r2
 80010d2:	60bb      	str	r3, [r7, #8]
  reg_value  =  (reg_value                                   |
                ((uint32_t)0x5FAUL << SCB_AIRCR_VECTKEY_Pos) |
                (PriorityGroupTmp << SCB_AIRCR_PRIGROUP_Pos)  );              /* Insert write key and priority group */
 80010d4:	68fb      	ldr	r3, [r7, #12]
 80010d6:	021a      	lsls	r2, r3, #8
                ((uint32_t)0x5FAUL << SCB_AIRCR_VECTKEY_Pos) |
 80010d8:	68bb      	ldr	r3, [r7, #8]
 80010da:	4313      	orrs	r3, r2
  reg_value  =  (reg_value                                   |
 80010dc:	f043 63bf 	orr.w	r3, r3, #100139008	; 0x5f80000
 80010e0:	f443 3300 	orr.w	r3, r3, #131072	; 0x20000
 80010e4:	60bb      	str	r3, [r7, #8]
  SCB->AIRCR =  reg_value;
 80010e6:	4a04      	ldr	r2, [pc, #16]	; (80010f8 <__NVIC_SetPriorityGrouping+0x44>)
 80010e8:	68bb      	ldr	r3, [r7, #8]
 80010ea:	60d3      	str	r3, [r2, #12]
}
 80010ec:	bf00      	nop
 80010ee:	3714      	adds	r7, #20
 80010f0:	46bd      	mov	sp, r7
 80010f2:	f85d 7b04 	ldr.w	r7, [sp], #4
 80010f6:	4770      	bx	lr
 80010f8:	e000ed00 	.word	0xe000ed00

080010fc <__NVIC_GetPriorityGrouping>:
  \brief   Get Priority Grouping
  \details Reads the priority grouping field from the NVIC Interrupt Controller.
  \return                Priority grouping field (SCB->AIRCR [10:8] PRIGROUP field).
 */
__STATIC_INLINE uint32_t __NVIC_GetPriorityGrouping(void)
{
 80010fc:	b480      	push	{r7}
 80010fe:	af00      	add	r7, sp, #0
  return ((uint32_t)((SCB->AIRCR & SCB_AIRCR_PRIGROUP_Msk) >> SCB_AIRCR_PRIGROUP_Pos));
 8001100:	4b04      	ldr	r3, [pc, #16]	; (8001114 <__NVIC_GetPriorityGrouping+0x18>)
 8001102:	68db      	ldr	r3, [r3, #12]
 8001104:	0a1b      	lsrs	r3, r3, #8
 8001106:	f003 0307 	and.w	r3, r3, #7
}
 800110a:	4618      	mov	r0, r3
 800110c:	46bd      	mov	sp, r7
 800110e:	f85d 7b04 	ldr.w	r7, [sp], #4
 8001112:	4770      	bx	lr
 8001114:	e000ed00 	.word	0xe000ed00

08001118 <__NVIC_SetPriority>:
  \param [in]      IRQn  Interrupt number.
  \param [in]  priority  Priority to set.
  \note    The priority cannot be set for every processor exception.
 */
__STATIC_INLINE void __NVIC_SetPriority(IRQn_Type IRQn, uint32_t priority)
{
 8001118:	b480      	push	{r7}
 800111a:	b083      	sub	sp, #12
 800111c:	af00      	add	r7, sp, #0
 800111e:	4603      	mov	r3, r0
 8001120:	6039      	str	r1, [r7, #0]
 8001122:	71fb      	strb	r3, [r7, #7]
  if ((int32_t)(IRQn) >= 0)
 8001124:	f997 3007 	ldrsb.w	r3, [r7, #7]
 8001128:	2b00      	cmp	r3, #0
 800112a:	db0a      	blt.n	8001142 <__NVIC_SetPriority+0x2a>
  {
    NVIC->IP[((uint32_t)IRQn)]               = (uint8_t)((priority << (8U - __NVIC_PRIO_BITS)) & (uint32_t)0xFFUL);
 800112c:	683b      	ldr	r3, [r7, #0]
 800112e:	b2da      	uxtb	r2, r3
 8001130:	490c      	ldr	r1, [pc, #48]	; (8001164 <__NVIC_SetPriority+0x4c>)
 8001132:	f997 3007 	ldrsb.w	r3, [r7, #7]
 8001136:	0112      	lsls	r2, r2, #4
 8001138:	b2d2      	uxtb	r2, r2
 800113a:	440b      	add	r3, r1
 800113c:	f883 2300 	strb.w	r2, [r3, #768]	; 0x300
  }
  else
  {
    SCB->SHP[(((uint32_t)IRQn) & 0xFUL)-4UL] = (uint8_t)((priority << (8U - __NVIC_PRIO_BITS)) & (uint32_t)0xFFUL);
  }
}
 8001140:	e00a      	b.n	8001158 <__NVIC_SetPriority+0x40>
    SCB->SHP[(((uint32_t)IRQn) & 0xFUL)-4UL] = (uint8_t)((priority << (8U - __NVIC_PRIO_BITS)) & (uint32_t)0xFFUL);
 8001142:	683b      	ldr	r3, [r7, #0]
 8001144:	b2da      	uxtb	r2, r3
 8001146:	4908      	ldr	r1, [pc, #32]	; (8001168 <__NVIC_SetPriority+0x50>)
 8001148:	79fb      	ldrb	r3, [r7, #7]
 800114a:	f003 030f 	and.w	r3, r3, #15
 800114e:	3b04      	subs	r3, #4
 8001150:	0112      	lsls	r2, r2, #4
 8001152:	b2d2      	uxtb	r2, r2
 8001154:	440b      	add	r3, r1
 8001156:	761a      	strb	r2, [r3, #24]
}
 8001158:	bf00      	nop
 800115a:	370c      	adds	r7, #12
 800115c:	46bd      	mov	sp, r7
 800115e:	f85d 7b04 	ldr.w	r7, [sp], #4
 8001162:	4770      	bx	lr
 8001164:	e000e100 	.word	0xe000e100
 8001168:	e000ed00 	.word	0xe000ed00

0800116c <NVIC_EncodePriority>:
  \param [in]   PreemptPriority  Preemptive priority value (starting from 0).
  \param [in]       SubPriority  Subpriority value (starting from 0).
  \return                        Encoded priority. Value can be used in the function \ref NVIC_SetPriority().
 */
__STATIC_INLINE uint32_t NVIC_EncodePriority (uint32_t PriorityGroup, uint32_t PreemptPriority, uint32_t SubPriority)
{
 800116c:	b480      	push	{r7}
 800116e:	b089      	sub	sp, #36	; 0x24
 8001170:	af00      	add	r7, sp, #0
 8001172:	60f8      	str	r0, [r7, #12]
 8001174:	60b9      	str	r1, [r7, #8]
 8001176:	607a      	str	r2, [r7, #4]
  uint32_t PriorityGroupTmp = (PriorityGroup & (uint32_t)0x07UL);   /* only values 0..7 are used          */
 8001178:	68fb      	ldr	r3, [r7, #12]
 800117a:	f003 0307 	and.w	r3, r3, #7
 800117e:	61fb      	str	r3, [r7, #28]
  uint32_t PreemptPriorityBits;
  uint32_t SubPriorityBits;

  PreemptPriorityBits = ((7UL - PriorityGroupTmp) > (uint32_t)(__NVIC_PRIO_BITS)) ? (uint32_t)(__NVIC_PRIO_BITS) : (uint32_t)(7UL - PriorityGroupTmp);
 8001180:	69fb      	ldr	r3, [r7, #28]
 8001182:	f1c3 0307 	rsb	r3, r3, #7
 8001186:	2b04      	cmp	r3, #4
 8001188:	bf28      	it	cs
 800118a:	2304      	movcs	r3, #4
 800118c:	61bb      	str	r3, [r7, #24]
  SubPriorityBits     = ((PriorityGroupTmp + (uint32_t)(__NVIC_PRIO_BITS)) < (uint32_t)7UL) ? (uint32_t)0UL : (uint32_t)((PriorityGroupTmp - 7UL) + (uint32_t)(__NVIC_PRIO_BITS));
 800118e:	69fb      	ldr	r3, [r7, #28]
 8001190:	3304      	adds	r3, #4
 8001192:	2b06      	cmp	r3, #6
 8001194:	d902      	bls.n	800119c <NVIC_EncodePriority+0x30>
 8001196:	69fb      	ldr	r3, [r7, #28]
 8001198:	3b03      	subs	r3, #3
 800119a:	e000      	b.n	800119e <NVIC_EncodePriority+0x32>
 800119c:	2300      	movs	r3, #0
 800119e:	617b      	str	r3, [r7, #20]

  return (
           ((PreemptPriority & (uint32_t)((1UL << (PreemptPriorityBits)) - 1UL)) << SubPriorityBits) |
 80011a0:	f04f 32ff 	mov.w	r2, #4294967295
 80011a4:	69bb      	ldr	r3, [r7, #24]
 80011a6:	fa02 f303 	lsl.w	r3, r2, r3
 80011aa:	43da      	mvns	r2, r3
 80011ac:	68bb      	ldr	r3, [r7, #8]
 80011ae:	401a      	ands	r2, r3
 80011b0:	697b      	ldr	r3, [r7, #20]
 80011b2:	409a      	lsls	r2, r3
           ((SubPriority     & (uint32_t)((1UL << (SubPriorityBits    )) - 1UL)))
 80011b4:	f04f 31ff 	mov.w	r1, #4294967295
 80011b8:	697b      	ldr	r3, [r7, #20]
 80011ba:	fa01 f303 	lsl.w	r3, r1, r3
 80011be:	43d9      	mvns	r1, r3
 80011c0:	687b      	ldr	r3, [r7, #4]
 80011c2:	400b      	ands	r3, r1
           ((PreemptPriority & (uint32_t)((1UL << (PreemptPriorityBits)) - 1UL)) << SubPriorityBits) |
 80011c4:	4313      	orrs	r3, r2
         );
}
 80011c6:	4618      	mov	r0, r3
 80011c8:	3724      	adds	r7, #36	; 0x24
 80011ca:	46bd      	mov	sp, r7
 80011cc:	f85d 7b04 	ldr.w	r7, [sp], #4
 80011d0:	4770      	bx	lr
	...

080011d4 <SysTick_Config>:
  \note    When the variable <b>__Vendor_SysTickConfig</b> is set to 1, then the
           function <b>SysTick_Config</b> is not included. In this case, the file <b><i>device</i>.h</b>
           must contain a vendor-specific implementation of this function.
 */
__STATIC_INLINE uint32_t SysTick_Config(uint32_t ticks)
{
 80011d4:	b580      	push	{r7, lr}
 80011d6:	b082      	sub	sp, #8
 80011d8:	af00      	add	r7, sp, #0
 80011da:	6078      	str	r0, [r7, #4]
  if ((ticks - 1UL) > SysTick_LOAD_RELOAD_Msk)
 80011dc:	687b      	ldr	r3, [r7, #4]
 80011de:	3b01      	subs	r3, #1
 80011e0:	f1b3 7f80 	cmp.w	r3, #16777216	; 0x1000000
 80011e4:	d301      	bcc.n	80011ea <SysTick_Config+0x16>
  {
    return (1UL);                                                   /* Reload value impossible */
 80011e6:	2301      	movs	r3, #1
 80011e8:	e00f      	b.n	800120a <SysTick_Config+0x36>
  }

  SysTick->LOAD  = (uint32_t)(ticks - 1UL);                         /* set reload register */
 80011ea:	4a0a      	ldr	r2, [pc, #40]	; (8001214 <SysTick_Config+0x40>)
 80011ec:	687b      	ldr	r3, [r7, #4]
 80011ee:	3b01      	subs	r3, #1
 80011f0:	6053      	str	r3, [r2, #4]
  NVIC_SetPriority (SysTick_IRQn, (1UL << __NVIC_PRIO_BITS) - 1UL); /* set Priority for Systick Interrupt */
 80011f2:	210f      	movs	r1, #15
 80011f4:	f04f 30ff 	mov.w	r0, #4294967295
 80011f8:	f7ff ff8e 	bl	8001118 <__NVIC_SetPriority>
  SysTick->VAL   = 0UL;                                             /* Load the SysTick Counter Value */
 80011fc:	4b05      	ldr	r3, [pc, #20]	; (8001214 <SysTick_Config+0x40>)
 80011fe:	2200      	movs	r2, #0
 8001200:	609a      	str	r2, [r3, #8]
  SysTick->CTRL  = SysTick_CTRL_CLKSOURCE_Msk |
 8001202:	4b04      	ldr	r3, [pc, #16]	; (8001214 <SysTick_Config+0x40>)
 8001204:	2207      	movs	r2, #7
 8001206:	601a      	str	r2, [r3, #0]
                   SysTick_CTRL_TICKINT_Msk   |
                   SysTick_CTRL_ENABLE_Msk;                         /* Enable SysTick IRQ and SysTick Timer */
  return (0UL);                                                     /* Function successful */
 8001208:	2300      	movs	r3, #0
}
 800120a:	4618      	mov	r0, r3
 800120c:	3708      	adds	r7, #8
 800120e:	46bd      	mov	sp, r7
 8001210:	bd80      	pop	{r7, pc}
 8001212:	bf00      	nop
 8001214:	e000e010 	.word	0xe000e010

08001218 <HAL_NVIC_SetPriorityGrouping>:
  * @note   When the NVIC_PriorityGroup_0 is selected, IRQ preemption is no more possible. 
  *         The pending IRQ priority will be managed only by the subpriority. 
  * @retval None
  */
void HAL_NVIC_SetPriorityGrouping(uint32_t PriorityGroup)
{
 8001218:	b580      	push	{r7, lr}
 800121a:	b082      	sub	sp, #8
 800121c:	af00      	add	r7, sp, #0
 800121e:	6078      	str	r0, [r7, #4]
  /* Check the parameters */
  assert_param(IS_NVIC_PRIORITY_GROUP(PriorityGroup));
  
  /* Set the PRIGROUP[10:8] bits according to the PriorityGroup parameter value */
  NVIC_SetPriorityGrouping(PriorityGroup);
 8001220:	6878      	ldr	r0, [r7, #4]
 8001222:	f7ff ff47 	bl	80010b4 <__NVIC_SetPriorityGrouping>
}
 8001226:	bf00      	nop
 8001228:	3708      	adds	r7, #8
 800122a:	46bd      	mov	sp, r7
 800122c:	bd80      	pop	{r7, pc}

0800122e <HAL_NVIC_SetPriority>:
  *         This parameter can be a value between 0 and 15
  *         A lower priority value indicates a higher priority.          
  * @retval None
  */
void HAL_NVIC_SetPriority(IRQn_Type IRQn, uint32_t PreemptPriority, uint32_t SubPriority)
{ 
 800122e:	b580      	push	{r7, lr}
 8001230:	b086      	sub	sp, #24
 8001232:	af00      	add	r7, sp, #0
 8001234:	4603      	mov	r3, r0
 8001236:	60b9      	str	r1, [r7, #8]
 8001238:	607a      	str	r2, [r7, #4]
 800123a:	73fb      	strb	r3, [r7, #15]
  uint32_t prioritygroup = 0x00U;
 800123c:	2300      	movs	r3, #0
 800123e:	617b      	str	r3, [r7, #20]
  
  /* Check the parameters */
  assert_param(IS_NVIC_SUB_PRIORITY(SubPriority));
  assert_param(IS_NVIC_PREEMPTION_PRIORITY(PreemptPriority));
  
  prioritygroup = NVIC_GetPriorityGrouping();
 8001240:	f7ff ff5c 	bl	80010fc <__NVIC_GetPriorityGrouping>
 8001244:	6178      	str	r0, [r7, #20]
  
  NVIC_SetPriority(IRQn, NVIC_EncodePriority(prioritygroup, PreemptPriority, SubPriority));
 8001246:	687a      	ldr	r2, [r7, #4]
 8001248:	68b9      	ldr	r1, [r7, #8]
 800124a:	6978      	ldr	r0, [r7, #20]
 800124c:	f7ff ff8e 	bl	800116c <NVIC_EncodePriority>
 8001250:	4602      	mov	r2, r0
 8001252:	f997 300f 	ldrsb.w	r3, [r7, #15]
 8001256:	4611      	mov	r1, r2
 8001258:	4618      	mov	r0, r3
 800125a:	f7ff ff5d 	bl	8001118 <__NVIC_SetPriority>
}
 800125e:	bf00      	nop
 8001260:	3718      	adds	r7, #24
 8001262:	46bd      	mov	sp, r7
 8001264:	bd80      	pop	{r7, pc}

08001266 <HAL_SYSTICK_Config>:
  * @param  TicksNumb Specifies the ticks Number of ticks between two interrupts.
  * @retval status:  - 0  Function succeeded.
  *                  - 1  Function failed.
  */
uint32_t HAL_SYSTICK_Config(uint32_t TicksNumb)
{
 8001266:	b580      	push	{r7, lr}
 8001268:	b082      	sub	sp, #8
 800126a:	af00      	add	r7, sp, #0
 800126c:	6078      	str	r0, [r7, #4]
   return SysTick_Config(TicksNumb);
 800126e:	6878      	ldr	r0, [r7, #4]
 8001270:	f7ff ffb0 	bl	80011d4 <SysTick_Config>
 8001274:	4603      	mov	r3, r0
}
 8001276:	4618      	mov	r0, r3
 8001278:	3708      	adds	r7, #8
 800127a:	46bd      	mov	sp, r7
 800127c:	bd80      	pop	{r7, pc}
	...

08001280 <HAL_GPIO_Init>:
  * @param  GPIO_Init pointer to a GPIO_InitTypeDef structure that contains
  *         the configuration information for the specified GPIO peripheral.
  * @retval None
  */
void HAL_GPIO_Init(GPIO_TypeDef  *GPIOx, GPIO_InitTypeDef *GPIO_Init)
{
 8001280:	b480      	push	{r7}
 8001282:	b089      	sub	sp, #36	; 0x24
 8001284:	af00      	add	r7, sp, #0
 8001286:	6078      	str	r0, [r7, #4]
 8001288:	6039      	str	r1, [r7, #0]
  uint32_t position;
  uint32_t ioposition = 0x00U;
 800128a:	2300      	movs	r3, #0
 800128c:	617b      	str	r3, [r7, #20]
  uint32_t iocurrent = 0x00U;
 800128e:	2300      	movs	r3, #0
 8001290:	613b      	str	r3, [r7, #16]
  uint32_t temp = 0x00U;
 8001292:	2300      	movs	r3, #0
 8001294:	61bb      	str	r3, [r7, #24]
  assert_param(IS_GPIO_PIN(GPIO_Init->Pin));
  assert_param(IS_GPIO_MODE(GPIO_Init->Mode));
  assert_param(IS_GPIO_PULL(GPIO_Init->Pull));

  /* Configure the port pins */
  for(position = 0U; position < GPIO_NUMBER; position++)
 8001296:	2300      	movs	r3, #0
 8001298:	61fb      	str	r3, [r7, #28]
 800129a:	e165      	b.n	8001568 <HAL_GPIO_Init+0x2e8>
  {
    /* Get the IO position */
    ioposition = 0x01U << position;
 800129c:	2201      	movs	r2, #1
 800129e:	69fb      	ldr	r3, [r7, #28]
 80012a0:	fa02 f303 	lsl.w	r3, r2, r3
 80012a4:	617b      	str	r3, [r7, #20]
    /* Get the current IO position */
    iocurrent = (uint32_t)(GPIO_Init->Pin) & ioposition;
 80012a6:	683b      	ldr	r3, [r7, #0]
 80012a8:	681b      	ldr	r3, [r3, #0]
 80012aa:	697a      	ldr	r2, [r7, #20]
 80012ac:	4013      	ands	r3, r2
 80012ae:	613b      	str	r3, [r7, #16]

    if(iocurrent == ioposition)
 80012b0:	693a      	ldr	r2, [r7, #16]
 80012b2:	697b      	ldr	r3, [r7, #20]
 80012b4:	429a      	cmp	r2, r3
 80012b6:	f040 8154 	bne.w	8001562 <HAL_GPIO_Init+0x2e2>
    {
      /*--------------------- GPIO Mode Configuration ------------------------*/
      /* In case of Output or Alternate function mode selection */
      if((GPIO_Init->Mode == GPIO_MODE_OUTPUT_PP) || (GPIO_Init->Mode == GPIO_MODE_AF_PP) ||
 80012ba:	683b      	ldr	r3, [r7, #0]
 80012bc:	685b      	ldr	r3, [r3, #4]
 80012be:	2b01      	cmp	r3, #1
 80012c0:	d00b      	beq.n	80012da <HAL_GPIO_Init+0x5a>
 80012c2:	683b      	ldr	r3, [r7, #0]
 80012c4:	685b      	ldr	r3, [r3, #4]
 80012c6:	2b02      	cmp	r3, #2
 80012c8:	d007      	beq.n	80012da <HAL_GPIO_Init+0x5a>
         (GPIO_Init->Mode == GPIO_MODE_OUTPUT_OD) || (GPIO_Init->Mode == GPIO_MODE_AF_OD))
 80012ca:	683b      	ldr	r3, [r7, #0]
 80012cc:	685b      	ldr	r3, [r3, #4]
      if((GPIO_Init->Mode == GPIO_MODE_OUTPUT_PP) || (GPIO_Init->Mode == GPIO_MODE_AF_PP) ||
 80012ce:	2b11      	cmp	r3, #17
 80012d0:	d003      	beq.n	80012da <HAL_GPIO_Init+0x5a>
         (GPIO_Init->Mode == GPIO_MODE_OUTPUT_OD) || (GPIO_Init->Mode == GPIO_MODE_AF_OD))
 80012d2:	683b      	ldr	r3, [r7, #0]
 80012d4:	685b      	ldr	r3, [r3, #4]
 80012d6:	2b12      	cmp	r3, #18
 80012d8:	d130      	bne.n	800133c <HAL_GPIO_Init+0xbc>
      {
        /* Check the Speed parameter */
        assert_param(IS_GPIO_SPEED(GPIO_Init->Speed));
        /* Configure the IO Speed */
        temp = GPIOx->OSPEEDR; 
 80012da:	687b      	ldr	r3, [r7, #4]
 80012dc:	689b      	ldr	r3, [r3, #8]
 80012de:	61bb      	str	r3, [r7, #24]
        temp &= ~(GPIO_OSPEEDER_OSPEEDR0 << (position * 2U));
 80012e0:	69fb      	ldr	r3, [r7, #28]
 80012e2:	005b      	lsls	r3, r3, #1
 80012e4:	2203      	movs	r2, #3
 80012e6:	fa02 f303 	lsl.w	r3, r2, r3
 80012ea:	43db      	mvns	r3, r3
 80012ec:	69ba      	ldr	r2, [r7, #24]
 80012ee:	4013      	ands	r3, r2
 80012f0:	61bb      	str	r3, [r7, #24]
        temp |= (GPIO_Init->Speed << (position * 2U));
 80012f2:	683b      	ldr	r3, [r7, #0]
 80012f4:	68da      	ldr	r2, [r3, #12]
 80012f6:	69fb      	ldr	r3, [r7, #28]
 80012f8:	005b      	lsls	r3, r3, #1
 80012fa:	fa02 f303 	lsl.w	r3, r2, r3
 80012fe:	69ba      	ldr	r2, [r7, #24]
 8001300:	4313      	orrs	r3, r2
 8001302:	61bb      	str	r3, [r7, #24]
        GPIOx->OSPEEDR = temp;
 8001304:	687b      	ldr	r3, [r7, #4]
 8001306:	69ba      	ldr	r2, [r7, #24]
 8001308:	609a      	str	r2, [r3, #8]

        /* Configure the IO Output Type */
        temp = GPIOx->OTYPER;
 800130a:	687b      	ldr	r3, [r7, #4]
 800130c:	685b      	ldr	r3, [r3, #4]
 800130e:	61bb      	str	r3, [r7, #24]
        temp &= ~(GPIO_OTYPER_OT_0 << position) ;
 8001310:	2201      	movs	r2, #1
 8001312:	69fb      	ldr	r3, [r7, #28]
 8001314:	fa02 f303 	lsl.w	r3, r2, r3
 8001318:	43db      	mvns	r3, r3
 800131a:	69ba      	ldr	r2, [r7, #24]
 800131c:	4013      	ands	r3, r2
 800131e:	61bb      	str	r3, [r7, #24]
        temp |= (((GPIO_Init->Mode & GPIO_OUTPUT_TYPE) >> 4U) << position);
 8001320:	683b      	ldr	r3, [r7, #0]
 8001322:	685b      	ldr	r3, [r3, #4]
 8001324:	091b      	lsrs	r3, r3, #4
 8001326:	f003 0201 	and.w	r2, r3, #1
 800132a:	69fb      	ldr	r3, [r7, #28]
 800132c:	fa02 f303 	lsl.w	r3, r2, r3
 8001330:	69ba      	ldr	r2, [r7, #24]
 8001332:	4313      	orrs	r3, r2
 8001334:	61bb      	str	r3, [r7, #24]
        GPIOx->OTYPER = temp;
 8001336:	687b      	ldr	r3, [r7, #4]
 8001338:	69ba      	ldr	r2, [r7, #24]
 800133a:	605a      	str	r2, [r3, #4]
       }

      /* Activate the Pull-up or Pull down resistor for the current IO */
      temp = GPIOx->PUPDR;
 800133c:	687b      	ldr	r3, [r7, #4]
 800133e:	68db      	ldr	r3, [r3, #12]
 8001340:	61bb      	str	r3, [r7, #24]
      temp &= ~(GPIO_PUPDR_PUPDR0 << (position * 2U));
 8001342:	69fb      	ldr	r3, [r7, #28]
 8001344:	005b      	lsls	r3, r3, #1
 8001346:	2203      	movs	r2, #3
 8001348:	fa02 f303 	lsl.w	r3, r2, r3
 800134c:	43db      	mvns	r3, r3
 800134e:	69ba      	ldr	r2, [r7, #24]
 8001350:	4013      	ands	r3, r2
 8001352:	61bb      	str	r3, [r7, #24]
      temp |= ((GPIO_Init->Pull) << (position * 2U));
 8001354:	683b      	ldr	r3, [r7, #0]
 8001356:	689a      	ldr	r2, [r3, #8]
 8001358:	69fb      	ldr	r3, [r7, #28]
 800135a:	005b      	lsls	r3, r3, #1
 800135c:	fa02 f303 	lsl.w	r3, r2, r3
 8001360:	69ba      	ldr	r2, [r7, #24]
 8001362:	4313      	orrs	r3, r2
 8001364:	61bb      	str	r3, [r7, #24]
      GPIOx->PUPDR = temp;
 8001366:	687b      	ldr	r3, [r7, #4]
 8001368:	69ba      	ldr	r2, [r7, #24]
 800136a:	60da      	str	r2, [r3, #12]

      /* In case of Alternate function mode selection */
      if((GPIO_Init->Mode == GPIO_MODE_AF_PP) || (GPIO_Init->Mode == GPIO_MODE_AF_OD))
 800136c:	683b      	ldr	r3, [r7, #0]
 800136e:	685b      	ldr	r3, [r3, #4]
 8001370:	2b02      	cmp	r3, #2
 8001372:	d003      	beq.n	800137c <HAL_GPIO_Init+0xfc>
 8001374:	683b      	ldr	r3, [r7, #0]
 8001376:	685b      	ldr	r3, [r3, #4]
 8001378:	2b12      	cmp	r3, #18
 800137a:	d123      	bne.n	80013c4 <HAL_GPIO_Init+0x144>
      {
        /* Check the Alternate function parameter */
        assert_param(IS_GPIO_AF(GPIO_Init->Alternate));
        /* Configure Alternate function mapped with the current IO */
        temp = GPIOx->AFR[position >> 3U];
 800137c:	69fb      	ldr	r3, [r7, #28]
 800137e:	08da      	lsrs	r2, r3, #3
 8001380:	687b      	ldr	r3, [r7, #4]
 8001382:	3208      	adds	r2, #8
 8001384:	f853 3022 	ldr.w	r3, [r3, r2, lsl #2]
 8001388:	61bb      	str	r3, [r7, #24]
        temp &= ~(0xFU << ((uint32_t)(position & 0x07U) * 4U)) ;
 800138a:	69fb      	ldr	r3, [r7, #28]
 800138c:	f003 0307 	and.w	r3, r3, #7
 8001390:	009b      	lsls	r3, r3, #2
 8001392:	220f      	movs	r2, #15
 8001394:	fa02 f303 	lsl.w	r3, r2, r3
 8001398:	43db      	mvns	r3, r3
 800139a:	69ba      	ldr	r2, [r7, #24]
 800139c:	4013      	ands	r3, r2
 800139e:	61bb      	str	r3, [r7, #24]
        temp |= ((uint32_t)(GPIO_Init->Alternate) << (((uint32_t)position & 0x07U) * 4U));
 80013a0:	683b      	ldr	r3, [r7, #0]
 80013a2:	691a      	ldr	r2, [r3, #16]
 80013a4:	69fb      	ldr	r3, [r7, #28]
 80013a6:	f003 0307 	and.w	r3, r3, #7
 80013aa:	009b      	lsls	r3, r3, #2
 80013ac:	fa02 f303 	lsl.w	r3, r2, r3
 80013b0:	69ba      	ldr	r2, [r7, #24]
 80013b2:	4313      	orrs	r3, r2
 80013b4:	61bb      	str	r3, [r7, #24]
        GPIOx->AFR[position >> 3U] = temp;
 80013b6:	69fb      	ldr	r3, [r7, #28]
 80013b8:	08da      	lsrs	r2, r3, #3
 80013ba:	687b      	ldr	r3, [r7, #4]
 80013bc:	3208      	adds	r2, #8
 80013be:	69b9      	ldr	r1, [r7, #24]
 80013c0:	f843 1022 	str.w	r1, [r3, r2, lsl #2]
      }

      /* Configure IO Direction mode (Input, Output, Alternate or Analog) */
      temp = GPIOx->MODER;
 80013c4:	687b      	ldr	r3, [r7, #4]
 80013c6:	681b      	ldr	r3, [r3, #0]
 80013c8:	61bb      	str	r3, [r7, #24]
      temp &= ~(GPIO_MODER_MODER0 << (position * 2U));
 80013ca:	69fb      	ldr	r3, [r7, #28]
 80013cc:	005b      	lsls	r3, r3, #1
 80013ce:	2203      	movs	r2, #3
 80013d0:	fa02 f303 	lsl.w	r3, r2, r3
 80013d4:	43db      	mvns	r3, r3
 80013d6:	69ba      	ldr	r2, [r7, #24]
 80013d8:	4013      	ands	r3, r2
 80013da:	61bb      	str	r3, [r7, #24]
      temp |= ((GPIO_Init->Mode & GPIO_MODE) << (position * 2U));
 80013dc:	683b      	ldr	r3, [r7, #0]
 80013de:	685b      	ldr	r3, [r3, #4]
 80013e0:	f003 0203 	and.w	r2, r3, #3
 80013e4:	69fb      	ldr	r3, [r7, #28]
 80013e6:	005b      	lsls	r3, r3, #1
 80013e8:	fa02 f303 	lsl.w	r3, r2, r3
 80013ec:	69ba      	ldr	r2, [r7, #24]
 80013ee:	4313      	orrs	r3, r2
 80013f0:	61bb      	str	r3, [r7, #24]
      GPIOx->MODER = temp;
 80013f2:	687b      	ldr	r3, [r7, #4]
 80013f4:	69ba      	ldr	r2, [r7, #24]
 80013f6:	601a      	str	r2, [r3, #0]

      /*--------------------- EXTI Mode Configuration ------------------------*/
      /* Configure the External Interrupt or event for the current IO */
      if((GPIO_Init->Mode & EXTI_MODE) == EXTI_MODE)
 80013f8:	683b      	ldr	r3, [r7, #0]
 80013fa:	685b      	ldr	r3, [r3, #4]
 80013fc:	f003 5380 	and.w	r3, r3, #268435456	; 0x10000000
 8001400:	2b00      	cmp	r3, #0
 8001402:	f000 80ae 	beq.w	8001562 <HAL_GPIO_Init+0x2e2>
      {
        /* Enable SYSCFG Clock */
        __HAL_RCC_SYSCFG_CLK_ENABLE();
 8001406:	2300      	movs	r3, #0
 8001408:	60fb      	str	r3, [r7, #12]
 800140a:	4b5c      	ldr	r3, [pc, #368]	; (800157c <HAL_GPIO_Init+0x2fc>)
 800140c:	6c5b      	ldr	r3, [r3, #68]	; 0x44
 800140e:	4a5b      	ldr	r2, [pc, #364]	; (800157c <HAL_GPIO_Init+0x2fc>)
 8001410:	f443 4380 	orr.w	r3, r3, #16384	; 0x4000
 8001414:	6453      	str	r3, [r2, #68]	; 0x44
 8001416:	4b59      	ldr	r3, [pc, #356]	; (800157c <HAL_GPIO_Init+0x2fc>)
 8001418:	6c5b      	ldr	r3, [r3, #68]	; 0x44
 800141a:	f403 4380 	and.w	r3, r3, #16384	; 0x4000
 800141e:	60fb      	str	r3, [r7, #12]
 8001420:	68fb      	ldr	r3, [r7, #12]

        temp = SYSCFG->EXTICR[position >> 2U];
 8001422:	4a57      	ldr	r2, [pc, #348]	; (8001580 <HAL_GPIO_Init+0x300>)
 8001424:	69fb      	ldr	r3, [r7, #28]
 8001426:	089b      	lsrs	r3, r3, #2
 8001428:	3302      	adds	r3, #2
 800142a:	f852 3023 	ldr.w	r3, [r2, r3, lsl #2]
 800142e:	61bb      	str	r3, [r7, #24]
        temp &= ~(0x0FU << (4U * (position & 0x03U)));
 8001430:	69fb      	ldr	r3, [r7, #28]
 8001432:	f003 0303 	and.w	r3, r3, #3
 8001436:	009b      	lsls	r3, r3, #2
 8001438:	220f      	movs	r2, #15
 800143a:	fa02 f303 	lsl.w	r3, r2, r3
 800143e:	43db      	mvns	r3, r3
 8001440:	69ba      	ldr	r2, [r7, #24]
 8001442:	4013      	ands	r3, r2
 8001444:	61bb      	str	r3, [r7, #24]
        temp |= ((uint32_t)(GPIO_GET_INDEX(GPIOx)) << (4U * (position & 0x03U)));
 8001446:	687b      	ldr	r3, [r7, #4]
 8001448:	4a4e      	ldr	r2, [pc, #312]	; (8001584 <HAL_GPIO_Init+0x304>)
 800144a:	4293      	cmp	r3, r2
 800144c:	d025      	beq.n	800149a <HAL_GPIO_Init+0x21a>
 800144e:	687b      	ldr	r3, [r7, #4]
 8001450:	4a4d      	ldr	r2, [pc, #308]	; (8001588 <HAL_GPIO_Init+0x308>)
 8001452:	4293      	cmp	r3, r2
 8001454:	d01f      	beq.n	8001496 <HAL_GPIO_Init+0x216>
 8001456:	687b      	ldr	r3, [r7, #4]
 8001458:	4a4c      	ldr	r2, [pc, #304]	; (800158c <HAL_GPIO_Init+0x30c>)
 800145a:	4293      	cmp	r3, r2
 800145c:	d019      	beq.n	8001492 <HAL_GPIO_Init+0x212>
 800145e:	687b      	ldr	r3, [r7, #4]
 8001460:	4a4b      	ldr	r2, [pc, #300]	; (8001590 <HAL_GPIO_Init+0x310>)
 8001462:	4293      	cmp	r3, r2
 8001464:	d013      	beq.n	800148e <HAL_GPIO_Init+0x20e>
 8001466:	687b      	ldr	r3, [r7, #4]
 8001468:	4a4a      	ldr	r2, [pc, #296]	; (8001594 <HAL_GPIO_Init+0x314>)
 800146a:	4293      	cmp	r3, r2
 800146c:	d00d      	beq.n	800148a <HAL_GPIO_Init+0x20a>
 800146e:	687b      	ldr	r3, [r7, #4]
 8001470:	4a49      	ldr	r2, [pc, #292]	; (8001598 <HAL_GPIO_Init+0x318>)
 8001472:	4293      	cmp	r3, r2
 8001474:	d007      	beq.n	8001486 <HAL_GPIO_Init+0x206>
 8001476:	687b      	ldr	r3, [r7, #4]
 8001478:	4a48      	ldr	r2, [pc, #288]	; (800159c <HAL_GPIO_Init+0x31c>)
 800147a:	4293      	cmp	r3, r2
 800147c:	d101      	bne.n	8001482 <HAL_GPIO_Init+0x202>
 800147e:	2306      	movs	r3, #6
 8001480:	e00c      	b.n	800149c <HAL_GPIO_Init+0x21c>
 8001482:	2307      	movs	r3, #7
 8001484:	e00a      	b.n	800149c <HAL_GPIO_Init+0x21c>
 8001486:	2305      	movs	r3, #5
 8001488:	e008      	b.n	800149c <HAL_GPIO_Init+0x21c>
 800148a:	2304      	movs	r3, #4
 800148c:	e006      	b.n	800149c <HAL_GPIO_Init+0x21c>
 800148e:	2303      	movs	r3, #3
 8001490:	e004      	b.n	800149c <HAL_GPIO_Init+0x21c>
 8001492:	2302      	movs	r3, #2
 8001494:	e002      	b.n	800149c <HAL_GPIO_Init+0x21c>
 8001496:	2301      	movs	r3, #1
 8001498:	e000      	b.n	800149c <HAL_GPIO_Init+0x21c>
 800149a:	2300      	movs	r3, #0
 800149c:	69fa      	ldr	r2, [r7, #28]
 800149e:	f002 0203 	and.w	r2, r2, #3
 80014a2:	0092      	lsls	r2, r2, #2
 80014a4:	4093      	lsls	r3, r2
 80014a6:	69ba      	ldr	r2, [r7, #24]
 80014a8:	4313      	orrs	r3, r2
 80014aa:	61bb      	str	r3, [r7, #24]
        SYSCFG->EXTICR[position >> 2U] = temp;
 80014ac:	4934      	ldr	r1, [pc, #208]	; (8001580 <HAL_GPIO_Init+0x300>)
 80014ae:	69fb      	ldr	r3, [r7, #28]
 80014b0:	089b      	lsrs	r3, r3, #2
 80014b2:	3302      	adds	r3, #2
 80014b4:	69ba      	ldr	r2, [r7, #24]
 80014b6:	f841 2023 	str.w	r2, [r1, r3, lsl #2]

        /* Clear EXTI line configuration */
        temp = EXTI->IMR;
 80014ba:	4b39      	ldr	r3, [pc, #228]	; (80015a0 <HAL_GPIO_Init+0x320>)
 80014bc:	681b      	ldr	r3, [r3, #0]
 80014be:	61bb      	str	r3, [r7, #24]
        temp &= ~((uint32_t)iocurrent);
 80014c0:	693b      	ldr	r3, [r7, #16]
 80014c2:	43db      	mvns	r3, r3
 80014c4:	69ba      	ldr	r2, [r7, #24]
 80014c6:	4013      	ands	r3, r2
 80014c8:	61bb      	str	r3, [r7, #24]
        if((GPIO_Init->Mode & GPIO_MODE_IT) == GPIO_MODE_IT)
 80014ca:	683b      	ldr	r3, [r7, #0]
 80014cc:	685b      	ldr	r3, [r3, #4]
 80014ce:	f403 3380 	and.w	r3, r3, #65536	; 0x10000
 80014d2:	2b00      	cmp	r3, #0
 80014d4:	d003      	beq.n	80014de <HAL_GPIO_Init+0x25e>
        {
          temp |= iocurrent;
 80014d6:	69ba      	ldr	r2, [r7, #24]
 80014d8:	693b      	ldr	r3, [r7, #16]
 80014da:	4313      	orrs	r3, r2
 80014dc:	61bb      	str	r3, [r7, #24]
        }
        EXTI->IMR = temp;
 80014de:	4a30      	ldr	r2, [pc, #192]	; (80015a0 <HAL_GPIO_Init+0x320>)
 80014e0:	69bb      	ldr	r3, [r7, #24]
 80014e2:	6013      	str	r3, [r2, #0]

        temp = EXTI->EMR;
 80014e4:	4b2e      	ldr	r3, [pc, #184]	; (80015a0 <HAL_GPIO_Init+0x320>)
 80014e6:	685b      	ldr	r3, [r3, #4]
 80014e8:	61bb      	str	r3, [r7, #24]
        temp &= ~((uint32_t)iocurrent);
 80014ea:	693b      	ldr	r3, [r7, #16]
 80014ec:	43db      	mvns	r3, r3
 80014ee:	69ba      	ldr	r2, [r7, #24]
 80014f0:	4013      	ands	r3, r2
 80014f2:	61bb      	str	r3, [r7, #24]
        if((GPIO_Init->Mode & GPIO_MODE_EVT) == GPIO_MODE_EVT)
 80014f4:	683b      	ldr	r3, [r7, #0]
 80014f6:	685b      	ldr	r3, [r3, #4]
 80014f8:	f403 3300 	and.w	r3, r3, #131072	; 0x20000
 80014fc:	2b00      	cmp	r3, #0
 80014fe:	d003      	beq.n	8001508 <HAL_GPIO_Init+0x288>
        {
          temp |= iocurrent;
 8001500:	69ba      	ldr	r2, [r7, #24]
 8001502:	693b      	ldr	r3, [r7, #16]
 8001504:	4313      	orrs	r3, r2
 8001506:	61bb      	str	r3, [r7, #24]
        }
        EXTI->EMR = temp;
 8001508:	4a25      	ldr	r2, [pc, #148]	; (80015a0 <HAL_GPIO_Init+0x320>)
 800150a:	69bb      	ldr	r3, [r7, #24]
 800150c:	6053      	str	r3, [r2, #4]

        /* Clear Rising Falling edge configuration */
        temp = EXTI->RTSR;
 800150e:	4b24      	ldr	r3, [pc, #144]	; (80015a0 <HAL_GPIO_Init+0x320>)
 8001510:	689b      	ldr	r3, [r3, #8]
 8001512:	61bb      	str	r3, [r7, #24]
        temp &= ~((uint32_t)iocurrent);
 8001514:	693b      	ldr	r3, [r7, #16]
 8001516:	43db      	mvns	r3, r3
 8001518:	69ba      	ldr	r2, [r7, #24]
 800151a:	4013      	ands	r3, r2
 800151c:	61bb      	str	r3, [r7, #24]
        if((GPIO_Init->Mode & RISING_EDGE) == RISING_EDGE)
 800151e:	683b      	ldr	r3, [r7, #0]
 8001520:	685b      	ldr	r3, [r3, #4]
 8001522:	f403 1380 	and.w	r3, r3, #1048576	; 0x100000
 8001526:	2b00      	cmp	r3, #0
 8001528:	d003      	beq.n	8001532 <HAL_GPIO_Init+0x2b2>
        {
          temp |= iocurrent;
 800152a:	69ba      	ldr	r2, [r7, #24]
 800152c:	693b      	ldr	r3, [r7, #16]
 800152e:	4313      	orrs	r3, r2
 8001530:	61bb      	str	r3, [r7, #24]
        }
        EXTI->RTSR = temp;
 8001532:	4a1b      	ldr	r2, [pc, #108]	; (80015a0 <HAL_GPIO_Init+0x320>)
 8001534:	69bb      	ldr	r3, [r7, #24]
 8001536:	6093      	str	r3, [r2, #8]

        temp = EXTI->FTSR;
 8001538:	4b19      	ldr	r3, [pc, #100]	; (80015a0 <HAL_GPIO_Init+0x320>)
 800153a:	68db      	ldr	r3, [r3, #12]
 800153c:	61bb      	str	r3, [r7, #24]
        temp &= ~((uint32_t)iocurrent);
 800153e:	693b      	ldr	r3, [r7, #16]
 8001540:	43db      	mvns	r3, r3
 8001542:	69ba      	ldr	r2, [r7, #24]
 8001544:	4013      	ands	r3, r2
 8001546:	61bb      	str	r3, [r7, #24]
        if((GPIO_Init->Mode & FALLING_EDGE) == FALLING_EDGE)
 8001548:	683b      	ldr	r3, [r7, #0]
 800154a:	685b      	ldr	r3, [r3, #4]
 800154c:	f403 1300 	and.w	r3, r3, #2097152	; 0x200000
 8001550:	2b00      	cmp	r3, #0
 8001552:	d003      	beq.n	800155c <HAL_GPIO_Init+0x2dc>
        {
          temp |= iocurrent;
 8001554:	69ba      	ldr	r2, [r7, #24]
 8001556:	693b      	ldr	r3, [r7, #16]
 8001558:	4313      	orrs	r3, r2
 800155a:	61bb      	str	r3, [r7, #24]
        }
        EXTI->FTSR = temp;
 800155c:	4a10      	ldr	r2, [pc, #64]	; (80015a0 <HAL_GPIO_Init+0x320>)
 800155e:	69bb      	ldr	r3, [r7, #24]
 8001560:	60d3      	str	r3, [r2, #12]
  for(position = 0U; position < GPIO_NUMBER; position++)
 8001562:	69fb      	ldr	r3, [r7, #28]
 8001564:	3301      	adds	r3, #1
 8001566:	61fb      	str	r3, [r7, #28]
 8001568:	69fb      	ldr	r3, [r7, #28]
 800156a:	2b0f      	cmp	r3, #15
 800156c:	f67f ae96 	bls.w	800129c <HAL_GPIO_Init+0x1c>
      }
    }
  }
}
 8001570:	bf00      	nop
 8001572:	3724      	adds	r7, #36	; 0x24
 8001574:	46bd      	mov	sp, r7
 8001576:	f85d 7b04 	ldr.w	r7, [sp], #4
 800157a:	4770      	bx	lr
 800157c:	40023800 	.word	0x40023800
 8001580:	40013800 	.word	0x40013800
 8001584:	40020000 	.word	0x40020000
 8001588:	40020400 	.word	0x40020400
 800158c:	40020800 	.word	0x40020800
 8001590:	40020c00 	.word	0x40020c00
 8001594:	40021000 	.word	0x40021000
 8001598:	40021400 	.word	0x40021400
 800159c:	40021800 	.word	0x40021800
 80015a0:	40013c00 	.word	0x40013c00

080015a4 <HAL_GPIO_WritePin>:
  *            @arg GPIO_PIN_RESET: to clear the port pin
  *            @arg GPIO_PIN_SET: to set the port pin
  * @retval None
  */
void HAL_GPIO_WritePin(GPIO_TypeDef* GPIOx, uint16_t GPIO_Pin, GPIO_PinState PinState)
{
 80015a4:	b480      	push	{r7}
 80015a6:	b083      	sub	sp, #12
 80015a8:	af00      	add	r7, sp, #0
 80015aa:	6078      	str	r0, [r7, #4]
 80015ac:	460b      	mov	r3, r1
 80015ae:	807b      	strh	r3, [r7, #2]
 80015b0:	4613      	mov	r3, r2
 80015b2:	707b      	strb	r3, [r7, #1]
  /* Check the parameters */
  assert_param(IS_GPIO_PIN(GPIO_Pin));
  assert_param(IS_GPIO_PIN_ACTION(PinState));

  if(PinState != GPIO_PIN_RESET)
 80015b4:	787b      	ldrb	r3, [r7, #1]
 80015b6:	2b00      	cmp	r3, #0
 80015b8:	d003      	beq.n	80015c2 <HAL_GPIO_WritePin+0x1e>
  {
    GPIOx->BSRR = GPIO_Pin;
 80015ba:	887a      	ldrh	r2, [r7, #2]
 80015bc:	687b      	ldr	r3, [r7, #4]
 80015be:	619a      	str	r2, [r3, #24]
  }
  else
  {
    GPIOx->BSRR = (uint32_t)GPIO_Pin << 16U;
  }
}
 80015c0:	e003      	b.n	80015ca <HAL_GPIO_WritePin+0x26>
    GPIOx->BSRR = (uint32_t)GPIO_Pin << 16U;
 80015c2:	887b      	ldrh	r3, [r7, #2]
 80015c4:	041a      	lsls	r2, r3, #16
 80015c6:	687b      	ldr	r3, [r7, #4]
 80015c8:	619a      	str	r2, [r3, #24]
}
 80015ca:	bf00      	nop
 80015cc:	370c      	adds	r7, #12
 80015ce:	46bd      	mov	sp, r7
 80015d0:	f85d 7b04 	ldr.w	r7, [sp], #4
 80015d4:	4770      	bx	lr
	...

080015d8 <HAL_RCC_ClockConfig>:
  *         HPRE[3:0] bits to ensure that HCLK not exceed the maximum allowed frequency
  *         (for more details refer to section above "Initialization/de-initialization functions")
  * @retval None
  */
HAL_StatusTypeDef HAL_RCC_ClockConfig(RCC_ClkInitTypeDef  *RCC_ClkInitStruct, uint32_t FLatency)
{
 80015d8:	b580      	push	{r7, lr}
 80015da:	b084      	sub	sp, #16
 80015dc:	af00      	add	r7, sp, #0
 80015de:	6078      	str	r0, [r7, #4]
 80015e0:	6039      	str	r1, [r7, #0]
  uint32_t tickstart;

  /* Check Null pointer */
  if(RCC_ClkInitStruct == NULL)
 80015e2:	687b      	ldr	r3, [r7, #4]
 80015e4:	2b00      	cmp	r3, #0
 80015e6:	d101      	bne.n	80015ec <HAL_RCC_ClockConfig+0x14>
  {
    return HAL_ERROR;
 80015e8:	2301      	movs	r3, #1
 80015ea:	e0cc      	b.n	8001786 <HAL_RCC_ClockConfig+0x1ae>
  /* To correctly read data from FLASH memory, the number of wait states (LATENCY)
    must be correctly programmed according to the frequency of the CPU clock
    (HCLK) and the supply voltage of the device. */

  /* Increasing the number of wait states because of higher CPU frequency */
  if(FLatency > __HAL_FLASH_GET_LATENCY())
 80015ec:	4b68      	ldr	r3, [pc, #416]	; (8001790 <HAL_RCC_ClockConfig+0x1b8>)
 80015ee:	681b      	ldr	r3, [r3, #0]
 80015f0:	f003 030f 	and.w	r3, r3, #15
 80015f4:	683a      	ldr	r2, [r7, #0]
 80015f6:	429a      	cmp	r2, r3
 80015f8:	d90c      	bls.n	8001614 <HAL_RCC_ClockConfig+0x3c>
  {
    /* Program the new number of wait states to the LATENCY bits in the FLASH_ACR register */
    __HAL_FLASH_SET_LATENCY(FLatency);
 80015fa:	4b65      	ldr	r3, [pc, #404]	; (8001790 <HAL_RCC_ClockConfig+0x1b8>)
 80015fc:	683a      	ldr	r2, [r7, #0]
 80015fe:	b2d2      	uxtb	r2, r2
 8001600:	701a      	strb	r2, [r3, #0]

    /* Check that the new number of wait states is taken into account to access the Flash
    memory by reading the FLASH_ACR register */
    if(__HAL_FLASH_GET_LATENCY() != FLatency)
 8001602:	4b63      	ldr	r3, [pc, #396]	; (8001790 <HAL_RCC_ClockConfig+0x1b8>)
 8001604:	681b      	ldr	r3, [r3, #0]
 8001606:	f003 030f 	and.w	r3, r3, #15
 800160a:	683a      	ldr	r2, [r7, #0]
 800160c:	429a      	cmp	r2, r3
 800160e:	d001      	beq.n	8001614 <HAL_RCC_ClockConfig+0x3c>
    {
      return HAL_ERROR;
 8001610:	2301      	movs	r3, #1
 8001612:	e0b8      	b.n	8001786 <HAL_RCC_ClockConfig+0x1ae>
    }
  }

  /*-------------------------- HCLK Configuration --------------------------*/
  if(((RCC_ClkInitStruct->ClockType) & RCC_CLOCKTYPE_HCLK) == RCC_CLOCKTYPE_HCLK)
 8001614:	687b      	ldr	r3, [r7, #4]
 8001616:	681b      	ldr	r3, [r3, #0]
 8001618:	f003 0302 	and.w	r3, r3, #2
 800161c:	2b00      	cmp	r3, #0
 800161e:	d020      	beq.n	8001662 <HAL_RCC_ClockConfig+0x8a>
  {
    /* Set the highest APBx dividers in order to ensure that we do not go through
       a non-spec phase whatever we decrease or increase HCLK. */
    if(((RCC_ClkInitStruct->ClockType) & RCC_CLOCKTYPE_PCLK1) == RCC_CLOCKTYPE_PCLK1)
 8001620:	687b      	ldr	r3, [r7, #4]
 8001622:	681b      	ldr	r3, [r3, #0]
 8001624:	f003 0304 	and.w	r3, r3, #4
 8001628:	2b00      	cmp	r3, #0
 800162a:	d005      	beq.n	8001638 <HAL_RCC_ClockConfig+0x60>
    {
      MODIFY_REG(RCC->CFGR, RCC_CFGR_PPRE1, RCC_HCLK_DIV16);
 800162c:	4b59      	ldr	r3, [pc, #356]	; (8001794 <HAL_RCC_ClockConfig+0x1bc>)
 800162e:	689b      	ldr	r3, [r3, #8]
 8001630:	4a58      	ldr	r2, [pc, #352]	; (8001794 <HAL_RCC_ClockConfig+0x1bc>)
 8001632:	f443 53e0 	orr.w	r3, r3, #7168	; 0x1c00
 8001636:	6093      	str	r3, [r2, #8]
    }

    if(((RCC_ClkInitStruct->ClockType) & RCC_CLOCKTYPE_PCLK2) == RCC_CLOCKTYPE_PCLK2)
 8001638:	687b      	ldr	r3, [r7, #4]
 800163a:	681b      	ldr	r3, [r3, #0]
 800163c:	f003 0308 	and.w	r3, r3, #8
 8001640:	2b00      	cmp	r3, #0
 8001642:	d005      	beq.n	8001650 <HAL_RCC_ClockConfig+0x78>
    {
      MODIFY_REG(RCC->CFGR, RCC_CFGR_PPRE2, (RCC_HCLK_DIV16 << 3));
 8001644:	4b53      	ldr	r3, [pc, #332]	; (8001794 <HAL_RCC_ClockConfig+0x1bc>)
 8001646:	689b      	ldr	r3, [r3, #8]
 8001648:	4a52      	ldr	r2, [pc, #328]	; (8001794 <HAL_RCC_ClockConfig+0x1bc>)
 800164a:	f443 4360 	orr.w	r3, r3, #57344	; 0xe000
 800164e:	6093      	str	r3, [r2, #8]
    }

    assert_param(IS_RCC_HCLK(RCC_ClkInitStruct->AHBCLKDivider));
    MODIFY_REG(RCC->CFGR, RCC_CFGR_HPRE, RCC_ClkInitStruct->AHBCLKDivider);
 8001650:	4b50      	ldr	r3, [pc, #320]	; (8001794 <HAL_RCC_ClockConfig+0x1bc>)
 8001652:	689b      	ldr	r3, [r3, #8]
 8001654:	f023 02f0 	bic.w	r2, r3, #240	; 0xf0
 8001658:	687b      	ldr	r3, [r7, #4]
 800165a:	689b      	ldr	r3, [r3, #8]
 800165c:	494d      	ldr	r1, [pc, #308]	; (8001794 <HAL_RCC_ClockConfig+0x1bc>)
 800165e:	4313      	orrs	r3, r2
 8001660:	608b      	str	r3, [r1, #8]
  }

  /*------------------------- SYSCLK Configuration ---------------------------*/
  if(((RCC_ClkInitStruct->ClockType) & RCC_CLOCKTYPE_SYSCLK) == RCC_CLOCKTYPE_SYSCLK)
 8001662:	687b      	ldr	r3, [r7, #4]
 8001664:	681b      	ldr	r3, [r3, #0]
 8001666:	f003 0301 	and.w	r3, r3, #1
 800166a:	2b00      	cmp	r3, #0
 800166c:	d044      	beq.n	80016f8 <HAL_RCC_ClockConfig+0x120>
  {
    assert_param(IS_RCC_SYSCLKSOURCE(RCC_ClkInitStruct->SYSCLKSource));

    /* HSE is selected as System Clock Source */
    if(RCC_ClkInitStruct->SYSCLKSource == RCC_SYSCLKSOURCE_HSE)
 800166e:	687b      	ldr	r3, [r7, #4]
 8001670:	685b      	ldr	r3, [r3, #4]
 8001672:	2b01      	cmp	r3, #1
 8001674:	d107      	bne.n	8001686 <HAL_RCC_ClockConfig+0xae>
    {
      /* Check the HSE ready flag */
      if(__HAL_RCC_GET_FLAG(RCC_FLAG_HSERDY) == RESET)
 8001676:	4b47      	ldr	r3, [pc, #284]	; (8001794 <HAL_RCC_ClockConfig+0x1bc>)
 8001678:	681b      	ldr	r3, [r3, #0]
 800167a:	f403 3300 	and.w	r3, r3, #131072	; 0x20000
 800167e:	2b00      	cmp	r3, #0
 8001680:	d119      	bne.n	80016b6 <HAL_RCC_ClockConfig+0xde>
      {
        return HAL_ERROR;
 8001682:	2301      	movs	r3, #1
 8001684:	e07f      	b.n	8001786 <HAL_RCC_ClockConfig+0x1ae>
      }
    }
    /* PLL is selected as System Clock Source */
    else if((RCC_ClkInitStruct->SYSCLKSource == RCC_SYSCLKSOURCE_PLLCLK)   ||
 8001686:	687b      	ldr	r3, [r7, #4]
 8001688:	685b      	ldr	r3, [r3, #4]
 800168a:	2b02      	cmp	r3, #2
 800168c:	d003      	beq.n	8001696 <HAL_RCC_ClockConfig+0xbe>
            (RCC_ClkInitStruct->SYSCLKSource == RCC_SYSCLKSOURCE_PLLRCLK))
 800168e:	687b      	ldr	r3, [r7, #4]
 8001690:	685b      	ldr	r3, [r3, #4]
    else if((RCC_ClkInitStruct->SYSCLKSource == RCC_SYSCLKSOURCE_PLLCLK)   ||
 8001692:	2b03      	cmp	r3, #3
 8001694:	d107      	bne.n	80016a6 <HAL_RCC_ClockConfig+0xce>
    {
      /* Check the PLL ready flag */
      if(__HAL_RCC_GET_FLAG(RCC_FLAG_PLLRDY) == RESET)
 8001696:	4b3f      	ldr	r3, [pc, #252]	; (8001794 <HAL_RCC_ClockConfig+0x1bc>)
 8001698:	681b      	ldr	r3, [r3, #0]
 800169a:	f003 7300 	and.w	r3, r3, #33554432	; 0x2000000
 800169e:	2b00      	cmp	r3, #0
 80016a0:	d109      	bne.n	80016b6 <HAL_RCC_ClockConfig+0xde>
      {
        return HAL_ERROR;
 80016a2:	2301      	movs	r3, #1
 80016a4:	e06f      	b.n	8001786 <HAL_RCC_ClockConfig+0x1ae>
    }
    /* HSI is selected as System Clock Source */
    else
    {
      /* Check the HSI ready flag */
      if(__HAL_RCC_GET_FLAG(RCC_FLAG_HSIRDY) == RESET)
 80016a6:	4b3b      	ldr	r3, [pc, #236]	; (8001794 <HAL_RCC_ClockConfig+0x1bc>)
 80016a8:	681b      	ldr	r3, [r3, #0]
 80016aa:	f003 0302 	and.w	r3, r3, #2
 80016ae:	2b00      	cmp	r3, #0
 80016b0:	d101      	bne.n	80016b6 <HAL_RCC_ClockConfig+0xde>
      {
        return HAL_ERROR;
 80016b2:	2301      	movs	r3, #1
 80016b4:	e067      	b.n	8001786 <HAL_RCC_ClockConfig+0x1ae>
      }
    }

    __HAL_RCC_SYSCLK_CONFIG(RCC_ClkInitStruct->SYSCLKSource);
 80016b6:	4b37      	ldr	r3, [pc, #220]	; (8001794 <HAL_RCC_ClockConfig+0x1bc>)
 80016b8:	689b      	ldr	r3, [r3, #8]
 80016ba:	f023 0203 	bic.w	r2, r3, #3
 80016be:	687b      	ldr	r3, [r7, #4]
 80016c0:	685b      	ldr	r3, [r3, #4]
 80016c2:	4934      	ldr	r1, [pc, #208]	; (8001794 <HAL_RCC_ClockConfig+0x1bc>)
 80016c4:	4313      	orrs	r3, r2
 80016c6:	608b      	str	r3, [r1, #8]

    /* Get Start Tick */
    tickstart = HAL_GetTick();
 80016c8:	f7ff fcc6 	bl	8001058 <HAL_GetTick>
 80016cc:	60f8      	str	r0, [r7, #12]

    while (__HAL_RCC_GET_SYSCLK_SOURCE() != (RCC_ClkInitStruct->SYSCLKSource << RCC_CFGR_SWS_Pos))
 80016ce:	e00a      	b.n	80016e6 <HAL_RCC_ClockConfig+0x10e>
    {
      if ((HAL_GetTick() - tickstart) > CLOCKSWITCH_TIMEOUT_VALUE)
 80016d0:	f7ff fcc2 	bl	8001058 <HAL_GetTick>
 80016d4:	4602      	mov	r2, r0
 80016d6:	68fb      	ldr	r3, [r7, #12]
 80016d8:	1ad3      	subs	r3, r2, r3
 80016da:	f241 3288 	movw	r2, #5000	; 0x1388
 80016de:	4293      	cmp	r3, r2
 80016e0:	d901      	bls.n	80016e6 <HAL_RCC_ClockConfig+0x10e>
      {
        return HAL_TIMEOUT;
 80016e2:	2303      	movs	r3, #3
 80016e4:	e04f      	b.n	8001786 <HAL_RCC_ClockConfig+0x1ae>
    while (__HAL_RCC_GET_SYSCLK_SOURCE() != (RCC_ClkInitStruct->SYSCLKSource << RCC_CFGR_SWS_Pos))
 80016e6:	4b2b      	ldr	r3, [pc, #172]	; (8001794 <HAL_RCC_ClockConfig+0x1bc>)
 80016e8:	689b      	ldr	r3, [r3, #8]
 80016ea:	f003 020c 	and.w	r2, r3, #12
 80016ee:	687b      	ldr	r3, [r7, #4]
 80016f0:	685b      	ldr	r3, [r3, #4]
 80016f2:	009b      	lsls	r3, r3, #2
 80016f4:	429a      	cmp	r2, r3
 80016f6:	d1eb      	bne.n	80016d0 <HAL_RCC_ClockConfig+0xf8>
      }
    }
  }

  /* Decreasing the number of wait states because of lower CPU frequency */
  if(FLatency < __HAL_FLASH_GET_LATENCY())
 80016f8:	4b25      	ldr	r3, [pc, #148]	; (8001790 <HAL_RCC_ClockConfig+0x1b8>)
 80016fa:	681b      	ldr	r3, [r3, #0]
 80016fc:	f003 030f 	and.w	r3, r3, #15
 8001700:	683a      	ldr	r2, [r7, #0]
 8001702:	429a      	cmp	r2, r3
 8001704:	d20c      	bcs.n	8001720 <HAL_RCC_ClockConfig+0x148>
  {
     /* Program the new number of wait states to the LATENCY bits in the FLASH_ACR register */
    __HAL_FLASH_SET_LATENCY(FLatency);
 8001706:	4b22      	ldr	r3, [pc, #136]	; (8001790 <HAL_RCC_ClockConfig+0x1b8>)
 8001708:	683a      	ldr	r2, [r7, #0]
 800170a:	b2d2      	uxtb	r2, r2
 800170c:	701a      	strb	r2, [r3, #0]

    /* Check that the new number of wait states is taken into account to access the Flash
    memory by reading the FLASH_ACR register */
    if(__HAL_FLASH_GET_LATENCY() != FLatency)
 800170e:	4b20      	ldr	r3, [pc, #128]	; (8001790 <HAL_RCC_ClockConfig+0x1b8>)
 8001710:	681b      	ldr	r3, [r3, #0]
 8001712:	f003 030f 	and.w	r3, r3, #15
 8001716:	683a      	ldr	r2, [r7, #0]
 8001718:	429a      	cmp	r2, r3
 800171a:	d001      	beq.n	8001720 <HAL_RCC_ClockConfig+0x148>
    {
      return HAL_ERROR;
 800171c:	2301      	movs	r3, #1
 800171e:	e032      	b.n	8001786 <HAL_RCC_ClockConfig+0x1ae>
    }
  }

  /*-------------------------- PCLK1 Configuration ---------------------------*/
  if(((RCC_ClkInitStruct->ClockType) & RCC_CLOCKTYPE_PCLK1) == RCC_CLOCKTYPE_PCLK1)
 8001720:	687b      	ldr	r3, [r7, #4]
 8001722:	681b      	ldr	r3, [r3, #0]
 8001724:	f003 0304 	and.w	r3, r3, #4
 8001728:	2b00      	cmp	r3, #0
 800172a:	d008      	beq.n	800173e <HAL_RCC_ClockConfig+0x166>
  {
    assert_param(IS_RCC_PCLK(RCC_ClkInitStruct->APB1CLKDivider));
    MODIFY_REG(RCC->CFGR, RCC_CFGR_PPRE1, RCC_ClkInitStruct->APB1CLKDivider);
 800172c:	4b19      	ldr	r3, [pc, #100]	; (8001794 <HAL_RCC_ClockConfig+0x1bc>)
 800172e:	689b      	ldr	r3, [r3, #8]
 8001730:	f423 52e0 	bic.w	r2, r3, #7168	; 0x1c00
 8001734:	687b      	ldr	r3, [r7, #4]
 8001736:	68db      	ldr	r3, [r3, #12]
 8001738:	4916      	ldr	r1, [pc, #88]	; (8001794 <HAL_RCC_ClockConfig+0x1bc>)
 800173a:	4313      	orrs	r3, r2
 800173c:	608b      	str	r3, [r1, #8]
  }

  /*-------------------------- PCLK2 Configuration ---------------------------*/
  if(((RCC_ClkInitStruct->ClockType) & RCC_CLOCKTYPE_PCLK2) == RCC_CLOCKTYPE_PCLK2)
 800173e:	687b      	ldr	r3, [r7, #4]
 8001740:	681b      	ldr	r3, [r3, #0]
 8001742:	f003 0308 	and.w	r3, r3, #8
 8001746:	2b00      	cmp	r3, #0
 8001748:	d009      	beq.n	800175e <HAL_RCC_ClockConfig+0x186>
  {
    assert_param(IS_RCC_PCLK(RCC_ClkInitStruct->APB2CLKDivider));
    MODIFY_REG(RCC->CFGR, RCC_CFGR_PPRE2, ((RCC_ClkInitStruct->APB2CLKDivider) << 3U));
 800174a:	4b12      	ldr	r3, [pc, #72]	; (8001794 <HAL_RCC_ClockConfig+0x1bc>)
 800174c:	689b      	ldr	r3, [r3, #8]
 800174e:	f423 4260 	bic.w	r2, r3, #57344	; 0xe000
 8001752:	687b      	ldr	r3, [r7, #4]
 8001754:	691b      	ldr	r3, [r3, #16]
 8001756:	00db      	lsls	r3, r3, #3
 8001758:	490e      	ldr	r1, [pc, #56]	; (8001794 <HAL_RCC_ClockConfig+0x1bc>)
 800175a:	4313      	orrs	r3, r2
 800175c:	608b      	str	r3, [r1, #8]
  }

  /* Update the SystemCoreClock global variable */
  SystemCoreClock = HAL_RCC_GetSysClockFreq() >> AHBPrescTable[(RCC->CFGR & RCC_CFGR_HPRE)>> RCC_CFGR_HPRE_Pos];
 800175e:	f000 f855 	bl	800180c <HAL_RCC_GetSysClockFreq>
 8001762:	4601      	mov	r1, r0
 8001764:	4b0b      	ldr	r3, [pc, #44]	; (8001794 <HAL_RCC_ClockConfig+0x1bc>)
 8001766:	689b      	ldr	r3, [r3, #8]
 8001768:	091b      	lsrs	r3, r3, #4
 800176a:	f003 030f 	and.w	r3, r3, #15
 800176e:	4a0a      	ldr	r2, [pc, #40]	; (8001798 <HAL_RCC_ClockConfig+0x1c0>)
 8001770:	5cd3      	ldrb	r3, [r2, r3]
 8001772:	fa21 f303 	lsr.w	r3, r1, r3
 8001776:	4a09      	ldr	r2, [pc, #36]	; (800179c <HAL_RCC_ClockConfig+0x1c4>)
 8001778:	6013      	str	r3, [r2, #0]

  /* Configure the source of time base considering new system clocks settings */
  HAL_InitTick (uwTickPrio);
 800177a:	4b09      	ldr	r3, [pc, #36]	; (80017a0 <HAL_RCC_ClockConfig+0x1c8>)
 800177c:	681b      	ldr	r3, [r3, #0]
 800177e:	4618      	mov	r0, r3
 8001780:	f7ff fc26 	bl	8000fd0 <HAL_InitTick>

  return HAL_OK;
 8001784:	2300      	movs	r3, #0
}
 8001786:	4618      	mov	r0, r3
 8001788:	3710      	adds	r7, #16
 800178a:	46bd      	mov	sp, r7
 800178c:	bd80      	pop	{r7, pc}
 800178e:	bf00      	nop
 8001790:	40023c00 	.word	0x40023c00
 8001794:	40023800 	.word	0x40023800
 8001798:	08003778 	.word	0x08003778
 800179c:	20000000 	.word	0x20000000
 80017a0:	20000004 	.word	0x20000004

080017a4 <HAL_RCC_GetHCLKFreq>:
  * @note   The SystemCoreClock CMSIS variable is used to store System Clock Frequency
  *         and updated within this function
  * @retval HCLK frequency
  */
uint32_t HAL_RCC_GetHCLKFreq(void)
{
 80017a4:	b480      	push	{r7}
 80017a6:	af00      	add	r7, sp, #0
  return SystemCoreClock;
 80017a8:	4b03      	ldr	r3, [pc, #12]	; (80017b8 <HAL_RCC_GetHCLKFreq+0x14>)
 80017aa:	681b      	ldr	r3, [r3, #0]
}
 80017ac:	4618      	mov	r0, r3
 80017ae:	46bd      	mov	sp, r7
 80017b0:	f85d 7b04 	ldr.w	r7, [sp], #4
 80017b4:	4770      	bx	lr
 80017b6:	bf00      	nop
 80017b8:	20000000 	.word	0x20000000

080017bc <HAL_RCC_GetPCLK1Freq>:
  * @note   Each time PCLK1 changes, this function must be called to update the
  *         right PCLK1 value. Otherwise, any configuration based on this function will be incorrect.
  * @retval PCLK1 frequency
  */
uint32_t HAL_RCC_GetPCLK1Freq(void)
{
 80017bc:	b580      	push	{r7, lr}
 80017be:	af00      	add	r7, sp, #0
  /* Get HCLK source and Compute PCLK1 frequency ---------------------------*/
  return (HAL_RCC_GetHCLKFreq() >> APBPrescTable[(RCC->CFGR & RCC_CFGR_PPRE1)>> RCC_CFGR_PPRE1_Pos]);
 80017c0:	f7ff fff0 	bl	80017a4 <HAL_RCC_GetHCLKFreq>
 80017c4:	4601      	mov	r1, r0
 80017c6:	4b05      	ldr	r3, [pc, #20]	; (80017dc <HAL_RCC_GetPCLK1Freq+0x20>)
 80017c8:	689b      	ldr	r3, [r3, #8]
 80017ca:	0a9b      	lsrs	r3, r3, #10
 80017cc:	f003 0307 	and.w	r3, r3, #7
 80017d0:	4a03      	ldr	r2, [pc, #12]	; (80017e0 <HAL_RCC_GetPCLK1Freq+0x24>)
 80017d2:	5cd3      	ldrb	r3, [r2, r3]
 80017d4:	fa21 f303 	lsr.w	r3, r1, r3
}
 80017d8:	4618      	mov	r0, r3
 80017da:	bd80      	pop	{r7, pc}
 80017dc:	40023800 	.word	0x40023800
 80017e0:	08003788 	.word	0x08003788

080017e4 <HAL_RCC_GetPCLK2Freq>:
  * @note   Each time PCLK2 changes, this function must be called to update the
  *         right PCLK2 value. Otherwise, any configuration based on this function will be incorrect.
  * @retval PCLK2 frequency
  */
uint32_t HAL_RCC_GetPCLK2Freq(void)
{
 80017e4:	b580      	push	{r7, lr}
 80017e6:	af00      	add	r7, sp, #0
  /* Get HCLK source and Compute PCLK2 frequency ---------------------------*/
  return (HAL_RCC_GetHCLKFreq()>> APBPrescTable[(RCC->CFGR & RCC_CFGR_PPRE2)>> RCC_CFGR_PPRE2_Pos]);
 80017e8:	f7ff ffdc 	bl	80017a4 <HAL_RCC_GetHCLKFreq>
 80017ec:	4601      	mov	r1, r0
 80017ee:	4b05      	ldr	r3, [pc, #20]	; (8001804 <HAL_RCC_GetPCLK2Freq+0x20>)
 80017f0:	689b      	ldr	r3, [r3, #8]
 80017f2:	0b5b      	lsrs	r3, r3, #13
 80017f4:	f003 0307 	and.w	r3, r3, #7
 80017f8:	4a03      	ldr	r2, [pc, #12]	; (8001808 <HAL_RCC_GetPCLK2Freq+0x24>)
 80017fa:	5cd3      	ldrb	r3, [r2, r3]
 80017fc:	fa21 f303 	lsr.w	r3, r1, r3
}
 8001800:	4618      	mov	r0, r3
 8001802:	bd80      	pop	{r7, pc}
 8001804:	40023800 	.word	0x40023800
 8001808:	08003788 	.word	0x08003788

0800180c <HAL_RCC_GetSysClockFreq>:
  *
  *
  * @retval SYSCLK frequency
  */
uint32_t HAL_RCC_GetSysClockFreq(void)
{
 800180c:	b5f0      	push	{r4, r5, r6, r7, lr}
 800180e:	b087      	sub	sp, #28
 8001810:	af00      	add	r7, sp, #0
  uint32_t pllm = 0U;
 8001812:	2300      	movs	r3, #0
 8001814:	60fb      	str	r3, [r7, #12]
  uint32_t pllvco = 0U;
 8001816:	2300      	movs	r3, #0
 8001818:	617b      	str	r3, [r7, #20]
  uint32_t pllp = 0U;
 800181a:	2300      	movs	r3, #0
 800181c:	60bb      	str	r3, [r7, #8]
  uint32_t pllr = 0U;
 800181e:	2300      	movs	r3, #0
 8001820:	607b      	str	r3, [r7, #4]
  uint32_t sysclockfreq = 0U;
 8001822:	2300      	movs	r3, #0
 8001824:	613b      	str	r3, [r7, #16]

  /* Get SYSCLK source -------------------------------------------------------*/
  switch (RCC->CFGR & RCC_CFGR_SWS)
 8001826:	4bc6      	ldr	r3, [pc, #792]	; (8001b40 <HAL_RCC_GetSysClockFreq+0x334>)
 8001828:	689b      	ldr	r3, [r3, #8]
 800182a:	f003 030c 	and.w	r3, r3, #12
 800182e:	2b0c      	cmp	r3, #12
 8001830:	f200 817e 	bhi.w	8001b30 <HAL_RCC_GetSysClockFreq+0x324>
 8001834:	a201      	add	r2, pc, #4	; (adr r2, 800183c <HAL_RCC_GetSysClockFreq+0x30>)
 8001836:	f852 f023 	ldr.w	pc, [r2, r3, lsl #2]
 800183a:	bf00      	nop
 800183c:	08001871 	.word	0x08001871
 8001840:	08001b31 	.word	0x08001b31
 8001844:	08001b31 	.word	0x08001b31
 8001848:	08001b31 	.word	0x08001b31
 800184c:	08001877 	.word	0x08001877
 8001850:	08001b31 	.word	0x08001b31
 8001854:	08001b31 	.word	0x08001b31
 8001858:	08001b31 	.word	0x08001b31
 800185c:	0800187d 	.word	0x0800187d
 8001860:	08001b31 	.word	0x08001b31
 8001864:	08001b31 	.word	0x08001b31
 8001868:	08001b31 	.word	0x08001b31
 800186c:	080019d9 	.word	0x080019d9
  {
    case RCC_CFGR_SWS_HSI:  /* HSI used as system clock source */
    {
      sysclockfreq = HSI_VALUE;
 8001870:	4bb4      	ldr	r3, [pc, #720]	; (8001b44 <HAL_RCC_GetSysClockFreq+0x338>)
 8001872:	613b      	str	r3, [r7, #16]
       break;
 8001874:	e15f      	b.n	8001b36 <HAL_RCC_GetSysClockFreq+0x32a>
    }
    case RCC_CFGR_SWS_HSE:  /* HSE used as system clock  source */
    {
      sysclockfreq = HSE_VALUE;
 8001876:	4bb4      	ldr	r3, [pc, #720]	; (8001b48 <HAL_RCC_GetSysClockFreq+0x33c>)
 8001878:	613b      	str	r3, [r7, #16]
      break;
 800187a:	e15c      	b.n	8001b36 <HAL_RCC_GetSysClockFreq+0x32a>
    }
    case RCC_CFGR_SWS_PLL:  /* PLL/PLLP used as system clock  source */
    {
      /* PLL_VCO = (HSE_VALUE or HSI_VALUE / PLLM) * PLLN
      SYSCLK = PLL_VCO / PLLP */
      pllm = RCC->PLLCFGR & RCC_PLLCFGR_PLLM;
 800187c:	4bb0      	ldr	r3, [pc, #704]	; (8001b40 <HAL_RCC_GetSysClockFreq+0x334>)
 800187e:	685b      	ldr	r3, [r3, #4]
 8001880:	f003 033f 	and.w	r3, r3, #63	; 0x3f
 8001884:	60fb      	str	r3, [r7, #12]
      if(__HAL_RCC_GET_PLL_OSCSOURCE() != RCC_PLLSOURCE_HSI)
 8001886:	4bae      	ldr	r3, [pc, #696]	; (8001b40 <HAL_RCC_GetSysClockFreq+0x334>)
 8001888:	685b      	ldr	r3, [r3, #4]
 800188a:	f403 0380 	and.w	r3, r3, #4194304	; 0x400000
 800188e:	2b00      	cmp	r3, #0
 8001890:	d04a      	beq.n	8001928 <HAL_RCC_GetSysClockFreq+0x11c>
      {
        /* HSE used as PLL clock source */
        pllvco = (uint32_t) ((((uint64_t) HSE_VALUE * ((uint64_t) ((RCC->PLLCFGR & RCC_PLLCFGR_PLLN) >> RCC_PLLCFGR_PLLN_Pos)))) / (uint64_t)pllm);
 8001892:	4bab      	ldr	r3, [pc, #684]	; (8001b40 <HAL_RCC_GetSysClockFreq+0x334>)
 8001894:	685b      	ldr	r3, [r3, #4]
 8001896:	099b      	lsrs	r3, r3, #6
 8001898:	f04f 0400 	mov.w	r4, #0
 800189c:	f240 11ff 	movw	r1, #511	; 0x1ff
 80018a0:	f04f 0200 	mov.w	r2, #0
 80018a4:	ea03 0501 	and.w	r5, r3, r1
 80018a8:	ea04 0602 	and.w	r6, r4, r2
 80018ac:	4629      	mov	r1, r5
 80018ae:	4632      	mov	r2, r6
 80018b0:	f04f 0300 	mov.w	r3, #0
 80018b4:	f04f 0400 	mov.w	r4, #0
 80018b8:	0154      	lsls	r4, r2, #5
 80018ba:	ea44 64d1 	orr.w	r4, r4, r1, lsr #27
 80018be:	014b      	lsls	r3, r1, #5
 80018c0:	4619      	mov	r1, r3
 80018c2:	4622      	mov	r2, r4
 80018c4:	1b49      	subs	r1, r1, r5
 80018c6:	eb62 0206 	sbc.w	r2, r2, r6
 80018ca:	f04f 0300 	mov.w	r3, #0
 80018ce:	f04f 0400 	mov.w	r4, #0
 80018d2:	0194      	lsls	r4, r2, #6
 80018d4:	ea44 6491 	orr.w	r4, r4, r1, lsr #26
 80018d8:	018b      	lsls	r3, r1, #6
 80018da:	1a5b      	subs	r3, r3, r1
 80018dc:	eb64 0402 	sbc.w	r4, r4, r2
 80018e0:	f04f 0100 	mov.w	r1, #0
 80018e4:	f04f 0200 	mov.w	r2, #0
 80018e8:	00e2      	lsls	r2, r4, #3
 80018ea:	ea42 7253 	orr.w	r2, r2, r3, lsr #29
 80018ee:	00d9      	lsls	r1, r3, #3
 80018f0:	460b      	mov	r3, r1
 80018f2:	4614      	mov	r4, r2
 80018f4:	195b      	adds	r3, r3, r5
 80018f6:	eb44 0406 	adc.w	r4, r4, r6
 80018fa:	f04f 0100 	mov.w	r1, #0
 80018fe:	f04f 0200 	mov.w	r2, #0
 8001902:	0262      	lsls	r2, r4, #9
 8001904:	ea42 52d3 	orr.w	r2, r2, r3, lsr #23
 8001908:	0259      	lsls	r1, r3, #9
 800190a:	460b      	mov	r3, r1
 800190c:	4614      	mov	r4, r2
 800190e:	4618      	mov	r0, r3
 8001910:	4621      	mov	r1, r4
 8001912:	68fb      	ldr	r3, [r7, #12]
 8001914:	f04f 0400 	mov.w	r4, #0
 8001918:	461a      	mov	r2, r3
 800191a:	4623      	mov	r3, r4
 800191c:	f7fe fcd0 	bl	80002c0 <__aeabi_uldivmod>
 8001920:	4603      	mov	r3, r0
 8001922:	460c      	mov	r4, r1
 8001924:	617b      	str	r3, [r7, #20]
 8001926:	e049      	b.n	80019bc <HAL_RCC_GetSysClockFreq+0x1b0>
      }
      else
      {
        /* HSI used as PLL clock source */
        pllvco = (uint32_t) ((((uint64_t) HSI_VALUE * ((uint64_t) ((RCC->PLLCFGR & RCC_PLLCFGR_PLLN) >> RCC_PLLCFGR_PLLN_Pos)))) / (uint64_t)pllm);
 8001928:	4b85      	ldr	r3, [pc, #532]	; (8001b40 <HAL_RCC_GetSysClockFreq+0x334>)
 800192a:	685b      	ldr	r3, [r3, #4]
 800192c:	099b      	lsrs	r3, r3, #6
 800192e:	f04f 0400 	mov.w	r4, #0
 8001932:	f240 11ff 	movw	r1, #511	; 0x1ff
 8001936:	f04f 0200 	mov.w	r2, #0
 800193a:	ea03 0501 	and.w	r5, r3, r1
 800193e:	ea04 0602 	and.w	r6, r4, r2
 8001942:	4629      	mov	r1, r5
 8001944:	4632      	mov	r2, r6
 8001946:	f04f 0300 	mov.w	r3, #0
 800194a:	f04f 0400 	mov.w	r4, #0
 800194e:	0154      	lsls	r4, r2, #5
 8001950:	ea44 64d1 	orr.w	r4, r4, r1, lsr #27
 8001954:	014b      	lsls	r3, r1, #5
 8001956:	4619      	mov	r1, r3
 8001958:	4622      	mov	r2, r4
 800195a:	1b49      	subs	r1, r1, r5
 800195c:	eb62 0206 	sbc.w	r2, r2, r6
 8001960:	f04f 0300 	mov.w	r3, #0
 8001964:	f04f 0400 	mov.w	r4, #0
 8001968:	0194      	lsls	r4, r2, #6
 800196a:	ea44 6491 	orr.w	r4, r4, r1, lsr #26
 800196e:	018b      	lsls	r3, r1, #6
 8001970:	1a5b      	subs	r3, r3, r1
 8001972:	eb64 0402 	sbc.w	r4, r4, r2
 8001976:	f04f 0100 	mov.w	r1, #0
 800197a:	f04f 0200 	mov.w	r2, #0
 800197e:	00e2      	lsls	r2, r4, #3
 8001980:	ea42 7253 	orr.w	r2, r2, r3, lsr #29
 8001984:	00d9      	lsls	r1, r3, #3
 8001986:	460b      	mov	r3, r1
 8001988:	4614      	mov	r4, r2
 800198a:	195b      	adds	r3, r3, r5
 800198c:	eb44 0406 	adc.w	r4, r4, r6
 8001990:	f04f 0100 	mov.w	r1, #0
 8001994:	f04f 0200 	mov.w	r2, #0
 8001998:	02a2      	lsls	r2, r4, #10
 800199a:	ea42 5293 	orr.w	r2, r2, r3, lsr #22
 800199e:	0299      	lsls	r1, r3, #10
 80019a0:	460b      	mov	r3, r1
 80019a2:	4614      	mov	r4, r2
 80019a4:	4618      	mov	r0, r3
 80019a6:	4621      	mov	r1, r4
 80019a8:	68fb      	ldr	r3, [r7, #12]
 80019aa:	f04f 0400 	mov.w	r4, #0
 80019ae:	461a      	mov	r2, r3
 80019b0:	4623      	mov	r3, r4
 80019b2:	f7fe fc85 	bl	80002c0 <__aeabi_uldivmod>
 80019b6:	4603      	mov	r3, r0
 80019b8:	460c      	mov	r4, r1
 80019ba:	617b      	str	r3, [r7, #20]
      }
      pllp = ((((RCC->PLLCFGR & RCC_PLLCFGR_PLLP) >> RCC_PLLCFGR_PLLP_Pos) + 1U) *2U);
 80019bc:	4b60      	ldr	r3, [pc, #384]	; (8001b40 <HAL_RCC_GetSysClockFreq+0x334>)
 80019be:	685b      	ldr	r3, [r3, #4]
 80019c0:	0c1b      	lsrs	r3, r3, #16
 80019c2:	f003 0303 	and.w	r3, r3, #3
 80019c6:	3301      	adds	r3, #1
 80019c8:	005b      	lsls	r3, r3, #1
 80019ca:	60bb      	str	r3, [r7, #8]

      sysclockfreq = pllvco/pllp;
 80019cc:	697a      	ldr	r2, [r7, #20]
 80019ce:	68bb      	ldr	r3, [r7, #8]
 80019d0:	fbb2 f3f3 	udiv	r3, r2, r3
 80019d4:	613b      	str	r3, [r7, #16]
      break;
 80019d6:	e0ae      	b.n	8001b36 <HAL_RCC_GetSysClockFreq+0x32a>
    }
    case RCC_CFGR_SWS_PLLR:  /* PLL/PLLR used as system clock  source */
    {
      /* PLL_VCO = (HSE_VALUE or HSI_VALUE / PLLM) * PLLN
      SYSCLK = PLL_VCO / PLLR */
      pllm = RCC->PLLCFGR & RCC_PLLCFGR_PLLM;
 80019d8:	4b59      	ldr	r3, [pc, #356]	; (8001b40 <HAL_RCC_GetSysClockFreq+0x334>)
 80019da:	685b      	ldr	r3, [r3, #4]
 80019dc:	f003 033f 	and.w	r3, r3, #63	; 0x3f
 80019e0:	60fb      	str	r3, [r7, #12]
      if(__HAL_RCC_GET_PLL_OSCSOURCE() != RCC_PLLSOURCE_HSI)
 80019e2:	4b57      	ldr	r3, [pc, #348]	; (8001b40 <HAL_RCC_GetSysClockFreq+0x334>)
 80019e4:	685b      	ldr	r3, [r3, #4]
 80019e6:	f403 0380 	and.w	r3, r3, #4194304	; 0x400000
 80019ea:	2b00      	cmp	r3, #0
 80019ec:	d04a      	beq.n	8001a84 <HAL_RCC_GetSysClockFreq+0x278>
      {
        /* HSE used as PLL clock source */
        pllvco = (uint32_t) ((((uint64_t) HSE_VALUE * ((uint64_t) ((RCC->PLLCFGR & RCC_PLLCFGR_PLLN) >> RCC_PLLCFGR_PLLN_Pos)))) / (uint64_t)pllm);
 80019ee:	4b54      	ldr	r3, [pc, #336]	; (8001b40 <HAL_RCC_GetSysClockFreq+0x334>)
 80019f0:	685b      	ldr	r3, [r3, #4]
 80019f2:	099b      	lsrs	r3, r3, #6
 80019f4:	f04f 0400 	mov.w	r4, #0
 80019f8:	f240 11ff 	movw	r1, #511	; 0x1ff
 80019fc:	f04f 0200 	mov.w	r2, #0
 8001a00:	ea03 0501 	and.w	r5, r3, r1
 8001a04:	ea04 0602 	and.w	r6, r4, r2
 8001a08:	4629      	mov	r1, r5
 8001a0a:	4632      	mov	r2, r6
 8001a0c:	f04f 0300 	mov.w	r3, #0
 8001a10:	f04f 0400 	mov.w	r4, #0
 8001a14:	0154      	lsls	r4, r2, #5
 8001a16:	ea44 64d1 	orr.w	r4, r4, r1, lsr #27
 8001a1a:	014b      	lsls	r3, r1, #5
 8001a1c:	4619      	mov	r1, r3
 8001a1e:	4622      	mov	r2, r4
 8001a20:	1b49      	subs	r1, r1, r5
 8001a22:	eb62 0206 	sbc.w	r2, r2, r6
 8001a26:	f04f 0300 	mov.w	r3, #0
 8001a2a:	f04f 0400 	mov.w	r4, #0
 8001a2e:	0194      	lsls	r4, r2, #6
 8001a30:	ea44 6491 	orr.w	r4, r4, r1, lsr #26
 8001a34:	018b      	lsls	r3, r1, #6
 8001a36:	1a5b      	subs	r3, r3, r1
 8001a38:	eb64 0402 	sbc.w	r4, r4, r2
 8001a3c:	f04f 0100 	mov.w	r1, #0
 8001a40:	f04f 0200 	mov.w	r2, #0
 8001a44:	00e2      	lsls	r2, r4, #3
 8001a46:	ea42 7253 	orr.w	r2, r2, r3, lsr #29
 8001a4a:	00d9      	lsls	r1, r3, #3
 8001a4c:	460b      	mov	r3, r1
 8001a4e:	4614      	mov	r4, r2
 8001a50:	195b      	adds	r3, r3, r5
 8001a52:	eb44 0406 	adc.w	r4, r4, r6
 8001a56:	f04f 0100 	mov.w	r1, #0
 8001a5a:	f04f 0200 	mov.w	r2, #0
 8001a5e:	0262      	lsls	r2, r4, #9
 8001a60:	ea42 52d3 	orr.w	r2, r2, r3, lsr #23
 8001a64:	0259      	lsls	r1, r3, #9
 8001a66:	460b      	mov	r3, r1
 8001a68:	4614      	mov	r4, r2
 8001a6a:	4618      	mov	r0, r3
 8001a6c:	4621      	mov	r1, r4
 8001a6e:	68fb      	ldr	r3, [r7, #12]
 8001a70:	f04f 0400 	mov.w	r4, #0
 8001a74:	461a      	mov	r2, r3
 8001a76:	4623      	mov	r3, r4
 8001a78:	f7fe fc22 	bl	80002c0 <__aeabi_uldivmod>
 8001a7c:	4603      	mov	r3, r0
 8001a7e:	460c      	mov	r4, r1
 8001a80:	617b      	str	r3, [r7, #20]
 8001a82:	e049      	b.n	8001b18 <HAL_RCC_GetSysClockFreq+0x30c>
      }
      else
      {
        /* HSI used as PLL clock source */
        pllvco = (uint32_t) ((((uint64_t) HSI_VALUE * ((uint64_t) ((RCC->PLLCFGR & RCC_PLLCFGR_PLLN) >> RCC_PLLCFGR_PLLN_Pos)))) / (uint64_t)pllm);
 8001a84:	4b2e      	ldr	r3, [pc, #184]	; (8001b40 <HAL_RCC_GetSysClockFreq+0x334>)
 8001a86:	685b      	ldr	r3, [r3, #4]
 8001a88:	099b      	lsrs	r3, r3, #6
 8001a8a:	f04f 0400 	mov.w	r4, #0
 8001a8e:	f240 11ff 	movw	r1, #511	; 0x1ff
 8001a92:	f04f 0200 	mov.w	r2, #0
 8001a96:	ea03 0501 	and.w	r5, r3, r1
 8001a9a:	ea04 0602 	and.w	r6, r4, r2
 8001a9e:	4629      	mov	r1, r5
 8001aa0:	4632      	mov	r2, r6
 8001aa2:	f04f 0300 	mov.w	r3, #0
 8001aa6:	f04f 0400 	mov.w	r4, #0
 8001aaa:	0154      	lsls	r4, r2, #5
 8001aac:	ea44 64d1 	orr.w	r4, r4, r1, lsr #27
 8001ab0:	014b      	lsls	r3, r1, #5
 8001ab2:	4619      	mov	r1, r3
 8001ab4:	4622      	mov	r2, r4
 8001ab6:	1b49      	subs	r1, r1, r5
 8001ab8:	eb62 0206 	sbc.w	r2, r2, r6
 8001abc:	f04f 0300 	mov.w	r3, #0
 8001ac0:	f04f 0400 	mov.w	r4, #0
 8001ac4:	0194      	lsls	r4, r2, #6
 8001ac6:	ea44 6491 	orr.w	r4, r4, r1, lsr #26
 8001aca:	018b      	lsls	r3, r1, #6
 8001acc:	1a5b      	subs	r3, r3, r1
 8001ace:	eb64 0402 	sbc.w	r4, r4, r2
 8001ad2:	f04f 0100 	mov.w	r1, #0
 8001ad6:	f04f 0200 	mov.w	r2, #0
 8001ada:	00e2      	lsls	r2, r4, #3
 8001adc:	ea42 7253 	orr.w	r2, r2, r3, lsr #29
 8001ae0:	00d9      	lsls	r1, r3, #3
 8001ae2:	460b      	mov	r3, r1
 8001ae4:	4614      	mov	r4, r2
 8001ae6:	195b      	adds	r3, r3, r5
 8001ae8:	eb44 0406 	adc.w	r4, r4, r6
 8001aec:	f04f 0100 	mov.w	r1, #0
 8001af0:	f04f 0200 	mov.w	r2, #0
 8001af4:	02a2      	lsls	r2, r4, #10
 8001af6:	ea42 5293 	orr.w	r2, r2, r3, lsr #22
 8001afa:	0299      	lsls	r1, r3, #10
 8001afc:	460b      	mov	r3, r1
 8001afe:	4614      	mov	r4, r2
 8001b00:	4618      	mov	r0, r3
 8001b02:	4621      	mov	r1, r4
 8001b04:	68fb      	ldr	r3, [r7, #12]
 8001b06:	f04f 0400 	mov.w	r4, #0
 8001b0a:	461a      	mov	r2, r3
 8001b0c:	4623      	mov	r3, r4
 8001b0e:	f7fe fbd7 	bl	80002c0 <__aeabi_uldivmod>
 8001b12:	4603      	mov	r3, r0
 8001b14:	460c      	mov	r4, r1
 8001b16:	617b      	str	r3, [r7, #20]
      }
      pllr = ((RCC->PLLCFGR & RCC_PLLCFGR_PLLR) >> RCC_PLLCFGR_PLLR_Pos);
 8001b18:	4b09      	ldr	r3, [pc, #36]	; (8001b40 <HAL_RCC_GetSysClockFreq+0x334>)
 8001b1a:	685b      	ldr	r3, [r3, #4]
 8001b1c:	0f1b      	lsrs	r3, r3, #28
 8001b1e:	f003 0307 	and.w	r3, r3, #7
 8001b22:	607b      	str	r3, [r7, #4]

      sysclockfreq = pllvco/pllr;
 8001b24:	697a      	ldr	r2, [r7, #20]
 8001b26:	687b      	ldr	r3, [r7, #4]
 8001b28:	fbb2 f3f3 	udiv	r3, r2, r3
 8001b2c:	613b      	str	r3, [r7, #16]
      break;
 8001b2e:	e002      	b.n	8001b36 <HAL_RCC_GetSysClockFreq+0x32a>
    }
    default:
    {
      sysclockfreq = HSI_VALUE;
 8001b30:	4b04      	ldr	r3, [pc, #16]	; (8001b44 <HAL_RCC_GetSysClockFreq+0x338>)
 8001b32:	613b      	str	r3, [r7, #16]
      break;
 8001b34:	bf00      	nop
    }
  }
  return sysclockfreq;
 8001b36:	693b      	ldr	r3, [r7, #16]
}
 8001b38:	4618      	mov	r0, r3
 8001b3a:	371c      	adds	r7, #28
 8001b3c:	46bd      	mov	sp, r7
 8001b3e:	bdf0      	pop	{r4, r5, r6, r7, pc}
 8001b40:	40023800 	.word	0x40023800
 8001b44:	00f42400 	.word	0x00f42400
 8001b48:	007a1200 	.word	0x007a1200

08001b4c <HAL_RCC_OscConfig>:
  * @note   This function add the PLL/PLLR factor management during PLL configuration this feature
  *         is only available in STM32F410xx/STM32F446xx/STM32F469xx/STM32F479xx/STM32F412Zx/STM32F412Vx/STM32F412Rx/STM32F412Cx devices
  * @retval HAL status
  */
HAL_StatusTypeDef HAL_RCC_OscConfig(RCC_OscInitTypeDef  *RCC_OscInitStruct)
{
 8001b4c:	b580      	push	{r7, lr}
 8001b4e:	b086      	sub	sp, #24
 8001b50:	af00      	add	r7, sp, #0
 8001b52:	6078      	str	r0, [r7, #4]
  uint32_t tickstart = 0U;
 8001b54:	2300      	movs	r3, #0
 8001b56:	613b      	str	r3, [r7, #16]

  /* Check the parameters */
  assert_param(IS_RCC_OSCILLATORTYPE(RCC_OscInitStruct->OscillatorType));
  /*------------------------------- HSE Configuration ------------------------*/
  if(((RCC_OscInitStruct->OscillatorType) & RCC_OSCILLATORTYPE_HSE) == RCC_OSCILLATORTYPE_HSE)
 8001b58:	687b      	ldr	r3, [r7, #4]
 8001b5a:	681b      	ldr	r3, [r3, #0]
 8001b5c:	f003 0301 	and.w	r3, r3, #1
 8001b60:	2b00      	cmp	r3, #0
 8001b62:	f000 8083 	beq.w	8001c6c <HAL_RCC_OscConfig+0x120>
  {
    /* Check the parameters */
    assert_param(IS_RCC_HSE(RCC_OscInitStruct->HSEState));
    /* When the HSE is used as system clock or clock source for PLL in these cases HSE will not disabled */
#if defined(STM32F446xx)
    if((__HAL_RCC_GET_SYSCLK_SOURCE() == RCC_CFGR_SWS_HSE)                                                                     ||\
 8001b66:	4b95      	ldr	r3, [pc, #596]	; (8001dbc <HAL_RCC_OscConfig+0x270>)
 8001b68:	689b      	ldr	r3, [r3, #8]
 8001b6a:	f003 030c 	and.w	r3, r3, #12
 8001b6e:	2b04      	cmp	r3, #4
 8001b70:	d019      	beq.n	8001ba6 <HAL_RCC_OscConfig+0x5a>
      ((__HAL_RCC_GET_SYSCLK_SOURCE() == RCC_CFGR_SWS_PLL) && ((RCC->PLLCFGR & RCC_PLLCFGR_PLLSRC) == RCC_PLLCFGR_PLLSRC_HSE)) ||\
 8001b72:	4b92      	ldr	r3, [pc, #584]	; (8001dbc <HAL_RCC_OscConfig+0x270>)
 8001b74:	689b      	ldr	r3, [r3, #8]
 8001b76:	f003 030c 	and.w	r3, r3, #12
    if((__HAL_RCC_GET_SYSCLK_SOURCE() == RCC_CFGR_SWS_HSE)                                                                     ||\
 8001b7a:	2b08      	cmp	r3, #8
 8001b7c:	d106      	bne.n	8001b8c <HAL_RCC_OscConfig+0x40>
      ((__HAL_RCC_GET_SYSCLK_SOURCE() == RCC_CFGR_SWS_PLL) && ((RCC->PLLCFGR & RCC_PLLCFGR_PLLSRC) == RCC_PLLCFGR_PLLSRC_HSE)) ||\
 8001b7e:	4b8f      	ldr	r3, [pc, #572]	; (8001dbc <HAL_RCC_OscConfig+0x270>)
 8001b80:	685b      	ldr	r3, [r3, #4]
 8001b82:	f403 0380 	and.w	r3, r3, #4194304	; 0x400000
 8001b86:	f5b3 0f80 	cmp.w	r3, #4194304	; 0x400000
 8001b8a:	d00c      	beq.n	8001ba6 <HAL_RCC_OscConfig+0x5a>
      ((__HAL_RCC_GET_SYSCLK_SOURCE() == RCC_CFGR_SWS_PLLR) && ((RCC->PLLCFGR & RCC_PLLCFGR_PLLSRC) == RCC_PLLCFGR_PLLSRC_HSE)))
 8001b8c:	4b8b      	ldr	r3, [pc, #556]	; (8001dbc <HAL_RCC_OscConfig+0x270>)
 8001b8e:	689b      	ldr	r3, [r3, #8]
 8001b90:	f003 030c 	and.w	r3, r3, #12
      ((__HAL_RCC_GET_SYSCLK_SOURCE() == RCC_CFGR_SWS_PLL) && ((RCC->PLLCFGR & RCC_PLLCFGR_PLLSRC) == RCC_PLLCFGR_PLLSRC_HSE)) ||\
 8001b94:	2b0c      	cmp	r3, #12
 8001b96:	d112      	bne.n	8001bbe <HAL_RCC_OscConfig+0x72>
      ((__HAL_RCC_GET_SYSCLK_SOURCE() == RCC_CFGR_SWS_PLLR) && ((RCC->PLLCFGR & RCC_PLLCFGR_PLLSRC) == RCC_PLLCFGR_PLLSRC_HSE)))
 8001b98:	4b88      	ldr	r3, [pc, #544]	; (8001dbc <HAL_RCC_OscConfig+0x270>)
 8001b9a:	685b      	ldr	r3, [r3, #4]
 8001b9c:	f403 0380 	and.w	r3, r3, #4194304	; 0x400000
 8001ba0:	f5b3 0f80 	cmp.w	r3, #4194304	; 0x400000
 8001ba4:	d10b      	bne.n	8001bbe <HAL_RCC_OscConfig+0x72>
#else
    if((__HAL_RCC_GET_SYSCLK_SOURCE() == RCC_CFGR_SWS_HSE)                                                                     ||\
      ((__HAL_RCC_GET_SYSCLK_SOURCE() == RCC_CFGR_SWS_PLL) && ((RCC->PLLCFGR & RCC_PLLCFGR_PLLSRC) == RCC_PLLCFGR_PLLSRC_HSE)))
#endif /* STM32F446xx */
    {
      if((__HAL_RCC_GET_FLAG(RCC_FLAG_HSERDY) != RESET) && (RCC_OscInitStruct->HSEState == RCC_HSE_OFF))
 8001ba6:	4b85      	ldr	r3, [pc, #532]	; (8001dbc <HAL_RCC_OscConfig+0x270>)
 8001ba8:	681b      	ldr	r3, [r3, #0]
 8001baa:	f403 3300 	and.w	r3, r3, #131072	; 0x20000
 8001bae:	2b00      	cmp	r3, #0
 8001bb0:	d05b      	beq.n	8001c6a <HAL_RCC_OscConfig+0x11e>
 8001bb2:	687b      	ldr	r3, [r7, #4]
 8001bb4:	685b      	ldr	r3, [r3, #4]
 8001bb6:	2b00      	cmp	r3, #0
 8001bb8:	d157      	bne.n	8001c6a <HAL_RCC_OscConfig+0x11e>
      {
        return HAL_ERROR;
 8001bba:	2301      	movs	r3, #1
 8001bbc:	e216      	b.n	8001fec <HAL_RCC_OscConfig+0x4a0>
      }
    }
    else
    {
      /* Set the new HSE configuration ---------------------------------------*/
      __HAL_RCC_HSE_CONFIG(RCC_OscInitStruct->HSEState);
 8001bbe:	687b      	ldr	r3, [r7, #4]
 8001bc0:	685b      	ldr	r3, [r3, #4]
 8001bc2:	f5b3 3f80 	cmp.w	r3, #65536	; 0x10000
 8001bc6:	d106      	bne.n	8001bd6 <HAL_RCC_OscConfig+0x8a>
 8001bc8:	4b7c      	ldr	r3, [pc, #496]	; (8001dbc <HAL_RCC_OscConfig+0x270>)
 8001bca:	681b      	ldr	r3, [r3, #0]
 8001bcc:	4a7b      	ldr	r2, [pc, #492]	; (8001dbc <HAL_RCC_OscConfig+0x270>)
 8001bce:	f443 3380 	orr.w	r3, r3, #65536	; 0x10000
 8001bd2:	6013      	str	r3, [r2, #0]
 8001bd4:	e01d      	b.n	8001c12 <HAL_RCC_OscConfig+0xc6>
 8001bd6:	687b      	ldr	r3, [r7, #4]
 8001bd8:	685b      	ldr	r3, [r3, #4]
 8001bda:	f5b3 2fa0 	cmp.w	r3, #327680	; 0x50000
 8001bde:	d10c      	bne.n	8001bfa <HAL_RCC_OscConfig+0xae>
 8001be0:	4b76      	ldr	r3, [pc, #472]	; (8001dbc <HAL_RCC_OscConfig+0x270>)
 8001be2:	681b      	ldr	r3, [r3, #0]
 8001be4:	4a75      	ldr	r2, [pc, #468]	; (8001dbc <HAL_RCC_OscConfig+0x270>)
 8001be6:	f443 2380 	orr.w	r3, r3, #262144	; 0x40000
 8001bea:	6013      	str	r3, [r2, #0]
 8001bec:	4b73      	ldr	r3, [pc, #460]	; (8001dbc <HAL_RCC_OscConfig+0x270>)
 8001bee:	681b      	ldr	r3, [r3, #0]
 8001bf0:	4a72      	ldr	r2, [pc, #456]	; (8001dbc <HAL_RCC_OscConfig+0x270>)
 8001bf2:	f443 3380 	orr.w	r3, r3, #65536	; 0x10000
 8001bf6:	6013      	str	r3, [r2, #0]
 8001bf8:	e00b      	b.n	8001c12 <HAL_RCC_OscConfig+0xc6>
 8001bfa:	4b70      	ldr	r3, [pc, #448]	; (8001dbc <HAL_RCC_OscConfig+0x270>)
 8001bfc:	681b      	ldr	r3, [r3, #0]
 8001bfe:	4a6f      	ldr	r2, [pc, #444]	; (8001dbc <HAL_RCC_OscConfig+0x270>)
 8001c00:	f423 3380 	bic.w	r3, r3, #65536	; 0x10000
 8001c04:	6013      	str	r3, [r2, #0]
 8001c06:	4b6d      	ldr	r3, [pc, #436]	; (8001dbc <HAL_RCC_OscConfig+0x270>)
 8001c08:	681b      	ldr	r3, [r3, #0]
 8001c0a:	4a6c      	ldr	r2, [pc, #432]	; (8001dbc <HAL_RCC_OscConfig+0x270>)
 8001c0c:	f423 2380 	bic.w	r3, r3, #262144	; 0x40000
 8001c10:	6013      	str	r3, [r2, #0]

      /* Check the HSE State */
      if((RCC_OscInitStruct->HSEState) != RCC_HSE_OFF)
 8001c12:	687b      	ldr	r3, [r7, #4]
 8001c14:	685b      	ldr	r3, [r3, #4]
 8001c16:	2b00      	cmp	r3, #0
 8001c18:	d013      	beq.n	8001c42 <HAL_RCC_OscConfig+0xf6>
      {
        /* Get Start Tick*/
        tickstart = HAL_GetTick();
 8001c1a:	f7ff fa1d 	bl	8001058 <HAL_GetTick>
 8001c1e:	6138      	str	r0, [r7, #16]

        /* Wait till HSE is ready */
        while(__HAL_RCC_GET_FLAG(RCC_FLAG_HSERDY) == RESET)
 8001c20:	e008      	b.n	8001c34 <HAL_RCC_OscConfig+0xe8>
        {
          if((HAL_GetTick() - tickstart ) > HSE_TIMEOUT_VALUE)
 8001c22:	f7ff fa19 	bl	8001058 <HAL_GetTick>
 8001c26:	4602      	mov	r2, r0
 8001c28:	693b      	ldr	r3, [r7, #16]
 8001c2a:	1ad3      	subs	r3, r2, r3
 8001c2c:	2b64      	cmp	r3, #100	; 0x64
 8001c2e:	d901      	bls.n	8001c34 <HAL_RCC_OscConfig+0xe8>
          {
            return HAL_TIMEOUT;
 8001c30:	2303      	movs	r3, #3
 8001c32:	e1db      	b.n	8001fec <HAL_RCC_OscConfig+0x4a0>
        while(__HAL_RCC_GET_FLAG(RCC_FLAG_HSERDY) == RESET)
 8001c34:	4b61      	ldr	r3, [pc, #388]	; (8001dbc <HAL_RCC_OscConfig+0x270>)
 8001c36:	681b      	ldr	r3, [r3, #0]
 8001c38:	f403 3300 	and.w	r3, r3, #131072	; 0x20000
 8001c3c:	2b00      	cmp	r3, #0
 8001c3e:	d0f0      	beq.n	8001c22 <HAL_RCC_OscConfig+0xd6>
 8001c40:	e014      	b.n	8001c6c <HAL_RCC_OscConfig+0x120>
        }
      }
      else
      {
        /* Get Start Tick*/
        tickstart = HAL_GetTick();
 8001c42:	f7ff fa09 	bl	8001058 <HAL_GetTick>
 8001c46:	6138      	str	r0, [r7, #16]

        /* Wait till HSE is bypassed or disabled */
        while(__HAL_RCC_GET_FLAG(RCC_FLAG_HSERDY) != RESET)
 8001c48:	e008      	b.n	8001c5c <HAL_RCC_OscConfig+0x110>
        {
          if((HAL_GetTick() - tickstart ) > HSE_TIMEOUT_VALUE)
 8001c4a:	f7ff fa05 	bl	8001058 <HAL_GetTick>
 8001c4e:	4602      	mov	r2, r0
 8001c50:	693b      	ldr	r3, [r7, #16]
 8001c52:	1ad3      	subs	r3, r2, r3
 8001c54:	2b64      	cmp	r3, #100	; 0x64
 8001c56:	d901      	bls.n	8001c5c <HAL_RCC_OscConfig+0x110>
          {
            return HAL_TIMEOUT;
 8001c58:	2303      	movs	r3, #3
 8001c5a:	e1c7      	b.n	8001fec <HAL_RCC_OscConfig+0x4a0>
        while(__HAL_RCC_GET_FLAG(RCC_FLAG_HSERDY) != RESET)
 8001c5c:	4b57      	ldr	r3, [pc, #348]	; (8001dbc <HAL_RCC_OscConfig+0x270>)
 8001c5e:	681b      	ldr	r3, [r3, #0]
 8001c60:	f403 3300 	and.w	r3, r3, #131072	; 0x20000
 8001c64:	2b00      	cmp	r3, #0
 8001c66:	d1f0      	bne.n	8001c4a <HAL_RCC_OscConfig+0xfe>
 8001c68:	e000      	b.n	8001c6c <HAL_RCC_OscConfig+0x120>
      if((__HAL_RCC_GET_FLAG(RCC_FLAG_HSERDY) != RESET) && (RCC_OscInitStruct->HSEState == RCC_HSE_OFF))
 8001c6a:	bf00      	nop
        }
      }
    }
  }
  /*----------------------------- HSI Configuration --------------------------*/
  if(((RCC_OscInitStruct->OscillatorType) & RCC_OSCILLATORTYPE_HSI) == RCC_OSCILLATORTYPE_HSI)
 8001c6c:	687b      	ldr	r3, [r7, #4]
 8001c6e:	681b      	ldr	r3, [r3, #0]
 8001c70:	f003 0302 	and.w	r3, r3, #2
 8001c74:	2b00      	cmp	r3, #0
 8001c76:	d06f      	beq.n	8001d58 <HAL_RCC_OscConfig+0x20c>
    assert_param(IS_RCC_HSI(RCC_OscInitStruct->HSIState));
    assert_param(IS_RCC_CALIBRATION_VALUE(RCC_OscInitStruct->HSICalibrationValue));

    /* Check if HSI is used as system clock or as PLL source when PLL is selected as system clock */
#if defined(STM32F446xx)
    if((__HAL_RCC_GET_SYSCLK_SOURCE() == RCC_CFGR_SWS_HSI)                                                                     ||\
 8001c78:	4b50      	ldr	r3, [pc, #320]	; (8001dbc <HAL_RCC_OscConfig+0x270>)
 8001c7a:	689b      	ldr	r3, [r3, #8]
 8001c7c:	f003 030c 	and.w	r3, r3, #12
 8001c80:	2b00      	cmp	r3, #0
 8001c82:	d017      	beq.n	8001cb4 <HAL_RCC_OscConfig+0x168>
      ((__HAL_RCC_GET_SYSCLK_SOURCE() == RCC_CFGR_SWS_PLL) && ((RCC->PLLCFGR & RCC_PLLCFGR_PLLSRC) == RCC_PLLCFGR_PLLSRC_HSI)) ||\
 8001c84:	4b4d      	ldr	r3, [pc, #308]	; (8001dbc <HAL_RCC_OscConfig+0x270>)
 8001c86:	689b      	ldr	r3, [r3, #8]
 8001c88:	f003 030c 	and.w	r3, r3, #12
    if((__HAL_RCC_GET_SYSCLK_SOURCE() == RCC_CFGR_SWS_HSI)                                                                     ||\
 8001c8c:	2b08      	cmp	r3, #8
 8001c8e:	d105      	bne.n	8001c9c <HAL_RCC_OscConfig+0x150>
      ((__HAL_RCC_GET_SYSCLK_SOURCE() == RCC_CFGR_SWS_PLL) && ((RCC->PLLCFGR & RCC_PLLCFGR_PLLSRC) == RCC_PLLCFGR_PLLSRC_HSI)) ||\
 8001c90:	4b4a      	ldr	r3, [pc, #296]	; (8001dbc <HAL_RCC_OscConfig+0x270>)
 8001c92:	685b      	ldr	r3, [r3, #4]
 8001c94:	f403 0380 	and.w	r3, r3, #4194304	; 0x400000
 8001c98:	2b00      	cmp	r3, #0
 8001c9a:	d00b      	beq.n	8001cb4 <HAL_RCC_OscConfig+0x168>
      ((__HAL_RCC_GET_SYSCLK_SOURCE() == RCC_CFGR_SWS_PLLR) && ((RCC->PLLCFGR & RCC_PLLCFGR_PLLSRC) == RCC_PLLCFGR_PLLSRC_HSI)))
 8001c9c:	4b47      	ldr	r3, [pc, #284]	; (8001dbc <HAL_RCC_OscConfig+0x270>)
 8001c9e:	689b      	ldr	r3, [r3, #8]
 8001ca0:	f003 030c 	and.w	r3, r3, #12
      ((__HAL_RCC_GET_SYSCLK_SOURCE() == RCC_CFGR_SWS_PLL) && ((RCC->PLLCFGR & RCC_PLLCFGR_PLLSRC) == RCC_PLLCFGR_PLLSRC_HSI)) ||\
 8001ca4:	2b0c      	cmp	r3, #12
 8001ca6:	d11c      	bne.n	8001ce2 <HAL_RCC_OscConfig+0x196>
      ((__HAL_RCC_GET_SYSCLK_SOURCE() == RCC_CFGR_SWS_PLLR) && ((RCC->PLLCFGR & RCC_PLLCFGR_PLLSRC) == RCC_PLLCFGR_PLLSRC_HSI)))
 8001ca8:	4b44      	ldr	r3, [pc, #272]	; (8001dbc <HAL_RCC_OscConfig+0x270>)
 8001caa:	685b      	ldr	r3, [r3, #4]
 8001cac:	f403 0380 	and.w	r3, r3, #4194304	; 0x400000
 8001cb0:	2b00      	cmp	r3, #0
 8001cb2:	d116      	bne.n	8001ce2 <HAL_RCC_OscConfig+0x196>
    if((__HAL_RCC_GET_SYSCLK_SOURCE() == RCC_CFGR_SWS_HSI)                                                                     ||\
      ((__HAL_RCC_GET_SYSCLK_SOURCE() == RCC_CFGR_SWS_PLL) && ((RCC->PLLCFGR & RCC_PLLCFGR_PLLSRC) == RCC_PLLCFGR_PLLSRC_HSI)))
#endif /* STM32F446xx */
    {
      /* When HSI is used as system clock it will not disabled */
      if((__HAL_RCC_GET_FLAG(RCC_FLAG_HSIRDY) != RESET) && (RCC_OscInitStruct->HSIState != RCC_HSI_ON))
 8001cb4:	4b41      	ldr	r3, [pc, #260]	; (8001dbc <HAL_RCC_OscConfig+0x270>)
 8001cb6:	681b      	ldr	r3, [r3, #0]
 8001cb8:	f003 0302 	and.w	r3, r3, #2
 8001cbc:	2b00      	cmp	r3, #0
 8001cbe:	d005      	beq.n	8001ccc <HAL_RCC_OscConfig+0x180>
 8001cc0:	687b      	ldr	r3, [r7, #4]
 8001cc2:	68db      	ldr	r3, [r3, #12]
 8001cc4:	2b01      	cmp	r3, #1
 8001cc6:	d001      	beq.n	8001ccc <HAL_RCC_OscConfig+0x180>
      {
        return HAL_ERROR;
 8001cc8:	2301      	movs	r3, #1
 8001cca:	e18f      	b.n	8001fec <HAL_RCC_OscConfig+0x4a0>
      }
      /* Otherwise, just the calibration is allowed */
      else
      {
        /* Adjusts the Internal High Speed oscillator (HSI) calibration value.*/
        __HAL_RCC_HSI_CALIBRATIONVALUE_ADJUST(RCC_OscInitStruct->HSICalibrationValue);
 8001ccc:	4b3b      	ldr	r3, [pc, #236]	; (8001dbc <HAL_RCC_OscConfig+0x270>)
 8001cce:	681b      	ldr	r3, [r3, #0]
 8001cd0:	f023 02f8 	bic.w	r2, r3, #248	; 0xf8
 8001cd4:	687b      	ldr	r3, [r7, #4]
 8001cd6:	691b      	ldr	r3, [r3, #16]
 8001cd8:	00db      	lsls	r3, r3, #3
 8001cda:	4938      	ldr	r1, [pc, #224]	; (8001dbc <HAL_RCC_OscConfig+0x270>)
 8001cdc:	4313      	orrs	r3, r2
 8001cde:	600b      	str	r3, [r1, #0]
      if((__HAL_RCC_GET_FLAG(RCC_FLAG_HSIRDY) != RESET) && (RCC_OscInitStruct->HSIState != RCC_HSI_ON))
 8001ce0:	e03a      	b.n	8001d58 <HAL_RCC_OscConfig+0x20c>
      }
    }
    else
    {
      /* Check the HSI State */
      if((RCC_OscInitStruct->HSIState)!= RCC_HSI_OFF)
 8001ce2:	687b      	ldr	r3, [r7, #4]
 8001ce4:	68db      	ldr	r3, [r3, #12]
 8001ce6:	2b00      	cmp	r3, #0
 8001ce8:	d020      	beq.n	8001d2c <HAL_RCC_OscConfig+0x1e0>
      {
        /* Enable the Internal High Speed oscillator (HSI). */
        __HAL_RCC_HSI_ENABLE();
 8001cea:	4b35      	ldr	r3, [pc, #212]	; (8001dc0 <HAL_RCC_OscConfig+0x274>)
 8001cec:	2201      	movs	r2, #1
 8001cee:	601a      	str	r2, [r3, #0]

        /* Get Start Tick*/
        tickstart = HAL_GetTick();
 8001cf0:	f7ff f9b2 	bl	8001058 <HAL_GetTick>
 8001cf4:	6138      	str	r0, [r7, #16]

        /* Wait till HSI is ready */
        while(__HAL_RCC_GET_FLAG(RCC_FLAG_HSIRDY) == RESET)
 8001cf6:	e008      	b.n	8001d0a <HAL_RCC_OscConfig+0x1be>
        {
          if((HAL_GetTick() - tickstart ) > HSI_TIMEOUT_VALUE)
 8001cf8:	f7ff f9ae 	bl	8001058 <HAL_GetTick>
 8001cfc:	4602      	mov	r2, r0
 8001cfe:	693b      	ldr	r3, [r7, #16]
 8001d00:	1ad3      	subs	r3, r2, r3
 8001d02:	2b02      	cmp	r3, #2
 8001d04:	d901      	bls.n	8001d0a <HAL_RCC_OscConfig+0x1be>
          {
            return HAL_TIMEOUT;
 8001d06:	2303      	movs	r3, #3
 8001d08:	e170      	b.n	8001fec <HAL_RCC_OscConfig+0x4a0>
        while(__HAL_RCC_GET_FLAG(RCC_FLAG_HSIRDY) == RESET)
 8001d0a:	4b2c      	ldr	r3, [pc, #176]	; (8001dbc <HAL_RCC_OscConfig+0x270>)
 8001d0c:	681b      	ldr	r3, [r3, #0]
 8001d0e:	f003 0302 	and.w	r3, r3, #2
 8001d12:	2b00      	cmp	r3, #0
 8001d14:	d0f0      	beq.n	8001cf8 <HAL_RCC_OscConfig+0x1ac>
          }
        }

        /* Adjusts the Internal High Speed oscillator (HSI) calibration value.*/
        __HAL_RCC_HSI_CALIBRATIONVALUE_ADJUST(RCC_OscInitStruct->HSICalibrationValue);
 8001d16:	4b29      	ldr	r3, [pc, #164]	; (8001dbc <HAL_RCC_OscConfig+0x270>)
 8001d18:	681b      	ldr	r3, [r3, #0]
 8001d1a:	f023 02f8 	bic.w	r2, r3, #248	; 0xf8
 8001d1e:	687b      	ldr	r3, [r7, #4]
 8001d20:	691b      	ldr	r3, [r3, #16]
 8001d22:	00db      	lsls	r3, r3, #3
 8001d24:	4925      	ldr	r1, [pc, #148]	; (8001dbc <HAL_RCC_OscConfig+0x270>)
 8001d26:	4313      	orrs	r3, r2
 8001d28:	600b      	str	r3, [r1, #0]
 8001d2a:	e015      	b.n	8001d58 <HAL_RCC_OscConfig+0x20c>
      }
      else
      {
        /* Disable the Internal High Speed oscillator (HSI). */
        __HAL_RCC_HSI_DISABLE();
 8001d2c:	4b24      	ldr	r3, [pc, #144]	; (8001dc0 <HAL_RCC_OscConfig+0x274>)
 8001d2e:	2200      	movs	r2, #0
 8001d30:	601a      	str	r2, [r3, #0]

        /* Get Start Tick*/
        tickstart = HAL_GetTick();
 8001d32:	f7ff f991 	bl	8001058 <HAL_GetTick>
 8001d36:	6138      	str	r0, [r7, #16]

        /* Wait till HSI is ready */
        while(__HAL_RCC_GET_FLAG(RCC_FLAG_HSIRDY) != RESET)
 8001d38:	e008      	b.n	8001d4c <HAL_RCC_OscConfig+0x200>
        {
          if((HAL_GetTick() - tickstart ) > HSI_TIMEOUT_VALUE)
 8001d3a:	f7ff f98d 	bl	8001058 <HAL_GetTick>
 8001d3e:	4602      	mov	r2, r0
 8001d40:	693b      	ldr	r3, [r7, #16]
 8001d42:	1ad3      	subs	r3, r2, r3
 8001d44:	2b02      	cmp	r3, #2
 8001d46:	d901      	bls.n	8001d4c <HAL_RCC_OscConfig+0x200>
          {
            return HAL_TIMEOUT;
 8001d48:	2303      	movs	r3, #3
 8001d4a:	e14f      	b.n	8001fec <HAL_RCC_OscConfig+0x4a0>
        while(__HAL_RCC_GET_FLAG(RCC_FLAG_HSIRDY) != RESET)
 8001d4c:	4b1b      	ldr	r3, [pc, #108]	; (8001dbc <HAL_RCC_OscConfig+0x270>)
 8001d4e:	681b      	ldr	r3, [r3, #0]
 8001d50:	f003 0302 	and.w	r3, r3, #2
 8001d54:	2b00      	cmp	r3, #0
 8001d56:	d1f0      	bne.n	8001d3a <HAL_RCC_OscConfig+0x1ee>
        }
      }
    }
  }
  /*------------------------------ LSI Configuration -------------------------*/
  if(((RCC_OscInitStruct->OscillatorType) & RCC_OSCILLATORTYPE_LSI) == RCC_OSCILLATORTYPE_LSI)
 8001d58:	687b      	ldr	r3, [r7, #4]
 8001d5a:	681b      	ldr	r3, [r3, #0]
 8001d5c:	f003 0308 	and.w	r3, r3, #8
 8001d60:	2b00      	cmp	r3, #0
 8001d62:	d037      	beq.n	8001dd4 <HAL_RCC_OscConfig+0x288>
  {
    /* Check the parameters */
    assert_param(IS_RCC_LSI(RCC_OscInitStruct->LSIState));

    /* Check the LSI State */
    if((RCC_OscInitStruct->LSIState)!= RCC_LSI_OFF)
 8001d64:	687b      	ldr	r3, [r7, #4]
 8001d66:	695b      	ldr	r3, [r3, #20]
 8001d68:	2b00      	cmp	r3, #0
 8001d6a:	d016      	beq.n	8001d9a <HAL_RCC_OscConfig+0x24e>
    {
      /* Enable the Internal Low Speed oscillator (LSI). */
      __HAL_RCC_LSI_ENABLE();
 8001d6c:	4b15      	ldr	r3, [pc, #84]	; (8001dc4 <HAL_RCC_OscConfig+0x278>)
 8001d6e:	2201      	movs	r2, #1
 8001d70:	601a      	str	r2, [r3, #0]

      /* Get Start Tick*/
      tickstart = HAL_GetTick();
 8001d72:	f7ff f971 	bl	8001058 <HAL_GetTick>
 8001d76:	6138      	str	r0, [r7, #16]

      /* Wait till LSI is ready */
      while(__HAL_RCC_GET_FLAG(RCC_FLAG_LSIRDY) == RESET)
 8001d78:	e008      	b.n	8001d8c <HAL_RCC_OscConfig+0x240>
      {
        if((HAL_GetTick() - tickstart ) > LSI_TIMEOUT_VALUE)
 8001d7a:	f7ff f96d 	bl	8001058 <HAL_GetTick>
 8001d7e:	4602      	mov	r2, r0
 8001d80:	693b      	ldr	r3, [r7, #16]
 8001d82:	1ad3      	subs	r3, r2, r3
 8001d84:	2b02      	cmp	r3, #2
 8001d86:	d901      	bls.n	8001d8c <HAL_RCC_OscConfig+0x240>
        {
          return HAL_TIMEOUT;
 8001d88:	2303      	movs	r3, #3
 8001d8a:	e12f      	b.n	8001fec <HAL_RCC_OscConfig+0x4a0>
      while(__HAL_RCC_GET_FLAG(RCC_FLAG_LSIRDY) == RESET)
 8001d8c:	4b0b      	ldr	r3, [pc, #44]	; (8001dbc <HAL_RCC_OscConfig+0x270>)
 8001d8e:	6f5b      	ldr	r3, [r3, #116]	; 0x74
 8001d90:	f003 0302 	and.w	r3, r3, #2
 8001d94:	2b00      	cmp	r3, #0
 8001d96:	d0f0      	beq.n	8001d7a <HAL_RCC_OscConfig+0x22e>
 8001d98:	e01c      	b.n	8001dd4 <HAL_RCC_OscConfig+0x288>
      }
    }
    else
    {
      /* Disable the Internal Low Speed oscillator (LSI). */
      __HAL_RCC_LSI_DISABLE();
 8001d9a:	4b0a      	ldr	r3, [pc, #40]	; (8001dc4 <HAL_RCC_OscConfig+0x278>)
 8001d9c:	2200      	movs	r2, #0
 8001d9e:	601a      	str	r2, [r3, #0]

      /* Get Start Tick*/
      tickstart = HAL_GetTick();
 8001da0:	f7ff f95a 	bl	8001058 <HAL_GetTick>
 8001da4:	6138      	str	r0, [r7, #16]

      /* Wait till LSI is ready */
      while(__HAL_RCC_GET_FLAG(RCC_FLAG_LSIRDY) != RESET)
 8001da6:	e00f      	b.n	8001dc8 <HAL_RCC_OscConfig+0x27c>
      {
        if((HAL_GetTick() - tickstart ) > LSI_TIMEOUT_VALUE)
 8001da8:	f7ff f956 	bl	8001058 <HAL_GetTick>
 8001dac:	4602      	mov	r2, r0
 8001dae:	693b      	ldr	r3, [r7, #16]
 8001db0:	1ad3      	subs	r3, r2, r3
 8001db2:	2b02      	cmp	r3, #2
 8001db4:	d908      	bls.n	8001dc8 <HAL_RCC_OscConfig+0x27c>
        {
          return HAL_TIMEOUT;
 8001db6:	2303      	movs	r3, #3
 8001db8:	e118      	b.n	8001fec <HAL_RCC_OscConfig+0x4a0>
 8001dba:	bf00      	nop
 8001dbc:	40023800 	.word	0x40023800
 8001dc0:	42470000 	.word	0x42470000
 8001dc4:	42470e80 	.word	0x42470e80
      while(__HAL_RCC_GET_FLAG(RCC_FLAG_LSIRDY) != RESET)
 8001dc8:	4b8a      	ldr	r3, [pc, #552]	; (8001ff4 <HAL_RCC_OscConfig+0x4a8>)
 8001dca:	6f5b      	ldr	r3, [r3, #116]	; 0x74
 8001dcc:	f003 0302 	and.w	r3, r3, #2
 8001dd0:	2b00      	cmp	r3, #0
 8001dd2:	d1e9      	bne.n	8001da8 <HAL_RCC_OscConfig+0x25c>
        }
      }
    }
  }
  /*------------------------------ LSE Configuration -------------------------*/
  if(((RCC_OscInitStruct->OscillatorType) & RCC_OSCILLATORTYPE_LSE) == RCC_OSCILLATORTYPE_LSE)
 8001dd4:	687b      	ldr	r3, [r7, #4]
 8001dd6:	681b      	ldr	r3, [r3, #0]
 8001dd8:	f003 0304 	and.w	r3, r3, #4
 8001ddc:	2b00      	cmp	r3, #0
 8001dde:	f000 8097 	beq.w	8001f10 <HAL_RCC_OscConfig+0x3c4>
  {
    FlagStatus       pwrclkchanged = RESET;
 8001de2:	2300      	movs	r3, #0
 8001de4:	75fb      	strb	r3, [r7, #23]
    /* Check the parameters */
    assert_param(IS_RCC_LSE(RCC_OscInitStruct->LSEState));

    /* Update LSE configuration in Backup Domain control register    */
    /* Requires to enable write access to Backup Domain of necessary */
    if(__HAL_RCC_PWR_IS_CLK_DISABLED())
 8001de6:	4b83      	ldr	r3, [pc, #524]	; (8001ff4 <HAL_RCC_OscConfig+0x4a8>)
 8001de8:	6c1b      	ldr	r3, [r3, #64]	; 0x40
 8001dea:	f003 5380 	and.w	r3, r3, #268435456	; 0x10000000
 8001dee:	2b00      	cmp	r3, #0
 8001df0:	d10f      	bne.n	8001e12 <HAL_RCC_OscConfig+0x2c6>
    {
      __HAL_RCC_PWR_CLK_ENABLE();
 8001df2:	2300      	movs	r3, #0
 8001df4:	60fb      	str	r3, [r7, #12]
 8001df6:	4b7f      	ldr	r3, [pc, #508]	; (8001ff4 <HAL_RCC_OscConfig+0x4a8>)
 8001df8:	6c1b      	ldr	r3, [r3, #64]	; 0x40
 8001dfa:	4a7e      	ldr	r2, [pc, #504]	; (8001ff4 <HAL_RCC_OscConfig+0x4a8>)
 8001dfc:	f043 5380 	orr.w	r3, r3, #268435456	; 0x10000000
 8001e00:	6413      	str	r3, [r2, #64]	; 0x40
 8001e02:	4b7c      	ldr	r3, [pc, #496]	; (8001ff4 <HAL_RCC_OscConfig+0x4a8>)
 8001e04:	6c1b      	ldr	r3, [r3, #64]	; 0x40
 8001e06:	f003 5380 	and.w	r3, r3, #268435456	; 0x10000000
 8001e0a:	60fb      	str	r3, [r7, #12]
 8001e0c:	68fb      	ldr	r3, [r7, #12]
      pwrclkchanged = SET;
 8001e0e:	2301      	movs	r3, #1
 8001e10:	75fb      	strb	r3, [r7, #23]
    }

    if(HAL_IS_BIT_CLR(PWR->CR, PWR_CR_DBP))
 8001e12:	4b79      	ldr	r3, [pc, #484]	; (8001ff8 <HAL_RCC_OscConfig+0x4ac>)
 8001e14:	681b      	ldr	r3, [r3, #0]
 8001e16:	f403 7380 	and.w	r3, r3, #256	; 0x100
 8001e1a:	2b00      	cmp	r3, #0
 8001e1c:	d118      	bne.n	8001e50 <HAL_RCC_OscConfig+0x304>
    {
      /* Enable write access to Backup domain */
      SET_BIT(PWR->CR, PWR_CR_DBP);
 8001e1e:	4b76      	ldr	r3, [pc, #472]	; (8001ff8 <HAL_RCC_OscConfig+0x4ac>)
 8001e20:	681b      	ldr	r3, [r3, #0]
 8001e22:	4a75      	ldr	r2, [pc, #468]	; (8001ff8 <HAL_RCC_OscConfig+0x4ac>)
 8001e24:	f443 7380 	orr.w	r3, r3, #256	; 0x100
 8001e28:	6013      	str	r3, [r2, #0]

      /* Wait for Backup domain Write protection disable */
      tickstart = HAL_GetTick();
 8001e2a:	f7ff f915 	bl	8001058 <HAL_GetTick>
 8001e2e:	6138      	str	r0, [r7, #16]

      while(HAL_IS_BIT_CLR(PWR->CR, PWR_CR_DBP))
 8001e30:	e008      	b.n	8001e44 <HAL_RCC_OscConfig+0x2f8>
      {
        if((HAL_GetTick() - tickstart) > RCC_DBP_TIMEOUT_VALUE)
 8001e32:	f7ff f911 	bl	8001058 <HAL_GetTick>
 8001e36:	4602      	mov	r2, r0
 8001e38:	693b      	ldr	r3, [r7, #16]
 8001e3a:	1ad3      	subs	r3, r2, r3
 8001e3c:	2b02      	cmp	r3, #2
 8001e3e:	d901      	bls.n	8001e44 <HAL_RCC_OscConfig+0x2f8>
        {
          return HAL_TIMEOUT;
 8001e40:	2303      	movs	r3, #3
 8001e42:	e0d3      	b.n	8001fec <HAL_RCC_OscConfig+0x4a0>
      while(HAL_IS_BIT_CLR(PWR->CR, PWR_CR_DBP))
 8001e44:	4b6c      	ldr	r3, [pc, #432]	; (8001ff8 <HAL_RCC_OscConfig+0x4ac>)
 8001e46:	681b      	ldr	r3, [r3, #0]
 8001e48:	f403 7380 	and.w	r3, r3, #256	; 0x100
 8001e4c:	2b00      	cmp	r3, #0
 8001e4e:	d0f0      	beq.n	8001e32 <HAL_RCC_OscConfig+0x2e6>
        }
      }
    }

    /* Set the new LSE configuration -----------------------------------------*/
    __HAL_RCC_LSE_CONFIG(RCC_OscInitStruct->LSEState);
 8001e50:	687b      	ldr	r3, [r7, #4]
 8001e52:	689b      	ldr	r3, [r3, #8]
 8001e54:	2b01      	cmp	r3, #1
 8001e56:	d106      	bne.n	8001e66 <HAL_RCC_OscConfig+0x31a>
 8001e58:	4b66      	ldr	r3, [pc, #408]	; (8001ff4 <HAL_RCC_OscConfig+0x4a8>)
 8001e5a:	6f1b      	ldr	r3, [r3, #112]	; 0x70
 8001e5c:	4a65      	ldr	r2, [pc, #404]	; (8001ff4 <HAL_RCC_OscConfig+0x4a8>)
 8001e5e:	f043 0301 	orr.w	r3, r3, #1
 8001e62:	6713      	str	r3, [r2, #112]	; 0x70
 8001e64:	e01c      	b.n	8001ea0 <HAL_RCC_OscConfig+0x354>
 8001e66:	687b      	ldr	r3, [r7, #4]
 8001e68:	689b      	ldr	r3, [r3, #8]
 8001e6a:	2b05      	cmp	r3, #5
 8001e6c:	d10c      	bne.n	8001e88 <HAL_RCC_OscConfig+0x33c>
 8001e6e:	4b61      	ldr	r3, [pc, #388]	; (8001ff4 <HAL_RCC_OscConfig+0x4a8>)
 8001e70:	6f1b      	ldr	r3, [r3, #112]	; 0x70
 8001e72:	4a60      	ldr	r2, [pc, #384]	; (8001ff4 <HAL_RCC_OscConfig+0x4a8>)
 8001e74:	f043 0304 	orr.w	r3, r3, #4
 8001e78:	6713      	str	r3, [r2, #112]	; 0x70
 8001e7a:	4b5e      	ldr	r3, [pc, #376]	; (8001ff4 <HAL_RCC_OscConfig+0x4a8>)
 8001e7c:	6f1b      	ldr	r3, [r3, #112]	; 0x70
 8001e7e:	4a5d      	ldr	r2, [pc, #372]	; (8001ff4 <HAL_RCC_OscConfig+0x4a8>)
 8001e80:	f043 0301 	orr.w	r3, r3, #1
 8001e84:	6713      	str	r3, [r2, #112]	; 0x70
 8001e86:	e00b      	b.n	8001ea0 <HAL_RCC_OscConfig+0x354>
 8001e88:	4b5a      	ldr	r3, [pc, #360]	; (8001ff4 <HAL_RCC_OscConfig+0x4a8>)
 8001e8a:	6f1b      	ldr	r3, [r3, #112]	; 0x70
 8001e8c:	4a59      	ldr	r2, [pc, #356]	; (8001ff4 <HAL_RCC_OscConfig+0x4a8>)
 8001e8e:	f023 0301 	bic.w	r3, r3, #1
 8001e92:	6713      	str	r3, [r2, #112]	; 0x70
 8001e94:	4b57      	ldr	r3, [pc, #348]	; (8001ff4 <HAL_RCC_OscConfig+0x4a8>)
 8001e96:	6f1b      	ldr	r3, [r3, #112]	; 0x70
 8001e98:	4a56      	ldr	r2, [pc, #344]	; (8001ff4 <HAL_RCC_OscConfig+0x4a8>)
 8001e9a:	f023 0304 	bic.w	r3, r3, #4
 8001e9e:	6713      	str	r3, [r2, #112]	; 0x70
    /* Check the LSE State */
    if((RCC_OscInitStruct->LSEState) != RCC_LSE_OFF)
 8001ea0:	687b      	ldr	r3, [r7, #4]
 8001ea2:	689b      	ldr	r3, [r3, #8]
 8001ea4:	2b00      	cmp	r3, #0
 8001ea6:	d015      	beq.n	8001ed4 <HAL_RCC_OscConfig+0x388>
    {
      /* Get Start Tick*/
      tickstart = HAL_GetTick();
 8001ea8:	f7ff f8d6 	bl	8001058 <HAL_GetTick>
 8001eac:	6138      	str	r0, [r7, #16]

      /* Wait till LSE is ready */
      while(__HAL_RCC_GET_FLAG(RCC_FLAG_LSERDY) == RESET)
 8001eae:	e00a      	b.n	8001ec6 <HAL_RCC_OscConfig+0x37a>
      {
        if((HAL_GetTick() - tickstart ) > RCC_LSE_TIMEOUT_VALUE)
 8001eb0:	f7ff f8d2 	bl	8001058 <HAL_GetTick>
 8001eb4:	4602      	mov	r2, r0
 8001eb6:	693b      	ldr	r3, [r7, #16]
 8001eb8:	1ad3      	subs	r3, r2, r3
 8001eba:	f241 3288 	movw	r2, #5000	; 0x1388
 8001ebe:	4293      	cmp	r3, r2
 8001ec0:	d901      	bls.n	8001ec6 <HAL_RCC_OscConfig+0x37a>
        {
          return HAL_TIMEOUT;
 8001ec2:	2303      	movs	r3, #3
 8001ec4:	e092      	b.n	8001fec <HAL_RCC_OscConfig+0x4a0>
      while(__HAL_RCC_GET_FLAG(RCC_FLAG_LSERDY) == RESET)
 8001ec6:	4b4b      	ldr	r3, [pc, #300]	; (8001ff4 <HAL_RCC_OscConfig+0x4a8>)
 8001ec8:	6f1b      	ldr	r3, [r3, #112]	; 0x70
 8001eca:	f003 0302 	and.w	r3, r3, #2
 8001ece:	2b00      	cmp	r3, #0
 8001ed0:	d0ee      	beq.n	8001eb0 <HAL_RCC_OscConfig+0x364>
 8001ed2:	e014      	b.n	8001efe <HAL_RCC_OscConfig+0x3b2>
      }
    }
    else
    {
      /* Get Start Tick*/
      tickstart = HAL_GetTick();
 8001ed4:	f7ff f8c0 	bl	8001058 <HAL_GetTick>
 8001ed8:	6138      	str	r0, [r7, #16]

      /* Wait till LSE is ready */
      while(__HAL_RCC_GET_FLAG(RCC_FLAG_LSERDY) != RESET)
 8001eda:	e00a      	b.n	8001ef2 <HAL_RCC_OscConfig+0x3a6>
      {
        if((HAL_GetTick() - tickstart ) > RCC_LSE_TIMEOUT_VALUE)
 8001edc:	f7ff f8bc 	bl	8001058 <HAL_GetTick>
 8001ee0:	4602      	mov	r2, r0
 8001ee2:	693b      	ldr	r3, [r7, #16]
 8001ee4:	1ad3      	subs	r3, r2, r3
 8001ee6:	f241 3288 	movw	r2, #5000	; 0x1388
 8001eea:	4293      	cmp	r3, r2
 8001eec:	d901      	bls.n	8001ef2 <HAL_RCC_OscConfig+0x3a6>
        {
          return HAL_TIMEOUT;
 8001eee:	2303      	movs	r3, #3
 8001ef0:	e07c      	b.n	8001fec <HAL_RCC_OscConfig+0x4a0>
      while(__HAL_RCC_GET_FLAG(RCC_FLAG_LSERDY) != RESET)
 8001ef2:	4b40      	ldr	r3, [pc, #256]	; (8001ff4 <HAL_RCC_OscConfig+0x4a8>)
 8001ef4:	6f1b      	ldr	r3, [r3, #112]	; 0x70
 8001ef6:	f003 0302 	and.w	r3, r3, #2
 8001efa:	2b00      	cmp	r3, #0
 8001efc:	d1ee      	bne.n	8001edc <HAL_RCC_OscConfig+0x390>
        }
      }
    }

    /* Restore clock configuration if changed */
    if(pwrclkchanged == SET)
 8001efe:	7dfb      	ldrb	r3, [r7, #23]
 8001f00:	2b01      	cmp	r3, #1
 8001f02:	d105      	bne.n	8001f10 <HAL_RCC_OscConfig+0x3c4>
    {
      __HAL_RCC_PWR_CLK_DISABLE();
 8001f04:	4b3b      	ldr	r3, [pc, #236]	; (8001ff4 <HAL_RCC_OscConfig+0x4a8>)
 8001f06:	6c1b      	ldr	r3, [r3, #64]	; 0x40
 8001f08:	4a3a      	ldr	r2, [pc, #232]	; (8001ff4 <HAL_RCC_OscConfig+0x4a8>)
 8001f0a:	f023 5380 	bic.w	r3, r3, #268435456	; 0x10000000
 8001f0e:	6413      	str	r3, [r2, #64]	; 0x40
    }
  }
  /*-------------------------------- PLL Configuration -----------------------*/
  /* Check the parameters */
  assert_param(IS_RCC_PLL(RCC_OscInitStruct->PLL.PLLState));
  if ((RCC_OscInitStruct->PLL.PLLState) != RCC_PLL_NONE)
 8001f10:	687b      	ldr	r3, [r7, #4]
 8001f12:	699b      	ldr	r3, [r3, #24]
 8001f14:	2b00      	cmp	r3, #0
 8001f16:	d068      	beq.n	8001fea <HAL_RCC_OscConfig+0x49e>
  {
    /* Check if the PLL is used as system clock or not */
    if(__HAL_RCC_GET_SYSCLK_SOURCE() != RCC_CFGR_SWS_PLL)
 8001f18:	4b36      	ldr	r3, [pc, #216]	; (8001ff4 <HAL_RCC_OscConfig+0x4a8>)
 8001f1a:	689b      	ldr	r3, [r3, #8]
 8001f1c:	f003 030c 	and.w	r3, r3, #12
 8001f20:	2b08      	cmp	r3, #8
 8001f22:	d060      	beq.n	8001fe6 <HAL_RCC_OscConfig+0x49a>
    {
      if((RCC_OscInitStruct->PLL.PLLState) == RCC_PLL_ON)
 8001f24:	687b      	ldr	r3, [r7, #4]
 8001f26:	699b      	ldr	r3, [r3, #24]
 8001f28:	2b02      	cmp	r3, #2
 8001f2a:	d145      	bne.n	8001fb8 <HAL_RCC_OscConfig+0x46c>
        assert_param(IS_RCC_PLLP_VALUE(RCC_OscInitStruct->PLL.PLLP));
        assert_param(IS_RCC_PLLQ_VALUE(RCC_OscInitStruct->PLL.PLLQ));
        assert_param(IS_RCC_PLLR_VALUE(RCC_OscInitStruct->PLL.PLLR));

        /* Disable the main PLL. */
        __HAL_RCC_PLL_DISABLE();
 8001f2c:	4b33      	ldr	r3, [pc, #204]	; (8001ffc <HAL_RCC_OscConfig+0x4b0>)
 8001f2e:	2200      	movs	r2, #0
 8001f30:	601a      	str	r2, [r3, #0]

        /* Get Start Tick*/
        tickstart = HAL_GetTick();
 8001f32:	f7ff f891 	bl	8001058 <HAL_GetTick>
 8001f36:	6138      	str	r0, [r7, #16]

        /* Wait till PLL is ready */
        while(__HAL_RCC_GET_FLAG(RCC_FLAG_PLLRDY) != RESET)
 8001f38:	e008      	b.n	8001f4c <HAL_RCC_OscConfig+0x400>
        {
          if((HAL_GetTick() - tickstart ) > PLL_TIMEOUT_VALUE)
 8001f3a:	f7ff f88d 	bl	8001058 <HAL_GetTick>
 8001f3e:	4602      	mov	r2, r0
 8001f40:	693b      	ldr	r3, [r7, #16]
 8001f42:	1ad3      	subs	r3, r2, r3
 8001f44:	2b02      	cmp	r3, #2
 8001f46:	d901      	bls.n	8001f4c <HAL_RCC_OscConfig+0x400>
          {
            return HAL_TIMEOUT;
 8001f48:	2303      	movs	r3, #3
 8001f4a:	e04f      	b.n	8001fec <HAL_RCC_OscConfig+0x4a0>
        while(__HAL_RCC_GET_FLAG(RCC_FLAG_PLLRDY) != RESET)
 8001f4c:	4b29      	ldr	r3, [pc, #164]	; (8001ff4 <HAL_RCC_OscConfig+0x4a8>)
 8001f4e:	681b      	ldr	r3, [r3, #0]
 8001f50:	f003 7300 	and.w	r3, r3, #33554432	; 0x2000000
 8001f54:	2b00      	cmp	r3, #0
 8001f56:	d1f0      	bne.n	8001f3a <HAL_RCC_OscConfig+0x3ee>
          }
        }

        /* Configure the main PLL clock source, multiplication and division factors. */
        __HAL_RCC_PLL_CONFIG(RCC_OscInitStruct->PLL.PLLSource,
 8001f58:	687b      	ldr	r3, [r7, #4]
 8001f5a:	69da      	ldr	r2, [r3, #28]
 8001f5c:	687b      	ldr	r3, [r7, #4]
 8001f5e:	6a1b      	ldr	r3, [r3, #32]
 8001f60:	431a      	orrs	r2, r3
 8001f62:	687b      	ldr	r3, [r7, #4]
 8001f64:	6a5b      	ldr	r3, [r3, #36]	; 0x24
 8001f66:	019b      	lsls	r3, r3, #6
 8001f68:	431a      	orrs	r2, r3
 8001f6a:	687b      	ldr	r3, [r7, #4]
 8001f6c:	6a9b      	ldr	r3, [r3, #40]	; 0x28
 8001f6e:	085b      	lsrs	r3, r3, #1
 8001f70:	3b01      	subs	r3, #1
 8001f72:	041b      	lsls	r3, r3, #16
 8001f74:	431a      	orrs	r2, r3
 8001f76:	687b      	ldr	r3, [r7, #4]
 8001f78:	6adb      	ldr	r3, [r3, #44]	; 0x2c
 8001f7a:	061b      	lsls	r3, r3, #24
 8001f7c:	431a      	orrs	r2, r3
 8001f7e:	687b      	ldr	r3, [r7, #4]
 8001f80:	6b1b      	ldr	r3, [r3, #48]	; 0x30
 8001f82:	071b      	lsls	r3, r3, #28
 8001f84:	491b      	ldr	r1, [pc, #108]	; (8001ff4 <HAL_RCC_OscConfig+0x4a8>)
 8001f86:	4313      	orrs	r3, r2
 8001f88:	604b      	str	r3, [r1, #4]
                             RCC_OscInitStruct->PLL.PLLP,
                             RCC_OscInitStruct->PLL.PLLQ,
                             RCC_OscInitStruct->PLL.PLLR);

        /* Enable the main PLL. */
        __HAL_RCC_PLL_ENABLE();
 8001f8a:	4b1c      	ldr	r3, [pc, #112]	; (8001ffc <HAL_RCC_OscConfig+0x4b0>)
 8001f8c:	2201      	movs	r2, #1
 8001f8e:	601a      	str	r2, [r3, #0]

        /* Get Start Tick*/
        tickstart = HAL_GetTick();
 8001f90:	f7ff f862 	bl	8001058 <HAL_GetTick>
 8001f94:	6138      	str	r0, [r7, #16]

        /* Wait till PLL is ready */
        while(__HAL_RCC_GET_FLAG(RCC_FLAG_PLLRDY) == RESET)
 8001f96:	e008      	b.n	8001faa <HAL_RCC_OscConfig+0x45e>
        {
          if((HAL_GetTick() - tickstart ) > PLL_TIMEOUT_VALUE)
 8001f98:	f7ff f85e 	bl	8001058 <HAL_GetTick>
 8001f9c:	4602      	mov	r2, r0
 8001f9e:	693b      	ldr	r3, [r7, #16]
 8001fa0:	1ad3      	subs	r3, r2, r3
 8001fa2:	2b02      	cmp	r3, #2
 8001fa4:	d901      	bls.n	8001faa <HAL_RCC_OscConfig+0x45e>
          {
            return HAL_TIMEOUT;
 8001fa6:	2303      	movs	r3, #3
 8001fa8:	e020      	b.n	8001fec <HAL_RCC_OscConfig+0x4a0>
        while(__HAL_RCC_GET_FLAG(RCC_FLAG_PLLRDY) == RESET)
 8001faa:	4b12      	ldr	r3, [pc, #72]	; (8001ff4 <HAL_RCC_OscConfig+0x4a8>)
 8001fac:	681b      	ldr	r3, [r3, #0]
 8001fae:	f003 7300 	and.w	r3, r3, #33554432	; 0x2000000
 8001fb2:	2b00      	cmp	r3, #0
 8001fb4:	d0f0      	beq.n	8001f98 <HAL_RCC_OscConfig+0x44c>
 8001fb6:	e018      	b.n	8001fea <HAL_RCC_OscConfig+0x49e>
        }
      }
      else
      {
        /* Disable the main PLL. */
        __HAL_RCC_PLL_DISABLE();
 8001fb8:	4b10      	ldr	r3, [pc, #64]	; (8001ffc <HAL_RCC_OscConfig+0x4b0>)
 8001fba:	2200      	movs	r2, #0
 8001fbc:	601a      	str	r2, [r3, #0]

        /* Get Start Tick*/
        tickstart = HAL_GetTick();
 8001fbe:	f7ff f84b 	bl	8001058 <HAL_GetTick>
 8001fc2:	6138      	str	r0, [r7, #16]

        /* Wait till PLL is ready */
        while(__HAL_RCC_GET_FLAG(RCC_FLAG_PLLRDY) != RESET)
 8001fc4:	e008      	b.n	8001fd8 <HAL_RCC_OscConfig+0x48c>
        {
          if((HAL_GetTick() - tickstart ) > PLL_TIMEOUT_VALUE)
 8001fc6:	f7ff f847 	bl	8001058 <HAL_GetTick>
 8001fca:	4602      	mov	r2, r0
 8001fcc:	693b      	ldr	r3, [r7, #16]
 8001fce:	1ad3      	subs	r3, r2, r3
 8001fd0:	2b02      	cmp	r3, #2
 8001fd2:	d901      	bls.n	8001fd8 <HAL_RCC_OscConfig+0x48c>
          {
            return HAL_TIMEOUT;
 8001fd4:	2303      	movs	r3, #3
 8001fd6:	e009      	b.n	8001fec <HAL_RCC_OscConfig+0x4a0>
        while(__HAL_RCC_GET_FLAG(RCC_FLAG_PLLRDY) != RESET)
 8001fd8:	4b06      	ldr	r3, [pc, #24]	; (8001ff4 <HAL_RCC_OscConfig+0x4a8>)
 8001fda:	681b      	ldr	r3, [r3, #0]
 8001fdc:	f003 7300 	and.w	r3, r3, #33554432	; 0x2000000
 8001fe0:	2b00      	cmp	r3, #0
 8001fe2:	d1f0      	bne.n	8001fc6 <HAL_RCC_OscConfig+0x47a>
 8001fe4:	e001      	b.n	8001fea <HAL_RCC_OscConfig+0x49e>
        }
      }
    }
    else
    {
      return HAL_ERROR;
 8001fe6:	2301      	movs	r3, #1
 8001fe8:	e000      	b.n	8001fec <HAL_RCC_OscConfig+0x4a0>
    }
  }
  return HAL_OK;
 8001fea:	2300      	movs	r3, #0
}
 8001fec:	4618      	mov	r0, r3
 8001fee:	3718      	adds	r7, #24
 8001ff0:	46bd      	mov	sp, r7
 8001ff2:	bd80      	pop	{r7, pc}
 8001ff4:	40023800 	.word	0x40023800
 8001ff8:	40007000 	.word	0x40007000
 8001ffc:	42470060 	.word	0x42470060

08002000 <HAL_SPI_Init>:
  * @param  hspi pointer to a SPI_HandleTypeDef structure that contains
  *               the configuration information for SPI module.
  * @retval HAL status
  */
HAL_StatusTypeDef HAL_SPI_Init(SPI_HandleTypeDef *hspi)
{
 8002000:	b580      	push	{r7, lr}
 8002002:	b082      	sub	sp, #8
 8002004:	af00      	add	r7, sp, #0
 8002006:	6078      	str	r0, [r7, #4]
  /* Check the SPI handle allocation */
  if (hspi == NULL)
 8002008:	687b      	ldr	r3, [r7, #4]
 800200a:	2b00      	cmp	r3, #0
 800200c:	d101      	bne.n	8002012 <HAL_SPI_Init+0x12>
  {
    return HAL_ERROR;
 800200e:	2301      	movs	r3, #1
 8002010:	e056      	b.n	80020c0 <HAL_SPI_Init+0xc0>
  if (hspi->Init.CRCCalculation == SPI_CRCCALCULATION_ENABLE)
  {
    assert_param(IS_SPI_CRC_POLYNOMIAL(hspi->Init.CRCPolynomial));
  }
#else
  hspi->Init.CRCCalculation = SPI_CRCCALCULATION_DISABLE;
 8002012:	687b      	ldr	r3, [r7, #4]
 8002014:	2200      	movs	r2, #0
 8002016:	629a      	str	r2, [r3, #40]	; 0x28
#endif /* USE_SPI_CRC */

  if (hspi->State == HAL_SPI_STATE_RESET)
 8002018:	687b      	ldr	r3, [r7, #4]
 800201a:	f893 3051 	ldrb.w	r3, [r3, #81]	; 0x51
 800201e:	b2db      	uxtb	r3, r3
 8002020:	2b00      	cmp	r3, #0
 8002022:	d106      	bne.n	8002032 <HAL_SPI_Init+0x32>
  {
    /* Allocate lock resource and initialize it */
    hspi->Lock = HAL_UNLOCKED;
 8002024:	687b      	ldr	r3, [r7, #4]
 8002026:	2200      	movs	r2, #0
 8002028:	f883 2050 	strb.w	r2, [r3, #80]	; 0x50

    /* Init the low level hardware : GPIO, CLOCK, NVIC... */
    hspi->MspInitCallback(hspi);
#else
    /* Init the low level hardware : GPIO, CLOCK, NVIC... */
    HAL_SPI_MspInit(hspi);
 800202c:	6878      	ldr	r0, [r7, #4]
 800202e:	f7fe fe4d 	bl	8000ccc <HAL_SPI_MspInit>
#endif /* USE_HAL_SPI_REGISTER_CALLBACKS */
  }

  hspi->State = HAL_SPI_STATE_BUSY;
 8002032:	687b      	ldr	r3, [r7, #4]
 8002034:	2202      	movs	r2, #2
 8002036:	f883 2051 	strb.w	r2, [r3, #81]	; 0x51

  /* Disable the selected SPI peripheral */
  __HAL_SPI_DISABLE(hspi);
 800203a:	687b      	ldr	r3, [r7, #4]
 800203c:	681b      	ldr	r3, [r3, #0]
 800203e:	681a      	ldr	r2, [r3, #0]
 8002040:	687b      	ldr	r3, [r7, #4]
 8002042:	681b      	ldr	r3, [r3, #0]
 8002044:	f022 0240 	bic.w	r2, r2, #64	; 0x40
 8002048:	601a      	str	r2, [r3, #0]

  /*----------------------- SPIx CR1 & CR2 Configuration ---------------------*/
  /* Configure : SPI Mode, Communication Mode, Data size, Clock polarity and phase, NSS management,
  Communication speed, First bit and CRC calculation state */
  WRITE_REG(hspi->Instance->CR1, (hspi->Init.Mode | hspi->Init.Direction | hspi->Init.DataSize |
 800204a:	687b      	ldr	r3, [r7, #4]
 800204c:	685a      	ldr	r2, [r3, #4]
 800204e:	687b      	ldr	r3, [r7, #4]
 8002050:	689b      	ldr	r3, [r3, #8]
 8002052:	431a      	orrs	r2, r3
 8002054:	687b      	ldr	r3, [r7, #4]
 8002056:	68db      	ldr	r3, [r3, #12]
 8002058:	431a      	orrs	r2, r3
 800205a:	687b      	ldr	r3, [r7, #4]
 800205c:	691b      	ldr	r3, [r3, #16]
 800205e:	431a      	orrs	r2, r3
 8002060:	687b      	ldr	r3, [r7, #4]
 8002062:	695b      	ldr	r3, [r3, #20]
 8002064:	431a      	orrs	r2, r3
 8002066:	687b      	ldr	r3, [r7, #4]
 8002068:	699b      	ldr	r3, [r3, #24]
 800206a:	f403 7300 	and.w	r3, r3, #512	; 0x200
 800206e:	431a      	orrs	r2, r3
 8002070:	687b      	ldr	r3, [r7, #4]
 8002072:	69db      	ldr	r3, [r3, #28]
 8002074:	431a      	orrs	r2, r3
 8002076:	687b      	ldr	r3, [r7, #4]
 8002078:	6a1b      	ldr	r3, [r3, #32]
 800207a:	ea42 0103 	orr.w	r1, r2, r3
 800207e:	687b      	ldr	r3, [r7, #4]
 8002080:	6a9a      	ldr	r2, [r3, #40]	; 0x28
 8002082:	687b      	ldr	r3, [r7, #4]
 8002084:	681b      	ldr	r3, [r3, #0]
 8002086:	430a      	orrs	r2, r1
 8002088:	601a      	str	r2, [r3, #0]
                                  hspi->Init.CLKPolarity | hspi->Init.CLKPhase | (hspi->Init.NSS & SPI_CR1_SSM) |
                                  hspi->Init.BaudRatePrescaler | hspi->Init.FirstBit  | hspi->Init.CRCCalculation));

  /* Configure : NSS management, TI Mode */
  WRITE_REG(hspi->Instance->CR2, (((hspi->Init.NSS >> 16U) & SPI_CR2_SSOE) | hspi->Init.TIMode));
 800208a:	687b      	ldr	r3, [r7, #4]
 800208c:	699b      	ldr	r3, [r3, #24]
 800208e:	0c1b      	lsrs	r3, r3, #16
 8002090:	f003 0104 	and.w	r1, r3, #4
 8002094:	687b      	ldr	r3, [r7, #4]
 8002096:	6a5a      	ldr	r2, [r3, #36]	; 0x24
 8002098:	687b      	ldr	r3, [r7, #4]
 800209a:	681b      	ldr	r3, [r3, #0]
 800209c:	430a      	orrs	r2, r1
 800209e:	605a      	str	r2, [r3, #4]
  }
#endif /* USE_SPI_CRC */

#if defined(SPI_I2SCFGR_I2SMOD)
  /* Activate the SPI mode (Make sure that I2SMOD bit in I2SCFGR register is reset) */
  CLEAR_BIT(hspi->Instance->I2SCFGR, SPI_I2SCFGR_I2SMOD);
 80020a0:	687b      	ldr	r3, [r7, #4]
 80020a2:	681b      	ldr	r3, [r3, #0]
 80020a4:	69da      	ldr	r2, [r3, #28]
 80020a6:	687b      	ldr	r3, [r7, #4]
 80020a8:	681b      	ldr	r3, [r3, #0]
 80020aa:	f422 6200 	bic.w	r2, r2, #2048	; 0x800
 80020ae:	61da      	str	r2, [r3, #28]
#endif /* SPI_I2SCFGR_I2SMOD */

  hspi->ErrorCode = HAL_SPI_ERROR_NONE;
 80020b0:	687b      	ldr	r3, [r7, #4]
 80020b2:	2200      	movs	r2, #0
 80020b4:	655a      	str	r2, [r3, #84]	; 0x54
  hspi->State     = HAL_SPI_STATE_READY;
 80020b6:	687b      	ldr	r3, [r7, #4]
 80020b8:	2201      	movs	r2, #1
 80020ba:	f883 2051 	strb.w	r2, [r3, #81]	; 0x51

  return HAL_OK;
 80020be:	2300      	movs	r3, #0
}
 80020c0:	4618      	mov	r0, r3
 80020c2:	3708      	adds	r7, #8
 80020c4:	46bd      	mov	sp, r7
 80020c6:	bd80      	pop	{r7, pc}

080020c8 <HAL_SPI_TransmitReceive>:
  * @param  Timeout Timeout duration
  * @retval HAL status
  */
HAL_StatusTypeDef HAL_SPI_TransmitReceive(SPI_HandleTypeDef *hspi, uint8_t *pTxData, uint8_t *pRxData, uint16_t Size,
                                          uint32_t Timeout)
{
 80020c8:	b580      	push	{r7, lr}
 80020ca:	b08c      	sub	sp, #48	; 0x30
 80020cc:	af00      	add	r7, sp, #0
 80020ce:	60f8      	str	r0, [r7, #12]
 80020d0:	60b9      	str	r1, [r7, #8]
 80020d2:	607a      	str	r2, [r7, #4]
 80020d4:	807b      	strh	r3, [r7, #2]
  uint32_t             tmp_mode;
  HAL_SPI_StateTypeDef tmp_state;
  uint32_t             tickstart;

  /* Variable used to alternate Rx and Tx during transfer */
  uint32_t             txallowed = 1U;
 80020d6:	2301      	movs	r3, #1
 80020d8:	62fb      	str	r3, [r7, #44]	; 0x2c
  HAL_StatusTypeDef    errorcode = HAL_OK;
 80020da:	2300      	movs	r3, #0
 80020dc:	f887 302b 	strb.w	r3, [r7, #43]	; 0x2b

  /* Check Direction parameter */
  assert_param(IS_SPI_DIRECTION_2LINES(hspi->Init.Direction));

  /* Process Locked */
  __HAL_LOCK(hspi);
 80020e0:	68fb      	ldr	r3, [r7, #12]
 80020e2:	f893 3050 	ldrb.w	r3, [r3, #80]	; 0x50
 80020e6:	2b01      	cmp	r3, #1
 80020e8:	d101      	bne.n	80020ee <HAL_SPI_TransmitReceive+0x26>
 80020ea:	2302      	movs	r3, #2
 80020ec:	e18a      	b.n	8002404 <HAL_SPI_TransmitReceive+0x33c>
 80020ee:	68fb      	ldr	r3, [r7, #12]
 80020f0:	2201      	movs	r2, #1
 80020f2:	f883 2050 	strb.w	r2, [r3, #80]	; 0x50

  /* Init tickstart for timeout management*/
  tickstart = HAL_GetTick();
 80020f6:	f7fe ffaf 	bl	8001058 <HAL_GetTick>
 80020fa:	6278      	str	r0, [r7, #36]	; 0x24

  /* Init temporary variables */
  tmp_state           = hspi->State;
 80020fc:	68fb      	ldr	r3, [r7, #12]
 80020fe:	f893 3051 	ldrb.w	r3, [r3, #81]	; 0x51
 8002102:	f887 3023 	strb.w	r3, [r7, #35]	; 0x23
  tmp_mode            = hspi->Init.Mode;
 8002106:	68fb      	ldr	r3, [r7, #12]
 8002108:	685b      	ldr	r3, [r3, #4]
 800210a:	61fb      	str	r3, [r7, #28]
  initial_TxXferCount = Size;
 800210c:	887b      	ldrh	r3, [r7, #2]
 800210e:	837b      	strh	r3, [r7, #26]

  if (!((tmp_state == HAL_SPI_STATE_READY) || \
 8002110:	f897 3023 	ldrb.w	r3, [r7, #35]	; 0x23
 8002114:	2b01      	cmp	r3, #1
 8002116:	d00f      	beq.n	8002138 <HAL_SPI_TransmitReceive+0x70>
 8002118:	69fb      	ldr	r3, [r7, #28]
 800211a:	f5b3 7f82 	cmp.w	r3, #260	; 0x104
 800211e:	d107      	bne.n	8002130 <HAL_SPI_TransmitReceive+0x68>
        ((tmp_mode == SPI_MODE_MASTER) && (hspi->Init.Direction == SPI_DIRECTION_2LINES) && (tmp_state == HAL_SPI_STATE_BUSY_RX))))
 8002120:	68fb      	ldr	r3, [r7, #12]
 8002122:	689b      	ldr	r3, [r3, #8]
 8002124:	2b00      	cmp	r3, #0
 8002126:	d103      	bne.n	8002130 <HAL_SPI_TransmitReceive+0x68>
 8002128:	f897 3023 	ldrb.w	r3, [r7, #35]	; 0x23
 800212c:	2b04      	cmp	r3, #4
 800212e:	d003      	beq.n	8002138 <HAL_SPI_TransmitReceive+0x70>
  {
    errorcode = HAL_BUSY;
 8002130:	2302      	movs	r3, #2
 8002132:	f887 302b 	strb.w	r3, [r7, #43]	; 0x2b
    goto error;
 8002136:	e15b      	b.n	80023f0 <HAL_SPI_TransmitReceive+0x328>
  }

  if ((pTxData == NULL) || (pRxData == NULL) || (Size == 0U))
 8002138:	68bb      	ldr	r3, [r7, #8]
 800213a:	2b00      	cmp	r3, #0
 800213c:	d005      	beq.n	800214a <HAL_SPI_TransmitReceive+0x82>
 800213e:	687b      	ldr	r3, [r7, #4]
 8002140:	2b00      	cmp	r3, #0
 8002142:	d002      	beq.n	800214a <HAL_SPI_TransmitReceive+0x82>
 8002144:	887b      	ldrh	r3, [r7, #2]
 8002146:	2b00      	cmp	r3, #0
 8002148:	d103      	bne.n	8002152 <HAL_SPI_TransmitReceive+0x8a>
  {
    errorcode = HAL_ERROR;
 800214a:	2301      	movs	r3, #1
 800214c:	f887 302b 	strb.w	r3, [r7, #43]	; 0x2b
    goto error;
 8002150:	e14e      	b.n	80023f0 <HAL_SPI_TransmitReceive+0x328>
  }

  /* Don't overwrite in case of HAL_SPI_STATE_BUSY_RX */
  if (hspi->State != HAL_SPI_STATE_BUSY_RX)
 8002152:	68fb      	ldr	r3, [r7, #12]
 8002154:	f893 3051 	ldrb.w	r3, [r3, #81]	; 0x51
 8002158:	b2db      	uxtb	r3, r3
 800215a:	2b04      	cmp	r3, #4
 800215c:	d003      	beq.n	8002166 <HAL_SPI_TransmitReceive+0x9e>
  {
    hspi->State = HAL_SPI_STATE_BUSY_TX_RX;
 800215e:	68fb      	ldr	r3, [r7, #12]
 8002160:	2205      	movs	r2, #5
 8002162:	f883 2051 	strb.w	r2, [r3, #81]	; 0x51
  }

  /* Set the transaction information */
  hspi->ErrorCode   = HAL_SPI_ERROR_NONE;
 8002166:	68fb      	ldr	r3, [r7, #12]
 8002168:	2200      	movs	r2, #0
 800216a:	655a      	str	r2, [r3, #84]	; 0x54
  hspi->pRxBuffPtr  = (uint8_t *)pRxData;
 800216c:	68fb      	ldr	r3, [r7, #12]
 800216e:	687a      	ldr	r2, [r7, #4]
 8002170:	639a      	str	r2, [r3, #56]	; 0x38
  hspi->RxXferCount = Size;
 8002172:	68fb      	ldr	r3, [r7, #12]
 8002174:	887a      	ldrh	r2, [r7, #2]
 8002176:	87da      	strh	r2, [r3, #62]	; 0x3e
  hspi->RxXferSize  = Size;
 8002178:	68fb      	ldr	r3, [r7, #12]
 800217a:	887a      	ldrh	r2, [r7, #2]
 800217c:	879a      	strh	r2, [r3, #60]	; 0x3c
  hspi->pTxBuffPtr  = (uint8_t *)pTxData;
 800217e:	68fb      	ldr	r3, [r7, #12]
 8002180:	68ba      	ldr	r2, [r7, #8]
 8002182:	631a      	str	r2, [r3, #48]	; 0x30
  hspi->TxXferCount = Size;
 8002184:	68fb      	ldr	r3, [r7, #12]
 8002186:	887a      	ldrh	r2, [r7, #2]
 8002188:	86da      	strh	r2, [r3, #54]	; 0x36
  hspi->TxXferSize  = Size;
 800218a:	68fb      	ldr	r3, [r7, #12]
 800218c:	887a      	ldrh	r2, [r7, #2]
 800218e:	869a      	strh	r2, [r3, #52]	; 0x34

  /*Init field not used in handle to zero */
  hspi->RxISR       = NULL;
 8002190:	68fb      	ldr	r3, [r7, #12]
 8002192:	2200      	movs	r2, #0
 8002194:	641a      	str	r2, [r3, #64]	; 0x40
  hspi->TxISR       = NULL;
 8002196:	68fb      	ldr	r3, [r7, #12]
 8002198:	2200      	movs	r2, #0
 800219a:	645a      	str	r2, [r3, #68]	; 0x44
    SPI_RESET_CRC(hspi);
  }
#endif /* USE_SPI_CRC */

  /* Check if the SPI is already enabled */
  if ((hspi->Instance->CR1 & SPI_CR1_SPE) != SPI_CR1_SPE)
 800219c:	68fb      	ldr	r3, [r7, #12]
 800219e:	681b      	ldr	r3, [r3, #0]
 80021a0:	681b      	ldr	r3, [r3, #0]
 80021a2:	f003 0340 	and.w	r3, r3, #64	; 0x40
 80021a6:	2b40      	cmp	r3, #64	; 0x40
 80021a8:	d007      	beq.n	80021ba <HAL_SPI_TransmitReceive+0xf2>
  {
    /* Enable SPI peripheral */
    __HAL_SPI_ENABLE(hspi);
 80021aa:	68fb      	ldr	r3, [r7, #12]
 80021ac:	681b      	ldr	r3, [r3, #0]
 80021ae:	681a      	ldr	r2, [r3, #0]
 80021b0:	68fb      	ldr	r3, [r7, #12]
 80021b2:	681b      	ldr	r3, [r3, #0]
 80021b4:	f042 0240 	orr.w	r2, r2, #64	; 0x40
 80021b8:	601a      	str	r2, [r3, #0]
  }

  /* Transmit and Receive data in 16 Bit mode */
  if (hspi->Init.DataSize == SPI_DATASIZE_16BIT)
 80021ba:	68fb      	ldr	r3, [r7, #12]
 80021bc:	68db      	ldr	r3, [r3, #12]
 80021be:	f5b3 6f00 	cmp.w	r3, #2048	; 0x800
 80021c2:	d178      	bne.n	80022b6 <HAL_SPI_TransmitReceive+0x1ee>
  {
    if ((hspi->Init.Mode == SPI_MODE_SLAVE) || (initial_TxXferCount == 0x01U))
 80021c4:	68fb      	ldr	r3, [r7, #12]
 80021c6:	685b      	ldr	r3, [r3, #4]
 80021c8:	2b00      	cmp	r3, #0
 80021ca:	d002      	beq.n	80021d2 <HAL_SPI_TransmitReceive+0x10a>
 80021cc:	8b7b      	ldrh	r3, [r7, #26]
 80021ce:	2b01      	cmp	r3, #1
 80021d0:	d166      	bne.n	80022a0 <HAL_SPI_TransmitReceive+0x1d8>
    {
      hspi->Instance->DR = *((uint16_t *)hspi->pTxBuffPtr);
 80021d2:	68fb      	ldr	r3, [r7, #12]
 80021d4:	6b1b      	ldr	r3, [r3, #48]	; 0x30
 80021d6:	881a      	ldrh	r2, [r3, #0]
 80021d8:	68fb      	ldr	r3, [r7, #12]
 80021da:	681b      	ldr	r3, [r3, #0]
 80021dc:	60da      	str	r2, [r3, #12]
      hspi->pTxBuffPtr += sizeof(uint16_t);
 80021de:	68fb      	ldr	r3, [r7, #12]
 80021e0:	6b1b      	ldr	r3, [r3, #48]	; 0x30
 80021e2:	1c9a      	adds	r2, r3, #2
 80021e4:	68fb      	ldr	r3, [r7, #12]
 80021e6:	631a      	str	r2, [r3, #48]	; 0x30
      hspi->TxXferCount--;
 80021e8:	68fb      	ldr	r3, [r7, #12]
 80021ea:	8edb      	ldrh	r3, [r3, #54]	; 0x36
 80021ec:	b29b      	uxth	r3, r3
 80021ee:	3b01      	subs	r3, #1
 80021f0:	b29a      	uxth	r2, r3
 80021f2:	68fb      	ldr	r3, [r7, #12]
 80021f4:	86da      	strh	r2, [r3, #54]	; 0x36
    }
    while ((hspi->TxXferCount > 0U) || (hspi->RxXferCount > 0U))
 80021f6:	e053      	b.n	80022a0 <HAL_SPI_TransmitReceive+0x1d8>
    {
      /* Check TXE flag */
      if ((__HAL_SPI_GET_FLAG(hspi, SPI_FLAG_TXE)) && (hspi->TxXferCount > 0U) && (txallowed == 1U))
 80021f8:	68fb      	ldr	r3, [r7, #12]
 80021fa:	681b      	ldr	r3, [r3, #0]
 80021fc:	689b      	ldr	r3, [r3, #8]
 80021fe:	f003 0302 	and.w	r3, r3, #2
 8002202:	2b02      	cmp	r3, #2
 8002204:	d11b      	bne.n	800223e <HAL_SPI_TransmitReceive+0x176>
 8002206:	68fb      	ldr	r3, [r7, #12]
 8002208:	8edb      	ldrh	r3, [r3, #54]	; 0x36
 800220a:	b29b      	uxth	r3, r3
 800220c:	2b00      	cmp	r3, #0
 800220e:	d016      	beq.n	800223e <HAL_SPI_TransmitReceive+0x176>
 8002210:	6afb      	ldr	r3, [r7, #44]	; 0x2c
 8002212:	2b01      	cmp	r3, #1
 8002214:	d113      	bne.n	800223e <HAL_SPI_TransmitReceive+0x176>
      {
        hspi->Instance->DR = *((uint16_t *)hspi->pTxBuffPtr);
 8002216:	68fb      	ldr	r3, [r7, #12]
 8002218:	6b1b      	ldr	r3, [r3, #48]	; 0x30
 800221a:	881a      	ldrh	r2, [r3, #0]
 800221c:	68fb      	ldr	r3, [r7, #12]
 800221e:	681b      	ldr	r3, [r3, #0]
 8002220:	60da      	str	r2, [r3, #12]
        hspi->pTxBuffPtr += sizeof(uint16_t);
 8002222:	68fb      	ldr	r3, [r7, #12]
 8002224:	6b1b      	ldr	r3, [r3, #48]	; 0x30
 8002226:	1c9a      	adds	r2, r3, #2
 8002228:	68fb      	ldr	r3, [r7, #12]
 800222a:	631a      	str	r2, [r3, #48]	; 0x30
        hspi->TxXferCount--;
 800222c:	68fb      	ldr	r3, [r7, #12]
 800222e:	8edb      	ldrh	r3, [r3, #54]	; 0x36
 8002230:	b29b      	uxth	r3, r3
 8002232:	3b01      	subs	r3, #1
 8002234:	b29a      	uxth	r2, r3
 8002236:	68fb      	ldr	r3, [r7, #12]
 8002238:	86da      	strh	r2, [r3, #54]	; 0x36
        /* Next Data is a reception (Rx). Tx not allowed */
        txallowed = 0U;
 800223a:	2300      	movs	r3, #0
 800223c:	62fb      	str	r3, [r7, #44]	; 0x2c
        }
#endif /* USE_SPI_CRC */
      }

      /* Check RXNE flag */
      if ((__HAL_SPI_GET_FLAG(hspi, SPI_FLAG_RXNE)) && (hspi->RxXferCount > 0U))
 800223e:	68fb      	ldr	r3, [r7, #12]
 8002240:	681b      	ldr	r3, [r3, #0]
 8002242:	689b      	ldr	r3, [r3, #8]
 8002244:	f003 0301 	and.w	r3, r3, #1
 8002248:	2b01      	cmp	r3, #1
 800224a:	d119      	bne.n	8002280 <HAL_SPI_TransmitReceive+0x1b8>
 800224c:	68fb      	ldr	r3, [r7, #12]
 800224e:	8fdb      	ldrh	r3, [r3, #62]	; 0x3e
 8002250:	b29b      	uxth	r3, r3
 8002252:	2b00      	cmp	r3, #0
 8002254:	d014      	beq.n	8002280 <HAL_SPI_TransmitReceive+0x1b8>
      {
        *((uint16_t *)hspi->pRxBuffPtr) = (uint16_t)hspi->Instance->DR;
 8002256:	68fb      	ldr	r3, [r7, #12]
 8002258:	681b      	ldr	r3, [r3, #0]
 800225a:	68da      	ldr	r2, [r3, #12]
 800225c:	68fb      	ldr	r3, [r7, #12]
 800225e:	6b9b      	ldr	r3, [r3, #56]	; 0x38
 8002260:	b292      	uxth	r2, r2
 8002262:	801a      	strh	r2, [r3, #0]
        hspi->pRxBuffPtr += sizeof(uint16_t);
 8002264:	68fb      	ldr	r3, [r7, #12]
 8002266:	6b9b      	ldr	r3, [r3, #56]	; 0x38
 8002268:	1c9a      	adds	r2, r3, #2
 800226a:	68fb      	ldr	r3, [r7, #12]
 800226c:	639a      	str	r2, [r3, #56]	; 0x38
        hspi->RxXferCount--;
 800226e:	68fb      	ldr	r3, [r7, #12]
 8002270:	8fdb      	ldrh	r3, [r3, #62]	; 0x3e
 8002272:	b29b      	uxth	r3, r3
 8002274:	3b01      	subs	r3, #1
 8002276:	b29a      	uxth	r2, r3
 8002278:	68fb      	ldr	r3, [r7, #12]
 800227a:	87da      	strh	r2, [r3, #62]	; 0x3e
        /* Next Data is a Transmission (Tx). Tx is allowed */
        txallowed = 1U;
 800227c:	2301      	movs	r3, #1
 800227e:	62fb      	str	r3, [r7, #44]	; 0x2c
      }
      if (((HAL_GetTick() - tickstart) >=  Timeout) && (Timeout != HAL_MAX_DELAY))
 8002280:	f7fe feea 	bl	8001058 <HAL_GetTick>
 8002284:	4602      	mov	r2, r0
 8002286:	6a7b      	ldr	r3, [r7, #36]	; 0x24
 8002288:	1ad3      	subs	r3, r2, r3
 800228a:	6bba      	ldr	r2, [r7, #56]	; 0x38
 800228c:	429a      	cmp	r2, r3
 800228e:	d807      	bhi.n	80022a0 <HAL_SPI_TransmitReceive+0x1d8>
 8002290:	6bbb      	ldr	r3, [r7, #56]	; 0x38
 8002292:	f1b3 3fff 	cmp.w	r3, #4294967295
 8002296:	d003      	beq.n	80022a0 <HAL_SPI_TransmitReceive+0x1d8>
      {
        errorcode = HAL_TIMEOUT;
 8002298:	2303      	movs	r3, #3
 800229a:	f887 302b 	strb.w	r3, [r7, #43]	; 0x2b
        goto error;
 800229e:	e0a7      	b.n	80023f0 <HAL_SPI_TransmitReceive+0x328>
    while ((hspi->TxXferCount > 0U) || (hspi->RxXferCount > 0U))
 80022a0:	68fb      	ldr	r3, [r7, #12]
 80022a2:	8edb      	ldrh	r3, [r3, #54]	; 0x36
 80022a4:	b29b      	uxth	r3, r3
 80022a6:	2b00      	cmp	r3, #0
 80022a8:	d1a6      	bne.n	80021f8 <HAL_SPI_TransmitReceive+0x130>
 80022aa:	68fb      	ldr	r3, [r7, #12]
 80022ac:	8fdb      	ldrh	r3, [r3, #62]	; 0x3e
 80022ae:	b29b      	uxth	r3, r3
 80022b0:	2b00      	cmp	r3, #0
 80022b2:	d1a1      	bne.n	80021f8 <HAL_SPI_TransmitReceive+0x130>
 80022b4:	e07c      	b.n	80023b0 <HAL_SPI_TransmitReceive+0x2e8>
    }
  }
  /* Transmit and Receive data in 8 Bit mode */
  else
  {
    if ((hspi->Init.Mode == SPI_MODE_SLAVE) || (initial_TxXferCount == 0x01U))
 80022b6:	68fb      	ldr	r3, [r7, #12]
 80022b8:	685b      	ldr	r3, [r3, #4]
 80022ba:	2b00      	cmp	r3, #0
 80022bc:	d002      	beq.n	80022c4 <HAL_SPI_TransmitReceive+0x1fc>
 80022be:	8b7b      	ldrh	r3, [r7, #26]
 80022c0:	2b01      	cmp	r3, #1
 80022c2:	d16b      	bne.n	800239c <HAL_SPI_TransmitReceive+0x2d4>
    {
      *((__IO uint8_t *)&hspi->Instance->DR) = (*hspi->pTxBuffPtr);
 80022c4:	68fb      	ldr	r3, [r7, #12]
 80022c6:	6b1a      	ldr	r2, [r3, #48]	; 0x30
 80022c8:	68fb      	ldr	r3, [r7, #12]
 80022ca:	681b      	ldr	r3, [r3, #0]
 80022cc:	330c      	adds	r3, #12
 80022ce:	7812      	ldrb	r2, [r2, #0]
 80022d0:	701a      	strb	r2, [r3, #0]
      hspi->pTxBuffPtr += sizeof(uint8_t);
 80022d2:	68fb      	ldr	r3, [r7, #12]
 80022d4:	6b1b      	ldr	r3, [r3, #48]	; 0x30
 80022d6:	1c5a      	adds	r2, r3, #1
 80022d8:	68fb      	ldr	r3, [r7, #12]
 80022da:	631a      	str	r2, [r3, #48]	; 0x30
      hspi->TxXferCount--;
 80022dc:	68fb      	ldr	r3, [r7, #12]
 80022de:	8edb      	ldrh	r3, [r3, #54]	; 0x36
 80022e0:	b29b      	uxth	r3, r3
 80022e2:	3b01      	subs	r3, #1
 80022e4:	b29a      	uxth	r2, r3
 80022e6:	68fb      	ldr	r3, [r7, #12]
 80022e8:	86da      	strh	r2, [r3, #54]	; 0x36
    }
    while ((hspi->TxXferCount > 0U) || (hspi->RxXferCount > 0U))
 80022ea:	e057      	b.n	800239c <HAL_SPI_TransmitReceive+0x2d4>
    {
      /* Check TXE flag */
      if ((__HAL_SPI_GET_FLAG(hspi, SPI_FLAG_TXE)) && (hspi->TxXferCount > 0U) && (txallowed == 1U))
 80022ec:	68fb      	ldr	r3, [r7, #12]
 80022ee:	681b      	ldr	r3, [r3, #0]
 80022f0:	689b      	ldr	r3, [r3, #8]
 80022f2:	f003 0302 	and.w	r3, r3, #2
 80022f6:	2b02      	cmp	r3, #2
 80022f8:	d11c      	bne.n	8002334 <HAL_SPI_TransmitReceive+0x26c>
 80022fa:	68fb      	ldr	r3, [r7, #12]
 80022fc:	8edb      	ldrh	r3, [r3, #54]	; 0x36
 80022fe:	b29b      	uxth	r3, r3
 8002300:	2b00      	cmp	r3, #0
 8002302:	d017      	beq.n	8002334 <HAL_SPI_TransmitReceive+0x26c>
 8002304:	6afb      	ldr	r3, [r7, #44]	; 0x2c
 8002306:	2b01      	cmp	r3, #1
 8002308:	d114      	bne.n	8002334 <HAL_SPI_TransmitReceive+0x26c>
      {
        *(__IO uint8_t *)&hspi->Instance->DR = (*hspi->pTxBuffPtr);
 800230a:	68fb      	ldr	r3, [r7, #12]
 800230c:	6b1a      	ldr	r2, [r3, #48]	; 0x30
 800230e:	68fb      	ldr	r3, [r7, #12]
 8002310:	681b      	ldr	r3, [r3, #0]
 8002312:	330c      	adds	r3, #12
 8002314:	7812      	ldrb	r2, [r2, #0]
 8002316:	701a      	strb	r2, [r3, #0]
        hspi->pTxBuffPtr++;
 8002318:	68fb      	ldr	r3, [r7, #12]
 800231a:	6b1b      	ldr	r3, [r3, #48]	; 0x30
 800231c:	1c5a      	adds	r2, r3, #1
 800231e:	68fb      	ldr	r3, [r7, #12]
 8002320:	631a      	str	r2, [r3, #48]	; 0x30
        hspi->TxXferCount--;
 8002322:	68fb      	ldr	r3, [r7, #12]
 8002324:	8edb      	ldrh	r3, [r3, #54]	; 0x36
 8002326:	b29b      	uxth	r3, r3
 8002328:	3b01      	subs	r3, #1
 800232a:	b29a      	uxth	r2, r3
 800232c:	68fb      	ldr	r3, [r7, #12]
 800232e:	86da      	strh	r2, [r3, #54]	; 0x36
        /* Next Data is a reception (Rx). Tx not allowed */
        txallowed = 0U;
 8002330:	2300      	movs	r3, #0
 8002332:	62fb      	str	r3, [r7, #44]	; 0x2c
        }
#endif /* USE_SPI_CRC */
      }

      /* Wait until RXNE flag is reset */
      if ((__HAL_SPI_GET_FLAG(hspi, SPI_FLAG_RXNE)) && (hspi->RxXferCount > 0U))
 8002334:	68fb      	ldr	r3, [r7, #12]
 8002336:	681b      	ldr	r3, [r3, #0]
 8002338:	689b      	ldr	r3, [r3, #8]
 800233a:	f003 0301 	and.w	r3, r3, #1
 800233e:	2b01      	cmp	r3, #1
 8002340:	d119      	bne.n	8002376 <HAL_SPI_TransmitReceive+0x2ae>
 8002342:	68fb      	ldr	r3, [r7, #12]
 8002344:	8fdb      	ldrh	r3, [r3, #62]	; 0x3e
 8002346:	b29b      	uxth	r3, r3
 8002348:	2b00      	cmp	r3, #0
 800234a:	d014      	beq.n	8002376 <HAL_SPI_TransmitReceive+0x2ae>
      {
        (*(uint8_t *)hspi->pRxBuffPtr) = hspi->Instance->DR;
 800234c:	68fb      	ldr	r3, [r7, #12]
 800234e:	681b      	ldr	r3, [r3, #0]
 8002350:	68da      	ldr	r2, [r3, #12]
 8002352:	68fb      	ldr	r3, [r7, #12]
 8002354:	6b9b      	ldr	r3, [r3, #56]	; 0x38
 8002356:	b2d2      	uxtb	r2, r2
 8002358:	701a      	strb	r2, [r3, #0]
        hspi->pRxBuffPtr++;
 800235a:	68fb      	ldr	r3, [r7, #12]
 800235c:	6b9b      	ldr	r3, [r3, #56]	; 0x38
 800235e:	1c5a      	adds	r2, r3, #1
 8002360:	68fb      	ldr	r3, [r7, #12]
 8002362:	639a      	str	r2, [r3, #56]	; 0x38
        hspi->RxXferCount--;
 8002364:	68fb      	ldr	r3, [r7, #12]
 8002366:	8fdb      	ldrh	r3, [r3, #62]	; 0x3e
 8002368:	b29b      	uxth	r3, r3
 800236a:	3b01      	subs	r3, #1
 800236c:	b29a      	uxth	r2, r3
 800236e:	68fb      	ldr	r3, [r7, #12]
 8002370:	87da      	strh	r2, [r3, #62]	; 0x3e
        /* Next Data is a Transmission (Tx). Tx is allowed */
        txallowed = 1U;
 8002372:	2301      	movs	r3, #1
 8002374:	62fb      	str	r3, [r7, #44]	; 0x2c
      }
      if ((((HAL_GetTick() - tickstart) >=  Timeout) && ((Timeout != HAL_MAX_DELAY))) || (Timeout == 0U))
 8002376:	f7fe fe6f 	bl	8001058 <HAL_GetTick>
 800237a:	4602      	mov	r2, r0
 800237c:	6a7b      	ldr	r3, [r7, #36]	; 0x24
 800237e:	1ad3      	subs	r3, r2, r3
 8002380:	6bba      	ldr	r2, [r7, #56]	; 0x38
 8002382:	429a      	cmp	r2, r3
 8002384:	d803      	bhi.n	800238e <HAL_SPI_TransmitReceive+0x2c6>
 8002386:	6bbb      	ldr	r3, [r7, #56]	; 0x38
 8002388:	f1b3 3fff 	cmp.w	r3, #4294967295
 800238c:	d102      	bne.n	8002394 <HAL_SPI_TransmitReceive+0x2cc>
 800238e:	6bbb      	ldr	r3, [r7, #56]	; 0x38
 8002390:	2b00      	cmp	r3, #0
 8002392:	d103      	bne.n	800239c <HAL_SPI_TransmitReceive+0x2d4>
      {
        errorcode = HAL_TIMEOUT;
 8002394:	2303      	movs	r3, #3
 8002396:	f887 302b 	strb.w	r3, [r7, #43]	; 0x2b
        goto error;
 800239a:	e029      	b.n	80023f0 <HAL_SPI_TransmitReceive+0x328>
    while ((hspi->TxXferCount > 0U) || (hspi->RxXferCount > 0U))
 800239c:	68fb      	ldr	r3, [r7, #12]
 800239e:	8edb      	ldrh	r3, [r3, #54]	; 0x36
 80023a0:	b29b      	uxth	r3, r3
 80023a2:	2b00      	cmp	r3, #0
 80023a4:	d1a2      	bne.n	80022ec <HAL_SPI_TransmitReceive+0x224>
 80023a6:	68fb      	ldr	r3, [r7, #12]
 80023a8:	8fdb      	ldrh	r3, [r3, #62]	; 0x3e
 80023aa:	b29b      	uxth	r3, r3
 80023ac:	2b00      	cmp	r3, #0
 80023ae:	d19d      	bne.n	80022ec <HAL_SPI_TransmitReceive+0x224>
    errorcode = HAL_ERROR;
  }
#endif /* USE_SPI_CRC */

  /* Check the end of the transaction */
  if (SPI_EndRxTxTransaction(hspi, Timeout, tickstart) != HAL_OK)
 80023b0:	6a7a      	ldr	r2, [r7, #36]	; 0x24
 80023b2:	6bb9      	ldr	r1, [r7, #56]	; 0x38
 80023b4:	68f8      	ldr	r0, [r7, #12]
 80023b6:	f000 f8a1 	bl	80024fc <SPI_EndRxTxTransaction>
 80023ba:	4603      	mov	r3, r0
 80023bc:	2b00      	cmp	r3, #0
 80023be:	d006      	beq.n	80023ce <HAL_SPI_TransmitReceive+0x306>
  {
    errorcode = HAL_ERROR;
 80023c0:	2301      	movs	r3, #1
 80023c2:	f887 302b 	strb.w	r3, [r7, #43]	; 0x2b
    hspi->ErrorCode = HAL_SPI_ERROR_FLAG;
 80023c6:	68fb      	ldr	r3, [r7, #12]
 80023c8:	2220      	movs	r2, #32
 80023ca:	655a      	str	r2, [r3, #84]	; 0x54
    goto error;
 80023cc:	e010      	b.n	80023f0 <HAL_SPI_TransmitReceive+0x328>
  }

  /* Clear overrun flag in 2 Lines communication mode because received is not read */
  if (hspi->Init.Direction == SPI_DIRECTION_2LINES)
 80023ce:	68fb      	ldr	r3, [r7, #12]
 80023d0:	689b      	ldr	r3, [r3, #8]
 80023d2:	2b00      	cmp	r3, #0
 80023d4:	d10b      	bne.n	80023ee <HAL_SPI_TransmitReceive+0x326>
  {
    __HAL_SPI_CLEAR_OVRFLAG(hspi);
 80023d6:	2300      	movs	r3, #0
 80023d8:	617b      	str	r3, [r7, #20]
 80023da:	68fb      	ldr	r3, [r7, #12]
 80023dc:	681b      	ldr	r3, [r3, #0]
 80023de:	68db      	ldr	r3, [r3, #12]
 80023e0:	617b      	str	r3, [r7, #20]
 80023e2:	68fb      	ldr	r3, [r7, #12]
 80023e4:	681b      	ldr	r3, [r3, #0]
 80023e6:	689b      	ldr	r3, [r3, #8]
 80023e8:	617b      	str	r3, [r7, #20]
 80023ea:	697b      	ldr	r3, [r7, #20]
 80023ec:	e000      	b.n	80023f0 <HAL_SPI_TransmitReceive+0x328>
  }

error :
 80023ee:	bf00      	nop
  hspi->State = HAL_SPI_STATE_READY;
 80023f0:	68fb      	ldr	r3, [r7, #12]
 80023f2:	2201      	movs	r2, #1
 80023f4:	f883 2051 	strb.w	r2, [r3, #81]	; 0x51
  __HAL_UNLOCK(hspi);
 80023f8:	68fb      	ldr	r3, [r7, #12]
 80023fa:	2200      	movs	r2, #0
 80023fc:	f883 2050 	strb.w	r2, [r3, #80]	; 0x50
  return errorcode;
 8002400:	f897 302b 	ldrb.w	r3, [r7, #43]	; 0x2b
}
 8002404:	4618      	mov	r0, r3
 8002406:	3730      	adds	r7, #48	; 0x30
 8002408:	46bd      	mov	sp, r7
 800240a:	bd80      	pop	{r7, pc}

0800240c <HAL_SPI_GetState>:
  * @param  hspi pointer to a SPI_HandleTypeDef structure that contains
  *               the configuration information for SPI module.
  * @retval SPI state
  */
HAL_SPI_StateTypeDef HAL_SPI_GetState(SPI_HandleTypeDef *hspi)
{
 800240c:	b480      	push	{r7}
 800240e:	b083      	sub	sp, #12
 8002410:	af00      	add	r7, sp, #0
 8002412:	6078      	str	r0, [r7, #4]
  /* Return SPI handle state */
  return hspi->State;
 8002414:	687b      	ldr	r3, [r7, #4]
 8002416:	f893 3051 	ldrb.w	r3, [r3, #81]	; 0x51
 800241a:	b2db      	uxtb	r3, r3
}
 800241c:	4618      	mov	r0, r3
 800241e:	370c      	adds	r7, #12
 8002420:	46bd      	mov	sp, r7
 8002422:	f85d 7b04 	ldr.w	r7, [sp], #4
 8002426:	4770      	bx	lr

08002428 <SPI_WaitFlagStateUntilTimeout>:
  * @param  Tickstart tick start value
  * @retval HAL status
  */
static HAL_StatusTypeDef SPI_WaitFlagStateUntilTimeout(SPI_HandleTypeDef *hspi, uint32_t Flag, FlagStatus State,
                                                       uint32_t Timeout, uint32_t Tickstart)
{
 8002428:	b580      	push	{r7, lr}
 800242a:	b084      	sub	sp, #16
 800242c:	af00      	add	r7, sp, #0
 800242e:	60f8      	str	r0, [r7, #12]
 8002430:	60b9      	str	r1, [r7, #8]
 8002432:	603b      	str	r3, [r7, #0]
 8002434:	4613      	mov	r3, r2
 8002436:	71fb      	strb	r3, [r7, #7]
  while ((__HAL_SPI_GET_FLAG(hspi, Flag) ? SET : RESET) != State)
 8002438:	e04c      	b.n	80024d4 <SPI_WaitFlagStateUntilTimeout+0xac>
  {
    if (Timeout != HAL_MAX_DELAY)
 800243a:	683b      	ldr	r3, [r7, #0]
 800243c:	f1b3 3fff 	cmp.w	r3, #4294967295
 8002440:	d048      	beq.n	80024d4 <SPI_WaitFlagStateUntilTimeout+0xac>
    {
      if (((HAL_GetTick() - Tickstart) >= Timeout) || (Timeout == 0U))
 8002442:	f7fe fe09 	bl	8001058 <HAL_GetTick>
 8002446:	4602      	mov	r2, r0
 8002448:	69bb      	ldr	r3, [r7, #24]
 800244a:	1ad3      	subs	r3, r2, r3
 800244c:	683a      	ldr	r2, [r7, #0]
 800244e:	429a      	cmp	r2, r3
 8002450:	d902      	bls.n	8002458 <SPI_WaitFlagStateUntilTimeout+0x30>
 8002452:	683b      	ldr	r3, [r7, #0]
 8002454:	2b00      	cmp	r3, #0
 8002456:	d13d      	bne.n	80024d4 <SPI_WaitFlagStateUntilTimeout+0xac>
        /* Disable the SPI and reset the CRC: the CRC value should be cleared
        on both master and slave sides in order to resynchronize the master
        and slave for their respective CRC calculation */

        /* Disable TXE, RXNE and ERR interrupts for the interrupt process */
        __HAL_SPI_DISABLE_IT(hspi, (SPI_IT_TXE | SPI_IT_RXNE | SPI_IT_ERR));
 8002458:	68fb      	ldr	r3, [r7, #12]
 800245a:	681b      	ldr	r3, [r3, #0]
 800245c:	685a      	ldr	r2, [r3, #4]
 800245e:	68fb      	ldr	r3, [r7, #12]
 8002460:	681b      	ldr	r3, [r3, #0]
 8002462:	f022 02e0 	bic.w	r2, r2, #224	; 0xe0
 8002466:	605a      	str	r2, [r3, #4]

        if ((hspi->Init.Mode == SPI_MODE_MASTER) && ((hspi->Init.Direction == SPI_DIRECTION_1LINE)
 8002468:	68fb      	ldr	r3, [r7, #12]
 800246a:	685b      	ldr	r3, [r3, #4]
 800246c:	f5b3 7f82 	cmp.w	r3, #260	; 0x104
 8002470:	d111      	bne.n	8002496 <SPI_WaitFlagStateUntilTimeout+0x6e>
 8002472:	68fb      	ldr	r3, [r7, #12]
 8002474:	689b      	ldr	r3, [r3, #8]
 8002476:	f5b3 4f00 	cmp.w	r3, #32768	; 0x8000
 800247a:	d004      	beq.n	8002486 <SPI_WaitFlagStateUntilTimeout+0x5e>
                                                     || (hspi->Init.Direction == SPI_DIRECTION_2LINES_RXONLY)))
 800247c:	68fb      	ldr	r3, [r7, #12]
 800247e:	689b      	ldr	r3, [r3, #8]
 8002480:	f5b3 6f80 	cmp.w	r3, #1024	; 0x400
 8002484:	d107      	bne.n	8002496 <SPI_WaitFlagStateUntilTimeout+0x6e>
        {
          /* Disable SPI peripheral */
          __HAL_SPI_DISABLE(hspi);
 8002486:	68fb      	ldr	r3, [r7, #12]
 8002488:	681b      	ldr	r3, [r3, #0]
 800248a:	681a      	ldr	r2, [r3, #0]
 800248c:	68fb      	ldr	r3, [r7, #12]
 800248e:	681b      	ldr	r3, [r3, #0]
 8002490:	f022 0240 	bic.w	r2, r2, #64	; 0x40
 8002494:	601a      	str	r2, [r3, #0]
        }

        /* Reset CRC Calculation */
        if (hspi->Init.CRCCalculation == SPI_CRCCALCULATION_ENABLE)
 8002496:	68fb      	ldr	r3, [r7, #12]
 8002498:	6a9b      	ldr	r3, [r3, #40]	; 0x28
 800249a:	f5b3 5f00 	cmp.w	r3, #8192	; 0x2000
 800249e:	d10f      	bne.n	80024c0 <SPI_WaitFlagStateUntilTimeout+0x98>
        {
          SPI_RESET_CRC(hspi);
 80024a0:	68fb      	ldr	r3, [r7, #12]
 80024a2:	681b      	ldr	r3, [r3, #0]
 80024a4:	681a      	ldr	r2, [r3, #0]
 80024a6:	68fb      	ldr	r3, [r7, #12]
 80024a8:	681b      	ldr	r3, [r3, #0]
 80024aa:	f422 5200 	bic.w	r2, r2, #8192	; 0x2000
 80024ae:	601a      	str	r2, [r3, #0]
 80024b0:	68fb      	ldr	r3, [r7, #12]
 80024b2:	681b      	ldr	r3, [r3, #0]
 80024b4:	681a      	ldr	r2, [r3, #0]
 80024b6:	68fb      	ldr	r3, [r7, #12]
 80024b8:	681b      	ldr	r3, [r3, #0]
 80024ba:	f442 5200 	orr.w	r2, r2, #8192	; 0x2000
 80024be:	601a      	str	r2, [r3, #0]
        }

        hspi->State = HAL_SPI_STATE_READY;
 80024c0:	68fb      	ldr	r3, [r7, #12]
 80024c2:	2201      	movs	r2, #1
 80024c4:	f883 2051 	strb.w	r2, [r3, #81]	; 0x51

        /* Process Unlocked */
        __HAL_UNLOCK(hspi);
 80024c8:	68fb      	ldr	r3, [r7, #12]
 80024ca:	2200      	movs	r2, #0
 80024cc:	f883 2050 	strb.w	r2, [r3, #80]	; 0x50

        return HAL_TIMEOUT;
 80024d0:	2303      	movs	r3, #3
 80024d2:	e00f      	b.n	80024f4 <SPI_WaitFlagStateUntilTimeout+0xcc>
  while ((__HAL_SPI_GET_FLAG(hspi, Flag) ? SET : RESET) != State)
 80024d4:	68fb      	ldr	r3, [r7, #12]
 80024d6:	681b      	ldr	r3, [r3, #0]
 80024d8:	689a      	ldr	r2, [r3, #8]
 80024da:	68bb      	ldr	r3, [r7, #8]
 80024dc:	4013      	ands	r3, r2
 80024de:	68ba      	ldr	r2, [r7, #8]
 80024e0:	429a      	cmp	r2, r3
 80024e2:	bf0c      	ite	eq
 80024e4:	2301      	moveq	r3, #1
 80024e6:	2300      	movne	r3, #0
 80024e8:	b2db      	uxtb	r3, r3
 80024ea:	461a      	mov	r2, r3
 80024ec:	79fb      	ldrb	r3, [r7, #7]
 80024ee:	429a      	cmp	r2, r3
 80024f0:	d1a3      	bne.n	800243a <SPI_WaitFlagStateUntilTimeout+0x12>
      }
    }
  }

  return HAL_OK;
 80024f2:	2300      	movs	r3, #0
}
 80024f4:	4618      	mov	r0, r3
 80024f6:	3710      	adds	r7, #16
 80024f8:	46bd      	mov	sp, r7
 80024fa:	bd80      	pop	{r7, pc}

080024fc <SPI_EndRxTxTransaction>:
  * @param  Timeout Timeout duration
  * @param  Tickstart tick start value
  * @retval HAL status
  */
static HAL_StatusTypeDef SPI_EndRxTxTransaction(SPI_HandleTypeDef *hspi, uint32_t Timeout, uint32_t Tickstart)
{
 80024fc:	b580      	push	{r7, lr}
 80024fe:	b088      	sub	sp, #32
 8002500:	af02      	add	r7, sp, #8
 8002502:	60f8      	str	r0, [r7, #12]
 8002504:	60b9      	str	r1, [r7, #8]
 8002506:	607a      	str	r2, [r7, #4]
  /* Timeout in s */
  __IO uint32_t count = SPI_BSY_FLAG_WORKAROUND_TIMEOUT * (SystemCoreClock / 24U / 1000000U);
 8002508:	4b1b      	ldr	r3, [pc, #108]	; (8002578 <SPI_EndRxTxTransaction+0x7c>)
 800250a:	681b      	ldr	r3, [r3, #0]
 800250c:	4a1b      	ldr	r2, [pc, #108]	; (800257c <SPI_EndRxTxTransaction+0x80>)
 800250e:	fba2 2303 	umull	r2, r3, r2, r3
 8002512:	0d5b      	lsrs	r3, r3, #21
 8002514:	f44f 727a 	mov.w	r2, #1000	; 0x3e8
 8002518:	fb02 f303 	mul.w	r3, r2, r3
 800251c:	617b      	str	r3, [r7, #20]
  /* Erratasheet: BSY bit may stay high at the end of a data transfer in Slave mode */
  if (hspi->Init.Mode == SPI_MODE_MASTER)
 800251e:	68fb      	ldr	r3, [r7, #12]
 8002520:	685b      	ldr	r3, [r3, #4]
 8002522:	f5b3 7f82 	cmp.w	r3, #260	; 0x104
 8002526:	d112      	bne.n	800254e <SPI_EndRxTxTransaction+0x52>
  {
    /* Control the BSY flag */
    if (SPI_WaitFlagStateUntilTimeout(hspi, SPI_FLAG_BSY, RESET, Timeout, Tickstart) != HAL_OK)
 8002528:	687b      	ldr	r3, [r7, #4]
 800252a:	9300      	str	r3, [sp, #0]
 800252c:	68bb      	ldr	r3, [r7, #8]
 800252e:	2200      	movs	r2, #0
 8002530:	2180      	movs	r1, #128	; 0x80
 8002532:	68f8      	ldr	r0, [r7, #12]
 8002534:	f7ff ff78 	bl	8002428 <SPI_WaitFlagStateUntilTimeout>
 8002538:	4603      	mov	r3, r0
 800253a:	2b00      	cmp	r3, #0
 800253c:	d016      	beq.n	800256c <SPI_EndRxTxTransaction+0x70>
    {
      SET_BIT(hspi->ErrorCode, HAL_SPI_ERROR_FLAG);
 800253e:	68fb      	ldr	r3, [r7, #12]
 8002540:	6d5b      	ldr	r3, [r3, #84]	; 0x54
 8002542:	f043 0220 	orr.w	r2, r3, #32
 8002546:	68fb      	ldr	r3, [r7, #12]
 8002548:	655a      	str	r2, [r3, #84]	; 0x54
      return HAL_TIMEOUT;
 800254a:	2303      	movs	r3, #3
 800254c:	e00f      	b.n	800256e <SPI_EndRxTxTransaction+0x72>
    * User have to calculate the timeout value to fit with the time of 1 byte transfer.
    * This time is directly link with the SPI clock from Master device.
    */
    do
    {
      if (count == 0U)
 800254e:	697b      	ldr	r3, [r7, #20]
 8002550:	2b00      	cmp	r3, #0
 8002552:	d00a      	beq.n	800256a <SPI_EndRxTxTransaction+0x6e>
      {
        break;
      }
      count--;
 8002554:	697b      	ldr	r3, [r7, #20]
 8002556:	3b01      	subs	r3, #1
 8002558:	617b      	str	r3, [r7, #20]
    } while (__HAL_SPI_GET_FLAG(hspi, SPI_FLAG_BSY) != RESET);
 800255a:	68fb      	ldr	r3, [r7, #12]
 800255c:	681b      	ldr	r3, [r3, #0]
 800255e:	689b      	ldr	r3, [r3, #8]
 8002560:	f003 0380 	and.w	r3, r3, #128	; 0x80
 8002564:	2b80      	cmp	r3, #128	; 0x80
 8002566:	d0f2      	beq.n	800254e <SPI_EndRxTxTransaction+0x52>
 8002568:	e000      	b.n	800256c <SPI_EndRxTxTransaction+0x70>
        break;
 800256a:	bf00      	nop
  }

  return HAL_OK;
 800256c:	2300      	movs	r3, #0
}
 800256e:	4618      	mov	r0, r3
 8002570:	3718      	adds	r7, #24
 8002572:	46bd      	mov	sp, r7
 8002574:	bd80      	pop	{r7, pc}
 8002576:	bf00      	nop
 8002578:	20000000 	.word	0x20000000
 800257c:	165e9f81 	.word	0x165e9f81

08002580 <HAL_UART_Init>:
  * @param  huart  Pointer to a UART_HandleTypeDef structure that contains
  *                the configuration information for the specified UART module.
  * @retval HAL status
  */
HAL_StatusTypeDef HAL_UART_Init(UART_HandleTypeDef *huart)
{
 8002580:	b580      	push	{r7, lr}
 8002582:	b082      	sub	sp, #8
 8002584:	af00      	add	r7, sp, #0
 8002586:	6078      	str	r0, [r7, #4]
  /* Check the UART handle allocation */
  if (huart == NULL)
 8002588:	687b      	ldr	r3, [r7, #4]
 800258a:	2b00      	cmp	r3, #0
 800258c:	d101      	bne.n	8002592 <HAL_UART_Init+0x12>
  {
    return HAL_ERROR;
 800258e:	2301      	movs	r3, #1
 8002590:	e03f      	b.n	8002612 <HAL_UART_Init+0x92>
    assert_param(IS_UART_INSTANCE(huart->Instance));
  }
  assert_param(IS_UART_WORD_LENGTH(huart->Init.WordLength));
  assert_param(IS_UART_OVERSAMPLING(huart->Init.OverSampling));

  if (huart->gState == HAL_UART_STATE_RESET)
 8002592:	687b      	ldr	r3, [r7, #4]
 8002594:	f893 3039 	ldrb.w	r3, [r3, #57]	; 0x39
 8002598:	b2db      	uxtb	r3, r3
 800259a:	2b00      	cmp	r3, #0
 800259c:	d106      	bne.n	80025ac <HAL_UART_Init+0x2c>
  {
    /* Allocate lock resource and initialize it */
    huart->Lock = HAL_UNLOCKED;
 800259e:	687b      	ldr	r3, [r7, #4]
 80025a0:	2200      	movs	r2, #0
 80025a2:	f883 2038 	strb.w	r2, [r3, #56]	; 0x38

    /* Init the low level hardware */
    huart->MspInitCallback(huart);
#else
    /* Init the low level hardware : GPIO, CLOCK */
    HAL_UART_MspInit(huart);
 80025a6:	6878      	ldr	r0, [r7, #4]
 80025a8:	f7fe fc08 	bl	8000dbc <HAL_UART_MspInit>
#endif /* (USE_HAL_UART_REGISTER_CALLBACKS) */
  }

  huart->gState = HAL_UART_STATE_BUSY;
 80025ac:	687b      	ldr	r3, [r7, #4]
 80025ae:	2224      	movs	r2, #36	; 0x24
 80025b0:	f883 2039 	strb.w	r2, [r3, #57]	; 0x39

  /* Disable the peripheral */
  __HAL_UART_DISABLE(huart);
 80025b4:	687b      	ldr	r3, [r7, #4]
 80025b6:	681b      	ldr	r3, [r3, #0]
 80025b8:	68da      	ldr	r2, [r3, #12]
 80025ba:	687b      	ldr	r3, [r7, #4]
 80025bc:	681b      	ldr	r3, [r3, #0]
 80025be:	f422 5200 	bic.w	r2, r2, #8192	; 0x2000
 80025c2:	60da      	str	r2, [r3, #12]

  /* Set the UART Communication parameters */
  UART_SetConfig(huart);
 80025c4:	6878      	ldr	r0, [r7, #4]
 80025c6:	f000 f90b 	bl	80027e0 <UART_SetConfig>

  /* In asynchronous mode, the following bits must be kept cleared:
     - LINEN and CLKEN bits in the USART_CR2 register,
     - SCEN, HDSEL and IREN  bits in the USART_CR3 register.*/
  CLEAR_BIT(huart->Instance->CR2, (USART_CR2_LINEN | USART_CR2_CLKEN));
 80025ca:	687b      	ldr	r3, [r7, #4]
 80025cc:	681b      	ldr	r3, [r3, #0]
 80025ce:	691a      	ldr	r2, [r3, #16]
 80025d0:	687b      	ldr	r3, [r7, #4]
 80025d2:	681b      	ldr	r3, [r3, #0]
 80025d4:	f422 4290 	bic.w	r2, r2, #18432	; 0x4800
 80025d8:	611a      	str	r2, [r3, #16]
  CLEAR_BIT(huart->Instance->CR3, (USART_CR3_SCEN | USART_CR3_HDSEL | USART_CR3_IREN));
 80025da:	687b      	ldr	r3, [r7, #4]
 80025dc:	681b      	ldr	r3, [r3, #0]
 80025de:	695a      	ldr	r2, [r3, #20]
 80025e0:	687b      	ldr	r3, [r7, #4]
 80025e2:	681b      	ldr	r3, [r3, #0]
 80025e4:	f022 022a 	bic.w	r2, r2, #42	; 0x2a
 80025e8:	615a      	str	r2, [r3, #20]

  /* Enable the peripheral */
  __HAL_UART_ENABLE(huart);
 80025ea:	687b      	ldr	r3, [r7, #4]
 80025ec:	681b      	ldr	r3, [r3, #0]
 80025ee:	68da      	ldr	r2, [r3, #12]
 80025f0:	687b      	ldr	r3, [r7, #4]
 80025f2:	681b      	ldr	r3, [r3, #0]
 80025f4:	f442 5200 	orr.w	r2, r2, #8192	; 0x2000
 80025f8:	60da      	str	r2, [r3, #12]

  /* Initialize the UART state */
  huart->ErrorCode = HAL_UART_ERROR_NONE;
 80025fa:	687b      	ldr	r3, [r7, #4]
 80025fc:	2200      	movs	r2, #0
 80025fe:	63da      	str	r2, [r3, #60]	; 0x3c
  huart->gState = HAL_UART_STATE_READY;
 8002600:	687b      	ldr	r3, [r7, #4]
 8002602:	2220      	movs	r2, #32
 8002604:	f883 2039 	strb.w	r2, [r3, #57]	; 0x39
  huart->RxState = HAL_UART_STATE_READY;
 8002608:	687b      	ldr	r3, [r7, #4]
 800260a:	2220      	movs	r2, #32
 800260c:	f883 203a 	strb.w	r2, [r3, #58]	; 0x3a

  return HAL_OK;
 8002610:	2300      	movs	r3, #0
}
 8002612:	4618      	mov	r0, r3
 8002614:	3708      	adds	r7, #8
 8002616:	46bd      	mov	sp, r7
 8002618:	bd80      	pop	{r7, pc}

0800261a <HAL_UART_Transmit>:
  * @param  Size  Amount of data elements (u8 or u16) to be sent
  * @param  Timeout Timeout duration
  * @retval HAL status
  */
HAL_StatusTypeDef HAL_UART_Transmit(UART_HandleTypeDef *huart, uint8_t *pData, uint16_t Size, uint32_t Timeout)
{
 800261a:	b580      	push	{r7, lr}
 800261c:	b088      	sub	sp, #32
 800261e:	af02      	add	r7, sp, #8
 8002620:	60f8      	str	r0, [r7, #12]
 8002622:	60b9      	str	r1, [r7, #8]
 8002624:	603b      	str	r3, [r7, #0]
 8002626:	4613      	mov	r3, r2
 8002628:	80fb      	strh	r3, [r7, #6]
  uint16_t *tmp;
  uint32_t tickstart = 0U;
 800262a:	2300      	movs	r3, #0
 800262c:	617b      	str	r3, [r7, #20]

  /* Check that a Tx process is not already ongoing */
  if (huart->gState == HAL_UART_STATE_READY)
 800262e:	68fb      	ldr	r3, [r7, #12]
 8002630:	f893 3039 	ldrb.w	r3, [r3, #57]	; 0x39
 8002634:	b2db      	uxtb	r3, r3
 8002636:	2b20      	cmp	r3, #32
 8002638:	f040 8083 	bne.w	8002742 <HAL_UART_Transmit+0x128>
  {
    if ((pData == NULL) || (Size == 0U))
 800263c:	68bb      	ldr	r3, [r7, #8]
 800263e:	2b00      	cmp	r3, #0
 8002640:	d002      	beq.n	8002648 <HAL_UART_Transmit+0x2e>
 8002642:	88fb      	ldrh	r3, [r7, #6]
 8002644:	2b00      	cmp	r3, #0
 8002646:	d101      	bne.n	800264c <HAL_UART_Transmit+0x32>
    {
      return  HAL_ERROR;
 8002648:	2301      	movs	r3, #1
 800264a:	e07b      	b.n	8002744 <HAL_UART_Transmit+0x12a>
    }

    /* Process Locked */
    __HAL_LOCK(huart);
 800264c:	68fb      	ldr	r3, [r7, #12]
 800264e:	f893 3038 	ldrb.w	r3, [r3, #56]	; 0x38
 8002652:	2b01      	cmp	r3, #1
 8002654:	d101      	bne.n	800265a <HAL_UART_Transmit+0x40>
 8002656:	2302      	movs	r3, #2
 8002658:	e074      	b.n	8002744 <HAL_UART_Transmit+0x12a>
 800265a:	68fb      	ldr	r3, [r7, #12]
 800265c:	2201      	movs	r2, #1
 800265e:	f883 2038 	strb.w	r2, [r3, #56]	; 0x38

    huart->ErrorCode = HAL_UART_ERROR_NONE;
 8002662:	68fb      	ldr	r3, [r7, #12]
 8002664:	2200      	movs	r2, #0
 8002666:	63da      	str	r2, [r3, #60]	; 0x3c
    huart->gState = HAL_UART_STATE_BUSY_TX;
 8002668:	68fb      	ldr	r3, [r7, #12]
 800266a:	2221      	movs	r2, #33	; 0x21
 800266c:	f883 2039 	strb.w	r2, [r3, #57]	; 0x39

    /* Init tickstart for timeout managment */
    tickstart = HAL_GetTick();
 8002670:	f7fe fcf2 	bl	8001058 <HAL_GetTick>
 8002674:	6178      	str	r0, [r7, #20]

    huart->TxXferSize = Size;
 8002676:	68fb      	ldr	r3, [r7, #12]
 8002678:	88fa      	ldrh	r2, [r7, #6]
 800267a:	849a      	strh	r2, [r3, #36]	; 0x24
    huart->TxXferCount = Size;
 800267c:	68fb      	ldr	r3, [r7, #12]
 800267e:	88fa      	ldrh	r2, [r7, #6]
 8002680:	84da      	strh	r2, [r3, #38]	; 0x26

    /* Process Unlocked */
    __HAL_UNLOCK(huart);
 8002682:	68fb      	ldr	r3, [r7, #12]
 8002684:	2200      	movs	r2, #0
 8002686:	f883 2038 	strb.w	r2, [r3, #56]	; 0x38

    while (huart->TxXferCount > 0U)
 800268a:	e042      	b.n	8002712 <HAL_UART_Transmit+0xf8>
    {
      huart->TxXferCount--;
 800268c:	68fb      	ldr	r3, [r7, #12]
 800268e:	8cdb      	ldrh	r3, [r3, #38]	; 0x26
 8002690:	b29b      	uxth	r3, r3
 8002692:	3b01      	subs	r3, #1
 8002694:	b29a      	uxth	r2, r3
 8002696:	68fb      	ldr	r3, [r7, #12]
 8002698:	84da      	strh	r2, [r3, #38]	; 0x26
      if (huart->Init.WordLength == UART_WORDLENGTH_9B)
 800269a:	68fb      	ldr	r3, [r7, #12]
 800269c:	689b      	ldr	r3, [r3, #8]
 800269e:	f5b3 5f80 	cmp.w	r3, #4096	; 0x1000
 80026a2:	d122      	bne.n	80026ea <HAL_UART_Transmit+0xd0>
      {
        if (UART_WaitOnFlagUntilTimeout(huart, UART_FLAG_TXE, RESET, tickstart, Timeout) != HAL_OK)
 80026a4:	683b      	ldr	r3, [r7, #0]
 80026a6:	9300      	str	r3, [sp, #0]
 80026a8:	697b      	ldr	r3, [r7, #20]
 80026aa:	2200      	movs	r2, #0
 80026ac:	2180      	movs	r1, #128	; 0x80
 80026ae:	68f8      	ldr	r0, [r7, #12]
 80026b0:	f000 f84c 	bl	800274c <UART_WaitOnFlagUntilTimeout>
 80026b4:	4603      	mov	r3, r0
 80026b6:	2b00      	cmp	r3, #0
 80026b8:	d001      	beq.n	80026be <HAL_UART_Transmit+0xa4>
        {
          return HAL_TIMEOUT;
 80026ba:	2303      	movs	r3, #3
 80026bc:	e042      	b.n	8002744 <HAL_UART_Transmit+0x12a>
        }
        tmp = (uint16_t *) pData;
 80026be:	68bb      	ldr	r3, [r7, #8]
 80026c0:	613b      	str	r3, [r7, #16]
        huart->Instance->DR = (*tmp & (uint16_t)0x01FF);
 80026c2:	693b      	ldr	r3, [r7, #16]
 80026c4:	881b      	ldrh	r3, [r3, #0]
 80026c6:	461a      	mov	r2, r3
 80026c8:	68fb      	ldr	r3, [r7, #12]
 80026ca:	681b      	ldr	r3, [r3, #0]
 80026cc:	f3c2 0208 	ubfx	r2, r2, #0, #9
 80026d0:	605a      	str	r2, [r3, #4]
        if (huart->Init.Parity == UART_PARITY_NONE)
 80026d2:	68fb      	ldr	r3, [r7, #12]
 80026d4:	691b      	ldr	r3, [r3, #16]
 80026d6:	2b00      	cmp	r3, #0
 80026d8:	d103      	bne.n	80026e2 <HAL_UART_Transmit+0xc8>
        {
          pData += 2U;
 80026da:	68bb      	ldr	r3, [r7, #8]
 80026dc:	3302      	adds	r3, #2
 80026de:	60bb      	str	r3, [r7, #8]
 80026e0:	e017      	b.n	8002712 <HAL_UART_Transmit+0xf8>
        }
        else
        {
          pData += 1U;
 80026e2:	68bb      	ldr	r3, [r7, #8]
 80026e4:	3301      	adds	r3, #1
 80026e6:	60bb      	str	r3, [r7, #8]
 80026e8:	e013      	b.n	8002712 <HAL_UART_Transmit+0xf8>
        }
      }
      else
      {
        if (UART_WaitOnFlagUntilTimeout(huart, UART_FLAG_TXE, RESET, tickstart, Timeout) != HAL_OK)
 80026ea:	683b      	ldr	r3, [r7, #0]
 80026ec:	9300      	str	r3, [sp, #0]
 80026ee:	697b      	ldr	r3, [r7, #20]
 80026f0:	2200      	movs	r2, #0
 80026f2:	2180      	movs	r1, #128	; 0x80
 80026f4:	68f8      	ldr	r0, [r7, #12]
 80026f6:	f000 f829 	bl	800274c <UART_WaitOnFlagUntilTimeout>
 80026fa:	4603      	mov	r3, r0
 80026fc:	2b00      	cmp	r3, #0
 80026fe:	d001      	beq.n	8002704 <HAL_UART_Transmit+0xea>
        {
          return HAL_TIMEOUT;
 8002700:	2303      	movs	r3, #3
 8002702:	e01f      	b.n	8002744 <HAL_UART_Transmit+0x12a>
        }
        huart->Instance->DR = (*pData++ & (uint8_t)0xFF);
 8002704:	68bb      	ldr	r3, [r7, #8]
 8002706:	1c5a      	adds	r2, r3, #1
 8002708:	60ba      	str	r2, [r7, #8]
 800270a:	781a      	ldrb	r2, [r3, #0]
 800270c:	68fb      	ldr	r3, [r7, #12]
 800270e:	681b      	ldr	r3, [r3, #0]
 8002710:	605a      	str	r2, [r3, #4]
    while (huart->TxXferCount > 0U)
 8002712:	68fb      	ldr	r3, [r7, #12]
 8002714:	8cdb      	ldrh	r3, [r3, #38]	; 0x26
 8002716:	b29b      	uxth	r3, r3
 8002718:	2b00      	cmp	r3, #0
 800271a:	d1b7      	bne.n	800268c <HAL_UART_Transmit+0x72>
      }
    }

    if (UART_WaitOnFlagUntilTimeout(huart, UART_FLAG_TC, RESET, tickstart, Timeout) != HAL_OK)
 800271c:	683b      	ldr	r3, [r7, #0]
 800271e:	9300      	str	r3, [sp, #0]
 8002720:	697b      	ldr	r3, [r7, #20]
 8002722:	2200      	movs	r2, #0
 8002724:	2140      	movs	r1, #64	; 0x40
 8002726:	68f8      	ldr	r0, [r7, #12]
 8002728:	f000 f810 	bl	800274c <UART_WaitOnFlagUntilTimeout>
 800272c:	4603      	mov	r3, r0
 800272e:	2b00      	cmp	r3, #0
 8002730:	d001      	beq.n	8002736 <HAL_UART_Transmit+0x11c>
    {
      return HAL_TIMEOUT;
 8002732:	2303      	movs	r3, #3
 8002734:	e006      	b.n	8002744 <HAL_UART_Transmit+0x12a>
    }

    /* At end of Tx process, restore huart->gState to Ready */
    huart->gState = HAL_UART_STATE_READY;
 8002736:	68fb      	ldr	r3, [r7, #12]
 8002738:	2220      	movs	r2, #32
 800273a:	f883 2039 	strb.w	r2, [r3, #57]	; 0x39

    return HAL_OK;
 800273e:	2300      	movs	r3, #0
 8002740:	e000      	b.n	8002744 <HAL_UART_Transmit+0x12a>
  }
  else
  {
    return HAL_BUSY;
 8002742:	2302      	movs	r3, #2
  }
}
 8002744:	4618      	mov	r0, r3
 8002746:	3718      	adds	r7, #24
 8002748:	46bd      	mov	sp, r7
 800274a:	bd80      	pop	{r7, pc}

0800274c <UART_WaitOnFlagUntilTimeout>:
  * @param  Tickstart Tick start value
  * @param  Timeout Timeout duration
  * @retval HAL status
  */
static HAL_StatusTypeDef UART_WaitOnFlagUntilTimeout(UART_HandleTypeDef *huart, uint32_t Flag, FlagStatus Status, uint32_t Tickstart, uint32_t Timeout)
{
 800274c:	b580      	push	{r7, lr}
 800274e:	b084      	sub	sp, #16
 8002750:	af00      	add	r7, sp, #0
 8002752:	60f8      	str	r0, [r7, #12]
 8002754:	60b9      	str	r1, [r7, #8]
 8002756:	603b      	str	r3, [r7, #0]
 8002758:	4613      	mov	r3, r2
 800275a:	71fb      	strb	r3, [r7, #7]
  /* Wait until flag is set */
  while ((__HAL_UART_GET_FLAG(huart, Flag) ? SET : RESET) == Status)
 800275c:	e02c      	b.n	80027b8 <UART_WaitOnFlagUntilTimeout+0x6c>
  {
    /* Check for the Timeout */
    if (Timeout != HAL_MAX_DELAY)
 800275e:	69bb      	ldr	r3, [r7, #24]
 8002760:	f1b3 3fff 	cmp.w	r3, #4294967295
 8002764:	d028      	beq.n	80027b8 <UART_WaitOnFlagUntilTimeout+0x6c>
    {
      if ((Timeout == 0U) || ((HAL_GetTick() - Tickstart) > Timeout))
 8002766:	69bb      	ldr	r3, [r7, #24]
 8002768:	2b00      	cmp	r3, #0
 800276a:	d007      	beq.n	800277c <UART_WaitOnFlagUntilTimeout+0x30>
 800276c:	f7fe fc74 	bl	8001058 <HAL_GetTick>
 8002770:	4602      	mov	r2, r0
 8002772:	683b      	ldr	r3, [r7, #0]
 8002774:	1ad3      	subs	r3, r2, r3
 8002776:	69ba      	ldr	r2, [r7, #24]
 8002778:	429a      	cmp	r2, r3
 800277a:	d21d      	bcs.n	80027b8 <UART_WaitOnFlagUntilTimeout+0x6c>
      {
        /* Disable TXE, RXNE, PE and ERR (Frame error, noise error, overrun error) interrupts for the interrupt process */
        CLEAR_BIT(huart->Instance->CR1, (USART_CR1_RXNEIE | USART_CR1_PEIE | USART_CR1_TXEIE));
 800277c:	68fb      	ldr	r3, [r7, #12]
 800277e:	681b      	ldr	r3, [r3, #0]
 8002780:	68da      	ldr	r2, [r3, #12]
 8002782:	68fb      	ldr	r3, [r7, #12]
 8002784:	681b      	ldr	r3, [r3, #0]
 8002786:	f422 72d0 	bic.w	r2, r2, #416	; 0x1a0
 800278a:	60da      	str	r2, [r3, #12]
        CLEAR_BIT(huart->Instance->CR3, USART_CR3_EIE);
 800278c:	68fb      	ldr	r3, [r7, #12]
 800278e:	681b      	ldr	r3, [r3, #0]
 8002790:	695a      	ldr	r2, [r3, #20]
 8002792:	68fb      	ldr	r3, [r7, #12]
 8002794:	681b      	ldr	r3, [r3, #0]
 8002796:	f022 0201 	bic.w	r2, r2, #1
 800279a:	615a      	str	r2, [r3, #20]

        huart->gState  = HAL_UART_STATE_READY;
 800279c:	68fb      	ldr	r3, [r7, #12]
 800279e:	2220      	movs	r2, #32
 80027a0:	f883 2039 	strb.w	r2, [r3, #57]	; 0x39
        huart->RxState = HAL_UART_STATE_READY;
 80027a4:	68fb      	ldr	r3, [r7, #12]
 80027a6:	2220      	movs	r2, #32
 80027a8:	f883 203a 	strb.w	r2, [r3, #58]	; 0x3a

        /* Process Unlocked */
        __HAL_UNLOCK(huart);
 80027ac:	68fb      	ldr	r3, [r7, #12]
 80027ae:	2200      	movs	r2, #0
 80027b0:	f883 2038 	strb.w	r2, [r3, #56]	; 0x38

        return HAL_TIMEOUT;
 80027b4:	2303      	movs	r3, #3
 80027b6:	e00f      	b.n	80027d8 <UART_WaitOnFlagUntilTimeout+0x8c>
  while ((__HAL_UART_GET_FLAG(huart, Flag) ? SET : RESET) == Status)
 80027b8:	68fb      	ldr	r3, [r7, #12]
 80027ba:	681b      	ldr	r3, [r3, #0]
 80027bc:	681a      	ldr	r2, [r3, #0]
 80027be:	68bb      	ldr	r3, [r7, #8]
 80027c0:	4013      	ands	r3, r2
 80027c2:	68ba      	ldr	r2, [r7, #8]
 80027c4:	429a      	cmp	r2, r3
 80027c6:	bf0c      	ite	eq
 80027c8:	2301      	moveq	r3, #1
 80027ca:	2300      	movne	r3, #0
 80027cc:	b2db      	uxtb	r3, r3
 80027ce:	461a      	mov	r2, r3
 80027d0:	79fb      	ldrb	r3, [r7, #7]
 80027d2:	429a      	cmp	r2, r3
 80027d4:	d0c3      	beq.n	800275e <UART_WaitOnFlagUntilTimeout+0x12>
      }
    }
  }
  return HAL_OK;
 80027d6:	2300      	movs	r3, #0
}
 80027d8:	4618      	mov	r0, r3
 80027da:	3710      	adds	r7, #16
 80027dc:	46bd      	mov	sp, r7
 80027de:	bd80      	pop	{r7, pc}

080027e0 <UART_SetConfig>:
  * @param  huart  Pointer to a UART_HandleTypeDef structure that contains
  *                the configuration information for the specified UART module.
  * @retval None
  */
static void UART_SetConfig(UART_HandleTypeDef *huart)
{
 80027e0:	e92d 4ff0 	stmdb	sp!, {r4, r5, r6, r7, r8, r9, sl, fp, lr}
 80027e4:	b085      	sub	sp, #20
 80027e6:	af00      	add	r7, sp, #0
 80027e8:	6078      	str	r0, [r7, #4]
  assert_param(IS_UART_MODE(huart->Init.Mode));

  /*-------------------------- USART CR2 Configuration -----------------------*/
  /* Configure the UART Stop Bits: Set STOP[13:12] bits
     according to huart->Init.StopBits value */
  MODIFY_REG(huart->Instance->CR2, USART_CR2_STOP, huart->Init.StopBits);
 80027ea:	687b      	ldr	r3, [r7, #4]
 80027ec:	681b      	ldr	r3, [r3, #0]
 80027ee:	691b      	ldr	r3, [r3, #16]
 80027f0:	f423 5140 	bic.w	r1, r3, #12288	; 0x3000
 80027f4:	687b      	ldr	r3, [r7, #4]
 80027f6:	68da      	ldr	r2, [r3, #12]
 80027f8:	687b      	ldr	r3, [r7, #4]
 80027fa:	681b      	ldr	r3, [r3, #0]
 80027fc:	430a      	orrs	r2, r1
 80027fe:	611a      	str	r2, [r3, #16]
     Set the M bits according to huart->Init.WordLength value
     Set PCE and PS bits according to huart->Init.Parity value
     Set TE and RE bits according to huart->Init.Mode value
     Set OVER8 bit according to huart->Init.OverSampling value */

  tmpreg = (uint32_t)huart->Init.WordLength | huart->Init.Parity | huart->Init.Mode | huart->Init.OverSampling;
 8002800:	687b      	ldr	r3, [r7, #4]
 8002802:	689a      	ldr	r2, [r3, #8]
 8002804:	687b      	ldr	r3, [r7, #4]
 8002806:	691b      	ldr	r3, [r3, #16]
 8002808:	431a      	orrs	r2, r3
 800280a:	687b      	ldr	r3, [r7, #4]
 800280c:	695b      	ldr	r3, [r3, #20]
 800280e:	431a      	orrs	r2, r3
 8002810:	687b      	ldr	r3, [r7, #4]
 8002812:	69db      	ldr	r3, [r3, #28]
 8002814:	4313      	orrs	r3, r2
 8002816:	60fb      	str	r3, [r7, #12]
  MODIFY_REG(huart->Instance->CR1,
 8002818:	687b      	ldr	r3, [r7, #4]
 800281a:	681b      	ldr	r3, [r3, #0]
 800281c:	68db      	ldr	r3, [r3, #12]
 800281e:	f423 4316 	bic.w	r3, r3, #38400	; 0x9600
 8002822:	f023 030c 	bic.w	r3, r3, #12
 8002826:	687a      	ldr	r2, [r7, #4]
 8002828:	6812      	ldr	r2, [r2, #0]
 800282a:	68f9      	ldr	r1, [r7, #12]
 800282c:	430b      	orrs	r3, r1
 800282e:	60d3      	str	r3, [r2, #12]
             (uint32_t)(USART_CR1_M | USART_CR1_PCE | USART_CR1_PS | USART_CR1_TE | USART_CR1_RE | USART_CR1_OVER8),
             tmpreg);

  /*-------------------------- USART CR3 Configuration -----------------------*/
  /* Configure the UART HFC: Set CTSE and RTSE bits according to huart->Init.HwFlowCtl value */
  MODIFY_REG(huart->Instance->CR3, (USART_CR3_RTSE | USART_CR3_CTSE), huart->Init.HwFlowCtl);
 8002830:	687b      	ldr	r3, [r7, #4]
 8002832:	681b      	ldr	r3, [r3, #0]
 8002834:	695b      	ldr	r3, [r3, #20]
 8002836:	f423 7140 	bic.w	r1, r3, #768	; 0x300
 800283a:	687b      	ldr	r3, [r7, #4]
 800283c:	699a      	ldr	r2, [r3, #24]
 800283e:	687b      	ldr	r3, [r7, #4]
 8002840:	681b      	ldr	r3, [r3, #0]
 8002842:	430a      	orrs	r2, r1
 8002844:	615a      	str	r2, [r3, #20]

  /* Check the Over Sampling */
  if (huart->Init.OverSampling == UART_OVERSAMPLING_8)
 8002846:	687b      	ldr	r3, [r7, #4]
 8002848:	69db      	ldr	r3, [r3, #28]
 800284a:	f5b3 4f00 	cmp.w	r3, #32768	; 0x8000
 800284e:	f040 818b 	bne.w	8002b68 <UART_SetConfig+0x388>
    {
      pclk = HAL_RCC_GetPCLK2Freq();
      huart->Instance->BRR = UART_BRR_SAMPLING8(pclk, huart->Init.BaudRate);
    }
#elif defined(USART6)
    if ((huart->Instance == USART1) || (huart->Instance == USART6))
 8002852:	687b      	ldr	r3, [r7, #4]
 8002854:	681b      	ldr	r3, [r3, #0]
 8002856:	4ac1      	ldr	r2, [pc, #772]	; (8002b5c <UART_SetConfig+0x37c>)
 8002858:	4293      	cmp	r3, r2
 800285a:	d005      	beq.n	8002868 <UART_SetConfig+0x88>
 800285c:	687b      	ldr	r3, [r7, #4]
 800285e:	681b      	ldr	r3, [r3, #0]
 8002860:	4abf      	ldr	r2, [pc, #764]	; (8002b60 <UART_SetConfig+0x380>)
 8002862:	4293      	cmp	r3, r2
 8002864:	f040 80bd 	bne.w	80029e2 <UART_SetConfig+0x202>
    {
      pclk = HAL_RCC_GetPCLK2Freq();
 8002868:	f7fe ffbc 	bl	80017e4 <HAL_RCC_GetPCLK2Freq>
 800286c:	60b8      	str	r0, [r7, #8]
      huart->Instance->BRR = UART_BRR_SAMPLING8(pclk, huart->Init.BaudRate);
 800286e:	68bb      	ldr	r3, [r7, #8]
 8002870:	461d      	mov	r5, r3
 8002872:	f04f 0600 	mov.w	r6, #0
 8002876:	46a8      	mov	r8, r5
 8002878:	46b1      	mov	r9, r6
 800287a:	eb18 0308 	adds.w	r3, r8, r8
 800287e:	eb49 0409 	adc.w	r4, r9, r9
 8002882:	4698      	mov	r8, r3
 8002884:	46a1      	mov	r9, r4
 8002886:	eb18 0805 	adds.w	r8, r8, r5
 800288a:	eb49 0906 	adc.w	r9, r9, r6
 800288e:	f04f 0100 	mov.w	r1, #0
 8002892:	f04f 0200 	mov.w	r2, #0
 8002896:	ea4f 02c9 	mov.w	r2, r9, lsl #3
 800289a:	ea42 7258 	orr.w	r2, r2, r8, lsr #29
 800289e:	ea4f 01c8 	mov.w	r1, r8, lsl #3
 80028a2:	4688      	mov	r8, r1
 80028a4:	4691      	mov	r9, r2
 80028a6:	eb18 0005 	adds.w	r0, r8, r5
 80028aa:	eb49 0106 	adc.w	r1, r9, r6
 80028ae:	687b      	ldr	r3, [r7, #4]
 80028b0:	685b      	ldr	r3, [r3, #4]
 80028b2:	461d      	mov	r5, r3
 80028b4:	f04f 0600 	mov.w	r6, #0
 80028b8:	196b      	adds	r3, r5, r5
 80028ba:	eb46 0406 	adc.w	r4, r6, r6
 80028be:	461a      	mov	r2, r3
 80028c0:	4623      	mov	r3, r4
 80028c2:	f7fd fcfd 	bl	80002c0 <__aeabi_uldivmod>
 80028c6:	4603      	mov	r3, r0
 80028c8:	460c      	mov	r4, r1
 80028ca:	461a      	mov	r2, r3
 80028cc:	4ba5      	ldr	r3, [pc, #660]	; (8002b64 <UART_SetConfig+0x384>)
 80028ce:	fba3 2302 	umull	r2, r3, r3, r2
 80028d2:	095b      	lsrs	r3, r3, #5
 80028d4:	ea4f 1803 	mov.w	r8, r3, lsl #4
 80028d8:	68bb      	ldr	r3, [r7, #8]
 80028da:	461d      	mov	r5, r3
 80028dc:	f04f 0600 	mov.w	r6, #0
 80028e0:	46a9      	mov	r9, r5
 80028e2:	46b2      	mov	sl, r6
 80028e4:	eb19 0309 	adds.w	r3, r9, r9
 80028e8:	eb4a 040a 	adc.w	r4, sl, sl
 80028ec:	4699      	mov	r9, r3
 80028ee:	46a2      	mov	sl, r4
 80028f0:	eb19 0905 	adds.w	r9, r9, r5
 80028f4:	eb4a 0a06 	adc.w	sl, sl, r6
 80028f8:	f04f 0100 	mov.w	r1, #0
 80028fc:	f04f 0200 	mov.w	r2, #0
 8002900:	ea4f 02ca 	mov.w	r2, sl, lsl #3
 8002904:	ea42 7259 	orr.w	r2, r2, r9, lsr #29
 8002908:	ea4f 01c9 	mov.w	r1, r9, lsl #3
 800290c:	4689      	mov	r9, r1
 800290e:	4692      	mov	sl, r2
 8002910:	eb19 0005 	adds.w	r0, r9, r5
 8002914:	eb4a 0106 	adc.w	r1, sl, r6
 8002918:	687b      	ldr	r3, [r7, #4]
 800291a:	685b      	ldr	r3, [r3, #4]
 800291c:	461d      	mov	r5, r3
 800291e:	f04f 0600 	mov.w	r6, #0
 8002922:	196b      	adds	r3, r5, r5
 8002924:	eb46 0406 	adc.w	r4, r6, r6
 8002928:	461a      	mov	r2, r3
 800292a:	4623      	mov	r3, r4
 800292c:	f7fd fcc8 	bl	80002c0 <__aeabi_uldivmod>
 8002930:	4603      	mov	r3, r0
 8002932:	460c      	mov	r4, r1
 8002934:	461a      	mov	r2, r3
 8002936:	4b8b      	ldr	r3, [pc, #556]	; (8002b64 <UART_SetConfig+0x384>)
 8002938:	fba3 1302 	umull	r1, r3, r3, r2
 800293c:	095b      	lsrs	r3, r3, #5
 800293e:	2164      	movs	r1, #100	; 0x64
 8002940:	fb01 f303 	mul.w	r3, r1, r3
 8002944:	1ad3      	subs	r3, r2, r3
 8002946:	00db      	lsls	r3, r3, #3
 8002948:	3332      	adds	r3, #50	; 0x32
 800294a:	4a86      	ldr	r2, [pc, #536]	; (8002b64 <UART_SetConfig+0x384>)
 800294c:	fba2 2303 	umull	r2, r3, r2, r3
 8002950:	095b      	lsrs	r3, r3, #5
 8002952:	005b      	lsls	r3, r3, #1
 8002954:	f403 73f8 	and.w	r3, r3, #496	; 0x1f0
 8002958:	4498      	add	r8, r3
 800295a:	68bb      	ldr	r3, [r7, #8]
 800295c:	461d      	mov	r5, r3
 800295e:	f04f 0600 	mov.w	r6, #0
 8002962:	46a9      	mov	r9, r5
 8002964:	46b2      	mov	sl, r6
 8002966:	eb19 0309 	adds.w	r3, r9, r9
 800296a:	eb4a 040a 	adc.w	r4, sl, sl
 800296e:	4699      	mov	r9, r3
 8002970:	46a2      	mov	sl, r4
 8002972:	eb19 0905 	adds.w	r9, r9, r5
 8002976:	eb4a 0a06 	adc.w	sl, sl, r6
 800297a:	f04f 0100 	mov.w	r1, #0
 800297e:	f04f 0200 	mov.w	r2, #0
 8002982:	ea4f 02ca 	mov.w	r2, sl, lsl #3
 8002986:	ea42 7259 	orr.w	r2, r2, r9, lsr #29
 800298a:	ea4f 01c9 	mov.w	r1, r9, lsl #3
 800298e:	4689      	mov	r9, r1
 8002990:	4692      	mov	sl, r2
 8002992:	eb19 0005 	adds.w	r0, r9, r5
 8002996:	eb4a 0106 	adc.w	r1, sl, r6
 800299a:	687b      	ldr	r3, [r7, #4]
 800299c:	685b      	ldr	r3, [r3, #4]
 800299e:	461d      	mov	r5, r3
 80029a0:	f04f 0600 	mov.w	r6, #0
 80029a4:	196b      	adds	r3, r5, r5
 80029a6:	eb46 0406 	adc.w	r4, r6, r6
 80029aa:	461a      	mov	r2, r3
 80029ac:	4623      	mov	r3, r4
 80029ae:	f7fd fc87 	bl	80002c0 <__aeabi_uldivmod>
 80029b2:	4603      	mov	r3, r0
 80029b4:	460c      	mov	r4, r1
 80029b6:	461a      	mov	r2, r3
 80029b8:	4b6a      	ldr	r3, [pc, #424]	; (8002b64 <UART_SetConfig+0x384>)
 80029ba:	fba3 1302 	umull	r1, r3, r3, r2
 80029be:	095b      	lsrs	r3, r3, #5
 80029c0:	2164      	movs	r1, #100	; 0x64
 80029c2:	fb01 f303 	mul.w	r3, r1, r3
 80029c6:	1ad3      	subs	r3, r2, r3
 80029c8:	00db      	lsls	r3, r3, #3
 80029ca:	3332      	adds	r3, #50	; 0x32
 80029cc:	4a65      	ldr	r2, [pc, #404]	; (8002b64 <UART_SetConfig+0x384>)
 80029ce:	fba2 2303 	umull	r2, r3, r2, r3
 80029d2:	095b      	lsrs	r3, r3, #5
 80029d4:	f003 0207 	and.w	r2, r3, #7
 80029d8:	687b      	ldr	r3, [r7, #4]
 80029da:	681b      	ldr	r3, [r3, #0]
 80029dc:	4442      	add	r2, r8
 80029de:	609a      	str	r2, [r3, #8]
 80029e0:	e26f      	b.n	8002ec2 <UART_SetConfig+0x6e2>
      huart->Instance->BRR = UART_BRR_SAMPLING8(pclk, huart->Init.BaudRate);
    }
#endif /* USART6 */
    else
    {
      pclk = HAL_RCC_GetPCLK1Freq();
 80029e2:	f7fe feeb 	bl	80017bc <HAL_RCC_GetPCLK1Freq>
 80029e6:	60b8      	str	r0, [r7, #8]
      huart->Instance->BRR = UART_BRR_SAMPLING8(pclk, huart->Init.BaudRate);
 80029e8:	68bb      	ldr	r3, [r7, #8]
 80029ea:	461d      	mov	r5, r3
 80029ec:	f04f 0600 	mov.w	r6, #0
 80029f0:	46a8      	mov	r8, r5
 80029f2:	46b1      	mov	r9, r6
 80029f4:	eb18 0308 	adds.w	r3, r8, r8
 80029f8:	eb49 0409 	adc.w	r4, r9, r9
 80029fc:	4698      	mov	r8, r3
 80029fe:	46a1      	mov	r9, r4
 8002a00:	eb18 0805 	adds.w	r8, r8, r5
 8002a04:	eb49 0906 	adc.w	r9, r9, r6
 8002a08:	f04f 0100 	mov.w	r1, #0
 8002a0c:	f04f 0200 	mov.w	r2, #0
 8002a10:	ea4f 02c9 	mov.w	r2, r9, lsl #3
 8002a14:	ea42 7258 	orr.w	r2, r2, r8, lsr #29
 8002a18:	ea4f 01c8 	mov.w	r1, r8, lsl #3
 8002a1c:	4688      	mov	r8, r1
 8002a1e:	4691      	mov	r9, r2
 8002a20:	eb18 0005 	adds.w	r0, r8, r5
 8002a24:	eb49 0106 	adc.w	r1, r9, r6
 8002a28:	687b      	ldr	r3, [r7, #4]
 8002a2a:	685b      	ldr	r3, [r3, #4]
 8002a2c:	461d      	mov	r5, r3
 8002a2e:	f04f 0600 	mov.w	r6, #0
 8002a32:	196b      	adds	r3, r5, r5
 8002a34:	eb46 0406 	adc.w	r4, r6, r6
 8002a38:	461a      	mov	r2, r3
 8002a3a:	4623      	mov	r3, r4
 8002a3c:	f7fd fc40 	bl	80002c0 <__aeabi_uldivmod>
 8002a40:	4603      	mov	r3, r0
 8002a42:	460c      	mov	r4, r1
 8002a44:	461a      	mov	r2, r3
 8002a46:	4b47      	ldr	r3, [pc, #284]	; (8002b64 <UART_SetConfig+0x384>)
 8002a48:	fba3 2302 	umull	r2, r3, r3, r2
 8002a4c:	095b      	lsrs	r3, r3, #5
 8002a4e:	ea4f 1803 	mov.w	r8, r3, lsl #4
 8002a52:	68bb      	ldr	r3, [r7, #8]
 8002a54:	461d      	mov	r5, r3
 8002a56:	f04f 0600 	mov.w	r6, #0
 8002a5a:	46a9      	mov	r9, r5
 8002a5c:	46b2      	mov	sl, r6
 8002a5e:	eb19 0309 	adds.w	r3, r9, r9
 8002a62:	eb4a 040a 	adc.w	r4, sl, sl
 8002a66:	4699      	mov	r9, r3
 8002a68:	46a2      	mov	sl, r4
 8002a6a:	eb19 0905 	adds.w	r9, r9, r5
 8002a6e:	eb4a 0a06 	adc.w	sl, sl, r6
 8002a72:	f04f 0100 	mov.w	r1, #0
 8002a76:	f04f 0200 	mov.w	r2, #0
 8002a7a:	ea4f 02ca 	mov.w	r2, sl, lsl #3
 8002a7e:	ea42 7259 	orr.w	r2, r2, r9, lsr #29
 8002a82:	ea4f 01c9 	mov.w	r1, r9, lsl #3
 8002a86:	4689      	mov	r9, r1
 8002a88:	4692      	mov	sl, r2
 8002a8a:	eb19 0005 	adds.w	r0, r9, r5
 8002a8e:	eb4a 0106 	adc.w	r1, sl, r6
 8002a92:	687b      	ldr	r3, [r7, #4]
 8002a94:	685b      	ldr	r3, [r3, #4]
 8002a96:	461d      	mov	r5, r3
 8002a98:	f04f 0600 	mov.w	r6, #0
 8002a9c:	196b      	adds	r3, r5, r5
 8002a9e:	eb46 0406 	adc.w	r4, r6, r6
 8002aa2:	461a      	mov	r2, r3
 8002aa4:	4623      	mov	r3, r4
 8002aa6:	f7fd fc0b 	bl	80002c0 <__aeabi_uldivmod>
 8002aaa:	4603      	mov	r3, r0
 8002aac:	460c      	mov	r4, r1
 8002aae:	461a      	mov	r2, r3
 8002ab0:	4b2c      	ldr	r3, [pc, #176]	; (8002b64 <UART_SetConfig+0x384>)
 8002ab2:	fba3 1302 	umull	r1, r3, r3, r2
 8002ab6:	095b      	lsrs	r3, r3, #5
 8002ab8:	2164      	movs	r1, #100	; 0x64
 8002aba:	fb01 f303 	mul.w	r3, r1, r3
 8002abe:	1ad3      	subs	r3, r2, r3
 8002ac0:	00db      	lsls	r3, r3, #3
 8002ac2:	3332      	adds	r3, #50	; 0x32
 8002ac4:	4a27      	ldr	r2, [pc, #156]	; (8002b64 <UART_SetConfig+0x384>)
 8002ac6:	fba2 2303 	umull	r2, r3, r2, r3
 8002aca:	095b      	lsrs	r3, r3, #5
 8002acc:	005b      	lsls	r3, r3, #1
 8002ace:	f403 73f8 	and.w	r3, r3, #496	; 0x1f0
 8002ad2:	4498      	add	r8, r3
 8002ad4:	68bb      	ldr	r3, [r7, #8]
 8002ad6:	461d      	mov	r5, r3
 8002ad8:	f04f 0600 	mov.w	r6, #0
 8002adc:	46a9      	mov	r9, r5
 8002ade:	46b2      	mov	sl, r6
 8002ae0:	eb19 0309 	adds.w	r3, r9, r9
 8002ae4:	eb4a 040a 	adc.w	r4, sl, sl
 8002ae8:	4699      	mov	r9, r3
 8002aea:	46a2      	mov	sl, r4
 8002aec:	eb19 0905 	adds.w	r9, r9, r5
 8002af0:	eb4a 0a06 	adc.w	sl, sl, r6
 8002af4:	f04f 0100 	mov.w	r1, #0
 8002af8:	f04f 0200 	mov.w	r2, #0
 8002afc:	ea4f 02ca 	mov.w	r2, sl, lsl #3
 8002b00:	ea42 7259 	orr.w	r2, r2, r9, lsr #29
 8002b04:	ea4f 01c9 	mov.w	r1, r9, lsl #3
 8002b08:	4689      	mov	r9, r1
 8002b0a:	4692      	mov	sl, r2
 8002b0c:	eb19 0005 	adds.w	r0, r9, r5
 8002b10:	eb4a 0106 	adc.w	r1, sl, r6
 8002b14:	687b      	ldr	r3, [r7, #4]
 8002b16:	685b      	ldr	r3, [r3, #4]
 8002b18:	461d      	mov	r5, r3
 8002b1a:	f04f 0600 	mov.w	r6, #0
 8002b1e:	196b      	adds	r3, r5, r5
 8002b20:	eb46 0406 	adc.w	r4, r6, r6
 8002b24:	461a      	mov	r2, r3
 8002b26:	4623      	mov	r3, r4
 8002b28:	f7fd fbca 	bl	80002c0 <__aeabi_uldivmod>
 8002b2c:	4603      	mov	r3, r0
 8002b2e:	460c      	mov	r4, r1
 8002b30:	461a      	mov	r2, r3
 8002b32:	4b0c      	ldr	r3, [pc, #48]	; (8002b64 <UART_SetConfig+0x384>)
 8002b34:	fba3 1302 	umull	r1, r3, r3, r2
 8002b38:	095b      	lsrs	r3, r3, #5
 8002b3a:	2164      	movs	r1, #100	; 0x64
 8002b3c:	fb01 f303 	mul.w	r3, r1, r3
 8002b40:	1ad3      	subs	r3, r2, r3
 8002b42:	00db      	lsls	r3, r3, #3
 8002b44:	3332      	adds	r3, #50	; 0x32
 8002b46:	4a07      	ldr	r2, [pc, #28]	; (8002b64 <UART_SetConfig+0x384>)
 8002b48:	fba2 2303 	umull	r2, r3, r2, r3
 8002b4c:	095b      	lsrs	r3, r3, #5
 8002b4e:	f003 0207 	and.w	r2, r3, #7
 8002b52:	687b      	ldr	r3, [r7, #4]
 8002b54:	681b      	ldr	r3, [r3, #0]
 8002b56:	4442      	add	r2, r8
 8002b58:	609a      	str	r2, [r3, #8]
    {
      pclk = HAL_RCC_GetPCLK1Freq();
      huart->Instance->BRR = UART_BRR_SAMPLING16(pclk, huart->Init.BaudRate);
    }
  }
}
 8002b5a:	e1b2      	b.n	8002ec2 <UART_SetConfig+0x6e2>
 8002b5c:	40011000 	.word	0x40011000
 8002b60:	40011400 	.word	0x40011400
 8002b64:	51eb851f 	.word	0x51eb851f
    if ((huart->Instance == USART1) || (huart->Instance == USART6))
 8002b68:	687b      	ldr	r3, [r7, #4]
 8002b6a:	681b      	ldr	r3, [r3, #0]
 8002b6c:	4ad7      	ldr	r2, [pc, #860]	; (8002ecc <UART_SetConfig+0x6ec>)
 8002b6e:	4293      	cmp	r3, r2
 8002b70:	d005      	beq.n	8002b7e <UART_SetConfig+0x39e>
 8002b72:	687b      	ldr	r3, [r7, #4]
 8002b74:	681b      	ldr	r3, [r3, #0]
 8002b76:	4ad6      	ldr	r2, [pc, #856]	; (8002ed0 <UART_SetConfig+0x6f0>)
 8002b78:	4293      	cmp	r3, r2
 8002b7a:	f040 80d1 	bne.w	8002d20 <UART_SetConfig+0x540>
      pclk = HAL_RCC_GetPCLK2Freq();
 8002b7e:	f7fe fe31 	bl	80017e4 <HAL_RCC_GetPCLK2Freq>
 8002b82:	60b8      	str	r0, [r7, #8]
      huart->Instance->BRR = UART_BRR_SAMPLING16(pclk, huart->Init.BaudRate);
 8002b84:	68bb      	ldr	r3, [r7, #8]
 8002b86:	469a      	mov	sl, r3
 8002b88:	f04f 0b00 	mov.w	fp, #0
 8002b8c:	46d0      	mov	r8, sl
 8002b8e:	46d9      	mov	r9, fp
 8002b90:	eb18 0308 	adds.w	r3, r8, r8
 8002b94:	eb49 0409 	adc.w	r4, r9, r9
 8002b98:	4698      	mov	r8, r3
 8002b9a:	46a1      	mov	r9, r4
 8002b9c:	eb18 080a 	adds.w	r8, r8, sl
 8002ba0:	eb49 090b 	adc.w	r9, r9, fp
 8002ba4:	f04f 0100 	mov.w	r1, #0
 8002ba8:	f04f 0200 	mov.w	r2, #0
 8002bac:	ea4f 02c9 	mov.w	r2, r9, lsl #3
 8002bb0:	ea42 7258 	orr.w	r2, r2, r8, lsr #29
 8002bb4:	ea4f 01c8 	mov.w	r1, r8, lsl #3
 8002bb8:	4688      	mov	r8, r1
 8002bba:	4691      	mov	r9, r2
 8002bbc:	eb1a 0508 	adds.w	r5, sl, r8
 8002bc0:	eb4b 0609 	adc.w	r6, fp, r9
 8002bc4:	687b      	ldr	r3, [r7, #4]
 8002bc6:	685b      	ldr	r3, [r3, #4]
 8002bc8:	4619      	mov	r1, r3
 8002bca:	f04f 0200 	mov.w	r2, #0
 8002bce:	f04f 0300 	mov.w	r3, #0
 8002bd2:	f04f 0400 	mov.w	r4, #0
 8002bd6:	0094      	lsls	r4, r2, #2
 8002bd8:	ea44 7491 	orr.w	r4, r4, r1, lsr #30
 8002bdc:	008b      	lsls	r3, r1, #2
 8002bde:	461a      	mov	r2, r3
 8002be0:	4623      	mov	r3, r4
 8002be2:	4628      	mov	r0, r5
 8002be4:	4631      	mov	r1, r6
 8002be6:	f7fd fb6b 	bl	80002c0 <__aeabi_uldivmod>
 8002bea:	4603      	mov	r3, r0
 8002bec:	460c      	mov	r4, r1
 8002bee:	461a      	mov	r2, r3
 8002bf0:	4bb8      	ldr	r3, [pc, #736]	; (8002ed4 <UART_SetConfig+0x6f4>)
 8002bf2:	fba3 2302 	umull	r2, r3, r3, r2
 8002bf6:	095b      	lsrs	r3, r3, #5
 8002bf8:	ea4f 1803 	mov.w	r8, r3, lsl #4
 8002bfc:	68bb      	ldr	r3, [r7, #8]
 8002bfe:	469b      	mov	fp, r3
 8002c00:	f04f 0c00 	mov.w	ip, #0
 8002c04:	46d9      	mov	r9, fp
 8002c06:	46e2      	mov	sl, ip
 8002c08:	eb19 0309 	adds.w	r3, r9, r9
 8002c0c:	eb4a 040a 	adc.w	r4, sl, sl
 8002c10:	4699      	mov	r9, r3
 8002c12:	46a2      	mov	sl, r4
 8002c14:	eb19 090b 	adds.w	r9, r9, fp
 8002c18:	eb4a 0a0c 	adc.w	sl, sl, ip
 8002c1c:	f04f 0100 	mov.w	r1, #0
 8002c20:	f04f 0200 	mov.w	r2, #0
 8002c24:	ea4f 02ca 	mov.w	r2, sl, lsl #3
 8002c28:	ea42 7259 	orr.w	r2, r2, r9, lsr #29
 8002c2c:	ea4f 01c9 	mov.w	r1, r9, lsl #3
 8002c30:	4689      	mov	r9, r1
 8002c32:	4692      	mov	sl, r2
 8002c34:	eb1b 0509 	adds.w	r5, fp, r9
 8002c38:	eb4c 060a 	adc.w	r6, ip, sl
 8002c3c:	687b      	ldr	r3, [r7, #4]
 8002c3e:	685b      	ldr	r3, [r3, #4]
 8002c40:	4619      	mov	r1, r3
 8002c42:	f04f 0200 	mov.w	r2, #0
 8002c46:	f04f 0300 	mov.w	r3, #0
 8002c4a:	f04f 0400 	mov.w	r4, #0
 8002c4e:	0094      	lsls	r4, r2, #2
 8002c50:	ea44 7491 	orr.w	r4, r4, r1, lsr #30
 8002c54:	008b      	lsls	r3, r1, #2
 8002c56:	461a      	mov	r2, r3
 8002c58:	4623      	mov	r3, r4
 8002c5a:	4628      	mov	r0, r5
 8002c5c:	4631      	mov	r1, r6
 8002c5e:	f7fd fb2f 	bl	80002c0 <__aeabi_uldivmod>
 8002c62:	4603      	mov	r3, r0
 8002c64:	460c      	mov	r4, r1
 8002c66:	461a      	mov	r2, r3
 8002c68:	4b9a      	ldr	r3, [pc, #616]	; (8002ed4 <UART_SetConfig+0x6f4>)
 8002c6a:	fba3 1302 	umull	r1, r3, r3, r2
 8002c6e:	095b      	lsrs	r3, r3, #5
 8002c70:	2164      	movs	r1, #100	; 0x64
 8002c72:	fb01 f303 	mul.w	r3, r1, r3
 8002c76:	1ad3      	subs	r3, r2, r3
 8002c78:	011b      	lsls	r3, r3, #4
 8002c7a:	3332      	adds	r3, #50	; 0x32
 8002c7c:	4a95      	ldr	r2, [pc, #596]	; (8002ed4 <UART_SetConfig+0x6f4>)
 8002c7e:	fba2 2303 	umull	r2, r3, r2, r3
 8002c82:	095b      	lsrs	r3, r3, #5
 8002c84:	f003 03f0 	and.w	r3, r3, #240	; 0xf0
 8002c88:	4498      	add	r8, r3
 8002c8a:	68bb      	ldr	r3, [r7, #8]
 8002c8c:	469b      	mov	fp, r3
 8002c8e:	f04f 0c00 	mov.w	ip, #0
 8002c92:	46d9      	mov	r9, fp
 8002c94:	46e2      	mov	sl, ip
 8002c96:	eb19 0309 	adds.w	r3, r9, r9
 8002c9a:	eb4a 040a 	adc.w	r4, sl, sl
 8002c9e:	4699      	mov	r9, r3
 8002ca0:	46a2      	mov	sl, r4
 8002ca2:	eb19 090b 	adds.w	r9, r9, fp
 8002ca6:	eb4a 0a0c 	adc.w	sl, sl, ip
 8002caa:	f04f 0100 	mov.w	r1, #0
 8002cae:	f04f 0200 	mov.w	r2, #0
 8002cb2:	ea4f 02ca 	mov.w	r2, sl, lsl #3
 8002cb6:	ea42 7259 	orr.w	r2, r2, r9, lsr #29
 8002cba:	ea4f 01c9 	mov.w	r1, r9, lsl #3
 8002cbe:	4689      	mov	r9, r1
 8002cc0:	4692      	mov	sl, r2
 8002cc2:	eb1b 0509 	adds.w	r5, fp, r9
 8002cc6:	eb4c 060a 	adc.w	r6, ip, sl
 8002cca:	687b      	ldr	r3, [r7, #4]
 8002ccc:	685b      	ldr	r3, [r3, #4]
 8002cce:	4619      	mov	r1, r3
 8002cd0:	f04f 0200 	mov.w	r2, #0
 8002cd4:	f04f 0300 	mov.w	r3, #0
 8002cd8:	f04f 0400 	mov.w	r4, #0
 8002cdc:	0094      	lsls	r4, r2, #2
 8002cde:	ea44 7491 	orr.w	r4, r4, r1, lsr #30
 8002ce2:	008b      	lsls	r3, r1, #2
 8002ce4:	461a      	mov	r2, r3
 8002ce6:	4623      	mov	r3, r4
 8002ce8:	4628      	mov	r0, r5
 8002cea:	4631      	mov	r1, r6
 8002cec:	f7fd fae8 	bl	80002c0 <__aeabi_uldivmod>
 8002cf0:	4603      	mov	r3, r0
 8002cf2:	460c      	mov	r4, r1
 8002cf4:	461a      	mov	r2, r3
 8002cf6:	4b77      	ldr	r3, [pc, #476]	; (8002ed4 <UART_SetConfig+0x6f4>)
 8002cf8:	fba3 1302 	umull	r1, r3, r3, r2
 8002cfc:	095b      	lsrs	r3, r3, #5
 8002cfe:	2164      	movs	r1, #100	; 0x64
 8002d00:	fb01 f303 	mul.w	r3, r1, r3
 8002d04:	1ad3      	subs	r3, r2, r3
 8002d06:	011b      	lsls	r3, r3, #4
 8002d08:	3332      	adds	r3, #50	; 0x32
 8002d0a:	4a72      	ldr	r2, [pc, #456]	; (8002ed4 <UART_SetConfig+0x6f4>)
 8002d0c:	fba2 2303 	umull	r2, r3, r2, r3
 8002d10:	095b      	lsrs	r3, r3, #5
 8002d12:	f003 020f 	and.w	r2, r3, #15
 8002d16:	687b      	ldr	r3, [r7, #4]
 8002d18:	681b      	ldr	r3, [r3, #0]
 8002d1a:	4442      	add	r2, r8
 8002d1c:	609a      	str	r2, [r3, #8]
 8002d1e:	e0d0      	b.n	8002ec2 <UART_SetConfig+0x6e2>
      pclk = HAL_RCC_GetPCLK1Freq();
 8002d20:	f7fe fd4c 	bl	80017bc <HAL_RCC_GetPCLK1Freq>
 8002d24:	60b8      	str	r0, [r7, #8]
      huart->Instance->BRR = UART_BRR_SAMPLING16(pclk, huart->Init.BaudRate);
 8002d26:	68bb      	ldr	r3, [r7, #8]
 8002d28:	469a      	mov	sl, r3
 8002d2a:	f04f 0b00 	mov.w	fp, #0
 8002d2e:	46d0      	mov	r8, sl
 8002d30:	46d9      	mov	r9, fp
 8002d32:	eb18 0308 	adds.w	r3, r8, r8
 8002d36:	eb49 0409 	adc.w	r4, r9, r9
 8002d3a:	4698      	mov	r8, r3
 8002d3c:	46a1      	mov	r9, r4
 8002d3e:	eb18 080a 	adds.w	r8, r8, sl
 8002d42:	eb49 090b 	adc.w	r9, r9, fp
 8002d46:	f04f 0100 	mov.w	r1, #0
 8002d4a:	f04f 0200 	mov.w	r2, #0
 8002d4e:	ea4f 02c9 	mov.w	r2, r9, lsl #3
 8002d52:	ea42 7258 	orr.w	r2, r2, r8, lsr #29
 8002d56:	ea4f 01c8 	mov.w	r1, r8, lsl #3
 8002d5a:	4688      	mov	r8, r1
 8002d5c:	4691      	mov	r9, r2
 8002d5e:	eb1a 0508 	adds.w	r5, sl, r8
 8002d62:	eb4b 0609 	adc.w	r6, fp, r9
 8002d66:	687b      	ldr	r3, [r7, #4]
 8002d68:	685b      	ldr	r3, [r3, #4]
 8002d6a:	4619      	mov	r1, r3
 8002d6c:	f04f 0200 	mov.w	r2, #0
 8002d70:	f04f 0300 	mov.w	r3, #0
 8002d74:	f04f 0400 	mov.w	r4, #0
 8002d78:	0094      	lsls	r4, r2, #2
 8002d7a:	ea44 7491 	orr.w	r4, r4, r1, lsr #30
 8002d7e:	008b      	lsls	r3, r1, #2
 8002d80:	461a      	mov	r2, r3
 8002d82:	4623      	mov	r3, r4
 8002d84:	4628      	mov	r0, r5
 8002d86:	4631      	mov	r1, r6
 8002d88:	f7fd fa9a 	bl	80002c0 <__aeabi_uldivmod>
 8002d8c:	4603      	mov	r3, r0
 8002d8e:	460c      	mov	r4, r1
 8002d90:	461a      	mov	r2, r3
 8002d92:	4b50      	ldr	r3, [pc, #320]	; (8002ed4 <UART_SetConfig+0x6f4>)
 8002d94:	fba3 2302 	umull	r2, r3, r3, r2
 8002d98:	095b      	lsrs	r3, r3, #5
 8002d9a:	ea4f 1803 	mov.w	r8, r3, lsl #4
 8002d9e:	68bb      	ldr	r3, [r7, #8]
 8002da0:	469b      	mov	fp, r3
 8002da2:	f04f 0c00 	mov.w	ip, #0
 8002da6:	46d9      	mov	r9, fp
 8002da8:	46e2      	mov	sl, ip
 8002daa:	eb19 0309 	adds.w	r3, r9, r9
 8002dae:	eb4a 040a 	adc.w	r4, sl, sl
 8002db2:	4699      	mov	r9, r3
 8002db4:	46a2      	mov	sl, r4
 8002db6:	eb19 090b 	adds.w	r9, r9, fp
 8002dba:	eb4a 0a0c 	adc.w	sl, sl, ip
 8002dbe:	f04f 0100 	mov.w	r1, #0
 8002dc2:	f04f 0200 	mov.w	r2, #0
 8002dc6:	ea4f 02ca 	mov.w	r2, sl, lsl #3
 8002dca:	ea42 7259 	orr.w	r2, r2, r9, lsr #29
 8002dce:	ea4f 01c9 	mov.w	r1, r9, lsl #3
 8002dd2:	4689      	mov	r9, r1
 8002dd4:	4692      	mov	sl, r2
 8002dd6:	eb1b 0509 	adds.w	r5, fp, r9
 8002dda:	eb4c 060a 	adc.w	r6, ip, sl
 8002dde:	687b      	ldr	r3, [r7, #4]
 8002de0:	685b      	ldr	r3, [r3, #4]
 8002de2:	4619      	mov	r1, r3
 8002de4:	f04f 0200 	mov.w	r2, #0
 8002de8:	f04f 0300 	mov.w	r3, #0
 8002dec:	f04f 0400 	mov.w	r4, #0
 8002df0:	0094      	lsls	r4, r2, #2
 8002df2:	ea44 7491 	orr.w	r4, r4, r1, lsr #30
 8002df6:	008b      	lsls	r3, r1, #2
 8002df8:	461a      	mov	r2, r3
 8002dfa:	4623      	mov	r3, r4
 8002dfc:	4628      	mov	r0, r5
 8002dfe:	4631      	mov	r1, r6
 8002e00:	f7fd fa5e 	bl	80002c0 <__aeabi_uldivmod>
 8002e04:	4603      	mov	r3, r0
 8002e06:	460c      	mov	r4, r1
 8002e08:	461a      	mov	r2, r3
 8002e0a:	4b32      	ldr	r3, [pc, #200]	; (8002ed4 <UART_SetConfig+0x6f4>)
 8002e0c:	fba3 1302 	umull	r1, r3, r3, r2
 8002e10:	095b      	lsrs	r3, r3, #5
 8002e12:	2164      	movs	r1, #100	; 0x64
 8002e14:	fb01 f303 	mul.w	r3, r1, r3
 8002e18:	1ad3      	subs	r3, r2, r3
 8002e1a:	011b      	lsls	r3, r3, #4
 8002e1c:	3332      	adds	r3, #50	; 0x32
 8002e1e:	4a2d      	ldr	r2, [pc, #180]	; (8002ed4 <UART_SetConfig+0x6f4>)
 8002e20:	fba2 2303 	umull	r2, r3, r2, r3
 8002e24:	095b      	lsrs	r3, r3, #5
 8002e26:	f003 03f0 	and.w	r3, r3, #240	; 0xf0
 8002e2a:	4498      	add	r8, r3
 8002e2c:	68bb      	ldr	r3, [r7, #8]
 8002e2e:	469b      	mov	fp, r3
 8002e30:	f04f 0c00 	mov.w	ip, #0
 8002e34:	46d9      	mov	r9, fp
 8002e36:	46e2      	mov	sl, ip
 8002e38:	eb19 0309 	adds.w	r3, r9, r9
 8002e3c:	eb4a 040a 	adc.w	r4, sl, sl
 8002e40:	4699      	mov	r9, r3
 8002e42:	46a2      	mov	sl, r4
 8002e44:	eb19 090b 	adds.w	r9, r9, fp
 8002e48:	eb4a 0a0c 	adc.w	sl, sl, ip
 8002e4c:	f04f 0100 	mov.w	r1, #0
 8002e50:	f04f 0200 	mov.w	r2, #0
 8002e54:	ea4f 02ca 	mov.w	r2, sl, lsl #3
 8002e58:	ea42 7259 	orr.w	r2, r2, r9, lsr #29
 8002e5c:	ea4f 01c9 	mov.w	r1, r9, lsl #3
 8002e60:	4689      	mov	r9, r1
 8002e62:	4692      	mov	sl, r2
 8002e64:	eb1b 0509 	adds.w	r5, fp, r9
 8002e68:	eb4c 060a 	adc.w	r6, ip, sl
 8002e6c:	687b      	ldr	r3, [r7, #4]
 8002e6e:	685b      	ldr	r3, [r3, #4]
 8002e70:	4619      	mov	r1, r3
 8002e72:	f04f 0200 	mov.w	r2, #0
 8002e76:	f04f 0300 	mov.w	r3, #0
 8002e7a:	f04f 0400 	mov.w	r4, #0
 8002e7e:	0094      	lsls	r4, r2, #2
 8002e80:	ea44 7491 	orr.w	r4, r4, r1, lsr #30
 8002e84:	008b      	lsls	r3, r1, #2
 8002e86:	461a      	mov	r2, r3
 8002e88:	4623      	mov	r3, r4
 8002e8a:	4628      	mov	r0, r5
 8002e8c:	4631      	mov	r1, r6
 8002e8e:	f7fd fa17 	bl	80002c0 <__aeabi_uldivmod>
 8002e92:	4603      	mov	r3, r0
 8002e94:	460c      	mov	r4, r1
 8002e96:	461a      	mov	r2, r3
 8002e98:	4b0e      	ldr	r3, [pc, #56]	; (8002ed4 <UART_SetConfig+0x6f4>)
 8002e9a:	fba3 1302 	umull	r1, r3, r3, r2
 8002e9e:	095b      	lsrs	r3, r3, #5
 8002ea0:	2164      	movs	r1, #100	; 0x64
 8002ea2:	fb01 f303 	mul.w	r3, r1, r3
 8002ea6:	1ad3      	subs	r3, r2, r3
 8002ea8:	011b      	lsls	r3, r3, #4
 8002eaa:	3332      	adds	r3, #50	; 0x32
 8002eac:	4a09      	ldr	r2, [pc, #36]	; (8002ed4 <UART_SetConfig+0x6f4>)
 8002eae:	fba2 2303 	umull	r2, r3, r2, r3
 8002eb2:	095b      	lsrs	r3, r3, #5
 8002eb4:	f003 020f 	and.w	r2, r3, #15
 8002eb8:	687b      	ldr	r3, [r7, #4]
 8002eba:	681b      	ldr	r3, [r3, #0]
 8002ebc:	4442      	add	r2, r8
 8002ebe:	609a      	str	r2, [r3, #8]
}
 8002ec0:	e7ff      	b.n	8002ec2 <UART_SetConfig+0x6e2>
 8002ec2:	bf00      	nop
 8002ec4:	3714      	adds	r7, #20
 8002ec6:	46bd      	mov	sp, r7
 8002ec8:	e8bd 8ff0 	ldmia.w	sp!, {r4, r5, r6, r7, r8, r9, sl, fp, pc}
 8002ecc:	40011000 	.word	0x40011000
 8002ed0:	40011400 	.word	0x40011400
 8002ed4:	51eb851f 	.word	0x51eb851f

08002ed8 <__errno>:
 8002ed8:	4b01      	ldr	r3, [pc, #4]	; (8002ee0 <__errno+0x8>)
 8002eda:	6818      	ldr	r0, [r3, #0]
 8002edc:	4770      	bx	lr
 8002ede:	bf00      	nop
 8002ee0:	2000000c 	.word	0x2000000c

08002ee4 <__libc_init_array>:
 8002ee4:	b570      	push	{r4, r5, r6, lr}
 8002ee6:	4e0d      	ldr	r6, [pc, #52]	; (8002f1c <__libc_init_array+0x38>)
 8002ee8:	4c0d      	ldr	r4, [pc, #52]	; (8002f20 <__libc_init_array+0x3c>)
 8002eea:	1ba4      	subs	r4, r4, r6
 8002eec:	10a4      	asrs	r4, r4, #2
 8002eee:	2500      	movs	r5, #0
 8002ef0:	42a5      	cmp	r5, r4
 8002ef2:	d109      	bne.n	8002f08 <__libc_init_array+0x24>
 8002ef4:	4e0b      	ldr	r6, [pc, #44]	; (8002f24 <__libc_init_array+0x40>)
 8002ef6:	4c0c      	ldr	r4, [pc, #48]	; (8002f28 <__libc_init_array+0x44>)
 8002ef8:	f000 fc26 	bl	8003748 <_init>
 8002efc:	1ba4      	subs	r4, r4, r6
 8002efe:	10a4      	asrs	r4, r4, #2
 8002f00:	2500      	movs	r5, #0
 8002f02:	42a5      	cmp	r5, r4
 8002f04:	d105      	bne.n	8002f12 <__libc_init_array+0x2e>
 8002f06:	bd70      	pop	{r4, r5, r6, pc}
 8002f08:	f856 3025 	ldr.w	r3, [r6, r5, lsl #2]
 8002f0c:	4798      	blx	r3
 8002f0e:	3501      	adds	r5, #1
 8002f10:	e7ee      	b.n	8002ef0 <__libc_init_array+0xc>
 8002f12:	f856 3025 	ldr.w	r3, [r6, r5, lsl #2]
 8002f16:	4798      	blx	r3
 8002f18:	3501      	adds	r5, #1
 8002f1a:	e7f2      	b.n	8002f02 <__libc_init_array+0x1e>
 8002f1c:	080037cc 	.word	0x080037cc
 8002f20:	080037cc 	.word	0x080037cc
 8002f24:	080037cc 	.word	0x080037cc
 8002f28:	080037d0 	.word	0x080037d0

08002f2c <memset>:
 8002f2c:	4402      	add	r2, r0
 8002f2e:	4603      	mov	r3, r0
 8002f30:	4293      	cmp	r3, r2
 8002f32:	d100      	bne.n	8002f36 <memset+0xa>
 8002f34:	4770      	bx	lr
 8002f36:	f803 1b01 	strb.w	r1, [r3], #1
 8002f3a:	e7f9      	b.n	8002f30 <memset+0x4>

08002f3c <siprintf>:
 8002f3c:	b40e      	push	{r1, r2, r3}
 8002f3e:	b500      	push	{lr}
 8002f40:	b09c      	sub	sp, #112	; 0x70
 8002f42:	ab1d      	add	r3, sp, #116	; 0x74
 8002f44:	9002      	str	r0, [sp, #8]
 8002f46:	9006      	str	r0, [sp, #24]
 8002f48:	f06f 4100 	mvn.w	r1, #2147483648	; 0x80000000
 8002f4c:	4809      	ldr	r0, [pc, #36]	; (8002f74 <siprintf+0x38>)
 8002f4e:	9107      	str	r1, [sp, #28]
 8002f50:	9104      	str	r1, [sp, #16]
 8002f52:	4909      	ldr	r1, [pc, #36]	; (8002f78 <siprintf+0x3c>)
 8002f54:	f853 2b04 	ldr.w	r2, [r3], #4
 8002f58:	9105      	str	r1, [sp, #20]
 8002f5a:	6800      	ldr	r0, [r0, #0]
 8002f5c:	9301      	str	r3, [sp, #4]
 8002f5e:	a902      	add	r1, sp, #8
 8002f60:	f000 f866 	bl	8003030 <_svfiprintf_r>
 8002f64:	9b02      	ldr	r3, [sp, #8]
 8002f66:	2200      	movs	r2, #0
 8002f68:	701a      	strb	r2, [r3, #0]
 8002f6a:	b01c      	add	sp, #112	; 0x70
 8002f6c:	f85d eb04 	ldr.w	lr, [sp], #4
 8002f70:	b003      	add	sp, #12
 8002f72:	4770      	bx	lr
 8002f74:	2000000c 	.word	0x2000000c
 8002f78:	ffff0208 	.word	0xffff0208

08002f7c <__ssputs_r>:
 8002f7c:	e92d 47f0 	stmdb	sp!, {r4, r5, r6, r7, r8, r9, sl, lr}
 8002f80:	688e      	ldr	r6, [r1, #8]
 8002f82:	429e      	cmp	r6, r3
 8002f84:	4682      	mov	sl, r0
 8002f86:	460c      	mov	r4, r1
 8002f88:	4690      	mov	r8, r2
 8002f8a:	4699      	mov	r9, r3
 8002f8c:	d837      	bhi.n	8002ffe <__ssputs_r+0x82>
 8002f8e:	898a      	ldrh	r2, [r1, #12]
 8002f90:	f412 6f90 	tst.w	r2, #1152	; 0x480
 8002f94:	d031      	beq.n	8002ffa <__ssputs_r+0x7e>
 8002f96:	6825      	ldr	r5, [r4, #0]
 8002f98:	6909      	ldr	r1, [r1, #16]
 8002f9a:	1a6f      	subs	r7, r5, r1
 8002f9c:	6965      	ldr	r5, [r4, #20]
 8002f9e:	2302      	movs	r3, #2
 8002fa0:	eb05 0545 	add.w	r5, r5, r5, lsl #1
 8002fa4:	fb95 f5f3 	sdiv	r5, r5, r3
 8002fa8:	f109 0301 	add.w	r3, r9, #1
 8002fac:	443b      	add	r3, r7
 8002fae:	429d      	cmp	r5, r3
 8002fb0:	bf38      	it	cc
 8002fb2:	461d      	movcc	r5, r3
 8002fb4:	0553      	lsls	r3, r2, #21
 8002fb6:	d530      	bpl.n	800301a <__ssputs_r+0x9e>
 8002fb8:	4629      	mov	r1, r5
 8002fba:	f000 fb2b 	bl	8003614 <_malloc_r>
 8002fbe:	4606      	mov	r6, r0
 8002fc0:	b950      	cbnz	r0, 8002fd8 <__ssputs_r+0x5c>
 8002fc2:	230c      	movs	r3, #12
 8002fc4:	f8ca 3000 	str.w	r3, [sl]
 8002fc8:	89a3      	ldrh	r3, [r4, #12]
 8002fca:	f043 0340 	orr.w	r3, r3, #64	; 0x40
 8002fce:	81a3      	strh	r3, [r4, #12]
 8002fd0:	f04f 30ff 	mov.w	r0, #4294967295
 8002fd4:	e8bd 87f0 	ldmia.w	sp!, {r4, r5, r6, r7, r8, r9, sl, pc}
 8002fd8:	463a      	mov	r2, r7
 8002fda:	6921      	ldr	r1, [r4, #16]
 8002fdc:	f000 faa8 	bl	8003530 <memcpy>
 8002fe0:	89a3      	ldrh	r3, [r4, #12]
 8002fe2:	f423 6390 	bic.w	r3, r3, #1152	; 0x480
 8002fe6:	f043 0380 	orr.w	r3, r3, #128	; 0x80
 8002fea:	81a3      	strh	r3, [r4, #12]
 8002fec:	6126      	str	r6, [r4, #16]
 8002fee:	6165      	str	r5, [r4, #20]
 8002ff0:	443e      	add	r6, r7
 8002ff2:	1bed      	subs	r5, r5, r7
 8002ff4:	6026      	str	r6, [r4, #0]
 8002ff6:	60a5      	str	r5, [r4, #8]
 8002ff8:	464e      	mov	r6, r9
 8002ffa:	454e      	cmp	r6, r9
 8002ffc:	d900      	bls.n	8003000 <__ssputs_r+0x84>
 8002ffe:	464e      	mov	r6, r9
 8003000:	4632      	mov	r2, r6
 8003002:	4641      	mov	r1, r8
 8003004:	6820      	ldr	r0, [r4, #0]
 8003006:	f000 fa9e 	bl	8003546 <memmove>
 800300a:	68a3      	ldr	r3, [r4, #8]
 800300c:	1b9b      	subs	r3, r3, r6
 800300e:	60a3      	str	r3, [r4, #8]
 8003010:	6823      	ldr	r3, [r4, #0]
 8003012:	441e      	add	r6, r3
 8003014:	6026      	str	r6, [r4, #0]
 8003016:	2000      	movs	r0, #0
 8003018:	e7dc      	b.n	8002fd4 <__ssputs_r+0x58>
 800301a:	462a      	mov	r2, r5
 800301c:	f000 fb54 	bl	80036c8 <_realloc_r>
 8003020:	4606      	mov	r6, r0
 8003022:	2800      	cmp	r0, #0
 8003024:	d1e2      	bne.n	8002fec <__ssputs_r+0x70>
 8003026:	6921      	ldr	r1, [r4, #16]
 8003028:	4650      	mov	r0, sl
 800302a:	f000 faa5 	bl	8003578 <_free_r>
 800302e:	e7c8      	b.n	8002fc2 <__ssputs_r+0x46>

08003030 <_svfiprintf_r>:
 8003030:	e92d 4ff0 	stmdb	sp!, {r4, r5, r6, r7, r8, r9, sl, fp, lr}
 8003034:	461d      	mov	r5, r3
 8003036:	898b      	ldrh	r3, [r1, #12]
 8003038:	061f      	lsls	r7, r3, #24
 800303a:	b09d      	sub	sp, #116	; 0x74
 800303c:	4680      	mov	r8, r0
 800303e:	460c      	mov	r4, r1
 8003040:	4616      	mov	r6, r2
 8003042:	d50f      	bpl.n	8003064 <_svfiprintf_r+0x34>
 8003044:	690b      	ldr	r3, [r1, #16]
 8003046:	b96b      	cbnz	r3, 8003064 <_svfiprintf_r+0x34>
 8003048:	2140      	movs	r1, #64	; 0x40
 800304a:	f000 fae3 	bl	8003614 <_malloc_r>
 800304e:	6020      	str	r0, [r4, #0]
 8003050:	6120      	str	r0, [r4, #16]
 8003052:	b928      	cbnz	r0, 8003060 <_svfiprintf_r+0x30>
 8003054:	230c      	movs	r3, #12
 8003056:	f8c8 3000 	str.w	r3, [r8]
 800305a:	f04f 30ff 	mov.w	r0, #4294967295
 800305e:	e0c8      	b.n	80031f2 <_svfiprintf_r+0x1c2>
 8003060:	2340      	movs	r3, #64	; 0x40
 8003062:	6163      	str	r3, [r4, #20]
 8003064:	2300      	movs	r3, #0
 8003066:	9309      	str	r3, [sp, #36]	; 0x24
 8003068:	2320      	movs	r3, #32
 800306a:	f88d 3029 	strb.w	r3, [sp, #41]	; 0x29
 800306e:	2330      	movs	r3, #48	; 0x30
 8003070:	f88d 302a 	strb.w	r3, [sp, #42]	; 0x2a
 8003074:	9503      	str	r5, [sp, #12]
 8003076:	f04f 0b01 	mov.w	fp, #1
 800307a:	4637      	mov	r7, r6
 800307c:	463d      	mov	r5, r7
 800307e:	f815 3b01 	ldrb.w	r3, [r5], #1
 8003082:	b10b      	cbz	r3, 8003088 <_svfiprintf_r+0x58>
 8003084:	2b25      	cmp	r3, #37	; 0x25
 8003086:	d13e      	bne.n	8003106 <_svfiprintf_r+0xd6>
 8003088:	ebb7 0a06 	subs.w	sl, r7, r6
 800308c:	d00b      	beq.n	80030a6 <_svfiprintf_r+0x76>
 800308e:	4653      	mov	r3, sl
 8003090:	4632      	mov	r2, r6
 8003092:	4621      	mov	r1, r4
 8003094:	4640      	mov	r0, r8
 8003096:	f7ff ff71 	bl	8002f7c <__ssputs_r>
 800309a:	3001      	adds	r0, #1
 800309c:	f000 80a4 	beq.w	80031e8 <_svfiprintf_r+0x1b8>
 80030a0:	9b09      	ldr	r3, [sp, #36]	; 0x24
 80030a2:	4453      	add	r3, sl
 80030a4:	9309      	str	r3, [sp, #36]	; 0x24
 80030a6:	783b      	ldrb	r3, [r7, #0]
 80030a8:	2b00      	cmp	r3, #0
 80030aa:	f000 809d 	beq.w	80031e8 <_svfiprintf_r+0x1b8>
 80030ae:	2300      	movs	r3, #0
 80030b0:	f04f 32ff 	mov.w	r2, #4294967295
 80030b4:	e9cd 2305 	strd	r2, r3, [sp, #20]
 80030b8:	9304      	str	r3, [sp, #16]
 80030ba:	9307      	str	r3, [sp, #28]
 80030bc:	f88d 3053 	strb.w	r3, [sp, #83]	; 0x53
 80030c0:	931a      	str	r3, [sp, #104]	; 0x68
 80030c2:	462f      	mov	r7, r5
 80030c4:	2205      	movs	r2, #5
 80030c6:	f817 1b01 	ldrb.w	r1, [r7], #1
 80030ca:	4850      	ldr	r0, [pc, #320]	; (800320c <_svfiprintf_r+0x1dc>)
 80030cc:	f7fd f8a8 	bl	8000220 <memchr>
 80030d0:	9b04      	ldr	r3, [sp, #16]
 80030d2:	b9d0      	cbnz	r0, 800310a <_svfiprintf_r+0xda>
 80030d4:	06d9      	lsls	r1, r3, #27
 80030d6:	bf44      	itt	mi
 80030d8:	2220      	movmi	r2, #32
 80030da:	f88d 2053 	strbmi.w	r2, [sp, #83]	; 0x53
 80030de:	071a      	lsls	r2, r3, #28
 80030e0:	bf44      	itt	mi
 80030e2:	222b      	movmi	r2, #43	; 0x2b
 80030e4:	f88d 2053 	strbmi.w	r2, [sp, #83]	; 0x53
 80030e8:	782a      	ldrb	r2, [r5, #0]
 80030ea:	2a2a      	cmp	r2, #42	; 0x2a
 80030ec:	d015      	beq.n	800311a <_svfiprintf_r+0xea>
 80030ee:	9a07      	ldr	r2, [sp, #28]
 80030f0:	462f      	mov	r7, r5
 80030f2:	2000      	movs	r0, #0
 80030f4:	250a      	movs	r5, #10
 80030f6:	4639      	mov	r1, r7
 80030f8:	f811 3b01 	ldrb.w	r3, [r1], #1
 80030fc:	3b30      	subs	r3, #48	; 0x30
 80030fe:	2b09      	cmp	r3, #9
 8003100:	d94d      	bls.n	800319e <_svfiprintf_r+0x16e>
 8003102:	b1b8      	cbz	r0, 8003134 <_svfiprintf_r+0x104>
 8003104:	e00f      	b.n	8003126 <_svfiprintf_r+0xf6>
 8003106:	462f      	mov	r7, r5
 8003108:	e7b8      	b.n	800307c <_svfiprintf_r+0x4c>
 800310a:	4a40      	ldr	r2, [pc, #256]	; (800320c <_svfiprintf_r+0x1dc>)
 800310c:	1a80      	subs	r0, r0, r2
 800310e:	fa0b f000 	lsl.w	r0, fp, r0
 8003112:	4318      	orrs	r0, r3
 8003114:	9004      	str	r0, [sp, #16]
 8003116:	463d      	mov	r5, r7
 8003118:	e7d3      	b.n	80030c2 <_svfiprintf_r+0x92>
 800311a:	9a03      	ldr	r2, [sp, #12]
 800311c:	1d11      	adds	r1, r2, #4
 800311e:	6812      	ldr	r2, [r2, #0]
 8003120:	9103      	str	r1, [sp, #12]
 8003122:	2a00      	cmp	r2, #0
 8003124:	db01      	blt.n	800312a <_svfiprintf_r+0xfa>
 8003126:	9207      	str	r2, [sp, #28]
 8003128:	e004      	b.n	8003134 <_svfiprintf_r+0x104>
 800312a:	4252      	negs	r2, r2
 800312c:	f043 0302 	orr.w	r3, r3, #2
 8003130:	9207      	str	r2, [sp, #28]
 8003132:	9304      	str	r3, [sp, #16]
 8003134:	783b      	ldrb	r3, [r7, #0]
 8003136:	2b2e      	cmp	r3, #46	; 0x2e
 8003138:	d10c      	bne.n	8003154 <_svfiprintf_r+0x124>
 800313a:	787b      	ldrb	r3, [r7, #1]
 800313c:	2b2a      	cmp	r3, #42	; 0x2a
 800313e:	d133      	bne.n	80031a8 <_svfiprintf_r+0x178>
 8003140:	9b03      	ldr	r3, [sp, #12]
 8003142:	1d1a      	adds	r2, r3, #4
 8003144:	681b      	ldr	r3, [r3, #0]
 8003146:	9203      	str	r2, [sp, #12]
 8003148:	2b00      	cmp	r3, #0
 800314a:	bfb8      	it	lt
 800314c:	f04f 33ff 	movlt.w	r3, #4294967295
 8003150:	3702      	adds	r7, #2
 8003152:	9305      	str	r3, [sp, #20]
 8003154:	4d2e      	ldr	r5, [pc, #184]	; (8003210 <_svfiprintf_r+0x1e0>)
 8003156:	7839      	ldrb	r1, [r7, #0]
 8003158:	2203      	movs	r2, #3
 800315a:	4628      	mov	r0, r5
 800315c:	f7fd f860 	bl	8000220 <memchr>
 8003160:	b138      	cbz	r0, 8003172 <_svfiprintf_r+0x142>
 8003162:	2340      	movs	r3, #64	; 0x40
 8003164:	1b40      	subs	r0, r0, r5
 8003166:	fa03 f000 	lsl.w	r0, r3, r0
 800316a:	9b04      	ldr	r3, [sp, #16]
 800316c:	4303      	orrs	r3, r0
 800316e:	3701      	adds	r7, #1
 8003170:	9304      	str	r3, [sp, #16]
 8003172:	7839      	ldrb	r1, [r7, #0]
 8003174:	4827      	ldr	r0, [pc, #156]	; (8003214 <_svfiprintf_r+0x1e4>)
 8003176:	f88d 1028 	strb.w	r1, [sp, #40]	; 0x28
 800317a:	2206      	movs	r2, #6
 800317c:	1c7e      	adds	r6, r7, #1
 800317e:	f7fd f84f 	bl	8000220 <memchr>
 8003182:	2800      	cmp	r0, #0
 8003184:	d038      	beq.n	80031f8 <_svfiprintf_r+0x1c8>
 8003186:	4b24      	ldr	r3, [pc, #144]	; (8003218 <_svfiprintf_r+0x1e8>)
 8003188:	bb13      	cbnz	r3, 80031d0 <_svfiprintf_r+0x1a0>
 800318a:	9b03      	ldr	r3, [sp, #12]
 800318c:	3307      	adds	r3, #7
 800318e:	f023 0307 	bic.w	r3, r3, #7
 8003192:	3308      	adds	r3, #8
 8003194:	9303      	str	r3, [sp, #12]
 8003196:	9b09      	ldr	r3, [sp, #36]	; 0x24
 8003198:	444b      	add	r3, r9
 800319a:	9309      	str	r3, [sp, #36]	; 0x24
 800319c:	e76d      	b.n	800307a <_svfiprintf_r+0x4a>
 800319e:	fb05 3202 	mla	r2, r5, r2, r3
 80031a2:	2001      	movs	r0, #1
 80031a4:	460f      	mov	r7, r1
 80031a6:	e7a6      	b.n	80030f6 <_svfiprintf_r+0xc6>
 80031a8:	2300      	movs	r3, #0
 80031aa:	3701      	adds	r7, #1
 80031ac:	9305      	str	r3, [sp, #20]
 80031ae:	4619      	mov	r1, r3
 80031b0:	250a      	movs	r5, #10
 80031b2:	4638      	mov	r0, r7
 80031b4:	f810 2b01 	ldrb.w	r2, [r0], #1
 80031b8:	3a30      	subs	r2, #48	; 0x30
 80031ba:	2a09      	cmp	r2, #9
 80031bc:	d903      	bls.n	80031c6 <_svfiprintf_r+0x196>
 80031be:	2b00      	cmp	r3, #0
 80031c0:	d0c8      	beq.n	8003154 <_svfiprintf_r+0x124>
 80031c2:	9105      	str	r1, [sp, #20]
 80031c4:	e7c6      	b.n	8003154 <_svfiprintf_r+0x124>
 80031c6:	fb05 2101 	mla	r1, r5, r1, r2
 80031ca:	2301      	movs	r3, #1
 80031cc:	4607      	mov	r7, r0
 80031ce:	e7f0      	b.n	80031b2 <_svfiprintf_r+0x182>
 80031d0:	ab03      	add	r3, sp, #12
 80031d2:	9300      	str	r3, [sp, #0]
 80031d4:	4622      	mov	r2, r4
 80031d6:	4b11      	ldr	r3, [pc, #68]	; (800321c <_svfiprintf_r+0x1ec>)
 80031d8:	a904      	add	r1, sp, #16
 80031da:	4640      	mov	r0, r8
 80031dc:	f3af 8000 	nop.w
 80031e0:	f1b0 3fff 	cmp.w	r0, #4294967295
 80031e4:	4681      	mov	r9, r0
 80031e6:	d1d6      	bne.n	8003196 <_svfiprintf_r+0x166>
 80031e8:	89a3      	ldrh	r3, [r4, #12]
 80031ea:	065b      	lsls	r3, r3, #25
 80031ec:	f53f af35 	bmi.w	800305a <_svfiprintf_r+0x2a>
 80031f0:	9809      	ldr	r0, [sp, #36]	; 0x24
 80031f2:	b01d      	add	sp, #116	; 0x74
 80031f4:	e8bd 8ff0 	ldmia.w	sp!, {r4, r5, r6, r7, r8, r9, sl, fp, pc}
 80031f8:	ab03      	add	r3, sp, #12
 80031fa:	9300      	str	r3, [sp, #0]
 80031fc:	4622      	mov	r2, r4
 80031fe:	4b07      	ldr	r3, [pc, #28]	; (800321c <_svfiprintf_r+0x1ec>)
 8003200:	a904      	add	r1, sp, #16
 8003202:	4640      	mov	r0, r8
 8003204:	f000 f882 	bl	800330c <_printf_i>
 8003208:	e7ea      	b.n	80031e0 <_svfiprintf_r+0x1b0>
 800320a:	bf00      	nop
 800320c:	08003790 	.word	0x08003790
 8003210:	08003796 	.word	0x08003796
 8003214:	0800379a 	.word	0x0800379a
 8003218:	00000000 	.word	0x00000000
 800321c:	08002f7d 	.word	0x08002f7d

08003220 <_printf_common>:
 8003220:	e92d 47f0 	stmdb	sp!, {r4, r5, r6, r7, r8, r9, sl, lr}
 8003224:	4691      	mov	r9, r2
 8003226:	461f      	mov	r7, r3
 8003228:	688a      	ldr	r2, [r1, #8]
 800322a:	690b      	ldr	r3, [r1, #16]
 800322c:	f8dd 8020 	ldr.w	r8, [sp, #32]
 8003230:	4293      	cmp	r3, r2
 8003232:	bfb8      	it	lt
 8003234:	4613      	movlt	r3, r2
 8003236:	f8c9 3000 	str.w	r3, [r9]
 800323a:	f891 2043 	ldrb.w	r2, [r1, #67]	; 0x43
 800323e:	4606      	mov	r6, r0
 8003240:	460c      	mov	r4, r1
 8003242:	b112      	cbz	r2, 800324a <_printf_common+0x2a>
 8003244:	3301      	adds	r3, #1
 8003246:	f8c9 3000 	str.w	r3, [r9]
 800324a:	6823      	ldr	r3, [r4, #0]
 800324c:	0699      	lsls	r1, r3, #26
 800324e:	bf42      	ittt	mi
 8003250:	f8d9 3000 	ldrmi.w	r3, [r9]
 8003254:	3302      	addmi	r3, #2
 8003256:	f8c9 3000 	strmi.w	r3, [r9]
 800325a:	6825      	ldr	r5, [r4, #0]
 800325c:	f015 0506 	ands.w	r5, r5, #6
 8003260:	d107      	bne.n	8003272 <_printf_common+0x52>
 8003262:	f104 0a19 	add.w	sl, r4, #25
 8003266:	68e3      	ldr	r3, [r4, #12]
 8003268:	f8d9 2000 	ldr.w	r2, [r9]
 800326c:	1a9b      	subs	r3, r3, r2
 800326e:	42ab      	cmp	r3, r5
 8003270:	dc28      	bgt.n	80032c4 <_printf_common+0xa4>
 8003272:	f894 3043 	ldrb.w	r3, [r4, #67]	; 0x43
 8003276:	6822      	ldr	r2, [r4, #0]
 8003278:	3300      	adds	r3, #0
 800327a:	bf18      	it	ne
 800327c:	2301      	movne	r3, #1
 800327e:	0692      	lsls	r2, r2, #26
 8003280:	d42d      	bmi.n	80032de <_printf_common+0xbe>
 8003282:	f104 0243 	add.w	r2, r4, #67	; 0x43
 8003286:	4639      	mov	r1, r7
 8003288:	4630      	mov	r0, r6
 800328a:	47c0      	blx	r8
 800328c:	3001      	adds	r0, #1
 800328e:	d020      	beq.n	80032d2 <_printf_common+0xb2>
 8003290:	6823      	ldr	r3, [r4, #0]
 8003292:	68e5      	ldr	r5, [r4, #12]
 8003294:	f8d9 2000 	ldr.w	r2, [r9]
 8003298:	f003 0306 	and.w	r3, r3, #6
 800329c:	2b04      	cmp	r3, #4
 800329e:	bf08      	it	eq
 80032a0:	1aad      	subeq	r5, r5, r2
 80032a2:	68a3      	ldr	r3, [r4, #8]
 80032a4:	6922      	ldr	r2, [r4, #16]
 80032a6:	bf0c      	ite	eq
 80032a8:	ea25 75e5 	biceq.w	r5, r5, r5, asr #31
 80032ac:	2500      	movne	r5, #0
 80032ae:	4293      	cmp	r3, r2
 80032b0:	bfc4      	itt	gt
 80032b2:	1a9b      	subgt	r3, r3, r2
 80032b4:	18ed      	addgt	r5, r5, r3
 80032b6:	f04f 0900 	mov.w	r9, #0
 80032ba:	341a      	adds	r4, #26
 80032bc:	454d      	cmp	r5, r9
 80032be:	d11a      	bne.n	80032f6 <_printf_common+0xd6>
 80032c0:	2000      	movs	r0, #0
 80032c2:	e008      	b.n	80032d6 <_printf_common+0xb6>
 80032c4:	2301      	movs	r3, #1
 80032c6:	4652      	mov	r2, sl
 80032c8:	4639      	mov	r1, r7
 80032ca:	4630      	mov	r0, r6
 80032cc:	47c0      	blx	r8
 80032ce:	3001      	adds	r0, #1
 80032d0:	d103      	bne.n	80032da <_printf_common+0xba>
 80032d2:	f04f 30ff 	mov.w	r0, #4294967295
 80032d6:	e8bd 87f0 	ldmia.w	sp!, {r4, r5, r6, r7, r8, r9, sl, pc}
 80032da:	3501      	adds	r5, #1
 80032dc:	e7c3      	b.n	8003266 <_printf_common+0x46>
 80032de:	18e1      	adds	r1, r4, r3
 80032e0:	1c5a      	adds	r2, r3, #1
 80032e2:	2030      	movs	r0, #48	; 0x30
 80032e4:	f881 0043 	strb.w	r0, [r1, #67]	; 0x43
 80032e8:	4422      	add	r2, r4
 80032ea:	f894 1045 	ldrb.w	r1, [r4, #69]	; 0x45
 80032ee:	f882 1043 	strb.w	r1, [r2, #67]	; 0x43
 80032f2:	3302      	adds	r3, #2
 80032f4:	e7c5      	b.n	8003282 <_printf_common+0x62>
 80032f6:	2301      	movs	r3, #1
 80032f8:	4622      	mov	r2, r4
 80032fa:	4639      	mov	r1, r7
 80032fc:	4630      	mov	r0, r6
 80032fe:	47c0      	blx	r8
 8003300:	3001      	adds	r0, #1
 8003302:	d0e6      	beq.n	80032d2 <_printf_common+0xb2>
 8003304:	f109 0901 	add.w	r9, r9, #1
 8003308:	e7d8      	b.n	80032bc <_printf_common+0x9c>
	...

0800330c <_printf_i>:
 800330c:	e92d 43f0 	stmdb	sp!, {r4, r5, r6, r7, r8, r9, lr}
 8003310:	f101 0c43 	add.w	ip, r1, #67	; 0x43
 8003314:	460c      	mov	r4, r1
 8003316:	7e09      	ldrb	r1, [r1, #24]
 8003318:	b085      	sub	sp, #20
 800331a:	296e      	cmp	r1, #110	; 0x6e
 800331c:	4617      	mov	r7, r2
 800331e:	4606      	mov	r6, r0
 8003320:	4698      	mov	r8, r3
 8003322:	9a0c      	ldr	r2, [sp, #48]	; 0x30
 8003324:	f000 80b3 	beq.w	800348e <_printf_i+0x182>
 8003328:	d822      	bhi.n	8003370 <_printf_i+0x64>
 800332a:	2963      	cmp	r1, #99	; 0x63
 800332c:	d036      	beq.n	800339c <_printf_i+0x90>
 800332e:	d80a      	bhi.n	8003346 <_printf_i+0x3a>
 8003330:	2900      	cmp	r1, #0
 8003332:	f000 80b9 	beq.w	80034a8 <_printf_i+0x19c>
 8003336:	2958      	cmp	r1, #88	; 0x58
 8003338:	f000 8083 	beq.w	8003442 <_printf_i+0x136>
 800333c:	f104 0542 	add.w	r5, r4, #66	; 0x42
 8003340:	f884 1042 	strb.w	r1, [r4, #66]	; 0x42
 8003344:	e032      	b.n	80033ac <_printf_i+0xa0>
 8003346:	2964      	cmp	r1, #100	; 0x64
 8003348:	d001      	beq.n	800334e <_printf_i+0x42>
 800334a:	2969      	cmp	r1, #105	; 0x69
 800334c:	d1f6      	bne.n	800333c <_printf_i+0x30>
 800334e:	6820      	ldr	r0, [r4, #0]
 8003350:	6813      	ldr	r3, [r2, #0]
 8003352:	0605      	lsls	r5, r0, #24
 8003354:	f103 0104 	add.w	r1, r3, #4
 8003358:	d52a      	bpl.n	80033b0 <_printf_i+0xa4>
 800335a:	681b      	ldr	r3, [r3, #0]
 800335c:	6011      	str	r1, [r2, #0]
 800335e:	2b00      	cmp	r3, #0
 8003360:	da03      	bge.n	800336a <_printf_i+0x5e>
 8003362:	222d      	movs	r2, #45	; 0x2d
 8003364:	425b      	negs	r3, r3
 8003366:	f884 2043 	strb.w	r2, [r4, #67]	; 0x43
 800336a:	486f      	ldr	r0, [pc, #444]	; (8003528 <_printf_i+0x21c>)
 800336c:	220a      	movs	r2, #10
 800336e:	e039      	b.n	80033e4 <_printf_i+0xd8>
 8003370:	2973      	cmp	r1, #115	; 0x73
 8003372:	f000 809d 	beq.w	80034b0 <_printf_i+0x1a4>
 8003376:	d808      	bhi.n	800338a <_printf_i+0x7e>
 8003378:	296f      	cmp	r1, #111	; 0x6f
 800337a:	d020      	beq.n	80033be <_printf_i+0xb2>
 800337c:	2970      	cmp	r1, #112	; 0x70
 800337e:	d1dd      	bne.n	800333c <_printf_i+0x30>
 8003380:	6823      	ldr	r3, [r4, #0]
 8003382:	f043 0320 	orr.w	r3, r3, #32
 8003386:	6023      	str	r3, [r4, #0]
 8003388:	e003      	b.n	8003392 <_printf_i+0x86>
 800338a:	2975      	cmp	r1, #117	; 0x75
 800338c:	d017      	beq.n	80033be <_printf_i+0xb2>
 800338e:	2978      	cmp	r1, #120	; 0x78
 8003390:	d1d4      	bne.n	800333c <_printf_i+0x30>
 8003392:	2378      	movs	r3, #120	; 0x78
 8003394:	f884 3045 	strb.w	r3, [r4, #69]	; 0x45
 8003398:	4864      	ldr	r0, [pc, #400]	; (800352c <_printf_i+0x220>)
 800339a:	e055      	b.n	8003448 <_printf_i+0x13c>
 800339c:	6813      	ldr	r3, [r2, #0]
 800339e:	1d19      	adds	r1, r3, #4
 80033a0:	681b      	ldr	r3, [r3, #0]
 80033a2:	6011      	str	r1, [r2, #0]
 80033a4:	f104 0542 	add.w	r5, r4, #66	; 0x42
 80033a8:	f884 3042 	strb.w	r3, [r4, #66]	; 0x42
 80033ac:	2301      	movs	r3, #1
 80033ae:	e08c      	b.n	80034ca <_printf_i+0x1be>
 80033b0:	681b      	ldr	r3, [r3, #0]
 80033b2:	6011      	str	r1, [r2, #0]
 80033b4:	f010 0f40 	tst.w	r0, #64	; 0x40
 80033b8:	bf18      	it	ne
 80033ba:	b21b      	sxthne	r3, r3
 80033bc:	e7cf      	b.n	800335e <_printf_i+0x52>
 80033be:	6813      	ldr	r3, [r2, #0]
 80033c0:	6825      	ldr	r5, [r4, #0]
 80033c2:	1d18      	adds	r0, r3, #4
 80033c4:	6010      	str	r0, [r2, #0]
 80033c6:	0628      	lsls	r0, r5, #24
 80033c8:	d501      	bpl.n	80033ce <_printf_i+0xc2>
 80033ca:	681b      	ldr	r3, [r3, #0]
 80033cc:	e002      	b.n	80033d4 <_printf_i+0xc8>
 80033ce:	0668      	lsls	r0, r5, #25
 80033d0:	d5fb      	bpl.n	80033ca <_printf_i+0xbe>
 80033d2:	881b      	ldrh	r3, [r3, #0]
 80033d4:	4854      	ldr	r0, [pc, #336]	; (8003528 <_printf_i+0x21c>)
 80033d6:	296f      	cmp	r1, #111	; 0x6f
 80033d8:	bf14      	ite	ne
 80033da:	220a      	movne	r2, #10
 80033dc:	2208      	moveq	r2, #8
 80033de:	2100      	movs	r1, #0
 80033e0:	f884 1043 	strb.w	r1, [r4, #67]	; 0x43
 80033e4:	6865      	ldr	r5, [r4, #4]
 80033e6:	60a5      	str	r5, [r4, #8]
 80033e8:	2d00      	cmp	r5, #0
 80033ea:	f2c0 8095 	blt.w	8003518 <_printf_i+0x20c>
 80033ee:	6821      	ldr	r1, [r4, #0]
 80033f0:	f021 0104 	bic.w	r1, r1, #4
 80033f4:	6021      	str	r1, [r4, #0]
 80033f6:	2b00      	cmp	r3, #0
 80033f8:	d13d      	bne.n	8003476 <_printf_i+0x16a>
 80033fa:	2d00      	cmp	r5, #0
 80033fc:	f040 808e 	bne.w	800351c <_printf_i+0x210>
 8003400:	4665      	mov	r5, ip
 8003402:	2a08      	cmp	r2, #8
 8003404:	d10b      	bne.n	800341e <_printf_i+0x112>
 8003406:	6823      	ldr	r3, [r4, #0]
 8003408:	07db      	lsls	r3, r3, #31
 800340a:	d508      	bpl.n	800341e <_printf_i+0x112>
 800340c:	6923      	ldr	r3, [r4, #16]
 800340e:	6862      	ldr	r2, [r4, #4]
 8003410:	429a      	cmp	r2, r3
 8003412:	bfde      	ittt	le
 8003414:	2330      	movle	r3, #48	; 0x30
 8003416:	f805 3c01 	strble.w	r3, [r5, #-1]
 800341a:	f105 35ff 	addle.w	r5, r5, #4294967295
 800341e:	ebac 0305 	sub.w	r3, ip, r5
 8003422:	6123      	str	r3, [r4, #16]
 8003424:	f8cd 8000 	str.w	r8, [sp]
 8003428:	463b      	mov	r3, r7
 800342a:	aa03      	add	r2, sp, #12
 800342c:	4621      	mov	r1, r4
 800342e:	4630      	mov	r0, r6
 8003430:	f7ff fef6 	bl	8003220 <_printf_common>
 8003434:	3001      	adds	r0, #1
 8003436:	d14d      	bne.n	80034d4 <_printf_i+0x1c8>
 8003438:	f04f 30ff 	mov.w	r0, #4294967295
 800343c:	b005      	add	sp, #20
 800343e:	e8bd 83f0 	ldmia.w	sp!, {r4, r5, r6, r7, r8, r9, pc}
 8003442:	4839      	ldr	r0, [pc, #228]	; (8003528 <_printf_i+0x21c>)
 8003444:	f884 1045 	strb.w	r1, [r4, #69]	; 0x45
 8003448:	6813      	ldr	r3, [r2, #0]
 800344a:	6821      	ldr	r1, [r4, #0]
 800344c:	1d1d      	adds	r5, r3, #4
 800344e:	681b      	ldr	r3, [r3, #0]
 8003450:	6015      	str	r5, [r2, #0]
 8003452:	060a      	lsls	r2, r1, #24
 8003454:	d50b      	bpl.n	800346e <_printf_i+0x162>
 8003456:	07ca      	lsls	r2, r1, #31
 8003458:	bf44      	itt	mi
 800345a:	f041 0120 	orrmi.w	r1, r1, #32
 800345e:	6021      	strmi	r1, [r4, #0]
 8003460:	b91b      	cbnz	r3, 800346a <_printf_i+0x15e>
 8003462:	6822      	ldr	r2, [r4, #0]
 8003464:	f022 0220 	bic.w	r2, r2, #32
 8003468:	6022      	str	r2, [r4, #0]
 800346a:	2210      	movs	r2, #16
 800346c:	e7b7      	b.n	80033de <_printf_i+0xd2>
 800346e:	064d      	lsls	r5, r1, #25
 8003470:	bf48      	it	mi
 8003472:	b29b      	uxthmi	r3, r3
 8003474:	e7ef      	b.n	8003456 <_printf_i+0x14a>
 8003476:	4665      	mov	r5, ip
 8003478:	fbb3 f1f2 	udiv	r1, r3, r2
 800347c:	fb02 3311 	mls	r3, r2, r1, r3
 8003480:	5cc3      	ldrb	r3, [r0, r3]
 8003482:	f805 3d01 	strb.w	r3, [r5, #-1]!
 8003486:	460b      	mov	r3, r1
 8003488:	2900      	cmp	r1, #0
 800348a:	d1f5      	bne.n	8003478 <_printf_i+0x16c>
 800348c:	e7b9      	b.n	8003402 <_printf_i+0xf6>
 800348e:	6813      	ldr	r3, [r2, #0]
 8003490:	6825      	ldr	r5, [r4, #0]
 8003492:	6961      	ldr	r1, [r4, #20]
 8003494:	1d18      	adds	r0, r3, #4
 8003496:	6010      	str	r0, [r2, #0]
 8003498:	0628      	lsls	r0, r5, #24
 800349a:	681b      	ldr	r3, [r3, #0]
 800349c:	d501      	bpl.n	80034a2 <_printf_i+0x196>
 800349e:	6019      	str	r1, [r3, #0]
 80034a0:	e002      	b.n	80034a8 <_printf_i+0x19c>
 80034a2:	066a      	lsls	r2, r5, #25
 80034a4:	d5fb      	bpl.n	800349e <_printf_i+0x192>
 80034a6:	8019      	strh	r1, [r3, #0]
 80034a8:	2300      	movs	r3, #0
 80034aa:	6123      	str	r3, [r4, #16]
 80034ac:	4665      	mov	r5, ip
 80034ae:	e7b9      	b.n	8003424 <_printf_i+0x118>
 80034b0:	6813      	ldr	r3, [r2, #0]
 80034b2:	1d19      	adds	r1, r3, #4
 80034b4:	6011      	str	r1, [r2, #0]
 80034b6:	681d      	ldr	r5, [r3, #0]
 80034b8:	6862      	ldr	r2, [r4, #4]
 80034ba:	2100      	movs	r1, #0
 80034bc:	4628      	mov	r0, r5
 80034be:	f7fc feaf 	bl	8000220 <memchr>
 80034c2:	b108      	cbz	r0, 80034c8 <_printf_i+0x1bc>
 80034c4:	1b40      	subs	r0, r0, r5
 80034c6:	6060      	str	r0, [r4, #4]
 80034c8:	6863      	ldr	r3, [r4, #4]
 80034ca:	6123      	str	r3, [r4, #16]
 80034cc:	2300      	movs	r3, #0
 80034ce:	f884 3043 	strb.w	r3, [r4, #67]	; 0x43
 80034d2:	e7a7      	b.n	8003424 <_printf_i+0x118>
 80034d4:	6923      	ldr	r3, [r4, #16]
 80034d6:	462a      	mov	r2, r5
 80034d8:	4639      	mov	r1, r7
 80034da:	4630      	mov	r0, r6
 80034dc:	47c0      	blx	r8
 80034de:	3001      	adds	r0, #1
 80034e0:	d0aa      	beq.n	8003438 <_printf_i+0x12c>
 80034e2:	6823      	ldr	r3, [r4, #0]
 80034e4:	079b      	lsls	r3, r3, #30
 80034e6:	d413      	bmi.n	8003510 <_printf_i+0x204>
 80034e8:	68e0      	ldr	r0, [r4, #12]
 80034ea:	9b03      	ldr	r3, [sp, #12]
 80034ec:	4298      	cmp	r0, r3
 80034ee:	bfb8      	it	lt
 80034f0:	4618      	movlt	r0, r3
 80034f2:	e7a3      	b.n	800343c <_printf_i+0x130>
 80034f4:	2301      	movs	r3, #1
 80034f6:	464a      	mov	r2, r9
 80034f8:	4639      	mov	r1, r7
 80034fa:	4630      	mov	r0, r6
 80034fc:	47c0      	blx	r8
 80034fe:	3001      	adds	r0, #1
 8003500:	d09a      	beq.n	8003438 <_printf_i+0x12c>
 8003502:	3501      	adds	r5, #1
 8003504:	68e3      	ldr	r3, [r4, #12]
 8003506:	9a03      	ldr	r2, [sp, #12]
 8003508:	1a9b      	subs	r3, r3, r2
 800350a:	42ab      	cmp	r3, r5
 800350c:	dcf2      	bgt.n	80034f4 <_printf_i+0x1e8>
 800350e:	e7eb      	b.n	80034e8 <_printf_i+0x1dc>
 8003510:	2500      	movs	r5, #0
 8003512:	f104 0919 	add.w	r9, r4, #25
 8003516:	e7f5      	b.n	8003504 <_printf_i+0x1f8>
 8003518:	2b00      	cmp	r3, #0
 800351a:	d1ac      	bne.n	8003476 <_printf_i+0x16a>
 800351c:	7803      	ldrb	r3, [r0, #0]
 800351e:	f884 3042 	strb.w	r3, [r4, #66]	; 0x42
 8003522:	f104 0542 	add.w	r5, r4, #66	; 0x42
 8003526:	e76c      	b.n	8003402 <_printf_i+0xf6>
 8003528:	080037a1 	.word	0x080037a1
 800352c:	080037b2 	.word	0x080037b2

08003530 <memcpy>:
 8003530:	b510      	push	{r4, lr}
 8003532:	1e43      	subs	r3, r0, #1
 8003534:	440a      	add	r2, r1
 8003536:	4291      	cmp	r1, r2
 8003538:	d100      	bne.n	800353c <memcpy+0xc>
 800353a:	bd10      	pop	{r4, pc}
 800353c:	f811 4b01 	ldrb.w	r4, [r1], #1
 8003540:	f803 4f01 	strb.w	r4, [r3, #1]!
 8003544:	e7f7      	b.n	8003536 <memcpy+0x6>

08003546 <memmove>:
 8003546:	4288      	cmp	r0, r1
 8003548:	b510      	push	{r4, lr}
 800354a:	eb01 0302 	add.w	r3, r1, r2
 800354e:	d807      	bhi.n	8003560 <memmove+0x1a>
 8003550:	1e42      	subs	r2, r0, #1
 8003552:	4299      	cmp	r1, r3
 8003554:	d00a      	beq.n	800356c <memmove+0x26>
 8003556:	f811 4b01 	ldrb.w	r4, [r1], #1
 800355a:	f802 4f01 	strb.w	r4, [r2, #1]!
 800355e:	e7f8      	b.n	8003552 <memmove+0xc>
 8003560:	4283      	cmp	r3, r0
 8003562:	d9f5      	bls.n	8003550 <memmove+0xa>
 8003564:	1881      	adds	r1, r0, r2
 8003566:	1ad2      	subs	r2, r2, r3
 8003568:	42d3      	cmn	r3, r2
 800356a:	d100      	bne.n	800356e <memmove+0x28>
 800356c:	bd10      	pop	{r4, pc}
 800356e:	f813 4d01 	ldrb.w	r4, [r3, #-1]!
 8003572:	f801 4d01 	strb.w	r4, [r1, #-1]!
 8003576:	e7f7      	b.n	8003568 <memmove+0x22>

08003578 <_free_r>:
 8003578:	b538      	push	{r3, r4, r5, lr}
 800357a:	4605      	mov	r5, r0
 800357c:	2900      	cmp	r1, #0
 800357e:	d045      	beq.n	800360c <_free_r+0x94>
 8003580:	f851 3c04 	ldr.w	r3, [r1, #-4]
 8003584:	1f0c      	subs	r4, r1, #4
 8003586:	2b00      	cmp	r3, #0
 8003588:	bfb8      	it	lt
 800358a:	18e4      	addlt	r4, r4, r3
 800358c:	f000 f8d2 	bl	8003734 <__malloc_lock>
 8003590:	4a1f      	ldr	r2, [pc, #124]	; (8003610 <_free_r+0x98>)
 8003592:	6813      	ldr	r3, [r2, #0]
 8003594:	4610      	mov	r0, r2
 8003596:	b933      	cbnz	r3, 80035a6 <_free_r+0x2e>
 8003598:	6063      	str	r3, [r4, #4]
 800359a:	6014      	str	r4, [r2, #0]
 800359c:	4628      	mov	r0, r5
 800359e:	e8bd 4038 	ldmia.w	sp!, {r3, r4, r5, lr}
 80035a2:	f000 b8c8 	b.w	8003736 <__malloc_unlock>
 80035a6:	42a3      	cmp	r3, r4
 80035a8:	d90c      	bls.n	80035c4 <_free_r+0x4c>
 80035aa:	6821      	ldr	r1, [r4, #0]
 80035ac:	1862      	adds	r2, r4, r1
 80035ae:	4293      	cmp	r3, r2
 80035b0:	bf04      	itt	eq
 80035b2:	681a      	ldreq	r2, [r3, #0]
 80035b4:	685b      	ldreq	r3, [r3, #4]
 80035b6:	6063      	str	r3, [r4, #4]
 80035b8:	bf04      	itt	eq
 80035ba:	1852      	addeq	r2, r2, r1
 80035bc:	6022      	streq	r2, [r4, #0]
 80035be:	6004      	str	r4, [r0, #0]
 80035c0:	e7ec      	b.n	800359c <_free_r+0x24>
 80035c2:	4613      	mov	r3, r2
 80035c4:	685a      	ldr	r2, [r3, #4]
 80035c6:	b10a      	cbz	r2, 80035cc <_free_r+0x54>
 80035c8:	42a2      	cmp	r2, r4
 80035ca:	d9fa      	bls.n	80035c2 <_free_r+0x4a>
 80035cc:	6819      	ldr	r1, [r3, #0]
 80035ce:	1858      	adds	r0, r3, r1
 80035d0:	42a0      	cmp	r0, r4
 80035d2:	d10b      	bne.n	80035ec <_free_r+0x74>
 80035d4:	6820      	ldr	r0, [r4, #0]
 80035d6:	4401      	add	r1, r0
 80035d8:	1858      	adds	r0, r3, r1
 80035da:	4282      	cmp	r2, r0
 80035dc:	6019      	str	r1, [r3, #0]
 80035de:	d1dd      	bne.n	800359c <_free_r+0x24>
 80035e0:	6810      	ldr	r0, [r2, #0]
 80035e2:	6852      	ldr	r2, [r2, #4]
 80035e4:	605a      	str	r2, [r3, #4]
 80035e6:	4401      	add	r1, r0
 80035e8:	6019      	str	r1, [r3, #0]
 80035ea:	e7d7      	b.n	800359c <_free_r+0x24>
 80035ec:	d902      	bls.n	80035f4 <_free_r+0x7c>
 80035ee:	230c      	movs	r3, #12
 80035f0:	602b      	str	r3, [r5, #0]
 80035f2:	e7d3      	b.n	800359c <_free_r+0x24>
 80035f4:	6820      	ldr	r0, [r4, #0]
 80035f6:	1821      	adds	r1, r4, r0
 80035f8:	428a      	cmp	r2, r1
 80035fa:	bf04      	itt	eq
 80035fc:	6811      	ldreq	r1, [r2, #0]
 80035fe:	6852      	ldreq	r2, [r2, #4]
 8003600:	6062      	str	r2, [r4, #4]
 8003602:	bf04      	itt	eq
 8003604:	1809      	addeq	r1, r1, r0
 8003606:	6021      	streq	r1, [r4, #0]
 8003608:	605c      	str	r4, [r3, #4]
 800360a:	e7c7      	b.n	800359c <_free_r+0x24>
 800360c:	bd38      	pop	{r3, r4, r5, pc}
 800360e:	bf00      	nop
 8003610:	20000090 	.word	0x20000090

08003614 <_malloc_r>:
 8003614:	b570      	push	{r4, r5, r6, lr}
 8003616:	1ccd      	adds	r5, r1, #3
 8003618:	f025 0503 	bic.w	r5, r5, #3
 800361c:	3508      	adds	r5, #8
 800361e:	2d0c      	cmp	r5, #12
 8003620:	bf38      	it	cc
 8003622:	250c      	movcc	r5, #12
 8003624:	2d00      	cmp	r5, #0
 8003626:	4606      	mov	r6, r0
 8003628:	db01      	blt.n	800362e <_malloc_r+0x1a>
 800362a:	42a9      	cmp	r1, r5
 800362c:	d903      	bls.n	8003636 <_malloc_r+0x22>
 800362e:	230c      	movs	r3, #12
 8003630:	6033      	str	r3, [r6, #0]
 8003632:	2000      	movs	r0, #0
 8003634:	bd70      	pop	{r4, r5, r6, pc}
 8003636:	f000 f87d 	bl	8003734 <__malloc_lock>
 800363a:	4a21      	ldr	r2, [pc, #132]	; (80036c0 <_malloc_r+0xac>)
 800363c:	6814      	ldr	r4, [r2, #0]
 800363e:	4621      	mov	r1, r4
 8003640:	b991      	cbnz	r1, 8003668 <_malloc_r+0x54>
 8003642:	4c20      	ldr	r4, [pc, #128]	; (80036c4 <_malloc_r+0xb0>)
 8003644:	6823      	ldr	r3, [r4, #0]
 8003646:	b91b      	cbnz	r3, 8003650 <_malloc_r+0x3c>
 8003648:	4630      	mov	r0, r6
 800364a:	f000 f863 	bl	8003714 <_sbrk_r>
 800364e:	6020      	str	r0, [r4, #0]
 8003650:	4629      	mov	r1, r5
 8003652:	4630      	mov	r0, r6
 8003654:	f000 f85e 	bl	8003714 <_sbrk_r>
 8003658:	1c43      	adds	r3, r0, #1
 800365a:	d124      	bne.n	80036a6 <_malloc_r+0x92>
 800365c:	230c      	movs	r3, #12
 800365e:	6033      	str	r3, [r6, #0]
 8003660:	4630      	mov	r0, r6
 8003662:	f000 f868 	bl	8003736 <__malloc_unlock>
 8003666:	e7e4      	b.n	8003632 <_malloc_r+0x1e>
 8003668:	680b      	ldr	r3, [r1, #0]
 800366a:	1b5b      	subs	r3, r3, r5
 800366c:	d418      	bmi.n	80036a0 <_malloc_r+0x8c>
 800366e:	2b0b      	cmp	r3, #11
 8003670:	d90f      	bls.n	8003692 <_malloc_r+0x7e>
 8003672:	600b      	str	r3, [r1, #0]
 8003674:	50cd      	str	r5, [r1, r3]
 8003676:	18cc      	adds	r4, r1, r3
 8003678:	4630      	mov	r0, r6
 800367a:	f000 f85c 	bl	8003736 <__malloc_unlock>
 800367e:	f104 000b 	add.w	r0, r4, #11
 8003682:	1d23      	adds	r3, r4, #4
 8003684:	f020 0007 	bic.w	r0, r0, #7
 8003688:	1ac3      	subs	r3, r0, r3
 800368a:	d0d3      	beq.n	8003634 <_malloc_r+0x20>
 800368c:	425a      	negs	r2, r3
 800368e:	50e2      	str	r2, [r4, r3]
 8003690:	e7d0      	b.n	8003634 <_malloc_r+0x20>
 8003692:	428c      	cmp	r4, r1
 8003694:	684b      	ldr	r3, [r1, #4]
 8003696:	bf16      	itet	ne
 8003698:	6063      	strne	r3, [r4, #4]
 800369a:	6013      	streq	r3, [r2, #0]
 800369c:	460c      	movne	r4, r1
 800369e:	e7eb      	b.n	8003678 <_malloc_r+0x64>
 80036a0:	460c      	mov	r4, r1
 80036a2:	6849      	ldr	r1, [r1, #4]
 80036a4:	e7cc      	b.n	8003640 <_malloc_r+0x2c>
 80036a6:	1cc4      	adds	r4, r0, #3
 80036a8:	f024 0403 	bic.w	r4, r4, #3
 80036ac:	42a0      	cmp	r0, r4
 80036ae:	d005      	beq.n	80036bc <_malloc_r+0xa8>
 80036b0:	1a21      	subs	r1, r4, r0
 80036b2:	4630      	mov	r0, r6
 80036b4:	f000 f82e 	bl	8003714 <_sbrk_r>
 80036b8:	3001      	adds	r0, #1
 80036ba:	d0cf      	beq.n	800365c <_malloc_r+0x48>
 80036bc:	6025      	str	r5, [r4, #0]
 80036be:	e7db      	b.n	8003678 <_malloc_r+0x64>
 80036c0:	20000090 	.word	0x20000090
 80036c4:	20000094 	.word	0x20000094

080036c8 <_realloc_r>:
 80036c8:	b5f8      	push	{r3, r4, r5, r6, r7, lr}
 80036ca:	4607      	mov	r7, r0
 80036cc:	4614      	mov	r4, r2
 80036ce:	460e      	mov	r6, r1
 80036d0:	b921      	cbnz	r1, 80036dc <_realloc_r+0x14>
 80036d2:	4611      	mov	r1, r2
 80036d4:	e8bd 40f8 	ldmia.w	sp!, {r3, r4, r5, r6, r7, lr}
 80036d8:	f7ff bf9c 	b.w	8003614 <_malloc_r>
 80036dc:	b922      	cbnz	r2, 80036e8 <_realloc_r+0x20>
 80036de:	f7ff ff4b 	bl	8003578 <_free_r>
 80036e2:	4625      	mov	r5, r4
 80036e4:	4628      	mov	r0, r5
 80036e6:	bdf8      	pop	{r3, r4, r5, r6, r7, pc}
 80036e8:	f000 f826 	bl	8003738 <_malloc_usable_size_r>
 80036ec:	42a0      	cmp	r0, r4
 80036ee:	d20f      	bcs.n	8003710 <_realloc_r+0x48>
 80036f0:	4621      	mov	r1, r4
 80036f2:	4638      	mov	r0, r7
 80036f4:	f7ff ff8e 	bl	8003614 <_malloc_r>
 80036f8:	4605      	mov	r5, r0
 80036fa:	2800      	cmp	r0, #0
 80036fc:	d0f2      	beq.n	80036e4 <_realloc_r+0x1c>
 80036fe:	4631      	mov	r1, r6
 8003700:	4622      	mov	r2, r4
 8003702:	f7ff ff15 	bl	8003530 <memcpy>
 8003706:	4631      	mov	r1, r6
 8003708:	4638      	mov	r0, r7
 800370a:	f7ff ff35 	bl	8003578 <_free_r>
 800370e:	e7e9      	b.n	80036e4 <_realloc_r+0x1c>
 8003710:	4635      	mov	r5, r6
 8003712:	e7e7      	b.n	80036e4 <_realloc_r+0x1c>

08003714 <_sbrk_r>:
 8003714:	b538      	push	{r3, r4, r5, lr}
 8003716:	4c06      	ldr	r4, [pc, #24]	; (8003730 <_sbrk_r+0x1c>)
 8003718:	2300      	movs	r3, #0
 800371a:	4605      	mov	r5, r0
 800371c:	4608      	mov	r0, r1
 800371e:	6023      	str	r3, [r4, #0]
 8003720:	f7fd fbbe 	bl	8000ea0 <_sbrk>
 8003724:	1c43      	adds	r3, r0, #1
 8003726:	d102      	bne.n	800372e <_sbrk_r+0x1a>
 8003728:	6823      	ldr	r3, [r4, #0]
 800372a:	b103      	cbz	r3, 800372e <_sbrk_r+0x1a>
 800372c:	602b      	str	r3, [r5, #0]
 800372e:	bd38      	pop	{r3, r4, r5, pc}
 8003730:	20000134 	.word	0x20000134

08003734 <__malloc_lock>:
 8003734:	4770      	bx	lr

08003736 <__malloc_unlock>:
 8003736:	4770      	bx	lr

08003738 <_malloc_usable_size_r>:
 8003738:	f851 3c04 	ldr.w	r3, [r1, #-4]
 800373c:	1f18      	subs	r0, r3, #4
 800373e:	2b00      	cmp	r3, #0
 8003740:	bfbc      	itt	lt
 8003742:	580b      	ldrlt	r3, [r1, r0]
 8003744:	18c0      	addlt	r0, r0, r3
 8003746:	4770      	bx	lr

08003748 <_init>:
 8003748:	b5f8      	push	{r3, r4, r5, r6, r7, lr}
 800374a:	bf00      	nop
 800374c:	bcf8      	pop	{r3, r4, r5, r6, r7}
 800374e:	bc08      	pop	{r3}
 8003750:	469e      	mov	lr, r3
 8003752:	4770      	bx	lr

08003754 <_fini>:
 8003754:	b5f8      	push	{r3, r4, r5, r6, r7, lr}
 8003756:	bf00      	nop
 8003758:	bcf8      	pop	{r3, r4, r5, r6, r7}
 800375a:	bc08      	pop	{r3}
 800375c:	469e      	mov	lr, r3
 800375e:	4770      	bx	lr
