
Laser_ADC_F446.elf:     file format elf32-littlearm

Sections:
Idx Name          Size      VMA       LMA       File off  Algn
  0 .isr_vector   000001c4  08000000  08000000  00010000  2**0
                  CONTENTS, ALLOC, LOAD, READONLY, DATA
  1 .text         00007244  080001d0  080001d0  000101d0  2**4
                  CONTENTS, ALLOC, LOAD, READONLY, CODE
  2 .rodata       00000404  08007418  08007418  00017418  2**3
                  CONTENTS, ALLOC, LOAD, READONLY, DATA
  3 .ARM.extab    00000000  0800781c  0800781c  000201e4  2**0
                  CONTENTS
  4 .ARM          00000008  0800781c  0800781c  0001781c  2**2
                  CONTENTS, ALLOC, LOAD, READONLY, DATA
  5 .preinit_array 00000000  08007824  08007824  000201e4  2**0
                  CONTENTS, ALLOC, LOAD, DATA
  6 .init_array   00000004  08007824  08007824  00017824  2**2
                  CONTENTS, ALLOC, LOAD, DATA
  7 .fini_array   00000004  08007828  08007828  00017828  2**2
                  CONTENTS, ALLOC, LOAD, DATA
  8 .data         000001e4  20000000  0800782c  00020000  2**2
                  CONTENTS, ALLOC, LOAD, DATA
  9 .bss          000139fc  200001e4  08007a10  000201e4  2**2
                  ALLOC
 10 ._user_heap_stack 00000600  20013be0  08007a10  00023be0  2**0
                  ALLOC
 11 .ARM.attributes 00000030  00000000  00000000  000201e4  2**0
                  CONTENTS, READONLY
 12 .debug_info   0000f68b  00000000  00000000  00020214  2**0
                  CONTENTS, READONLY, DEBUGGING, OCTETS
 13 .debug_abbrev 000024ea  00000000  00000000  0002f89f  2**0
                  CONTENTS, READONLY, DEBUGGING, OCTETS
 14 .debug_aranges 00000e38  00000000  00000000  00031d90  2**3
                  CONTENTS, READONLY, DEBUGGING, OCTETS
 15 .debug_ranges 00000d20  00000000  00000000  00032bc8  2**3
                  CONTENTS, READONLY, DEBUGGING, OCTETS
 16 .debug_macro  0002381b  00000000  00000000  000338e8  2**0
                  CONTENTS, READONLY, DEBUGGING, OCTETS
 17 .debug_line   0000fc38  00000000  00000000  00057103  2**0
                  CONTENTS, READONLY, DEBUGGING, OCTETS
 18 .debug_str    000d5c81  00000000  00000000  00066d3b  2**0
                  CONTENTS, READONLY, DEBUGGING, OCTETS
 19 .comment      00000053  00000000  00000000  0013c9bc  2**0
                  CONTENTS, READONLY
 20 .debug_frame  00004d0c  00000000  00000000  0013ca10  2**2
                  CONTENTS, READONLY, DEBUGGING, OCTETS

Disassembly of section .text:

080001d0 <__do_global_dtors_aux>:
 80001d0:	b510      	push	{r4, lr}
 80001d2:	4c05      	ldr	r4, [pc, #20]	; (80001e8 <__do_global_dtors_aux+0x18>)
 80001d4:	7823      	ldrb	r3, [r4, #0]
 80001d6:	b933      	cbnz	r3, 80001e6 <__do_global_dtors_aux+0x16>
 80001d8:	4b04      	ldr	r3, [pc, #16]	; (80001ec <__do_global_dtors_aux+0x1c>)
 80001da:	b113      	cbz	r3, 80001e2 <__do_global_dtors_aux+0x12>
 80001dc:	4804      	ldr	r0, [pc, #16]	; (80001f0 <__do_global_dtors_aux+0x20>)
 80001de:	f3af 8000 	nop.w
 80001e2:	2301      	movs	r3, #1
 80001e4:	7023      	strb	r3, [r4, #0]
 80001e6:	bd10      	pop	{r4, pc}
 80001e8:	200001e4 	.word	0x200001e4
 80001ec:	00000000 	.word	0x00000000
 80001f0:	080073fc 	.word	0x080073fc

080001f4 <frame_dummy>:
 80001f4:	b508      	push	{r3, lr}
 80001f6:	4b03      	ldr	r3, [pc, #12]	; (8000204 <frame_dummy+0x10>)
 80001f8:	b11b      	cbz	r3, 8000202 <frame_dummy+0xe>
 80001fa:	4903      	ldr	r1, [pc, #12]	; (8000208 <frame_dummy+0x14>)
 80001fc:	4803      	ldr	r0, [pc, #12]	; (800020c <frame_dummy+0x18>)
 80001fe:	f3af 8000 	nop.w
 8000202:	bd08      	pop	{r3, pc}
 8000204:	00000000 	.word	0x00000000
 8000208:	200001e8 	.word	0x200001e8
 800020c:	080073fc 	.word	0x080073fc

08000210 <strlen>:
 8000210:	4603      	mov	r3, r0
 8000212:	f813 2b01 	ldrb.w	r2, [r3], #1
 8000216:	2a00      	cmp	r2, #0
 8000218:	d1fb      	bne.n	8000212 <strlen+0x2>
 800021a:	1a18      	subs	r0, r3, r0
 800021c:	3801      	subs	r0, #1
 800021e:	4770      	bx	lr

08000220 <memchr>:
 8000220:	f001 01ff 	and.w	r1, r1, #255	; 0xff
 8000224:	2a10      	cmp	r2, #16
 8000226:	db2b      	blt.n	8000280 <memchr+0x60>
 8000228:	f010 0f07 	tst.w	r0, #7
 800022c:	d008      	beq.n	8000240 <memchr+0x20>
 800022e:	f810 3b01 	ldrb.w	r3, [r0], #1
 8000232:	3a01      	subs	r2, #1
 8000234:	428b      	cmp	r3, r1
 8000236:	d02d      	beq.n	8000294 <memchr+0x74>
 8000238:	f010 0f07 	tst.w	r0, #7
 800023c:	b342      	cbz	r2, 8000290 <memchr+0x70>
 800023e:	d1f6      	bne.n	800022e <memchr+0xe>
 8000240:	b4f0      	push	{r4, r5, r6, r7}
 8000242:	ea41 2101 	orr.w	r1, r1, r1, lsl #8
 8000246:	ea41 4101 	orr.w	r1, r1, r1, lsl #16
 800024a:	f022 0407 	bic.w	r4, r2, #7
 800024e:	f07f 0700 	mvns.w	r7, #0
 8000252:	2300      	movs	r3, #0
 8000254:	e8f0 5602 	ldrd	r5, r6, [r0], #8
 8000258:	3c08      	subs	r4, #8
 800025a:	ea85 0501 	eor.w	r5, r5, r1
 800025e:	ea86 0601 	eor.w	r6, r6, r1
 8000262:	fa85 f547 	uadd8	r5, r5, r7
 8000266:	faa3 f587 	sel	r5, r3, r7
 800026a:	fa86 f647 	uadd8	r6, r6, r7
 800026e:	faa5 f687 	sel	r6, r5, r7
 8000272:	b98e      	cbnz	r6, 8000298 <memchr+0x78>
 8000274:	d1ee      	bne.n	8000254 <memchr+0x34>
 8000276:	bcf0      	pop	{r4, r5, r6, r7}
 8000278:	f001 01ff 	and.w	r1, r1, #255	; 0xff
 800027c:	f002 0207 	and.w	r2, r2, #7
 8000280:	b132      	cbz	r2, 8000290 <memchr+0x70>
 8000282:	f810 3b01 	ldrb.w	r3, [r0], #1
 8000286:	3a01      	subs	r2, #1
 8000288:	ea83 0301 	eor.w	r3, r3, r1
 800028c:	b113      	cbz	r3, 8000294 <memchr+0x74>
 800028e:	d1f8      	bne.n	8000282 <memchr+0x62>
 8000290:	2000      	movs	r0, #0
 8000292:	4770      	bx	lr
 8000294:	3801      	subs	r0, #1
 8000296:	4770      	bx	lr
 8000298:	2d00      	cmp	r5, #0
 800029a:	bf06      	itte	eq
 800029c:	4635      	moveq	r5, r6
 800029e:	3803      	subeq	r0, #3
 80002a0:	3807      	subne	r0, #7
 80002a2:	f015 0f01 	tst.w	r5, #1
 80002a6:	d107      	bne.n	80002b8 <memchr+0x98>
 80002a8:	3001      	adds	r0, #1
 80002aa:	f415 7f80 	tst.w	r5, #256	; 0x100
 80002ae:	bf02      	ittt	eq
 80002b0:	3001      	addeq	r0, #1
 80002b2:	f415 3fc0 	tsteq.w	r5, #98304	; 0x18000
 80002b6:	3001      	addeq	r0, #1
 80002b8:	bcf0      	pop	{r4, r5, r6, r7}
 80002ba:	3801      	subs	r0, #1
 80002bc:	4770      	bx	lr
 80002be:	bf00      	nop

080002c0 <__aeabi_drsub>:
 80002c0:	f081 4100 	eor.w	r1, r1, #2147483648	; 0x80000000
 80002c4:	e002      	b.n	80002cc <__adddf3>
 80002c6:	bf00      	nop

080002c8 <__aeabi_dsub>:
 80002c8:	f083 4300 	eor.w	r3, r3, #2147483648	; 0x80000000

080002cc <__adddf3>:
 80002cc:	b530      	push	{r4, r5, lr}
 80002ce:	ea4f 0441 	mov.w	r4, r1, lsl #1
 80002d2:	ea4f 0543 	mov.w	r5, r3, lsl #1
 80002d6:	ea94 0f05 	teq	r4, r5
 80002da:	bf08      	it	eq
 80002dc:	ea90 0f02 	teqeq	r0, r2
 80002e0:	bf1f      	itttt	ne
 80002e2:	ea54 0c00 	orrsne.w	ip, r4, r0
 80002e6:	ea55 0c02 	orrsne.w	ip, r5, r2
 80002ea:	ea7f 5c64 	mvnsne.w	ip, r4, asr #21
 80002ee:	ea7f 5c65 	mvnsne.w	ip, r5, asr #21
 80002f2:	f000 80e2 	beq.w	80004ba <__adddf3+0x1ee>
 80002f6:	ea4f 5454 	mov.w	r4, r4, lsr #21
 80002fa:	ebd4 5555 	rsbs	r5, r4, r5, lsr #21
 80002fe:	bfb8      	it	lt
 8000300:	426d      	neglt	r5, r5
 8000302:	dd0c      	ble.n	800031e <__adddf3+0x52>
 8000304:	442c      	add	r4, r5
 8000306:	ea80 0202 	eor.w	r2, r0, r2
 800030a:	ea81 0303 	eor.w	r3, r1, r3
 800030e:	ea82 0000 	eor.w	r0, r2, r0
 8000312:	ea83 0101 	eor.w	r1, r3, r1
 8000316:	ea80 0202 	eor.w	r2, r0, r2
 800031a:	ea81 0303 	eor.w	r3, r1, r3
 800031e:	2d36      	cmp	r5, #54	; 0x36
 8000320:	bf88      	it	hi
 8000322:	bd30      	pophi	{r4, r5, pc}
 8000324:	f011 4f00 	tst.w	r1, #2147483648	; 0x80000000
 8000328:	ea4f 3101 	mov.w	r1, r1, lsl #12
 800032c:	f44f 1c80 	mov.w	ip, #1048576	; 0x100000
 8000330:	ea4c 3111 	orr.w	r1, ip, r1, lsr #12
 8000334:	d002      	beq.n	800033c <__adddf3+0x70>
 8000336:	4240      	negs	r0, r0
 8000338:	eb61 0141 	sbc.w	r1, r1, r1, lsl #1
 800033c:	f013 4f00 	tst.w	r3, #2147483648	; 0x80000000
 8000340:	ea4f 3303 	mov.w	r3, r3, lsl #12
 8000344:	ea4c 3313 	orr.w	r3, ip, r3, lsr #12
 8000348:	d002      	beq.n	8000350 <__adddf3+0x84>
 800034a:	4252      	negs	r2, r2
 800034c:	eb63 0343 	sbc.w	r3, r3, r3, lsl #1
 8000350:	ea94 0f05 	teq	r4, r5
 8000354:	f000 80a7 	beq.w	80004a6 <__adddf3+0x1da>
 8000358:	f1a4 0401 	sub.w	r4, r4, #1
 800035c:	f1d5 0e20 	rsbs	lr, r5, #32
 8000360:	db0d      	blt.n	800037e <__adddf3+0xb2>
 8000362:	fa02 fc0e 	lsl.w	ip, r2, lr
 8000366:	fa22 f205 	lsr.w	r2, r2, r5
 800036a:	1880      	adds	r0, r0, r2
 800036c:	f141 0100 	adc.w	r1, r1, #0
 8000370:	fa03 f20e 	lsl.w	r2, r3, lr
 8000374:	1880      	adds	r0, r0, r2
 8000376:	fa43 f305 	asr.w	r3, r3, r5
 800037a:	4159      	adcs	r1, r3
 800037c:	e00e      	b.n	800039c <__adddf3+0xd0>
 800037e:	f1a5 0520 	sub.w	r5, r5, #32
 8000382:	f10e 0e20 	add.w	lr, lr, #32
 8000386:	2a01      	cmp	r2, #1
 8000388:	fa03 fc0e 	lsl.w	ip, r3, lr
 800038c:	bf28      	it	cs
 800038e:	f04c 0c02 	orrcs.w	ip, ip, #2
 8000392:	fa43 f305 	asr.w	r3, r3, r5
 8000396:	18c0      	adds	r0, r0, r3
 8000398:	eb51 71e3 	adcs.w	r1, r1, r3, asr #31
 800039c:	f001 4500 	and.w	r5, r1, #2147483648	; 0x80000000
 80003a0:	d507      	bpl.n	80003b2 <__adddf3+0xe6>
 80003a2:	f04f 0e00 	mov.w	lr, #0
 80003a6:	f1dc 0c00 	rsbs	ip, ip, #0
 80003aa:	eb7e 0000 	sbcs.w	r0, lr, r0
 80003ae:	eb6e 0101 	sbc.w	r1, lr, r1
 80003b2:	f5b1 1f80 	cmp.w	r1, #1048576	; 0x100000
 80003b6:	d31b      	bcc.n	80003f0 <__adddf3+0x124>
 80003b8:	f5b1 1f00 	cmp.w	r1, #2097152	; 0x200000
 80003bc:	d30c      	bcc.n	80003d8 <__adddf3+0x10c>
 80003be:	0849      	lsrs	r1, r1, #1
 80003c0:	ea5f 0030 	movs.w	r0, r0, rrx
 80003c4:	ea4f 0c3c 	mov.w	ip, ip, rrx
 80003c8:	f104 0401 	add.w	r4, r4, #1
 80003cc:	ea4f 5244 	mov.w	r2, r4, lsl #21
 80003d0:	f512 0f80 	cmn.w	r2, #4194304	; 0x400000
 80003d4:	f080 809a 	bcs.w	800050c <__adddf3+0x240>
 80003d8:	f1bc 4f00 	cmp.w	ip, #2147483648	; 0x80000000
 80003dc:	bf08      	it	eq
 80003de:	ea5f 0c50 	movseq.w	ip, r0, lsr #1
 80003e2:	f150 0000 	adcs.w	r0, r0, #0
 80003e6:	eb41 5104 	adc.w	r1, r1, r4, lsl #20
 80003ea:	ea41 0105 	orr.w	r1, r1, r5
 80003ee:	bd30      	pop	{r4, r5, pc}
 80003f0:	ea5f 0c4c 	movs.w	ip, ip, lsl #1
 80003f4:	4140      	adcs	r0, r0
 80003f6:	eb41 0101 	adc.w	r1, r1, r1
 80003fa:	3c01      	subs	r4, #1
 80003fc:	bf28      	it	cs
 80003fe:	f5b1 1f80 	cmpcs.w	r1, #1048576	; 0x100000
 8000402:	d2e9      	bcs.n	80003d8 <__adddf3+0x10c>
 8000404:	f091 0f00 	teq	r1, #0
 8000408:	bf04      	itt	eq
 800040a:	4601      	moveq	r1, r0
 800040c:	2000      	moveq	r0, #0
 800040e:	fab1 f381 	clz	r3, r1
 8000412:	bf08      	it	eq
 8000414:	3320      	addeq	r3, #32
 8000416:	f1a3 030b 	sub.w	r3, r3, #11
 800041a:	f1b3 0220 	subs.w	r2, r3, #32
 800041e:	da0c      	bge.n	800043a <__adddf3+0x16e>
 8000420:	320c      	adds	r2, #12
 8000422:	dd08      	ble.n	8000436 <__adddf3+0x16a>
 8000424:	f102 0c14 	add.w	ip, r2, #20
 8000428:	f1c2 020c 	rsb	r2, r2, #12
 800042c:	fa01 f00c 	lsl.w	r0, r1, ip
 8000430:	fa21 f102 	lsr.w	r1, r1, r2
 8000434:	e00c      	b.n	8000450 <__adddf3+0x184>
 8000436:	f102 0214 	add.w	r2, r2, #20
 800043a:	bfd8      	it	le
 800043c:	f1c2 0c20 	rsble	ip, r2, #32
 8000440:	fa01 f102 	lsl.w	r1, r1, r2
 8000444:	fa20 fc0c 	lsr.w	ip, r0, ip
 8000448:	bfdc      	itt	le
 800044a:	ea41 010c 	orrle.w	r1, r1, ip
 800044e:	4090      	lslle	r0, r2
 8000450:	1ae4      	subs	r4, r4, r3
 8000452:	bfa2      	ittt	ge
 8000454:	eb01 5104 	addge.w	r1, r1, r4, lsl #20
 8000458:	4329      	orrge	r1, r5
 800045a:	bd30      	popge	{r4, r5, pc}
 800045c:	ea6f 0404 	mvn.w	r4, r4
 8000460:	3c1f      	subs	r4, #31
 8000462:	da1c      	bge.n	800049e <__adddf3+0x1d2>
 8000464:	340c      	adds	r4, #12
 8000466:	dc0e      	bgt.n	8000486 <__adddf3+0x1ba>
 8000468:	f104 0414 	add.w	r4, r4, #20
 800046c:	f1c4 0220 	rsb	r2, r4, #32
 8000470:	fa20 f004 	lsr.w	r0, r0, r4
 8000474:	fa01 f302 	lsl.w	r3, r1, r2
 8000478:	ea40 0003 	orr.w	r0, r0, r3
 800047c:	fa21 f304 	lsr.w	r3, r1, r4
 8000480:	ea45 0103 	orr.w	r1, r5, r3
 8000484:	bd30      	pop	{r4, r5, pc}
 8000486:	f1c4 040c 	rsb	r4, r4, #12
 800048a:	f1c4 0220 	rsb	r2, r4, #32
 800048e:	fa20 f002 	lsr.w	r0, r0, r2
 8000492:	fa01 f304 	lsl.w	r3, r1, r4
 8000496:	ea40 0003 	orr.w	r0, r0, r3
 800049a:	4629      	mov	r1, r5
 800049c:	bd30      	pop	{r4, r5, pc}
 800049e:	fa21 f004 	lsr.w	r0, r1, r4
 80004a2:	4629      	mov	r1, r5
 80004a4:	bd30      	pop	{r4, r5, pc}
 80004a6:	f094 0f00 	teq	r4, #0
 80004aa:	f483 1380 	eor.w	r3, r3, #1048576	; 0x100000
 80004ae:	bf06      	itte	eq
 80004b0:	f481 1180 	eoreq.w	r1, r1, #1048576	; 0x100000
 80004b4:	3401      	addeq	r4, #1
 80004b6:	3d01      	subne	r5, #1
 80004b8:	e74e      	b.n	8000358 <__adddf3+0x8c>
 80004ba:	ea7f 5c64 	mvns.w	ip, r4, asr #21
 80004be:	bf18      	it	ne
 80004c0:	ea7f 5c65 	mvnsne.w	ip, r5, asr #21
 80004c4:	d029      	beq.n	800051a <__adddf3+0x24e>
 80004c6:	ea94 0f05 	teq	r4, r5
 80004ca:	bf08      	it	eq
 80004cc:	ea90 0f02 	teqeq	r0, r2
 80004d0:	d005      	beq.n	80004de <__adddf3+0x212>
 80004d2:	ea54 0c00 	orrs.w	ip, r4, r0
 80004d6:	bf04      	itt	eq
 80004d8:	4619      	moveq	r1, r3
 80004da:	4610      	moveq	r0, r2
 80004dc:	bd30      	pop	{r4, r5, pc}
 80004de:	ea91 0f03 	teq	r1, r3
 80004e2:	bf1e      	ittt	ne
 80004e4:	2100      	movne	r1, #0
 80004e6:	2000      	movne	r0, #0
 80004e8:	bd30      	popne	{r4, r5, pc}
 80004ea:	ea5f 5c54 	movs.w	ip, r4, lsr #21
 80004ee:	d105      	bne.n	80004fc <__adddf3+0x230>
 80004f0:	0040      	lsls	r0, r0, #1
 80004f2:	4149      	adcs	r1, r1
 80004f4:	bf28      	it	cs
 80004f6:	f041 4100 	orrcs.w	r1, r1, #2147483648	; 0x80000000
 80004fa:	bd30      	pop	{r4, r5, pc}
 80004fc:	f514 0480 	adds.w	r4, r4, #4194304	; 0x400000
 8000500:	bf3c      	itt	cc
 8000502:	f501 1180 	addcc.w	r1, r1, #1048576	; 0x100000
 8000506:	bd30      	popcc	{r4, r5, pc}
 8000508:	f001 4500 	and.w	r5, r1, #2147483648	; 0x80000000
 800050c:	f045 41fe 	orr.w	r1, r5, #2130706432	; 0x7f000000
 8000510:	f441 0170 	orr.w	r1, r1, #15728640	; 0xf00000
 8000514:	f04f 0000 	mov.w	r0, #0
 8000518:	bd30      	pop	{r4, r5, pc}
 800051a:	ea7f 5c64 	mvns.w	ip, r4, asr #21
 800051e:	bf1a      	itte	ne
 8000520:	4619      	movne	r1, r3
 8000522:	4610      	movne	r0, r2
 8000524:	ea7f 5c65 	mvnseq.w	ip, r5, asr #21
 8000528:	bf1c      	itt	ne
 800052a:	460b      	movne	r3, r1
 800052c:	4602      	movne	r2, r0
 800052e:	ea50 3401 	orrs.w	r4, r0, r1, lsl #12
 8000532:	bf06      	itte	eq
 8000534:	ea52 3503 	orrseq.w	r5, r2, r3, lsl #12
 8000538:	ea91 0f03 	teqeq	r1, r3
 800053c:	f441 2100 	orrne.w	r1, r1, #524288	; 0x80000
 8000540:	bd30      	pop	{r4, r5, pc}
 8000542:	bf00      	nop

08000544 <__aeabi_ui2d>:
 8000544:	f090 0f00 	teq	r0, #0
 8000548:	bf04      	itt	eq
 800054a:	2100      	moveq	r1, #0
 800054c:	4770      	bxeq	lr
 800054e:	b530      	push	{r4, r5, lr}
 8000550:	f44f 6480 	mov.w	r4, #1024	; 0x400
 8000554:	f104 0432 	add.w	r4, r4, #50	; 0x32
 8000558:	f04f 0500 	mov.w	r5, #0
 800055c:	f04f 0100 	mov.w	r1, #0
 8000560:	e750      	b.n	8000404 <__adddf3+0x138>
 8000562:	bf00      	nop

08000564 <__aeabi_i2d>:
 8000564:	f090 0f00 	teq	r0, #0
 8000568:	bf04      	itt	eq
 800056a:	2100      	moveq	r1, #0
 800056c:	4770      	bxeq	lr
 800056e:	b530      	push	{r4, r5, lr}
 8000570:	f44f 6480 	mov.w	r4, #1024	; 0x400
 8000574:	f104 0432 	add.w	r4, r4, #50	; 0x32
 8000578:	f010 4500 	ands.w	r5, r0, #2147483648	; 0x80000000
 800057c:	bf48      	it	mi
 800057e:	4240      	negmi	r0, r0
 8000580:	f04f 0100 	mov.w	r1, #0
 8000584:	e73e      	b.n	8000404 <__adddf3+0x138>
 8000586:	bf00      	nop

08000588 <__aeabi_f2d>:
 8000588:	0042      	lsls	r2, r0, #1
 800058a:	ea4f 01e2 	mov.w	r1, r2, asr #3
 800058e:	ea4f 0131 	mov.w	r1, r1, rrx
 8000592:	ea4f 7002 	mov.w	r0, r2, lsl #28
 8000596:	bf1f      	itttt	ne
 8000598:	f012 437f 	andsne.w	r3, r2, #4278190080	; 0xff000000
 800059c:	f093 4f7f 	teqne	r3, #4278190080	; 0xff000000
 80005a0:	f081 5160 	eorne.w	r1, r1, #939524096	; 0x38000000
 80005a4:	4770      	bxne	lr
 80005a6:	f032 427f 	bics.w	r2, r2, #4278190080	; 0xff000000
 80005aa:	bf08      	it	eq
 80005ac:	4770      	bxeq	lr
 80005ae:	f093 4f7f 	teq	r3, #4278190080	; 0xff000000
 80005b2:	bf04      	itt	eq
 80005b4:	f441 2100 	orreq.w	r1, r1, #524288	; 0x80000
 80005b8:	4770      	bxeq	lr
 80005ba:	b530      	push	{r4, r5, lr}
 80005bc:	f44f 7460 	mov.w	r4, #896	; 0x380
 80005c0:	f001 4500 	and.w	r5, r1, #2147483648	; 0x80000000
 80005c4:	f021 4100 	bic.w	r1, r1, #2147483648	; 0x80000000
 80005c8:	e71c      	b.n	8000404 <__adddf3+0x138>
 80005ca:	bf00      	nop

080005cc <__aeabi_ul2d>:
 80005cc:	ea50 0201 	orrs.w	r2, r0, r1
 80005d0:	bf08      	it	eq
 80005d2:	4770      	bxeq	lr
 80005d4:	b530      	push	{r4, r5, lr}
 80005d6:	f04f 0500 	mov.w	r5, #0
 80005da:	e00a      	b.n	80005f2 <__aeabi_l2d+0x16>

080005dc <__aeabi_l2d>:
 80005dc:	ea50 0201 	orrs.w	r2, r0, r1
 80005e0:	bf08      	it	eq
 80005e2:	4770      	bxeq	lr
 80005e4:	b530      	push	{r4, r5, lr}
 80005e6:	f011 4500 	ands.w	r5, r1, #2147483648	; 0x80000000
 80005ea:	d502      	bpl.n	80005f2 <__aeabi_l2d+0x16>
 80005ec:	4240      	negs	r0, r0
 80005ee:	eb61 0141 	sbc.w	r1, r1, r1, lsl #1
 80005f2:	f44f 6480 	mov.w	r4, #1024	; 0x400
 80005f6:	f104 0432 	add.w	r4, r4, #50	; 0x32
 80005fa:	ea5f 5c91 	movs.w	ip, r1, lsr #22
 80005fe:	f43f aed8 	beq.w	80003b2 <__adddf3+0xe6>
 8000602:	f04f 0203 	mov.w	r2, #3
 8000606:	ea5f 0cdc 	movs.w	ip, ip, lsr #3
 800060a:	bf18      	it	ne
 800060c:	3203      	addne	r2, #3
 800060e:	ea5f 0cdc 	movs.w	ip, ip, lsr #3
 8000612:	bf18      	it	ne
 8000614:	3203      	addne	r2, #3
 8000616:	eb02 02dc 	add.w	r2, r2, ip, lsr #3
 800061a:	f1c2 0320 	rsb	r3, r2, #32
 800061e:	fa00 fc03 	lsl.w	ip, r0, r3
 8000622:	fa20 f002 	lsr.w	r0, r0, r2
 8000626:	fa01 fe03 	lsl.w	lr, r1, r3
 800062a:	ea40 000e 	orr.w	r0, r0, lr
 800062e:	fa21 f102 	lsr.w	r1, r1, r2
 8000632:	4414      	add	r4, r2
 8000634:	e6bd      	b.n	80003b2 <__adddf3+0xe6>
 8000636:	bf00      	nop

08000638 <__aeabi_dmul>:
 8000638:	b570      	push	{r4, r5, r6, lr}
 800063a:	f04f 0cff 	mov.w	ip, #255	; 0xff
 800063e:	f44c 6ce0 	orr.w	ip, ip, #1792	; 0x700
 8000642:	ea1c 5411 	ands.w	r4, ip, r1, lsr #20
 8000646:	bf1d      	ittte	ne
 8000648:	ea1c 5513 	andsne.w	r5, ip, r3, lsr #20
 800064c:	ea94 0f0c 	teqne	r4, ip
 8000650:	ea95 0f0c 	teqne	r5, ip
 8000654:	f000 f8de 	bleq	8000814 <__aeabi_dmul+0x1dc>
 8000658:	442c      	add	r4, r5
 800065a:	ea81 0603 	eor.w	r6, r1, r3
 800065e:	ea21 514c 	bic.w	r1, r1, ip, lsl #21
 8000662:	ea23 534c 	bic.w	r3, r3, ip, lsl #21
 8000666:	ea50 3501 	orrs.w	r5, r0, r1, lsl #12
 800066a:	bf18      	it	ne
 800066c:	ea52 3503 	orrsne.w	r5, r2, r3, lsl #12
 8000670:	f441 1180 	orr.w	r1, r1, #1048576	; 0x100000
 8000674:	f443 1380 	orr.w	r3, r3, #1048576	; 0x100000
 8000678:	d038      	beq.n	80006ec <__aeabi_dmul+0xb4>
 800067a:	fba0 ce02 	umull	ip, lr, r0, r2
 800067e:	f04f 0500 	mov.w	r5, #0
 8000682:	fbe1 e502 	umlal	lr, r5, r1, r2
 8000686:	f006 4200 	and.w	r2, r6, #2147483648	; 0x80000000
 800068a:	fbe0 e503 	umlal	lr, r5, r0, r3
 800068e:	f04f 0600 	mov.w	r6, #0
 8000692:	fbe1 5603 	umlal	r5, r6, r1, r3
 8000696:	f09c 0f00 	teq	ip, #0
 800069a:	bf18      	it	ne
 800069c:	f04e 0e01 	orrne.w	lr, lr, #1
 80006a0:	f1a4 04ff 	sub.w	r4, r4, #255	; 0xff
 80006a4:	f5b6 7f00 	cmp.w	r6, #512	; 0x200
 80006a8:	f564 7440 	sbc.w	r4, r4, #768	; 0x300
 80006ac:	d204      	bcs.n	80006b8 <__aeabi_dmul+0x80>
 80006ae:	ea5f 0e4e 	movs.w	lr, lr, lsl #1
 80006b2:	416d      	adcs	r5, r5
 80006b4:	eb46 0606 	adc.w	r6, r6, r6
 80006b8:	ea42 21c6 	orr.w	r1, r2, r6, lsl #11
 80006bc:	ea41 5155 	orr.w	r1, r1, r5, lsr #21
 80006c0:	ea4f 20c5 	mov.w	r0, r5, lsl #11
 80006c4:	ea40 505e 	orr.w	r0, r0, lr, lsr #21
 80006c8:	ea4f 2ece 	mov.w	lr, lr, lsl #11
 80006cc:	f1b4 0cfd 	subs.w	ip, r4, #253	; 0xfd
 80006d0:	bf88      	it	hi
 80006d2:	f5bc 6fe0 	cmphi.w	ip, #1792	; 0x700
 80006d6:	d81e      	bhi.n	8000716 <__aeabi_dmul+0xde>
 80006d8:	f1be 4f00 	cmp.w	lr, #2147483648	; 0x80000000
 80006dc:	bf08      	it	eq
 80006de:	ea5f 0e50 	movseq.w	lr, r0, lsr #1
 80006e2:	f150 0000 	adcs.w	r0, r0, #0
 80006e6:	eb41 5104 	adc.w	r1, r1, r4, lsl #20
 80006ea:	bd70      	pop	{r4, r5, r6, pc}
 80006ec:	f006 4600 	and.w	r6, r6, #2147483648	; 0x80000000
 80006f0:	ea46 0101 	orr.w	r1, r6, r1
 80006f4:	ea40 0002 	orr.w	r0, r0, r2
 80006f8:	ea81 0103 	eor.w	r1, r1, r3
 80006fc:	ebb4 045c 	subs.w	r4, r4, ip, lsr #1
 8000700:	bfc2      	ittt	gt
 8000702:	ebd4 050c 	rsbsgt	r5, r4, ip
 8000706:	ea41 5104 	orrgt.w	r1, r1, r4, lsl #20
 800070a:	bd70      	popgt	{r4, r5, r6, pc}
 800070c:	f441 1180 	orr.w	r1, r1, #1048576	; 0x100000
 8000710:	f04f 0e00 	mov.w	lr, #0
 8000714:	3c01      	subs	r4, #1
 8000716:	f300 80ab 	bgt.w	8000870 <__aeabi_dmul+0x238>
 800071a:	f114 0f36 	cmn.w	r4, #54	; 0x36
 800071e:	bfde      	ittt	le
 8000720:	2000      	movle	r0, #0
 8000722:	f001 4100 	andle.w	r1, r1, #2147483648	; 0x80000000
 8000726:	bd70      	pople	{r4, r5, r6, pc}
 8000728:	f1c4 0400 	rsb	r4, r4, #0
 800072c:	3c20      	subs	r4, #32
 800072e:	da35      	bge.n	800079c <__aeabi_dmul+0x164>
 8000730:	340c      	adds	r4, #12
 8000732:	dc1b      	bgt.n	800076c <__aeabi_dmul+0x134>
 8000734:	f104 0414 	add.w	r4, r4, #20
 8000738:	f1c4 0520 	rsb	r5, r4, #32
 800073c:	fa00 f305 	lsl.w	r3, r0, r5
 8000740:	fa20 f004 	lsr.w	r0, r0, r4
 8000744:	fa01 f205 	lsl.w	r2, r1, r5
 8000748:	ea40 0002 	orr.w	r0, r0, r2
 800074c:	f001 4200 	and.w	r2, r1, #2147483648	; 0x80000000
 8000750:	f021 4100 	bic.w	r1, r1, #2147483648	; 0x80000000
 8000754:	eb10 70d3 	adds.w	r0, r0, r3, lsr #31
 8000758:	fa21 f604 	lsr.w	r6, r1, r4
 800075c:	eb42 0106 	adc.w	r1, r2, r6
 8000760:	ea5e 0e43 	orrs.w	lr, lr, r3, lsl #1
 8000764:	bf08      	it	eq
 8000766:	ea20 70d3 	biceq.w	r0, r0, r3, lsr #31
 800076a:	bd70      	pop	{r4, r5, r6, pc}
 800076c:	f1c4 040c 	rsb	r4, r4, #12
 8000770:	f1c4 0520 	rsb	r5, r4, #32
 8000774:	fa00 f304 	lsl.w	r3, r0, r4
 8000778:	fa20 f005 	lsr.w	r0, r0, r5
 800077c:	fa01 f204 	lsl.w	r2, r1, r4
 8000780:	ea40 0002 	orr.w	r0, r0, r2
 8000784:	f001 4100 	and.w	r1, r1, #2147483648	; 0x80000000
 8000788:	eb10 70d3 	adds.w	r0, r0, r3, lsr #31
 800078c:	f141 0100 	adc.w	r1, r1, #0
 8000790:	ea5e 0e43 	orrs.w	lr, lr, r3, lsl #1
 8000794:	bf08      	it	eq
 8000796:	ea20 70d3 	biceq.w	r0, r0, r3, lsr #31
 800079a:	bd70      	pop	{r4, r5, r6, pc}
 800079c:	f1c4 0520 	rsb	r5, r4, #32
 80007a0:	fa00 f205 	lsl.w	r2, r0, r5
 80007a4:	ea4e 0e02 	orr.w	lr, lr, r2
 80007a8:	fa20 f304 	lsr.w	r3, r0, r4
 80007ac:	fa01 f205 	lsl.w	r2, r1, r5
 80007b0:	ea43 0302 	orr.w	r3, r3, r2
 80007b4:	fa21 f004 	lsr.w	r0, r1, r4
 80007b8:	f001 4100 	and.w	r1, r1, #2147483648	; 0x80000000
 80007bc:	fa21 f204 	lsr.w	r2, r1, r4
 80007c0:	ea20 0002 	bic.w	r0, r0, r2
 80007c4:	eb00 70d3 	add.w	r0, r0, r3, lsr #31
 80007c8:	ea5e 0e43 	orrs.w	lr, lr, r3, lsl #1
 80007cc:	bf08      	it	eq
 80007ce:	ea20 70d3 	biceq.w	r0, r0, r3, lsr #31
 80007d2:	bd70      	pop	{r4, r5, r6, pc}
 80007d4:	f094 0f00 	teq	r4, #0
 80007d8:	d10f      	bne.n	80007fa <__aeabi_dmul+0x1c2>
 80007da:	f001 4600 	and.w	r6, r1, #2147483648	; 0x80000000
 80007de:	0040      	lsls	r0, r0, #1
 80007e0:	eb41 0101 	adc.w	r1, r1, r1
 80007e4:	f411 1f80 	tst.w	r1, #1048576	; 0x100000
 80007e8:	bf08      	it	eq
 80007ea:	3c01      	subeq	r4, #1
 80007ec:	d0f7      	beq.n	80007de <__aeabi_dmul+0x1a6>
 80007ee:	ea41 0106 	orr.w	r1, r1, r6
 80007f2:	f095 0f00 	teq	r5, #0
 80007f6:	bf18      	it	ne
 80007f8:	4770      	bxne	lr
 80007fa:	f003 4600 	and.w	r6, r3, #2147483648	; 0x80000000
 80007fe:	0052      	lsls	r2, r2, #1
 8000800:	eb43 0303 	adc.w	r3, r3, r3
 8000804:	f413 1f80 	tst.w	r3, #1048576	; 0x100000
 8000808:	bf08      	it	eq
 800080a:	3d01      	subeq	r5, #1
 800080c:	d0f7      	beq.n	80007fe <__aeabi_dmul+0x1c6>
 800080e:	ea43 0306 	orr.w	r3, r3, r6
 8000812:	4770      	bx	lr
 8000814:	ea94 0f0c 	teq	r4, ip
 8000818:	ea0c 5513 	and.w	r5, ip, r3, lsr #20
 800081c:	bf18      	it	ne
 800081e:	ea95 0f0c 	teqne	r5, ip
 8000822:	d00c      	beq.n	800083e <__aeabi_dmul+0x206>
 8000824:	ea50 0641 	orrs.w	r6, r0, r1, lsl #1
 8000828:	bf18      	it	ne
 800082a:	ea52 0643 	orrsne.w	r6, r2, r3, lsl #1
 800082e:	d1d1      	bne.n	80007d4 <__aeabi_dmul+0x19c>
 8000830:	ea81 0103 	eor.w	r1, r1, r3
 8000834:	f001 4100 	and.w	r1, r1, #2147483648	; 0x80000000
 8000838:	f04f 0000 	mov.w	r0, #0
 800083c:	bd70      	pop	{r4, r5, r6, pc}
 800083e:	ea50 0641 	orrs.w	r6, r0, r1, lsl #1
 8000842:	bf06      	itte	eq
 8000844:	4610      	moveq	r0, r2
 8000846:	4619      	moveq	r1, r3
 8000848:	ea52 0643 	orrsne.w	r6, r2, r3, lsl #1
 800084c:	d019      	beq.n	8000882 <__aeabi_dmul+0x24a>
 800084e:	ea94 0f0c 	teq	r4, ip
 8000852:	d102      	bne.n	800085a <__aeabi_dmul+0x222>
 8000854:	ea50 3601 	orrs.w	r6, r0, r1, lsl #12
 8000858:	d113      	bne.n	8000882 <__aeabi_dmul+0x24a>
 800085a:	ea95 0f0c 	teq	r5, ip
 800085e:	d105      	bne.n	800086c <__aeabi_dmul+0x234>
 8000860:	ea52 3603 	orrs.w	r6, r2, r3, lsl #12
 8000864:	bf1c      	itt	ne
 8000866:	4610      	movne	r0, r2
 8000868:	4619      	movne	r1, r3
 800086a:	d10a      	bne.n	8000882 <__aeabi_dmul+0x24a>
 800086c:	ea81 0103 	eor.w	r1, r1, r3
 8000870:	f001 4100 	and.w	r1, r1, #2147483648	; 0x80000000
 8000874:	f041 41fe 	orr.w	r1, r1, #2130706432	; 0x7f000000
 8000878:	f441 0170 	orr.w	r1, r1, #15728640	; 0xf00000
 800087c:	f04f 0000 	mov.w	r0, #0
 8000880:	bd70      	pop	{r4, r5, r6, pc}
 8000882:	f041 41fe 	orr.w	r1, r1, #2130706432	; 0x7f000000
 8000886:	f441 0178 	orr.w	r1, r1, #16252928	; 0xf80000
 800088a:	bd70      	pop	{r4, r5, r6, pc}

0800088c <__aeabi_ddiv>:
 800088c:	b570      	push	{r4, r5, r6, lr}
 800088e:	f04f 0cff 	mov.w	ip, #255	; 0xff
 8000892:	f44c 6ce0 	orr.w	ip, ip, #1792	; 0x700
 8000896:	ea1c 5411 	ands.w	r4, ip, r1, lsr #20
 800089a:	bf1d      	ittte	ne
 800089c:	ea1c 5513 	andsne.w	r5, ip, r3, lsr #20
 80008a0:	ea94 0f0c 	teqne	r4, ip
 80008a4:	ea95 0f0c 	teqne	r5, ip
 80008a8:	f000 f8a7 	bleq	80009fa <__aeabi_ddiv+0x16e>
 80008ac:	eba4 0405 	sub.w	r4, r4, r5
 80008b0:	ea81 0e03 	eor.w	lr, r1, r3
 80008b4:	ea52 3503 	orrs.w	r5, r2, r3, lsl #12
 80008b8:	ea4f 3101 	mov.w	r1, r1, lsl #12
 80008bc:	f000 8088 	beq.w	80009d0 <__aeabi_ddiv+0x144>
 80008c0:	ea4f 3303 	mov.w	r3, r3, lsl #12
 80008c4:	f04f 5580 	mov.w	r5, #268435456	; 0x10000000
 80008c8:	ea45 1313 	orr.w	r3, r5, r3, lsr #4
 80008cc:	ea43 6312 	orr.w	r3, r3, r2, lsr #24
 80008d0:	ea4f 2202 	mov.w	r2, r2, lsl #8
 80008d4:	ea45 1511 	orr.w	r5, r5, r1, lsr #4
 80008d8:	ea45 6510 	orr.w	r5, r5, r0, lsr #24
 80008dc:	ea4f 2600 	mov.w	r6, r0, lsl #8
 80008e0:	f00e 4100 	and.w	r1, lr, #2147483648	; 0x80000000
 80008e4:	429d      	cmp	r5, r3
 80008e6:	bf08      	it	eq
 80008e8:	4296      	cmpeq	r6, r2
 80008ea:	f144 04fd 	adc.w	r4, r4, #253	; 0xfd
 80008ee:	f504 7440 	add.w	r4, r4, #768	; 0x300
 80008f2:	d202      	bcs.n	80008fa <__aeabi_ddiv+0x6e>
 80008f4:	085b      	lsrs	r3, r3, #1
 80008f6:	ea4f 0232 	mov.w	r2, r2, rrx
 80008fa:	1ab6      	subs	r6, r6, r2
 80008fc:	eb65 0503 	sbc.w	r5, r5, r3
 8000900:	085b      	lsrs	r3, r3, #1
 8000902:	ea4f 0232 	mov.w	r2, r2, rrx
 8000906:	f44f 1080 	mov.w	r0, #1048576	; 0x100000
 800090a:	f44f 2c00 	mov.w	ip, #524288	; 0x80000
 800090e:	ebb6 0e02 	subs.w	lr, r6, r2
 8000912:	eb75 0e03 	sbcs.w	lr, r5, r3
 8000916:	bf22      	ittt	cs
 8000918:	1ab6      	subcs	r6, r6, r2
 800091a:	4675      	movcs	r5, lr
 800091c:	ea40 000c 	orrcs.w	r0, r0, ip
 8000920:	085b      	lsrs	r3, r3, #1
 8000922:	ea4f 0232 	mov.w	r2, r2, rrx
 8000926:	ebb6 0e02 	subs.w	lr, r6, r2
 800092a:	eb75 0e03 	sbcs.w	lr, r5, r3
 800092e:	bf22      	ittt	cs
 8000930:	1ab6      	subcs	r6, r6, r2
 8000932:	4675      	movcs	r5, lr
 8000934:	ea40 005c 	orrcs.w	r0, r0, ip, lsr #1
 8000938:	085b      	lsrs	r3, r3, #1
 800093a:	ea4f 0232 	mov.w	r2, r2, rrx
 800093e:	ebb6 0e02 	subs.w	lr, r6, r2
 8000942:	eb75 0e03 	sbcs.w	lr, r5, r3
 8000946:	bf22      	ittt	cs
 8000948:	1ab6      	subcs	r6, r6, r2
 800094a:	4675      	movcs	r5, lr
 800094c:	ea40 009c 	orrcs.w	r0, r0, ip, lsr #2
 8000950:	085b      	lsrs	r3, r3, #1
 8000952:	ea4f 0232 	mov.w	r2, r2, rrx
 8000956:	ebb6 0e02 	subs.w	lr, r6, r2
 800095a:	eb75 0e03 	sbcs.w	lr, r5, r3
 800095e:	bf22      	ittt	cs
 8000960:	1ab6      	subcs	r6, r6, r2
 8000962:	4675      	movcs	r5, lr
 8000964:	ea40 00dc 	orrcs.w	r0, r0, ip, lsr #3
 8000968:	ea55 0e06 	orrs.w	lr, r5, r6
 800096c:	d018      	beq.n	80009a0 <__aeabi_ddiv+0x114>
 800096e:	ea4f 1505 	mov.w	r5, r5, lsl #4
 8000972:	ea45 7516 	orr.w	r5, r5, r6, lsr #28
 8000976:	ea4f 1606 	mov.w	r6, r6, lsl #4
 800097a:	ea4f 03c3 	mov.w	r3, r3, lsl #3
 800097e:	ea43 7352 	orr.w	r3, r3, r2, lsr #29
 8000982:	ea4f 02c2 	mov.w	r2, r2, lsl #3
 8000986:	ea5f 1c1c 	movs.w	ip, ip, lsr #4
 800098a:	d1c0      	bne.n	800090e <__aeabi_ddiv+0x82>
 800098c:	f411 1f80 	tst.w	r1, #1048576	; 0x100000
 8000990:	d10b      	bne.n	80009aa <__aeabi_ddiv+0x11e>
 8000992:	ea41 0100 	orr.w	r1, r1, r0
 8000996:	f04f 0000 	mov.w	r0, #0
 800099a:	f04f 4c00 	mov.w	ip, #2147483648	; 0x80000000
 800099e:	e7b6      	b.n	800090e <__aeabi_ddiv+0x82>
 80009a0:	f411 1f80 	tst.w	r1, #1048576	; 0x100000
 80009a4:	bf04      	itt	eq
 80009a6:	4301      	orreq	r1, r0
 80009a8:	2000      	moveq	r0, #0
 80009aa:	f1b4 0cfd 	subs.w	ip, r4, #253	; 0xfd
 80009ae:	bf88      	it	hi
 80009b0:	f5bc 6fe0 	cmphi.w	ip, #1792	; 0x700
 80009b4:	f63f aeaf 	bhi.w	8000716 <__aeabi_dmul+0xde>
 80009b8:	ebb5 0c03 	subs.w	ip, r5, r3
 80009bc:	bf04      	itt	eq
 80009be:	ebb6 0c02 	subseq.w	ip, r6, r2
 80009c2:	ea5f 0c50 	movseq.w	ip, r0, lsr #1
 80009c6:	f150 0000 	adcs.w	r0, r0, #0
 80009ca:	eb41 5104 	adc.w	r1, r1, r4, lsl #20
 80009ce:	bd70      	pop	{r4, r5, r6, pc}
 80009d0:	f00e 4e00 	and.w	lr, lr, #2147483648	; 0x80000000
 80009d4:	ea4e 3111 	orr.w	r1, lr, r1, lsr #12
 80009d8:	eb14 045c 	adds.w	r4, r4, ip, lsr #1
 80009dc:	bfc2      	ittt	gt
 80009de:	ebd4 050c 	rsbsgt	r5, r4, ip
 80009e2:	ea41 5104 	orrgt.w	r1, r1, r4, lsl #20
 80009e6:	bd70      	popgt	{r4, r5, r6, pc}
 80009e8:	f441 1180 	orr.w	r1, r1, #1048576	; 0x100000
 80009ec:	f04f 0e00 	mov.w	lr, #0
 80009f0:	3c01      	subs	r4, #1
 80009f2:	e690      	b.n	8000716 <__aeabi_dmul+0xde>
 80009f4:	ea45 0e06 	orr.w	lr, r5, r6
 80009f8:	e68d      	b.n	8000716 <__aeabi_dmul+0xde>
 80009fa:	ea0c 5513 	and.w	r5, ip, r3, lsr #20
 80009fe:	ea94 0f0c 	teq	r4, ip
 8000a02:	bf08      	it	eq
 8000a04:	ea95 0f0c 	teqeq	r5, ip
 8000a08:	f43f af3b 	beq.w	8000882 <__aeabi_dmul+0x24a>
 8000a0c:	ea94 0f0c 	teq	r4, ip
 8000a10:	d10a      	bne.n	8000a28 <__aeabi_ddiv+0x19c>
 8000a12:	ea50 3401 	orrs.w	r4, r0, r1, lsl #12
 8000a16:	f47f af34 	bne.w	8000882 <__aeabi_dmul+0x24a>
 8000a1a:	ea95 0f0c 	teq	r5, ip
 8000a1e:	f47f af25 	bne.w	800086c <__aeabi_dmul+0x234>
 8000a22:	4610      	mov	r0, r2
 8000a24:	4619      	mov	r1, r3
 8000a26:	e72c      	b.n	8000882 <__aeabi_dmul+0x24a>
 8000a28:	ea95 0f0c 	teq	r5, ip
 8000a2c:	d106      	bne.n	8000a3c <__aeabi_ddiv+0x1b0>
 8000a2e:	ea52 3503 	orrs.w	r5, r2, r3, lsl #12
 8000a32:	f43f aefd 	beq.w	8000830 <__aeabi_dmul+0x1f8>
 8000a36:	4610      	mov	r0, r2
 8000a38:	4619      	mov	r1, r3
 8000a3a:	e722      	b.n	8000882 <__aeabi_dmul+0x24a>
 8000a3c:	ea50 0641 	orrs.w	r6, r0, r1, lsl #1
 8000a40:	bf18      	it	ne
 8000a42:	ea52 0643 	orrsne.w	r6, r2, r3, lsl #1
 8000a46:	f47f aec5 	bne.w	80007d4 <__aeabi_dmul+0x19c>
 8000a4a:	ea50 0441 	orrs.w	r4, r0, r1, lsl #1
 8000a4e:	f47f af0d 	bne.w	800086c <__aeabi_dmul+0x234>
 8000a52:	ea52 0543 	orrs.w	r5, r2, r3, lsl #1
 8000a56:	f47f aeeb 	bne.w	8000830 <__aeabi_dmul+0x1f8>
 8000a5a:	e712      	b.n	8000882 <__aeabi_dmul+0x24a>

08000a5c <__gedf2>:
 8000a5c:	f04f 3cff 	mov.w	ip, #4294967295
 8000a60:	e006      	b.n	8000a70 <__cmpdf2+0x4>
 8000a62:	bf00      	nop

08000a64 <__ledf2>:
 8000a64:	f04f 0c01 	mov.w	ip, #1
 8000a68:	e002      	b.n	8000a70 <__cmpdf2+0x4>
 8000a6a:	bf00      	nop

08000a6c <__cmpdf2>:
 8000a6c:	f04f 0c01 	mov.w	ip, #1
 8000a70:	f84d cd04 	str.w	ip, [sp, #-4]!
 8000a74:	ea4f 0c41 	mov.w	ip, r1, lsl #1
 8000a78:	ea7f 5c6c 	mvns.w	ip, ip, asr #21
 8000a7c:	ea4f 0c43 	mov.w	ip, r3, lsl #1
 8000a80:	bf18      	it	ne
 8000a82:	ea7f 5c6c 	mvnsne.w	ip, ip, asr #21
 8000a86:	d01b      	beq.n	8000ac0 <__cmpdf2+0x54>
 8000a88:	b001      	add	sp, #4
 8000a8a:	ea50 0c41 	orrs.w	ip, r0, r1, lsl #1
 8000a8e:	bf0c      	ite	eq
 8000a90:	ea52 0c43 	orrseq.w	ip, r2, r3, lsl #1
 8000a94:	ea91 0f03 	teqne	r1, r3
 8000a98:	bf02      	ittt	eq
 8000a9a:	ea90 0f02 	teqeq	r0, r2
 8000a9e:	2000      	moveq	r0, #0
 8000aa0:	4770      	bxeq	lr
 8000aa2:	f110 0f00 	cmn.w	r0, #0
 8000aa6:	ea91 0f03 	teq	r1, r3
 8000aaa:	bf58      	it	pl
 8000aac:	4299      	cmppl	r1, r3
 8000aae:	bf08      	it	eq
 8000ab0:	4290      	cmpeq	r0, r2
 8000ab2:	bf2c      	ite	cs
 8000ab4:	17d8      	asrcs	r0, r3, #31
 8000ab6:	ea6f 70e3 	mvncc.w	r0, r3, asr #31
 8000aba:	f040 0001 	orr.w	r0, r0, #1
 8000abe:	4770      	bx	lr
 8000ac0:	ea4f 0c41 	mov.w	ip, r1, lsl #1
 8000ac4:	ea7f 5c6c 	mvns.w	ip, ip, asr #21
 8000ac8:	d102      	bne.n	8000ad0 <__cmpdf2+0x64>
 8000aca:	ea50 3c01 	orrs.w	ip, r0, r1, lsl #12
 8000ace:	d107      	bne.n	8000ae0 <__cmpdf2+0x74>
 8000ad0:	ea4f 0c43 	mov.w	ip, r3, lsl #1
 8000ad4:	ea7f 5c6c 	mvns.w	ip, ip, asr #21
 8000ad8:	d1d6      	bne.n	8000a88 <__cmpdf2+0x1c>
 8000ada:	ea52 3c03 	orrs.w	ip, r2, r3, lsl #12
 8000ade:	d0d3      	beq.n	8000a88 <__cmpdf2+0x1c>
 8000ae0:	f85d 0b04 	ldr.w	r0, [sp], #4
 8000ae4:	4770      	bx	lr
 8000ae6:	bf00      	nop

08000ae8 <__aeabi_cdrcmple>:
 8000ae8:	4684      	mov	ip, r0
 8000aea:	4610      	mov	r0, r2
 8000aec:	4662      	mov	r2, ip
 8000aee:	468c      	mov	ip, r1
 8000af0:	4619      	mov	r1, r3
 8000af2:	4663      	mov	r3, ip
 8000af4:	e000      	b.n	8000af8 <__aeabi_cdcmpeq>
 8000af6:	bf00      	nop

08000af8 <__aeabi_cdcmpeq>:
 8000af8:	b501      	push	{r0, lr}
 8000afa:	f7ff ffb7 	bl	8000a6c <__cmpdf2>
 8000afe:	2800      	cmp	r0, #0
 8000b00:	bf48      	it	mi
 8000b02:	f110 0f00 	cmnmi.w	r0, #0
 8000b06:	bd01      	pop	{r0, pc}

08000b08 <__aeabi_dcmpeq>:
 8000b08:	f84d ed08 	str.w	lr, [sp, #-8]!
 8000b0c:	f7ff fff4 	bl	8000af8 <__aeabi_cdcmpeq>
 8000b10:	bf0c      	ite	eq
 8000b12:	2001      	moveq	r0, #1
 8000b14:	2000      	movne	r0, #0
 8000b16:	f85d fb08 	ldr.w	pc, [sp], #8
 8000b1a:	bf00      	nop

08000b1c <__aeabi_dcmplt>:
 8000b1c:	f84d ed08 	str.w	lr, [sp, #-8]!
 8000b20:	f7ff ffea 	bl	8000af8 <__aeabi_cdcmpeq>
 8000b24:	bf34      	ite	cc
 8000b26:	2001      	movcc	r0, #1
 8000b28:	2000      	movcs	r0, #0
 8000b2a:	f85d fb08 	ldr.w	pc, [sp], #8
 8000b2e:	bf00      	nop

08000b30 <__aeabi_dcmple>:
 8000b30:	f84d ed08 	str.w	lr, [sp, #-8]!
 8000b34:	f7ff ffe0 	bl	8000af8 <__aeabi_cdcmpeq>
 8000b38:	bf94      	ite	ls
 8000b3a:	2001      	movls	r0, #1
 8000b3c:	2000      	movhi	r0, #0
 8000b3e:	f85d fb08 	ldr.w	pc, [sp], #8
 8000b42:	bf00      	nop

08000b44 <__aeabi_dcmpge>:
 8000b44:	f84d ed08 	str.w	lr, [sp, #-8]!
 8000b48:	f7ff ffce 	bl	8000ae8 <__aeabi_cdrcmple>
 8000b4c:	bf94      	ite	ls
 8000b4e:	2001      	movls	r0, #1
 8000b50:	2000      	movhi	r0, #0
 8000b52:	f85d fb08 	ldr.w	pc, [sp], #8
 8000b56:	bf00      	nop

08000b58 <__aeabi_dcmpgt>:
 8000b58:	f84d ed08 	str.w	lr, [sp, #-8]!
 8000b5c:	f7ff ffc4 	bl	8000ae8 <__aeabi_cdrcmple>
 8000b60:	bf34      	ite	cc
 8000b62:	2001      	movcc	r0, #1
 8000b64:	2000      	movcs	r0, #0
 8000b66:	f85d fb08 	ldr.w	pc, [sp], #8
 8000b6a:	bf00      	nop

08000b6c <__aeabi_dcmpun>:
 8000b6c:	ea4f 0c41 	mov.w	ip, r1, lsl #1
 8000b70:	ea7f 5c6c 	mvns.w	ip, ip, asr #21
 8000b74:	d102      	bne.n	8000b7c <__aeabi_dcmpun+0x10>
 8000b76:	ea50 3c01 	orrs.w	ip, r0, r1, lsl #12
 8000b7a:	d10a      	bne.n	8000b92 <__aeabi_dcmpun+0x26>
 8000b7c:	ea4f 0c43 	mov.w	ip, r3, lsl #1
 8000b80:	ea7f 5c6c 	mvns.w	ip, ip, asr #21
 8000b84:	d102      	bne.n	8000b8c <__aeabi_dcmpun+0x20>
 8000b86:	ea52 3c03 	orrs.w	ip, r2, r3, lsl #12
 8000b8a:	d102      	bne.n	8000b92 <__aeabi_dcmpun+0x26>
 8000b8c:	f04f 0000 	mov.w	r0, #0
 8000b90:	4770      	bx	lr
 8000b92:	f04f 0001 	mov.w	r0, #1
 8000b96:	4770      	bx	lr

08000b98 <__aeabi_d2iz>:
 8000b98:	ea4f 0241 	mov.w	r2, r1, lsl #1
 8000b9c:	f512 1200 	adds.w	r2, r2, #2097152	; 0x200000
 8000ba0:	d215      	bcs.n	8000bce <__aeabi_d2iz+0x36>
 8000ba2:	d511      	bpl.n	8000bc8 <__aeabi_d2iz+0x30>
 8000ba4:	f46f 7378 	mvn.w	r3, #992	; 0x3e0
 8000ba8:	ebb3 5262 	subs.w	r2, r3, r2, asr #21
 8000bac:	d912      	bls.n	8000bd4 <__aeabi_d2iz+0x3c>
 8000bae:	ea4f 23c1 	mov.w	r3, r1, lsl #11
 8000bb2:	f043 4300 	orr.w	r3, r3, #2147483648	; 0x80000000
 8000bb6:	ea43 5350 	orr.w	r3, r3, r0, lsr #21
 8000bba:	f011 4f00 	tst.w	r1, #2147483648	; 0x80000000
 8000bbe:	fa23 f002 	lsr.w	r0, r3, r2
 8000bc2:	bf18      	it	ne
 8000bc4:	4240      	negne	r0, r0
 8000bc6:	4770      	bx	lr
 8000bc8:	f04f 0000 	mov.w	r0, #0
 8000bcc:	4770      	bx	lr
 8000bce:	ea50 3001 	orrs.w	r0, r0, r1, lsl #12
 8000bd2:	d105      	bne.n	8000be0 <__aeabi_d2iz+0x48>
 8000bd4:	f011 4000 	ands.w	r0, r1, #2147483648	; 0x80000000
 8000bd8:	bf08      	it	eq
 8000bda:	f06f 4000 	mvneq.w	r0, #2147483648	; 0x80000000
 8000bde:	4770      	bx	lr
 8000be0:	f04f 0000 	mov.w	r0, #0
 8000be4:	4770      	bx	lr
 8000be6:	bf00      	nop

08000be8 <__aeabi_d2f>:
 8000be8:	ea4f 0241 	mov.w	r2, r1, lsl #1
 8000bec:	f1b2 43e0 	subs.w	r3, r2, #1879048192	; 0x70000000
 8000bf0:	bf24      	itt	cs
 8000bf2:	f5b3 1c00 	subscs.w	ip, r3, #2097152	; 0x200000
 8000bf6:	f1dc 5cfe 	rsbscs	ip, ip, #532676608	; 0x1fc00000
 8000bfa:	d90d      	bls.n	8000c18 <__aeabi_d2f+0x30>
 8000bfc:	f001 4c00 	and.w	ip, r1, #2147483648	; 0x80000000
 8000c00:	ea4f 02c0 	mov.w	r2, r0, lsl #3
 8000c04:	ea4c 7050 	orr.w	r0, ip, r0, lsr #29
 8000c08:	f1b2 4f00 	cmp.w	r2, #2147483648	; 0x80000000
 8000c0c:	eb40 0083 	adc.w	r0, r0, r3, lsl #2
 8000c10:	bf08      	it	eq
 8000c12:	f020 0001 	biceq.w	r0, r0, #1
 8000c16:	4770      	bx	lr
 8000c18:	f011 4f80 	tst.w	r1, #1073741824	; 0x40000000
 8000c1c:	d121      	bne.n	8000c62 <__aeabi_d2f+0x7a>
 8000c1e:	f113 7238 	adds.w	r2, r3, #48234496	; 0x2e00000
 8000c22:	bfbc      	itt	lt
 8000c24:	f001 4000 	andlt.w	r0, r1, #2147483648	; 0x80000000
 8000c28:	4770      	bxlt	lr
 8000c2a:	f441 1180 	orr.w	r1, r1, #1048576	; 0x100000
 8000c2e:	ea4f 5252 	mov.w	r2, r2, lsr #21
 8000c32:	f1c2 0218 	rsb	r2, r2, #24
 8000c36:	f1c2 0c20 	rsb	ip, r2, #32
 8000c3a:	fa10 f30c 	lsls.w	r3, r0, ip
 8000c3e:	fa20 f002 	lsr.w	r0, r0, r2
 8000c42:	bf18      	it	ne
 8000c44:	f040 0001 	orrne.w	r0, r0, #1
 8000c48:	ea4f 23c1 	mov.w	r3, r1, lsl #11
 8000c4c:	ea4f 23d3 	mov.w	r3, r3, lsr #11
 8000c50:	fa03 fc0c 	lsl.w	ip, r3, ip
 8000c54:	ea40 000c 	orr.w	r0, r0, ip
 8000c58:	fa23 f302 	lsr.w	r3, r3, r2
 8000c5c:	ea4f 0343 	mov.w	r3, r3, lsl #1
 8000c60:	e7cc      	b.n	8000bfc <__aeabi_d2f+0x14>
 8000c62:	ea7f 5362 	mvns.w	r3, r2, asr #21
 8000c66:	d107      	bne.n	8000c78 <__aeabi_d2f+0x90>
 8000c68:	ea50 3301 	orrs.w	r3, r0, r1, lsl #12
 8000c6c:	bf1e      	ittt	ne
 8000c6e:	f04f 40fe 	movne.w	r0, #2130706432	; 0x7f000000
 8000c72:	f440 0040 	orrne.w	r0, r0, #12582912	; 0xc00000
 8000c76:	4770      	bxne	lr
 8000c78:	f001 4000 	and.w	r0, r1, #2147483648	; 0x80000000
 8000c7c:	f040 40fe 	orr.w	r0, r0, #2130706432	; 0x7f000000
 8000c80:	f440 0000 	orr.w	r0, r0, #8388608	; 0x800000
 8000c84:	4770      	bx	lr
 8000c86:	bf00      	nop

08000c88 <__aeabi_uldivmod>:
 8000c88:	b953      	cbnz	r3, 8000ca0 <__aeabi_uldivmod+0x18>
 8000c8a:	b94a      	cbnz	r2, 8000ca0 <__aeabi_uldivmod+0x18>
 8000c8c:	2900      	cmp	r1, #0
 8000c8e:	bf08      	it	eq
 8000c90:	2800      	cmpeq	r0, #0
 8000c92:	bf1c      	itt	ne
 8000c94:	f04f 31ff 	movne.w	r1, #4294967295
 8000c98:	f04f 30ff 	movne.w	r0, #4294967295
 8000c9c:	f000 b96e 	b.w	8000f7c <__aeabi_idiv0>
 8000ca0:	f1ad 0c08 	sub.w	ip, sp, #8
 8000ca4:	e96d ce04 	strd	ip, lr, [sp, #-16]!
 8000ca8:	f000 f806 	bl	8000cb8 <__udivmoddi4>
 8000cac:	f8dd e004 	ldr.w	lr, [sp, #4]
 8000cb0:	e9dd 2302 	ldrd	r2, r3, [sp, #8]
 8000cb4:	b004      	add	sp, #16
 8000cb6:	4770      	bx	lr

08000cb8 <__udivmoddi4>:
 8000cb8:	e92d 47f0 	stmdb	sp!, {r4, r5, r6, r7, r8, r9, sl, lr}
 8000cbc:	9d08      	ldr	r5, [sp, #32]
 8000cbe:	4604      	mov	r4, r0
 8000cc0:	468c      	mov	ip, r1
 8000cc2:	2b00      	cmp	r3, #0
 8000cc4:	f040 8083 	bne.w	8000dce <__udivmoddi4+0x116>
 8000cc8:	428a      	cmp	r2, r1
 8000cca:	4617      	mov	r7, r2
 8000ccc:	d947      	bls.n	8000d5e <__udivmoddi4+0xa6>
 8000cce:	fab2 f282 	clz	r2, r2
 8000cd2:	b142      	cbz	r2, 8000ce6 <__udivmoddi4+0x2e>
 8000cd4:	f1c2 0020 	rsb	r0, r2, #32
 8000cd8:	fa24 f000 	lsr.w	r0, r4, r0
 8000cdc:	4091      	lsls	r1, r2
 8000cde:	4097      	lsls	r7, r2
 8000ce0:	ea40 0c01 	orr.w	ip, r0, r1
 8000ce4:	4094      	lsls	r4, r2
 8000ce6:	ea4f 4817 	mov.w	r8, r7, lsr #16
 8000cea:	0c23      	lsrs	r3, r4, #16
 8000cec:	fbbc f6f8 	udiv	r6, ip, r8
 8000cf0:	fa1f fe87 	uxth.w	lr, r7
 8000cf4:	fb08 c116 	mls	r1, r8, r6, ip
 8000cf8:	ea43 4301 	orr.w	r3, r3, r1, lsl #16
 8000cfc:	fb06 f10e 	mul.w	r1, r6, lr
 8000d00:	4299      	cmp	r1, r3
 8000d02:	d909      	bls.n	8000d18 <__udivmoddi4+0x60>
 8000d04:	18fb      	adds	r3, r7, r3
 8000d06:	f106 30ff 	add.w	r0, r6, #4294967295
 8000d0a:	f080 8119 	bcs.w	8000f40 <__udivmoddi4+0x288>
 8000d0e:	4299      	cmp	r1, r3
 8000d10:	f240 8116 	bls.w	8000f40 <__udivmoddi4+0x288>
 8000d14:	3e02      	subs	r6, #2
 8000d16:	443b      	add	r3, r7
 8000d18:	1a5b      	subs	r3, r3, r1
 8000d1a:	b2a4      	uxth	r4, r4
 8000d1c:	fbb3 f0f8 	udiv	r0, r3, r8
 8000d20:	fb08 3310 	mls	r3, r8, r0, r3
 8000d24:	ea44 4403 	orr.w	r4, r4, r3, lsl #16
 8000d28:	fb00 fe0e 	mul.w	lr, r0, lr
 8000d2c:	45a6      	cmp	lr, r4
 8000d2e:	d909      	bls.n	8000d44 <__udivmoddi4+0x8c>
 8000d30:	193c      	adds	r4, r7, r4
 8000d32:	f100 33ff 	add.w	r3, r0, #4294967295
 8000d36:	f080 8105 	bcs.w	8000f44 <__udivmoddi4+0x28c>
 8000d3a:	45a6      	cmp	lr, r4
 8000d3c:	f240 8102 	bls.w	8000f44 <__udivmoddi4+0x28c>
 8000d40:	3802      	subs	r0, #2
 8000d42:	443c      	add	r4, r7
 8000d44:	ea40 4006 	orr.w	r0, r0, r6, lsl #16
 8000d48:	eba4 040e 	sub.w	r4, r4, lr
 8000d4c:	2600      	movs	r6, #0
 8000d4e:	b11d      	cbz	r5, 8000d58 <__udivmoddi4+0xa0>
 8000d50:	40d4      	lsrs	r4, r2
 8000d52:	2300      	movs	r3, #0
 8000d54:	e9c5 4300 	strd	r4, r3, [r5]
 8000d58:	4631      	mov	r1, r6
 8000d5a:	e8bd 87f0 	ldmia.w	sp!, {r4, r5, r6, r7, r8, r9, sl, pc}
 8000d5e:	b902      	cbnz	r2, 8000d62 <__udivmoddi4+0xaa>
 8000d60:	deff      	udf	#255	; 0xff
 8000d62:	fab2 f282 	clz	r2, r2
 8000d66:	2a00      	cmp	r2, #0
 8000d68:	d150      	bne.n	8000e0c <__udivmoddi4+0x154>
 8000d6a:	1bcb      	subs	r3, r1, r7
 8000d6c:	ea4f 4e17 	mov.w	lr, r7, lsr #16
 8000d70:	fa1f f887 	uxth.w	r8, r7
 8000d74:	2601      	movs	r6, #1
 8000d76:	fbb3 fcfe 	udiv	ip, r3, lr
 8000d7a:	0c21      	lsrs	r1, r4, #16
 8000d7c:	fb0e 331c 	mls	r3, lr, ip, r3
 8000d80:	ea41 4103 	orr.w	r1, r1, r3, lsl #16
 8000d84:	fb08 f30c 	mul.w	r3, r8, ip
 8000d88:	428b      	cmp	r3, r1
 8000d8a:	d907      	bls.n	8000d9c <__udivmoddi4+0xe4>
 8000d8c:	1879      	adds	r1, r7, r1
 8000d8e:	f10c 30ff 	add.w	r0, ip, #4294967295
 8000d92:	d202      	bcs.n	8000d9a <__udivmoddi4+0xe2>
 8000d94:	428b      	cmp	r3, r1
 8000d96:	f200 80e9 	bhi.w	8000f6c <__udivmoddi4+0x2b4>
 8000d9a:	4684      	mov	ip, r0
 8000d9c:	1ac9      	subs	r1, r1, r3
 8000d9e:	b2a3      	uxth	r3, r4
 8000da0:	fbb1 f0fe 	udiv	r0, r1, lr
 8000da4:	fb0e 1110 	mls	r1, lr, r0, r1
 8000da8:	ea43 4401 	orr.w	r4, r3, r1, lsl #16
 8000dac:	fb08 f800 	mul.w	r8, r8, r0
 8000db0:	45a0      	cmp	r8, r4
 8000db2:	d907      	bls.n	8000dc4 <__udivmoddi4+0x10c>
 8000db4:	193c      	adds	r4, r7, r4
 8000db6:	f100 33ff 	add.w	r3, r0, #4294967295
 8000dba:	d202      	bcs.n	8000dc2 <__udivmoddi4+0x10a>
 8000dbc:	45a0      	cmp	r8, r4
 8000dbe:	f200 80d9 	bhi.w	8000f74 <__udivmoddi4+0x2bc>
 8000dc2:	4618      	mov	r0, r3
 8000dc4:	eba4 0408 	sub.w	r4, r4, r8
 8000dc8:	ea40 400c 	orr.w	r0, r0, ip, lsl #16
 8000dcc:	e7bf      	b.n	8000d4e <__udivmoddi4+0x96>
 8000dce:	428b      	cmp	r3, r1
 8000dd0:	d909      	bls.n	8000de6 <__udivmoddi4+0x12e>
 8000dd2:	2d00      	cmp	r5, #0
 8000dd4:	f000 80b1 	beq.w	8000f3a <__udivmoddi4+0x282>
 8000dd8:	2600      	movs	r6, #0
 8000dda:	e9c5 0100 	strd	r0, r1, [r5]
 8000dde:	4630      	mov	r0, r6
 8000de0:	4631      	mov	r1, r6
 8000de2:	e8bd 87f0 	ldmia.w	sp!, {r4, r5, r6, r7, r8, r9, sl, pc}
 8000de6:	fab3 f683 	clz	r6, r3
 8000dea:	2e00      	cmp	r6, #0
 8000dec:	d14a      	bne.n	8000e84 <__udivmoddi4+0x1cc>
 8000dee:	428b      	cmp	r3, r1
 8000df0:	d302      	bcc.n	8000df8 <__udivmoddi4+0x140>
 8000df2:	4282      	cmp	r2, r0
 8000df4:	f200 80b8 	bhi.w	8000f68 <__udivmoddi4+0x2b0>
 8000df8:	1a84      	subs	r4, r0, r2
 8000dfa:	eb61 0103 	sbc.w	r1, r1, r3
 8000dfe:	2001      	movs	r0, #1
 8000e00:	468c      	mov	ip, r1
 8000e02:	2d00      	cmp	r5, #0
 8000e04:	d0a8      	beq.n	8000d58 <__udivmoddi4+0xa0>
 8000e06:	e9c5 4c00 	strd	r4, ip, [r5]
 8000e0a:	e7a5      	b.n	8000d58 <__udivmoddi4+0xa0>
 8000e0c:	f1c2 0320 	rsb	r3, r2, #32
 8000e10:	fa20 f603 	lsr.w	r6, r0, r3
 8000e14:	4097      	lsls	r7, r2
 8000e16:	fa01 f002 	lsl.w	r0, r1, r2
 8000e1a:	ea4f 4e17 	mov.w	lr, r7, lsr #16
 8000e1e:	40d9      	lsrs	r1, r3
 8000e20:	4330      	orrs	r0, r6
 8000e22:	0c03      	lsrs	r3, r0, #16
 8000e24:	fbb1 f6fe 	udiv	r6, r1, lr
 8000e28:	fa1f f887 	uxth.w	r8, r7
 8000e2c:	fb0e 1116 	mls	r1, lr, r6, r1
 8000e30:	ea43 4301 	orr.w	r3, r3, r1, lsl #16
 8000e34:	fb06 f108 	mul.w	r1, r6, r8
 8000e38:	4299      	cmp	r1, r3
 8000e3a:	fa04 f402 	lsl.w	r4, r4, r2
 8000e3e:	d909      	bls.n	8000e54 <__udivmoddi4+0x19c>
 8000e40:	18fb      	adds	r3, r7, r3
 8000e42:	f106 3cff 	add.w	ip, r6, #4294967295
 8000e46:	f080 808d 	bcs.w	8000f64 <__udivmoddi4+0x2ac>
 8000e4a:	4299      	cmp	r1, r3
 8000e4c:	f240 808a 	bls.w	8000f64 <__udivmoddi4+0x2ac>
 8000e50:	3e02      	subs	r6, #2
 8000e52:	443b      	add	r3, r7
 8000e54:	1a5b      	subs	r3, r3, r1
 8000e56:	b281      	uxth	r1, r0
 8000e58:	fbb3 f0fe 	udiv	r0, r3, lr
 8000e5c:	fb0e 3310 	mls	r3, lr, r0, r3
 8000e60:	ea41 4103 	orr.w	r1, r1, r3, lsl #16
 8000e64:	fb00 f308 	mul.w	r3, r0, r8
 8000e68:	428b      	cmp	r3, r1
 8000e6a:	d907      	bls.n	8000e7c <__udivmoddi4+0x1c4>
 8000e6c:	1879      	adds	r1, r7, r1
 8000e6e:	f100 3cff 	add.w	ip, r0, #4294967295
 8000e72:	d273      	bcs.n	8000f5c <__udivmoddi4+0x2a4>
 8000e74:	428b      	cmp	r3, r1
 8000e76:	d971      	bls.n	8000f5c <__udivmoddi4+0x2a4>
 8000e78:	3802      	subs	r0, #2
 8000e7a:	4439      	add	r1, r7
 8000e7c:	1acb      	subs	r3, r1, r3
 8000e7e:	ea40 4606 	orr.w	r6, r0, r6, lsl #16
 8000e82:	e778      	b.n	8000d76 <__udivmoddi4+0xbe>
 8000e84:	f1c6 0c20 	rsb	ip, r6, #32
 8000e88:	fa03 f406 	lsl.w	r4, r3, r6
 8000e8c:	fa22 f30c 	lsr.w	r3, r2, ip
 8000e90:	431c      	orrs	r4, r3
 8000e92:	fa20 f70c 	lsr.w	r7, r0, ip
 8000e96:	fa01 f306 	lsl.w	r3, r1, r6
 8000e9a:	ea4f 4e14 	mov.w	lr, r4, lsr #16
 8000e9e:	fa21 f10c 	lsr.w	r1, r1, ip
 8000ea2:	431f      	orrs	r7, r3
 8000ea4:	0c3b      	lsrs	r3, r7, #16
 8000ea6:	fbb1 f9fe 	udiv	r9, r1, lr
 8000eaa:	fa1f f884 	uxth.w	r8, r4
 8000eae:	fb0e 1119 	mls	r1, lr, r9, r1
 8000eb2:	ea43 4101 	orr.w	r1, r3, r1, lsl #16
 8000eb6:	fb09 fa08 	mul.w	sl, r9, r8
 8000eba:	458a      	cmp	sl, r1
 8000ebc:	fa02 f206 	lsl.w	r2, r2, r6
 8000ec0:	fa00 f306 	lsl.w	r3, r0, r6
 8000ec4:	d908      	bls.n	8000ed8 <__udivmoddi4+0x220>
 8000ec6:	1861      	adds	r1, r4, r1
 8000ec8:	f109 30ff 	add.w	r0, r9, #4294967295
 8000ecc:	d248      	bcs.n	8000f60 <__udivmoddi4+0x2a8>
 8000ece:	458a      	cmp	sl, r1
 8000ed0:	d946      	bls.n	8000f60 <__udivmoddi4+0x2a8>
 8000ed2:	f1a9 0902 	sub.w	r9, r9, #2
 8000ed6:	4421      	add	r1, r4
 8000ed8:	eba1 010a 	sub.w	r1, r1, sl
 8000edc:	b2bf      	uxth	r7, r7
 8000ede:	fbb1 f0fe 	udiv	r0, r1, lr
 8000ee2:	fb0e 1110 	mls	r1, lr, r0, r1
 8000ee6:	ea47 4701 	orr.w	r7, r7, r1, lsl #16
 8000eea:	fb00 f808 	mul.w	r8, r0, r8
 8000eee:	45b8      	cmp	r8, r7
 8000ef0:	d907      	bls.n	8000f02 <__udivmoddi4+0x24a>
 8000ef2:	19e7      	adds	r7, r4, r7
 8000ef4:	f100 31ff 	add.w	r1, r0, #4294967295
 8000ef8:	d22e      	bcs.n	8000f58 <__udivmoddi4+0x2a0>
 8000efa:	45b8      	cmp	r8, r7
 8000efc:	d92c      	bls.n	8000f58 <__udivmoddi4+0x2a0>
 8000efe:	3802      	subs	r0, #2
 8000f00:	4427      	add	r7, r4
 8000f02:	ea40 4009 	orr.w	r0, r0, r9, lsl #16
 8000f06:	eba7 0708 	sub.w	r7, r7, r8
 8000f0a:	fba0 8902 	umull	r8, r9, r0, r2
 8000f0e:	454f      	cmp	r7, r9
 8000f10:	46c6      	mov	lr, r8
 8000f12:	4649      	mov	r1, r9
 8000f14:	d31a      	bcc.n	8000f4c <__udivmoddi4+0x294>
 8000f16:	d017      	beq.n	8000f48 <__udivmoddi4+0x290>
 8000f18:	b15d      	cbz	r5, 8000f32 <__udivmoddi4+0x27a>
 8000f1a:	ebb3 020e 	subs.w	r2, r3, lr
 8000f1e:	eb67 0701 	sbc.w	r7, r7, r1
 8000f22:	fa07 fc0c 	lsl.w	ip, r7, ip
 8000f26:	40f2      	lsrs	r2, r6
 8000f28:	ea4c 0202 	orr.w	r2, ip, r2
 8000f2c:	40f7      	lsrs	r7, r6
 8000f2e:	e9c5 2700 	strd	r2, r7, [r5]
 8000f32:	2600      	movs	r6, #0
 8000f34:	4631      	mov	r1, r6
 8000f36:	e8bd 87f0 	ldmia.w	sp!, {r4, r5, r6, r7, r8, r9, sl, pc}
 8000f3a:	462e      	mov	r6, r5
 8000f3c:	4628      	mov	r0, r5
 8000f3e:	e70b      	b.n	8000d58 <__udivmoddi4+0xa0>
 8000f40:	4606      	mov	r6, r0
 8000f42:	e6e9      	b.n	8000d18 <__udivmoddi4+0x60>
 8000f44:	4618      	mov	r0, r3
 8000f46:	e6fd      	b.n	8000d44 <__udivmoddi4+0x8c>
 8000f48:	4543      	cmp	r3, r8
 8000f4a:	d2e5      	bcs.n	8000f18 <__udivmoddi4+0x260>
 8000f4c:	ebb8 0e02 	subs.w	lr, r8, r2
 8000f50:	eb69 0104 	sbc.w	r1, r9, r4
 8000f54:	3801      	subs	r0, #1
 8000f56:	e7df      	b.n	8000f18 <__udivmoddi4+0x260>
 8000f58:	4608      	mov	r0, r1
 8000f5a:	e7d2      	b.n	8000f02 <__udivmoddi4+0x24a>
 8000f5c:	4660      	mov	r0, ip
 8000f5e:	e78d      	b.n	8000e7c <__udivmoddi4+0x1c4>
 8000f60:	4681      	mov	r9, r0
 8000f62:	e7b9      	b.n	8000ed8 <__udivmoddi4+0x220>
 8000f64:	4666      	mov	r6, ip
 8000f66:	e775      	b.n	8000e54 <__udivmoddi4+0x19c>
 8000f68:	4630      	mov	r0, r6
 8000f6a:	e74a      	b.n	8000e02 <__udivmoddi4+0x14a>
 8000f6c:	f1ac 0c02 	sub.w	ip, ip, #2
 8000f70:	4439      	add	r1, r7
 8000f72:	e713      	b.n	8000d9c <__udivmoddi4+0xe4>
 8000f74:	3802      	subs	r0, #2
 8000f76:	443c      	add	r4, r7
 8000f78:	e724      	b.n	8000dc4 <__udivmoddi4+0x10c>
 8000f7a:	bf00      	nop

08000f7c <__aeabi_idiv0>:
 8000f7c:	4770      	bx	lr
 8000f7e:	bf00      	nop

08000f80 <main>:
/**
  * @brief  The application entry point.
  * @retval int
  */
int main(void)
{
 8000f80:	b580      	push	{r7, lr}
 8000f82:	b08a      	sub	sp, #40	; 0x28
 8000f84:	af00      	add	r7, sp, #0
  /* USER CODE END 1 */

  /* MCU Configuration--------------------------------------------------------*/

  /* Reset of all peripherals, Initializes the Flash interface and the Systick. */
  HAL_Init();
 8000f86:	f000 fdd7 	bl	8001b38 <HAL_Init>
  /* USER CODE BEGIN Init */

  /* USER CODE END Init */

  /* Configure the system clock */
  SystemClock_Config();
 8000f8a:	f000 f9a9 	bl	80012e0 <SystemClock_Config>
  /* USER CODE BEGIN SysInit */

  /* USER CODE END SysInit */

  /* Initialize all configured peripherals */
  MX_GPIO_Init();
 8000f8e:	f000 fb01 	bl	8001594 <MX_GPIO_Init>
  MX_DMA_Init();
 8000f92:	f000 fadf 	bl	8001554 <MX_DMA_Init>
  MX_USART2_UART_Init();
 8000f96:	f000 fab3 	bl	8001500 <MX_USART2_UART_Init>
  MX_ADC1_Init();
 8000f9a:	f000 fa13 	bl	80013c4 <MX_ADC1_Init>
  MX_TIM2_Init();
 8000f9e:	f000 fa63 	bl	8001468 <MX_TIM2_Init>
  /* USER CODE BEGIN 2 */
  HAL_TIM_Base_Start(&htim2);
 8000fa2:	48ad      	ldr	r0, [pc, #692]	; (8001258 <main+0x2d8>)
 8000fa4:	f002 fbf7 	bl	8003796 <HAL_TIM_Base_Start>
  delay_us(500);
 8000fa8:	f44f 70fa 	mov.w	r0, #500	; 0x1f4
 8000fac:	f000 fb64 	bl	8001678 <delay_us>
  HAL_GPIO_WritePin(GPIOA, GPIO_PIN_10, GPIO_PIN_RESET);
 8000fb0:	2200      	movs	r2, #0
 8000fb2:	f44f 6180 	mov.w	r1, #1024	; 0x400
 8000fb6:	48a9      	ldr	r0, [pc, #676]	; (800125c <main+0x2dc>)
 8000fb8:	f001 fe32 	bl	8002c20 <HAL_GPIO_WritePin>
  delay_us(LASER_DELAY);
 8000fbc:	4ba8      	ldr	r3, [pc, #672]	; (8001260 <main+0x2e0>)
 8000fbe:	681b      	ldr	r3, [r3, #0]
 8000fc0:	4618      	mov	r0, r3
 8000fc2:	f000 fb59 	bl	8001678 <delay_us>
  HAL_GPIO_WritePin(GPIOA, LD2_Pin, GPIO_PIN_SET);
 8000fc6:	2201      	movs	r2, #1
 8000fc8:	2120      	movs	r1, #32
 8000fca:	48a4      	ldr	r0, [pc, #656]	; (800125c <main+0x2dc>)
 8000fcc:	f001 fe28 	bl	8002c20 <HAL_GPIO_WritePin>
  //HAL_ADC_Start_DMA(&hadc1, (uint32_t*)adc_buf, ADC_BUF_LEN);
  state = 1;
 8000fd0:	4ba4      	ldr	r3, [pc, #656]	; (8001264 <main+0x2e4>)
 8000fd2:	2201      	movs	r2, #1
 8000fd4:	601a      	str	r2, [r3, #0]

  /* Infinite loop */
  /* USER CODE BEGIN WHILE */
  while (1)
  {
	if (state == 1) {
 8000fd6:	4ba3      	ldr	r3, [pc, #652]	; (8001264 <main+0x2e4>)
 8000fd8:	681b      	ldr	r3, [r3, #0]
 8000fda:	2b01      	cmp	r3, #1
 8000fdc:	d162      	bne.n	80010a4 <main+0x124>
		HAL_GPIO_WritePin(GPIOA, GPIO_PIN_10, GPIO_PIN_SET);
 8000fde:	2201      	movs	r2, #1
 8000fe0:	f44f 6180 	mov.w	r1, #1024	; 0x400
 8000fe4:	489d      	ldr	r0, [pc, #628]	; (800125c <main+0x2dc>)
 8000fe6:	f001 fe1b 	bl	8002c20 <HAL_GPIO_WritePin>
		HAL_GPIO_WritePin(GPIOA, LD2_Pin, GPIO_PIN_RESET);
 8000fea:	2200      	movs	r2, #0
 8000fec:	2120      	movs	r1, #32
 8000fee:	489b      	ldr	r0, [pc, #620]	; (800125c <main+0x2dc>)
 8000ff0:	f001 fe16 	bl	8002c20 <HAL_GPIO_WritePin>
		delay_us(COOLDOWN);
 8000ff4:	4b9c      	ldr	r3, [pc, #624]	; (8001268 <main+0x2e8>)
 8000ff6:	681b      	ldr	r3, [r3, #0]
 8000ff8:	4618      	mov	r0, r3
 8000ffa:	f000 fb3d 	bl	8001678 <delay_us>
		for (int j = 0; j < ADC_BUF_LEN; j++) {
 8000ffe:	2300      	movs	r3, #0
 8001000:	627b      	str	r3, [r7, #36]	; 0x24
 8001002:	e029      	b.n	8001058 <main+0xd8>
			avgs[j] = (avgs[j] * pass + adc_buf[j]) / (pass + 1);
 8001004:	4a99      	ldr	r2, [pc, #612]	; (800126c <main+0x2ec>)
 8001006:	6a7b      	ldr	r3, [r7, #36]	; 0x24
 8001008:	009b      	lsls	r3, r3, #2
 800100a:	4413      	add	r3, r2
 800100c:	ed93 7a00 	vldr	s14, [r3]
 8001010:	4b97      	ldr	r3, [pc, #604]	; (8001270 <main+0x2f0>)
 8001012:	681b      	ldr	r3, [r3, #0]
 8001014:	ee07 3a90 	vmov	s15, r3
 8001018:	eef8 7ae7 	vcvt.f32.s32	s15, s15
 800101c:	ee27 7a27 	vmul.f32	s14, s14, s15
 8001020:	4a94      	ldr	r2, [pc, #592]	; (8001274 <main+0x2f4>)
 8001022:	6a7b      	ldr	r3, [r7, #36]	; 0x24
 8001024:	f832 3013 	ldrh.w	r3, [r2, r3, lsl #1]
 8001028:	ee07 3a90 	vmov	s15, r3
 800102c:	eef8 7ae7 	vcvt.f32.s32	s15, s15
 8001030:	ee77 6a27 	vadd.f32	s13, s14, s15
 8001034:	4b8e      	ldr	r3, [pc, #568]	; (8001270 <main+0x2f0>)
 8001036:	681b      	ldr	r3, [r3, #0]
 8001038:	3301      	adds	r3, #1
 800103a:	ee07 3a90 	vmov	s15, r3
 800103e:	eeb8 7ae7 	vcvt.f32.s32	s14, s15
 8001042:	eec6 7a87 	vdiv.f32	s15, s13, s14
 8001046:	4a89      	ldr	r2, [pc, #548]	; (800126c <main+0x2ec>)
 8001048:	6a7b      	ldr	r3, [r7, #36]	; 0x24
 800104a:	009b      	lsls	r3, r3, #2
 800104c:	4413      	add	r3, r2
 800104e:	edc3 7a00 	vstr	s15, [r3]
		for (int j = 0; j < ADC_BUF_LEN; j++) {
 8001052:	6a7b      	ldr	r3, [r7, #36]	; 0x24
 8001054:	3301      	adds	r3, #1
 8001056:	627b      	str	r3, [r7, #36]	; 0x24
 8001058:	6a7b      	ldr	r3, [r7, #36]	; 0x24
 800105a:	2b00      	cmp	r3, #0
 800105c:	ddd2      	ble.n	8001004 <main+0x84>
		}
		pass += 1;
 800105e:	4b84      	ldr	r3, [pc, #528]	; (8001270 <main+0x2f0>)
 8001060:	681b      	ldr	r3, [r3, #0]
 8001062:	3301      	adds	r3, #1
 8001064:	4a82      	ldr	r2, [pc, #520]	; (8001270 <main+0x2f0>)
 8001066:	6013      	str	r3, [r2, #0]
		if (pass == NUM_PASSES) {
 8001068:	4b81      	ldr	r3, [pc, #516]	; (8001270 <main+0x2f0>)
 800106a:	681b      	ldr	r3, [r3, #0]
 800106c:	2b01      	cmp	r3, #1
 800106e:	d103      	bne.n	8001078 <main+0xf8>
			state = 2;
 8001070:	4b7c      	ldr	r3, [pc, #496]	; (8001264 <main+0x2e4>)
 8001072:	2202      	movs	r2, #2
 8001074:	601a      	str	r2, [r3, #0]
 8001076:	e015      	b.n	80010a4 <main+0x124>
		} else {
			state = 0;
 8001078:	4b7a      	ldr	r3, [pc, #488]	; (8001264 <main+0x2e4>)
 800107a:	2200      	movs	r2, #0
 800107c:	601a      	str	r2, [r3, #0]
			HAL_GPIO_WritePin(GPIOA, GPIO_PIN_10, GPIO_PIN_RESET);
 800107e:	2200      	movs	r2, #0
 8001080:	f44f 6180 	mov.w	r1, #1024	; 0x400
 8001084:	4875      	ldr	r0, [pc, #468]	; (800125c <main+0x2dc>)
 8001086:	f001 fdcb 	bl	8002c20 <HAL_GPIO_WritePin>
			delay_us(LASER_DELAY);
 800108a:	4b75      	ldr	r3, [pc, #468]	; (8001260 <main+0x2e0>)
 800108c:	681b      	ldr	r3, [r3, #0]
 800108e:	4618      	mov	r0, r3
 8001090:	f000 faf2 	bl	8001678 <delay_us>
			HAL_GPIO_WritePin(GPIOA, LD2_Pin, GPIO_PIN_SET);
 8001094:	2201      	movs	r2, #1
 8001096:	2120      	movs	r1, #32
 8001098:	4870      	ldr	r0, [pc, #448]	; (800125c <main+0x2dc>)
 800109a:	f001 fdc1 	bl	8002c20 <HAL_GPIO_WritePin>
			//HAL_ADC_Start_DMA(&hadc1, (uint32_t*)adc_buf, ADC_BUF_LEN);
			state = 1;
 800109e:	4b71      	ldr	r3, [pc, #452]	; (8001264 <main+0x2e4>)
 80010a0:	2201      	movs	r2, #1
 80010a2:	601a      	str	r2, [r3, #0]
		}
	}
	if (state == 2) {
 80010a4:	4b6f      	ldr	r3, [pc, #444]	; (8001264 <main+0x2e4>)
 80010a6:	681b      	ldr	r3, [r3, #0]
 80010a8:	2b02      	cmp	r3, #2
 80010aa:	d167      	bne.n	800117c <main+0x1fc>
			while(1) {

			}
		} else {
			//HAL_GPIO_TogglePin(GPIOA, LD2_Pin);
			float average = 0;
 80010ac:	f04f 0300 	mov.w	r3, #0
 80010b0:	613b      	str	r3, [r7, #16]
			int total = 0;
 80010b2:	2300      	movs	r3, #0
 80010b4:	623b      	str	r3, [r7, #32]
			for (int j = 0; j < ADC_BUF_LEN; j++) {
 80010b6:	2300      	movs	r3, #0
 80010b8:	61fb      	str	r3, [r7, #28]
 80010ba:	e014      	b.n	80010e6 <main+0x166>
				total += avgs[j];
 80010bc:	6a3b      	ldr	r3, [r7, #32]
 80010be:	ee07 3a90 	vmov	s15, r3
 80010c2:	eeb8 7ae7 	vcvt.f32.s32	s14, s15
 80010c6:	4a69      	ldr	r2, [pc, #420]	; (800126c <main+0x2ec>)
 80010c8:	69fb      	ldr	r3, [r7, #28]
 80010ca:	009b      	lsls	r3, r3, #2
 80010cc:	4413      	add	r3, r2
 80010ce:	edd3 7a00 	vldr	s15, [r3]
 80010d2:	ee77 7a27 	vadd.f32	s15, s14, s15
 80010d6:	eefd 7ae7 	vcvt.s32.f32	s15, s15
 80010da:	ee17 3a90 	vmov	r3, s15
 80010de:	623b      	str	r3, [r7, #32]
			for (int j = 0; j < ADC_BUF_LEN; j++) {
 80010e0:	69fb      	ldr	r3, [r7, #28]
 80010e2:	3301      	adds	r3, #1
 80010e4:	61fb      	str	r3, [r7, #28]
 80010e6:	69fb      	ldr	r3, [r7, #28]
 80010e8:	2b00      	cmp	r3, #0
 80010ea:	dde7      	ble.n	80010bc <main+0x13c>
			}
			average = 3.3 * (total / ADC_BUF_LEN) / 4096;
 80010ec:	6a38      	ldr	r0, [r7, #32]
 80010ee:	f7ff fa39 	bl	8000564 <__aeabi_i2d>
 80010f2:	a357      	add	r3, pc, #348	; (adr r3, 8001250 <main+0x2d0>)
 80010f4:	e9d3 2300 	ldrd	r2, r3, [r3]
 80010f8:	f7ff fa9e 	bl	8000638 <__aeabi_dmul>
 80010fc:	4602      	mov	r2, r0
 80010fe:	460b      	mov	r3, r1
 8001100:	4610      	mov	r0, r2
 8001102:	4619      	mov	r1, r3
 8001104:	f04f 0200 	mov.w	r2, #0
 8001108:	4b5b      	ldr	r3, [pc, #364]	; (8001278 <main+0x2f8>)
 800110a:	f7ff fbbf 	bl	800088c <__aeabi_ddiv>
 800110e:	4602      	mov	r2, r0
 8001110:	460b      	mov	r3, r1
 8001112:	4610      	mov	r0, r2
 8001114:	4619      	mov	r1, r3
 8001116:	f7ff fd67 	bl	8000be8 <__aeabi_d2f>
 800111a:	4603      	mov	r3, r0
 800111c:	613b      	str	r3, [r7, #16]
			freqs[freq] = average;
 800111e:	4b57      	ldr	r3, [pc, #348]	; (800127c <main+0x2fc>)
 8001120:	681b      	ldr	r3, [r3, #0]
 8001122:	4a57      	ldr	r2, [pc, #348]	; (8001280 <main+0x300>)
 8001124:	009b      	lsls	r3, r3, #2
 8001126:	4413      	add	r3, r2
 8001128:	693a      	ldr	r2, [r7, #16]
 800112a:	601a      	str	r2, [r3, #0]
			freq += 1;
 800112c:	4b53      	ldr	r3, [pc, #332]	; (800127c <main+0x2fc>)
 800112e:	681b      	ldr	r3, [r3, #0]
 8001130:	3301      	adds	r3, #1
 8001132:	4a52      	ldr	r2, [pc, #328]	; (800127c <main+0x2fc>)
 8001134:	6013      	str	r3, [r2, #0]
			if (freq == NUM_FREQS) {
 8001136:	4b51      	ldr	r3, [pc, #324]	; (800127c <main+0x2fc>)
 8001138:	681b      	ldr	r3, [r3, #0]
 800113a:	f242 7210 	movw	r2, #10000	; 0x2710
 800113e:	4293      	cmp	r3, r2
 8001140:	d103      	bne.n	800114a <main+0x1ca>
				state = 3;
 8001142:	4b48      	ldr	r3, [pc, #288]	; (8001264 <main+0x2e4>)
 8001144:	2203      	movs	r2, #3
 8001146:	601a      	str	r2, [r3, #0]
 8001148:	e018      	b.n	800117c <main+0x1fc>
			} else {
				pass = 0;
 800114a:	4b49      	ldr	r3, [pc, #292]	; (8001270 <main+0x2f0>)
 800114c:	2200      	movs	r2, #0
 800114e:	601a      	str	r2, [r3, #0]
				state = 0;
 8001150:	4b44      	ldr	r3, [pc, #272]	; (8001264 <main+0x2e4>)
 8001152:	2200      	movs	r2, #0
 8001154:	601a      	str	r2, [r3, #0]
				if (freq % mod == 0) {
					HAL_GPIO_WritePin(GPIOA, GPIO_PIN_10, GPIO_PIN_RESET);
 8001156:	2200      	movs	r2, #0
 8001158:	f44f 6180 	mov.w	r1, #1024	; 0x400
 800115c:	483f      	ldr	r0, [pc, #252]	; (800125c <main+0x2dc>)
 800115e:	f001 fd5f 	bl	8002c20 <HAL_GPIO_WritePin>
				}else {
					HAL_GPIO_WritePin(GPIOA, GPIO_PIN_10, GPIO_PIN_SET);
				}
				delay_us(LASER_DELAY);
 8001162:	4b3f      	ldr	r3, [pc, #252]	; (8001260 <main+0x2e0>)
 8001164:	681b      	ldr	r3, [r3, #0]
 8001166:	4618      	mov	r0, r3
 8001168:	f000 fa86 	bl	8001678 <delay_us>
				HAL_GPIO_WritePin(GPIOA, LD2_Pin, GPIO_PIN_SET);
 800116c:	2201      	movs	r2, #1
 800116e:	2120      	movs	r1, #32
 8001170:	483a      	ldr	r0, [pc, #232]	; (800125c <main+0x2dc>)
 8001172:	f001 fd55 	bl	8002c20 <HAL_GPIO_WritePin>
				//HAL_ADC_Start_DMA(&hadc1, (uint32_t*)adc_buf, ADC_BUF_LEN);
				state = 1;
 8001176:	4b3b      	ldr	r3, [pc, #236]	; (8001264 <main+0x2e4>)
 8001178:	2201      	movs	r2, #1
 800117a:	601a      	str	r2, [r3, #0]
			}
		}

	}
	if (state == 3) {
 800117c:	4b39      	ldr	r3, [pc, #228]	; (8001264 <main+0x2e4>)
 800117e:	681b      	ldr	r3, [r3, #0]
 8001180:	2b03      	cmp	r3, #3
 8001182:	d15a      	bne.n	800123a <main+0x2ba>
		for (int j = 0; j < NUM_FREQS; j++) {
 8001184:	2300      	movs	r3, #0
 8001186:	61bb      	str	r3, [r7, #24]
 8001188:	e027      	b.n	80011da <main+0x25a>
			avg_freqs[j] = (avg_freqs[j] * num_freq + freqs[j]) / (num_freq + 1);
 800118a:	4a3e      	ldr	r2, [pc, #248]	; (8001284 <main+0x304>)
 800118c:	69bb      	ldr	r3, [r7, #24]
 800118e:	009b      	lsls	r3, r3, #2
 8001190:	4413      	add	r3, r2
 8001192:	ed93 7a00 	vldr	s14, [r3]
 8001196:	4b3c      	ldr	r3, [pc, #240]	; (8001288 <main+0x308>)
 8001198:	681b      	ldr	r3, [r3, #0]
 800119a:	ee07 3a90 	vmov	s15, r3
 800119e:	eef8 7ae7 	vcvt.f32.s32	s15, s15
 80011a2:	ee27 7a27 	vmul.f32	s14, s14, s15
 80011a6:	4a36      	ldr	r2, [pc, #216]	; (8001280 <main+0x300>)
 80011a8:	69bb      	ldr	r3, [r7, #24]
 80011aa:	009b      	lsls	r3, r3, #2
 80011ac:	4413      	add	r3, r2
 80011ae:	edd3 7a00 	vldr	s15, [r3]
 80011b2:	ee77 6a27 	vadd.f32	s13, s14, s15
 80011b6:	4b34      	ldr	r3, [pc, #208]	; (8001288 <main+0x308>)
 80011b8:	681b      	ldr	r3, [r3, #0]
 80011ba:	3301      	adds	r3, #1
 80011bc:	ee07 3a90 	vmov	s15, r3
 80011c0:	eeb8 7ae7 	vcvt.f32.s32	s14, s15
 80011c4:	eec6 7a87 	vdiv.f32	s15, s13, s14
 80011c8:	4a2e      	ldr	r2, [pc, #184]	; (8001284 <main+0x304>)
 80011ca:	69bb      	ldr	r3, [r7, #24]
 80011cc:	009b      	lsls	r3, r3, #2
 80011ce:	4413      	add	r3, r2
 80011d0:	edc3 7a00 	vstr	s15, [r3]
		for (int j = 0; j < NUM_FREQS; j++) {
 80011d4:	69bb      	ldr	r3, [r7, #24]
 80011d6:	3301      	adds	r3, #1
 80011d8:	61bb      	str	r3, [r7, #24]
 80011da:	69bb      	ldr	r3, [r7, #24]
 80011dc:	f242 720f 	movw	r2, #9999	; 0x270f
 80011e0:	4293      	cmp	r3, r2
 80011e2:	ddd2      	ble.n	800118a <main+0x20a>
		}
		num_freq += 1;
 80011e4:	4b28      	ldr	r3, [pc, #160]	; (8001288 <main+0x308>)
 80011e6:	681b      	ldr	r3, [r3, #0]
 80011e8:	3301      	adds	r3, #1
 80011ea:	4a27      	ldr	r2, [pc, #156]	; (8001288 <main+0x308>)
 80011ec:	6013      	str	r3, [r2, #0]
		if (num_freq == FREQ_PASS) {
 80011ee:	4b26      	ldr	r3, [pc, #152]	; (8001288 <main+0x308>)
 80011f0:	681b      	ldr	r3, [r3, #0]
 80011f2:	f242 7210 	movw	r2, #10000	; 0x2710
 80011f6:	4293      	cmp	r3, r2
 80011f8:	d103      	bne.n	8001202 <main+0x282>
			state = 4;
 80011fa:	4b1a      	ldr	r3, [pc, #104]	; (8001264 <main+0x2e4>)
 80011fc:	2204      	movs	r2, #4
 80011fe:	601a      	str	r2, [r3, #0]
 8001200:	e01b      	b.n	800123a <main+0x2ba>
		}else {
			pass = 0;
 8001202:	4b1b      	ldr	r3, [pc, #108]	; (8001270 <main+0x2f0>)
 8001204:	2200      	movs	r2, #0
 8001206:	601a      	str	r2, [r3, #0]
			state = 0;
 8001208:	4b16      	ldr	r3, [pc, #88]	; (8001264 <main+0x2e4>)
 800120a:	2200      	movs	r2, #0
 800120c:	601a      	str	r2, [r3, #0]
			freq = 0;
 800120e:	4b1b      	ldr	r3, [pc, #108]	; (800127c <main+0x2fc>)
 8001210:	2200      	movs	r2, #0
 8001212:	601a      	str	r2, [r3, #0]
			HAL_GPIO_WritePin(GPIOA, GPIO_PIN_10, GPIO_PIN_RESET);
 8001214:	2200      	movs	r2, #0
 8001216:	f44f 6180 	mov.w	r1, #1024	; 0x400
 800121a:	4810      	ldr	r0, [pc, #64]	; (800125c <main+0x2dc>)
 800121c:	f001 fd00 	bl	8002c20 <HAL_GPIO_WritePin>
			delay_us(LASER_DELAY);
 8001220:	4b0f      	ldr	r3, [pc, #60]	; (8001260 <main+0x2e0>)
 8001222:	681b      	ldr	r3, [r3, #0]
 8001224:	4618      	mov	r0, r3
 8001226:	f000 fa27 	bl	8001678 <delay_us>
			HAL_GPIO_WritePin(GPIOA, LD2_Pin, GPIO_PIN_SET);
 800122a:	2201      	movs	r2, #1
 800122c:	2120      	movs	r1, #32
 800122e:	480b      	ldr	r0, [pc, #44]	; (800125c <main+0x2dc>)
 8001230:	f001 fcf6 	bl	8002c20 <HAL_GPIO_WritePin>
			//HAL_ADC_Start_DMA(&hadc1, (uint32_t*)adc_buf, ADC_BUF_LEN);
			state = 1;
 8001234:	4b0b      	ldr	r3, [pc, #44]	; (8001264 <main+0x2e4>)
 8001236:	2201      	movs	r2, #1
 8001238:	601a      	str	r2, [r3, #0]
		}
	}
	if (state == 4) {
 800123a:	4b0a      	ldr	r3, [pc, #40]	; (8001264 <main+0x2e4>)
 800123c:	681b      	ldr	r3, [r3, #0]
 800123e:	2b04      	cmp	r3, #4
 8001240:	f47f aec9 	bne.w	8000fd6 <main+0x56>
		for (int j = 0; j < NUM_FREQS; j++) {
 8001244:	2300      	movs	r3, #0
 8001246:	617b      	str	r3, [r7, #20]
 8001248:	e03d      	b.n	80012c6 <main+0x346>
 800124a:	bf00      	nop
 800124c:	f3af 8000 	nop.w
 8001250:	66666666 	.word	0x66666666
 8001254:	400a6666 	.word	0x400a6666
 8001258:	20009f0c 	.word	0x20009f0c
 800125c:	40020000 	.word	0x40020000
 8001260:	20000004 	.word	0x20000004
 8001264:	20000204 	.word	0x20000204
 8001268:	20000000 	.word	0x20000000
 800126c:	2000021c 	.word	0x2000021c
 8001270:	20000208 	.word	0x20000208
 8001274:	20009f08 	.word	0x20009f08
 8001278:	40b00000 	.word	0x40b00000
 800127c:	20000200 	.word	0x20000200
 8001280:	20009f4c 	.word	0x20009f4c
 8001284:	20000268 	.word	0x20000268
 8001288:	2000020c 	.word	0x2000020c
			sprintf(msg, "%f\n", avg_freqs[j]);
 800128c:	4a11      	ldr	r2, [pc, #68]	; (80012d4 <main+0x354>)
 800128e:	697b      	ldr	r3, [r7, #20]
 8001290:	009b      	lsls	r3, r3, #2
 8001292:	4413      	add	r3, r2
 8001294:	681b      	ldr	r3, [r3, #0]
 8001296:	4618      	mov	r0, r3
 8001298:	f7ff f976 	bl	8000588 <__aeabi_f2d>
 800129c:	4602      	mov	r2, r0
 800129e:	460b      	mov	r3, r1
 80012a0:	4638      	mov	r0, r7
 80012a2:	490d      	ldr	r1, [pc, #52]	; (80012d8 <main+0x358>)
 80012a4:	f003 fe7e 	bl	8004fa4 <siprintf>
			HAL_UART_Transmit(&huart2, (uint8_t*)msg, strlen(msg), HAL_MAX_DELAY);
 80012a8:	463b      	mov	r3, r7
 80012aa:	4618      	mov	r0, r3
 80012ac:	f7fe ffb0 	bl	8000210 <strlen>
 80012b0:	4603      	mov	r3, r0
 80012b2:	b29a      	uxth	r2, r3
 80012b4:	4639      	mov	r1, r7
 80012b6:	f04f 33ff 	mov.w	r3, #4294967295
 80012ba:	4808      	ldr	r0, [pc, #32]	; (80012dc <main+0x35c>)
 80012bc:	f002 fd57 	bl	8003d6e <HAL_UART_Transmit>
		for (int j = 0; j < NUM_FREQS; j++) {
 80012c0:	697b      	ldr	r3, [r7, #20]
 80012c2:	3301      	adds	r3, #1
 80012c4:	617b      	str	r3, [r7, #20]
 80012c6:	697b      	ldr	r3, [r7, #20]
 80012c8:	f242 720f 	movw	r2, #9999	; 0x270f
 80012cc:	4293      	cmp	r3, r2
 80012ce:	dddd      	ble.n	800128c <main+0x30c>
		}
		while (1) {
 80012d0:	e7fe      	b.n	80012d0 <main+0x350>
 80012d2:	bf00      	nop
 80012d4:	20000268 	.word	0x20000268
 80012d8:	08007418 	.word	0x08007418
 80012dc:	20013b8c 	.word	0x20013b8c

080012e0 <SystemClock_Config>:
/**
  * @brief System Clock Configuration
  * @retval None
  */
void SystemClock_Config(void)
{
 80012e0:	b580      	push	{r7, lr}
 80012e2:	b094      	sub	sp, #80	; 0x50
 80012e4:	af00      	add	r7, sp, #0
  RCC_OscInitTypeDef RCC_OscInitStruct = {0};
 80012e6:	f107 031c 	add.w	r3, r7, #28
 80012ea:	2234      	movs	r2, #52	; 0x34
 80012ec:	2100      	movs	r1, #0
 80012ee:	4618      	mov	r0, r3
 80012f0:	f003 f9e6 	bl	80046c0 <memset>
  RCC_ClkInitTypeDef RCC_ClkInitStruct = {0};
 80012f4:	f107 0308 	add.w	r3, r7, #8
 80012f8:	2200      	movs	r2, #0
 80012fa:	601a      	str	r2, [r3, #0]
 80012fc:	605a      	str	r2, [r3, #4]
 80012fe:	609a      	str	r2, [r3, #8]
 8001300:	60da      	str	r2, [r3, #12]
 8001302:	611a      	str	r2, [r3, #16]

  /** Configure the main internal regulator output voltage
  */
  __HAL_RCC_PWR_CLK_ENABLE();
 8001304:	2300      	movs	r3, #0
 8001306:	607b      	str	r3, [r7, #4]
 8001308:	4b2c      	ldr	r3, [pc, #176]	; (80013bc <SystemClock_Config+0xdc>)
 800130a:	6c1b      	ldr	r3, [r3, #64]	; 0x40
 800130c:	4a2b      	ldr	r2, [pc, #172]	; (80013bc <SystemClock_Config+0xdc>)
 800130e:	f043 5380 	orr.w	r3, r3, #268435456	; 0x10000000
 8001312:	6413      	str	r3, [r2, #64]	; 0x40
 8001314:	4b29      	ldr	r3, [pc, #164]	; (80013bc <SystemClock_Config+0xdc>)
 8001316:	6c1b      	ldr	r3, [r3, #64]	; 0x40
 8001318:	f003 5380 	and.w	r3, r3, #268435456	; 0x10000000
 800131c:	607b      	str	r3, [r7, #4]
 800131e:	687b      	ldr	r3, [r7, #4]
  __HAL_PWR_VOLTAGESCALING_CONFIG(PWR_REGULATOR_VOLTAGE_SCALE1);
 8001320:	2300      	movs	r3, #0
 8001322:	603b      	str	r3, [r7, #0]
 8001324:	4b26      	ldr	r3, [pc, #152]	; (80013c0 <SystemClock_Config+0xe0>)
 8001326:	681b      	ldr	r3, [r3, #0]
 8001328:	4a25      	ldr	r2, [pc, #148]	; (80013c0 <SystemClock_Config+0xe0>)
 800132a:	f443 4340 	orr.w	r3, r3, #49152	; 0xc000
 800132e:	6013      	str	r3, [r2, #0]
 8001330:	4b23      	ldr	r3, [pc, #140]	; (80013c0 <SystemClock_Config+0xe0>)
 8001332:	681b      	ldr	r3, [r3, #0]
 8001334:	f403 4340 	and.w	r3, r3, #49152	; 0xc000
 8001338:	603b      	str	r3, [r7, #0]
 800133a:	683b      	ldr	r3, [r7, #0]
  /** Initializes the RCC Oscillators according to the specified parameters
  * in the RCC_OscInitTypeDef structure.
  */
  RCC_OscInitStruct.OscillatorType = RCC_OSCILLATORTYPE_HSI;
 800133c:	2302      	movs	r3, #2
 800133e:	61fb      	str	r3, [r7, #28]
  RCC_OscInitStruct.HSIState = RCC_HSI_ON;
 8001340:	2301      	movs	r3, #1
 8001342:	62bb      	str	r3, [r7, #40]	; 0x28
  RCC_OscInitStruct.HSICalibrationValue = RCC_HSICALIBRATION_DEFAULT;
 8001344:	2310      	movs	r3, #16
 8001346:	62fb      	str	r3, [r7, #44]	; 0x2c
  RCC_OscInitStruct.PLL.PLLState = RCC_PLL_ON;
 8001348:	2302      	movs	r3, #2
 800134a:	637b      	str	r3, [r7, #52]	; 0x34
  RCC_OscInitStruct.PLL.PLLSource = RCC_PLLSOURCE_HSI;
 800134c:	2300      	movs	r3, #0
 800134e:	63bb      	str	r3, [r7, #56]	; 0x38
  RCC_OscInitStruct.PLL.PLLM = 8;
 8001350:	2308      	movs	r3, #8
 8001352:	63fb      	str	r3, [r7, #60]	; 0x3c
  RCC_OscInitStruct.PLL.PLLN = 180;
 8001354:	23b4      	movs	r3, #180	; 0xb4
 8001356:	643b      	str	r3, [r7, #64]	; 0x40
  RCC_OscInitStruct.PLL.PLLP = RCC_PLLP_DIV2;
 8001358:	2302      	movs	r3, #2
 800135a:	647b      	str	r3, [r7, #68]	; 0x44
  RCC_OscInitStruct.PLL.PLLQ = 2;
 800135c:	2302      	movs	r3, #2
 800135e:	64bb      	str	r3, [r7, #72]	; 0x48
  RCC_OscInitStruct.PLL.PLLR = 2;
 8001360:	2302      	movs	r3, #2
 8001362:	64fb      	str	r3, [r7, #76]	; 0x4c
  if (HAL_RCC_OscConfig(&RCC_OscInitStruct) != HAL_OK)
 8001364:	f107 031c 	add.w	r3, r7, #28
 8001368:	4618      	mov	r0, r3
 800136a:	f001 ff8f 	bl	800328c <HAL_RCC_OscConfig>
 800136e:	4603      	mov	r3, r0
 8001370:	2b00      	cmp	r3, #0
 8001372:	d001      	beq.n	8001378 <SystemClock_Config+0x98>
  {
    Error_Handler();
 8001374:	f000 f998 	bl	80016a8 <Error_Handler>
  }
  /** Activate the Over-Drive mode
  */
  if (HAL_PWREx_EnableOverDrive() != HAL_OK)
 8001378:	f001 fc6c 	bl	8002c54 <HAL_PWREx_EnableOverDrive>
 800137c:	4603      	mov	r3, r0
 800137e:	2b00      	cmp	r3, #0
 8001380:	d001      	beq.n	8001386 <SystemClock_Config+0xa6>
  {
    Error_Handler();
 8001382:	f000 f991 	bl	80016a8 <Error_Handler>
  }
  /** Initializes the CPU, AHB and APB buses clocks
  */
  RCC_ClkInitStruct.ClockType = RCC_CLOCKTYPE_HCLK|RCC_CLOCKTYPE_SYSCLK
 8001386:	230f      	movs	r3, #15
 8001388:	60bb      	str	r3, [r7, #8]
                              |RCC_CLOCKTYPE_PCLK1|RCC_CLOCKTYPE_PCLK2;
  RCC_ClkInitStruct.SYSCLKSource = RCC_SYSCLKSOURCE_PLLCLK;
 800138a:	2302      	movs	r3, #2
 800138c:	60fb      	str	r3, [r7, #12]
  RCC_ClkInitStruct.AHBCLKDivider = RCC_SYSCLK_DIV1;
 800138e:	2300      	movs	r3, #0
 8001390:	613b      	str	r3, [r7, #16]
  RCC_ClkInitStruct.APB1CLKDivider = RCC_HCLK_DIV4;
 8001392:	f44f 53a0 	mov.w	r3, #5120	; 0x1400
 8001396:	617b      	str	r3, [r7, #20]
  RCC_ClkInitStruct.APB2CLKDivider = RCC_HCLK_DIV2;
 8001398:	f44f 5380 	mov.w	r3, #4096	; 0x1000
 800139c:	61bb      	str	r3, [r7, #24]

  if (HAL_RCC_ClockConfig(&RCC_ClkInitStruct, FLASH_LATENCY_5) != HAL_OK)
 800139e:	f107 0308 	add.w	r3, r7, #8
 80013a2:	2105      	movs	r1, #5
 80013a4:	4618      	mov	r0, r3
 80013a6:	f001 fca5 	bl	8002cf4 <HAL_RCC_ClockConfig>
 80013aa:	4603      	mov	r3, r0
 80013ac:	2b00      	cmp	r3, #0
 80013ae:	d001      	beq.n	80013b4 <SystemClock_Config+0xd4>
  {
    Error_Handler();
 80013b0:	f000 f97a 	bl	80016a8 <Error_Handler>
  }
}
 80013b4:	bf00      	nop
 80013b6:	3750      	adds	r7, #80	; 0x50
 80013b8:	46bd      	mov	sp, r7
 80013ba:	bd80      	pop	{r7, pc}
 80013bc:	40023800 	.word	0x40023800
 80013c0:	40007000 	.word	0x40007000

080013c4 <MX_ADC1_Init>:
  * @brief ADC1 Initialization Function
  * @param None
  * @retval None
  */
static void MX_ADC1_Init(void)
{
 80013c4:	b580      	push	{r7, lr}
 80013c6:	b084      	sub	sp, #16
 80013c8:	af00      	add	r7, sp, #0

  /* USER CODE BEGIN ADC1_Init 0 */

  /* USER CODE END ADC1_Init 0 */

  ADC_ChannelConfTypeDef sConfig = {0};
 80013ca:	463b      	mov	r3, r7
 80013cc:	2200      	movs	r2, #0
 80013ce:	601a      	str	r2, [r3, #0]
 80013d0:	605a      	str	r2, [r3, #4]
 80013d2:	609a      	str	r2, [r3, #8]
 80013d4:	60da      	str	r2, [r3, #12]
  /* USER CODE BEGIN ADC1_Init 1 */

  /* USER CODE END ADC1_Init 1 */
  /** Configure the global features of the ADC (Clock, Resolution, Data Alignment and number of conversion)
  */
  hadc1.Instance = ADC1;
 80013d6:	4b21      	ldr	r3, [pc, #132]	; (800145c <MX_ADC1_Init+0x98>)
 80013d8:	4a21      	ldr	r2, [pc, #132]	; (8001460 <MX_ADC1_Init+0x9c>)
 80013da:	601a      	str	r2, [r3, #0]
  hadc1.Init.ClockPrescaler = ADC_CLOCK_SYNC_PCLK_DIV4;
 80013dc:	4b1f      	ldr	r3, [pc, #124]	; (800145c <MX_ADC1_Init+0x98>)
 80013de:	f44f 3280 	mov.w	r2, #65536	; 0x10000
 80013e2:	605a      	str	r2, [r3, #4]
  hadc1.Init.Resolution = ADC_RESOLUTION_12B;
 80013e4:	4b1d      	ldr	r3, [pc, #116]	; (800145c <MX_ADC1_Init+0x98>)
 80013e6:	2200      	movs	r2, #0
 80013e8:	609a      	str	r2, [r3, #8]
  hadc1.Init.ScanConvMode = DISABLE;
 80013ea:	4b1c      	ldr	r3, [pc, #112]	; (800145c <MX_ADC1_Init+0x98>)
 80013ec:	2200      	movs	r2, #0
 80013ee:	611a      	str	r2, [r3, #16]
  hadc1.Init.ContinuousConvMode = ENABLE;
 80013f0:	4b1a      	ldr	r3, [pc, #104]	; (800145c <MX_ADC1_Init+0x98>)
 80013f2:	2201      	movs	r2, #1
 80013f4:	761a      	strb	r2, [r3, #24]
  hadc1.Init.DiscontinuousConvMode = DISABLE;
 80013f6:	4b19      	ldr	r3, [pc, #100]	; (800145c <MX_ADC1_Init+0x98>)
 80013f8:	2200      	movs	r2, #0
 80013fa:	f883 2020 	strb.w	r2, [r3, #32]
  hadc1.Init.ExternalTrigConvEdge = ADC_EXTERNALTRIGCONVEDGE_NONE;
 80013fe:	4b17      	ldr	r3, [pc, #92]	; (800145c <MX_ADC1_Init+0x98>)
 8001400:	2200      	movs	r2, #0
 8001402:	62da      	str	r2, [r3, #44]	; 0x2c
  hadc1.Init.ExternalTrigConv = ADC_SOFTWARE_START;
 8001404:	4b15      	ldr	r3, [pc, #84]	; (800145c <MX_ADC1_Init+0x98>)
 8001406:	4a17      	ldr	r2, [pc, #92]	; (8001464 <MX_ADC1_Init+0xa0>)
 8001408:	629a      	str	r2, [r3, #40]	; 0x28
  hadc1.Init.DataAlign = ADC_DATAALIGN_RIGHT;
 800140a:	4b14      	ldr	r3, [pc, #80]	; (800145c <MX_ADC1_Init+0x98>)
 800140c:	2200      	movs	r2, #0
 800140e:	60da      	str	r2, [r3, #12]
  hadc1.Init.NbrOfConversion = 1;
 8001410:	4b12      	ldr	r3, [pc, #72]	; (800145c <MX_ADC1_Init+0x98>)
 8001412:	2201      	movs	r2, #1
 8001414:	61da      	str	r2, [r3, #28]
  hadc1.Init.DMAContinuousRequests = ENABLE;
 8001416:	4b11      	ldr	r3, [pc, #68]	; (800145c <MX_ADC1_Init+0x98>)
 8001418:	2201      	movs	r2, #1
 800141a:	f883 2030 	strb.w	r2, [r3, #48]	; 0x30
  hadc1.Init.EOCSelection = ADC_EOC_SINGLE_CONV;
 800141e:	4b0f      	ldr	r3, [pc, #60]	; (800145c <MX_ADC1_Init+0x98>)
 8001420:	2201      	movs	r2, #1
 8001422:	615a      	str	r2, [r3, #20]
  if (HAL_ADC_Init(&hadc1) != HAL_OK)
 8001424:	480d      	ldr	r0, [pc, #52]	; (800145c <MX_ADC1_Init+0x98>)
 8001426:	f000 fbf9 	bl	8001c1c <HAL_ADC_Init>
 800142a:	4603      	mov	r3, r0
 800142c:	2b00      	cmp	r3, #0
 800142e:	d001      	beq.n	8001434 <MX_ADC1_Init+0x70>
  {
    Error_Handler();
 8001430:	f000 f93a 	bl	80016a8 <Error_Handler>
  }
  /** Configure for the selected ADC regular channel its corresponding rank in the sequencer and its sample time.
  */
  sConfig.Channel = ADC_CHANNEL_1;
 8001434:	2301      	movs	r3, #1
 8001436:	603b      	str	r3, [r7, #0]
  sConfig.Rank = 1;
 8001438:	2301      	movs	r3, #1
 800143a:	607b      	str	r3, [r7, #4]
  sConfig.SamplingTime = ADC_SAMPLETIME_3CYCLES;
 800143c:	2300      	movs	r3, #0
 800143e:	60bb      	str	r3, [r7, #8]
  if (HAL_ADC_ConfigChannel(&hadc1, &sConfig) != HAL_OK)
 8001440:	463b      	mov	r3, r7
 8001442:	4619      	mov	r1, r3
 8001444:	4805      	ldr	r0, [pc, #20]	; (800145c <MX_ADC1_Init+0x98>)
 8001446:	f000 fc2d 	bl	8001ca4 <HAL_ADC_ConfigChannel>
 800144a:	4603      	mov	r3, r0
 800144c:	2b00      	cmp	r3, #0
 800144e:	d001      	beq.n	8001454 <MX_ADC1_Init+0x90>
  {
    Error_Handler();
 8001450:	f000 f92a 	bl	80016a8 <Error_Handler>
  }
  /* USER CODE BEGIN ADC1_Init 2 */

  /* USER CODE END ADC1_Init 2 */

}
 8001454:	bf00      	nop
 8001456:	3710      	adds	r7, #16
 8001458:	46bd      	mov	sp, r7
 800145a:	bd80      	pop	{r7, pc}
 800145c:	20000220 	.word	0x20000220
 8001460:	40012000 	.word	0x40012000
 8001464:	0f000001 	.word	0x0f000001

08001468 <MX_TIM2_Init>:
  * @brief TIM2 Initialization Function
  * @param None
  * @retval None
  */
static void MX_TIM2_Init(void)
{
 8001468:	b580      	push	{r7, lr}
 800146a:	b086      	sub	sp, #24
 800146c:	af00      	add	r7, sp, #0

  /* USER CODE BEGIN TIM2_Init 0 */

  /* USER CODE END TIM2_Init 0 */

  TIM_ClockConfigTypeDef sClockSourceConfig = {0};
 800146e:	f107 0308 	add.w	r3, r7, #8
 8001472:	2200      	movs	r2, #0
 8001474:	601a      	str	r2, [r3, #0]
 8001476:	605a      	str	r2, [r3, #4]
 8001478:	609a      	str	r2, [r3, #8]
 800147a:	60da      	str	r2, [r3, #12]
  TIM_MasterConfigTypeDef sMasterConfig = {0};
 800147c:	463b      	mov	r3, r7
 800147e:	2200      	movs	r2, #0
 8001480:	601a      	str	r2, [r3, #0]
 8001482:	605a      	str	r2, [r3, #4]

  /* USER CODE BEGIN TIM2_Init 1 */

  /* USER CODE END TIM2_Init 1 */
  htim2.Instance = TIM2;
 8001484:	4b1d      	ldr	r3, [pc, #116]	; (80014fc <MX_TIM2_Init+0x94>)
 8001486:	f04f 4280 	mov.w	r2, #1073741824	; 0x40000000
 800148a:	601a      	str	r2, [r3, #0]
  htim2.Init.Prescaler = 90-1;
 800148c:	4b1b      	ldr	r3, [pc, #108]	; (80014fc <MX_TIM2_Init+0x94>)
 800148e:	2259      	movs	r2, #89	; 0x59
 8001490:	605a      	str	r2, [r3, #4]
  htim2.Init.CounterMode = TIM_COUNTERMODE_UP;
 8001492:	4b1a      	ldr	r3, [pc, #104]	; (80014fc <MX_TIM2_Init+0x94>)
 8001494:	2200      	movs	r2, #0
 8001496:	609a      	str	r2, [r3, #8]
  htim2.Init.Period = 4294967295;
 8001498:	4b18      	ldr	r3, [pc, #96]	; (80014fc <MX_TIM2_Init+0x94>)
 800149a:	f04f 32ff 	mov.w	r2, #4294967295
 800149e:	60da      	str	r2, [r3, #12]
  htim2.Init.ClockDivision = TIM_CLOCKDIVISION_DIV1;
 80014a0:	4b16      	ldr	r3, [pc, #88]	; (80014fc <MX_TIM2_Init+0x94>)
 80014a2:	2200      	movs	r2, #0
 80014a4:	611a      	str	r2, [r3, #16]
  htim2.Init.AutoReloadPreload = TIM_AUTORELOAD_PRELOAD_DISABLE;
 80014a6:	4b15      	ldr	r3, [pc, #84]	; (80014fc <MX_TIM2_Init+0x94>)
 80014a8:	2200      	movs	r2, #0
 80014aa:	619a      	str	r2, [r3, #24]
  if (HAL_TIM_Base_Init(&htim2) != HAL_OK)
 80014ac:	4813      	ldr	r0, [pc, #76]	; (80014fc <MX_TIM2_Init+0x94>)
 80014ae:	f002 f947 	bl	8003740 <HAL_TIM_Base_Init>
 80014b2:	4603      	mov	r3, r0
 80014b4:	2b00      	cmp	r3, #0
 80014b6:	d001      	beq.n	80014bc <MX_TIM2_Init+0x54>
  {
    Error_Handler();
 80014b8:	f000 f8f6 	bl	80016a8 <Error_Handler>
  }
  sClockSourceConfig.ClockSource = TIM_CLOCKSOURCE_INTERNAL;
 80014bc:	f44f 5380 	mov.w	r3, #4096	; 0x1000
 80014c0:	60bb      	str	r3, [r7, #8]
  if (HAL_TIM_ConfigClockSource(&htim2, &sClockSourceConfig) != HAL_OK)
 80014c2:	f107 0308 	add.w	r3, r7, #8
 80014c6:	4619      	mov	r1, r3
 80014c8:	480c      	ldr	r0, [pc, #48]	; (80014fc <MX_TIM2_Init+0x94>)
 80014ca:	f002 f988 	bl	80037de <HAL_TIM_ConfigClockSource>
 80014ce:	4603      	mov	r3, r0
 80014d0:	2b00      	cmp	r3, #0
 80014d2:	d001      	beq.n	80014d8 <MX_TIM2_Init+0x70>
  {
    Error_Handler();
 80014d4:	f000 f8e8 	bl	80016a8 <Error_Handler>
  }
  sMasterConfig.MasterOutputTrigger = TIM_TRGO_RESET;
 80014d8:	2300      	movs	r3, #0
 80014da:	603b      	str	r3, [r7, #0]
  sMasterConfig.MasterSlaveMode = TIM_MASTERSLAVEMODE_DISABLE;
 80014dc:	2300      	movs	r3, #0
 80014de:	607b      	str	r3, [r7, #4]
  if (HAL_TIMEx_MasterConfigSynchronization(&htim2, &sMasterConfig) != HAL_OK)
 80014e0:	463b      	mov	r3, r7
 80014e2:	4619      	mov	r1, r3
 80014e4:	4805      	ldr	r0, [pc, #20]	; (80014fc <MX_TIM2_Init+0x94>)
 80014e6:	f002 fb79 	bl	8003bdc <HAL_TIMEx_MasterConfigSynchronization>
 80014ea:	4603      	mov	r3, r0
 80014ec:	2b00      	cmp	r3, #0
 80014ee:	d001      	beq.n	80014f4 <MX_TIM2_Init+0x8c>
  {
    Error_Handler();
 80014f0:	f000 f8da 	bl	80016a8 <Error_Handler>
  }
  /* USER CODE BEGIN TIM2_Init 2 */

  /* USER CODE END TIM2_Init 2 */

}
 80014f4:	bf00      	nop
 80014f6:	3718      	adds	r7, #24
 80014f8:	46bd      	mov	sp, r7
 80014fa:	bd80      	pop	{r7, pc}
 80014fc:	20009f0c 	.word	0x20009f0c

08001500 <MX_USART2_UART_Init>:
  * @brief USART2 Initialization Function
  * @param None
  * @retval None
  */
static void MX_USART2_UART_Init(void)
{
 8001500:	b580      	push	{r7, lr}
 8001502:	af00      	add	r7, sp, #0
  /* USER CODE END USART2_Init 0 */

  /* USER CODE BEGIN USART2_Init 1 */

  /* USER CODE END USART2_Init 1 */
  huart2.Instance = USART2;
 8001504:	4b11      	ldr	r3, [pc, #68]	; (800154c <MX_USART2_UART_Init+0x4c>)
 8001506:	4a12      	ldr	r2, [pc, #72]	; (8001550 <MX_USART2_UART_Init+0x50>)
 8001508:	601a      	str	r2, [r3, #0]
  huart2.Init.BaudRate = 115200;
 800150a:	4b10      	ldr	r3, [pc, #64]	; (800154c <MX_USART2_UART_Init+0x4c>)
 800150c:	f44f 32e1 	mov.w	r2, #115200	; 0x1c200
 8001510:	605a      	str	r2, [r3, #4]
  huart2.Init.WordLength = UART_WORDLENGTH_8B;
 8001512:	4b0e      	ldr	r3, [pc, #56]	; (800154c <MX_USART2_UART_Init+0x4c>)
 8001514:	2200      	movs	r2, #0
 8001516:	609a      	str	r2, [r3, #8]
  huart2.Init.StopBits = UART_STOPBITS_1;
 8001518:	4b0c      	ldr	r3, [pc, #48]	; (800154c <MX_USART2_UART_Init+0x4c>)
 800151a:	2200      	movs	r2, #0
 800151c:	60da      	str	r2, [r3, #12]
  huart2.Init.Parity = UART_PARITY_NONE;
 800151e:	4b0b      	ldr	r3, [pc, #44]	; (800154c <MX_USART2_UART_Init+0x4c>)
 8001520:	2200      	movs	r2, #0
 8001522:	611a      	str	r2, [r3, #16]
  huart2.Init.Mode = UART_MODE_TX_RX;
 8001524:	4b09      	ldr	r3, [pc, #36]	; (800154c <MX_USART2_UART_Init+0x4c>)
 8001526:	220c      	movs	r2, #12
 8001528:	615a      	str	r2, [r3, #20]
  huart2.Init.HwFlowCtl = UART_HWCONTROL_NONE;
 800152a:	4b08      	ldr	r3, [pc, #32]	; (800154c <MX_USART2_UART_Init+0x4c>)
 800152c:	2200      	movs	r2, #0
 800152e:	619a      	str	r2, [r3, #24]
  huart2.Init.OverSampling = UART_OVERSAMPLING_16;
 8001530:	4b06      	ldr	r3, [pc, #24]	; (800154c <MX_USART2_UART_Init+0x4c>)
 8001532:	2200      	movs	r2, #0
 8001534:	61da      	str	r2, [r3, #28]
  if (HAL_UART_Init(&huart2) != HAL_OK)
 8001536:	4805      	ldr	r0, [pc, #20]	; (800154c <MX_USART2_UART_Init+0x4c>)
 8001538:	f002 fbcc 	bl	8003cd4 <HAL_UART_Init>
 800153c:	4603      	mov	r3, r0
 800153e:	2b00      	cmp	r3, #0
 8001540:	d001      	beq.n	8001546 <MX_USART2_UART_Init+0x46>
  {
    Error_Handler();
 8001542:	f000 f8b1 	bl	80016a8 <Error_Handler>
  }
  /* USER CODE BEGIN USART2_Init 2 */

  /* USER CODE END USART2_Init 2 */

}
 8001546:	bf00      	nop
 8001548:	bd80      	pop	{r7, pc}
 800154a:	bf00      	nop
 800154c:	20013b8c 	.word	0x20013b8c
 8001550:	40004400 	.word	0x40004400

08001554 <MX_DMA_Init>:

/**
  * Enable DMA controller clock
  */
static void MX_DMA_Init(void)
{
 8001554:	b580      	push	{r7, lr}
 8001556:	b082      	sub	sp, #8
 8001558:	af00      	add	r7, sp, #0

  /* DMA controller clock enable */
  __HAL_RCC_DMA2_CLK_ENABLE();
 800155a:	2300      	movs	r3, #0
 800155c:	607b      	str	r3, [r7, #4]
 800155e:	4b0c      	ldr	r3, [pc, #48]	; (8001590 <MX_DMA_Init+0x3c>)
 8001560:	6b1b      	ldr	r3, [r3, #48]	; 0x30
 8001562:	4a0b      	ldr	r2, [pc, #44]	; (8001590 <MX_DMA_Init+0x3c>)
 8001564:	f443 0380 	orr.w	r3, r3, #4194304	; 0x400000
 8001568:	6313      	str	r3, [r2, #48]	; 0x30
 800156a:	4b09      	ldr	r3, [pc, #36]	; (8001590 <MX_DMA_Init+0x3c>)
 800156c:	6b1b      	ldr	r3, [r3, #48]	; 0x30
 800156e:	f403 0380 	and.w	r3, r3, #4194304	; 0x400000
 8001572:	607b      	str	r3, [r7, #4]
 8001574:	687b      	ldr	r3, [r7, #4]

  /* DMA interrupt init */
  /* DMA2_Stream0_IRQn interrupt configuration */
  HAL_NVIC_SetPriority(DMA2_Stream0_IRQn, 0, 0);
 8001576:	2200      	movs	r2, #0
 8001578:	2100      	movs	r1, #0
 800157a:	2038      	movs	r0, #56	; 0x38
 800157c:	f000 fe9b 	bl	80022b6 <HAL_NVIC_SetPriority>
  HAL_NVIC_EnableIRQ(DMA2_Stream0_IRQn);
 8001580:	2038      	movs	r0, #56	; 0x38
 8001582:	f000 feb4 	bl	80022ee <HAL_NVIC_EnableIRQ>

}
 8001586:	bf00      	nop
 8001588:	3708      	adds	r7, #8
 800158a:	46bd      	mov	sp, r7
 800158c:	bd80      	pop	{r7, pc}
 800158e:	bf00      	nop
 8001590:	40023800 	.word	0x40023800

08001594 <MX_GPIO_Init>:
  * @brief GPIO Initialization Function
  * @param None
  * @retval None
  */
static void MX_GPIO_Init(void)
{
 8001594:	b580      	push	{r7, lr}
 8001596:	b08a      	sub	sp, #40	; 0x28
 8001598:	af00      	add	r7, sp, #0
  GPIO_InitTypeDef GPIO_InitStruct = {0};
 800159a:	f107 0314 	add.w	r3, r7, #20
 800159e:	2200      	movs	r2, #0
 80015a0:	601a      	str	r2, [r3, #0]
 80015a2:	605a      	str	r2, [r3, #4]
 80015a4:	609a      	str	r2, [r3, #8]
 80015a6:	60da      	str	r2, [r3, #12]
 80015a8:	611a      	str	r2, [r3, #16]

  /* GPIO Ports Clock Enable */
  __HAL_RCC_GPIOC_CLK_ENABLE();
 80015aa:	2300      	movs	r3, #0
 80015ac:	613b      	str	r3, [r7, #16]
 80015ae:	4b2e      	ldr	r3, [pc, #184]	; (8001668 <MX_GPIO_Init+0xd4>)
 80015b0:	6b1b      	ldr	r3, [r3, #48]	; 0x30
 80015b2:	4a2d      	ldr	r2, [pc, #180]	; (8001668 <MX_GPIO_Init+0xd4>)
 80015b4:	f043 0304 	orr.w	r3, r3, #4
 80015b8:	6313      	str	r3, [r2, #48]	; 0x30
 80015ba:	4b2b      	ldr	r3, [pc, #172]	; (8001668 <MX_GPIO_Init+0xd4>)
 80015bc:	6b1b      	ldr	r3, [r3, #48]	; 0x30
 80015be:	f003 0304 	and.w	r3, r3, #4
 80015c2:	613b      	str	r3, [r7, #16]
 80015c4:	693b      	ldr	r3, [r7, #16]
  __HAL_RCC_GPIOH_CLK_ENABLE();
 80015c6:	2300      	movs	r3, #0
 80015c8:	60fb      	str	r3, [r7, #12]
 80015ca:	4b27      	ldr	r3, [pc, #156]	; (8001668 <MX_GPIO_Init+0xd4>)
 80015cc:	6b1b      	ldr	r3, [r3, #48]	; 0x30
 80015ce:	4a26      	ldr	r2, [pc, #152]	; (8001668 <MX_GPIO_Init+0xd4>)
 80015d0:	f043 0380 	orr.w	r3, r3, #128	; 0x80
 80015d4:	6313      	str	r3, [r2, #48]	; 0x30
 80015d6:	4b24      	ldr	r3, [pc, #144]	; (8001668 <MX_GPIO_Init+0xd4>)
 80015d8:	6b1b      	ldr	r3, [r3, #48]	; 0x30
 80015da:	f003 0380 	and.w	r3, r3, #128	; 0x80
 80015de:	60fb      	str	r3, [r7, #12]
 80015e0:	68fb      	ldr	r3, [r7, #12]
  __HAL_RCC_GPIOA_CLK_ENABLE();
 80015e2:	2300      	movs	r3, #0
 80015e4:	60bb      	str	r3, [r7, #8]
 80015e6:	4b20      	ldr	r3, [pc, #128]	; (8001668 <MX_GPIO_Init+0xd4>)
 80015e8:	6b1b      	ldr	r3, [r3, #48]	; 0x30
 80015ea:	4a1f      	ldr	r2, [pc, #124]	; (8001668 <MX_GPIO_Init+0xd4>)
 80015ec:	f043 0301 	orr.w	r3, r3, #1
 80015f0:	6313      	str	r3, [r2, #48]	; 0x30
 80015f2:	4b1d      	ldr	r3, [pc, #116]	; (8001668 <MX_GPIO_Init+0xd4>)
 80015f4:	6b1b      	ldr	r3, [r3, #48]	; 0x30
 80015f6:	f003 0301 	and.w	r3, r3, #1
 80015fa:	60bb      	str	r3, [r7, #8]
 80015fc:	68bb      	ldr	r3, [r7, #8]
  __HAL_RCC_GPIOB_CLK_ENABLE();
 80015fe:	2300      	movs	r3, #0
 8001600:	607b      	str	r3, [r7, #4]
 8001602:	4b19      	ldr	r3, [pc, #100]	; (8001668 <MX_GPIO_Init+0xd4>)
 8001604:	6b1b      	ldr	r3, [r3, #48]	; 0x30
 8001606:	4a18      	ldr	r2, [pc, #96]	; (8001668 <MX_GPIO_Init+0xd4>)
 8001608:	f043 0302 	orr.w	r3, r3, #2
 800160c:	6313      	str	r3, [r2, #48]	; 0x30
 800160e:	4b16      	ldr	r3, [pc, #88]	; (8001668 <MX_GPIO_Init+0xd4>)
 8001610:	6b1b      	ldr	r3, [r3, #48]	; 0x30
 8001612:	f003 0302 	and.w	r3, r3, #2
 8001616:	607b      	str	r3, [r7, #4]
 8001618:	687b      	ldr	r3, [r7, #4]

  /*Configure GPIO pin Output Level */
  HAL_GPIO_WritePin(GPIOA, LD2_Pin|GPIO_PIN_10, GPIO_PIN_RESET);
 800161a:	2200      	movs	r2, #0
 800161c:	f44f 6184 	mov.w	r1, #1056	; 0x420
 8001620:	4812      	ldr	r0, [pc, #72]	; (800166c <MX_GPIO_Init+0xd8>)
 8001622:	f001 fafd 	bl	8002c20 <HAL_GPIO_WritePin>

  /*Configure GPIO pin : B1_Pin */
  GPIO_InitStruct.Pin = B1_Pin;
 8001626:	f44f 5300 	mov.w	r3, #8192	; 0x2000
 800162a:	617b      	str	r3, [r7, #20]
  GPIO_InitStruct.Mode = GPIO_MODE_IT_FALLING;
 800162c:	4b10      	ldr	r3, [pc, #64]	; (8001670 <MX_GPIO_Init+0xdc>)
 800162e:	61bb      	str	r3, [r7, #24]
  GPIO_InitStruct.Pull = GPIO_NOPULL;
 8001630:	2300      	movs	r3, #0
 8001632:	61fb      	str	r3, [r7, #28]
  HAL_GPIO_Init(B1_GPIO_Port, &GPIO_InitStruct);
 8001634:	f107 0314 	add.w	r3, r7, #20
 8001638:	4619      	mov	r1, r3
 800163a:	480e      	ldr	r0, [pc, #56]	; (8001674 <MX_GPIO_Init+0xe0>)
 800163c:	f001 f95c 	bl	80028f8 <HAL_GPIO_Init>

  /*Configure GPIO pins : LD2_Pin PA10 */
  GPIO_InitStruct.Pin = LD2_Pin|GPIO_PIN_10;
 8001640:	f44f 6384 	mov.w	r3, #1056	; 0x420
 8001644:	617b      	str	r3, [r7, #20]
  GPIO_InitStruct.Mode = GPIO_MODE_OUTPUT_PP;
 8001646:	2301      	movs	r3, #1
 8001648:	61bb      	str	r3, [r7, #24]
  GPIO_InitStruct.Pull = GPIO_NOPULL;
 800164a:	2300      	movs	r3, #0
 800164c:	61fb      	str	r3, [r7, #28]
  GPIO_InitStruct.Speed = GPIO_SPEED_FREQ_LOW;
 800164e:	2300      	movs	r3, #0
 8001650:	623b      	str	r3, [r7, #32]
  HAL_GPIO_Init(GPIOA, &GPIO_InitStruct);
 8001652:	f107 0314 	add.w	r3, r7, #20
 8001656:	4619      	mov	r1, r3
 8001658:	4804      	ldr	r0, [pc, #16]	; (800166c <MX_GPIO_Init+0xd8>)
 800165a:	f001 f94d 	bl	80028f8 <HAL_GPIO_Init>

}
 800165e:	bf00      	nop
 8001660:	3728      	adds	r7, #40	; 0x28
 8001662:	46bd      	mov	sp, r7
 8001664:	bd80      	pop	{r7, pc}
 8001666:	bf00      	nop
 8001668:	40023800 	.word	0x40023800
 800166c:	40020000 	.word	0x40020000
 8001670:	10210000 	.word	0x10210000
 8001674:	40020800 	.word	0x40020800

08001678 <delay_us>:
void HAL_ADC_ConvCpltCallback(ADC_HandleTypeDef* hadc) {
	//HAL_GPIO_WritePin(LD2_GPIO_Port, LD2_Pin, GPIO_PIN_RESET);
	state = 1;
}

void delay_us (uint32_t us) {
 8001678:	b480      	push	{r7}
 800167a:	b083      	sub	sp, #12
 800167c:	af00      	add	r7, sp, #0
 800167e:	6078      	str	r0, [r7, #4]
	__HAL_TIM_SET_COUNTER(&htim2, 0);
 8001680:	4b08      	ldr	r3, [pc, #32]	; (80016a4 <delay_us+0x2c>)
 8001682:	681b      	ldr	r3, [r3, #0]
 8001684:	2200      	movs	r2, #0
 8001686:	625a      	str	r2, [r3, #36]	; 0x24
	while (__HAL_TIM_GET_COUNTER(&htim2) < us);
 8001688:	bf00      	nop
 800168a:	4b06      	ldr	r3, [pc, #24]	; (80016a4 <delay_us+0x2c>)
 800168c:	681b      	ldr	r3, [r3, #0]
 800168e:	6a5b      	ldr	r3, [r3, #36]	; 0x24
 8001690:	687a      	ldr	r2, [r7, #4]
 8001692:	429a      	cmp	r2, r3
 8001694:	d8f9      	bhi.n	800168a <delay_us+0x12>
}
 8001696:	bf00      	nop
 8001698:	bf00      	nop
 800169a:	370c      	adds	r7, #12
 800169c:	46bd      	mov	sp, r7
 800169e:	f85d 7b04 	ldr.w	r7, [sp], #4
 80016a2:	4770      	bx	lr
 80016a4:	20009f0c 	.word	0x20009f0c

080016a8 <Error_Handler>:
/**
  * @brief  This function is executed in case of error occurrence.
  * @retval None
  */
void Error_Handler(void)
{
 80016a8:	b480      	push	{r7}
 80016aa:	af00      	add	r7, sp, #0
  \details Disables IRQ interrupts by setting the I-bit in the CPSR.
           Can only be executed in Privileged modes.
 */
__STATIC_FORCEINLINE void __disable_irq(void)
{
  __ASM volatile ("cpsid i" : : : "memory");
 80016ac:	b672      	cpsid	i
}
 80016ae:	bf00      	nop
  /* USER CODE BEGIN Error_Handler_Debug */
  /* User can add his own implementation to report the HAL error return state */
  __disable_irq();
  while (1)
 80016b0:	e7fe      	b.n	80016b0 <Error_Handler+0x8>
	...

080016b4 <HAL_MspInit>:
/* USER CODE END 0 */
/**
  * Initializes the Global MSP.
  */
void HAL_MspInit(void)
{
 80016b4:	b580      	push	{r7, lr}
 80016b6:	b082      	sub	sp, #8
 80016b8:	af00      	add	r7, sp, #0
  /* USER CODE BEGIN MspInit 0 */

  /* USER CODE END MspInit 0 */

  __HAL_RCC_SYSCFG_CLK_ENABLE();
 80016ba:	2300      	movs	r3, #0
 80016bc:	607b      	str	r3, [r7, #4]
 80016be:	4b10      	ldr	r3, [pc, #64]	; (8001700 <HAL_MspInit+0x4c>)
 80016c0:	6c5b      	ldr	r3, [r3, #68]	; 0x44
 80016c2:	4a0f      	ldr	r2, [pc, #60]	; (8001700 <HAL_MspInit+0x4c>)
 80016c4:	f443 4380 	orr.w	r3, r3, #16384	; 0x4000
 80016c8:	6453      	str	r3, [r2, #68]	; 0x44
 80016ca:	4b0d      	ldr	r3, [pc, #52]	; (8001700 <HAL_MspInit+0x4c>)
 80016cc:	6c5b      	ldr	r3, [r3, #68]	; 0x44
 80016ce:	f403 4380 	and.w	r3, r3, #16384	; 0x4000
 80016d2:	607b      	str	r3, [r7, #4]
 80016d4:	687b      	ldr	r3, [r7, #4]
  __HAL_RCC_PWR_CLK_ENABLE();
 80016d6:	2300      	movs	r3, #0
 80016d8:	603b      	str	r3, [r7, #0]
 80016da:	4b09      	ldr	r3, [pc, #36]	; (8001700 <HAL_MspInit+0x4c>)
 80016dc:	6c1b      	ldr	r3, [r3, #64]	; 0x40
 80016de:	4a08      	ldr	r2, [pc, #32]	; (8001700 <HAL_MspInit+0x4c>)
 80016e0:	f043 5380 	orr.w	r3, r3, #268435456	; 0x10000000
 80016e4:	6413      	str	r3, [r2, #64]	; 0x40
 80016e6:	4b06      	ldr	r3, [pc, #24]	; (8001700 <HAL_MspInit+0x4c>)
 80016e8:	6c1b      	ldr	r3, [r3, #64]	; 0x40
 80016ea:	f003 5380 	and.w	r3, r3, #268435456	; 0x10000000
 80016ee:	603b      	str	r3, [r7, #0]
 80016f0:	683b      	ldr	r3, [r7, #0]

  HAL_NVIC_SetPriorityGrouping(NVIC_PRIORITYGROUP_0);
 80016f2:	2007      	movs	r0, #7
 80016f4:	f000 fdd4 	bl	80022a0 <HAL_NVIC_SetPriorityGrouping>
  /* System interrupt init*/

  /* USER CODE BEGIN MspInit 1 */

  /* USER CODE END MspInit 1 */
}
 80016f8:	bf00      	nop
 80016fa:	3708      	adds	r7, #8
 80016fc:	46bd      	mov	sp, r7
 80016fe:	bd80      	pop	{r7, pc}
 8001700:	40023800 	.word	0x40023800

08001704 <HAL_ADC_MspInit>:
* This function configures the hardware resources used in this example
* @param hadc: ADC handle pointer
* @retval None
*/
void HAL_ADC_MspInit(ADC_HandleTypeDef* hadc)
{
 8001704:	b580      	push	{r7, lr}
 8001706:	b08a      	sub	sp, #40	; 0x28
 8001708:	af00      	add	r7, sp, #0
 800170a:	6078      	str	r0, [r7, #4]
  GPIO_InitTypeDef GPIO_InitStruct = {0};
 800170c:	f107 0314 	add.w	r3, r7, #20
 8001710:	2200      	movs	r2, #0
 8001712:	601a      	str	r2, [r3, #0]
 8001714:	605a      	str	r2, [r3, #4]
 8001716:	609a      	str	r2, [r3, #8]
 8001718:	60da      	str	r2, [r3, #12]
 800171a:	611a      	str	r2, [r3, #16]
  if(hadc->Instance==ADC1)
 800171c:	687b      	ldr	r3, [r7, #4]
 800171e:	681b      	ldr	r3, [r3, #0]
 8001720:	4a2f      	ldr	r2, [pc, #188]	; (80017e0 <HAL_ADC_MspInit+0xdc>)
 8001722:	4293      	cmp	r3, r2
 8001724:	d157      	bne.n	80017d6 <HAL_ADC_MspInit+0xd2>
  {
  /* USER CODE BEGIN ADC1_MspInit 0 */

  /* USER CODE END ADC1_MspInit 0 */
    /* Peripheral clock enable */
    __HAL_RCC_ADC1_CLK_ENABLE();
 8001726:	2300      	movs	r3, #0
 8001728:	613b      	str	r3, [r7, #16]
 800172a:	4b2e      	ldr	r3, [pc, #184]	; (80017e4 <HAL_ADC_MspInit+0xe0>)
 800172c:	6c5b      	ldr	r3, [r3, #68]	; 0x44
 800172e:	4a2d      	ldr	r2, [pc, #180]	; (80017e4 <HAL_ADC_MspInit+0xe0>)
 8001730:	f443 7380 	orr.w	r3, r3, #256	; 0x100
 8001734:	6453      	str	r3, [r2, #68]	; 0x44
 8001736:	4b2b      	ldr	r3, [pc, #172]	; (80017e4 <HAL_ADC_MspInit+0xe0>)
 8001738:	6c5b      	ldr	r3, [r3, #68]	; 0x44
 800173a:	f403 7380 	and.w	r3, r3, #256	; 0x100
 800173e:	613b      	str	r3, [r7, #16]
 8001740:	693b      	ldr	r3, [r7, #16]

    __HAL_RCC_GPIOA_CLK_ENABLE();
 8001742:	2300      	movs	r3, #0
 8001744:	60fb      	str	r3, [r7, #12]
 8001746:	4b27      	ldr	r3, [pc, #156]	; (80017e4 <HAL_ADC_MspInit+0xe0>)
 8001748:	6b1b      	ldr	r3, [r3, #48]	; 0x30
 800174a:	4a26      	ldr	r2, [pc, #152]	; (80017e4 <HAL_ADC_MspInit+0xe0>)
 800174c:	f043 0301 	orr.w	r3, r3, #1
 8001750:	6313      	str	r3, [r2, #48]	; 0x30
 8001752:	4b24      	ldr	r3, [pc, #144]	; (80017e4 <HAL_ADC_MspInit+0xe0>)
 8001754:	6b1b      	ldr	r3, [r3, #48]	; 0x30
 8001756:	f003 0301 	and.w	r3, r3, #1
 800175a:	60fb      	str	r3, [r7, #12]
 800175c:	68fb      	ldr	r3, [r7, #12]
    /**ADC1 GPIO Configuration
    PA1     ------> ADC1_IN1
    */
    GPIO_InitStruct.Pin = GPIO_PIN_1;
 800175e:	2302      	movs	r3, #2
 8001760:	617b      	str	r3, [r7, #20]
    GPIO_InitStruct.Mode = GPIO_MODE_ANALOG;
 8001762:	2303      	movs	r3, #3
 8001764:	61bb      	str	r3, [r7, #24]
    GPIO_InitStruct.Pull = GPIO_NOPULL;
 8001766:	2300      	movs	r3, #0
 8001768:	61fb      	str	r3, [r7, #28]
    HAL_GPIO_Init(GPIOA, &GPIO_InitStruct);
 800176a:	f107 0314 	add.w	r3, r7, #20
 800176e:	4619      	mov	r1, r3
 8001770:	481d      	ldr	r0, [pc, #116]	; (80017e8 <HAL_ADC_MspInit+0xe4>)
 8001772:	f001 f8c1 	bl	80028f8 <HAL_GPIO_Init>

    /* ADC1 DMA Init */
    /* ADC1 Init */
    hdma_adc1.Instance = DMA2_Stream0;
 8001776:	4b1d      	ldr	r3, [pc, #116]	; (80017ec <HAL_ADC_MspInit+0xe8>)
 8001778:	4a1d      	ldr	r2, [pc, #116]	; (80017f0 <HAL_ADC_MspInit+0xec>)
 800177a:	601a      	str	r2, [r3, #0]
    hdma_adc1.Init.Channel = DMA_CHANNEL_0;
 800177c:	4b1b      	ldr	r3, [pc, #108]	; (80017ec <HAL_ADC_MspInit+0xe8>)
 800177e:	2200      	movs	r2, #0
 8001780:	605a      	str	r2, [r3, #4]
    hdma_adc1.Init.Direction = DMA_PERIPH_TO_MEMORY;
 8001782:	4b1a      	ldr	r3, [pc, #104]	; (80017ec <HAL_ADC_MspInit+0xe8>)
 8001784:	2200      	movs	r2, #0
 8001786:	609a      	str	r2, [r3, #8]
    hdma_adc1.Init.PeriphInc = DMA_PINC_DISABLE;
 8001788:	4b18      	ldr	r3, [pc, #96]	; (80017ec <HAL_ADC_MspInit+0xe8>)
 800178a:	2200      	movs	r2, #0
 800178c:	60da      	str	r2, [r3, #12]
    hdma_adc1.Init.MemInc = DMA_MINC_ENABLE;
 800178e:	4b17      	ldr	r3, [pc, #92]	; (80017ec <HAL_ADC_MspInit+0xe8>)
 8001790:	f44f 6280 	mov.w	r2, #1024	; 0x400
 8001794:	611a      	str	r2, [r3, #16]
    hdma_adc1.Init.PeriphDataAlignment = DMA_PDATAALIGN_HALFWORD;
 8001796:	4b15      	ldr	r3, [pc, #84]	; (80017ec <HAL_ADC_MspInit+0xe8>)
 8001798:	f44f 6200 	mov.w	r2, #2048	; 0x800
 800179c:	615a      	str	r2, [r3, #20]
    hdma_adc1.Init.MemDataAlignment = DMA_MDATAALIGN_HALFWORD;
 800179e:	4b13      	ldr	r3, [pc, #76]	; (80017ec <HAL_ADC_MspInit+0xe8>)
 80017a0:	f44f 5200 	mov.w	r2, #8192	; 0x2000
 80017a4:	619a      	str	r2, [r3, #24]
    hdma_adc1.Init.Mode = DMA_NORMAL;
 80017a6:	4b11      	ldr	r3, [pc, #68]	; (80017ec <HAL_ADC_MspInit+0xe8>)
 80017a8:	2200      	movs	r2, #0
 80017aa:	61da      	str	r2, [r3, #28]
    hdma_adc1.Init.Priority = DMA_PRIORITY_VERY_HIGH;
 80017ac:	4b0f      	ldr	r3, [pc, #60]	; (80017ec <HAL_ADC_MspInit+0xe8>)
 80017ae:	f44f 3240 	mov.w	r2, #196608	; 0x30000
 80017b2:	621a      	str	r2, [r3, #32]
    hdma_adc1.Init.FIFOMode = DMA_FIFOMODE_DISABLE;
 80017b4:	4b0d      	ldr	r3, [pc, #52]	; (80017ec <HAL_ADC_MspInit+0xe8>)
 80017b6:	2200      	movs	r2, #0
 80017b8:	625a      	str	r2, [r3, #36]	; 0x24
    if (HAL_DMA_Init(&hdma_adc1) != HAL_OK)
 80017ba:	480c      	ldr	r0, [pc, #48]	; (80017ec <HAL_ADC_MspInit+0xe8>)
 80017bc:	f000 fdb2 	bl	8002324 <HAL_DMA_Init>
 80017c0:	4603      	mov	r3, r0
 80017c2:	2b00      	cmp	r3, #0
 80017c4:	d001      	beq.n	80017ca <HAL_ADC_MspInit+0xc6>
    {
      Error_Handler();
 80017c6:	f7ff ff6f 	bl	80016a8 <Error_Handler>
    }

    __HAL_LINKDMA(hadc,DMA_Handle,hdma_adc1);
 80017ca:	687b      	ldr	r3, [r7, #4]
 80017cc:	4a07      	ldr	r2, [pc, #28]	; (80017ec <HAL_ADC_MspInit+0xe8>)
 80017ce:	639a      	str	r2, [r3, #56]	; 0x38
 80017d0:	4a06      	ldr	r2, [pc, #24]	; (80017ec <HAL_ADC_MspInit+0xe8>)
 80017d2:	687b      	ldr	r3, [r7, #4]
 80017d4:	6393      	str	r3, [r2, #56]	; 0x38
  /* USER CODE BEGIN ADC1_MspInit 1 */

  /* USER CODE END ADC1_MspInit 1 */
  }

}
 80017d6:	bf00      	nop
 80017d8:	3728      	adds	r7, #40	; 0x28
 80017da:	46bd      	mov	sp, r7
 80017dc:	bd80      	pop	{r7, pc}
 80017de:	bf00      	nop
 80017e0:	40012000 	.word	0x40012000
 80017e4:	40023800 	.word	0x40023800
 80017e8:	40020000 	.word	0x40020000
 80017ec:	20009ea8 	.word	0x20009ea8
 80017f0:	40026410 	.word	0x40026410

080017f4 <HAL_TIM_Base_MspInit>:
* This function configures the hardware resources used in this example
* @param htim_base: TIM_Base handle pointer
* @retval None
*/
void HAL_TIM_Base_MspInit(TIM_HandleTypeDef* htim_base)
{
 80017f4:	b480      	push	{r7}
 80017f6:	b085      	sub	sp, #20
 80017f8:	af00      	add	r7, sp, #0
 80017fa:	6078      	str	r0, [r7, #4]
  if(htim_base->Instance==TIM2)
 80017fc:	687b      	ldr	r3, [r7, #4]
 80017fe:	681b      	ldr	r3, [r3, #0]
 8001800:	f1b3 4f80 	cmp.w	r3, #1073741824	; 0x40000000
 8001804:	d10d      	bne.n	8001822 <HAL_TIM_Base_MspInit+0x2e>
  {
  /* USER CODE BEGIN TIM2_MspInit 0 */

  /* USER CODE END TIM2_MspInit 0 */
    /* Peripheral clock enable */
    __HAL_RCC_TIM2_CLK_ENABLE();
 8001806:	2300      	movs	r3, #0
 8001808:	60fb      	str	r3, [r7, #12]
 800180a:	4b09      	ldr	r3, [pc, #36]	; (8001830 <HAL_TIM_Base_MspInit+0x3c>)
 800180c:	6c1b      	ldr	r3, [r3, #64]	; 0x40
 800180e:	4a08      	ldr	r2, [pc, #32]	; (8001830 <HAL_TIM_Base_MspInit+0x3c>)
 8001810:	f043 0301 	orr.w	r3, r3, #1
 8001814:	6413      	str	r3, [r2, #64]	; 0x40
 8001816:	4b06      	ldr	r3, [pc, #24]	; (8001830 <HAL_TIM_Base_MspInit+0x3c>)
 8001818:	6c1b      	ldr	r3, [r3, #64]	; 0x40
 800181a:	f003 0301 	and.w	r3, r3, #1
 800181e:	60fb      	str	r3, [r7, #12]
 8001820:	68fb      	ldr	r3, [r7, #12]
  /* USER CODE BEGIN TIM2_MspInit 1 */

  /* USER CODE END TIM2_MspInit 1 */
  }

}
 8001822:	bf00      	nop
 8001824:	3714      	adds	r7, #20
 8001826:	46bd      	mov	sp, r7
 8001828:	f85d 7b04 	ldr.w	r7, [sp], #4
 800182c:	4770      	bx	lr
 800182e:	bf00      	nop
 8001830:	40023800 	.word	0x40023800

08001834 <HAL_UART_MspInit>:
* This function configures the hardware resources used in this example
* @param huart: UART handle pointer
* @retval None
*/
void HAL_UART_MspInit(UART_HandleTypeDef* huart)
{
 8001834:	b580      	push	{r7, lr}
 8001836:	b08a      	sub	sp, #40	; 0x28
 8001838:	af00      	add	r7, sp, #0
 800183a:	6078      	str	r0, [r7, #4]
  GPIO_InitTypeDef GPIO_InitStruct = {0};
 800183c:	f107 0314 	add.w	r3, r7, #20
 8001840:	2200      	movs	r2, #0
 8001842:	601a      	str	r2, [r3, #0]
 8001844:	605a      	str	r2, [r3, #4]
 8001846:	609a      	str	r2, [r3, #8]
 8001848:	60da      	str	r2, [r3, #12]
 800184a:	611a      	str	r2, [r3, #16]
  if(huart->Instance==USART2)
 800184c:	687b      	ldr	r3, [r7, #4]
 800184e:	681b      	ldr	r3, [r3, #0]
 8001850:	4a19      	ldr	r2, [pc, #100]	; (80018b8 <HAL_UART_MspInit+0x84>)
 8001852:	4293      	cmp	r3, r2
 8001854:	d12b      	bne.n	80018ae <HAL_UART_MspInit+0x7a>
  {
  /* USER CODE BEGIN USART2_MspInit 0 */

  /* USER CODE END USART2_MspInit 0 */
    /* Peripheral clock enable */
    __HAL_RCC_USART2_CLK_ENABLE();
 8001856:	2300      	movs	r3, #0
 8001858:	613b      	str	r3, [r7, #16]
 800185a:	4b18      	ldr	r3, [pc, #96]	; (80018bc <HAL_UART_MspInit+0x88>)
 800185c:	6c1b      	ldr	r3, [r3, #64]	; 0x40
 800185e:	4a17      	ldr	r2, [pc, #92]	; (80018bc <HAL_UART_MspInit+0x88>)
 8001860:	f443 3300 	orr.w	r3, r3, #131072	; 0x20000
 8001864:	6413      	str	r3, [r2, #64]	; 0x40
 8001866:	4b15      	ldr	r3, [pc, #84]	; (80018bc <HAL_UART_MspInit+0x88>)
 8001868:	6c1b      	ldr	r3, [r3, #64]	; 0x40
 800186a:	f403 3300 	and.w	r3, r3, #131072	; 0x20000
 800186e:	613b      	str	r3, [r7, #16]
 8001870:	693b      	ldr	r3, [r7, #16]

    __HAL_RCC_GPIOA_CLK_ENABLE();
 8001872:	2300      	movs	r3, #0
 8001874:	60fb      	str	r3, [r7, #12]
 8001876:	4b11      	ldr	r3, [pc, #68]	; (80018bc <HAL_UART_MspInit+0x88>)
 8001878:	6b1b      	ldr	r3, [r3, #48]	; 0x30
 800187a:	4a10      	ldr	r2, [pc, #64]	; (80018bc <HAL_UART_MspInit+0x88>)
 800187c:	f043 0301 	orr.w	r3, r3, #1
 8001880:	6313      	str	r3, [r2, #48]	; 0x30
 8001882:	4b0e      	ldr	r3, [pc, #56]	; (80018bc <HAL_UART_MspInit+0x88>)
 8001884:	6b1b      	ldr	r3, [r3, #48]	; 0x30
 8001886:	f003 0301 	and.w	r3, r3, #1
 800188a:	60fb      	str	r3, [r7, #12]
 800188c:	68fb      	ldr	r3, [r7, #12]
    /**USART2 GPIO Configuration
    PA2     ------> USART2_TX
    PA3     ------> USART2_RX
    */
    GPIO_InitStruct.Pin = USART_TX_Pin|USART_RX_Pin;
 800188e:	230c      	movs	r3, #12
 8001890:	617b      	str	r3, [r7, #20]
    GPIO_InitStruct.Mode = GPIO_MODE_AF_PP;
 8001892:	2302      	movs	r3, #2
 8001894:	61bb      	str	r3, [r7, #24]
    GPIO_InitStruct.Pull = GPIO_NOPULL;
 8001896:	2300      	movs	r3, #0
 8001898:	61fb      	str	r3, [r7, #28]
    GPIO_InitStruct.Speed = GPIO_SPEED_FREQ_VERY_HIGH;
 800189a:	2303      	movs	r3, #3
 800189c:	623b      	str	r3, [r7, #32]
    GPIO_InitStruct.Alternate = GPIO_AF7_USART2;
 800189e:	2307      	movs	r3, #7
 80018a0:	627b      	str	r3, [r7, #36]	; 0x24
    HAL_GPIO_Init(GPIOA, &GPIO_InitStruct);
 80018a2:	f107 0314 	add.w	r3, r7, #20
 80018a6:	4619      	mov	r1, r3
 80018a8:	4805      	ldr	r0, [pc, #20]	; (80018c0 <HAL_UART_MspInit+0x8c>)
 80018aa:	f001 f825 	bl	80028f8 <HAL_GPIO_Init>
  /* USER CODE BEGIN USART2_MspInit 1 */

  /* USER CODE END USART2_MspInit 1 */
  }

}
 80018ae:	bf00      	nop
 80018b0:	3728      	adds	r7, #40	; 0x28
 80018b2:	46bd      	mov	sp, r7
 80018b4:	bd80      	pop	{r7, pc}
 80018b6:	bf00      	nop
 80018b8:	40004400 	.word	0x40004400
 80018bc:	40023800 	.word	0x40023800
 80018c0:	40020000 	.word	0x40020000

080018c4 <NMI_Handler>:
/******************************************************************************/
/**
  * @brief This function handles Non maskable interrupt.
  */
void NMI_Handler(void)
{
 80018c4:	b480      	push	{r7}
 80018c6:	af00      	add	r7, sp, #0
  /* USER CODE BEGIN NonMaskableInt_IRQn 0 */

  /* USER CODE END NonMaskableInt_IRQn 0 */
  /* USER CODE BEGIN NonMaskableInt_IRQn 1 */
  while (1)
 80018c8:	e7fe      	b.n	80018c8 <NMI_Handler+0x4>

080018ca <HardFault_Handler>:

/**
  * @brief This function handles Hard fault interrupt.
  */
void HardFault_Handler(void)
{
 80018ca:	b480      	push	{r7}
 80018cc:	af00      	add	r7, sp, #0
  /* USER CODE BEGIN HardFault_IRQn 0 */

  /* USER CODE END HardFault_IRQn 0 */
  while (1)
 80018ce:	e7fe      	b.n	80018ce <HardFault_Handler+0x4>

080018d0 <MemManage_Handler>:

/**
  * @brief This function handles Memory management fault.
  */
void MemManage_Handler(void)
{
 80018d0:	b480      	push	{r7}
 80018d2:	af00      	add	r7, sp, #0
  /* USER CODE BEGIN MemoryManagement_IRQn 0 */

  /* USER CODE END MemoryManagement_IRQn 0 */
  while (1)
 80018d4:	e7fe      	b.n	80018d4 <MemManage_Handler+0x4>

080018d6 <BusFault_Handler>:

/**
  * @brief This function handles Pre-fetch fault, memory access fault.
  */
void BusFault_Handler(void)
{
 80018d6:	b480      	push	{r7}
 80018d8:	af00      	add	r7, sp, #0
  /* USER CODE BEGIN BusFault_IRQn 0 */

  /* USER CODE END BusFault_IRQn 0 */
  while (1)
 80018da:	e7fe      	b.n	80018da <BusFault_Handler+0x4>

080018dc <UsageFault_Handler>:

/**
  * @brief This function handles Undefined instruction or illegal state.
  */
void UsageFault_Handler(void)
{
 80018dc:	b480      	push	{r7}
 80018de:	af00      	add	r7, sp, #0
  /* USER CODE BEGIN UsageFault_IRQn 0 */

  /* USER CODE END UsageFault_IRQn 0 */
  while (1)
 80018e0:	e7fe      	b.n	80018e0 <UsageFault_Handler+0x4>

080018e2 <SVC_Handler>:

/**
  * @brief This function handles System service call via SWI instruction.
  */
void SVC_Handler(void)
{
 80018e2:	b480      	push	{r7}
 80018e4:	af00      	add	r7, sp, #0

  /* USER CODE END SVCall_IRQn 0 */
  /* USER CODE BEGIN SVCall_IRQn 1 */

  /* USER CODE END SVCall_IRQn 1 */
}
 80018e6:	bf00      	nop
 80018e8:	46bd      	mov	sp, r7
 80018ea:	f85d 7b04 	ldr.w	r7, [sp], #4
 80018ee:	4770      	bx	lr

080018f0 <DebugMon_Handler>:

/**
  * @brief This function handles Debug monitor.
  */
void DebugMon_Handler(void)
{
 80018f0:	b480      	push	{r7}
 80018f2:	af00      	add	r7, sp, #0

  /* USER CODE END DebugMonitor_IRQn 0 */
  /* USER CODE BEGIN DebugMonitor_IRQn 1 */

  /* USER CODE END DebugMonitor_IRQn 1 */
}
 80018f4:	bf00      	nop
 80018f6:	46bd      	mov	sp, r7
 80018f8:	f85d 7b04 	ldr.w	r7, [sp], #4
 80018fc:	4770      	bx	lr

080018fe <PendSV_Handler>:

/**
  * @brief This function handles Pendable request for system service.
  */
void PendSV_Handler(void)
{
 80018fe:	b480      	push	{r7}
 8001900:	af00      	add	r7, sp, #0

  /* USER CODE END PendSV_IRQn 0 */
  /* USER CODE BEGIN PendSV_IRQn 1 */

  /* USER CODE END PendSV_IRQn 1 */
}
 8001902:	bf00      	nop
 8001904:	46bd      	mov	sp, r7
 8001906:	f85d 7b04 	ldr.w	r7, [sp], #4
 800190a:	4770      	bx	lr

0800190c <SysTick_Handler>:

/**
  * @brief This function handles System tick timer.
  */
void SysTick_Handler(void)
{
 800190c:	b580      	push	{r7, lr}
 800190e:	af00      	add	r7, sp, #0
  /* USER CODE BEGIN SysTick_IRQn 0 */

  /* USER CODE END SysTick_IRQn 0 */
  HAL_IncTick();
 8001910:	f000 f964 	bl	8001bdc <HAL_IncTick>
  /* USER CODE BEGIN SysTick_IRQn 1 */

  /* USER CODE END SysTick_IRQn 1 */
}
 8001914:	bf00      	nop
 8001916:	bd80      	pop	{r7, pc}

08001918 <DMA2_Stream0_IRQHandler>:

/**
  * @brief This function handles DMA2 stream0 global interrupt.
  */
void DMA2_Stream0_IRQHandler(void)
{
 8001918:	b580      	push	{r7, lr}
 800191a:	af00      	add	r7, sp, #0
  /* USER CODE BEGIN DMA2_Stream0_IRQn 0 */

  /* USER CODE END DMA2_Stream0_IRQn 0 */
  HAL_DMA_IRQHandler(&hdma_adc1);
 800191c:	4802      	ldr	r0, [pc, #8]	; (8001928 <DMA2_Stream0_IRQHandler+0x10>)
 800191e:	f000 fdaf 	bl	8002480 <HAL_DMA_IRQHandler>
  /* USER CODE BEGIN DMA2_Stream0_IRQn 1 */

  /* USER CODE END DMA2_Stream0_IRQn 1 */
}
 8001922:	bf00      	nop
 8001924:	bd80      	pop	{r7, pc}
 8001926:	bf00      	nop
 8001928:	20009ea8 	.word	0x20009ea8

0800192c <_getpid>:
void initialise_monitor_handles()
{
}

int _getpid(void)
{
 800192c:	b480      	push	{r7}
 800192e:	af00      	add	r7, sp, #0
	return 1;
 8001930:	2301      	movs	r3, #1
}
 8001932:	4618      	mov	r0, r3
 8001934:	46bd      	mov	sp, r7
 8001936:	f85d 7b04 	ldr.w	r7, [sp], #4
 800193a:	4770      	bx	lr

0800193c <_kill>:

int _kill(int pid, int sig)
{
 800193c:	b580      	push	{r7, lr}
 800193e:	b082      	sub	sp, #8
 8001940:	af00      	add	r7, sp, #0
 8001942:	6078      	str	r0, [r7, #4]
 8001944:	6039      	str	r1, [r7, #0]
	errno = EINVAL;
 8001946:	f002 fe91 	bl	800466c <__errno>
 800194a:	4603      	mov	r3, r0
 800194c:	2216      	movs	r2, #22
 800194e:	601a      	str	r2, [r3, #0]
	return -1;
 8001950:	f04f 33ff 	mov.w	r3, #4294967295
}
 8001954:	4618      	mov	r0, r3
 8001956:	3708      	adds	r7, #8
 8001958:	46bd      	mov	sp, r7
 800195a:	bd80      	pop	{r7, pc}

0800195c <_exit>:

void _exit (int status)
{
 800195c:	b580      	push	{r7, lr}
 800195e:	b082      	sub	sp, #8
 8001960:	af00      	add	r7, sp, #0
 8001962:	6078      	str	r0, [r7, #4]
	_kill(status, -1);
 8001964:	f04f 31ff 	mov.w	r1, #4294967295
 8001968:	6878      	ldr	r0, [r7, #4]
 800196a:	f7ff ffe7 	bl	800193c <_kill>
	while (1) {}		/* Make sure we hang here */
 800196e:	e7fe      	b.n	800196e <_exit+0x12>

08001970 <_read>:
}

__attribute__((weak)) int _read(int file, char *ptr, int len)
{
 8001970:	b580      	push	{r7, lr}
 8001972:	b086      	sub	sp, #24
 8001974:	af00      	add	r7, sp, #0
 8001976:	60f8      	str	r0, [r7, #12]
 8001978:	60b9      	str	r1, [r7, #8]
 800197a:	607a      	str	r2, [r7, #4]
	int DataIdx;

	for (DataIdx = 0; DataIdx < len; DataIdx++)
 800197c:	2300      	movs	r3, #0
 800197e:	617b      	str	r3, [r7, #20]
 8001980:	e00a      	b.n	8001998 <_read+0x28>
	{
		*ptr++ = __io_getchar();
 8001982:	f3af 8000 	nop.w
 8001986:	4601      	mov	r1, r0
 8001988:	68bb      	ldr	r3, [r7, #8]
 800198a:	1c5a      	adds	r2, r3, #1
 800198c:	60ba      	str	r2, [r7, #8]
 800198e:	b2ca      	uxtb	r2, r1
 8001990:	701a      	strb	r2, [r3, #0]
	for (DataIdx = 0; DataIdx < len; DataIdx++)
 8001992:	697b      	ldr	r3, [r7, #20]
 8001994:	3301      	adds	r3, #1
 8001996:	617b      	str	r3, [r7, #20]
 8001998:	697a      	ldr	r2, [r7, #20]
 800199a:	687b      	ldr	r3, [r7, #4]
 800199c:	429a      	cmp	r2, r3
 800199e:	dbf0      	blt.n	8001982 <_read+0x12>
	}

return len;
 80019a0:	687b      	ldr	r3, [r7, #4]
}
 80019a2:	4618      	mov	r0, r3
 80019a4:	3718      	adds	r7, #24
 80019a6:	46bd      	mov	sp, r7
 80019a8:	bd80      	pop	{r7, pc}

080019aa <_write>:

__attribute__((weak)) int _write(int file, char *ptr, int len)
{
 80019aa:	b580      	push	{r7, lr}
 80019ac:	b086      	sub	sp, #24
 80019ae:	af00      	add	r7, sp, #0
 80019b0:	60f8      	str	r0, [r7, #12]
 80019b2:	60b9      	str	r1, [r7, #8]
 80019b4:	607a      	str	r2, [r7, #4]
	int DataIdx;

	for (DataIdx = 0; DataIdx < len; DataIdx++)
 80019b6:	2300      	movs	r3, #0
 80019b8:	617b      	str	r3, [r7, #20]
 80019ba:	e009      	b.n	80019d0 <_write+0x26>
	{
		__io_putchar(*ptr++);
 80019bc:	68bb      	ldr	r3, [r7, #8]
 80019be:	1c5a      	adds	r2, r3, #1
 80019c0:	60ba      	str	r2, [r7, #8]
 80019c2:	781b      	ldrb	r3, [r3, #0]
 80019c4:	4618      	mov	r0, r3
 80019c6:	f3af 8000 	nop.w
	for (DataIdx = 0; DataIdx < len; DataIdx++)
 80019ca:	697b      	ldr	r3, [r7, #20]
 80019cc:	3301      	adds	r3, #1
 80019ce:	617b      	str	r3, [r7, #20]
 80019d0:	697a      	ldr	r2, [r7, #20]
 80019d2:	687b      	ldr	r3, [r7, #4]
 80019d4:	429a      	cmp	r2, r3
 80019d6:	dbf1      	blt.n	80019bc <_write+0x12>
	}
	return len;
 80019d8:	687b      	ldr	r3, [r7, #4]
}
 80019da:	4618      	mov	r0, r3
 80019dc:	3718      	adds	r7, #24
 80019de:	46bd      	mov	sp, r7
 80019e0:	bd80      	pop	{r7, pc}

080019e2 <_close>:

int _close(int file)
{
 80019e2:	b480      	push	{r7}
 80019e4:	b083      	sub	sp, #12
 80019e6:	af00      	add	r7, sp, #0
 80019e8:	6078      	str	r0, [r7, #4]
	return -1;
 80019ea:	f04f 33ff 	mov.w	r3, #4294967295
}
 80019ee:	4618      	mov	r0, r3
 80019f0:	370c      	adds	r7, #12
 80019f2:	46bd      	mov	sp, r7
 80019f4:	f85d 7b04 	ldr.w	r7, [sp], #4
 80019f8:	4770      	bx	lr

080019fa <_fstat>:


int _fstat(int file, struct stat *st)
{
 80019fa:	b480      	push	{r7}
 80019fc:	b083      	sub	sp, #12
 80019fe:	af00      	add	r7, sp, #0
 8001a00:	6078      	str	r0, [r7, #4]
 8001a02:	6039      	str	r1, [r7, #0]
	st->st_mode = S_IFCHR;
 8001a04:	683b      	ldr	r3, [r7, #0]
 8001a06:	f44f 5200 	mov.w	r2, #8192	; 0x2000
 8001a0a:	605a      	str	r2, [r3, #4]
	return 0;
 8001a0c:	2300      	movs	r3, #0
}
 8001a0e:	4618      	mov	r0, r3
 8001a10:	370c      	adds	r7, #12
 8001a12:	46bd      	mov	sp, r7
 8001a14:	f85d 7b04 	ldr.w	r7, [sp], #4
 8001a18:	4770      	bx	lr

08001a1a <_isatty>:

int _isatty(int file)
{
 8001a1a:	b480      	push	{r7}
 8001a1c:	b083      	sub	sp, #12
 8001a1e:	af00      	add	r7, sp, #0
 8001a20:	6078      	str	r0, [r7, #4]
	return 1;
 8001a22:	2301      	movs	r3, #1
}
 8001a24:	4618      	mov	r0, r3
 8001a26:	370c      	adds	r7, #12
 8001a28:	46bd      	mov	sp, r7
 8001a2a:	f85d 7b04 	ldr.w	r7, [sp], #4
 8001a2e:	4770      	bx	lr

08001a30 <_lseek>:

int _lseek(int file, int ptr, int dir)
{
 8001a30:	b480      	push	{r7}
 8001a32:	b085      	sub	sp, #20
 8001a34:	af00      	add	r7, sp, #0
 8001a36:	60f8      	str	r0, [r7, #12]
 8001a38:	60b9      	str	r1, [r7, #8]
 8001a3a:	607a      	str	r2, [r7, #4]
	return 0;
 8001a3c:	2300      	movs	r3, #0
}
 8001a3e:	4618      	mov	r0, r3
 8001a40:	3714      	adds	r7, #20
 8001a42:	46bd      	mov	sp, r7
 8001a44:	f85d 7b04 	ldr.w	r7, [sp], #4
 8001a48:	4770      	bx	lr
	...

08001a4c <_sbrk>:
 *
 * @param incr Memory size
 * @return Pointer to allocated memory
 */
void *_sbrk(ptrdiff_t incr)
{
 8001a4c:	b580      	push	{r7, lr}
 8001a4e:	b086      	sub	sp, #24
 8001a50:	af00      	add	r7, sp, #0
 8001a52:	6078      	str	r0, [r7, #4]
  extern uint8_t _end; /* Symbol defined in the linker script */
  extern uint8_t _estack; /* Symbol defined in the linker script */
  extern uint32_t _Min_Stack_Size; /* Symbol defined in the linker script */
  const uint32_t stack_limit = (uint32_t)&_estack - (uint32_t)&_Min_Stack_Size;
 8001a54:	4a14      	ldr	r2, [pc, #80]	; (8001aa8 <_sbrk+0x5c>)
 8001a56:	4b15      	ldr	r3, [pc, #84]	; (8001aac <_sbrk+0x60>)
 8001a58:	1ad3      	subs	r3, r2, r3
 8001a5a:	617b      	str	r3, [r7, #20]
  const uint8_t *max_heap = (uint8_t *)stack_limit;
 8001a5c:	697b      	ldr	r3, [r7, #20]
 8001a5e:	613b      	str	r3, [r7, #16]
  uint8_t *prev_heap_end;

  /* Initialize heap end at first call */
  if (NULL == __sbrk_heap_end)
 8001a60:	4b13      	ldr	r3, [pc, #76]	; (8001ab0 <_sbrk+0x64>)
 8001a62:	681b      	ldr	r3, [r3, #0]
 8001a64:	2b00      	cmp	r3, #0
 8001a66:	d102      	bne.n	8001a6e <_sbrk+0x22>
  {
    __sbrk_heap_end = &_end;
 8001a68:	4b11      	ldr	r3, [pc, #68]	; (8001ab0 <_sbrk+0x64>)
 8001a6a:	4a12      	ldr	r2, [pc, #72]	; (8001ab4 <_sbrk+0x68>)
 8001a6c:	601a      	str	r2, [r3, #0]
  }

  /* Protect heap from growing into the reserved MSP stack */
  if (__sbrk_heap_end + incr > max_heap)
 8001a6e:	4b10      	ldr	r3, [pc, #64]	; (8001ab0 <_sbrk+0x64>)
 8001a70:	681a      	ldr	r2, [r3, #0]
 8001a72:	687b      	ldr	r3, [r7, #4]
 8001a74:	4413      	add	r3, r2
 8001a76:	693a      	ldr	r2, [r7, #16]
 8001a78:	429a      	cmp	r2, r3
 8001a7a:	d207      	bcs.n	8001a8c <_sbrk+0x40>
  {
    errno = ENOMEM;
 8001a7c:	f002 fdf6 	bl	800466c <__errno>
 8001a80:	4603      	mov	r3, r0
 8001a82:	220c      	movs	r2, #12
 8001a84:	601a      	str	r2, [r3, #0]
    return (void *)-1;
 8001a86:	f04f 33ff 	mov.w	r3, #4294967295
 8001a8a:	e009      	b.n	8001aa0 <_sbrk+0x54>
  }

  prev_heap_end = __sbrk_heap_end;
 8001a8c:	4b08      	ldr	r3, [pc, #32]	; (8001ab0 <_sbrk+0x64>)
 8001a8e:	681b      	ldr	r3, [r3, #0]
 8001a90:	60fb      	str	r3, [r7, #12]
  __sbrk_heap_end += incr;
 8001a92:	4b07      	ldr	r3, [pc, #28]	; (8001ab0 <_sbrk+0x64>)
 8001a94:	681a      	ldr	r2, [r3, #0]
 8001a96:	687b      	ldr	r3, [r7, #4]
 8001a98:	4413      	add	r3, r2
 8001a9a:	4a05      	ldr	r2, [pc, #20]	; (8001ab0 <_sbrk+0x64>)
 8001a9c:	6013      	str	r3, [r2, #0]

  return (void *)prev_heap_end;
 8001a9e:	68fb      	ldr	r3, [r7, #12]
}
 8001aa0:	4618      	mov	r0, r3
 8001aa2:	3718      	adds	r7, #24
 8001aa4:	46bd      	mov	sp, r7
 8001aa6:	bd80      	pop	{r7, pc}
 8001aa8:	20020000 	.word	0x20020000
 8001aac:	00000400 	.word	0x00000400
 8001ab0:	20000210 	.word	0x20000210
 8001ab4:	20013be0 	.word	0x20013be0

08001ab8 <SystemInit>:
  *         configuration.
  * @param  None
  * @retval None
  */
void SystemInit(void)
{
 8001ab8:	b480      	push	{r7}
 8001aba:	af00      	add	r7, sp, #0
  /* FPU settings ------------------------------------------------------------*/
  #if (__FPU_PRESENT == 1) && (__FPU_USED == 1)
    SCB->CPACR |= ((3UL << 10*2)|(3UL << 11*2));  /* set CP10 and CP11 Full Access */
 8001abc:	4b08      	ldr	r3, [pc, #32]	; (8001ae0 <SystemInit+0x28>)
 8001abe:	f8d3 3088 	ldr.w	r3, [r3, #136]	; 0x88
 8001ac2:	4a07      	ldr	r2, [pc, #28]	; (8001ae0 <SystemInit+0x28>)
 8001ac4:	f443 0370 	orr.w	r3, r3, #15728640	; 0xf00000
 8001ac8:	f8c2 3088 	str.w	r3, [r2, #136]	; 0x88

  /* Configure the Vector Table location add offset address ------------------*/
#ifdef VECT_TAB_SRAM
  SCB->VTOR = SRAM_BASE | VECT_TAB_OFFSET; /* Vector Table Relocation in Internal SRAM */
#else
  SCB->VTOR = FLASH_BASE | VECT_TAB_OFFSET; /* Vector Table Relocation in Internal FLASH */
 8001acc:	4b04      	ldr	r3, [pc, #16]	; (8001ae0 <SystemInit+0x28>)
 8001ace:	f04f 6200 	mov.w	r2, #134217728	; 0x8000000
 8001ad2:	609a      	str	r2, [r3, #8]
#endif
}
 8001ad4:	bf00      	nop
 8001ad6:	46bd      	mov	sp, r7
 8001ad8:	f85d 7b04 	ldr.w	r7, [sp], #4
 8001adc:	4770      	bx	lr
 8001ade:	bf00      	nop
 8001ae0:	e000ed00 	.word	0xe000ed00

08001ae4 <Reset_Handler>:

    .section  .text.Reset_Handler
  .weak  Reset_Handler
  .type  Reset_Handler, %function
Reset_Handler:  
  ldr   sp, =_estack      /* set stack pointer */
 8001ae4:	f8df d034 	ldr.w	sp, [pc, #52]	; 8001b1c <LoopFillZerobss+0x14>

/* Copy the data segment initializers from flash to SRAM */  
  movs  r1, #0
 8001ae8:	2100      	movs	r1, #0
  b  LoopCopyDataInit
 8001aea:	e003      	b.n	8001af4 <LoopCopyDataInit>

08001aec <CopyDataInit>:

CopyDataInit:
  ldr  r3, =_sidata
 8001aec:	4b0c      	ldr	r3, [pc, #48]	; (8001b20 <LoopFillZerobss+0x18>)
  ldr  r3, [r3, r1]
 8001aee:	585b      	ldr	r3, [r3, r1]
  str  r3, [r0, r1]
 8001af0:	5043      	str	r3, [r0, r1]
  adds  r1, r1, #4
 8001af2:	3104      	adds	r1, #4

08001af4 <LoopCopyDataInit>:
    
LoopCopyDataInit:
  ldr  r0, =_sdata
 8001af4:	480b      	ldr	r0, [pc, #44]	; (8001b24 <LoopFillZerobss+0x1c>)
  ldr  r3, =_edata
 8001af6:	4b0c      	ldr	r3, [pc, #48]	; (8001b28 <LoopFillZerobss+0x20>)
  adds  r2, r0, r1
 8001af8:	1842      	adds	r2, r0, r1
  cmp  r2, r3
 8001afa:	429a      	cmp	r2, r3
  bcc  CopyDataInit
 8001afc:	d3f6      	bcc.n	8001aec <CopyDataInit>
  ldr  r2, =_sbss
 8001afe:	4a0b      	ldr	r2, [pc, #44]	; (8001b2c <LoopFillZerobss+0x24>)
  b  LoopFillZerobss
 8001b00:	e002      	b.n	8001b08 <LoopFillZerobss>

08001b02 <FillZerobss>:
/* Zero fill the bss segment. */  
FillZerobss:
  movs  r3, #0
 8001b02:	2300      	movs	r3, #0
  str  r3, [r2], #4
 8001b04:	f842 3b04 	str.w	r3, [r2], #4

08001b08 <LoopFillZerobss>:
    
LoopFillZerobss:
  ldr  r3, = _ebss
 8001b08:	4b09      	ldr	r3, [pc, #36]	; (8001b30 <LoopFillZerobss+0x28>)
  cmp  r2, r3
 8001b0a:	429a      	cmp	r2, r3
  bcc  FillZerobss
 8001b0c:	d3f9      	bcc.n	8001b02 <FillZerobss>

/* Call the clock system intitialization function.*/
  bl  SystemInit   
 8001b0e:	f7ff ffd3 	bl	8001ab8 <SystemInit>
/* Call static constructors */
    bl __libc_init_array
 8001b12:	f002 fdb1 	bl	8004678 <__libc_init_array>
/* Call the application's entry point.*/
  bl  main
 8001b16:	f7ff fa33 	bl	8000f80 <main>
  bx  lr    
 8001b1a:	4770      	bx	lr
  ldr   sp, =_estack      /* set stack pointer */
 8001b1c:	20020000 	.word	0x20020000
  ldr  r3, =_sidata
 8001b20:	0800782c 	.word	0x0800782c
  ldr  r0, =_sdata
 8001b24:	20000000 	.word	0x20000000
  ldr  r3, =_edata
 8001b28:	200001e4 	.word	0x200001e4
  ldr  r2, =_sbss
 8001b2c:	200001e4 	.word	0x200001e4
  ldr  r3, = _ebss
 8001b30:	20013be0 	.word	0x20013be0

08001b34 <ADC_IRQHandler>:
 * @retval None       
*/
    .section  .text.Default_Handler,"ax",%progbits
Default_Handler:
Infinite_Loop:
  b  Infinite_Loop
 8001b34:	e7fe      	b.n	8001b34 <ADC_IRQHandler>
	...

08001b38 <HAL_Init>:
  *         need to ensure that the SysTick time base is always set to 1 millisecond
  *         to have correct HAL operation.
  * @retval HAL status
  */
HAL_StatusTypeDef HAL_Init(void)
{
 8001b38:	b580      	push	{r7, lr}
 8001b3a:	af00      	add	r7, sp, #0
  /* Configure Flash prefetch, Instruction cache, Data cache */ 
#if (INSTRUCTION_CACHE_ENABLE != 0U)
  __HAL_FLASH_INSTRUCTION_CACHE_ENABLE();
 8001b3c:	4b0e      	ldr	r3, [pc, #56]	; (8001b78 <HAL_Init+0x40>)
 8001b3e:	681b      	ldr	r3, [r3, #0]
 8001b40:	4a0d      	ldr	r2, [pc, #52]	; (8001b78 <HAL_Init+0x40>)
 8001b42:	f443 7300 	orr.w	r3, r3, #512	; 0x200
 8001b46:	6013      	str	r3, [r2, #0]
#endif /* INSTRUCTION_CACHE_ENABLE */

#if (DATA_CACHE_ENABLE != 0U)
  __HAL_FLASH_DATA_CACHE_ENABLE();
 8001b48:	4b0b      	ldr	r3, [pc, #44]	; (8001b78 <HAL_Init+0x40>)
 8001b4a:	681b      	ldr	r3, [r3, #0]
 8001b4c:	4a0a      	ldr	r2, [pc, #40]	; (8001b78 <HAL_Init+0x40>)
 8001b4e:	f443 6380 	orr.w	r3, r3, #1024	; 0x400
 8001b52:	6013      	str	r3, [r2, #0]
#endif /* DATA_CACHE_ENABLE */

#if (PREFETCH_ENABLE != 0U)
  __HAL_FLASH_PREFETCH_BUFFER_ENABLE();
 8001b54:	4b08      	ldr	r3, [pc, #32]	; (8001b78 <HAL_Init+0x40>)
 8001b56:	681b      	ldr	r3, [r3, #0]
 8001b58:	4a07      	ldr	r2, [pc, #28]	; (8001b78 <HAL_Init+0x40>)
 8001b5a:	f443 7380 	orr.w	r3, r3, #256	; 0x100
 8001b5e:	6013      	str	r3, [r2, #0]
#endif /* PREFETCH_ENABLE */

  /* Set Interrupt Group Priority */
  HAL_NVIC_SetPriorityGrouping(NVIC_PRIORITYGROUP_4);
 8001b60:	2003      	movs	r0, #3
 8001b62:	f000 fb9d 	bl	80022a0 <HAL_NVIC_SetPriorityGrouping>

  /* Use systick as time base source and configure 1ms tick (default clock after Reset is HSI) */
  HAL_InitTick(TICK_INT_PRIORITY);
 8001b66:	2000      	movs	r0, #0
 8001b68:	f000 f808 	bl	8001b7c <HAL_InitTick>

  /* Init the low level hardware */
  HAL_MspInit();
 8001b6c:	f7ff fda2 	bl	80016b4 <HAL_MspInit>

  /* Return function status */
  return HAL_OK;
 8001b70:	2300      	movs	r3, #0
}
 8001b72:	4618      	mov	r0, r3
 8001b74:	bd80      	pop	{r7, pc}
 8001b76:	bf00      	nop
 8001b78:	40023c00 	.word	0x40023c00

08001b7c <HAL_InitTick>:
  *       implementation  in user file.
  * @param TickPriority Tick interrupt priority.
  * @retval HAL status
  */
__weak HAL_StatusTypeDef HAL_InitTick(uint32_t TickPriority)
{
 8001b7c:	b580      	push	{r7, lr}
 8001b7e:	b082      	sub	sp, #8
 8001b80:	af00      	add	r7, sp, #0
 8001b82:	6078      	str	r0, [r7, #4]
  /* Configure the SysTick to have interrupt in 1ms time basis*/
  if (HAL_SYSTICK_Config(SystemCoreClock / (1000U / uwTickFreq)) > 0U)
 8001b84:	4b12      	ldr	r3, [pc, #72]	; (8001bd0 <HAL_InitTick+0x54>)
 8001b86:	681a      	ldr	r2, [r3, #0]
 8001b88:	4b12      	ldr	r3, [pc, #72]	; (8001bd4 <HAL_InitTick+0x58>)
 8001b8a:	781b      	ldrb	r3, [r3, #0]
 8001b8c:	4619      	mov	r1, r3
 8001b8e:	f44f 737a 	mov.w	r3, #1000	; 0x3e8
 8001b92:	fbb3 f3f1 	udiv	r3, r3, r1
 8001b96:	fbb2 f3f3 	udiv	r3, r2, r3
 8001b9a:	4618      	mov	r0, r3
 8001b9c:	f000 fbb5 	bl	800230a <HAL_SYSTICK_Config>
 8001ba0:	4603      	mov	r3, r0
 8001ba2:	2b00      	cmp	r3, #0
 8001ba4:	d001      	beq.n	8001baa <HAL_InitTick+0x2e>
  {
    return HAL_ERROR;
 8001ba6:	2301      	movs	r3, #1
 8001ba8:	e00e      	b.n	8001bc8 <HAL_InitTick+0x4c>
  }

  /* Configure the SysTick IRQ priority */
  if (TickPriority < (1UL << __NVIC_PRIO_BITS))
 8001baa:	687b      	ldr	r3, [r7, #4]
 8001bac:	2b0f      	cmp	r3, #15
 8001bae:	d80a      	bhi.n	8001bc6 <HAL_InitTick+0x4a>
  {
    HAL_NVIC_SetPriority(SysTick_IRQn, TickPriority, 0U);
 8001bb0:	2200      	movs	r2, #0
 8001bb2:	6879      	ldr	r1, [r7, #4]
 8001bb4:	f04f 30ff 	mov.w	r0, #4294967295
 8001bb8:	f000 fb7d 	bl	80022b6 <HAL_NVIC_SetPriority>
    uwTickPrio = TickPriority;
 8001bbc:	4a06      	ldr	r2, [pc, #24]	; (8001bd8 <HAL_InitTick+0x5c>)
 8001bbe:	687b      	ldr	r3, [r7, #4]
 8001bc0:	6013      	str	r3, [r2, #0]
  {
    return HAL_ERROR;
  }

  /* Return function status */
  return HAL_OK;
 8001bc2:	2300      	movs	r3, #0
 8001bc4:	e000      	b.n	8001bc8 <HAL_InitTick+0x4c>
    return HAL_ERROR;
 8001bc6:	2301      	movs	r3, #1
}
 8001bc8:	4618      	mov	r0, r3
 8001bca:	3708      	adds	r7, #8
 8001bcc:	46bd      	mov	sp, r7
 8001bce:	bd80      	pop	{r7, pc}
 8001bd0:	20000008 	.word	0x20000008
 8001bd4:	20000010 	.word	0x20000010
 8001bd8:	2000000c 	.word	0x2000000c

08001bdc <HAL_IncTick>:
 * @note This function is declared as __weak to be overwritten in case of other 
  *      implementations in user file.
  * @retval None
  */
__weak void HAL_IncTick(void)
{
 8001bdc:	b480      	push	{r7}
 8001bde:	af00      	add	r7, sp, #0
  uwTick += uwTickFreq;
 8001be0:	4b06      	ldr	r3, [pc, #24]	; (8001bfc <HAL_IncTick+0x20>)
 8001be2:	781b      	ldrb	r3, [r3, #0]
 8001be4:	461a      	mov	r2, r3
 8001be6:	4b06      	ldr	r3, [pc, #24]	; (8001c00 <HAL_IncTick+0x24>)
 8001be8:	681b      	ldr	r3, [r3, #0]
 8001bea:	4413      	add	r3, r2
 8001bec:	4a04      	ldr	r2, [pc, #16]	; (8001c00 <HAL_IncTick+0x24>)
 8001bee:	6013      	str	r3, [r2, #0]
}
 8001bf0:	bf00      	nop
 8001bf2:	46bd      	mov	sp, r7
 8001bf4:	f85d 7b04 	ldr.w	r7, [sp], #4
 8001bf8:	4770      	bx	lr
 8001bfa:	bf00      	nop
 8001bfc:	20000010 	.word	0x20000010
 8001c00:	20013bcc 	.word	0x20013bcc

08001c04 <HAL_GetTick>:
  * @note This function is declared as __weak to be overwritten in case of other 
  *       implementations in user file.
  * @retval tick value
  */
__weak uint32_t HAL_GetTick(void)
{
 8001c04:	b480      	push	{r7}
 8001c06:	af00      	add	r7, sp, #0
  return uwTick;
 8001c08:	4b03      	ldr	r3, [pc, #12]	; (8001c18 <HAL_GetTick+0x14>)
 8001c0a:	681b      	ldr	r3, [r3, #0]
}
 8001c0c:	4618      	mov	r0, r3
 8001c0e:	46bd      	mov	sp, r7
 8001c10:	f85d 7b04 	ldr.w	r7, [sp], #4
 8001c14:	4770      	bx	lr
 8001c16:	bf00      	nop
 8001c18:	20013bcc 	.word	0x20013bcc

08001c1c <HAL_ADC_Init>:
  * @param  hadc pointer to a ADC_HandleTypeDef structure that contains
  *         the configuration information for the specified ADC.  
  * @retval HAL status
  */
HAL_StatusTypeDef HAL_ADC_Init(ADC_HandleTypeDef* hadc)
{
 8001c1c:	b580      	push	{r7, lr}
 8001c1e:	b084      	sub	sp, #16
 8001c20:	af00      	add	r7, sp, #0
 8001c22:	6078      	str	r0, [r7, #4]
  HAL_StatusTypeDef tmp_hal_status = HAL_OK;
 8001c24:	2300      	movs	r3, #0
 8001c26:	73fb      	strb	r3, [r7, #15]
  
  /* Check ADC handle */
  if(hadc == NULL)
 8001c28:	687b      	ldr	r3, [r7, #4]
 8001c2a:	2b00      	cmp	r3, #0
 8001c2c:	d101      	bne.n	8001c32 <HAL_ADC_Init+0x16>
  {
    return HAL_ERROR;
 8001c2e:	2301      	movs	r3, #1
 8001c30:	e033      	b.n	8001c9a <HAL_ADC_Init+0x7e>
  if(hadc->Init.ExternalTrigConv != ADC_SOFTWARE_START)
  {
    assert_param(IS_ADC_EXT_TRIG_EDGE(hadc->Init.ExternalTrigConvEdge));
  }
  
  if(hadc->State == HAL_ADC_STATE_RESET)
 8001c32:	687b      	ldr	r3, [r7, #4]
 8001c34:	6c1b      	ldr	r3, [r3, #64]	; 0x40
 8001c36:	2b00      	cmp	r3, #0
 8001c38:	d109      	bne.n	8001c4e <HAL_ADC_Init+0x32>

    /* Init the low level hardware */
    hadc->MspInitCallback(hadc);
#else
    /* Init the low level hardware */
    HAL_ADC_MspInit(hadc);
 8001c3a:	6878      	ldr	r0, [r7, #4]
 8001c3c:	f7ff fd62 	bl	8001704 <HAL_ADC_MspInit>
#endif /* USE_HAL_ADC_REGISTER_CALLBACKS */

    /* Initialize ADC error code */
    ADC_CLEAR_ERRORCODE(hadc);
 8001c40:	687b      	ldr	r3, [r7, #4]
 8001c42:	2200      	movs	r2, #0
 8001c44:	645a      	str	r2, [r3, #68]	; 0x44
    
    /* Allocate lock resource and initialize it */
    hadc->Lock = HAL_UNLOCKED;
 8001c46:	687b      	ldr	r3, [r7, #4]
 8001c48:	2200      	movs	r2, #0
 8001c4a:	f883 203c 	strb.w	r2, [r3, #60]	; 0x3c
  }
  
  /* Configuration of ADC parameters if previous preliminary actions are      */ 
  /* correctly completed.                                                     */
  if (HAL_IS_BIT_CLR(hadc->State, HAL_ADC_STATE_ERROR_INTERNAL))
 8001c4e:	687b      	ldr	r3, [r7, #4]
 8001c50:	6c1b      	ldr	r3, [r3, #64]	; 0x40
 8001c52:	f003 0310 	and.w	r3, r3, #16
 8001c56:	2b00      	cmp	r3, #0
 8001c58:	d118      	bne.n	8001c8c <HAL_ADC_Init+0x70>
  {
    /* Set ADC state */
    ADC_STATE_CLR_SET(hadc->State,
 8001c5a:	687b      	ldr	r3, [r7, #4]
 8001c5c:	6c1b      	ldr	r3, [r3, #64]	; 0x40
 8001c5e:	f423 5388 	bic.w	r3, r3, #4352	; 0x1100
 8001c62:	f023 0302 	bic.w	r3, r3, #2
 8001c66:	f043 0202 	orr.w	r2, r3, #2
 8001c6a:	687b      	ldr	r3, [r7, #4]
 8001c6c:	641a      	str	r2, [r3, #64]	; 0x40
                      HAL_ADC_STATE_REG_BUSY | HAL_ADC_STATE_INJ_BUSY,
                      HAL_ADC_STATE_BUSY_INTERNAL);
    
    /* Set ADC parameters */
    ADC_Init(hadc);
 8001c6e:	6878      	ldr	r0, [r7, #4]
 8001c70:	f000 f94a 	bl	8001f08 <ADC_Init>
    
    /* Set ADC error code to none */
    ADC_CLEAR_ERRORCODE(hadc);
 8001c74:	687b      	ldr	r3, [r7, #4]
 8001c76:	2200      	movs	r2, #0
 8001c78:	645a      	str	r2, [r3, #68]	; 0x44
    
    /* Set the ADC state */
    ADC_STATE_CLR_SET(hadc->State,
 8001c7a:	687b      	ldr	r3, [r7, #4]
 8001c7c:	6c1b      	ldr	r3, [r3, #64]	; 0x40
 8001c7e:	f023 0303 	bic.w	r3, r3, #3
 8001c82:	f043 0201 	orr.w	r2, r3, #1
 8001c86:	687b      	ldr	r3, [r7, #4]
 8001c88:	641a      	str	r2, [r3, #64]	; 0x40
 8001c8a:	e001      	b.n	8001c90 <HAL_ADC_Init+0x74>
                      HAL_ADC_STATE_BUSY_INTERNAL,
                      HAL_ADC_STATE_READY);
  }
  else
  {
    tmp_hal_status = HAL_ERROR;
 8001c8c:	2301      	movs	r3, #1
 8001c8e:	73fb      	strb	r3, [r7, #15]
  }
  
  /* Release Lock */
  __HAL_UNLOCK(hadc);
 8001c90:	687b      	ldr	r3, [r7, #4]
 8001c92:	2200      	movs	r2, #0
 8001c94:	f883 203c 	strb.w	r2, [r3, #60]	; 0x3c

  /* Return function status */
  return tmp_hal_status;
 8001c98:	7bfb      	ldrb	r3, [r7, #15]
}
 8001c9a:	4618      	mov	r0, r3
 8001c9c:	3710      	adds	r7, #16
 8001c9e:	46bd      	mov	sp, r7
 8001ca0:	bd80      	pop	{r7, pc}
	...

08001ca4 <HAL_ADC_ConfigChannel>:
  *         the configuration information for the specified ADC.
  * @param  sConfig ADC configuration structure. 
  * @retval HAL status
  */
HAL_StatusTypeDef HAL_ADC_ConfigChannel(ADC_HandleTypeDef* hadc, ADC_ChannelConfTypeDef* sConfig)
{
 8001ca4:	b480      	push	{r7}
 8001ca6:	b085      	sub	sp, #20
 8001ca8:	af00      	add	r7, sp, #0
 8001caa:	6078      	str	r0, [r7, #4]
 8001cac:	6039      	str	r1, [r7, #0]
  __IO uint32_t counter = 0U;
 8001cae:	2300      	movs	r3, #0
 8001cb0:	60bb      	str	r3, [r7, #8]
  assert_param(IS_ADC_CHANNEL(sConfig->Channel));
  assert_param(IS_ADC_REGULAR_RANK(sConfig->Rank));
  assert_param(IS_ADC_SAMPLE_TIME(sConfig->SamplingTime));
  
  /* Process locked */
  __HAL_LOCK(hadc);
 8001cb2:	687b      	ldr	r3, [r7, #4]
 8001cb4:	f893 303c 	ldrb.w	r3, [r3, #60]	; 0x3c
 8001cb8:	2b01      	cmp	r3, #1
 8001cba:	d101      	bne.n	8001cc0 <HAL_ADC_ConfigChannel+0x1c>
 8001cbc:	2302      	movs	r3, #2
 8001cbe:	e113      	b.n	8001ee8 <HAL_ADC_ConfigChannel+0x244>
 8001cc0:	687b      	ldr	r3, [r7, #4]
 8001cc2:	2201      	movs	r2, #1
 8001cc4:	f883 203c 	strb.w	r2, [r3, #60]	; 0x3c
    
  /* if ADC_Channel_10 ... ADC_Channel_18 is selected */
  if (sConfig->Channel > ADC_CHANNEL_9)
 8001cc8:	683b      	ldr	r3, [r7, #0]
 8001cca:	681b      	ldr	r3, [r3, #0]
 8001ccc:	2b09      	cmp	r3, #9
 8001cce:	d925      	bls.n	8001d1c <HAL_ADC_ConfigChannel+0x78>
  {
    /* Clear the old sample time */
    hadc->Instance->SMPR1 &= ~ADC_SMPR1(ADC_SMPR1_SMP10, sConfig->Channel);
 8001cd0:	687b      	ldr	r3, [r7, #4]
 8001cd2:	681b      	ldr	r3, [r3, #0]
 8001cd4:	68d9      	ldr	r1, [r3, #12]
 8001cd6:	683b      	ldr	r3, [r7, #0]
 8001cd8:	681b      	ldr	r3, [r3, #0]
 8001cda:	b29b      	uxth	r3, r3
 8001cdc:	461a      	mov	r2, r3
 8001cde:	4613      	mov	r3, r2
 8001ce0:	005b      	lsls	r3, r3, #1
 8001ce2:	4413      	add	r3, r2
 8001ce4:	3b1e      	subs	r3, #30
 8001ce6:	2207      	movs	r2, #7
 8001ce8:	fa02 f303 	lsl.w	r3, r2, r3
 8001cec:	43da      	mvns	r2, r3
 8001cee:	687b      	ldr	r3, [r7, #4]
 8001cf0:	681b      	ldr	r3, [r3, #0]
 8001cf2:	400a      	ands	r2, r1
 8001cf4:	60da      	str	r2, [r3, #12]
    
    /* Set the new sample time */
    hadc->Instance->SMPR1 |= ADC_SMPR1(sConfig->SamplingTime, sConfig->Channel);
 8001cf6:	687b      	ldr	r3, [r7, #4]
 8001cf8:	681b      	ldr	r3, [r3, #0]
 8001cfa:	68d9      	ldr	r1, [r3, #12]
 8001cfc:	683b      	ldr	r3, [r7, #0]
 8001cfe:	689a      	ldr	r2, [r3, #8]
 8001d00:	683b      	ldr	r3, [r7, #0]
 8001d02:	681b      	ldr	r3, [r3, #0]
 8001d04:	b29b      	uxth	r3, r3
 8001d06:	4618      	mov	r0, r3
 8001d08:	4603      	mov	r3, r0
 8001d0a:	005b      	lsls	r3, r3, #1
 8001d0c:	4403      	add	r3, r0
 8001d0e:	3b1e      	subs	r3, #30
 8001d10:	409a      	lsls	r2, r3
 8001d12:	687b      	ldr	r3, [r7, #4]
 8001d14:	681b      	ldr	r3, [r3, #0]
 8001d16:	430a      	orrs	r2, r1
 8001d18:	60da      	str	r2, [r3, #12]
 8001d1a:	e022      	b.n	8001d62 <HAL_ADC_ConfigChannel+0xbe>
  }
  else /* ADC_Channel include in ADC_Channel_[0..9] */
  {
    /* Clear the old sample time */
    hadc->Instance->SMPR2 &= ~ADC_SMPR2(ADC_SMPR2_SMP0, sConfig->Channel);
 8001d1c:	687b      	ldr	r3, [r7, #4]
 8001d1e:	681b      	ldr	r3, [r3, #0]
 8001d20:	6919      	ldr	r1, [r3, #16]
 8001d22:	683b      	ldr	r3, [r7, #0]
 8001d24:	681b      	ldr	r3, [r3, #0]
 8001d26:	b29b      	uxth	r3, r3
 8001d28:	461a      	mov	r2, r3
 8001d2a:	4613      	mov	r3, r2
 8001d2c:	005b      	lsls	r3, r3, #1
 8001d2e:	4413      	add	r3, r2
 8001d30:	2207      	movs	r2, #7
 8001d32:	fa02 f303 	lsl.w	r3, r2, r3
 8001d36:	43da      	mvns	r2, r3
 8001d38:	687b      	ldr	r3, [r7, #4]
 8001d3a:	681b      	ldr	r3, [r3, #0]
 8001d3c:	400a      	ands	r2, r1
 8001d3e:	611a      	str	r2, [r3, #16]
    
    /* Set the new sample time */
    hadc->Instance->SMPR2 |= ADC_SMPR2(sConfig->SamplingTime, sConfig->Channel);
 8001d40:	687b      	ldr	r3, [r7, #4]
 8001d42:	681b      	ldr	r3, [r3, #0]
 8001d44:	6919      	ldr	r1, [r3, #16]
 8001d46:	683b      	ldr	r3, [r7, #0]
 8001d48:	689a      	ldr	r2, [r3, #8]
 8001d4a:	683b      	ldr	r3, [r7, #0]
 8001d4c:	681b      	ldr	r3, [r3, #0]
 8001d4e:	b29b      	uxth	r3, r3
 8001d50:	4618      	mov	r0, r3
 8001d52:	4603      	mov	r3, r0
 8001d54:	005b      	lsls	r3, r3, #1
 8001d56:	4403      	add	r3, r0
 8001d58:	409a      	lsls	r2, r3
 8001d5a:	687b      	ldr	r3, [r7, #4]
 8001d5c:	681b      	ldr	r3, [r3, #0]
 8001d5e:	430a      	orrs	r2, r1
 8001d60:	611a      	str	r2, [r3, #16]
  }
  
  /* For Rank 1 to 6 */
  if (sConfig->Rank < 7U)
 8001d62:	683b      	ldr	r3, [r7, #0]
 8001d64:	685b      	ldr	r3, [r3, #4]
 8001d66:	2b06      	cmp	r3, #6
 8001d68:	d824      	bhi.n	8001db4 <HAL_ADC_ConfigChannel+0x110>
  {
    /* Clear the old SQx bits for the selected rank */
    hadc->Instance->SQR3 &= ~ADC_SQR3_RK(ADC_SQR3_SQ1, sConfig->Rank);
 8001d6a:	687b      	ldr	r3, [r7, #4]
 8001d6c:	681b      	ldr	r3, [r3, #0]
 8001d6e:	6b59      	ldr	r1, [r3, #52]	; 0x34
 8001d70:	683b      	ldr	r3, [r7, #0]
 8001d72:	685a      	ldr	r2, [r3, #4]
 8001d74:	4613      	mov	r3, r2
 8001d76:	009b      	lsls	r3, r3, #2
 8001d78:	4413      	add	r3, r2
 8001d7a:	3b05      	subs	r3, #5
 8001d7c:	221f      	movs	r2, #31
 8001d7e:	fa02 f303 	lsl.w	r3, r2, r3
 8001d82:	43da      	mvns	r2, r3
 8001d84:	687b      	ldr	r3, [r7, #4]
 8001d86:	681b      	ldr	r3, [r3, #0]
 8001d88:	400a      	ands	r2, r1
 8001d8a:	635a      	str	r2, [r3, #52]	; 0x34
    
    /* Set the SQx bits for the selected rank */
    hadc->Instance->SQR3 |= ADC_SQR3_RK(sConfig->Channel, sConfig->Rank);
 8001d8c:	687b      	ldr	r3, [r7, #4]
 8001d8e:	681b      	ldr	r3, [r3, #0]
 8001d90:	6b59      	ldr	r1, [r3, #52]	; 0x34
 8001d92:	683b      	ldr	r3, [r7, #0]
 8001d94:	681b      	ldr	r3, [r3, #0]
 8001d96:	b29b      	uxth	r3, r3
 8001d98:	4618      	mov	r0, r3
 8001d9a:	683b      	ldr	r3, [r7, #0]
 8001d9c:	685a      	ldr	r2, [r3, #4]
 8001d9e:	4613      	mov	r3, r2
 8001da0:	009b      	lsls	r3, r3, #2
 8001da2:	4413      	add	r3, r2
 8001da4:	3b05      	subs	r3, #5
 8001da6:	fa00 f203 	lsl.w	r2, r0, r3
 8001daa:	687b      	ldr	r3, [r7, #4]
 8001dac:	681b      	ldr	r3, [r3, #0]
 8001dae:	430a      	orrs	r2, r1
 8001db0:	635a      	str	r2, [r3, #52]	; 0x34
 8001db2:	e04c      	b.n	8001e4e <HAL_ADC_ConfigChannel+0x1aa>
  }
  /* For Rank 7 to 12 */
  else if (sConfig->Rank < 13U)
 8001db4:	683b      	ldr	r3, [r7, #0]
 8001db6:	685b      	ldr	r3, [r3, #4]
 8001db8:	2b0c      	cmp	r3, #12
 8001dba:	d824      	bhi.n	8001e06 <HAL_ADC_ConfigChannel+0x162>
  {
    /* Clear the old SQx bits for the selected rank */
    hadc->Instance->SQR2 &= ~ADC_SQR2_RK(ADC_SQR2_SQ7, sConfig->Rank);
 8001dbc:	687b      	ldr	r3, [r7, #4]
 8001dbe:	681b      	ldr	r3, [r3, #0]
 8001dc0:	6b19      	ldr	r1, [r3, #48]	; 0x30
 8001dc2:	683b      	ldr	r3, [r7, #0]
 8001dc4:	685a      	ldr	r2, [r3, #4]
 8001dc6:	4613      	mov	r3, r2
 8001dc8:	009b      	lsls	r3, r3, #2
 8001dca:	4413      	add	r3, r2
 8001dcc:	3b23      	subs	r3, #35	; 0x23
 8001dce:	221f      	movs	r2, #31
 8001dd0:	fa02 f303 	lsl.w	r3, r2, r3
 8001dd4:	43da      	mvns	r2, r3
 8001dd6:	687b      	ldr	r3, [r7, #4]
 8001dd8:	681b      	ldr	r3, [r3, #0]
 8001dda:	400a      	ands	r2, r1
 8001ddc:	631a      	str	r2, [r3, #48]	; 0x30
    
    /* Set the SQx bits for the selected rank */
    hadc->Instance->SQR2 |= ADC_SQR2_RK(sConfig->Channel, sConfig->Rank);
 8001dde:	687b      	ldr	r3, [r7, #4]
 8001de0:	681b      	ldr	r3, [r3, #0]
 8001de2:	6b19      	ldr	r1, [r3, #48]	; 0x30
 8001de4:	683b      	ldr	r3, [r7, #0]
 8001de6:	681b      	ldr	r3, [r3, #0]
 8001de8:	b29b      	uxth	r3, r3
 8001dea:	4618      	mov	r0, r3
 8001dec:	683b      	ldr	r3, [r7, #0]
 8001dee:	685a      	ldr	r2, [r3, #4]
 8001df0:	4613      	mov	r3, r2
 8001df2:	009b      	lsls	r3, r3, #2
 8001df4:	4413      	add	r3, r2
 8001df6:	3b23      	subs	r3, #35	; 0x23
 8001df8:	fa00 f203 	lsl.w	r2, r0, r3
 8001dfc:	687b      	ldr	r3, [r7, #4]
 8001dfe:	681b      	ldr	r3, [r3, #0]
 8001e00:	430a      	orrs	r2, r1
 8001e02:	631a      	str	r2, [r3, #48]	; 0x30
 8001e04:	e023      	b.n	8001e4e <HAL_ADC_ConfigChannel+0x1aa>
  }
  /* For Rank 13 to 16 */
  else
  {
    /* Clear the old SQx bits for the selected rank */
    hadc->Instance->SQR1 &= ~ADC_SQR1_RK(ADC_SQR1_SQ13, sConfig->Rank);
 8001e06:	687b      	ldr	r3, [r7, #4]
 8001e08:	681b      	ldr	r3, [r3, #0]
 8001e0a:	6ad9      	ldr	r1, [r3, #44]	; 0x2c
 8001e0c:	683b      	ldr	r3, [r7, #0]
 8001e0e:	685a      	ldr	r2, [r3, #4]
 8001e10:	4613      	mov	r3, r2
 8001e12:	009b      	lsls	r3, r3, #2
 8001e14:	4413      	add	r3, r2
 8001e16:	3b41      	subs	r3, #65	; 0x41
 8001e18:	221f      	movs	r2, #31
 8001e1a:	fa02 f303 	lsl.w	r3, r2, r3
 8001e1e:	43da      	mvns	r2, r3
 8001e20:	687b      	ldr	r3, [r7, #4]
 8001e22:	681b      	ldr	r3, [r3, #0]
 8001e24:	400a      	ands	r2, r1
 8001e26:	62da      	str	r2, [r3, #44]	; 0x2c
    
    /* Set the SQx bits for the selected rank */
    hadc->Instance->SQR1 |= ADC_SQR1_RK(sConfig->Channel, sConfig->Rank);
 8001e28:	687b      	ldr	r3, [r7, #4]
 8001e2a:	681b      	ldr	r3, [r3, #0]
 8001e2c:	6ad9      	ldr	r1, [r3, #44]	; 0x2c
 8001e2e:	683b      	ldr	r3, [r7, #0]
 8001e30:	681b      	ldr	r3, [r3, #0]
 8001e32:	b29b      	uxth	r3, r3
 8001e34:	4618      	mov	r0, r3
 8001e36:	683b      	ldr	r3, [r7, #0]
 8001e38:	685a      	ldr	r2, [r3, #4]
 8001e3a:	4613      	mov	r3, r2
 8001e3c:	009b      	lsls	r3, r3, #2
 8001e3e:	4413      	add	r3, r2
 8001e40:	3b41      	subs	r3, #65	; 0x41
 8001e42:	fa00 f203 	lsl.w	r2, r0, r3
 8001e46:	687b      	ldr	r3, [r7, #4]
 8001e48:	681b      	ldr	r3, [r3, #0]
 8001e4a:	430a      	orrs	r2, r1
 8001e4c:	62da      	str	r2, [r3, #44]	; 0x2c
  }

    /* Pointer to the common control register to which is belonging hadc    */
    /* (Depending on STM32F4 product, there may be up to 3 ADCs and 1 common */
    /* control register)                                                    */
    tmpADC_Common = ADC_COMMON_REGISTER(hadc);
 8001e4e:	4b29      	ldr	r3, [pc, #164]	; (8001ef4 <HAL_ADC_ConfigChannel+0x250>)
 8001e50:	60fb      	str	r3, [r7, #12]

  /* if ADC1 Channel_18 is selected for VBAT Channel ennable VBATE */
  if ((hadc->Instance == ADC1) && (sConfig->Channel == ADC_CHANNEL_VBAT))
 8001e52:	687b      	ldr	r3, [r7, #4]
 8001e54:	681b      	ldr	r3, [r3, #0]
 8001e56:	4a28      	ldr	r2, [pc, #160]	; (8001ef8 <HAL_ADC_ConfigChannel+0x254>)
 8001e58:	4293      	cmp	r3, r2
 8001e5a:	d10f      	bne.n	8001e7c <HAL_ADC_ConfigChannel+0x1d8>
 8001e5c:	683b      	ldr	r3, [r7, #0]
 8001e5e:	681b      	ldr	r3, [r3, #0]
 8001e60:	2b12      	cmp	r3, #18
 8001e62:	d10b      	bne.n	8001e7c <HAL_ADC_ConfigChannel+0x1d8>
  {
    /* Disable the TEMPSENSOR channel in case of using board with multiplixed ADC_CHANNEL_VBAT & ADC_CHANNEL_TEMPSENSOR*/    
    if ((uint16_t)ADC_CHANNEL_TEMPSENSOR == (uint16_t)ADC_CHANNEL_VBAT)
    {
      tmpADC_Common->CCR &= ~ADC_CCR_TSVREFE;
 8001e64:	68fb      	ldr	r3, [r7, #12]
 8001e66:	685b      	ldr	r3, [r3, #4]
 8001e68:	f423 0200 	bic.w	r2, r3, #8388608	; 0x800000
 8001e6c:	68fb      	ldr	r3, [r7, #12]
 8001e6e:	605a      	str	r2, [r3, #4]
    }
    /* Enable the VBAT channel*/
    tmpADC_Common->CCR |= ADC_CCR_VBATE;
 8001e70:	68fb      	ldr	r3, [r7, #12]
 8001e72:	685b      	ldr	r3, [r3, #4]
 8001e74:	f443 0280 	orr.w	r2, r3, #4194304	; 0x400000
 8001e78:	68fb      	ldr	r3, [r7, #12]
 8001e7a:	605a      	str	r2, [r3, #4]
  }
  
  /* if ADC1 Channel_16 or Channel_18 is selected for Temperature sensor or 
     Channel_17 is selected for VREFINT enable TSVREFE */
  if ((hadc->Instance == ADC1) && ((sConfig->Channel == ADC_CHANNEL_TEMPSENSOR) || (sConfig->Channel == ADC_CHANNEL_VREFINT)))
 8001e7c:	687b      	ldr	r3, [r7, #4]
 8001e7e:	681b      	ldr	r3, [r3, #0]
 8001e80:	4a1d      	ldr	r2, [pc, #116]	; (8001ef8 <HAL_ADC_ConfigChannel+0x254>)
 8001e82:	4293      	cmp	r3, r2
 8001e84:	d12b      	bne.n	8001ede <HAL_ADC_ConfigChannel+0x23a>
 8001e86:	683b      	ldr	r3, [r7, #0]
 8001e88:	681b      	ldr	r3, [r3, #0]
 8001e8a:	4a1c      	ldr	r2, [pc, #112]	; (8001efc <HAL_ADC_ConfigChannel+0x258>)
 8001e8c:	4293      	cmp	r3, r2
 8001e8e:	d003      	beq.n	8001e98 <HAL_ADC_ConfigChannel+0x1f4>
 8001e90:	683b      	ldr	r3, [r7, #0]
 8001e92:	681b      	ldr	r3, [r3, #0]
 8001e94:	2b11      	cmp	r3, #17
 8001e96:	d122      	bne.n	8001ede <HAL_ADC_ConfigChannel+0x23a>
  {
    /* Disable the VBAT channel in case of using board with multiplixed ADC_CHANNEL_VBAT & ADC_CHANNEL_TEMPSENSOR*/
    if ((uint16_t)ADC_CHANNEL_TEMPSENSOR == (uint16_t)ADC_CHANNEL_VBAT)
    {
      tmpADC_Common->CCR &= ~ADC_CCR_VBATE;
 8001e98:	68fb      	ldr	r3, [r7, #12]
 8001e9a:	685b      	ldr	r3, [r3, #4]
 8001e9c:	f423 0280 	bic.w	r2, r3, #4194304	; 0x400000
 8001ea0:	68fb      	ldr	r3, [r7, #12]
 8001ea2:	605a      	str	r2, [r3, #4]
    }
    /* Enable the Temperature sensor and VREFINT channel*/
    tmpADC_Common->CCR |= ADC_CCR_TSVREFE;
 8001ea4:	68fb      	ldr	r3, [r7, #12]
 8001ea6:	685b      	ldr	r3, [r3, #4]
 8001ea8:	f443 0200 	orr.w	r2, r3, #8388608	; 0x800000
 8001eac:	68fb      	ldr	r3, [r7, #12]
 8001eae:	605a      	str	r2, [r3, #4]
    
    if((sConfig->Channel == ADC_CHANNEL_TEMPSENSOR))
 8001eb0:	683b      	ldr	r3, [r7, #0]
 8001eb2:	681b      	ldr	r3, [r3, #0]
 8001eb4:	4a11      	ldr	r2, [pc, #68]	; (8001efc <HAL_ADC_ConfigChannel+0x258>)
 8001eb6:	4293      	cmp	r3, r2
 8001eb8:	d111      	bne.n	8001ede <HAL_ADC_ConfigChannel+0x23a>
    {
      /* Delay for temperature sensor stabilization time */
      /* Compute number of CPU cycles to wait for */
      counter = (ADC_TEMPSENSOR_DELAY_US * (SystemCoreClock / 1000000U));
 8001eba:	4b11      	ldr	r3, [pc, #68]	; (8001f00 <HAL_ADC_ConfigChannel+0x25c>)
 8001ebc:	681b      	ldr	r3, [r3, #0]
 8001ebe:	4a11      	ldr	r2, [pc, #68]	; (8001f04 <HAL_ADC_ConfigChannel+0x260>)
 8001ec0:	fba2 2303 	umull	r2, r3, r2, r3
 8001ec4:	0c9a      	lsrs	r2, r3, #18
 8001ec6:	4613      	mov	r3, r2
 8001ec8:	009b      	lsls	r3, r3, #2
 8001eca:	4413      	add	r3, r2
 8001ecc:	005b      	lsls	r3, r3, #1
 8001ece:	60bb      	str	r3, [r7, #8]
      while(counter != 0U)
 8001ed0:	e002      	b.n	8001ed8 <HAL_ADC_ConfigChannel+0x234>
      {
        counter--;
 8001ed2:	68bb      	ldr	r3, [r7, #8]
 8001ed4:	3b01      	subs	r3, #1
 8001ed6:	60bb      	str	r3, [r7, #8]
      while(counter != 0U)
 8001ed8:	68bb      	ldr	r3, [r7, #8]
 8001eda:	2b00      	cmp	r3, #0
 8001edc:	d1f9      	bne.n	8001ed2 <HAL_ADC_ConfigChannel+0x22e>
      }
    }
  }
  
  /* Process unlocked */
  __HAL_UNLOCK(hadc);
 8001ede:	687b      	ldr	r3, [r7, #4]
 8001ee0:	2200      	movs	r2, #0
 8001ee2:	f883 203c 	strb.w	r2, [r3, #60]	; 0x3c
  
  /* Return function status */
  return HAL_OK;
 8001ee6:	2300      	movs	r3, #0
}
 8001ee8:	4618      	mov	r0, r3
 8001eea:	3714      	adds	r7, #20
 8001eec:	46bd      	mov	sp, r7
 8001eee:	f85d 7b04 	ldr.w	r7, [sp], #4
 8001ef2:	4770      	bx	lr
 8001ef4:	40012300 	.word	0x40012300
 8001ef8:	40012000 	.word	0x40012000
 8001efc:	10000012 	.word	0x10000012
 8001f00:	20000008 	.word	0x20000008
 8001f04:	431bde83 	.word	0x431bde83

08001f08 <ADC_Init>:
  * @param  hadc pointer to a ADC_HandleTypeDef structure that contains
  *         the configuration information for the specified ADC.  
  * @retval None
  */
static void ADC_Init(ADC_HandleTypeDef* hadc)
{
 8001f08:	b480      	push	{r7}
 8001f0a:	b085      	sub	sp, #20
 8001f0c:	af00      	add	r7, sp, #0
 8001f0e:	6078      	str	r0, [r7, #4]
  
  /* Set ADC parameters */
  /* Pointer to the common control register to which is belonging hadc    */
  /* (Depending on STM32F4 product, there may be up to 3 ADCs and 1 common */
  /* control register)                                                    */
  tmpADC_Common = ADC_COMMON_REGISTER(hadc);
 8001f10:	4b79      	ldr	r3, [pc, #484]	; (80020f8 <ADC_Init+0x1f0>)
 8001f12:	60fb      	str	r3, [r7, #12]
  
  /* Set the ADC clock prescaler */
  tmpADC_Common->CCR &= ~(ADC_CCR_ADCPRE);
 8001f14:	68fb      	ldr	r3, [r7, #12]
 8001f16:	685b      	ldr	r3, [r3, #4]
 8001f18:	f423 3240 	bic.w	r2, r3, #196608	; 0x30000
 8001f1c:	68fb      	ldr	r3, [r7, #12]
 8001f1e:	605a      	str	r2, [r3, #4]
  tmpADC_Common->CCR |=  hadc->Init.ClockPrescaler;
 8001f20:	68fb      	ldr	r3, [r7, #12]
 8001f22:	685a      	ldr	r2, [r3, #4]
 8001f24:	687b      	ldr	r3, [r7, #4]
 8001f26:	685b      	ldr	r3, [r3, #4]
 8001f28:	431a      	orrs	r2, r3
 8001f2a:	68fb      	ldr	r3, [r7, #12]
 8001f2c:	605a      	str	r2, [r3, #4]
  
  /* Set ADC scan mode */
  hadc->Instance->CR1 &= ~(ADC_CR1_SCAN);
 8001f2e:	687b      	ldr	r3, [r7, #4]
 8001f30:	681b      	ldr	r3, [r3, #0]
 8001f32:	685a      	ldr	r2, [r3, #4]
 8001f34:	687b      	ldr	r3, [r7, #4]
 8001f36:	681b      	ldr	r3, [r3, #0]
 8001f38:	f422 7280 	bic.w	r2, r2, #256	; 0x100
 8001f3c:	605a      	str	r2, [r3, #4]
  hadc->Instance->CR1 |=  ADC_CR1_SCANCONV(hadc->Init.ScanConvMode);
 8001f3e:	687b      	ldr	r3, [r7, #4]
 8001f40:	681b      	ldr	r3, [r3, #0]
 8001f42:	6859      	ldr	r1, [r3, #4]
 8001f44:	687b      	ldr	r3, [r7, #4]
 8001f46:	691b      	ldr	r3, [r3, #16]
 8001f48:	021a      	lsls	r2, r3, #8
 8001f4a:	687b      	ldr	r3, [r7, #4]
 8001f4c:	681b      	ldr	r3, [r3, #0]
 8001f4e:	430a      	orrs	r2, r1
 8001f50:	605a      	str	r2, [r3, #4]
  
  /* Set ADC resolution */
  hadc->Instance->CR1 &= ~(ADC_CR1_RES);
 8001f52:	687b      	ldr	r3, [r7, #4]
 8001f54:	681b      	ldr	r3, [r3, #0]
 8001f56:	685a      	ldr	r2, [r3, #4]
 8001f58:	687b      	ldr	r3, [r7, #4]
 8001f5a:	681b      	ldr	r3, [r3, #0]
 8001f5c:	f022 7240 	bic.w	r2, r2, #50331648	; 0x3000000
 8001f60:	605a      	str	r2, [r3, #4]
  hadc->Instance->CR1 |=  hadc->Init.Resolution;
 8001f62:	687b      	ldr	r3, [r7, #4]
 8001f64:	681b      	ldr	r3, [r3, #0]
 8001f66:	6859      	ldr	r1, [r3, #4]
 8001f68:	687b      	ldr	r3, [r7, #4]
 8001f6a:	689a      	ldr	r2, [r3, #8]
 8001f6c:	687b      	ldr	r3, [r7, #4]
 8001f6e:	681b      	ldr	r3, [r3, #0]
 8001f70:	430a      	orrs	r2, r1
 8001f72:	605a      	str	r2, [r3, #4]
  
  /* Set ADC data alignment */
  hadc->Instance->CR2 &= ~(ADC_CR2_ALIGN);
 8001f74:	687b      	ldr	r3, [r7, #4]
 8001f76:	681b      	ldr	r3, [r3, #0]
 8001f78:	689a      	ldr	r2, [r3, #8]
 8001f7a:	687b      	ldr	r3, [r7, #4]
 8001f7c:	681b      	ldr	r3, [r3, #0]
 8001f7e:	f422 6200 	bic.w	r2, r2, #2048	; 0x800
 8001f82:	609a      	str	r2, [r3, #8]
  hadc->Instance->CR2 |= hadc->Init.DataAlign;
 8001f84:	687b      	ldr	r3, [r7, #4]
 8001f86:	681b      	ldr	r3, [r3, #0]
 8001f88:	6899      	ldr	r1, [r3, #8]
 8001f8a:	687b      	ldr	r3, [r7, #4]
 8001f8c:	68da      	ldr	r2, [r3, #12]
 8001f8e:	687b      	ldr	r3, [r7, #4]
 8001f90:	681b      	ldr	r3, [r3, #0]
 8001f92:	430a      	orrs	r2, r1
 8001f94:	609a      	str	r2, [r3, #8]
  /* Enable external trigger if trigger selection is different of software  */
  /* start.                                                                 */
  /* Note: This configuration keeps the hardware feature of parameter       */
  /*       ExternalTrigConvEdge "trigger edge none" equivalent to           */
  /*       software start.                                                  */
  if(hadc->Init.ExternalTrigConv != ADC_SOFTWARE_START)
 8001f96:	687b      	ldr	r3, [r7, #4]
 8001f98:	6a9b      	ldr	r3, [r3, #40]	; 0x28
 8001f9a:	4a58      	ldr	r2, [pc, #352]	; (80020fc <ADC_Init+0x1f4>)
 8001f9c:	4293      	cmp	r3, r2
 8001f9e:	d022      	beq.n	8001fe6 <ADC_Init+0xde>
  {
    /* Select external trigger to start conversion */
    hadc->Instance->CR2 &= ~(ADC_CR2_EXTSEL);
 8001fa0:	687b      	ldr	r3, [r7, #4]
 8001fa2:	681b      	ldr	r3, [r3, #0]
 8001fa4:	689a      	ldr	r2, [r3, #8]
 8001fa6:	687b      	ldr	r3, [r7, #4]
 8001fa8:	681b      	ldr	r3, [r3, #0]
 8001faa:	f022 6270 	bic.w	r2, r2, #251658240	; 0xf000000
 8001fae:	609a      	str	r2, [r3, #8]
    hadc->Instance->CR2 |= hadc->Init.ExternalTrigConv;
 8001fb0:	687b      	ldr	r3, [r7, #4]
 8001fb2:	681b      	ldr	r3, [r3, #0]
 8001fb4:	6899      	ldr	r1, [r3, #8]
 8001fb6:	687b      	ldr	r3, [r7, #4]
 8001fb8:	6a9a      	ldr	r2, [r3, #40]	; 0x28
 8001fba:	687b      	ldr	r3, [r7, #4]
 8001fbc:	681b      	ldr	r3, [r3, #0]
 8001fbe:	430a      	orrs	r2, r1
 8001fc0:	609a      	str	r2, [r3, #8]
    
    /* Select external trigger polarity */
    hadc->Instance->CR2 &= ~(ADC_CR2_EXTEN);
 8001fc2:	687b      	ldr	r3, [r7, #4]
 8001fc4:	681b      	ldr	r3, [r3, #0]
 8001fc6:	689a      	ldr	r2, [r3, #8]
 8001fc8:	687b      	ldr	r3, [r7, #4]
 8001fca:	681b      	ldr	r3, [r3, #0]
 8001fcc:	f022 5240 	bic.w	r2, r2, #805306368	; 0x30000000
 8001fd0:	609a      	str	r2, [r3, #8]
    hadc->Instance->CR2 |= hadc->Init.ExternalTrigConvEdge;
 8001fd2:	687b      	ldr	r3, [r7, #4]
 8001fd4:	681b      	ldr	r3, [r3, #0]
 8001fd6:	6899      	ldr	r1, [r3, #8]
 8001fd8:	687b      	ldr	r3, [r7, #4]
 8001fda:	6ada      	ldr	r2, [r3, #44]	; 0x2c
 8001fdc:	687b      	ldr	r3, [r7, #4]
 8001fde:	681b      	ldr	r3, [r3, #0]
 8001fe0:	430a      	orrs	r2, r1
 8001fe2:	609a      	str	r2, [r3, #8]
 8001fe4:	e00f      	b.n	8002006 <ADC_Init+0xfe>
  }
  else
  {
    /* Reset the external trigger */
    hadc->Instance->CR2 &= ~(ADC_CR2_EXTSEL);
 8001fe6:	687b      	ldr	r3, [r7, #4]
 8001fe8:	681b      	ldr	r3, [r3, #0]
 8001fea:	689a      	ldr	r2, [r3, #8]
 8001fec:	687b      	ldr	r3, [r7, #4]
 8001fee:	681b      	ldr	r3, [r3, #0]
 8001ff0:	f022 6270 	bic.w	r2, r2, #251658240	; 0xf000000
 8001ff4:	609a      	str	r2, [r3, #8]
    hadc->Instance->CR2 &= ~(ADC_CR2_EXTEN);
 8001ff6:	687b      	ldr	r3, [r7, #4]
 8001ff8:	681b      	ldr	r3, [r3, #0]
 8001ffa:	689a      	ldr	r2, [r3, #8]
 8001ffc:	687b      	ldr	r3, [r7, #4]
 8001ffe:	681b      	ldr	r3, [r3, #0]
 8002000:	f022 5240 	bic.w	r2, r2, #805306368	; 0x30000000
 8002004:	609a      	str	r2, [r3, #8]
  }
  
  /* Enable or disable ADC continuous conversion mode */
  hadc->Instance->CR2 &= ~(ADC_CR2_CONT);
 8002006:	687b      	ldr	r3, [r7, #4]
 8002008:	681b      	ldr	r3, [r3, #0]
 800200a:	689a      	ldr	r2, [r3, #8]
 800200c:	687b      	ldr	r3, [r7, #4]
 800200e:	681b      	ldr	r3, [r3, #0]
 8002010:	f022 0202 	bic.w	r2, r2, #2
 8002014:	609a      	str	r2, [r3, #8]
  hadc->Instance->CR2 |= ADC_CR2_CONTINUOUS((uint32_t)hadc->Init.ContinuousConvMode);
 8002016:	687b      	ldr	r3, [r7, #4]
 8002018:	681b      	ldr	r3, [r3, #0]
 800201a:	6899      	ldr	r1, [r3, #8]
 800201c:	687b      	ldr	r3, [r7, #4]
 800201e:	7e1b      	ldrb	r3, [r3, #24]
 8002020:	005a      	lsls	r2, r3, #1
 8002022:	687b      	ldr	r3, [r7, #4]
 8002024:	681b      	ldr	r3, [r3, #0]
 8002026:	430a      	orrs	r2, r1
 8002028:	609a      	str	r2, [r3, #8]
  
  if(hadc->Init.DiscontinuousConvMode != DISABLE)
 800202a:	687b      	ldr	r3, [r7, #4]
 800202c:	f893 3020 	ldrb.w	r3, [r3, #32]
 8002030:	2b00      	cmp	r3, #0
 8002032:	d01b      	beq.n	800206c <ADC_Init+0x164>
  {
    assert_param(IS_ADC_REGULAR_DISC_NUMBER(hadc->Init.NbrOfDiscConversion));
  
    /* Enable the selected ADC regular discontinuous mode */
    hadc->Instance->CR1 |= (uint32_t)ADC_CR1_DISCEN;
 8002034:	687b      	ldr	r3, [r7, #4]
 8002036:	681b      	ldr	r3, [r3, #0]
 8002038:	685a      	ldr	r2, [r3, #4]
 800203a:	687b      	ldr	r3, [r7, #4]
 800203c:	681b      	ldr	r3, [r3, #0]
 800203e:	f442 6200 	orr.w	r2, r2, #2048	; 0x800
 8002042:	605a      	str	r2, [r3, #4]
    
    /* Set the number of channels to be converted in discontinuous mode */
    hadc->Instance->CR1 &= ~(ADC_CR1_DISCNUM);
 8002044:	687b      	ldr	r3, [r7, #4]
 8002046:	681b      	ldr	r3, [r3, #0]
 8002048:	685a      	ldr	r2, [r3, #4]
 800204a:	687b      	ldr	r3, [r7, #4]
 800204c:	681b      	ldr	r3, [r3, #0]
 800204e:	f422 4260 	bic.w	r2, r2, #57344	; 0xe000
 8002052:	605a      	str	r2, [r3, #4]
    hadc->Instance->CR1 |=  ADC_CR1_DISCONTINUOUS(hadc->Init.NbrOfDiscConversion);
 8002054:	687b      	ldr	r3, [r7, #4]
 8002056:	681b      	ldr	r3, [r3, #0]
 8002058:	6859      	ldr	r1, [r3, #4]
 800205a:	687b      	ldr	r3, [r7, #4]
 800205c:	6a5b      	ldr	r3, [r3, #36]	; 0x24
 800205e:	3b01      	subs	r3, #1
 8002060:	035a      	lsls	r2, r3, #13
 8002062:	687b      	ldr	r3, [r7, #4]
 8002064:	681b      	ldr	r3, [r3, #0]
 8002066:	430a      	orrs	r2, r1
 8002068:	605a      	str	r2, [r3, #4]
 800206a:	e007      	b.n	800207c <ADC_Init+0x174>
  }
  else
  {
    /* Disable the selected ADC regular discontinuous mode */
    hadc->Instance->CR1 &= ~(ADC_CR1_DISCEN);
 800206c:	687b      	ldr	r3, [r7, #4]
 800206e:	681b      	ldr	r3, [r3, #0]
 8002070:	685a      	ldr	r2, [r3, #4]
 8002072:	687b      	ldr	r3, [r7, #4]
 8002074:	681b      	ldr	r3, [r3, #0]
 8002076:	f422 6200 	bic.w	r2, r2, #2048	; 0x800
 800207a:	605a      	str	r2, [r3, #4]
  }
  
  /* Set ADC number of conversion */
  hadc->Instance->SQR1 &= ~(ADC_SQR1_L);
 800207c:	687b      	ldr	r3, [r7, #4]
 800207e:	681b      	ldr	r3, [r3, #0]
 8002080:	6ada      	ldr	r2, [r3, #44]	; 0x2c
 8002082:	687b      	ldr	r3, [r7, #4]
 8002084:	681b      	ldr	r3, [r3, #0]
 8002086:	f422 0270 	bic.w	r2, r2, #15728640	; 0xf00000
 800208a:	62da      	str	r2, [r3, #44]	; 0x2c
  hadc->Instance->SQR1 |=  ADC_SQR1(hadc->Init.NbrOfConversion);
 800208c:	687b      	ldr	r3, [r7, #4]
 800208e:	681b      	ldr	r3, [r3, #0]
 8002090:	6ad9      	ldr	r1, [r3, #44]	; 0x2c
 8002092:	687b      	ldr	r3, [r7, #4]
 8002094:	69db      	ldr	r3, [r3, #28]
 8002096:	3b01      	subs	r3, #1
 8002098:	051a      	lsls	r2, r3, #20
 800209a:	687b      	ldr	r3, [r7, #4]
 800209c:	681b      	ldr	r3, [r3, #0]
 800209e:	430a      	orrs	r2, r1
 80020a0:	62da      	str	r2, [r3, #44]	; 0x2c
  
  /* Enable or disable ADC DMA continuous request */
  hadc->Instance->CR2 &= ~(ADC_CR2_DDS);
 80020a2:	687b      	ldr	r3, [r7, #4]
 80020a4:	681b      	ldr	r3, [r3, #0]
 80020a6:	689a      	ldr	r2, [r3, #8]
 80020a8:	687b      	ldr	r3, [r7, #4]
 80020aa:	681b      	ldr	r3, [r3, #0]
 80020ac:	f422 7200 	bic.w	r2, r2, #512	; 0x200
 80020b0:	609a      	str	r2, [r3, #8]
  hadc->Instance->CR2 |= ADC_CR2_DMAContReq((uint32_t)hadc->Init.DMAContinuousRequests);
 80020b2:	687b      	ldr	r3, [r7, #4]
 80020b4:	681b      	ldr	r3, [r3, #0]
 80020b6:	6899      	ldr	r1, [r3, #8]
 80020b8:	687b      	ldr	r3, [r7, #4]
 80020ba:	f893 3030 	ldrb.w	r3, [r3, #48]	; 0x30
 80020be:	025a      	lsls	r2, r3, #9
 80020c0:	687b      	ldr	r3, [r7, #4]
 80020c2:	681b      	ldr	r3, [r3, #0]
 80020c4:	430a      	orrs	r2, r1
 80020c6:	609a      	str	r2, [r3, #8]
  
  /* Enable or disable ADC end of conversion selection */
  hadc->Instance->CR2 &= ~(ADC_CR2_EOCS);
 80020c8:	687b      	ldr	r3, [r7, #4]
 80020ca:	681b      	ldr	r3, [r3, #0]
 80020cc:	689a      	ldr	r2, [r3, #8]
 80020ce:	687b      	ldr	r3, [r7, #4]
 80020d0:	681b      	ldr	r3, [r3, #0]
 80020d2:	f422 6280 	bic.w	r2, r2, #1024	; 0x400
 80020d6:	609a      	str	r2, [r3, #8]
  hadc->Instance->CR2 |= ADC_CR2_EOCSelection(hadc->Init.EOCSelection);
 80020d8:	687b      	ldr	r3, [r7, #4]
 80020da:	681b      	ldr	r3, [r3, #0]
 80020dc:	6899      	ldr	r1, [r3, #8]
 80020de:	687b      	ldr	r3, [r7, #4]
 80020e0:	695b      	ldr	r3, [r3, #20]
 80020e2:	029a      	lsls	r2, r3, #10
 80020e4:	687b      	ldr	r3, [r7, #4]
 80020e6:	681b      	ldr	r3, [r3, #0]
 80020e8:	430a      	orrs	r2, r1
 80020ea:	609a      	str	r2, [r3, #8]
}
 80020ec:	bf00      	nop
 80020ee:	3714      	adds	r7, #20
 80020f0:	46bd      	mov	sp, r7
 80020f2:	f85d 7b04 	ldr.w	r7, [sp], #4
 80020f6:	4770      	bx	lr
 80020f8:	40012300 	.word	0x40012300
 80020fc:	0f000001 	.word	0x0f000001

08002100 <__NVIC_SetPriorityGrouping>:
           In case of a conflict between priority grouping and available
           priority bits (__NVIC_PRIO_BITS), the smallest possible priority group is set.
  \param [in]      PriorityGroup  Priority grouping field.
 */
__STATIC_INLINE void __NVIC_SetPriorityGrouping(uint32_t PriorityGroup)
{
 8002100:	b480      	push	{r7}
 8002102:	b085      	sub	sp, #20
 8002104:	af00      	add	r7, sp, #0
 8002106:	6078      	str	r0, [r7, #4]
  uint32_t reg_value;
  uint32_t PriorityGroupTmp = (PriorityGroup & (uint32_t)0x07UL);             /* only values 0..7 are used          */
 8002108:	687b      	ldr	r3, [r7, #4]
 800210a:	f003 0307 	and.w	r3, r3, #7
 800210e:	60fb      	str	r3, [r7, #12]

  reg_value  =  SCB->AIRCR;                                                   /* read old register configuration    */
 8002110:	4b0c      	ldr	r3, [pc, #48]	; (8002144 <__NVIC_SetPriorityGrouping+0x44>)
 8002112:	68db      	ldr	r3, [r3, #12]
 8002114:	60bb      	str	r3, [r7, #8]
  reg_value &= ~((uint32_t)(SCB_AIRCR_VECTKEY_Msk | SCB_AIRCR_PRIGROUP_Msk)); /* clear bits to change               */
 8002116:	68ba      	ldr	r2, [r7, #8]
 8002118:	f64f 03ff 	movw	r3, #63743	; 0xf8ff
 800211c:	4013      	ands	r3, r2
 800211e:	60bb      	str	r3, [r7, #8]
  reg_value  =  (reg_value                                   |
                ((uint32_t)0x5FAUL << SCB_AIRCR_VECTKEY_Pos) |
                (PriorityGroupTmp << SCB_AIRCR_PRIGROUP_Pos)  );              /* Insert write key and priority group */
 8002120:	68fb      	ldr	r3, [r7, #12]
 8002122:	021a      	lsls	r2, r3, #8
                ((uint32_t)0x5FAUL << SCB_AIRCR_VECTKEY_Pos) |
 8002124:	68bb      	ldr	r3, [r7, #8]
 8002126:	4313      	orrs	r3, r2
  reg_value  =  (reg_value                                   |
 8002128:	f043 63bf 	orr.w	r3, r3, #100139008	; 0x5f80000
 800212c:	f443 3300 	orr.w	r3, r3, #131072	; 0x20000
 8002130:	60bb      	str	r3, [r7, #8]
  SCB->AIRCR =  reg_value;
 8002132:	4a04      	ldr	r2, [pc, #16]	; (8002144 <__NVIC_SetPriorityGrouping+0x44>)
 8002134:	68bb      	ldr	r3, [r7, #8]
 8002136:	60d3      	str	r3, [r2, #12]
}
 8002138:	bf00      	nop
 800213a:	3714      	adds	r7, #20
 800213c:	46bd      	mov	sp, r7
 800213e:	f85d 7b04 	ldr.w	r7, [sp], #4
 8002142:	4770      	bx	lr
 8002144:	e000ed00 	.word	0xe000ed00

08002148 <__NVIC_GetPriorityGrouping>:
  \brief   Get Priority Grouping
  \details Reads the priority grouping field from the NVIC Interrupt Controller.
  \return                Priority grouping field (SCB->AIRCR [10:8] PRIGROUP field).
 */
__STATIC_INLINE uint32_t __NVIC_GetPriorityGrouping(void)
{
 8002148:	b480      	push	{r7}
 800214a:	af00      	add	r7, sp, #0
  return ((uint32_t)((SCB->AIRCR & SCB_AIRCR_PRIGROUP_Msk) >> SCB_AIRCR_PRIGROUP_Pos));
 800214c:	4b04      	ldr	r3, [pc, #16]	; (8002160 <__NVIC_GetPriorityGrouping+0x18>)
 800214e:	68db      	ldr	r3, [r3, #12]
 8002150:	0a1b      	lsrs	r3, r3, #8
 8002152:	f003 0307 	and.w	r3, r3, #7
}
 8002156:	4618      	mov	r0, r3
 8002158:	46bd      	mov	sp, r7
 800215a:	f85d 7b04 	ldr.w	r7, [sp], #4
 800215e:	4770      	bx	lr
 8002160:	e000ed00 	.word	0xe000ed00

08002164 <__NVIC_EnableIRQ>:
  \details Enables a device specific interrupt in the NVIC interrupt controller.
  \param [in]      IRQn  Device specific interrupt number.
  \note    IRQn must not be negative.
 */
__STATIC_INLINE void __NVIC_EnableIRQ(IRQn_Type IRQn)
{
 8002164:	b480      	push	{r7}
 8002166:	b083      	sub	sp, #12
 8002168:	af00      	add	r7, sp, #0
 800216a:	4603      	mov	r3, r0
 800216c:	71fb      	strb	r3, [r7, #7]
  if ((int32_t)(IRQn) >= 0)
 800216e:	f997 3007 	ldrsb.w	r3, [r7, #7]
 8002172:	2b00      	cmp	r3, #0
 8002174:	db0b      	blt.n	800218e <__NVIC_EnableIRQ+0x2a>
  {
    NVIC->ISER[(((uint32_t)IRQn) >> 5UL)] = (uint32_t)(1UL << (((uint32_t)IRQn) & 0x1FUL));
 8002176:	79fb      	ldrb	r3, [r7, #7]
 8002178:	f003 021f 	and.w	r2, r3, #31
 800217c:	4907      	ldr	r1, [pc, #28]	; (800219c <__NVIC_EnableIRQ+0x38>)
 800217e:	f997 3007 	ldrsb.w	r3, [r7, #7]
 8002182:	095b      	lsrs	r3, r3, #5
 8002184:	2001      	movs	r0, #1
 8002186:	fa00 f202 	lsl.w	r2, r0, r2
 800218a:	f841 2023 	str.w	r2, [r1, r3, lsl #2]
  }
}
 800218e:	bf00      	nop
 8002190:	370c      	adds	r7, #12
 8002192:	46bd      	mov	sp, r7
 8002194:	f85d 7b04 	ldr.w	r7, [sp], #4
 8002198:	4770      	bx	lr
 800219a:	bf00      	nop
 800219c:	e000e100 	.word	0xe000e100

080021a0 <__NVIC_SetPriority>:
  \param [in]      IRQn  Interrupt number.
  \param [in]  priority  Priority to set.
  \note    The priority cannot be set for every processor exception.
 */
__STATIC_INLINE void __NVIC_SetPriority(IRQn_Type IRQn, uint32_t priority)
{
 80021a0:	b480      	push	{r7}
 80021a2:	b083      	sub	sp, #12
 80021a4:	af00      	add	r7, sp, #0
 80021a6:	4603      	mov	r3, r0
 80021a8:	6039      	str	r1, [r7, #0]
 80021aa:	71fb      	strb	r3, [r7, #7]
  if ((int32_t)(IRQn) >= 0)
 80021ac:	f997 3007 	ldrsb.w	r3, [r7, #7]
 80021b0:	2b00      	cmp	r3, #0
 80021b2:	db0a      	blt.n	80021ca <__NVIC_SetPriority+0x2a>
  {
    NVIC->IP[((uint32_t)IRQn)]               = (uint8_t)((priority << (8U - __NVIC_PRIO_BITS)) & (uint32_t)0xFFUL);
 80021b4:	683b      	ldr	r3, [r7, #0]
 80021b6:	b2da      	uxtb	r2, r3
 80021b8:	490c      	ldr	r1, [pc, #48]	; (80021ec <__NVIC_SetPriority+0x4c>)
 80021ba:	f997 3007 	ldrsb.w	r3, [r7, #7]
 80021be:	0112      	lsls	r2, r2, #4
 80021c0:	b2d2      	uxtb	r2, r2
 80021c2:	440b      	add	r3, r1
 80021c4:	f883 2300 	strb.w	r2, [r3, #768]	; 0x300
  }
  else
  {
    SCB->SHP[(((uint32_t)IRQn) & 0xFUL)-4UL] = (uint8_t)((priority << (8U - __NVIC_PRIO_BITS)) & (uint32_t)0xFFUL);
  }
}
 80021c8:	e00a      	b.n	80021e0 <__NVIC_SetPriority+0x40>
    SCB->SHP[(((uint32_t)IRQn) & 0xFUL)-4UL] = (uint8_t)((priority << (8U - __NVIC_PRIO_BITS)) & (uint32_t)0xFFUL);
 80021ca:	683b      	ldr	r3, [r7, #0]
 80021cc:	b2da      	uxtb	r2, r3
 80021ce:	4908      	ldr	r1, [pc, #32]	; (80021f0 <__NVIC_SetPriority+0x50>)
 80021d0:	79fb      	ldrb	r3, [r7, #7]
 80021d2:	f003 030f 	and.w	r3, r3, #15
 80021d6:	3b04      	subs	r3, #4
 80021d8:	0112      	lsls	r2, r2, #4
 80021da:	b2d2      	uxtb	r2, r2
 80021dc:	440b      	add	r3, r1
 80021de:	761a      	strb	r2, [r3, #24]
}
 80021e0:	bf00      	nop
 80021e2:	370c      	adds	r7, #12
 80021e4:	46bd      	mov	sp, r7
 80021e6:	f85d 7b04 	ldr.w	r7, [sp], #4
 80021ea:	4770      	bx	lr
 80021ec:	e000e100 	.word	0xe000e100
 80021f0:	e000ed00 	.word	0xe000ed00

080021f4 <NVIC_EncodePriority>:
  \param [in]   PreemptPriority  Preemptive priority value (starting from 0).
  \param [in]       SubPriority  Subpriority value (starting from 0).
  \return                        Encoded priority. Value can be used in the function \ref NVIC_SetPriority().
 */
__STATIC_INLINE uint32_t NVIC_EncodePriority (uint32_t PriorityGroup, uint32_t PreemptPriority, uint32_t SubPriority)
{
 80021f4:	b480      	push	{r7}
 80021f6:	b089      	sub	sp, #36	; 0x24
 80021f8:	af00      	add	r7, sp, #0
 80021fa:	60f8      	str	r0, [r7, #12]
 80021fc:	60b9      	str	r1, [r7, #8]
 80021fe:	607a      	str	r2, [r7, #4]
  uint32_t PriorityGroupTmp = (PriorityGroup & (uint32_t)0x07UL);   /* only values 0..7 are used          */
 8002200:	68fb      	ldr	r3, [r7, #12]
 8002202:	f003 0307 	and.w	r3, r3, #7
 8002206:	61fb      	str	r3, [r7, #28]
  uint32_t PreemptPriorityBits;
  uint32_t SubPriorityBits;

  PreemptPriorityBits = ((7UL - PriorityGroupTmp) > (uint32_t)(__NVIC_PRIO_BITS)) ? (uint32_t)(__NVIC_PRIO_BITS) : (uint32_t)(7UL - PriorityGroupTmp);
 8002208:	69fb      	ldr	r3, [r7, #28]
 800220a:	f1c3 0307 	rsb	r3, r3, #7
 800220e:	2b04      	cmp	r3, #4
 8002210:	bf28      	it	cs
 8002212:	2304      	movcs	r3, #4
 8002214:	61bb      	str	r3, [r7, #24]
  SubPriorityBits     = ((PriorityGroupTmp + (uint32_t)(__NVIC_PRIO_BITS)) < (uint32_t)7UL) ? (uint32_t)0UL : (uint32_t)((PriorityGroupTmp - 7UL) + (uint32_t)(__NVIC_PRIO_BITS));
 8002216:	69fb      	ldr	r3, [r7, #28]
 8002218:	3304      	adds	r3, #4
 800221a:	2b06      	cmp	r3, #6
 800221c:	d902      	bls.n	8002224 <NVIC_EncodePriority+0x30>
 800221e:	69fb      	ldr	r3, [r7, #28]
 8002220:	3b03      	subs	r3, #3
 8002222:	e000      	b.n	8002226 <NVIC_EncodePriority+0x32>
 8002224:	2300      	movs	r3, #0
 8002226:	617b      	str	r3, [r7, #20]

  return (
           ((PreemptPriority & (uint32_t)((1UL << (PreemptPriorityBits)) - 1UL)) << SubPriorityBits) |
 8002228:	f04f 32ff 	mov.w	r2, #4294967295
 800222c:	69bb      	ldr	r3, [r7, #24]
 800222e:	fa02 f303 	lsl.w	r3, r2, r3
 8002232:	43da      	mvns	r2, r3
 8002234:	68bb      	ldr	r3, [r7, #8]
 8002236:	401a      	ands	r2, r3
 8002238:	697b      	ldr	r3, [r7, #20]
 800223a:	409a      	lsls	r2, r3
           ((SubPriority     & (uint32_t)((1UL << (SubPriorityBits    )) - 1UL)))
 800223c:	f04f 31ff 	mov.w	r1, #4294967295
 8002240:	697b      	ldr	r3, [r7, #20]
 8002242:	fa01 f303 	lsl.w	r3, r1, r3
 8002246:	43d9      	mvns	r1, r3
 8002248:	687b      	ldr	r3, [r7, #4]
 800224a:	400b      	ands	r3, r1
           ((PreemptPriority & (uint32_t)((1UL << (PreemptPriorityBits)) - 1UL)) << SubPriorityBits) |
 800224c:	4313      	orrs	r3, r2
         );
}
 800224e:	4618      	mov	r0, r3
 8002250:	3724      	adds	r7, #36	; 0x24
 8002252:	46bd      	mov	sp, r7
 8002254:	f85d 7b04 	ldr.w	r7, [sp], #4
 8002258:	4770      	bx	lr
	...

0800225c <SysTick_Config>:
  \note    When the variable <b>__Vendor_SysTickConfig</b> is set to 1, then the
           function <b>SysTick_Config</b> is not included. In this case, the file <b><i>device</i>.h</b>
           must contain a vendor-specific implementation of this function.
 */
__STATIC_INLINE uint32_t SysTick_Config(uint32_t ticks)
{
 800225c:	b580      	push	{r7, lr}
 800225e:	b082      	sub	sp, #8
 8002260:	af00      	add	r7, sp, #0
 8002262:	6078      	str	r0, [r7, #4]
  if ((ticks - 1UL) > SysTick_LOAD_RELOAD_Msk)
 8002264:	687b      	ldr	r3, [r7, #4]
 8002266:	3b01      	subs	r3, #1
 8002268:	f1b3 7f80 	cmp.w	r3, #16777216	; 0x1000000
 800226c:	d301      	bcc.n	8002272 <SysTick_Config+0x16>
  {
    return (1UL);                                                   /* Reload value impossible */
 800226e:	2301      	movs	r3, #1
 8002270:	e00f      	b.n	8002292 <SysTick_Config+0x36>
  }

  SysTick->LOAD  = (uint32_t)(ticks - 1UL);                         /* set reload register */
 8002272:	4a0a      	ldr	r2, [pc, #40]	; (800229c <SysTick_Config+0x40>)
 8002274:	687b      	ldr	r3, [r7, #4]
 8002276:	3b01      	subs	r3, #1
 8002278:	6053      	str	r3, [r2, #4]
  NVIC_SetPriority (SysTick_IRQn, (1UL << __NVIC_PRIO_BITS) - 1UL); /* set Priority for Systick Interrupt */
 800227a:	210f      	movs	r1, #15
 800227c:	f04f 30ff 	mov.w	r0, #4294967295
 8002280:	f7ff ff8e 	bl	80021a0 <__NVIC_SetPriority>
  SysTick->VAL   = 0UL;                                             /* Load the SysTick Counter Value */
 8002284:	4b05      	ldr	r3, [pc, #20]	; (800229c <SysTick_Config+0x40>)
 8002286:	2200      	movs	r2, #0
 8002288:	609a      	str	r2, [r3, #8]
  SysTick->CTRL  = SysTick_CTRL_CLKSOURCE_Msk |
 800228a:	4b04      	ldr	r3, [pc, #16]	; (800229c <SysTick_Config+0x40>)
 800228c:	2207      	movs	r2, #7
 800228e:	601a      	str	r2, [r3, #0]
                   SysTick_CTRL_TICKINT_Msk   |
                   SysTick_CTRL_ENABLE_Msk;                         /* Enable SysTick IRQ and SysTick Timer */
  return (0UL);                                                     /* Function successful */
 8002290:	2300      	movs	r3, #0
}
 8002292:	4618      	mov	r0, r3
 8002294:	3708      	adds	r7, #8
 8002296:	46bd      	mov	sp, r7
 8002298:	bd80      	pop	{r7, pc}
 800229a:	bf00      	nop
 800229c:	e000e010 	.word	0xe000e010

080022a0 <HAL_NVIC_SetPriorityGrouping>:
  * @note   When the NVIC_PriorityGroup_0 is selected, IRQ preemption is no more possible. 
  *         The pending IRQ priority will be managed only by the subpriority. 
  * @retval None
  */
void HAL_NVIC_SetPriorityGrouping(uint32_t PriorityGroup)
{
 80022a0:	b580      	push	{r7, lr}
 80022a2:	b082      	sub	sp, #8
 80022a4:	af00      	add	r7, sp, #0
 80022a6:	6078      	str	r0, [r7, #4]
  /* Check the parameters */
  assert_param(IS_NVIC_PRIORITY_GROUP(PriorityGroup));
  
  /* Set the PRIGROUP[10:8] bits according to the PriorityGroup parameter value */
  NVIC_SetPriorityGrouping(PriorityGroup);
 80022a8:	6878      	ldr	r0, [r7, #4]
 80022aa:	f7ff ff29 	bl	8002100 <__NVIC_SetPriorityGrouping>
}
 80022ae:	bf00      	nop
 80022b0:	3708      	adds	r7, #8
 80022b2:	46bd      	mov	sp, r7
 80022b4:	bd80      	pop	{r7, pc}

080022b6 <HAL_NVIC_SetPriority>:
  *         This parameter can be a value between 0 and 15
  *         A lower priority value indicates a higher priority.          
  * @retval None
  */
void HAL_NVIC_SetPriority(IRQn_Type IRQn, uint32_t PreemptPriority, uint32_t SubPriority)
{ 
 80022b6:	b580      	push	{r7, lr}
 80022b8:	b086      	sub	sp, #24
 80022ba:	af00      	add	r7, sp, #0
 80022bc:	4603      	mov	r3, r0
 80022be:	60b9      	str	r1, [r7, #8]
 80022c0:	607a      	str	r2, [r7, #4]
 80022c2:	73fb      	strb	r3, [r7, #15]
  uint32_t prioritygroup = 0x00U;
 80022c4:	2300      	movs	r3, #0
 80022c6:	617b      	str	r3, [r7, #20]
  
  /* Check the parameters */
  assert_param(IS_NVIC_SUB_PRIORITY(SubPriority));
  assert_param(IS_NVIC_PREEMPTION_PRIORITY(PreemptPriority));
  
  prioritygroup = NVIC_GetPriorityGrouping();
 80022c8:	f7ff ff3e 	bl	8002148 <__NVIC_GetPriorityGrouping>
 80022cc:	6178      	str	r0, [r7, #20]
  
  NVIC_SetPriority(IRQn, NVIC_EncodePriority(prioritygroup, PreemptPriority, SubPriority));
 80022ce:	687a      	ldr	r2, [r7, #4]
 80022d0:	68b9      	ldr	r1, [r7, #8]
 80022d2:	6978      	ldr	r0, [r7, #20]
 80022d4:	f7ff ff8e 	bl	80021f4 <NVIC_EncodePriority>
 80022d8:	4602      	mov	r2, r0
 80022da:	f997 300f 	ldrsb.w	r3, [r7, #15]
 80022de:	4611      	mov	r1, r2
 80022e0:	4618      	mov	r0, r3
 80022e2:	f7ff ff5d 	bl	80021a0 <__NVIC_SetPriority>
}
 80022e6:	bf00      	nop
 80022e8:	3718      	adds	r7, #24
 80022ea:	46bd      	mov	sp, r7
 80022ec:	bd80      	pop	{r7, pc}

080022ee <HAL_NVIC_EnableIRQ>:
  *         This parameter can be an enumerator of IRQn_Type enumeration
  *         (For the complete STM32 Devices IRQ Channels list, please refer to the appropriate CMSIS device file (stm32f4xxxx.h))
  * @retval None
  */
void HAL_NVIC_EnableIRQ(IRQn_Type IRQn)
{
 80022ee:	b580      	push	{r7, lr}
 80022f0:	b082      	sub	sp, #8
 80022f2:	af00      	add	r7, sp, #0
 80022f4:	4603      	mov	r3, r0
 80022f6:	71fb      	strb	r3, [r7, #7]
  /* Check the parameters */
  assert_param(IS_NVIC_DEVICE_IRQ(IRQn));
  
  /* Enable interrupt */
  NVIC_EnableIRQ(IRQn);
 80022f8:	f997 3007 	ldrsb.w	r3, [r7, #7]
 80022fc:	4618      	mov	r0, r3
 80022fe:	f7ff ff31 	bl	8002164 <__NVIC_EnableIRQ>
}
 8002302:	bf00      	nop
 8002304:	3708      	adds	r7, #8
 8002306:	46bd      	mov	sp, r7
 8002308:	bd80      	pop	{r7, pc}

0800230a <HAL_SYSTICK_Config>:
  * @param  TicksNumb Specifies the ticks Number of ticks between two interrupts.
  * @retval status:  - 0  Function succeeded.
  *                  - 1  Function failed.
  */
uint32_t HAL_SYSTICK_Config(uint32_t TicksNumb)
{
 800230a:	b580      	push	{r7, lr}
 800230c:	b082      	sub	sp, #8
 800230e:	af00      	add	r7, sp, #0
 8002310:	6078      	str	r0, [r7, #4]
   return SysTick_Config(TicksNumb);
 8002312:	6878      	ldr	r0, [r7, #4]
 8002314:	f7ff ffa2 	bl	800225c <SysTick_Config>
 8002318:	4603      	mov	r3, r0
}
 800231a:	4618      	mov	r0, r3
 800231c:	3708      	adds	r7, #8
 800231e:	46bd      	mov	sp, r7
 8002320:	bd80      	pop	{r7, pc}
	...

08002324 <HAL_DMA_Init>:
  * @param  hdma Pointer to a DMA_HandleTypeDef structure that contains
  *               the configuration information for the specified DMA Stream.  
  * @retval HAL status
  */
HAL_StatusTypeDef HAL_DMA_Init(DMA_HandleTypeDef *hdma)
{
 8002324:	b580      	push	{r7, lr}
 8002326:	b086      	sub	sp, #24
 8002328:	af00      	add	r7, sp, #0
 800232a:	6078      	str	r0, [r7, #4]
  uint32_t tmp = 0U;
 800232c:	2300      	movs	r3, #0
 800232e:	617b      	str	r3, [r7, #20]
  uint32_t tickstart = HAL_GetTick();
 8002330:	f7ff fc68 	bl	8001c04 <HAL_GetTick>
 8002334:	6138      	str	r0, [r7, #16]
  DMA_Base_Registers *regs;

  /* Check the DMA peripheral state */
  if(hdma == NULL)
 8002336:	687b      	ldr	r3, [r7, #4]
 8002338:	2b00      	cmp	r3, #0
 800233a:	d101      	bne.n	8002340 <HAL_DMA_Init+0x1c>
  {
    return HAL_ERROR;
 800233c:	2301      	movs	r3, #1
 800233e:	e099      	b.n	8002474 <HAL_DMA_Init+0x150>
    assert_param(IS_DMA_MEMORY_BURST(hdma->Init.MemBurst));
    assert_param(IS_DMA_PERIPHERAL_BURST(hdma->Init.PeriphBurst));
  }
  
  /* Allocate lock resource */
  __HAL_UNLOCK(hdma);
 8002340:	687b      	ldr	r3, [r7, #4]
 8002342:	2200      	movs	r2, #0
 8002344:	f883 2034 	strb.w	r2, [r3, #52]	; 0x34

  /* Change DMA peripheral state */
  hdma->State = HAL_DMA_STATE_BUSY;
 8002348:	687b      	ldr	r3, [r7, #4]
 800234a:	2202      	movs	r2, #2
 800234c:	f883 2035 	strb.w	r2, [r3, #53]	; 0x35
  
  /* Disable the peripheral */
  __HAL_DMA_DISABLE(hdma);
 8002350:	687b      	ldr	r3, [r7, #4]
 8002352:	681b      	ldr	r3, [r3, #0]
 8002354:	681a      	ldr	r2, [r3, #0]
 8002356:	687b      	ldr	r3, [r7, #4]
 8002358:	681b      	ldr	r3, [r3, #0]
 800235a:	f022 0201 	bic.w	r2, r2, #1
 800235e:	601a      	str	r2, [r3, #0]
  
  /* Check if the DMA Stream is effectively disabled */
  while((hdma->Instance->CR & DMA_SxCR_EN) != RESET)
 8002360:	e00f      	b.n	8002382 <HAL_DMA_Init+0x5e>
  {
    /* Check for the Timeout */
    if((HAL_GetTick() - tickstart ) > HAL_TIMEOUT_DMA_ABORT)
 8002362:	f7ff fc4f 	bl	8001c04 <HAL_GetTick>
 8002366:	4602      	mov	r2, r0
 8002368:	693b      	ldr	r3, [r7, #16]
 800236a:	1ad3      	subs	r3, r2, r3
 800236c:	2b05      	cmp	r3, #5
 800236e:	d908      	bls.n	8002382 <HAL_DMA_Init+0x5e>
    {
      /* Update error code */
      hdma->ErrorCode = HAL_DMA_ERROR_TIMEOUT;
 8002370:	687b      	ldr	r3, [r7, #4]
 8002372:	2220      	movs	r2, #32
 8002374:	655a      	str	r2, [r3, #84]	; 0x54
      
      /* Change the DMA state */
      hdma->State = HAL_DMA_STATE_TIMEOUT;
 8002376:	687b      	ldr	r3, [r7, #4]
 8002378:	2203      	movs	r2, #3
 800237a:	f883 2035 	strb.w	r2, [r3, #53]	; 0x35
      
      return HAL_TIMEOUT;
 800237e:	2303      	movs	r3, #3
 8002380:	e078      	b.n	8002474 <HAL_DMA_Init+0x150>
  while((hdma->Instance->CR & DMA_SxCR_EN) != RESET)
 8002382:	687b      	ldr	r3, [r7, #4]
 8002384:	681b      	ldr	r3, [r3, #0]
 8002386:	681b      	ldr	r3, [r3, #0]
 8002388:	f003 0301 	and.w	r3, r3, #1
 800238c:	2b00      	cmp	r3, #0
 800238e:	d1e8      	bne.n	8002362 <HAL_DMA_Init+0x3e>
    }
  }
  
  /* Get the CR register value */
  tmp = hdma->Instance->CR;
 8002390:	687b      	ldr	r3, [r7, #4]
 8002392:	681b      	ldr	r3, [r3, #0]
 8002394:	681b      	ldr	r3, [r3, #0]
 8002396:	617b      	str	r3, [r7, #20]

  /* Clear CHSEL, MBURST, PBURST, PL, MSIZE, PSIZE, MINC, PINC, CIRC, DIR, CT and DBM bits */
  tmp &= ((uint32_t)~(DMA_SxCR_CHSEL | DMA_SxCR_MBURST | DMA_SxCR_PBURST | \
 8002398:	697a      	ldr	r2, [r7, #20]
 800239a:	4b38      	ldr	r3, [pc, #224]	; (800247c <HAL_DMA_Init+0x158>)
 800239c:	4013      	ands	r3, r2
 800239e:	617b      	str	r3, [r7, #20]
                      DMA_SxCR_PL    | DMA_SxCR_MSIZE  | DMA_SxCR_PSIZE  | \
                      DMA_SxCR_MINC  | DMA_SxCR_PINC   | DMA_SxCR_CIRC   | \
                      DMA_SxCR_DIR   | DMA_SxCR_CT     | DMA_SxCR_DBM));

  /* Prepare the DMA Stream configuration */
  tmp |=  hdma->Init.Channel             | hdma->Init.Direction        |
 80023a0:	687b      	ldr	r3, [r7, #4]
 80023a2:	685a      	ldr	r2, [r3, #4]
 80023a4:	687b      	ldr	r3, [r7, #4]
 80023a6:	689b      	ldr	r3, [r3, #8]
 80023a8:	431a      	orrs	r2, r3
          hdma->Init.PeriphInc           | hdma->Init.MemInc           |
 80023aa:	687b      	ldr	r3, [r7, #4]
 80023ac:	68db      	ldr	r3, [r3, #12]
  tmp |=  hdma->Init.Channel             | hdma->Init.Direction        |
 80023ae:	431a      	orrs	r2, r3
          hdma->Init.PeriphInc           | hdma->Init.MemInc           |
 80023b0:	687b      	ldr	r3, [r7, #4]
 80023b2:	691b      	ldr	r3, [r3, #16]
 80023b4:	431a      	orrs	r2, r3
          hdma->Init.PeriphDataAlignment | hdma->Init.MemDataAlignment |
 80023b6:	687b      	ldr	r3, [r7, #4]
 80023b8:	695b      	ldr	r3, [r3, #20]
          hdma->Init.PeriphInc           | hdma->Init.MemInc           |
 80023ba:	431a      	orrs	r2, r3
          hdma->Init.PeriphDataAlignment | hdma->Init.MemDataAlignment |
 80023bc:	687b      	ldr	r3, [r7, #4]
 80023be:	699b      	ldr	r3, [r3, #24]
 80023c0:	431a      	orrs	r2, r3
          hdma->Init.Mode                | hdma->Init.Priority;
 80023c2:	687b      	ldr	r3, [r7, #4]
 80023c4:	69db      	ldr	r3, [r3, #28]
          hdma->Init.PeriphDataAlignment | hdma->Init.MemDataAlignment |
 80023c6:	431a      	orrs	r2, r3
          hdma->Init.Mode                | hdma->Init.Priority;
 80023c8:	687b      	ldr	r3, [r7, #4]
 80023ca:	6a1b      	ldr	r3, [r3, #32]
 80023cc:	4313      	orrs	r3, r2
  tmp |=  hdma->Init.Channel             | hdma->Init.Direction        |
 80023ce:	697a      	ldr	r2, [r7, #20]
 80023d0:	4313      	orrs	r3, r2
 80023d2:	617b      	str	r3, [r7, #20]

  /* the Memory burst and peripheral burst are not used when the FIFO is disabled */
  if(hdma->Init.FIFOMode == DMA_FIFOMODE_ENABLE)
 80023d4:	687b      	ldr	r3, [r7, #4]
 80023d6:	6a5b      	ldr	r3, [r3, #36]	; 0x24
 80023d8:	2b04      	cmp	r3, #4
 80023da:	d107      	bne.n	80023ec <HAL_DMA_Init+0xc8>
  {
    /* Get memory burst and peripheral burst */
    tmp |=  hdma->Init.MemBurst | hdma->Init.PeriphBurst;
 80023dc:	687b      	ldr	r3, [r7, #4]
 80023de:	6ada      	ldr	r2, [r3, #44]	; 0x2c
 80023e0:	687b      	ldr	r3, [r7, #4]
 80023e2:	6b1b      	ldr	r3, [r3, #48]	; 0x30
 80023e4:	4313      	orrs	r3, r2
 80023e6:	697a      	ldr	r2, [r7, #20]
 80023e8:	4313      	orrs	r3, r2
 80023ea:	617b      	str	r3, [r7, #20]
  }
  
  /* Write to DMA Stream CR register */
  hdma->Instance->CR = tmp;  
 80023ec:	687b      	ldr	r3, [r7, #4]
 80023ee:	681b      	ldr	r3, [r3, #0]
 80023f0:	697a      	ldr	r2, [r7, #20]
 80023f2:	601a      	str	r2, [r3, #0]

  /* Get the FCR register value */
  tmp = hdma->Instance->FCR;
 80023f4:	687b      	ldr	r3, [r7, #4]
 80023f6:	681b      	ldr	r3, [r3, #0]
 80023f8:	695b      	ldr	r3, [r3, #20]
 80023fa:	617b      	str	r3, [r7, #20]

  /* Clear Direct mode and FIFO threshold bits */
  tmp &= (uint32_t)~(DMA_SxFCR_DMDIS | DMA_SxFCR_FTH);
 80023fc:	697b      	ldr	r3, [r7, #20]
 80023fe:	f023 0307 	bic.w	r3, r3, #7
 8002402:	617b      	str	r3, [r7, #20]

  /* Prepare the DMA Stream FIFO configuration */
  tmp |= hdma->Init.FIFOMode;
 8002404:	687b      	ldr	r3, [r7, #4]
 8002406:	6a5b      	ldr	r3, [r3, #36]	; 0x24
 8002408:	697a      	ldr	r2, [r7, #20]
 800240a:	4313      	orrs	r3, r2
 800240c:	617b      	str	r3, [r7, #20]

  /* The FIFO threshold is not used when the FIFO mode is disabled */
  if(hdma->Init.FIFOMode == DMA_FIFOMODE_ENABLE)
 800240e:	687b      	ldr	r3, [r7, #4]
 8002410:	6a5b      	ldr	r3, [r3, #36]	; 0x24
 8002412:	2b04      	cmp	r3, #4
 8002414:	d117      	bne.n	8002446 <HAL_DMA_Init+0x122>
  {
    /* Get the FIFO threshold */
    tmp |= hdma->Init.FIFOThreshold;
 8002416:	687b      	ldr	r3, [r7, #4]
 8002418:	6a9b      	ldr	r3, [r3, #40]	; 0x28
 800241a:	697a      	ldr	r2, [r7, #20]
 800241c:	4313      	orrs	r3, r2
 800241e:	617b      	str	r3, [r7, #20]
    
    /* Check compatibility between FIFO threshold level and size of the memory burst */
    /* for INCR4, INCR8, INCR16 bursts */
    if (hdma->Init.MemBurst != DMA_MBURST_SINGLE)
 8002420:	687b      	ldr	r3, [r7, #4]
 8002422:	6adb      	ldr	r3, [r3, #44]	; 0x2c
 8002424:	2b00      	cmp	r3, #0
 8002426:	d00e      	beq.n	8002446 <HAL_DMA_Init+0x122>
    {
      if (DMA_CheckFifoParam(hdma) != HAL_OK)
 8002428:	6878      	ldr	r0, [r7, #4]
 800242a:	f000 f9e9 	bl	8002800 <DMA_CheckFifoParam>
 800242e:	4603      	mov	r3, r0
 8002430:	2b00      	cmp	r3, #0
 8002432:	d008      	beq.n	8002446 <HAL_DMA_Init+0x122>
      {
        /* Update error code */
        hdma->ErrorCode = HAL_DMA_ERROR_PARAM;
 8002434:	687b      	ldr	r3, [r7, #4]
 8002436:	2240      	movs	r2, #64	; 0x40
 8002438:	655a      	str	r2, [r3, #84]	; 0x54
        
        /* Change the DMA state */
        hdma->State = HAL_DMA_STATE_READY;
 800243a:	687b      	ldr	r3, [r7, #4]
 800243c:	2201      	movs	r2, #1
 800243e:	f883 2035 	strb.w	r2, [r3, #53]	; 0x35
        
        return HAL_ERROR; 
 8002442:	2301      	movs	r3, #1
 8002444:	e016      	b.n	8002474 <HAL_DMA_Init+0x150>
      }
    }
  }
  
  /* Write to DMA Stream FCR */
  hdma->Instance->FCR = tmp;
 8002446:	687b      	ldr	r3, [r7, #4]
 8002448:	681b      	ldr	r3, [r3, #0]
 800244a:	697a      	ldr	r2, [r7, #20]
 800244c:	615a      	str	r2, [r3, #20]

  /* Initialize StreamBaseAddress and StreamIndex parameters to be used to calculate
     DMA steam Base Address needed by HAL_DMA_IRQHandler() and HAL_DMA_PollForTransfer() */
  regs = (DMA_Base_Registers *)DMA_CalcBaseAndBitshift(hdma);
 800244e:	6878      	ldr	r0, [r7, #4]
 8002450:	f000 f9a0 	bl	8002794 <DMA_CalcBaseAndBitshift>
 8002454:	4603      	mov	r3, r0
 8002456:	60fb      	str	r3, [r7, #12]
  
  /* Clear all interrupt flags */
  regs->IFCR = 0x3FU << hdma->StreamIndex;
 8002458:	687b      	ldr	r3, [r7, #4]
 800245a:	6ddb      	ldr	r3, [r3, #92]	; 0x5c
 800245c:	223f      	movs	r2, #63	; 0x3f
 800245e:	409a      	lsls	r2, r3
 8002460:	68fb      	ldr	r3, [r7, #12]
 8002462:	609a      	str	r2, [r3, #8]

  /* Initialize the error code */
  hdma->ErrorCode = HAL_DMA_ERROR_NONE;
 8002464:	687b      	ldr	r3, [r7, #4]
 8002466:	2200      	movs	r2, #0
 8002468:	655a      	str	r2, [r3, #84]	; 0x54
                                                                                     
  /* Initialize the DMA state */
  hdma->State = HAL_DMA_STATE_READY;
 800246a:	687b      	ldr	r3, [r7, #4]
 800246c:	2201      	movs	r2, #1
 800246e:	f883 2035 	strb.w	r2, [r3, #53]	; 0x35

  return HAL_OK;
 8002472:	2300      	movs	r3, #0
}
 8002474:	4618      	mov	r0, r3
 8002476:	3718      	adds	r7, #24
 8002478:	46bd      	mov	sp, r7
 800247a:	bd80      	pop	{r7, pc}
 800247c:	f010803f 	.word	0xf010803f

08002480 <HAL_DMA_IRQHandler>:
  * @param  hdma pointer to a DMA_HandleTypeDef structure that contains
  *               the configuration information for the specified DMA Stream.  
  * @retval None
  */
void HAL_DMA_IRQHandler(DMA_HandleTypeDef *hdma)
{
 8002480:	b580      	push	{r7, lr}
 8002482:	b086      	sub	sp, #24
 8002484:	af00      	add	r7, sp, #0
 8002486:	6078      	str	r0, [r7, #4]
  uint32_t tmpisr;
  __IO uint32_t count = 0U;
 8002488:	2300      	movs	r3, #0
 800248a:	60bb      	str	r3, [r7, #8]
  uint32_t timeout = SystemCoreClock / 9600U;
 800248c:	4b92      	ldr	r3, [pc, #584]	; (80026d8 <HAL_DMA_IRQHandler+0x258>)
 800248e:	681b      	ldr	r3, [r3, #0]
 8002490:	4a92      	ldr	r2, [pc, #584]	; (80026dc <HAL_DMA_IRQHandler+0x25c>)
 8002492:	fba2 2303 	umull	r2, r3, r2, r3
 8002496:	0a9b      	lsrs	r3, r3, #10
 8002498:	617b      	str	r3, [r7, #20]

  /* calculate DMA base and stream number */
  DMA_Base_Registers *regs = (DMA_Base_Registers *)hdma->StreamBaseAddress;
 800249a:	687b      	ldr	r3, [r7, #4]
 800249c:	6d9b      	ldr	r3, [r3, #88]	; 0x58
 800249e:	613b      	str	r3, [r7, #16]

  tmpisr = regs->ISR;
 80024a0:	693b      	ldr	r3, [r7, #16]
 80024a2:	681b      	ldr	r3, [r3, #0]
 80024a4:	60fb      	str	r3, [r7, #12]

  /* Transfer Error Interrupt management ***************************************/
  if ((tmpisr & (DMA_FLAG_TEIF0_4 << hdma->StreamIndex)) != RESET)
 80024a6:	687b      	ldr	r3, [r7, #4]
 80024a8:	6ddb      	ldr	r3, [r3, #92]	; 0x5c
 80024aa:	2208      	movs	r2, #8
 80024ac:	409a      	lsls	r2, r3
 80024ae:	68fb      	ldr	r3, [r7, #12]
 80024b0:	4013      	ands	r3, r2
 80024b2:	2b00      	cmp	r3, #0
 80024b4:	d01a      	beq.n	80024ec <HAL_DMA_IRQHandler+0x6c>
  {
    if(__HAL_DMA_GET_IT_SOURCE(hdma, DMA_IT_TE) != RESET)
 80024b6:	687b      	ldr	r3, [r7, #4]
 80024b8:	681b      	ldr	r3, [r3, #0]
 80024ba:	681b      	ldr	r3, [r3, #0]
 80024bc:	f003 0304 	and.w	r3, r3, #4
 80024c0:	2b00      	cmp	r3, #0
 80024c2:	d013      	beq.n	80024ec <HAL_DMA_IRQHandler+0x6c>
    {
      /* Disable the transfer error interrupt */
      hdma->Instance->CR  &= ~(DMA_IT_TE);
 80024c4:	687b      	ldr	r3, [r7, #4]
 80024c6:	681b      	ldr	r3, [r3, #0]
 80024c8:	681a      	ldr	r2, [r3, #0]
 80024ca:	687b      	ldr	r3, [r7, #4]
 80024cc:	681b      	ldr	r3, [r3, #0]
 80024ce:	f022 0204 	bic.w	r2, r2, #4
 80024d2:	601a      	str	r2, [r3, #0]
      
      /* Clear the transfer error flag */
      regs->IFCR = DMA_FLAG_TEIF0_4 << hdma->StreamIndex;
 80024d4:	687b      	ldr	r3, [r7, #4]
 80024d6:	6ddb      	ldr	r3, [r3, #92]	; 0x5c
 80024d8:	2208      	movs	r2, #8
 80024da:	409a      	lsls	r2, r3
 80024dc:	693b      	ldr	r3, [r7, #16]
 80024de:	609a      	str	r2, [r3, #8]
      
      /* Update error code */
      hdma->ErrorCode |= HAL_DMA_ERROR_TE;
 80024e0:	687b      	ldr	r3, [r7, #4]
 80024e2:	6d5b      	ldr	r3, [r3, #84]	; 0x54
 80024e4:	f043 0201 	orr.w	r2, r3, #1
 80024e8:	687b      	ldr	r3, [r7, #4]
 80024ea:	655a      	str	r2, [r3, #84]	; 0x54
    }
  }
  /* FIFO Error Interrupt management ******************************************/
  if ((tmpisr & (DMA_FLAG_FEIF0_4 << hdma->StreamIndex)) != RESET)
 80024ec:	687b      	ldr	r3, [r7, #4]
 80024ee:	6ddb      	ldr	r3, [r3, #92]	; 0x5c
 80024f0:	2201      	movs	r2, #1
 80024f2:	409a      	lsls	r2, r3
 80024f4:	68fb      	ldr	r3, [r7, #12]
 80024f6:	4013      	ands	r3, r2
 80024f8:	2b00      	cmp	r3, #0
 80024fa:	d012      	beq.n	8002522 <HAL_DMA_IRQHandler+0xa2>
  {
    if(__HAL_DMA_GET_IT_SOURCE(hdma, DMA_IT_FE) != RESET)
 80024fc:	687b      	ldr	r3, [r7, #4]
 80024fe:	681b      	ldr	r3, [r3, #0]
 8002500:	695b      	ldr	r3, [r3, #20]
 8002502:	f003 0380 	and.w	r3, r3, #128	; 0x80
 8002506:	2b00      	cmp	r3, #0
 8002508:	d00b      	beq.n	8002522 <HAL_DMA_IRQHandler+0xa2>
    {
      /* Clear the FIFO error flag */
      regs->IFCR = DMA_FLAG_FEIF0_4 << hdma->StreamIndex;
 800250a:	687b      	ldr	r3, [r7, #4]
 800250c:	6ddb      	ldr	r3, [r3, #92]	; 0x5c
 800250e:	2201      	movs	r2, #1
 8002510:	409a      	lsls	r2, r3
 8002512:	693b      	ldr	r3, [r7, #16]
 8002514:	609a      	str	r2, [r3, #8]

      /* Update error code */
      hdma->ErrorCode |= HAL_DMA_ERROR_FE;
 8002516:	687b      	ldr	r3, [r7, #4]
 8002518:	6d5b      	ldr	r3, [r3, #84]	; 0x54
 800251a:	f043 0202 	orr.w	r2, r3, #2
 800251e:	687b      	ldr	r3, [r7, #4]
 8002520:	655a      	str	r2, [r3, #84]	; 0x54
    }
  }
  /* Direct Mode Error Interrupt management ***********************************/
  if ((tmpisr & (DMA_FLAG_DMEIF0_4 << hdma->StreamIndex)) != RESET)
 8002522:	687b      	ldr	r3, [r7, #4]
 8002524:	6ddb      	ldr	r3, [r3, #92]	; 0x5c
 8002526:	2204      	movs	r2, #4
 8002528:	409a      	lsls	r2, r3
 800252a:	68fb      	ldr	r3, [r7, #12]
 800252c:	4013      	ands	r3, r2
 800252e:	2b00      	cmp	r3, #0
 8002530:	d012      	beq.n	8002558 <HAL_DMA_IRQHandler+0xd8>
  {
    if(__HAL_DMA_GET_IT_SOURCE(hdma, DMA_IT_DME) != RESET)
 8002532:	687b      	ldr	r3, [r7, #4]
 8002534:	681b      	ldr	r3, [r3, #0]
 8002536:	681b      	ldr	r3, [r3, #0]
 8002538:	f003 0302 	and.w	r3, r3, #2
 800253c:	2b00      	cmp	r3, #0
 800253e:	d00b      	beq.n	8002558 <HAL_DMA_IRQHandler+0xd8>
    {
      /* Clear the direct mode error flag */
      regs->IFCR = DMA_FLAG_DMEIF0_4 << hdma->StreamIndex;
 8002540:	687b      	ldr	r3, [r7, #4]
 8002542:	6ddb      	ldr	r3, [r3, #92]	; 0x5c
 8002544:	2204      	movs	r2, #4
 8002546:	409a      	lsls	r2, r3
 8002548:	693b      	ldr	r3, [r7, #16]
 800254a:	609a      	str	r2, [r3, #8]

      /* Update error code */
      hdma->ErrorCode |= HAL_DMA_ERROR_DME;
 800254c:	687b      	ldr	r3, [r7, #4]
 800254e:	6d5b      	ldr	r3, [r3, #84]	; 0x54
 8002550:	f043 0204 	orr.w	r2, r3, #4
 8002554:	687b      	ldr	r3, [r7, #4]
 8002556:	655a      	str	r2, [r3, #84]	; 0x54
    }
  }
  /* Half Transfer Complete Interrupt management ******************************/
  if ((tmpisr & (DMA_FLAG_HTIF0_4 << hdma->StreamIndex)) != RESET)
 8002558:	687b      	ldr	r3, [r7, #4]
 800255a:	6ddb      	ldr	r3, [r3, #92]	; 0x5c
 800255c:	2210      	movs	r2, #16
 800255e:	409a      	lsls	r2, r3
 8002560:	68fb      	ldr	r3, [r7, #12]
 8002562:	4013      	ands	r3, r2
 8002564:	2b00      	cmp	r3, #0
 8002566:	d043      	beq.n	80025f0 <HAL_DMA_IRQHandler+0x170>
  {
    if(__HAL_DMA_GET_IT_SOURCE(hdma, DMA_IT_HT) != RESET)
 8002568:	687b      	ldr	r3, [r7, #4]
 800256a:	681b      	ldr	r3, [r3, #0]
 800256c:	681b      	ldr	r3, [r3, #0]
 800256e:	f003 0308 	and.w	r3, r3, #8
 8002572:	2b00      	cmp	r3, #0
 8002574:	d03c      	beq.n	80025f0 <HAL_DMA_IRQHandler+0x170>
    {
      /* Clear the half transfer complete flag */
      regs->IFCR = DMA_FLAG_HTIF0_4 << hdma->StreamIndex;
 8002576:	687b      	ldr	r3, [r7, #4]
 8002578:	6ddb      	ldr	r3, [r3, #92]	; 0x5c
 800257a:	2210      	movs	r2, #16
 800257c:	409a      	lsls	r2, r3
 800257e:	693b      	ldr	r3, [r7, #16]
 8002580:	609a      	str	r2, [r3, #8]
      
      /* Multi_Buffering mode enabled */
      if(((hdma->Instance->CR) & (uint32_t)(DMA_SxCR_DBM)) != RESET)
 8002582:	687b      	ldr	r3, [r7, #4]
 8002584:	681b      	ldr	r3, [r3, #0]
 8002586:	681b      	ldr	r3, [r3, #0]
 8002588:	f403 2380 	and.w	r3, r3, #262144	; 0x40000
 800258c:	2b00      	cmp	r3, #0
 800258e:	d018      	beq.n	80025c2 <HAL_DMA_IRQHandler+0x142>
      {
        /* Current memory buffer used is Memory 0 */
        if((hdma->Instance->CR & DMA_SxCR_CT) == RESET)
 8002590:	687b      	ldr	r3, [r7, #4]
 8002592:	681b      	ldr	r3, [r3, #0]
 8002594:	681b      	ldr	r3, [r3, #0]
 8002596:	f403 2300 	and.w	r3, r3, #524288	; 0x80000
 800259a:	2b00      	cmp	r3, #0
 800259c:	d108      	bne.n	80025b0 <HAL_DMA_IRQHandler+0x130>
        {
          if(hdma->XferHalfCpltCallback != NULL)
 800259e:	687b      	ldr	r3, [r7, #4]
 80025a0:	6c1b      	ldr	r3, [r3, #64]	; 0x40
 80025a2:	2b00      	cmp	r3, #0
 80025a4:	d024      	beq.n	80025f0 <HAL_DMA_IRQHandler+0x170>
          {
            /* Half transfer callback */
            hdma->XferHalfCpltCallback(hdma);
 80025a6:	687b      	ldr	r3, [r7, #4]
 80025a8:	6c1b      	ldr	r3, [r3, #64]	; 0x40
 80025aa:	6878      	ldr	r0, [r7, #4]
 80025ac:	4798      	blx	r3
 80025ae:	e01f      	b.n	80025f0 <HAL_DMA_IRQHandler+0x170>
          }
        }
        /* Current memory buffer used is Memory 1 */
        else
        {
          if(hdma->XferM1HalfCpltCallback != NULL)
 80025b0:	687b      	ldr	r3, [r7, #4]
 80025b2:	6c9b      	ldr	r3, [r3, #72]	; 0x48
 80025b4:	2b00      	cmp	r3, #0
 80025b6:	d01b      	beq.n	80025f0 <HAL_DMA_IRQHandler+0x170>
          {
            /* Half transfer callback */
            hdma->XferM1HalfCpltCallback(hdma);
 80025b8:	687b      	ldr	r3, [r7, #4]
 80025ba:	6c9b      	ldr	r3, [r3, #72]	; 0x48
 80025bc:	6878      	ldr	r0, [r7, #4]
 80025be:	4798      	blx	r3
 80025c0:	e016      	b.n	80025f0 <HAL_DMA_IRQHandler+0x170>
        }
      }
      else
      {
        /* Disable the half transfer interrupt if the DMA mode is not CIRCULAR */
        if((hdma->Instance->CR & DMA_SxCR_CIRC) == RESET)
 80025c2:	687b      	ldr	r3, [r7, #4]
 80025c4:	681b      	ldr	r3, [r3, #0]
 80025c6:	681b      	ldr	r3, [r3, #0]
 80025c8:	f403 7380 	and.w	r3, r3, #256	; 0x100
 80025cc:	2b00      	cmp	r3, #0
 80025ce:	d107      	bne.n	80025e0 <HAL_DMA_IRQHandler+0x160>
        {
          /* Disable the half transfer interrupt */
          hdma->Instance->CR  &= ~(DMA_IT_HT);
 80025d0:	687b      	ldr	r3, [r7, #4]
 80025d2:	681b      	ldr	r3, [r3, #0]
 80025d4:	681a      	ldr	r2, [r3, #0]
 80025d6:	687b      	ldr	r3, [r7, #4]
 80025d8:	681b      	ldr	r3, [r3, #0]
 80025da:	f022 0208 	bic.w	r2, r2, #8
 80025de:	601a      	str	r2, [r3, #0]
        }
        
        if(hdma->XferHalfCpltCallback != NULL)
 80025e0:	687b      	ldr	r3, [r7, #4]
 80025e2:	6c1b      	ldr	r3, [r3, #64]	; 0x40
 80025e4:	2b00      	cmp	r3, #0
 80025e6:	d003      	beq.n	80025f0 <HAL_DMA_IRQHandler+0x170>
        {
          /* Half transfer callback */
          hdma->XferHalfCpltCallback(hdma);
 80025e8:	687b      	ldr	r3, [r7, #4]
 80025ea:	6c1b      	ldr	r3, [r3, #64]	; 0x40
 80025ec:	6878      	ldr	r0, [r7, #4]
 80025ee:	4798      	blx	r3
        }
      }
    }
  }
  /* Transfer Complete Interrupt management ***********************************/
  if ((tmpisr & (DMA_FLAG_TCIF0_4 << hdma->StreamIndex)) != RESET)
 80025f0:	687b      	ldr	r3, [r7, #4]
 80025f2:	6ddb      	ldr	r3, [r3, #92]	; 0x5c
 80025f4:	2220      	movs	r2, #32
 80025f6:	409a      	lsls	r2, r3
 80025f8:	68fb      	ldr	r3, [r7, #12]
 80025fa:	4013      	ands	r3, r2
 80025fc:	2b00      	cmp	r3, #0
 80025fe:	f000 808e 	beq.w	800271e <HAL_DMA_IRQHandler+0x29e>
  {
    if(__HAL_DMA_GET_IT_SOURCE(hdma, DMA_IT_TC) != RESET)
 8002602:	687b      	ldr	r3, [r7, #4]
 8002604:	681b      	ldr	r3, [r3, #0]
 8002606:	681b      	ldr	r3, [r3, #0]
 8002608:	f003 0310 	and.w	r3, r3, #16
 800260c:	2b00      	cmp	r3, #0
 800260e:	f000 8086 	beq.w	800271e <HAL_DMA_IRQHandler+0x29e>
    {
      /* Clear the transfer complete flag */
      regs->IFCR = DMA_FLAG_TCIF0_4 << hdma->StreamIndex;
 8002612:	687b      	ldr	r3, [r7, #4]
 8002614:	6ddb      	ldr	r3, [r3, #92]	; 0x5c
 8002616:	2220      	movs	r2, #32
 8002618:	409a      	lsls	r2, r3
 800261a:	693b      	ldr	r3, [r7, #16]
 800261c:	609a      	str	r2, [r3, #8]
      
      if(HAL_DMA_STATE_ABORT == hdma->State)
 800261e:	687b      	ldr	r3, [r7, #4]
 8002620:	f893 3035 	ldrb.w	r3, [r3, #53]	; 0x35
 8002624:	b2db      	uxtb	r3, r3
 8002626:	2b05      	cmp	r3, #5
 8002628:	d136      	bne.n	8002698 <HAL_DMA_IRQHandler+0x218>
      {
        /* Disable all the transfer interrupts */
        hdma->Instance->CR  &= ~(DMA_IT_TC | DMA_IT_TE | DMA_IT_DME);
 800262a:	687b      	ldr	r3, [r7, #4]
 800262c:	681b      	ldr	r3, [r3, #0]
 800262e:	681a      	ldr	r2, [r3, #0]
 8002630:	687b      	ldr	r3, [r7, #4]
 8002632:	681b      	ldr	r3, [r3, #0]
 8002634:	f022 0216 	bic.w	r2, r2, #22
 8002638:	601a      	str	r2, [r3, #0]
        hdma->Instance->FCR &= ~(DMA_IT_FE);
 800263a:	687b      	ldr	r3, [r7, #4]
 800263c:	681b      	ldr	r3, [r3, #0]
 800263e:	695a      	ldr	r2, [r3, #20]
 8002640:	687b      	ldr	r3, [r7, #4]
 8002642:	681b      	ldr	r3, [r3, #0]
 8002644:	f022 0280 	bic.w	r2, r2, #128	; 0x80
 8002648:	615a      	str	r2, [r3, #20]
        
        if((hdma->XferHalfCpltCallback != NULL) || (hdma->XferM1HalfCpltCallback != NULL))
 800264a:	687b      	ldr	r3, [r7, #4]
 800264c:	6c1b      	ldr	r3, [r3, #64]	; 0x40
 800264e:	2b00      	cmp	r3, #0
 8002650:	d103      	bne.n	800265a <HAL_DMA_IRQHandler+0x1da>
 8002652:	687b      	ldr	r3, [r7, #4]
 8002654:	6c9b      	ldr	r3, [r3, #72]	; 0x48
 8002656:	2b00      	cmp	r3, #0
 8002658:	d007      	beq.n	800266a <HAL_DMA_IRQHandler+0x1ea>
        {
          hdma->Instance->CR  &= ~(DMA_IT_HT);
 800265a:	687b      	ldr	r3, [r7, #4]
 800265c:	681b      	ldr	r3, [r3, #0]
 800265e:	681a      	ldr	r2, [r3, #0]
 8002660:	687b      	ldr	r3, [r7, #4]
 8002662:	681b      	ldr	r3, [r3, #0]
 8002664:	f022 0208 	bic.w	r2, r2, #8
 8002668:	601a      	str	r2, [r3, #0]
        }

        /* Clear all interrupt flags at correct offset within the register */
        regs->IFCR = 0x3FU << hdma->StreamIndex;
 800266a:	687b      	ldr	r3, [r7, #4]
 800266c:	6ddb      	ldr	r3, [r3, #92]	; 0x5c
 800266e:	223f      	movs	r2, #63	; 0x3f
 8002670:	409a      	lsls	r2, r3
 8002672:	693b      	ldr	r3, [r7, #16]
 8002674:	609a      	str	r2, [r3, #8]

        /* Process Unlocked */
        __HAL_UNLOCK(hdma);
 8002676:	687b      	ldr	r3, [r7, #4]
 8002678:	2200      	movs	r2, #0
 800267a:	f883 2034 	strb.w	r2, [r3, #52]	; 0x34

        /* Change the DMA state */
        hdma->State = HAL_DMA_STATE_READY;
 800267e:	687b      	ldr	r3, [r7, #4]
 8002680:	2201      	movs	r2, #1
 8002682:	f883 2035 	strb.w	r2, [r3, #53]	; 0x35

        if(hdma->XferAbortCallback != NULL)
 8002686:	687b      	ldr	r3, [r7, #4]
 8002688:	6d1b      	ldr	r3, [r3, #80]	; 0x50
 800268a:	2b00      	cmp	r3, #0
 800268c:	d07d      	beq.n	800278a <HAL_DMA_IRQHandler+0x30a>
        {
          hdma->XferAbortCallback(hdma);
 800268e:	687b      	ldr	r3, [r7, #4]
 8002690:	6d1b      	ldr	r3, [r3, #80]	; 0x50
 8002692:	6878      	ldr	r0, [r7, #4]
 8002694:	4798      	blx	r3
        }
        return;
 8002696:	e078      	b.n	800278a <HAL_DMA_IRQHandler+0x30a>
      }

      if(((hdma->Instance->CR) & (uint32_t)(DMA_SxCR_DBM)) != RESET)
 8002698:	687b      	ldr	r3, [r7, #4]
 800269a:	681b      	ldr	r3, [r3, #0]
 800269c:	681b      	ldr	r3, [r3, #0]
 800269e:	f403 2380 	and.w	r3, r3, #262144	; 0x40000
 80026a2:	2b00      	cmp	r3, #0
 80026a4:	d01c      	beq.n	80026e0 <HAL_DMA_IRQHandler+0x260>
      {
        /* Current memory buffer used is Memory 0 */
        if((hdma->Instance->CR & DMA_SxCR_CT) == RESET)
 80026a6:	687b      	ldr	r3, [r7, #4]
 80026a8:	681b      	ldr	r3, [r3, #0]
 80026aa:	681b      	ldr	r3, [r3, #0]
 80026ac:	f403 2300 	and.w	r3, r3, #524288	; 0x80000
 80026b0:	2b00      	cmp	r3, #0
 80026b2:	d108      	bne.n	80026c6 <HAL_DMA_IRQHandler+0x246>
        {
          if(hdma->XferM1CpltCallback != NULL)
 80026b4:	687b      	ldr	r3, [r7, #4]
 80026b6:	6c5b      	ldr	r3, [r3, #68]	; 0x44
 80026b8:	2b00      	cmp	r3, #0
 80026ba:	d030      	beq.n	800271e <HAL_DMA_IRQHandler+0x29e>
          {
            /* Transfer complete Callback for memory1 */
            hdma->XferM1CpltCallback(hdma);
 80026bc:	687b      	ldr	r3, [r7, #4]
 80026be:	6c5b      	ldr	r3, [r3, #68]	; 0x44
 80026c0:	6878      	ldr	r0, [r7, #4]
 80026c2:	4798      	blx	r3
 80026c4:	e02b      	b.n	800271e <HAL_DMA_IRQHandler+0x29e>
          }
        }
        /* Current memory buffer used is Memory 1 */
        else
        {
          if(hdma->XferCpltCallback != NULL)
 80026c6:	687b      	ldr	r3, [r7, #4]
 80026c8:	6bdb      	ldr	r3, [r3, #60]	; 0x3c
 80026ca:	2b00      	cmp	r3, #0
 80026cc:	d027      	beq.n	800271e <HAL_DMA_IRQHandler+0x29e>
          {
            /* Transfer complete Callback for memory0 */
            hdma->XferCpltCallback(hdma);
 80026ce:	687b      	ldr	r3, [r7, #4]
 80026d0:	6bdb      	ldr	r3, [r3, #60]	; 0x3c
 80026d2:	6878      	ldr	r0, [r7, #4]
 80026d4:	4798      	blx	r3
 80026d6:	e022      	b.n	800271e <HAL_DMA_IRQHandler+0x29e>
 80026d8:	20000008 	.word	0x20000008
 80026dc:	1b4e81b5 	.word	0x1b4e81b5
        }
      }
      /* Disable the transfer complete interrupt if the DMA mode is not CIRCULAR */
      else
      {
        if((hdma->Instance->CR & DMA_SxCR_CIRC) == RESET)
 80026e0:	687b      	ldr	r3, [r7, #4]
 80026e2:	681b      	ldr	r3, [r3, #0]
 80026e4:	681b      	ldr	r3, [r3, #0]
 80026e6:	f403 7380 	and.w	r3, r3, #256	; 0x100
 80026ea:	2b00      	cmp	r3, #0
 80026ec:	d10f      	bne.n	800270e <HAL_DMA_IRQHandler+0x28e>
        {
          /* Disable the transfer complete interrupt */
          hdma->Instance->CR  &= ~(DMA_IT_TC);
 80026ee:	687b      	ldr	r3, [r7, #4]
 80026f0:	681b      	ldr	r3, [r3, #0]
 80026f2:	681a      	ldr	r2, [r3, #0]
 80026f4:	687b      	ldr	r3, [r7, #4]
 80026f6:	681b      	ldr	r3, [r3, #0]
 80026f8:	f022 0210 	bic.w	r2, r2, #16
 80026fc:	601a      	str	r2, [r3, #0]

          /* Process Unlocked */
          __HAL_UNLOCK(hdma);
 80026fe:	687b      	ldr	r3, [r7, #4]
 8002700:	2200      	movs	r2, #0
 8002702:	f883 2034 	strb.w	r2, [r3, #52]	; 0x34

          /* Change the DMA state */
          hdma->State = HAL_DMA_STATE_READY;
 8002706:	687b      	ldr	r3, [r7, #4]
 8002708:	2201      	movs	r2, #1
 800270a:	f883 2035 	strb.w	r2, [r3, #53]	; 0x35
        }

        if(hdma->XferCpltCallback != NULL)
 800270e:	687b      	ldr	r3, [r7, #4]
 8002710:	6bdb      	ldr	r3, [r3, #60]	; 0x3c
 8002712:	2b00      	cmp	r3, #0
 8002714:	d003      	beq.n	800271e <HAL_DMA_IRQHandler+0x29e>
        {
          /* Transfer complete callback */
          hdma->XferCpltCallback(hdma);
 8002716:	687b      	ldr	r3, [r7, #4]
 8002718:	6bdb      	ldr	r3, [r3, #60]	; 0x3c
 800271a:	6878      	ldr	r0, [r7, #4]
 800271c:	4798      	blx	r3
      }
    }
  }
  
  /* manage error case */
  if(hdma->ErrorCode != HAL_DMA_ERROR_NONE)
 800271e:	687b      	ldr	r3, [r7, #4]
 8002720:	6d5b      	ldr	r3, [r3, #84]	; 0x54
 8002722:	2b00      	cmp	r3, #0
 8002724:	d032      	beq.n	800278c <HAL_DMA_IRQHandler+0x30c>
  {
    if((hdma->ErrorCode & HAL_DMA_ERROR_TE) != RESET)
 8002726:	687b      	ldr	r3, [r7, #4]
 8002728:	6d5b      	ldr	r3, [r3, #84]	; 0x54
 800272a:	f003 0301 	and.w	r3, r3, #1
 800272e:	2b00      	cmp	r3, #0
 8002730:	d022      	beq.n	8002778 <HAL_DMA_IRQHandler+0x2f8>
    {
      hdma->State = HAL_DMA_STATE_ABORT;
 8002732:	687b      	ldr	r3, [r7, #4]
 8002734:	2205      	movs	r2, #5
 8002736:	f883 2035 	strb.w	r2, [r3, #53]	; 0x35

      /* Disable the stream */
      __HAL_DMA_DISABLE(hdma);
 800273a:	687b      	ldr	r3, [r7, #4]
 800273c:	681b      	ldr	r3, [r3, #0]
 800273e:	681a      	ldr	r2, [r3, #0]
 8002740:	687b      	ldr	r3, [r7, #4]
 8002742:	681b      	ldr	r3, [r3, #0]
 8002744:	f022 0201 	bic.w	r2, r2, #1
 8002748:	601a      	str	r2, [r3, #0]

      do
      {
        if (++count > timeout)
 800274a:	68bb      	ldr	r3, [r7, #8]
 800274c:	3301      	adds	r3, #1
 800274e:	60bb      	str	r3, [r7, #8]
 8002750:	697a      	ldr	r2, [r7, #20]
 8002752:	429a      	cmp	r2, r3
 8002754:	d307      	bcc.n	8002766 <HAL_DMA_IRQHandler+0x2e6>
        {
          break;
        }
      }
      while((hdma->Instance->CR & DMA_SxCR_EN) != RESET);
 8002756:	687b      	ldr	r3, [r7, #4]
 8002758:	681b      	ldr	r3, [r3, #0]
 800275a:	681b      	ldr	r3, [r3, #0]
 800275c:	f003 0301 	and.w	r3, r3, #1
 8002760:	2b00      	cmp	r3, #0
 8002762:	d1f2      	bne.n	800274a <HAL_DMA_IRQHandler+0x2ca>
 8002764:	e000      	b.n	8002768 <HAL_DMA_IRQHandler+0x2e8>
          break;
 8002766:	bf00      	nop

      /* Process Unlocked */
      __HAL_UNLOCK(hdma);
 8002768:	687b      	ldr	r3, [r7, #4]
 800276a:	2200      	movs	r2, #0
 800276c:	f883 2034 	strb.w	r2, [r3, #52]	; 0x34

      /* Change the DMA state */
      hdma->State = HAL_DMA_STATE_READY;
 8002770:	687b      	ldr	r3, [r7, #4]
 8002772:	2201      	movs	r2, #1
 8002774:	f883 2035 	strb.w	r2, [r3, #53]	; 0x35
    }

    if(hdma->XferErrorCallback != NULL)
 8002778:	687b      	ldr	r3, [r7, #4]
 800277a:	6cdb      	ldr	r3, [r3, #76]	; 0x4c
 800277c:	2b00      	cmp	r3, #0
 800277e:	d005      	beq.n	800278c <HAL_DMA_IRQHandler+0x30c>
    {
      /* Transfer error callback */
      hdma->XferErrorCallback(hdma);
 8002780:	687b      	ldr	r3, [r7, #4]
 8002782:	6cdb      	ldr	r3, [r3, #76]	; 0x4c
 8002784:	6878      	ldr	r0, [r7, #4]
 8002786:	4798      	blx	r3
 8002788:	e000      	b.n	800278c <HAL_DMA_IRQHandler+0x30c>
        return;
 800278a:	bf00      	nop
    }
  }
}
 800278c:	3718      	adds	r7, #24
 800278e:	46bd      	mov	sp, r7
 8002790:	bd80      	pop	{r7, pc}
 8002792:	bf00      	nop

08002794 <DMA_CalcBaseAndBitshift>:
  * @param  hdma       pointer to a DMA_HandleTypeDef structure that contains
  *                     the configuration information for the specified DMA Stream. 
  * @retval Stream base address
  */
static uint32_t DMA_CalcBaseAndBitshift(DMA_HandleTypeDef *hdma)
{
 8002794:	b480      	push	{r7}
 8002796:	b085      	sub	sp, #20
 8002798:	af00      	add	r7, sp, #0
 800279a:	6078      	str	r0, [r7, #4]
  uint32_t stream_number = (((uint32_t)hdma->Instance & 0xFFU) - 16U) / 24U;
 800279c:	687b      	ldr	r3, [r7, #4]
 800279e:	681b      	ldr	r3, [r3, #0]
 80027a0:	b2db      	uxtb	r3, r3
 80027a2:	3b10      	subs	r3, #16
 80027a4:	4a14      	ldr	r2, [pc, #80]	; (80027f8 <DMA_CalcBaseAndBitshift+0x64>)
 80027a6:	fba2 2303 	umull	r2, r3, r2, r3
 80027aa:	091b      	lsrs	r3, r3, #4
 80027ac:	60fb      	str	r3, [r7, #12]
  
  /* lookup table for necessary bitshift of flags within status registers */
  static const uint8_t flagBitshiftOffset[8U] = {0U, 6U, 16U, 22U, 0U, 6U, 16U, 22U};
  hdma->StreamIndex = flagBitshiftOffset[stream_number];
 80027ae:	4a13      	ldr	r2, [pc, #76]	; (80027fc <DMA_CalcBaseAndBitshift+0x68>)
 80027b0:	68fb      	ldr	r3, [r7, #12]
 80027b2:	4413      	add	r3, r2
 80027b4:	781b      	ldrb	r3, [r3, #0]
 80027b6:	461a      	mov	r2, r3
 80027b8:	687b      	ldr	r3, [r7, #4]
 80027ba:	65da      	str	r2, [r3, #92]	; 0x5c
  
  if (stream_number > 3U)
 80027bc:	68fb      	ldr	r3, [r7, #12]
 80027be:	2b03      	cmp	r3, #3
 80027c0:	d909      	bls.n	80027d6 <DMA_CalcBaseAndBitshift+0x42>
  {
    /* return pointer to HISR and HIFCR */
    hdma->StreamBaseAddress = (((uint32_t)hdma->Instance & (uint32_t)(~0x3FFU)) + 4U);
 80027c2:	687b      	ldr	r3, [r7, #4]
 80027c4:	681b      	ldr	r3, [r3, #0]
 80027c6:	f423 737f 	bic.w	r3, r3, #1020	; 0x3fc
 80027ca:	f023 0303 	bic.w	r3, r3, #3
 80027ce:	1d1a      	adds	r2, r3, #4
 80027d0:	687b      	ldr	r3, [r7, #4]
 80027d2:	659a      	str	r2, [r3, #88]	; 0x58
 80027d4:	e007      	b.n	80027e6 <DMA_CalcBaseAndBitshift+0x52>
  }
  else
  {
    /* return pointer to LISR and LIFCR */
    hdma->StreamBaseAddress = ((uint32_t)hdma->Instance & (uint32_t)(~0x3FFU));
 80027d6:	687b      	ldr	r3, [r7, #4]
 80027d8:	681b      	ldr	r3, [r3, #0]
 80027da:	f423 737f 	bic.w	r3, r3, #1020	; 0x3fc
 80027de:	f023 0303 	bic.w	r3, r3, #3
 80027e2:	687a      	ldr	r2, [r7, #4]
 80027e4:	6593      	str	r3, [r2, #88]	; 0x58
  }
  
  return hdma->StreamBaseAddress;
 80027e6:	687b      	ldr	r3, [r7, #4]
 80027e8:	6d9b      	ldr	r3, [r3, #88]	; 0x58
}
 80027ea:	4618      	mov	r0, r3
 80027ec:	3714      	adds	r7, #20
 80027ee:	46bd      	mov	sp, r7
 80027f0:	f85d 7b04 	ldr.w	r7, [sp], #4
 80027f4:	4770      	bx	lr
 80027f6:	bf00      	nop
 80027f8:	aaaaaaab 	.word	0xaaaaaaab
 80027fc:	08007434 	.word	0x08007434

08002800 <DMA_CheckFifoParam>:
  * @param  hdma       pointer to a DMA_HandleTypeDef structure that contains
  *                     the configuration information for the specified DMA Stream. 
  * @retval HAL status
  */
static HAL_StatusTypeDef DMA_CheckFifoParam(DMA_HandleTypeDef *hdma)
{
 8002800:	b480      	push	{r7}
 8002802:	b085      	sub	sp, #20
 8002804:	af00      	add	r7, sp, #0
 8002806:	6078      	str	r0, [r7, #4]
  HAL_StatusTypeDef status = HAL_OK;
 8002808:	2300      	movs	r3, #0
 800280a:	73fb      	strb	r3, [r7, #15]
  uint32_t tmp = hdma->Init.FIFOThreshold;
 800280c:	687b      	ldr	r3, [r7, #4]
 800280e:	6a9b      	ldr	r3, [r3, #40]	; 0x28
 8002810:	60bb      	str	r3, [r7, #8]
  
  /* Memory Data size equal to Byte */
  if(hdma->Init.MemDataAlignment == DMA_MDATAALIGN_BYTE)
 8002812:	687b      	ldr	r3, [r7, #4]
 8002814:	699b      	ldr	r3, [r3, #24]
 8002816:	2b00      	cmp	r3, #0
 8002818:	d11f      	bne.n	800285a <DMA_CheckFifoParam+0x5a>
 800281a:	68bb      	ldr	r3, [r7, #8]
 800281c:	2b03      	cmp	r3, #3
 800281e:	d856      	bhi.n	80028ce <DMA_CheckFifoParam+0xce>
 8002820:	a201      	add	r2, pc, #4	; (adr r2, 8002828 <DMA_CheckFifoParam+0x28>)
 8002822:	f852 f023 	ldr.w	pc, [r2, r3, lsl #2]
 8002826:	bf00      	nop
 8002828:	08002839 	.word	0x08002839
 800282c:	0800284b 	.word	0x0800284b
 8002830:	08002839 	.word	0x08002839
 8002834:	080028cf 	.word	0x080028cf
  {
    switch (tmp)
    {
    case DMA_FIFO_THRESHOLD_1QUARTERFULL:
    case DMA_FIFO_THRESHOLD_3QUARTERSFULL:
      if ((hdma->Init.MemBurst & DMA_SxCR_MBURST_1) == DMA_SxCR_MBURST_1)
 8002838:	687b      	ldr	r3, [r7, #4]
 800283a:	6adb      	ldr	r3, [r3, #44]	; 0x2c
 800283c:	f003 7380 	and.w	r3, r3, #16777216	; 0x1000000
 8002840:	2b00      	cmp	r3, #0
 8002842:	d046      	beq.n	80028d2 <DMA_CheckFifoParam+0xd2>
      {
        status = HAL_ERROR;
 8002844:	2301      	movs	r3, #1
 8002846:	73fb      	strb	r3, [r7, #15]
      }
      break;
 8002848:	e043      	b.n	80028d2 <DMA_CheckFifoParam+0xd2>
    case DMA_FIFO_THRESHOLD_HALFFULL:
      if (hdma->Init.MemBurst == DMA_MBURST_INC16)
 800284a:	687b      	ldr	r3, [r7, #4]
 800284c:	6adb      	ldr	r3, [r3, #44]	; 0x2c
 800284e:	f1b3 7fc0 	cmp.w	r3, #25165824	; 0x1800000
 8002852:	d140      	bne.n	80028d6 <DMA_CheckFifoParam+0xd6>
      {
        status = HAL_ERROR;
 8002854:	2301      	movs	r3, #1
 8002856:	73fb      	strb	r3, [r7, #15]
      }
      break;
 8002858:	e03d      	b.n	80028d6 <DMA_CheckFifoParam+0xd6>
      break;
    }
  }
  
  /* Memory Data size equal to Half-Word */
  else if (hdma->Init.MemDataAlignment == DMA_MDATAALIGN_HALFWORD)
 800285a:	687b      	ldr	r3, [r7, #4]
 800285c:	699b      	ldr	r3, [r3, #24]
 800285e:	f5b3 5f00 	cmp.w	r3, #8192	; 0x2000
 8002862:	d121      	bne.n	80028a8 <DMA_CheckFifoParam+0xa8>
 8002864:	68bb      	ldr	r3, [r7, #8]
 8002866:	2b03      	cmp	r3, #3
 8002868:	d837      	bhi.n	80028da <DMA_CheckFifoParam+0xda>
 800286a:	a201      	add	r2, pc, #4	; (adr r2, 8002870 <DMA_CheckFifoParam+0x70>)
 800286c:	f852 f023 	ldr.w	pc, [r2, r3, lsl #2]
 8002870:	08002881 	.word	0x08002881
 8002874:	08002887 	.word	0x08002887
 8002878:	08002881 	.word	0x08002881
 800287c:	08002899 	.word	0x08002899
  {
    switch (tmp)
    {
    case DMA_FIFO_THRESHOLD_1QUARTERFULL:
    case DMA_FIFO_THRESHOLD_3QUARTERSFULL:
      status = HAL_ERROR;
 8002880:	2301      	movs	r3, #1
 8002882:	73fb      	strb	r3, [r7, #15]
      break;
 8002884:	e030      	b.n	80028e8 <DMA_CheckFifoParam+0xe8>
    case DMA_FIFO_THRESHOLD_HALFFULL:
      if ((hdma->Init.MemBurst & DMA_SxCR_MBURST_1) == DMA_SxCR_MBURST_1)
 8002886:	687b      	ldr	r3, [r7, #4]
 8002888:	6adb      	ldr	r3, [r3, #44]	; 0x2c
 800288a:	f003 7380 	and.w	r3, r3, #16777216	; 0x1000000
 800288e:	2b00      	cmp	r3, #0
 8002890:	d025      	beq.n	80028de <DMA_CheckFifoParam+0xde>
      {
        status = HAL_ERROR;
 8002892:	2301      	movs	r3, #1
 8002894:	73fb      	strb	r3, [r7, #15]
      }
      break;
 8002896:	e022      	b.n	80028de <DMA_CheckFifoParam+0xde>
    case DMA_FIFO_THRESHOLD_FULL:
      if (hdma->Init.MemBurst == DMA_MBURST_INC16)
 8002898:	687b      	ldr	r3, [r7, #4]
 800289a:	6adb      	ldr	r3, [r3, #44]	; 0x2c
 800289c:	f1b3 7fc0 	cmp.w	r3, #25165824	; 0x1800000
 80028a0:	d11f      	bne.n	80028e2 <DMA_CheckFifoParam+0xe2>
      {
        status = HAL_ERROR;
 80028a2:	2301      	movs	r3, #1
 80028a4:	73fb      	strb	r3, [r7, #15]
      }
      break;   
 80028a6:	e01c      	b.n	80028e2 <DMA_CheckFifoParam+0xe2>
  }
  
  /* Memory Data size equal to Word */
  else
  {
    switch (tmp)
 80028a8:	68bb      	ldr	r3, [r7, #8]
 80028aa:	2b02      	cmp	r3, #2
 80028ac:	d903      	bls.n	80028b6 <DMA_CheckFifoParam+0xb6>
 80028ae:	68bb      	ldr	r3, [r7, #8]
 80028b0:	2b03      	cmp	r3, #3
 80028b2:	d003      	beq.n	80028bc <DMA_CheckFifoParam+0xbc>
      {
        status = HAL_ERROR;
      }
      break;
    default:
      break;
 80028b4:	e018      	b.n	80028e8 <DMA_CheckFifoParam+0xe8>
      status = HAL_ERROR;
 80028b6:	2301      	movs	r3, #1
 80028b8:	73fb      	strb	r3, [r7, #15]
      break;
 80028ba:	e015      	b.n	80028e8 <DMA_CheckFifoParam+0xe8>
      if ((hdma->Init.MemBurst & DMA_SxCR_MBURST_1) == DMA_SxCR_MBURST_1)
 80028bc:	687b      	ldr	r3, [r7, #4]
 80028be:	6adb      	ldr	r3, [r3, #44]	; 0x2c
 80028c0:	f003 7380 	and.w	r3, r3, #16777216	; 0x1000000
 80028c4:	2b00      	cmp	r3, #0
 80028c6:	d00e      	beq.n	80028e6 <DMA_CheckFifoParam+0xe6>
        status = HAL_ERROR;
 80028c8:	2301      	movs	r3, #1
 80028ca:	73fb      	strb	r3, [r7, #15]
      break;
 80028cc:	e00b      	b.n	80028e6 <DMA_CheckFifoParam+0xe6>
      break;
 80028ce:	bf00      	nop
 80028d0:	e00a      	b.n	80028e8 <DMA_CheckFifoParam+0xe8>
      break;
 80028d2:	bf00      	nop
 80028d4:	e008      	b.n	80028e8 <DMA_CheckFifoParam+0xe8>
      break;
 80028d6:	bf00      	nop
 80028d8:	e006      	b.n	80028e8 <DMA_CheckFifoParam+0xe8>
      break;
 80028da:	bf00      	nop
 80028dc:	e004      	b.n	80028e8 <DMA_CheckFifoParam+0xe8>
      break;
 80028de:	bf00      	nop
 80028e0:	e002      	b.n	80028e8 <DMA_CheckFifoParam+0xe8>
      break;   
 80028e2:	bf00      	nop
 80028e4:	e000      	b.n	80028e8 <DMA_CheckFifoParam+0xe8>
      break;
 80028e6:	bf00      	nop
    }
  } 
  
  return status; 
 80028e8:	7bfb      	ldrb	r3, [r7, #15]
}
 80028ea:	4618      	mov	r0, r3
 80028ec:	3714      	adds	r7, #20
 80028ee:	46bd      	mov	sp, r7
 80028f0:	f85d 7b04 	ldr.w	r7, [sp], #4
 80028f4:	4770      	bx	lr
 80028f6:	bf00      	nop

080028f8 <HAL_GPIO_Init>:
  * @param  GPIO_Init pointer to a GPIO_InitTypeDef structure that contains
  *         the configuration information for the specified GPIO peripheral.
  * @retval None
  */
void HAL_GPIO_Init(GPIO_TypeDef  *GPIOx, GPIO_InitTypeDef *GPIO_Init)
{
 80028f8:	b480      	push	{r7}
 80028fa:	b089      	sub	sp, #36	; 0x24
 80028fc:	af00      	add	r7, sp, #0
 80028fe:	6078      	str	r0, [r7, #4]
 8002900:	6039      	str	r1, [r7, #0]
  uint32_t position;
  uint32_t ioposition = 0x00U;
 8002902:	2300      	movs	r3, #0
 8002904:	617b      	str	r3, [r7, #20]
  uint32_t iocurrent = 0x00U;
 8002906:	2300      	movs	r3, #0
 8002908:	613b      	str	r3, [r7, #16]
  uint32_t temp = 0x00U;
 800290a:	2300      	movs	r3, #0
 800290c:	61bb      	str	r3, [r7, #24]
  assert_param(IS_GPIO_PIN(GPIO_Init->Pin));
  assert_param(IS_GPIO_MODE(GPIO_Init->Mode));
  assert_param(IS_GPIO_PULL(GPIO_Init->Pull));

  /* Configure the port pins */
  for(position = 0U; position < GPIO_NUMBER; position++)
 800290e:	2300      	movs	r3, #0
 8002910:	61fb      	str	r3, [r7, #28]
 8002912:	e165      	b.n	8002be0 <HAL_GPIO_Init+0x2e8>
  {
    /* Get the IO position */
    ioposition = 0x01U << position;
 8002914:	2201      	movs	r2, #1
 8002916:	69fb      	ldr	r3, [r7, #28]
 8002918:	fa02 f303 	lsl.w	r3, r2, r3
 800291c:	617b      	str	r3, [r7, #20]
    /* Get the current IO position */
    iocurrent = (uint32_t)(GPIO_Init->Pin) & ioposition;
 800291e:	683b      	ldr	r3, [r7, #0]
 8002920:	681b      	ldr	r3, [r3, #0]
 8002922:	697a      	ldr	r2, [r7, #20]
 8002924:	4013      	ands	r3, r2
 8002926:	613b      	str	r3, [r7, #16]

    if(iocurrent == ioposition)
 8002928:	693a      	ldr	r2, [r7, #16]
 800292a:	697b      	ldr	r3, [r7, #20]
 800292c:	429a      	cmp	r2, r3
 800292e:	f040 8154 	bne.w	8002bda <HAL_GPIO_Init+0x2e2>
    {
      /*--------------------- GPIO Mode Configuration ------------------------*/
      /* In case of Output or Alternate function mode selection */
      if((GPIO_Init->Mode == GPIO_MODE_OUTPUT_PP) || (GPIO_Init->Mode == GPIO_MODE_AF_PP) ||
 8002932:	683b      	ldr	r3, [r7, #0]
 8002934:	685b      	ldr	r3, [r3, #4]
 8002936:	2b01      	cmp	r3, #1
 8002938:	d00b      	beq.n	8002952 <HAL_GPIO_Init+0x5a>
 800293a:	683b      	ldr	r3, [r7, #0]
 800293c:	685b      	ldr	r3, [r3, #4]
 800293e:	2b02      	cmp	r3, #2
 8002940:	d007      	beq.n	8002952 <HAL_GPIO_Init+0x5a>
         (GPIO_Init->Mode == GPIO_MODE_OUTPUT_OD) || (GPIO_Init->Mode == GPIO_MODE_AF_OD))
 8002942:	683b      	ldr	r3, [r7, #0]
 8002944:	685b      	ldr	r3, [r3, #4]
      if((GPIO_Init->Mode == GPIO_MODE_OUTPUT_PP) || (GPIO_Init->Mode == GPIO_MODE_AF_PP) ||
 8002946:	2b11      	cmp	r3, #17
 8002948:	d003      	beq.n	8002952 <HAL_GPIO_Init+0x5a>
         (GPIO_Init->Mode == GPIO_MODE_OUTPUT_OD) || (GPIO_Init->Mode == GPIO_MODE_AF_OD))
 800294a:	683b      	ldr	r3, [r7, #0]
 800294c:	685b      	ldr	r3, [r3, #4]
 800294e:	2b12      	cmp	r3, #18
 8002950:	d130      	bne.n	80029b4 <HAL_GPIO_Init+0xbc>
      {
        /* Check the Speed parameter */
        assert_param(IS_GPIO_SPEED(GPIO_Init->Speed));
        /* Configure the IO Speed */
        temp = GPIOx->OSPEEDR; 
 8002952:	687b      	ldr	r3, [r7, #4]
 8002954:	689b      	ldr	r3, [r3, #8]
 8002956:	61bb      	str	r3, [r7, #24]
        temp &= ~(GPIO_OSPEEDER_OSPEEDR0 << (position * 2U));
 8002958:	69fb      	ldr	r3, [r7, #28]
 800295a:	005b      	lsls	r3, r3, #1
 800295c:	2203      	movs	r2, #3
 800295e:	fa02 f303 	lsl.w	r3, r2, r3
 8002962:	43db      	mvns	r3, r3
 8002964:	69ba      	ldr	r2, [r7, #24]
 8002966:	4013      	ands	r3, r2
 8002968:	61bb      	str	r3, [r7, #24]
        temp |= (GPIO_Init->Speed << (position * 2U));
 800296a:	683b      	ldr	r3, [r7, #0]
 800296c:	68da      	ldr	r2, [r3, #12]
 800296e:	69fb      	ldr	r3, [r7, #28]
 8002970:	005b      	lsls	r3, r3, #1
 8002972:	fa02 f303 	lsl.w	r3, r2, r3
 8002976:	69ba      	ldr	r2, [r7, #24]
 8002978:	4313      	orrs	r3, r2
 800297a:	61bb      	str	r3, [r7, #24]
        GPIOx->OSPEEDR = temp;
 800297c:	687b      	ldr	r3, [r7, #4]
 800297e:	69ba      	ldr	r2, [r7, #24]
 8002980:	609a      	str	r2, [r3, #8]

        /* Configure the IO Output Type */
        temp = GPIOx->OTYPER;
 8002982:	687b      	ldr	r3, [r7, #4]
 8002984:	685b      	ldr	r3, [r3, #4]
 8002986:	61bb      	str	r3, [r7, #24]
        temp &= ~(GPIO_OTYPER_OT_0 << position) ;
 8002988:	2201      	movs	r2, #1
 800298a:	69fb      	ldr	r3, [r7, #28]
 800298c:	fa02 f303 	lsl.w	r3, r2, r3
 8002990:	43db      	mvns	r3, r3
 8002992:	69ba      	ldr	r2, [r7, #24]
 8002994:	4013      	ands	r3, r2
 8002996:	61bb      	str	r3, [r7, #24]
        temp |= (((GPIO_Init->Mode & GPIO_OUTPUT_TYPE) >> 4U) << position);
 8002998:	683b      	ldr	r3, [r7, #0]
 800299a:	685b      	ldr	r3, [r3, #4]
 800299c:	091b      	lsrs	r3, r3, #4
 800299e:	f003 0201 	and.w	r2, r3, #1
 80029a2:	69fb      	ldr	r3, [r7, #28]
 80029a4:	fa02 f303 	lsl.w	r3, r2, r3
 80029a8:	69ba      	ldr	r2, [r7, #24]
 80029aa:	4313      	orrs	r3, r2
 80029ac:	61bb      	str	r3, [r7, #24]
        GPIOx->OTYPER = temp;
 80029ae:	687b      	ldr	r3, [r7, #4]
 80029b0:	69ba      	ldr	r2, [r7, #24]
 80029b2:	605a      	str	r2, [r3, #4]
       }

      /* Activate the Pull-up or Pull down resistor for the current IO */
      temp = GPIOx->PUPDR;
 80029b4:	687b      	ldr	r3, [r7, #4]
 80029b6:	68db      	ldr	r3, [r3, #12]
 80029b8:	61bb      	str	r3, [r7, #24]
      temp &= ~(GPIO_PUPDR_PUPDR0 << (position * 2U));
 80029ba:	69fb      	ldr	r3, [r7, #28]
 80029bc:	005b      	lsls	r3, r3, #1
 80029be:	2203      	movs	r2, #3
 80029c0:	fa02 f303 	lsl.w	r3, r2, r3
 80029c4:	43db      	mvns	r3, r3
 80029c6:	69ba      	ldr	r2, [r7, #24]
 80029c8:	4013      	ands	r3, r2
 80029ca:	61bb      	str	r3, [r7, #24]
      temp |= ((GPIO_Init->Pull) << (position * 2U));
 80029cc:	683b      	ldr	r3, [r7, #0]
 80029ce:	689a      	ldr	r2, [r3, #8]
 80029d0:	69fb      	ldr	r3, [r7, #28]
 80029d2:	005b      	lsls	r3, r3, #1
 80029d4:	fa02 f303 	lsl.w	r3, r2, r3
 80029d8:	69ba      	ldr	r2, [r7, #24]
 80029da:	4313      	orrs	r3, r2
 80029dc:	61bb      	str	r3, [r7, #24]
      GPIOx->PUPDR = temp;
 80029de:	687b      	ldr	r3, [r7, #4]
 80029e0:	69ba      	ldr	r2, [r7, #24]
 80029e2:	60da      	str	r2, [r3, #12]

      /* In case of Alternate function mode selection */
      if((GPIO_Init->Mode == GPIO_MODE_AF_PP) || (GPIO_Init->Mode == GPIO_MODE_AF_OD))
 80029e4:	683b      	ldr	r3, [r7, #0]
 80029e6:	685b      	ldr	r3, [r3, #4]
 80029e8:	2b02      	cmp	r3, #2
 80029ea:	d003      	beq.n	80029f4 <HAL_GPIO_Init+0xfc>
 80029ec:	683b      	ldr	r3, [r7, #0]
 80029ee:	685b      	ldr	r3, [r3, #4]
 80029f0:	2b12      	cmp	r3, #18
 80029f2:	d123      	bne.n	8002a3c <HAL_GPIO_Init+0x144>
      {
        /* Check the Alternate function parameter */
        assert_param(IS_GPIO_AF(GPIO_Init->Alternate));
        /* Configure Alternate function mapped with the current IO */
        temp = GPIOx->AFR[position >> 3U];
 80029f4:	69fb      	ldr	r3, [r7, #28]
 80029f6:	08da      	lsrs	r2, r3, #3
 80029f8:	687b      	ldr	r3, [r7, #4]
 80029fa:	3208      	adds	r2, #8
 80029fc:	f853 3022 	ldr.w	r3, [r3, r2, lsl #2]
 8002a00:	61bb      	str	r3, [r7, #24]
        temp &= ~(0xFU << ((uint32_t)(position & 0x07U) * 4U)) ;
 8002a02:	69fb      	ldr	r3, [r7, #28]
 8002a04:	f003 0307 	and.w	r3, r3, #7
 8002a08:	009b      	lsls	r3, r3, #2
 8002a0a:	220f      	movs	r2, #15
 8002a0c:	fa02 f303 	lsl.w	r3, r2, r3
 8002a10:	43db      	mvns	r3, r3
 8002a12:	69ba      	ldr	r2, [r7, #24]
 8002a14:	4013      	ands	r3, r2
 8002a16:	61bb      	str	r3, [r7, #24]
        temp |= ((uint32_t)(GPIO_Init->Alternate) << (((uint32_t)position & 0x07U) * 4U));
 8002a18:	683b      	ldr	r3, [r7, #0]
 8002a1a:	691a      	ldr	r2, [r3, #16]
 8002a1c:	69fb      	ldr	r3, [r7, #28]
 8002a1e:	f003 0307 	and.w	r3, r3, #7
 8002a22:	009b      	lsls	r3, r3, #2
 8002a24:	fa02 f303 	lsl.w	r3, r2, r3
 8002a28:	69ba      	ldr	r2, [r7, #24]
 8002a2a:	4313      	orrs	r3, r2
 8002a2c:	61bb      	str	r3, [r7, #24]
        GPIOx->AFR[position >> 3U] = temp;
 8002a2e:	69fb      	ldr	r3, [r7, #28]
 8002a30:	08da      	lsrs	r2, r3, #3
 8002a32:	687b      	ldr	r3, [r7, #4]
 8002a34:	3208      	adds	r2, #8
 8002a36:	69b9      	ldr	r1, [r7, #24]
 8002a38:	f843 1022 	str.w	r1, [r3, r2, lsl #2]
      }

      /* Configure IO Direction mode (Input, Output, Alternate or Analog) */
      temp = GPIOx->MODER;
 8002a3c:	687b      	ldr	r3, [r7, #4]
 8002a3e:	681b      	ldr	r3, [r3, #0]
 8002a40:	61bb      	str	r3, [r7, #24]
      temp &= ~(GPIO_MODER_MODER0 << (position * 2U));
 8002a42:	69fb      	ldr	r3, [r7, #28]
 8002a44:	005b      	lsls	r3, r3, #1
 8002a46:	2203      	movs	r2, #3
 8002a48:	fa02 f303 	lsl.w	r3, r2, r3
 8002a4c:	43db      	mvns	r3, r3
 8002a4e:	69ba      	ldr	r2, [r7, #24]
 8002a50:	4013      	ands	r3, r2
 8002a52:	61bb      	str	r3, [r7, #24]
      temp |= ((GPIO_Init->Mode & GPIO_MODE) << (position * 2U));
 8002a54:	683b      	ldr	r3, [r7, #0]
 8002a56:	685b      	ldr	r3, [r3, #4]
 8002a58:	f003 0203 	and.w	r2, r3, #3
 8002a5c:	69fb      	ldr	r3, [r7, #28]
 8002a5e:	005b      	lsls	r3, r3, #1
 8002a60:	fa02 f303 	lsl.w	r3, r2, r3
 8002a64:	69ba      	ldr	r2, [r7, #24]
 8002a66:	4313      	orrs	r3, r2
 8002a68:	61bb      	str	r3, [r7, #24]
      GPIOx->MODER = temp;
 8002a6a:	687b      	ldr	r3, [r7, #4]
 8002a6c:	69ba      	ldr	r2, [r7, #24]
 8002a6e:	601a      	str	r2, [r3, #0]

      /*--------------------- EXTI Mode Configuration ------------------------*/
      /* Configure the External Interrupt or event for the current IO */
      if((GPIO_Init->Mode & EXTI_MODE) == EXTI_MODE)
 8002a70:	683b      	ldr	r3, [r7, #0]
 8002a72:	685b      	ldr	r3, [r3, #4]
 8002a74:	f003 5380 	and.w	r3, r3, #268435456	; 0x10000000
 8002a78:	2b00      	cmp	r3, #0
 8002a7a:	f000 80ae 	beq.w	8002bda <HAL_GPIO_Init+0x2e2>
      {
        /* Enable SYSCFG Clock */
        __HAL_RCC_SYSCFG_CLK_ENABLE();
 8002a7e:	2300      	movs	r3, #0
 8002a80:	60fb      	str	r3, [r7, #12]
 8002a82:	4b5d      	ldr	r3, [pc, #372]	; (8002bf8 <HAL_GPIO_Init+0x300>)
 8002a84:	6c5b      	ldr	r3, [r3, #68]	; 0x44
 8002a86:	4a5c      	ldr	r2, [pc, #368]	; (8002bf8 <HAL_GPIO_Init+0x300>)
 8002a88:	f443 4380 	orr.w	r3, r3, #16384	; 0x4000
 8002a8c:	6453      	str	r3, [r2, #68]	; 0x44
 8002a8e:	4b5a      	ldr	r3, [pc, #360]	; (8002bf8 <HAL_GPIO_Init+0x300>)
 8002a90:	6c5b      	ldr	r3, [r3, #68]	; 0x44
 8002a92:	f403 4380 	and.w	r3, r3, #16384	; 0x4000
 8002a96:	60fb      	str	r3, [r7, #12]
 8002a98:	68fb      	ldr	r3, [r7, #12]

        temp = SYSCFG->EXTICR[position >> 2U];
 8002a9a:	4a58      	ldr	r2, [pc, #352]	; (8002bfc <HAL_GPIO_Init+0x304>)
 8002a9c:	69fb      	ldr	r3, [r7, #28]
 8002a9e:	089b      	lsrs	r3, r3, #2
 8002aa0:	3302      	adds	r3, #2
 8002aa2:	f852 3023 	ldr.w	r3, [r2, r3, lsl #2]
 8002aa6:	61bb      	str	r3, [r7, #24]
        temp &= ~(0x0FU << (4U * (position & 0x03U)));
 8002aa8:	69fb      	ldr	r3, [r7, #28]
 8002aaa:	f003 0303 	and.w	r3, r3, #3
 8002aae:	009b      	lsls	r3, r3, #2
 8002ab0:	220f      	movs	r2, #15
 8002ab2:	fa02 f303 	lsl.w	r3, r2, r3
 8002ab6:	43db      	mvns	r3, r3
 8002ab8:	69ba      	ldr	r2, [r7, #24]
 8002aba:	4013      	ands	r3, r2
 8002abc:	61bb      	str	r3, [r7, #24]
        temp |= ((uint32_t)(GPIO_GET_INDEX(GPIOx)) << (4U * (position & 0x03U)));
 8002abe:	687b      	ldr	r3, [r7, #4]
 8002ac0:	4a4f      	ldr	r2, [pc, #316]	; (8002c00 <HAL_GPIO_Init+0x308>)
 8002ac2:	4293      	cmp	r3, r2
 8002ac4:	d025      	beq.n	8002b12 <HAL_GPIO_Init+0x21a>
 8002ac6:	687b      	ldr	r3, [r7, #4]
 8002ac8:	4a4e      	ldr	r2, [pc, #312]	; (8002c04 <HAL_GPIO_Init+0x30c>)
 8002aca:	4293      	cmp	r3, r2
 8002acc:	d01f      	beq.n	8002b0e <HAL_GPIO_Init+0x216>
 8002ace:	687b      	ldr	r3, [r7, #4]
 8002ad0:	4a4d      	ldr	r2, [pc, #308]	; (8002c08 <HAL_GPIO_Init+0x310>)
 8002ad2:	4293      	cmp	r3, r2
 8002ad4:	d019      	beq.n	8002b0a <HAL_GPIO_Init+0x212>
 8002ad6:	687b      	ldr	r3, [r7, #4]
 8002ad8:	4a4c      	ldr	r2, [pc, #304]	; (8002c0c <HAL_GPIO_Init+0x314>)
 8002ada:	4293      	cmp	r3, r2
 8002adc:	d013      	beq.n	8002b06 <HAL_GPIO_Init+0x20e>
 8002ade:	687b      	ldr	r3, [r7, #4]
 8002ae0:	4a4b      	ldr	r2, [pc, #300]	; (8002c10 <HAL_GPIO_Init+0x318>)
 8002ae2:	4293      	cmp	r3, r2
 8002ae4:	d00d      	beq.n	8002b02 <HAL_GPIO_Init+0x20a>
 8002ae6:	687b      	ldr	r3, [r7, #4]
 8002ae8:	4a4a      	ldr	r2, [pc, #296]	; (8002c14 <HAL_GPIO_Init+0x31c>)
 8002aea:	4293      	cmp	r3, r2
 8002aec:	d007      	beq.n	8002afe <HAL_GPIO_Init+0x206>
 8002aee:	687b      	ldr	r3, [r7, #4]
 8002af0:	4a49      	ldr	r2, [pc, #292]	; (8002c18 <HAL_GPIO_Init+0x320>)
 8002af2:	4293      	cmp	r3, r2
 8002af4:	d101      	bne.n	8002afa <HAL_GPIO_Init+0x202>
 8002af6:	2306      	movs	r3, #6
 8002af8:	e00c      	b.n	8002b14 <HAL_GPIO_Init+0x21c>
 8002afa:	2307      	movs	r3, #7
 8002afc:	e00a      	b.n	8002b14 <HAL_GPIO_Init+0x21c>
 8002afe:	2305      	movs	r3, #5
 8002b00:	e008      	b.n	8002b14 <HAL_GPIO_Init+0x21c>
 8002b02:	2304      	movs	r3, #4
 8002b04:	e006      	b.n	8002b14 <HAL_GPIO_Init+0x21c>
 8002b06:	2303      	movs	r3, #3
 8002b08:	e004      	b.n	8002b14 <HAL_GPIO_Init+0x21c>
 8002b0a:	2302      	movs	r3, #2
 8002b0c:	e002      	b.n	8002b14 <HAL_GPIO_Init+0x21c>
 8002b0e:	2301      	movs	r3, #1
 8002b10:	e000      	b.n	8002b14 <HAL_GPIO_Init+0x21c>
 8002b12:	2300      	movs	r3, #0
 8002b14:	69fa      	ldr	r2, [r7, #28]
 8002b16:	f002 0203 	and.w	r2, r2, #3
 8002b1a:	0092      	lsls	r2, r2, #2
 8002b1c:	4093      	lsls	r3, r2
 8002b1e:	69ba      	ldr	r2, [r7, #24]
 8002b20:	4313      	orrs	r3, r2
 8002b22:	61bb      	str	r3, [r7, #24]
        SYSCFG->EXTICR[position >> 2U] = temp;
 8002b24:	4935      	ldr	r1, [pc, #212]	; (8002bfc <HAL_GPIO_Init+0x304>)
 8002b26:	69fb      	ldr	r3, [r7, #28]
 8002b28:	089b      	lsrs	r3, r3, #2
 8002b2a:	3302      	adds	r3, #2
 8002b2c:	69ba      	ldr	r2, [r7, #24]
 8002b2e:	f841 2023 	str.w	r2, [r1, r3, lsl #2]

        /* Clear EXTI line configuration */
        temp = EXTI->IMR;
 8002b32:	4b3a      	ldr	r3, [pc, #232]	; (8002c1c <HAL_GPIO_Init+0x324>)
 8002b34:	681b      	ldr	r3, [r3, #0]
 8002b36:	61bb      	str	r3, [r7, #24]
        temp &= ~((uint32_t)iocurrent);
 8002b38:	693b      	ldr	r3, [r7, #16]
 8002b3a:	43db      	mvns	r3, r3
 8002b3c:	69ba      	ldr	r2, [r7, #24]
 8002b3e:	4013      	ands	r3, r2
 8002b40:	61bb      	str	r3, [r7, #24]
        if((GPIO_Init->Mode & GPIO_MODE_IT) == GPIO_MODE_IT)
 8002b42:	683b      	ldr	r3, [r7, #0]
 8002b44:	685b      	ldr	r3, [r3, #4]
 8002b46:	f403 3380 	and.w	r3, r3, #65536	; 0x10000
 8002b4a:	2b00      	cmp	r3, #0
 8002b4c:	d003      	beq.n	8002b56 <HAL_GPIO_Init+0x25e>
        {
          temp |= iocurrent;
 8002b4e:	69ba      	ldr	r2, [r7, #24]
 8002b50:	693b      	ldr	r3, [r7, #16]
 8002b52:	4313      	orrs	r3, r2
 8002b54:	61bb      	str	r3, [r7, #24]
        }
        EXTI->IMR = temp;
 8002b56:	4a31      	ldr	r2, [pc, #196]	; (8002c1c <HAL_GPIO_Init+0x324>)
 8002b58:	69bb      	ldr	r3, [r7, #24]
 8002b5a:	6013      	str	r3, [r2, #0]

        temp = EXTI->EMR;
 8002b5c:	4b2f      	ldr	r3, [pc, #188]	; (8002c1c <HAL_GPIO_Init+0x324>)
 8002b5e:	685b      	ldr	r3, [r3, #4]
 8002b60:	61bb      	str	r3, [r7, #24]
        temp &= ~((uint32_t)iocurrent);
 8002b62:	693b      	ldr	r3, [r7, #16]
 8002b64:	43db      	mvns	r3, r3
 8002b66:	69ba      	ldr	r2, [r7, #24]
 8002b68:	4013      	ands	r3, r2
 8002b6a:	61bb      	str	r3, [r7, #24]
        if((GPIO_Init->Mode & GPIO_MODE_EVT) == GPIO_MODE_EVT)
 8002b6c:	683b      	ldr	r3, [r7, #0]
 8002b6e:	685b      	ldr	r3, [r3, #4]
 8002b70:	f403 3300 	and.w	r3, r3, #131072	; 0x20000
 8002b74:	2b00      	cmp	r3, #0
 8002b76:	d003      	beq.n	8002b80 <HAL_GPIO_Init+0x288>
        {
          temp |= iocurrent;
 8002b78:	69ba      	ldr	r2, [r7, #24]
 8002b7a:	693b      	ldr	r3, [r7, #16]
 8002b7c:	4313      	orrs	r3, r2
 8002b7e:	61bb      	str	r3, [r7, #24]
        }
        EXTI->EMR = temp;
 8002b80:	4a26      	ldr	r2, [pc, #152]	; (8002c1c <HAL_GPIO_Init+0x324>)
 8002b82:	69bb      	ldr	r3, [r7, #24]
 8002b84:	6053      	str	r3, [r2, #4]

        /* Clear Rising Falling edge configuration */
        temp = EXTI->RTSR;
 8002b86:	4b25      	ldr	r3, [pc, #148]	; (8002c1c <HAL_GPIO_Init+0x324>)
 8002b88:	689b      	ldr	r3, [r3, #8]
 8002b8a:	61bb      	str	r3, [r7, #24]
        temp &= ~((uint32_t)iocurrent);
 8002b8c:	693b      	ldr	r3, [r7, #16]
 8002b8e:	43db      	mvns	r3, r3
 8002b90:	69ba      	ldr	r2, [r7, #24]
 8002b92:	4013      	ands	r3, r2
 8002b94:	61bb      	str	r3, [r7, #24]
        if((GPIO_Init->Mode & RISING_EDGE) == RISING_EDGE)
 8002b96:	683b      	ldr	r3, [r7, #0]
 8002b98:	685b      	ldr	r3, [r3, #4]
 8002b9a:	f403 1380 	and.w	r3, r3, #1048576	; 0x100000
 8002b9e:	2b00      	cmp	r3, #0
 8002ba0:	d003      	beq.n	8002baa <HAL_GPIO_Init+0x2b2>
        {
          temp |= iocurrent;
 8002ba2:	69ba      	ldr	r2, [r7, #24]
 8002ba4:	693b      	ldr	r3, [r7, #16]
 8002ba6:	4313      	orrs	r3, r2
 8002ba8:	61bb      	str	r3, [r7, #24]
        }
        EXTI->RTSR = temp;
 8002baa:	4a1c      	ldr	r2, [pc, #112]	; (8002c1c <HAL_GPIO_Init+0x324>)
 8002bac:	69bb      	ldr	r3, [r7, #24]
 8002bae:	6093      	str	r3, [r2, #8]

        temp = EXTI->FTSR;
 8002bb0:	4b1a      	ldr	r3, [pc, #104]	; (8002c1c <HAL_GPIO_Init+0x324>)
 8002bb2:	68db      	ldr	r3, [r3, #12]
 8002bb4:	61bb      	str	r3, [r7, #24]
        temp &= ~((uint32_t)iocurrent);
 8002bb6:	693b      	ldr	r3, [r7, #16]
 8002bb8:	43db      	mvns	r3, r3
 8002bba:	69ba      	ldr	r2, [r7, #24]
 8002bbc:	4013      	ands	r3, r2
 8002bbe:	61bb      	str	r3, [r7, #24]
        if((GPIO_Init->Mode & FALLING_EDGE) == FALLING_EDGE)
 8002bc0:	683b      	ldr	r3, [r7, #0]
 8002bc2:	685b      	ldr	r3, [r3, #4]
 8002bc4:	f403 1300 	and.w	r3, r3, #2097152	; 0x200000
 8002bc8:	2b00      	cmp	r3, #0
 8002bca:	d003      	beq.n	8002bd4 <HAL_GPIO_Init+0x2dc>
        {
          temp |= iocurrent;
 8002bcc:	69ba      	ldr	r2, [r7, #24]
 8002bce:	693b      	ldr	r3, [r7, #16]
 8002bd0:	4313      	orrs	r3, r2
 8002bd2:	61bb      	str	r3, [r7, #24]
        }
        EXTI->FTSR = temp;
 8002bd4:	4a11      	ldr	r2, [pc, #68]	; (8002c1c <HAL_GPIO_Init+0x324>)
 8002bd6:	69bb      	ldr	r3, [r7, #24]
 8002bd8:	60d3      	str	r3, [r2, #12]
  for(position = 0U; position < GPIO_NUMBER; position++)
 8002bda:	69fb      	ldr	r3, [r7, #28]
 8002bdc:	3301      	adds	r3, #1
 8002bde:	61fb      	str	r3, [r7, #28]
 8002be0:	69fb      	ldr	r3, [r7, #28]
 8002be2:	2b0f      	cmp	r3, #15
 8002be4:	f67f ae96 	bls.w	8002914 <HAL_GPIO_Init+0x1c>
      }
    }
  }
}
 8002be8:	bf00      	nop
 8002bea:	bf00      	nop
 8002bec:	3724      	adds	r7, #36	; 0x24
 8002bee:	46bd      	mov	sp, r7
 8002bf0:	f85d 7b04 	ldr.w	r7, [sp], #4
 8002bf4:	4770      	bx	lr
 8002bf6:	bf00      	nop
 8002bf8:	40023800 	.word	0x40023800
 8002bfc:	40013800 	.word	0x40013800
 8002c00:	40020000 	.word	0x40020000
 8002c04:	40020400 	.word	0x40020400
 8002c08:	40020800 	.word	0x40020800
 8002c0c:	40020c00 	.word	0x40020c00
 8002c10:	40021000 	.word	0x40021000
 8002c14:	40021400 	.word	0x40021400
 8002c18:	40021800 	.word	0x40021800
 8002c1c:	40013c00 	.word	0x40013c00

08002c20 <HAL_GPIO_WritePin>:
  *            @arg GPIO_PIN_RESET: to clear the port pin
  *            @arg GPIO_PIN_SET: to set the port pin
  * @retval None
  */
void HAL_GPIO_WritePin(GPIO_TypeDef* GPIOx, uint16_t GPIO_Pin, GPIO_PinState PinState)
{
 8002c20:	b480      	push	{r7}
 8002c22:	b083      	sub	sp, #12
 8002c24:	af00      	add	r7, sp, #0
 8002c26:	6078      	str	r0, [r7, #4]
 8002c28:	460b      	mov	r3, r1
 8002c2a:	807b      	strh	r3, [r7, #2]
 8002c2c:	4613      	mov	r3, r2
 8002c2e:	707b      	strb	r3, [r7, #1]
  /* Check the parameters */
  assert_param(IS_GPIO_PIN(GPIO_Pin));
  assert_param(IS_GPIO_PIN_ACTION(PinState));

  if(PinState != GPIO_PIN_RESET)
 8002c30:	787b      	ldrb	r3, [r7, #1]
 8002c32:	2b00      	cmp	r3, #0
 8002c34:	d003      	beq.n	8002c3e <HAL_GPIO_WritePin+0x1e>
  {
    GPIOx->BSRR = GPIO_Pin;
 8002c36:	887a      	ldrh	r2, [r7, #2]
 8002c38:	687b      	ldr	r3, [r7, #4]
 8002c3a:	619a      	str	r2, [r3, #24]
  }
  else
  {
    GPIOx->BSRR = (uint32_t)GPIO_Pin << 16U;
  }
}
 8002c3c:	e003      	b.n	8002c46 <HAL_GPIO_WritePin+0x26>
    GPIOx->BSRR = (uint32_t)GPIO_Pin << 16U;
 8002c3e:	887b      	ldrh	r3, [r7, #2]
 8002c40:	041a      	lsls	r2, r3, #16
 8002c42:	687b      	ldr	r3, [r7, #4]
 8002c44:	619a      	str	r2, [r3, #24]
}
 8002c46:	bf00      	nop
 8002c48:	370c      	adds	r7, #12
 8002c4a:	46bd      	mov	sp, r7
 8002c4c:	f85d 7b04 	ldr.w	r7, [sp], #4
 8002c50:	4770      	bx	lr
	...

08002c54 <HAL_PWREx_EnableOverDrive>:
  *         During the Over-drive switch activation, no peripheral clocks should be enabled.   
  *         The peripheral clocks must be enabled once the Over-drive mode is activated.   
  * @retval HAL status
  */
HAL_StatusTypeDef HAL_PWREx_EnableOverDrive(void)
{
 8002c54:	b580      	push	{r7, lr}
 8002c56:	b082      	sub	sp, #8
 8002c58:	af00      	add	r7, sp, #0
  uint32_t tickstart = 0U;
 8002c5a:	2300      	movs	r3, #0
 8002c5c:	607b      	str	r3, [r7, #4]

  __HAL_RCC_PWR_CLK_ENABLE();
 8002c5e:	2300      	movs	r3, #0
 8002c60:	603b      	str	r3, [r7, #0]
 8002c62:	4b20      	ldr	r3, [pc, #128]	; (8002ce4 <HAL_PWREx_EnableOverDrive+0x90>)
 8002c64:	6c1b      	ldr	r3, [r3, #64]	; 0x40
 8002c66:	4a1f      	ldr	r2, [pc, #124]	; (8002ce4 <HAL_PWREx_EnableOverDrive+0x90>)
 8002c68:	f043 5380 	orr.w	r3, r3, #268435456	; 0x10000000
 8002c6c:	6413      	str	r3, [r2, #64]	; 0x40
 8002c6e:	4b1d      	ldr	r3, [pc, #116]	; (8002ce4 <HAL_PWREx_EnableOverDrive+0x90>)
 8002c70:	6c1b      	ldr	r3, [r3, #64]	; 0x40
 8002c72:	f003 5380 	and.w	r3, r3, #268435456	; 0x10000000
 8002c76:	603b      	str	r3, [r7, #0]
 8002c78:	683b      	ldr	r3, [r7, #0]
  
  /* Enable the Over-drive to extend the clock frequency to 180 Mhz */
  __HAL_PWR_OVERDRIVE_ENABLE();
 8002c7a:	4b1b      	ldr	r3, [pc, #108]	; (8002ce8 <HAL_PWREx_EnableOverDrive+0x94>)
 8002c7c:	2201      	movs	r2, #1
 8002c7e:	601a      	str	r2, [r3, #0]

  /* Get tick */
  tickstart = HAL_GetTick();
 8002c80:	f7fe ffc0 	bl	8001c04 <HAL_GetTick>
 8002c84:	6078      	str	r0, [r7, #4]

  while(!__HAL_PWR_GET_FLAG(PWR_FLAG_ODRDY))
 8002c86:	e009      	b.n	8002c9c <HAL_PWREx_EnableOverDrive+0x48>
  {
    if((HAL_GetTick() - tickstart) > PWR_OVERDRIVE_TIMEOUT_VALUE)
 8002c88:	f7fe ffbc 	bl	8001c04 <HAL_GetTick>
 8002c8c:	4602      	mov	r2, r0
 8002c8e:	687b      	ldr	r3, [r7, #4]
 8002c90:	1ad3      	subs	r3, r2, r3
 8002c92:	f5b3 7f7a 	cmp.w	r3, #1000	; 0x3e8
 8002c96:	d901      	bls.n	8002c9c <HAL_PWREx_EnableOverDrive+0x48>
    {
      return HAL_TIMEOUT;
 8002c98:	2303      	movs	r3, #3
 8002c9a:	e01f      	b.n	8002cdc <HAL_PWREx_EnableOverDrive+0x88>
  while(!__HAL_PWR_GET_FLAG(PWR_FLAG_ODRDY))
 8002c9c:	4b13      	ldr	r3, [pc, #76]	; (8002cec <HAL_PWREx_EnableOverDrive+0x98>)
 8002c9e:	685b      	ldr	r3, [r3, #4]
 8002ca0:	f403 3380 	and.w	r3, r3, #65536	; 0x10000
 8002ca4:	f5b3 3f80 	cmp.w	r3, #65536	; 0x10000
 8002ca8:	d1ee      	bne.n	8002c88 <HAL_PWREx_EnableOverDrive+0x34>
    }
  }
  
  /* Enable the Over-drive switch */
  __HAL_PWR_OVERDRIVESWITCHING_ENABLE();
 8002caa:	4b11      	ldr	r3, [pc, #68]	; (8002cf0 <HAL_PWREx_EnableOverDrive+0x9c>)
 8002cac:	2201      	movs	r2, #1
 8002cae:	601a      	str	r2, [r3, #0]

  /* Get tick */
  tickstart = HAL_GetTick();
 8002cb0:	f7fe ffa8 	bl	8001c04 <HAL_GetTick>
 8002cb4:	6078      	str	r0, [r7, #4]

  while(!__HAL_PWR_GET_FLAG(PWR_FLAG_ODSWRDY))
 8002cb6:	e009      	b.n	8002ccc <HAL_PWREx_EnableOverDrive+0x78>
  {
    if((HAL_GetTick() - tickstart ) > PWR_OVERDRIVE_TIMEOUT_VALUE)
 8002cb8:	f7fe ffa4 	bl	8001c04 <HAL_GetTick>
 8002cbc:	4602      	mov	r2, r0
 8002cbe:	687b      	ldr	r3, [r7, #4]
 8002cc0:	1ad3      	subs	r3, r2, r3
 8002cc2:	f5b3 7f7a 	cmp.w	r3, #1000	; 0x3e8
 8002cc6:	d901      	bls.n	8002ccc <HAL_PWREx_EnableOverDrive+0x78>
    {
      return HAL_TIMEOUT;
 8002cc8:	2303      	movs	r3, #3
 8002cca:	e007      	b.n	8002cdc <HAL_PWREx_EnableOverDrive+0x88>
  while(!__HAL_PWR_GET_FLAG(PWR_FLAG_ODSWRDY))
 8002ccc:	4b07      	ldr	r3, [pc, #28]	; (8002cec <HAL_PWREx_EnableOverDrive+0x98>)
 8002cce:	685b      	ldr	r3, [r3, #4]
 8002cd0:	f403 3300 	and.w	r3, r3, #131072	; 0x20000
 8002cd4:	f5b3 3f00 	cmp.w	r3, #131072	; 0x20000
 8002cd8:	d1ee      	bne.n	8002cb8 <HAL_PWREx_EnableOverDrive+0x64>
    }
  } 
  return HAL_OK;
 8002cda:	2300      	movs	r3, #0
}
 8002cdc:	4618      	mov	r0, r3
 8002cde:	3708      	adds	r7, #8
 8002ce0:	46bd      	mov	sp, r7
 8002ce2:	bd80      	pop	{r7, pc}
 8002ce4:	40023800 	.word	0x40023800
 8002ce8:	420e0040 	.word	0x420e0040
 8002cec:	40007000 	.word	0x40007000
 8002cf0:	420e0044 	.word	0x420e0044

08002cf4 <HAL_RCC_ClockConfig>:
  *         HPRE[3:0] bits to ensure that HCLK not exceed the maximum allowed frequency
  *         (for more details refer to section above "Initialization/de-initialization functions")
  * @retval None
  */
HAL_StatusTypeDef HAL_RCC_ClockConfig(RCC_ClkInitTypeDef  *RCC_ClkInitStruct, uint32_t FLatency)
{
 8002cf4:	b580      	push	{r7, lr}
 8002cf6:	b084      	sub	sp, #16
 8002cf8:	af00      	add	r7, sp, #0
 8002cfa:	6078      	str	r0, [r7, #4]
 8002cfc:	6039      	str	r1, [r7, #0]
  uint32_t tickstart;

  /* Check Null pointer */
  if(RCC_ClkInitStruct == NULL)
 8002cfe:	687b      	ldr	r3, [r7, #4]
 8002d00:	2b00      	cmp	r3, #0
 8002d02:	d101      	bne.n	8002d08 <HAL_RCC_ClockConfig+0x14>
  {
    return HAL_ERROR;
 8002d04:	2301      	movs	r3, #1
 8002d06:	e0cc      	b.n	8002ea2 <HAL_RCC_ClockConfig+0x1ae>
  /* To correctly read data from FLASH memory, the number of wait states (LATENCY)
    must be correctly programmed according to the frequency of the CPU clock
    (HCLK) and the supply voltage of the device. */

  /* Increasing the number of wait states because of higher CPU frequency */
  if(FLatency > __HAL_FLASH_GET_LATENCY())
 8002d08:	4b68      	ldr	r3, [pc, #416]	; (8002eac <HAL_RCC_ClockConfig+0x1b8>)
 8002d0a:	681b      	ldr	r3, [r3, #0]
 8002d0c:	f003 030f 	and.w	r3, r3, #15
 8002d10:	683a      	ldr	r2, [r7, #0]
 8002d12:	429a      	cmp	r2, r3
 8002d14:	d90c      	bls.n	8002d30 <HAL_RCC_ClockConfig+0x3c>
  {
    /* Program the new number of wait states to the LATENCY bits in the FLASH_ACR register */
    __HAL_FLASH_SET_LATENCY(FLatency);
 8002d16:	4b65      	ldr	r3, [pc, #404]	; (8002eac <HAL_RCC_ClockConfig+0x1b8>)
 8002d18:	683a      	ldr	r2, [r7, #0]
 8002d1a:	b2d2      	uxtb	r2, r2
 8002d1c:	701a      	strb	r2, [r3, #0]

    /* Check that the new number of wait states is taken into account to access the Flash
    memory by reading the FLASH_ACR register */
    if(__HAL_FLASH_GET_LATENCY() != FLatency)
 8002d1e:	4b63      	ldr	r3, [pc, #396]	; (8002eac <HAL_RCC_ClockConfig+0x1b8>)
 8002d20:	681b      	ldr	r3, [r3, #0]
 8002d22:	f003 030f 	and.w	r3, r3, #15
 8002d26:	683a      	ldr	r2, [r7, #0]
 8002d28:	429a      	cmp	r2, r3
 8002d2a:	d001      	beq.n	8002d30 <HAL_RCC_ClockConfig+0x3c>
    {
      return HAL_ERROR;
 8002d2c:	2301      	movs	r3, #1
 8002d2e:	e0b8      	b.n	8002ea2 <HAL_RCC_ClockConfig+0x1ae>
    }
  }

  /*-------------------------- HCLK Configuration --------------------------*/
  if(((RCC_ClkInitStruct->ClockType) & RCC_CLOCKTYPE_HCLK) == RCC_CLOCKTYPE_HCLK)
 8002d30:	687b      	ldr	r3, [r7, #4]
 8002d32:	681b      	ldr	r3, [r3, #0]
 8002d34:	f003 0302 	and.w	r3, r3, #2
 8002d38:	2b00      	cmp	r3, #0
 8002d3a:	d020      	beq.n	8002d7e <HAL_RCC_ClockConfig+0x8a>
  {
    /* Set the highest APBx dividers in order to ensure that we do not go through
       a non-spec phase whatever we decrease or increase HCLK. */
    if(((RCC_ClkInitStruct->ClockType) & RCC_CLOCKTYPE_PCLK1) == RCC_CLOCKTYPE_PCLK1)
 8002d3c:	687b      	ldr	r3, [r7, #4]
 8002d3e:	681b      	ldr	r3, [r3, #0]
 8002d40:	f003 0304 	and.w	r3, r3, #4
 8002d44:	2b00      	cmp	r3, #0
 8002d46:	d005      	beq.n	8002d54 <HAL_RCC_ClockConfig+0x60>
    {
      MODIFY_REG(RCC->CFGR, RCC_CFGR_PPRE1, RCC_HCLK_DIV16);
 8002d48:	4b59      	ldr	r3, [pc, #356]	; (8002eb0 <HAL_RCC_ClockConfig+0x1bc>)
 8002d4a:	689b      	ldr	r3, [r3, #8]
 8002d4c:	4a58      	ldr	r2, [pc, #352]	; (8002eb0 <HAL_RCC_ClockConfig+0x1bc>)
 8002d4e:	f443 53e0 	orr.w	r3, r3, #7168	; 0x1c00
 8002d52:	6093      	str	r3, [r2, #8]
    }

    if(((RCC_ClkInitStruct->ClockType) & RCC_CLOCKTYPE_PCLK2) == RCC_CLOCKTYPE_PCLK2)
 8002d54:	687b      	ldr	r3, [r7, #4]
 8002d56:	681b      	ldr	r3, [r3, #0]
 8002d58:	f003 0308 	and.w	r3, r3, #8
 8002d5c:	2b00      	cmp	r3, #0
 8002d5e:	d005      	beq.n	8002d6c <HAL_RCC_ClockConfig+0x78>
    {
      MODIFY_REG(RCC->CFGR, RCC_CFGR_PPRE2, (RCC_HCLK_DIV16 << 3));
 8002d60:	4b53      	ldr	r3, [pc, #332]	; (8002eb0 <HAL_RCC_ClockConfig+0x1bc>)
 8002d62:	689b      	ldr	r3, [r3, #8]
 8002d64:	4a52      	ldr	r2, [pc, #328]	; (8002eb0 <HAL_RCC_ClockConfig+0x1bc>)
 8002d66:	f443 4360 	orr.w	r3, r3, #57344	; 0xe000
 8002d6a:	6093      	str	r3, [r2, #8]
    }

    assert_param(IS_RCC_HCLK(RCC_ClkInitStruct->AHBCLKDivider));
    MODIFY_REG(RCC->CFGR, RCC_CFGR_HPRE, RCC_ClkInitStruct->AHBCLKDivider);
 8002d6c:	4b50      	ldr	r3, [pc, #320]	; (8002eb0 <HAL_RCC_ClockConfig+0x1bc>)
 8002d6e:	689b      	ldr	r3, [r3, #8]
 8002d70:	f023 02f0 	bic.w	r2, r3, #240	; 0xf0
 8002d74:	687b      	ldr	r3, [r7, #4]
 8002d76:	689b      	ldr	r3, [r3, #8]
 8002d78:	494d      	ldr	r1, [pc, #308]	; (8002eb0 <HAL_RCC_ClockConfig+0x1bc>)
 8002d7a:	4313      	orrs	r3, r2
 8002d7c:	608b      	str	r3, [r1, #8]
  }

  /*------------------------- SYSCLK Configuration ---------------------------*/
  if(((RCC_ClkInitStruct->ClockType) & RCC_CLOCKTYPE_SYSCLK) == RCC_CLOCKTYPE_SYSCLK)
 8002d7e:	687b      	ldr	r3, [r7, #4]
 8002d80:	681b      	ldr	r3, [r3, #0]
 8002d82:	f003 0301 	and.w	r3, r3, #1
 8002d86:	2b00      	cmp	r3, #0
 8002d88:	d044      	beq.n	8002e14 <HAL_RCC_ClockConfig+0x120>
  {
    assert_param(IS_RCC_SYSCLKSOURCE(RCC_ClkInitStruct->SYSCLKSource));

    /* HSE is selected as System Clock Source */
    if(RCC_ClkInitStruct->SYSCLKSource == RCC_SYSCLKSOURCE_HSE)
 8002d8a:	687b      	ldr	r3, [r7, #4]
 8002d8c:	685b      	ldr	r3, [r3, #4]
 8002d8e:	2b01      	cmp	r3, #1
 8002d90:	d107      	bne.n	8002da2 <HAL_RCC_ClockConfig+0xae>
    {
      /* Check the HSE ready flag */
      if(__HAL_RCC_GET_FLAG(RCC_FLAG_HSERDY) == RESET)
 8002d92:	4b47      	ldr	r3, [pc, #284]	; (8002eb0 <HAL_RCC_ClockConfig+0x1bc>)
 8002d94:	681b      	ldr	r3, [r3, #0]
 8002d96:	f403 3300 	and.w	r3, r3, #131072	; 0x20000
 8002d9a:	2b00      	cmp	r3, #0
 8002d9c:	d119      	bne.n	8002dd2 <HAL_RCC_ClockConfig+0xde>
      {
        return HAL_ERROR;
 8002d9e:	2301      	movs	r3, #1
 8002da0:	e07f      	b.n	8002ea2 <HAL_RCC_ClockConfig+0x1ae>
      }
    }
    /* PLL is selected as System Clock Source */
    else if((RCC_ClkInitStruct->SYSCLKSource == RCC_SYSCLKSOURCE_PLLCLK)   ||
 8002da2:	687b      	ldr	r3, [r7, #4]
 8002da4:	685b      	ldr	r3, [r3, #4]
 8002da6:	2b02      	cmp	r3, #2
 8002da8:	d003      	beq.n	8002db2 <HAL_RCC_ClockConfig+0xbe>
            (RCC_ClkInitStruct->SYSCLKSource == RCC_SYSCLKSOURCE_PLLRCLK))
 8002daa:	687b      	ldr	r3, [r7, #4]
 8002dac:	685b      	ldr	r3, [r3, #4]
    else if((RCC_ClkInitStruct->SYSCLKSource == RCC_SYSCLKSOURCE_PLLCLK)   ||
 8002dae:	2b03      	cmp	r3, #3
 8002db0:	d107      	bne.n	8002dc2 <HAL_RCC_ClockConfig+0xce>
    {
      /* Check the PLL ready flag */
      if(__HAL_RCC_GET_FLAG(RCC_FLAG_PLLRDY) == RESET)
 8002db2:	4b3f      	ldr	r3, [pc, #252]	; (8002eb0 <HAL_RCC_ClockConfig+0x1bc>)
 8002db4:	681b      	ldr	r3, [r3, #0]
 8002db6:	f003 7300 	and.w	r3, r3, #33554432	; 0x2000000
 8002dba:	2b00      	cmp	r3, #0
 8002dbc:	d109      	bne.n	8002dd2 <HAL_RCC_ClockConfig+0xde>
      {
        return HAL_ERROR;
 8002dbe:	2301      	movs	r3, #1
 8002dc0:	e06f      	b.n	8002ea2 <HAL_RCC_ClockConfig+0x1ae>
    }
    /* HSI is selected as System Clock Source */
    else
    {
      /* Check the HSI ready flag */
      if(__HAL_RCC_GET_FLAG(RCC_FLAG_HSIRDY) == RESET)
 8002dc2:	4b3b      	ldr	r3, [pc, #236]	; (8002eb0 <HAL_RCC_ClockConfig+0x1bc>)
 8002dc4:	681b      	ldr	r3, [r3, #0]
 8002dc6:	f003 0302 	and.w	r3, r3, #2
 8002dca:	2b00      	cmp	r3, #0
 8002dcc:	d101      	bne.n	8002dd2 <HAL_RCC_ClockConfig+0xde>
      {
        return HAL_ERROR;
 8002dce:	2301      	movs	r3, #1
 8002dd0:	e067      	b.n	8002ea2 <HAL_RCC_ClockConfig+0x1ae>
      }
    }

    __HAL_RCC_SYSCLK_CONFIG(RCC_ClkInitStruct->SYSCLKSource);
 8002dd2:	4b37      	ldr	r3, [pc, #220]	; (8002eb0 <HAL_RCC_ClockConfig+0x1bc>)
 8002dd4:	689b      	ldr	r3, [r3, #8]
 8002dd6:	f023 0203 	bic.w	r2, r3, #3
 8002dda:	687b      	ldr	r3, [r7, #4]
 8002ddc:	685b      	ldr	r3, [r3, #4]
 8002dde:	4934      	ldr	r1, [pc, #208]	; (8002eb0 <HAL_RCC_ClockConfig+0x1bc>)
 8002de0:	4313      	orrs	r3, r2
 8002de2:	608b      	str	r3, [r1, #8]

    /* Get Start Tick */
    tickstart = HAL_GetTick();
 8002de4:	f7fe ff0e 	bl	8001c04 <HAL_GetTick>
 8002de8:	60f8      	str	r0, [r7, #12]

    while (__HAL_RCC_GET_SYSCLK_SOURCE() != (RCC_ClkInitStruct->SYSCLKSource << RCC_CFGR_SWS_Pos))
 8002dea:	e00a      	b.n	8002e02 <HAL_RCC_ClockConfig+0x10e>
    {
      if ((HAL_GetTick() - tickstart) > CLOCKSWITCH_TIMEOUT_VALUE)
 8002dec:	f7fe ff0a 	bl	8001c04 <HAL_GetTick>
 8002df0:	4602      	mov	r2, r0
 8002df2:	68fb      	ldr	r3, [r7, #12]
 8002df4:	1ad3      	subs	r3, r2, r3
 8002df6:	f241 3288 	movw	r2, #5000	; 0x1388
 8002dfa:	4293      	cmp	r3, r2
 8002dfc:	d901      	bls.n	8002e02 <HAL_RCC_ClockConfig+0x10e>
      {
        return HAL_TIMEOUT;
 8002dfe:	2303      	movs	r3, #3
 8002e00:	e04f      	b.n	8002ea2 <HAL_RCC_ClockConfig+0x1ae>
    while (__HAL_RCC_GET_SYSCLK_SOURCE() != (RCC_ClkInitStruct->SYSCLKSource << RCC_CFGR_SWS_Pos))
 8002e02:	4b2b      	ldr	r3, [pc, #172]	; (8002eb0 <HAL_RCC_ClockConfig+0x1bc>)
 8002e04:	689b      	ldr	r3, [r3, #8]
 8002e06:	f003 020c 	and.w	r2, r3, #12
 8002e0a:	687b      	ldr	r3, [r7, #4]
 8002e0c:	685b      	ldr	r3, [r3, #4]
 8002e0e:	009b      	lsls	r3, r3, #2
 8002e10:	429a      	cmp	r2, r3
 8002e12:	d1eb      	bne.n	8002dec <HAL_RCC_ClockConfig+0xf8>
      }
    }
  }

  /* Decreasing the number of wait states because of lower CPU frequency */
  if(FLatency < __HAL_FLASH_GET_LATENCY())
 8002e14:	4b25      	ldr	r3, [pc, #148]	; (8002eac <HAL_RCC_ClockConfig+0x1b8>)
 8002e16:	681b      	ldr	r3, [r3, #0]
 8002e18:	f003 030f 	and.w	r3, r3, #15
 8002e1c:	683a      	ldr	r2, [r7, #0]
 8002e1e:	429a      	cmp	r2, r3
 8002e20:	d20c      	bcs.n	8002e3c <HAL_RCC_ClockConfig+0x148>
  {
     /* Program the new number of wait states to the LATENCY bits in the FLASH_ACR register */
    __HAL_FLASH_SET_LATENCY(FLatency);
 8002e22:	4b22      	ldr	r3, [pc, #136]	; (8002eac <HAL_RCC_ClockConfig+0x1b8>)
 8002e24:	683a      	ldr	r2, [r7, #0]
 8002e26:	b2d2      	uxtb	r2, r2
 8002e28:	701a      	strb	r2, [r3, #0]

    /* Check that the new number of wait states is taken into account to access the Flash
    memory by reading the FLASH_ACR register */
    if(__HAL_FLASH_GET_LATENCY() != FLatency)
 8002e2a:	4b20      	ldr	r3, [pc, #128]	; (8002eac <HAL_RCC_ClockConfig+0x1b8>)
 8002e2c:	681b      	ldr	r3, [r3, #0]
 8002e2e:	f003 030f 	and.w	r3, r3, #15
 8002e32:	683a      	ldr	r2, [r7, #0]
 8002e34:	429a      	cmp	r2, r3
 8002e36:	d001      	beq.n	8002e3c <HAL_RCC_ClockConfig+0x148>
    {
      return HAL_ERROR;
 8002e38:	2301      	movs	r3, #1
 8002e3a:	e032      	b.n	8002ea2 <HAL_RCC_ClockConfig+0x1ae>
    }
  }

  /*-------------------------- PCLK1 Configuration ---------------------------*/
  if(((RCC_ClkInitStruct->ClockType) & RCC_CLOCKTYPE_PCLK1) == RCC_CLOCKTYPE_PCLK1)
 8002e3c:	687b      	ldr	r3, [r7, #4]
 8002e3e:	681b      	ldr	r3, [r3, #0]
 8002e40:	f003 0304 	and.w	r3, r3, #4
 8002e44:	2b00      	cmp	r3, #0
 8002e46:	d008      	beq.n	8002e5a <HAL_RCC_ClockConfig+0x166>
  {
    assert_param(IS_RCC_PCLK(RCC_ClkInitStruct->APB1CLKDivider));
    MODIFY_REG(RCC->CFGR, RCC_CFGR_PPRE1, RCC_ClkInitStruct->APB1CLKDivider);
 8002e48:	4b19      	ldr	r3, [pc, #100]	; (8002eb0 <HAL_RCC_ClockConfig+0x1bc>)
 8002e4a:	689b      	ldr	r3, [r3, #8]
 8002e4c:	f423 52e0 	bic.w	r2, r3, #7168	; 0x1c00
 8002e50:	687b      	ldr	r3, [r7, #4]
 8002e52:	68db      	ldr	r3, [r3, #12]
 8002e54:	4916      	ldr	r1, [pc, #88]	; (8002eb0 <HAL_RCC_ClockConfig+0x1bc>)
 8002e56:	4313      	orrs	r3, r2
 8002e58:	608b      	str	r3, [r1, #8]
  }

  /*-------------------------- PCLK2 Configuration ---------------------------*/
  if(((RCC_ClkInitStruct->ClockType) & RCC_CLOCKTYPE_PCLK2) == RCC_CLOCKTYPE_PCLK2)
 8002e5a:	687b      	ldr	r3, [r7, #4]
 8002e5c:	681b      	ldr	r3, [r3, #0]
 8002e5e:	f003 0308 	and.w	r3, r3, #8
 8002e62:	2b00      	cmp	r3, #0
 8002e64:	d009      	beq.n	8002e7a <HAL_RCC_ClockConfig+0x186>
  {
    assert_param(IS_RCC_PCLK(RCC_ClkInitStruct->APB2CLKDivider));
    MODIFY_REG(RCC->CFGR, RCC_CFGR_PPRE2, ((RCC_ClkInitStruct->APB2CLKDivider) << 3U));
 8002e66:	4b12      	ldr	r3, [pc, #72]	; (8002eb0 <HAL_RCC_ClockConfig+0x1bc>)
 8002e68:	689b      	ldr	r3, [r3, #8]
 8002e6a:	f423 4260 	bic.w	r2, r3, #57344	; 0xe000
 8002e6e:	687b      	ldr	r3, [r7, #4]
 8002e70:	691b      	ldr	r3, [r3, #16]
 8002e72:	00db      	lsls	r3, r3, #3
 8002e74:	490e      	ldr	r1, [pc, #56]	; (8002eb0 <HAL_RCC_ClockConfig+0x1bc>)
 8002e76:	4313      	orrs	r3, r2
 8002e78:	608b      	str	r3, [r1, #8]
  }

  /* Update the SystemCoreClock global variable */
  SystemCoreClock = HAL_RCC_GetSysClockFreq() >> AHBPrescTable[(RCC->CFGR & RCC_CFGR_HPRE)>> RCC_CFGR_HPRE_Pos];
 8002e7a:	f000 f855 	bl	8002f28 <HAL_RCC_GetSysClockFreq>
 8002e7e:	4602      	mov	r2, r0
 8002e80:	4b0b      	ldr	r3, [pc, #44]	; (8002eb0 <HAL_RCC_ClockConfig+0x1bc>)
 8002e82:	689b      	ldr	r3, [r3, #8]
 8002e84:	091b      	lsrs	r3, r3, #4
 8002e86:	f003 030f 	and.w	r3, r3, #15
 8002e8a:	490a      	ldr	r1, [pc, #40]	; (8002eb4 <HAL_RCC_ClockConfig+0x1c0>)
 8002e8c:	5ccb      	ldrb	r3, [r1, r3]
 8002e8e:	fa22 f303 	lsr.w	r3, r2, r3
 8002e92:	4a09      	ldr	r2, [pc, #36]	; (8002eb8 <HAL_RCC_ClockConfig+0x1c4>)
 8002e94:	6013      	str	r3, [r2, #0]

  /* Configure the source of time base considering new system clocks settings */
  HAL_InitTick (uwTickPrio);
 8002e96:	4b09      	ldr	r3, [pc, #36]	; (8002ebc <HAL_RCC_ClockConfig+0x1c8>)
 8002e98:	681b      	ldr	r3, [r3, #0]
 8002e9a:	4618      	mov	r0, r3
 8002e9c:	f7fe fe6e 	bl	8001b7c <HAL_InitTick>

  return HAL_OK;
 8002ea0:	2300      	movs	r3, #0
}
 8002ea2:	4618      	mov	r0, r3
 8002ea4:	3710      	adds	r7, #16
 8002ea6:	46bd      	mov	sp, r7
 8002ea8:	bd80      	pop	{r7, pc}
 8002eaa:	bf00      	nop
 8002eac:	40023c00 	.word	0x40023c00
 8002eb0:	40023800 	.word	0x40023800
 8002eb4:	0800741c 	.word	0x0800741c
 8002eb8:	20000008 	.word	0x20000008
 8002ebc:	2000000c 	.word	0x2000000c

08002ec0 <HAL_RCC_GetHCLKFreq>:
  * @note   The SystemCoreClock CMSIS variable is used to store System Clock Frequency
  *         and updated within this function
  * @retval HCLK frequency
  */
uint32_t HAL_RCC_GetHCLKFreq(void)
{
 8002ec0:	b480      	push	{r7}
 8002ec2:	af00      	add	r7, sp, #0
  return SystemCoreClock;
 8002ec4:	4b03      	ldr	r3, [pc, #12]	; (8002ed4 <HAL_RCC_GetHCLKFreq+0x14>)
 8002ec6:	681b      	ldr	r3, [r3, #0]
}
 8002ec8:	4618      	mov	r0, r3
 8002eca:	46bd      	mov	sp, r7
 8002ecc:	f85d 7b04 	ldr.w	r7, [sp], #4
 8002ed0:	4770      	bx	lr
 8002ed2:	bf00      	nop
 8002ed4:	20000008 	.word	0x20000008

08002ed8 <HAL_RCC_GetPCLK1Freq>:
  * @note   Each time PCLK1 changes, this function must be called to update the
  *         right PCLK1 value. Otherwise, any configuration based on this function will be incorrect.
  * @retval PCLK1 frequency
  */
uint32_t HAL_RCC_GetPCLK1Freq(void)
{
 8002ed8:	b580      	push	{r7, lr}
 8002eda:	af00      	add	r7, sp, #0
  /* Get HCLK source and Compute PCLK1 frequency ---------------------------*/
  return (HAL_RCC_GetHCLKFreq() >> APBPrescTable[(RCC->CFGR & RCC_CFGR_PPRE1)>> RCC_CFGR_PPRE1_Pos]);
 8002edc:	f7ff fff0 	bl	8002ec0 <HAL_RCC_GetHCLKFreq>
 8002ee0:	4602      	mov	r2, r0
 8002ee2:	4b05      	ldr	r3, [pc, #20]	; (8002ef8 <HAL_RCC_GetPCLK1Freq+0x20>)
 8002ee4:	689b      	ldr	r3, [r3, #8]
 8002ee6:	0a9b      	lsrs	r3, r3, #10
 8002ee8:	f003 0307 	and.w	r3, r3, #7
 8002eec:	4903      	ldr	r1, [pc, #12]	; (8002efc <HAL_RCC_GetPCLK1Freq+0x24>)
 8002eee:	5ccb      	ldrb	r3, [r1, r3]
 8002ef0:	fa22 f303 	lsr.w	r3, r2, r3
}
 8002ef4:	4618      	mov	r0, r3
 8002ef6:	bd80      	pop	{r7, pc}
 8002ef8:	40023800 	.word	0x40023800
 8002efc:	0800742c 	.word	0x0800742c

08002f00 <HAL_RCC_GetPCLK2Freq>:
  * @note   Each time PCLK2 changes, this function must be called to update the
  *         right PCLK2 value. Otherwise, any configuration based on this function will be incorrect.
  * @retval PCLK2 frequency
  */
uint32_t HAL_RCC_GetPCLK2Freq(void)
{
 8002f00:	b580      	push	{r7, lr}
 8002f02:	af00      	add	r7, sp, #0
  /* Get HCLK source and Compute PCLK2 frequency ---------------------------*/
  return (HAL_RCC_GetHCLKFreq()>> APBPrescTable[(RCC->CFGR & RCC_CFGR_PPRE2)>> RCC_CFGR_PPRE2_Pos]);
 8002f04:	f7ff ffdc 	bl	8002ec0 <HAL_RCC_GetHCLKFreq>
 8002f08:	4602      	mov	r2, r0
 8002f0a:	4b05      	ldr	r3, [pc, #20]	; (8002f20 <HAL_RCC_GetPCLK2Freq+0x20>)
 8002f0c:	689b      	ldr	r3, [r3, #8]
 8002f0e:	0b5b      	lsrs	r3, r3, #13
 8002f10:	f003 0307 	and.w	r3, r3, #7
 8002f14:	4903      	ldr	r1, [pc, #12]	; (8002f24 <HAL_RCC_GetPCLK2Freq+0x24>)
 8002f16:	5ccb      	ldrb	r3, [r1, r3]
 8002f18:	fa22 f303 	lsr.w	r3, r2, r3
}
 8002f1c:	4618      	mov	r0, r3
 8002f1e:	bd80      	pop	{r7, pc}
 8002f20:	40023800 	.word	0x40023800
 8002f24:	0800742c 	.word	0x0800742c

08002f28 <HAL_RCC_GetSysClockFreq>:
  *
  *
  * @retval SYSCLK frequency
  */
uint32_t HAL_RCC_GetSysClockFreq(void)
{
 8002f28:	e92d 4fb0 	stmdb	sp!, {r4, r5, r7, r8, r9, sl, fp, lr}
 8002f2c:	b088      	sub	sp, #32
 8002f2e:	af00      	add	r7, sp, #0
  uint32_t pllm = 0U;
 8002f30:	2300      	movs	r3, #0
 8002f32:	617b      	str	r3, [r7, #20]
  uint32_t pllvco = 0U;
 8002f34:	2300      	movs	r3, #0
 8002f36:	61fb      	str	r3, [r7, #28]
  uint32_t pllp = 0U;
 8002f38:	2300      	movs	r3, #0
 8002f3a:	613b      	str	r3, [r7, #16]
  uint32_t pllr = 0U;
 8002f3c:	2300      	movs	r3, #0
 8002f3e:	60fb      	str	r3, [r7, #12]
  uint32_t sysclockfreq = 0U;
 8002f40:	2300      	movs	r3, #0
 8002f42:	61bb      	str	r3, [r7, #24]

  /* Get SYSCLK source -------------------------------------------------------*/
  switch (RCC->CFGR & RCC_CFGR_SWS)
 8002f44:	4bce      	ldr	r3, [pc, #824]	; (8003280 <HAL_RCC_GetSysClockFreq+0x358>)
 8002f46:	689b      	ldr	r3, [r3, #8]
 8002f48:	f003 030c 	and.w	r3, r3, #12
 8002f4c:	2b0c      	cmp	r3, #12
 8002f4e:	f200 818d 	bhi.w	800326c <HAL_RCC_GetSysClockFreq+0x344>
 8002f52:	a201      	add	r2, pc, #4	; (adr r2, 8002f58 <HAL_RCC_GetSysClockFreq+0x30>)
 8002f54:	f852 f023 	ldr.w	pc, [r2, r3, lsl #2]
 8002f58:	08002f8d 	.word	0x08002f8d
 8002f5c:	0800326d 	.word	0x0800326d
 8002f60:	0800326d 	.word	0x0800326d
 8002f64:	0800326d 	.word	0x0800326d
 8002f68:	08002f93 	.word	0x08002f93
 8002f6c:	0800326d 	.word	0x0800326d
 8002f70:	0800326d 	.word	0x0800326d
 8002f74:	0800326d 	.word	0x0800326d
 8002f78:	08002f99 	.word	0x08002f99
 8002f7c:	0800326d 	.word	0x0800326d
 8002f80:	0800326d 	.word	0x0800326d
 8002f84:	0800326d 	.word	0x0800326d
 8002f88:	0800310d 	.word	0x0800310d
  {
    case RCC_CFGR_SWS_HSI:  /* HSI used as system clock source */
    {
      sysclockfreq = HSI_VALUE;
 8002f8c:	4bbd      	ldr	r3, [pc, #756]	; (8003284 <HAL_RCC_GetSysClockFreq+0x35c>)
 8002f8e:	61bb      	str	r3, [r7, #24]
       break;
 8002f90:	e16f      	b.n	8003272 <HAL_RCC_GetSysClockFreq+0x34a>
    }
    case RCC_CFGR_SWS_HSE:  /* HSE used as system clock  source */
    {
      sysclockfreq = HSE_VALUE;
 8002f92:	4bbd      	ldr	r3, [pc, #756]	; (8003288 <HAL_RCC_GetSysClockFreq+0x360>)
 8002f94:	61bb      	str	r3, [r7, #24]
      break;
 8002f96:	e16c      	b.n	8003272 <HAL_RCC_GetSysClockFreq+0x34a>
    }
    case RCC_CFGR_SWS_PLL:  /* PLL/PLLP used as system clock  source */
    {
      /* PLL_VCO = (HSE_VALUE or HSI_VALUE / PLLM) * PLLN
      SYSCLK = PLL_VCO / PLLP */
      pllm = RCC->PLLCFGR & RCC_PLLCFGR_PLLM;
 8002f98:	4bb9      	ldr	r3, [pc, #740]	; (8003280 <HAL_RCC_GetSysClockFreq+0x358>)
 8002f9a:	685b      	ldr	r3, [r3, #4]
 8002f9c:	f003 033f 	and.w	r3, r3, #63	; 0x3f
 8002fa0:	617b      	str	r3, [r7, #20]
      if(__HAL_RCC_GET_PLL_OSCSOURCE() != RCC_PLLSOURCE_HSI)
 8002fa2:	4bb7      	ldr	r3, [pc, #732]	; (8003280 <HAL_RCC_GetSysClockFreq+0x358>)
 8002fa4:	685b      	ldr	r3, [r3, #4]
 8002fa6:	f403 0380 	and.w	r3, r3, #4194304	; 0x400000
 8002faa:	2b00      	cmp	r3, #0
 8002fac:	d053      	beq.n	8003056 <HAL_RCC_GetSysClockFreq+0x12e>
      {
        /* HSE used as PLL clock source */
        pllvco = (uint32_t) ((((uint64_t) HSE_VALUE * ((uint64_t) ((RCC->PLLCFGR & RCC_PLLCFGR_PLLN) >> RCC_PLLCFGR_PLLN_Pos)))) / (uint64_t)pllm);
 8002fae:	4bb4      	ldr	r3, [pc, #720]	; (8003280 <HAL_RCC_GetSysClockFreq+0x358>)
 8002fb0:	685b      	ldr	r3, [r3, #4]
 8002fb2:	099b      	lsrs	r3, r3, #6
 8002fb4:	461a      	mov	r2, r3
 8002fb6:	f04f 0300 	mov.w	r3, #0
 8002fba:	f240 10ff 	movw	r0, #511	; 0x1ff
 8002fbe:	f04f 0100 	mov.w	r1, #0
 8002fc2:	ea02 0400 	and.w	r4, r2, r0
 8002fc6:	603c      	str	r4, [r7, #0]
 8002fc8:	400b      	ands	r3, r1
 8002fca:	607b      	str	r3, [r7, #4]
 8002fcc:	e9d7 4500 	ldrd	r4, r5, [r7]
 8002fd0:	4620      	mov	r0, r4
 8002fd2:	4629      	mov	r1, r5
 8002fd4:	f04f 0200 	mov.w	r2, #0
 8002fd8:	f04f 0300 	mov.w	r3, #0
 8002fdc:	014b      	lsls	r3, r1, #5
 8002fde:	ea43 63d0 	orr.w	r3, r3, r0, lsr #27
 8002fe2:	0142      	lsls	r2, r0, #5
 8002fe4:	4610      	mov	r0, r2
 8002fe6:	4619      	mov	r1, r3
 8002fe8:	4623      	mov	r3, r4
 8002fea:	1ac0      	subs	r0, r0, r3
 8002fec:	462b      	mov	r3, r5
 8002fee:	eb61 0103 	sbc.w	r1, r1, r3
 8002ff2:	f04f 0200 	mov.w	r2, #0
 8002ff6:	f04f 0300 	mov.w	r3, #0
 8002ffa:	018b      	lsls	r3, r1, #6
 8002ffc:	ea43 6390 	orr.w	r3, r3, r0, lsr #26
 8003000:	0182      	lsls	r2, r0, #6
 8003002:	1a12      	subs	r2, r2, r0
 8003004:	eb63 0301 	sbc.w	r3, r3, r1
 8003008:	f04f 0000 	mov.w	r0, #0
 800300c:	f04f 0100 	mov.w	r1, #0
 8003010:	00d9      	lsls	r1, r3, #3
 8003012:	ea41 7152 	orr.w	r1, r1, r2, lsr #29
 8003016:	00d0      	lsls	r0, r2, #3
 8003018:	4602      	mov	r2, r0
 800301a:	460b      	mov	r3, r1
 800301c:	4621      	mov	r1, r4
 800301e:	1852      	adds	r2, r2, r1
 8003020:	4629      	mov	r1, r5
 8003022:	eb43 0101 	adc.w	r1, r3, r1
 8003026:	460b      	mov	r3, r1
 8003028:	f04f 0000 	mov.w	r0, #0
 800302c:	f04f 0100 	mov.w	r1, #0
 8003030:	0259      	lsls	r1, r3, #9
 8003032:	ea41 51d2 	orr.w	r1, r1, r2, lsr #23
 8003036:	0250      	lsls	r0, r2, #9
 8003038:	4602      	mov	r2, r0
 800303a:	460b      	mov	r3, r1
 800303c:	4610      	mov	r0, r2
 800303e:	4619      	mov	r1, r3
 8003040:	697b      	ldr	r3, [r7, #20]
 8003042:	461a      	mov	r2, r3
 8003044:	f04f 0300 	mov.w	r3, #0
 8003048:	f7fd fe1e 	bl	8000c88 <__aeabi_uldivmod>
 800304c:	4602      	mov	r2, r0
 800304e:	460b      	mov	r3, r1
 8003050:	4613      	mov	r3, r2
 8003052:	61fb      	str	r3, [r7, #28]
 8003054:	e04c      	b.n	80030f0 <HAL_RCC_GetSysClockFreq+0x1c8>
      }
      else
      {
        /* HSI used as PLL clock source */
        pllvco = (uint32_t) ((((uint64_t) HSI_VALUE * ((uint64_t) ((RCC->PLLCFGR & RCC_PLLCFGR_PLLN) >> RCC_PLLCFGR_PLLN_Pos)))) / (uint64_t)pllm);
 8003056:	4b8a      	ldr	r3, [pc, #552]	; (8003280 <HAL_RCC_GetSysClockFreq+0x358>)
 8003058:	685b      	ldr	r3, [r3, #4]
 800305a:	099b      	lsrs	r3, r3, #6
 800305c:	461a      	mov	r2, r3
 800305e:	f04f 0300 	mov.w	r3, #0
 8003062:	f240 10ff 	movw	r0, #511	; 0x1ff
 8003066:	f04f 0100 	mov.w	r1, #0
 800306a:	ea02 0a00 	and.w	sl, r2, r0
 800306e:	ea03 0b01 	and.w	fp, r3, r1
 8003072:	4650      	mov	r0, sl
 8003074:	4659      	mov	r1, fp
 8003076:	f04f 0200 	mov.w	r2, #0
 800307a:	f04f 0300 	mov.w	r3, #0
 800307e:	014b      	lsls	r3, r1, #5
 8003080:	ea43 63d0 	orr.w	r3, r3, r0, lsr #27
 8003084:	0142      	lsls	r2, r0, #5
 8003086:	4610      	mov	r0, r2
 8003088:	4619      	mov	r1, r3
 800308a:	ebb0 000a 	subs.w	r0, r0, sl
 800308e:	eb61 010b 	sbc.w	r1, r1, fp
 8003092:	f04f 0200 	mov.w	r2, #0
 8003096:	f04f 0300 	mov.w	r3, #0
 800309a:	018b      	lsls	r3, r1, #6
 800309c:	ea43 6390 	orr.w	r3, r3, r0, lsr #26
 80030a0:	0182      	lsls	r2, r0, #6
 80030a2:	1a12      	subs	r2, r2, r0
 80030a4:	eb63 0301 	sbc.w	r3, r3, r1
 80030a8:	f04f 0000 	mov.w	r0, #0
 80030ac:	f04f 0100 	mov.w	r1, #0
 80030b0:	00d9      	lsls	r1, r3, #3
 80030b2:	ea41 7152 	orr.w	r1, r1, r2, lsr #29
 80030b6:	00d0      	lsls	r0, r2, #3
 80030b8:	4602      	mov	r2, r0
 80030ba:	460b      	mov	r3, r1
 80030bc:	eb12 020a 	adds.w	r2, r2, sl
 80030c0:	eb43 030b 	adc.w	r3, r3, fp
 80030c4:	f04f 0000 	mov.w	r0, #0
 80030c8:	f04f 0100 	mov.w	r1, #0
 80030cc:	0299      	lsls	r1, r3, #10
 80030ce:	ea41 5192 	orr.w	r1, r1, r2, lsr #22
 80030d2:	0290      	lsls	r0, r2, #10
 80030d4:	4602      	mov	r2, r0
 80030d6:	460b      	mov	r3, r1
 80030d8:	4610      	mov	r0, r2
 80030da:	4619      	mov	r1, r3
 80030dc:	697b      	ldr	r3, [r7, #20]
 80030de:	461a      	mov	r2, r3
 80030e0:	f04f 0300 	mov.w	r3, #0
 80030e4:	f7fd fdd0 	bl	8000c88 <__aeabi_uldivmod>
 80030e8:	4602      	mov	r2, r0
 80030ea:	460b      	mov	r3, r1
 80030ec:	4613      	mov	r3, r2
 80030ee:	61fb      	str	r3, [r7, #28]
      }
      pllp = ((((RCC->PLLCFGR & RCC_PLLCFGR_PLLP) >> RCC_PLLCFGR_PLLP_Pos) + 1U) *2U);
 80030f0:	4b63      	ldr	r3, [pc, #396]	; (8003280 <HAL_RCC_GetSysClockFreq+0x358>)
 80030f2:	685b      	ldr	r3, [r3, #4]
 80030f4:	0c1b      	lsrs	r3, r3, #16
 80030f6:	f003 0303 	and.w	r3, r3, #3
 80030fa:	3301      	adds	r3, #1
 80030fc:	005b      	lsls	r3, r3, #1
 80030fe:	613b      	str	r3, [r7, #16]

      sysclockfreq = pllvco/pllp;
 8003100:	69fa      	ldr	r2, [r7, #28]
 8003102:	693b      	ldr	r3, [r7, #16]
 8003104:	fbb2 f3f3 	udiv	r3, r2, r3
 8003108:	61bb      	str	r3, [r7, #24]
      break;
 800310a:	e0b2      	b.n	8003272 <HAL_RCC_GetSysClockFreq+0x34a>
    }
    case RCC_CFGR_SWS_PLLR:  /* PLL/PLLR used as system clock  source */
    {
      /* PLL_VCO = (HSE_VALUE or HSI_VALUE / PLLM) * PLLN
      SYSCLK = PLL_VCO / PLLR */
      pllm = RCC->PLLCFGR & RCC_PLLCFGR_PLLM;
 800310c:	4b5c      	ldr	r3, [pc, #368]	; (8003280 <HAL_RCC_GetSysClockFreq+0x358>)
 800310e:	685b      	ldr	r3, [r3, #4]
 8003110:	f003 033f 	and.w	r3, r3, #63	; 0x3f
 8003114:	617b      	str	r3, [r7, #20]
      if(__HAL_RCC_GET_PLL_OSCSOURCE() != RCC_PLLSOURCE_HSI)
 8003116:	4b5a      	ldr	r3, [pc, #360]	; (8003280 <HAL_RCC_GetSysClockFreq+0x358>)
 8003118:	685b      	ldr	r3, [r3, #4]
 800311a:	f403 0380 	and.w	r3, r3, #4194304	; 0x400000
 800311e:	2b00      	cmp	r3, #0
 8003120:	d04d      	beq.n	80031be <HAL_RCC_GetSysClockFreq+0x296>
      {
        /* HSE used as PLL clock source */
        pllvco = (uint32_t) ((((uint64_t) HSE_VALUE * ((uint64_t) ((RCC->PLLCFGR & RCC_PLLCFGR_PLLN) >> RCC_PLLCFGR_PLLN_Pos)))) / (uint64_t)pllm);
 8003122:	4b57      	ldr	r3, [pc, #348]	; (8003280 <HAL_RCC_GetSysClockFreq+0x358>)
 8003124:	685b      	ldr	r3, [r3, #4]
 8003126:	099b      	lsrs	r3, r3, #6
 8003128:	461a      	mov	r2, r3
 800312a:	f04f 0300 	mov.w	r3, #0
 800312e:	f240 10ff 	movw	r0, #511	; 0x1ff
 8003132:	f04f 0100 	mov.w	r1, #0
 8003136:	ea02 0800 	and.w	r8, r2, r0
 800313a:	ea03 0901 	and.w	r9, r3, r1
 800313e:	4640      	mov	r0, r8
 8003140:	4649      	mov	r1, r9
 8003142:	f04f 0200 	mov.w	r2, #0
 8003146:	f04f 0300 	mov.w	r3, #0
 800314a:	014b      	lsls	r3, r1, #5
 800314c:	ea43 63d0 	orr.w	r3, r3, r0, lsr #27
 8003150:	0142      	lsls	r2, r0, #5
 8003152:	4610      	mov	r0, r2
 8003154:	4619      	mov	r1, r3
 8003156:	ebb0 0008 	subs.w	r0, r0, r8
 800315a:	eb61 0109 	sbc.w	r1, r1, r9
 800315e:	f04f 0200 	mov.w	r2, #0
 8003162:	f04f 0300 	mov.w	r3, #0
 8003166:	018b      	lsls	r3, r1, #6
 8003168:	ea43 6390 	orr.w	r3, r3, r0, lsr #26
 800316c:	0182      	lsls	r2, r0, #6
 800316e:	1a12      	subs	r2, r2, r0
 8003170:	eb63 0301 	sbc.w	r3, r3, r1
 8003174:	f04f 0000 	mov.w	r0, #0
 8003178:	f04f 0100 	mov.w	r1, #0
 800317c:	00d9      	lsls	r1, r3, #3
 800317e:	ea41 7152 	orr.w	r1, r1, r2, lsr #29
 8003182:	00d0      	lsls	r0, r2, #3
 8003184:	4602      	mov	r2, r0
 8003186:	460b      	mov	r3, r1
 8003188:	eb12 0208 	adds.w	r2, r2, r8
 800318c:	eb43 0309 	adc.w	r3, r3, r9
 8003190:	f04f 0000 	mov.w	r0, #0
 8003194:	f04f 0100 	mov.w	r1, #0
 8003198:	0259      	lsls	r1, r3, #9
 800319a:	ea41 51d2 	orr.w	r1, r1, r2, lsr #23
 800319e:	0250      	lsls	r0, r2, #9
 80031a0:	4602      	mov	r2, r0
 80031a2:	460b      	mov	r3, r1
 80031a4:	4610      	mov	r0, r2
 80031a6:	4619      	mov	r1, r3
 80031a8:	697b      	ldr	r3, [r7, #20]
 80031aa:	461a      	mov	r2, r3
 80031ac:	f04f 0300 	mov.w	r3, #0
 80031b0:	f7fd fd6a 	bl	8000c88 <__aeabi_uldivmod>
 80031b4:	4602      	mov	r2, r0
 80031b6:	460b      	mov	r3, r1
 80031b8:	4613      	mov	r3, r2
 80031ba:	61fb      	str	r3, [r7, #28]
 80031bc:	e04a      	b.n	8003254 <HAL_RCC_GetSysClockFreq+0x32c>
      }
      else
      {
        /* HSI used as PLL clock source */
        pllvco = (uint32_t) ((((uint64_t) HSI_VALUE * ((uint64_t) ((RCC->PLLCFGR & RCC_PLLCFGR_PLLN) >> RCC_PLLCFGR_PLLN_Pos)))) / (uint64_t)pllm);
 80031be:	4b30      	ldr	r3, [pc, #192]	; (8003280 <HAL_RCC_GetSysClockFreq+0x358>)
 80031c0:	685b      	ldr	r3, [r3, #4]
 80031c2:	099b      	lsrs	r3, r3, #6
 80031c4:	461a      	mov	r2, r3
 80031c6:	f04f 0300 	mov.w	r3, #0
 80031ca:	f240 10ff 	movw	r0, #511	; 0x1ff
 80031ce:	f04f 0100 	mov.w	r1, #0
 80031d2:	ea02 0400 	and.w	r4, r2, r0
 80031d6:	ea03 0501 	and.w	r5, r3, r1
 80031da:	4620      	mov	r0, r4
 80031dc:	4629      	mov	r1, r5
 80031de:	f04f 0200 	mov.w	r2, #0
 80031e2:	f04f 0300 	mov.w	r3, #0
 80031e6:	014b      	lsls	r3, r1, #5
 80031e8:	ea43 63d0 	orr.w	r3, r3, r0, lsr #27
 80031ec:	0142      	lsls	r2, r0, #5
 80031ee:	4610      	mov	r0, r2
 80031f0:	4619      	mov	r1, r3
 80031f2:	1b00      	subs	r0, r0, r4
 80031f4:	eb61 0105 	sbc.w	r1, r1, r5
 80031f8:	f04f 0200 	mov.w	r2, #0
 80031fc:	f04f 0300 	mov.w	r3, #0
 8003200:	018b      	lsls	r3, r1, #6
 8003202:	ea43 6390 	orr.w	r3, r3, r0, lsr #26
 8003206:	0182      	lsls	r2, r0, #6
 8003208:	1a12      	subs	r2, r2, r0
 800320a:	eb63 0301 	sbc.w	r3, r3, r1
 800320e:	f04f 0000 	mov.w	r0, #0
 8003212:	f04f 0100 	mov.w	r1, #0
 8003216:	00d9      	lsls	r1, r3, #3
 8003218:	ea41 7152 	orr.w	r1, r1, r2, lsr #29
 800321c:	00d0      	lsls	r0, r2, #3
 800321e:	4602      	mov	r2, r0
 8003220:	460b      	mov	r3, r1
 8003222:	1912      	adds	r2, r2, r4
 8003224:	eb45 0303 	adc.w	r3, r5, r3
 8003228:	f04f 0000 	mov.w	r0, #0
 800322c:	f04f 0100 	mov.w	r1, #0
 8003230:	0299      	lsls	r1, r3, #10
 8003232:	ea41 5192 	orr.w	r1, r1, r2, lsr #22
 8003236:	0290      	lsls	r0, r2, #10
 8003238:	4602      	mov	r2, r0
 800323a:	460b      	mov	r3, r1
 800323c:	4610      	mov	r0, r2
 800323e:	4619      	mov	r1, r3
 8003240:	697b      	ldr	r3, [r7, #20]
 8003242:	461a      	mov	r2, r3
 8003244:	f04f 0300 	mov.w	r3, #0
 8003248:	f7fd fd1e 	bl	8000c88 <__aeabi_uldivmod>
 800324c:	4602      	mov	r2, r0
 800324e:	460b      	mov	r3, r1
 8003250:	4613      	mov	r3, r2
 8003252:	61fb      	str	r3, [r7, #28]
      }
      pllr = ((RCC->PLLCFGR & RCC_PLLCFGR_PLLR) >> RCC_PLLCFGR_PLLR_Pos);
 8003254:	4b0a      	ldr	r3, [pc, #40]	; (8003280 <HAL_RCC_GetSysClockFreq+0x358>)
 8003256:	685b      	ldr	r3, [r3, #4]
 8003258:	0f1b      	lsrs	r3, r3, #28
 800325a:	f003 0307 	and.w	r3, r3, #7
 800325e:	60fb      	str	r3, [r7, #12]

      sysclockfreq = pllvco/pllr;
 8003260:	69fa      	ldr	r2, [r7, #28]
 8003262:	68fb      	ldr	r3, [r7, #12]
 8003264:	fbb2 f3f3 	udiv	r3, r2, r3
 8003268:	61bb      	str	r3, [r7, #24]
      break;
 800326a:	e002      	b.n	8003272 <HAL_RCC_GetSysClockFreq+0x34a>
    }
    default:
    {
      sysclockfreq = HSI_VALUE;
 800326c:	4b05      	ldr	r3, [pc, #20]	; (8003284 <HAL_RCC_GetSysClockFreq+0x35c>)
 800326e:	61bb      	str	r3, [r7, #24]
      break;
 8003270:	bf00      	nop
    }
  }
  return sysclockfreq;
 8003272:	69bb      	ldr	r3, [r7, #24]
}
 8003274:	4618      	mov	r0, r3
 8003276:	3720      	adds	r7, #32
 8003278:	46bd      	mov	sp, r7
 800327a:	e8bd 8fb0 	ldmia.w	sp!, {r4, r5, r7, r8, r9, sl, fp, pc}
 800327e:	bf00      	nop
 8003280:	40023800 	.word	0x40023800
 8003284:	00f42400 	.word	0x00f42400
 8003288:	007a1200 	.word	0x007a1200

0800328c <HAL_RCC_OscConfig>:
  * @note   This function add the PLL/PLLR factor management during PLL configuration this feature
  *         is only available in STM32F410xx/STM32F446xx/STM32F469xx/STM32F479xx/STM32F412Zx/STM32F412Vx/STM32F412Rx/STM32F412Cx devices
  * @retval HAL status
  */
HAL_StatusTypeDef HAL_RCC_OscConfig(RCC_OscInitTypeDef  *RCC_OscInitStruct)
{
 800328c:	b580      	push	{r7, lr}
 800328e:	b086      	sub	sp, #24
 8003290:	af00      	add	r7, sp, #0
 8003292:	6078      	str	r0, [r7, #4]
  uint32_t tickstart = 0U;
 8003294:	2300      	movs	r3, #0
 8003296:	613b      	str	r3, [r7, #16]

  /* Check the parameters */
  assert_param(IS_RCC_OSCILLATORTYPE(RCC_OscInitStruct->OscillatorType));
  /*------------------------------- HSE Configuration ------------------------*/
  if(((RCC_OscInitStruct->OscillatorType) & RCC_OSCILLATORTYPE_HSE) == RCC_OSCILLATORTYPE_HSE)
 8003298:	687b      	ldr	r3, [r7, #4]
 800329a:	681b      	ldr	r3, [r3, #0]
 800329c:	f003 0301 	and.w	r3, r3, #1
 80032a0:	2b00      	cmp	r3, #0
 80032a2:	f000 8083 	beq.w	80033ac <HAL_RCC_OscConfig+0x120>
  {
    /* Check the parameters */
    assert_param(IS_RCC_HSE(RCC_OscInitStruct->HSEState));
    /* When the HSE is used as system clock or clock source for PLL in these cases HSE will not disabled */
#if defined(STM32F446xx)
    if((__HAL_RCC_GET_SYSCLK_SOURCE() == RCC_CFGR_SWS_HSE)                                                                     ||\
 80032a6:	4b95      	ldr	r3, [pc, #596]	; (80034fc <HAL_RCC_OscConfig+0x270>)
 80032a8:	689b      	ldr	r3, [r3, #8]
 80032aa:	f003 030c 	and.w	r3, r3, #12
 80032ae:	2b04      	cmp	r3, #4
 80032b0:	d019      	beq.n	80032e6 <HAL_RCC_OscConfig+0x5a>
      ((__HAL_RCC_GET_SYSCLK_SOURCE() == RCC_CFGR_SWS_PLL) && ((RCC->PLLCFGR & RCC_PLLCFGR_PLLSRC) == RCC_PLLCFGR_PLLSRC_HSE)) ||\
 80032b2:	4b92      	ldr	r3, [pc, #584]	; (80034fc <HAL_RCC_OscConfig+0x270>)
 80032b4:	689b      	ldr	r3, [r3, #8]
 80032b6:	f003 030c 	and.w	r3, r3, #12
    if((__HAL_RCC_GET_SYSCLK_SOURCE() == RCC_CFGR_SWS_HSE)                                                                     ||\
 80032ba:	2b08      	cmp	r3, #8
 80032bc:	d106      	bne.n	80032cc <HAL_RCC_OscConfig+0x40>
      ((__HAL_RCC_GET_SYSCLK_SOURCE() == RCC_CFGR_SWS_PLL) && ((RCC->PLLCFGR & RCC_PLLCFGR_PLLSRC) == RCC_PLLCFGR_PLLSRC_HSE)) ||\
 80032be:	4b8f      	ldr	r3, [pc, #572]	; (80034fc <HAL_RCC_OscConfig+0x270>)
 80032c0:	685b      	ldr	r3, [r3, #4]
 80032c2:	f403 0380 	and.w	r3, r3, #4194304	; 0x400000
 80032c6:	f5b3 0f80 	cmp.w	r3, #4194304	; 0x400000
 80032ca:	d00c      	beq.n	80032e6 <HAL_RCC_OscConfig+0x5a>
      ((__HAL_RCC_GET_SYSCLK_SOURCE() == RCC_CFGR_SWS_PLLR) && ((RCC->PLLCFGR & RCC_PLLCFGR_PLLSRC) == RCC_PLLCFGR_PLLSRC_HSE)))
 80032cc:	4b8b      	ldr	r3, [pc, #556]	; (80034fc <HAL_RCC_OscConfig+0x270>)
 80032ce:	689b      	ldr	r3, [r3, #8]
 80032d0:	f003 030c 	and.w	r3, r3, #12
      ((__HAL_RCC_GET_SYSCLK_SOURCE() == RCC_CFGR_SWS_PLL) && ((RCC->PLLCFGR & RCC_PLLCFGR_PLLSRC) == RCC_PLLCFGR_PLLSRC_HSE)) ||\
 80032d4:	2b0c      	cmp	r3, #12
 80032d6:	d112      	bne.n	80032fe <HAL_RCC_OscConfig+0x72>
      ((__HAL_RCC_GET_SYSCLK_SOURCE() == RCC_CFGR_SWS_PLLR) && ((RCC->PLLCFGR & RCC_PLLCFGR_PLLSRC) == RCC_PLLCFGR_PLLSRC_HSE)))
 80032d8:	4b88      	ldr	r3, [pc, #544]	; (80034fc <HAL_RCC_OscConfig+0x270>)
 80032da:	685b      	ldr	r3, [r3, #4]
 80032dc:	f403 0380 	and.w	r3, r3, #4194304	; 0x400000
 80032e0:	f5b3 0f80 	cmp.w	r3, #4194304	; 0x400000
 80032e4:	d10b      	bne.n	80032fe <HAL_RCC_OscConfig+0x72>
#else
    if((__HAL_RCC_GET_SYSCLK_SOURCE() == RCC_CFGR_SWS_HSE)                                                                     ||\
      ((__HAL_RCC_GET_SYSCLK_SOURCE() == RCC_CFGR_SWS_PLL) && ((RCC->PLLCFGR & RCC_PLLCFGR_PLLSRC) == RCC_PLLCFGR_PLLSRC_HSE)))
#endif /* STM32F446xx */
    {
      if((__HAL_RCC_GET_FLAG(RCC_FLAG_HSERDY) != RESET) && (RCC_OscInitStruct->HSEState == RCC_HSE_OFF))
 80032e6:	4b85      	ldr	r3, [pc, #532]	; (80034fc <HAL_RCC_OscConfig+0x270>)
 80032e8:	681b      	ldr	r3, [r3, #0]
 80032ea:	f403 3300 	and.w	r3, r3, #131072	; 0x20000
 80032ee:	2b00      	cmp	r3, #0
 80032f0:	d05b      	beq.n	80033aa <HAL_RCC_OscConfig+0x11e>
 80032f2:	687b      	ldr	r3, [r7, #4]
 80032f4:	685b      	ldr	r3, [r3, #4]
 80032f6:	2b00      	cmp	r3, #0
 80032f8:	d157      	bne.n	80033aa <HAL_RCC_OscConfig+0x11e>
      {
        return HAL_ERROR;
 80032fa:	2301      	movs	r3, #1
 80032fc:	e216      	b.n	800372c <HAL_RCC_OscConfig+0x4a0>
      }
    }
    else
    {
      /* Set the new HSE configuration ---------------------------------------*/
      __HAL_RCC_HSE_CONFIG(RCC_OscInitStruct->HSEState);
 80032fe:	687b      	ldr	r3, [r7, #4]
 8003300:	685b      	ldr	r3, [r3, #4]
 8003302:	f5b3 3f80 	cmp.w	r3, #65536	; 0x10000
 8003306:	d106      	bne.n	8003316 <HAL_RCC_OscConfig+0x8a>
 8003308:	4b7c      	ldr	r3, [pc, #496]	; (80034fc <HAL_RCC_OscConfig+0x270>)
 800330a:	681b      	ldr	r3, [r3, #0]
 800330c:	4a7b      	ldr	r2, [pc, #492]	; (80034fc <HAL_RCC_OscConfig+0x270>)
 800330e:	f443 3380 	orr.w	r3, r3, #65536	; 0x10000
 8003312:	6013      	str	r3, [r2, #0]
 8003314:	e01d      	b.n	8003352 <HAL_RCC_OscConfig+0xc6>
 8003316:	687b      	ldr	r3, [r7, #4]
 8003318:	685b      	ldr	r3, [r3, #4]
 800331a:	f5b3 2fa0 	cmp.w	r3, #327680	; 0x50000
 800331e:	d10c      	bne.n	800333a <HAL_RCC_OscConfig+0xae>
 8003320:	4b76      	ldr	r3, [pc, #472]	; (80034fc <HAL_RCC_OscConfig+0x270>)
 8003322:	681b      	ldr	r3, [r3, #0]
 8003324:	4a75      	ldr	r2, [pc, #468]	; (80034fc <HAL_RCC_OscConfig+0x270>)
 8003326:	f443 2380 	orr.w	r3, r3, #262144	; 0x40000
 800332a:	6013      	str	r3, [r2, #0]
 800332c:	4b73      	ldr	r3, [pc, #460]	; (80034fc <HAL_RCC_OscConfig+0x270>)
 800332e:	681b      	ldr	r3, [r3, #0]
 8003330:	4a72      	ldr	r2, [pc, #456]	; (80034fc <HAL_RCC_OscConfig+0x270>)
 8003332:	f443 3380 	orr.w	r3, r3, #65536	; 0x10000
 8003336:	6013      	str	r3, [r2, #0]
 8003338:	e00b      	b.n	8003352 <HAL_RCC_OscConfig+0xc6>
 800333a:	4b70      	ldr	r3, [pc, #448]	; (80034fc <HAL_RCC_OscConfig+0x270>)
 800333c:	681b      	ldr	r3, [r3, #0]
 800333e:	4a6f      	ldr	r2, [pc, #444]	; (80034fc <HAL_RCC_OscConfig+0x270>)
 8003340:	f423 3380 	bic.w	r3, r3, #65536	; 0x10000
 8003344:	6013      	str	r3, [r2, #0]
 8003346:	4b6d      	ldr	r3, [pc, #436]	; (80034fc <HAL_RCC_OscConfig+0x270>)
 8003348:	681b      	ldr	r3, [r3, #0]
 800334a:	4a6c      	ldr	r2, [pc, #432]	; (80034fc <HAL_RCC_OscConfig+0x270>)
 800334c:	f423 2380 	bic.w	r3, r3, #262144	; 0x40000
 8003350:	6013      	str	r3, [r2, #0]

      /* Check the HSE State */
      if((RCC_OscInitStruct->HSEState) != RCC_HSE_OFF)
 8003352:	687b      	ldr	r3, [r7, #4]
 8003354:	685b      	ldr	r3, [r3, #4]
 8003356:	2b00      	cmp	r3, #0
 8003358:	d013      	beq.n	8003382 <HAL_RCC_OscConfig+0xf6>
      {
        /* Get Start Tick*/
        tickstart = HAL_GetTick();
 800335a:	f7fe fc53 	bl	8001c04 <HAL_GetTick>
 800335e:	6138      	str	r0, [r7, #16]

        /* Wait till HSE is ready */
        while(__HAL_RCC_GET_FLAG(RCC_FLAG_HSERDY) == RESET)
 8003360:	e008      	b.n	8003374 <HAL_RCC_OscConfig+0xe8>
        {
          if((HAL_GetTick() - tickstart ) > HSE_TIMEOUT_VALUE)
 8003362:	f7fe fc4f 	bl	8001c04 <HAL_GetTick>
 8003366:	4602      	mov	r2, r0
 8003368:	693b      	ldr	r3, [r7, #16]
 800336a:	1ad3      	subs	r3, r2, r3
 800336c:	2b64      	cmp	r3, #100	; 0x64
 800336e:	d901      	bls.n	8003374 <HAL_RCC_OscConfig+0xe8>
          {
            return HAL_TIMEOUT;
 8003370:	2303      	movs	r3, #3
 8003372:	e1db      	b.n	800372c <HAL_RCC_OscConfig+0x4a0>
        while(__HAL_RCC_GET_FLAG(RCC_FLAG_HSERDY) == RESET)
 8003374:	4b61      	ldr	r3, [pc, #388]	; (80034fc <HAL_RCC_OscConfig+0x270>)
 8003376:	681b      	ldr	r3, [r3, #0]
 8003378:	f403 3300 	and.w	r3, r3, #131072	; 0x20000
 800337c:	2b00      	cmp	r3, #0
 800337e:	d0f0      	beq.n	8003362 <HAL_RCC_OscConfig+0xd6>
 8003380:	e014      	b.n	80033ac <HAL_RCC_OscConfig+0x120>
        }
      }
      else
      {
        /* Get Start Tick*/
        tickstart = HAL_GetTick();
 8003382:	f7fe fc3f 	bl	8001c04 <HAL_GetTick>
 8003386:	6138      	str	r0, [r7, #16]

        /* Wait till HSE is bypassed or disabled */
        while(__HAL_RCC_GET_FLAG(RCC_FLAG_HSERDY) != RESET)
 8003388:	e008      	b.n	800339c <HAL_RCC_OscConfig+0x110>
        {
          if((HAL_GetTick() - tickstart ) > HSE_TIMEOUT_VALUE)
 800338a:	f7fe fc3b 	bl	8001c04 <HAL_GetTick>
 800338e:	4602      	mov	r2, r0
 8003390:	693b      	ldr	r3, [r7, #16]
 8003392:	1ad3      	subs	r3, r2, r3
 8003394:	2b64      	cmp	r3, #100	; 0x64
 8003396:	d901      	bls.n	800339c <HAL_RCC_OscConfig+0x110>
          {
            return HAL_TIMEOUT;
 8003398:	2303      	movs	r3, #3
 800339a:	e1c7      	b.n	800372c <HAL_RCC_OscConfig+0x4a0>
        while(__HAL_RCC_GET_FLAG(RCC_FLAG_HSERDY) != RESET)
 800339c:	4b57      	ldr	r3, [pc, #348]	; (80034fc <HAL_RCC_OscConfig+0x270>)
 800339e:	681b      	ldr	r3, [r3, #0]
 80033a0:	f403 3300 	and.w	r3, r3, #131072	; 0x20000
 80033a4:	2b00      	cmp	r3, #0
 80033a6:	d1f0      	bne.n	800338a <HAL_RCC_OscConfig+0xfe>
 80033a8:	e000      	b.n	80033ac <HAL_RCC_OscConfig+0x120>
      if((__HAL_RCC_GET_FLAG(RCC_FLAG_HSERDY) != RESET) && (RCC_OscInitStruct->HSEState == RCC_HSE_OFF))
 80033aa:	bf00      	nop
        }
      }
    }
  }
  /*----------------------------- HSI Configuration --------------------------*/
  if(((RCC_OscInitStruct->OscillatorType) & RCC_OSCILLATORTYPE_HSI) == RCC_OSCILLATORTYPE_HSI)
 80033ac:	687b      	ldr	r3, [r7, #4]
 80033ae:	681b      	ldr	r3, [r3, #0]
 80033b0:	f003 0302 	and.w	r3, r3, #2
 80033b4:	2b00      	cmp	r3, #0
 80033b6:	d06f      	beq.n	8003498 <HAL_RCC_OscConfig+0x20c>
    assert_param(IS_RCC_HSI(RCC_OscInitStruct->HSIState));
    assert_param(IS_RCC_CALIBRATION_VALUE(RCC_OscInitStruct->HSICalibrationValue));

    /* Check if HSI is used as system clock or as PLL source when PLL is selected as system clock */
#if defined(STM32F446xx)
    if((__HAL_RCC_GET_SYSCLK_SOURCE() == RCC_CFGR_SWS_HSI)                                                                     ||\
 80033b8:	4b50      	ldr	r3, [pc, #320]	; (80034fc <HAL_RCC_OscConfig+0x270>)
 80033ba:	689b      	ldr	r3, [r3, #8]
 80033bc:	f003 030c 	and.w	r3, r3, #12
 80033c0:	2b00      	cmp	r3, #0
 80033c2:	d017      	beq.n	80033f4 <HAL_RCC_OscConfig+0x168>
      ((__HAL_RCC_GET_SYSCLK_SOURCE() == RCC_CFGR_SWS_PLL) && ((RCC->PLLCFGR & RCC_PLLCFGR_PLLSRC) == RCC_PLLCFGR_PLLSRC_HSI)) ||\
 80033c4:	4b4d      	ldr	r3, [pc, #308]	; (80034fc <HAL_RCC_OscConfig+0x270>)
 80033c6:	689b      	ldr	r3, [r3, #8]
 80033c8:	f003 030c 	and.w	r3, r3, #12
    if((__HAL_RCC_GET_SYSCLK_SOURCE() == RCC_CFGR_SWS_HSI)                                                                     ||\
 80033cc:	2b08      	cmp	r3, #8
 80033ce:	d105      	bne.n	80033dc <HAL_RCC_OscConfig+0x150>
      ((__HAL_RCC_GET_SYSCLK_SOURCE() == RCC_CFGR_SWS_PLL) && ((RCC->PLLCFGR & RCC_PLLCFGR_PLLSRC) == RCC_PLLCFGR_PLLSRC_HSI)) ||\
 80033d0:	4b4a      	ldr	r3, [pc, #296]	; (80034fc <HAL_RCC_OscConfig+0x270>)
 80033d2:	685b      	ldr	r3, [r3, #4]
 80033d4:	f403 0380 	and.w	r3, r3, #4194304	; 0x400000
 80033d8:	2b00      	cmp	r3, #0
 80033da:	d00b      	beq.n	80033f4 <HAL_RCC_OscConfig+0x168>
      ((__HAL_RCC_GET_SYSCLK_SOURCE() == RCC_CFGR_SWS_PLLR) && ((RCC->PLLCFGR & RCC_PLLCFGR_PLLSRC) == RCC_PLLCFGR_PLLSRC_HSI)))
 80033dc:	4b47      	ldr	r3, [pc, #284]	; (80034fc <HAL_RCC_OscConfig+0x270>)
 80033de:	689b      	ldr	r3, [r3, #8]
 80033e0:	f003 030c 	and.w	r3, r3, #12
      ((__HAL_RCC_GET_SYSCLK_SOURCE() == RCC_CFGR_SWS_PLL) && ((RCC->PLLCFGR & RCC_PLLCFGR_PLLSRC) == RCC_PLLCFGR_PLLSRC_HSI)) ||\
 80033e4:	2b0c      	cmp	r3, #12
 80033e6:	d11c      	bne.n	8003422 <HAL_RCC_OscConfig+0x196>
      ((__HAL_RCC_GET_SYSCLK_SOURCE() == RCC_CFGR_SWS_PLLR) && ((RCC->PLLCFGR & RCC_PLLCFGR_PLLSRC) == RCC_PLLCFGR_PLLSRC_HSI)))
 80033e8:	4b44      	ldr	r3, [pc, #272]	; (80034fc <HAL_RCC_OscConfig+0x270>)
 80033ea:	685b      	ldr	r3, [r3, #4]
 80033ec:	f403 0380 	and.w	r3, r3, #4194304	; 0x400000
 80033f0:	2b00      	cmp	r3, #0
 80033f2:	d116      	bne.n	8003422 <HAL_RCC_OscConfig+0x196>
    if((__HAL_RCC_GET_SYSCLK_SOURCE() == RCC_CFGR_SWS_HSI)                                                                     ||\
      ((__HAL_RCC_GET_SYSCLK_SOURCE() == RCC_CFGR_SWS_PLL) && ((RCC->PLLCFGR & RCC_PLLCFGR_PLLSRC) == RCC_PLLCFGR_PLLSRC_HSI)))
#endif /* STM32F446xx */
    {
      /* When HSI is used as system clock it will not disabled */
      if((__HAL_RCC_GET_FLAG(RCC_FLAG_HSIRDY) != RESET) && (RCC_OscInitStruct->HSIState != RCC_HSI_ON))
 80033f4:	4b41      	ldr	r3, [pc, #260]	; (80034fc <HAL_RCC_OscConfig+0x270>)
 80033f6:	681b      	ldr	r3, [r3, #0]
 80033f8:	f003 0302 	and.w	r3, r3, #2
 80033fc:	2b00      	cmp	r3, #0
 80033fe:	d005      	beq.n	800340c <HAL_RCC_OscConfig+0x180>
 8003400:	687b      	ldr	r3, [r7, #4]
 8003402:	68db      	ldr	r3, [r3, #12]
 8003404:	2b01      	cmp	r3, #1
 8003406:	d001      	beq.n	800340c <HAL_RCC_OscConfig+0x180>
      {
        return HAL_ERROR;
 8003408:	2301      	movs	r3, #1
 800340a:	e18f      	b.n	800372c <HAL_RCC_OscConfig+0x4a0>
      }
      /* Otherwise, just the calibration is allowed */
      else
      {
        /* Adjusts the Internal High Speed oscillator (HSI) calibration value.*/
        __HAL_RCC_HSI_CALIBRATIONVALUE_ADJUST(RCC_OscInitStruct->HSICalibrationValue);
 800340c:	4b3b      	ldr	r3, [pc, #236]	; (80034fc <HAL_RCC_OscConfig+0x270>)
 800340e:	681b      	ldr	r3, [r3, #0]
 8003410:	f023 02f8 	bic.w	r2, r3, #248	; 0xf8
 8003414:	687b      	ldr	r3, [r7, #4]
 8003416:	691b      	ldr	r3, [r3, #16]
 8003418:	00db      	lsls	r3, r3, #3
 800341a:	4938      	ldr	r1, [pc, #224]	; (80034fc <HAL_RCC_OscConfig+0x270>)
 800341c:	4313      	orrs	r3, r2
 800341e:	600b      	str	r3, [r1, #0]
      if((__HAL_RCC_GET_FLAG(RCC_FLAG_HSIRDY) != RESET) && (RCC_OscInitStruct->HSIState != RCC_HSI_ON))
 8003420:	e03a      	b.n	8003498 <HAL_RCC_OscConfig+0x20c>
      }
    }
    else
    {
      /* Check the HSI State */
      if((RCC_OscInitStruct->HSIState)!= RCC_HSI_OFF)
 8003422:	687b      	ldr	r3, [r7, #4]
 8003424:	68db      	ldr	r3, [r3, #12]
 8003426:	2b00      	cmp	r3, #0
 8003428:	d020      	beq.n	800346c <HAL_RCC_OscConfig+0x1e0>
      {
        /* Enable the Internal High Speed oscillator (HSI). */
        __HAL_RCC_HSI_ENABLE();
 800342a:	4b35      	ldr	r3, [pc, #212]	; (8003500 <HAL_RCC_OscConfig+0x274>)
 800342c:	2201      	movs	r2, #1
 800342e:	601a      	str	r2, [r3, #0]

        /* Get Start Tick*/
        tickstart = HAL_GetTick();
 8003430:	f7fe fbe8 	bl	8001c04 <HAL_GetTick>
 8003434:	6138      	str	r0, [r7, #16]

        /* Wait till HSI is ready */
        while(__HAL_RCC_GET_FLAG(RCC_FLAG_HSIRDY) == RESET)
 8003436:	e008      	b.n	800344a <HAL_RCC_OscConfig+0x1be>
        {
          if((HAL_GetTick() - tickstart ) > HSI_TIMEOUT_VALUE)
 8003438:	f7fe fbe4 	bl	8001c04 <HAL_GetTick>
 800343c:	4602      	mov	r2, r0
 800343e:	693b      	ldr	r3, [r7, #16]
 8003440:	1ad3      	subs	r3, r2, r3
 8003442:	2b02      	cmp	r3, #2
 8003444:	d901      	bls.n	800344a <HAL_RCC_OscConfig+0x1be>
          {
            return HAL_TIMEOUT;
 8003446:	2303      	movs	r3, #3
 8003448:	e170      	b.n	800372c <HAL_RCC_OscConfig+0x4a0>
        while(__HAL_RCC_GET_FLAG(RCC_FLAG_HSIRDY) == RESET)
 800344a:	4b2c      	ldr	r3, [pc, #176]	; (80034fc <HAL_RCC_OscConfig+0x270>)
 800344c:	681b      	ldr	r3, [r3, #0]
 800344e:	f003 0302 	and.w	r3, r3, #2
 8003452:	2b00      	cmp	r3, #0
 8003454:	d0f0      	beq.n	8003438 <HAL_RCC_OscConfig+0x1ac>
          }
        }

        /* Adjusts the Internal High Speed oscillator (HSI) calibration value.*/
        __HAL_RCC_HSI_CALIBRATIONVALUE_ADJUST(RCC_OscInitStruct->HSICalibrationValue);
 8003456:	4b29      	ldr	r3, [pc, #164]	; (80034fc <HAL_RCC_OscConfig+0x270>)
 8003458:	681b      	ldr	r3, [r3, #0]
 800345a:	f023 02f8 	bic.w	r2, r3, #248	; 0xf8
 800345e:	687b      	ldr	r3, [r7, #4]
 8003460:	691b      	ldr	r3, [r3, #16]
 8003462:	00db      	lsls	r3, r3, #3
 8003464:	4925      	ldr	r1, [pc, #148]	; (80034fc <HAL_RCC_OscConfig+0x270>)
 8003466:	4313      	orrs	r3, r2
 8003468:	600b      	str	r3, [r1, #0]
 800346a:	e015      	b.n	8003498 <HAL_RCC_OscConfig+0x20c>
      }
      else
      {
        /* Disable the Internal High Speed oscillator (HSI). */
        __HAL_RCC_HSI_DISABLE();
 800346c:	4b24      	ldr	r3, [pc, #144]	; (8003500 <HAL_RCC_OscConfig+0x274>)
 800346e:	2200      	movs	r2, #0
 8003470:	601a      	str	r2, [r3, #0]

        /* Get Start Tick*/
        tickstart = HAL_GetTick();
 8003472:	f7fe fbc7 	bl	8001c04 <HAL_GetTick>
 8003476:	6138      	str	r0, [r7, #16]

        /* Wait till HSI is ready */
        while(__HAL_RCC_GET_FLAG(RCC_FLAG_HSIRDY) != RESET)
 8003478:	e008      	b.n	800348c <HAL_RCC_OscConfig+0x200>
        {
          if((HAL_GetTick() - tickstart ) > HSI_TIMEOUT_VALUE)
 800347a:	f7fe fbc3 	bl	8001c04 <HAL_GetTick>
 800347e:	4602      	mov	r2, r0
 8003480:	693b      	ldr	r3, [r7, #16]
 8003482:	1ad3      	subs	r3, r2, r3
 8003484:	2b02      	cmp	r3, #2
 8003486:	d901      	bls.n	800348c <HAL_RCC_OscConfig+0x200>
          {
            return HAL_TIMEOUT;
 8003488:	2303      	movs	r3, #3
 800348a:	e14f      	b.n	800372c <HAL_RCC_OscConfig+0x4a0>
        while(__HAL_RCC_GET_FLAG(RCC_FLAG_HSIRDY) != RESET)
 800348c:	4b1b      	ldr	r3, [pc, #108]	; (80034fc <HAL_RCC_OscConfig+0x270>)
 800348e:	681b      	ldr	r3, [r3, #0]
 8003490:	f003 0302 	and.w	r3, r3, #2
 8003494:	2b00      	cmp	r3, #0
 8003496:	d1f0      	bne.n	800347a <HAL_RCC_OscConfig+0x1ee>
        }
      }
    }
  }
  /*------------------------------ LSI Configuration -------------------------*/
  if(((RCC_OscInitStruct->OscillatorType) & RCC_OSCILLATORTYPE_LSI) == RCC_OSCILLATORTYPE_LSI)
 8003498:	687b      	ldr	r3, [r7, #4]
 800349a:	681b      	ldr	r3, [r3, #0]
 800349c:	f003 0308 	and.w	r3, r3, #8
 80034a0:	2b00      	cmp	r3, #0
 80034a2:	d037      	beq.n	8003514 <HAL_RCC_OscConfig+0x288>
  {
    /* Check the parameters */
    assert_param(IS_RCC_LSI(RCC_OscInitStruct->LSIState));

    /* Check the LSI State */
    if((RCC_OscInitStruct->LSIState)!= RCC_LSI_OFF)
 80034a4:	687b      	ldr	r3, [r7, #4]
 80034a6:	695b      	ldr	r3, [r3, #20]
 80034a8:	2b00      	cmp	r3, #0
 80034aa:	d016      	beq.n	80034da <HAL_RCC_OscConfig+0x24e>
    {
      /* Enable the Internal Low Speed oscillator (LSI). */
      __HAL_RCC_LSI_ENABLE();
 80034ac:	4b15      	ldr	r3, [pc, #84]	; (8003504 <HAL_RCC_OscConfig+0x278>)
 80034ae:	2201      	movs	r2, #1
 80034b0:	601a      	str	r2, [r3, #0]

      /* Get Start Tick*/
      tickstart = HAL_GetTick();
 80034b2:	f7fe fba7 	bl	8001c04 <HAL_GetTick>
 80034b6:	6138      	str	r0, [r7, #16]

      /* Wait till LSI is ready */
      while(__HAL_RCC_GET_FLAG(RCC_FLAG_LSIRDY) == RESET)
 80034b8:	e008      	b.n	80034cc <HAL_RCC_OscConfig+0x240>
      {
        if((HAL_GetTick() - tickstart ) > LSI_TIMEOUT_VALUE)
 80034ba:	f7fe fba3 	bl	8001c04 <HAL_GetTick>
 80034be:	4602      	mov	r2, r0
 80034c0:	693b      	ldr	r3, [r7, #16]
 80034c2:	1ad3      	subs	r3, r2, r3
 80034c4:	2b02      	cmp	r3, #2
 80034c6:	d901      	bls.n	80034cc <HAL_RCC_OscConfig+0x240>
        {
          return HAL_TIMEOUT;
 80034c8:	2303      	movs	r3, #3
 80034ca:	e12f      	b.n	800372c <HAL_RCC_OscConfig+0x4a0>
      while(__HAL_RCC_GET_FLAG(RCC_FLAG_LSIRDY) == RESET)
 80034cc:	4b0b      	ldr	r3, [pc, #44]	; (80034fc <HAL_RCC_OscConfig+0x270>)
 80034ce:	6f5b      	ldr	r3, [r3, #116]	; 0x74
 80034d0:	f003 0302 	and.w	r3, r3, #2
 80034d4:	2b00      	cmp	r3, #0
 80034d6:	d0f0      	beq.n	80034ba <HAL_RCC_OscConfig+0x22e>
 80034d8:	e01c      	b.n	8003514 <HAL_RCC_OscConfig+0x288>
      }
    }
    else
    {
      /* Disable the Internal Low Speed oscillator (LSI). */
      __HAL_RCC_LSI_DISABLE();
 80034da:	4b0a      	ldr	r3, [pc, #40]	; (8003504 <HAL_RCC_OscConfig+0x278>)
 80034dc:	2200      	movs	r2, #0
 80034de:	601a      	str	r2, [r3, #0]

      /* Get Start Tick*/
      tickstart = HAL_GetTick();
 80034e0:	f7fe fb90 	bl	8001c04 <HAL_GetTick>
 80034e4:	6138      	str	r0, [r7, #16]

      /* Wait till LSI is ready */
      while(__HAL_RCC_GET_FLAG(RCC_FLAG_LSIRDY) != RESET)
 80034e6:	e00f      	b.n	8003508 <HAL_RCC_OscConfig+0x27c>
      {
        if((HAL_GetTick() - tickstart ) > LSI_TIMEOUT_VALUE)
 80034e8:	f7fe fb8c 	bl	8001c04 <HAL_GetTick>
 80034ec:	4602      	mov	r2, r0
 80034ee:	693b      	ldr	r3, [r7, #16]
 80034f0:	1ad3      	subs	r3, r2, r3
 80034f2:	2b02      	cmp	r3, #2
 80034f4:	d908      	bls.n	8003508 <HAL_RCC_OscConfig+0x27c>
        {
          return HAL_TIMEOUT;
 80034f6:	2303      	movs	r3, #3
 80034f8:	e118      	b.n	800372c <HAL_RCC_OscConfig+0x4a0>
 80034fa:	bf00      	nop
 80034fc:	40023800 	.word	0x40023800
 8003500:	42470000 	.word	0x42470000
 8003504:	42470e80 	.word	0x42470e80
      while(__HAL_RCC_GET_FLAG(RCC_FLAG_LSIRDY) != RESET)
 8003508:	4b8a      	ldr	r3, [pc, #552]	; (8003734 <HAL_RCC_OscConfig+0x4a8>)
 800350a:	6f5b      	ldr	r3, [r3, #116]	; 0x74
 800350c:	f003 0302 	and.w	r3, r3, #2
 8003510:	2b00      	cmp	r3, #0
 8003512:	d1e9      	bne.n	80034e8 <HAL_RCC_OscConfig+0x25c>
        }
      }
    }
  }
  /*------------------------------ LSE Configuration -------------------------*/
  if(((RCC_OscInitStruct->OscillatorType) & RCC_OSCILLATORTYPE_LSE) == RCC_OSCILLATORTYPE_LSE)
 8003514:	687b      	ldr	r3, [r7, #4]
 8003516:	681b      	ldr	r3, [r3, #0]
 8003518:	f003 0304 	and.w	r3, r3, #4
 800351c:	2b00      	cmp	r3, #0
 800351e:	f000 8097 	beq.w	8003650 <HAL_RCC_OscConfig+0x3c4>
  {
    FlagStatus       pwrclkchanged = RESET;
 8003522:	2300      	movs	r3, #0
 8003524:	75fb      	strb	r3, [r7, #23]
    /* Check the parameters */
    assert_param(IS_RCC_LSE(RCC_OscInitStruct->LSEState));

    /* Update LSE configuration in Backup Domain control register    */
    /* Requires to enable write access to Backup Domain of necessary */
    if(__HAL_RCC_PWR_IS_CLK_DISABLED())
 8003526:	4b83      	ldr	r3, [pc, #524]	; (8003734 <HAL_RCC_OscConfig+0x4a8>)
 8003528:	6c1b      	ldr	r3, [r3, #64]	; 0x40
 800352a:	f003 5380 	and.w	r3, r3, #268435456	; 0x10000000
 800352e:	2b00      	cmp	r3, #0
 8003530:	d10f      	bne.n	8003552 <HAL_RCC_OscConfig+0x2c6>
    {
      __HAL_RCC_PWR_CLK_ENABLE();
 8003532:	2300      	movs	r3, #0
 8003534:	60fb      	str	r3, [r7, #12]
 8003536:	4b7f      	ldr	r3, [pc, #508]	; (8003734 <HAL_RCC_OscConfig+0x4a8>)
 8003538:	6c1b      	ldr	r3, [r3, #64]	; 0x40
 800353a:	4a7e      	ldr	r2, [pc, #504]	; (8003734 <HAL_RCC_OscConfig+0x4a8>)
 800353c:	f043 5380 	orr.w	r3, r3, #268435456	; 0x10000000
 8003540:	6413      	str	r3, [r2, #64]	; 0x40
 8003542:	4b7c      	ldr	r3, [pc, #496]	; (8003734 <HAL_RCC_OscConfig+0x4a8>)
 8003544:	6c1b      	ldr	r3, [r3, #64]	; 0x40
 8003546:	f003 5380 	and.w	r3, r3, #268435456	; 0x10000000
 800354a:	60fb      	str	r3, [r7, #12]
 800354c:	68fb      	ldr	r3, [r7, #12]
      pwrclkchanged = SET;
 800354e:	2301      	movs	r3, #1
 8003550:	75fb      	strb	r3, [r7, #23]
    }

    if(HAL_IS_BIT_CLR(PWR->CR, PWR_CR_DBP))
 8003552:	4b79      	ldr	r3, [pc, #484]	; (8003738 <HAL_RCC_OscConfig+0x4ac>)
 8003554:	681b      	ldr	r3, [r3, #0]
 8003556:	f403 7380 	and.w	r3, r3, #256	; 0x100
 800355a:	2b00      	cmp	r3, #0
 800355c:	d118      	bne.n	8003590 <HAL_RCC_OscConfig+0x304>
    {
      /* Enable write access to Backup domain */
      SET_BIT(PWR->CR, PWR_CR_DBP);
 800355e:	4b76      	ldr	r3, [pc, #472]	; (8003738 <HAL_RCC_OscConfig+0x4ac>)
 8003560:	681b      	ldr	r3, [r3, #0]
 8003562:	4a75      	ldr	r2, [pc, #468]	; (8003738 <HAL_RCC_OscConfig+0x4ac>)
 8003564:	f443 7380 	orr.w	r3, r3, #256	; 0x100
 8003568:	6013      	str	r3, [r2, #0]

      /* Wait for Backup domain Write protection disable */
      tickstart = HAL_GetTick();
 800356a:	f7fe fb4b 	bl	8001c04 <HAL_GetTick>
 800356e:	6138      	str	r0, [r7, #16]

      while(HAL_IS_BIT_CLR(PWR->CR, PWR_CR_DBP))
 8003570:	e008      	b.n	8003584 <HAL_RCC_OscConfig+0x2f8>
      {
        if((HAL_GetTick() - tickstart) > RCC_DBP_TIMEOUT_VALUE)
 8003572:	f7fe fb47 	bl	8001c04 <HAL_GetTick>
 8003576:	4602      	mov	r2, r0
 8003578:	693b      	ldr	r3, [r7, #16]
 800357a:	1ad3      	subs	r3, r2, r3
 800357c:	2b02      	cmp	r3, #2
 800357e:	d901      	bls.n	8003584 <HAL_RCC_OscConfig+0x2f8>
        {
          return HAL_TIMEOUT;
 8003580:	2303      	movs	r3, #3
 8003582:	e0d3      	b.n	800372c <HAL_RCC_OscConfig+0x4a0>
      while(HAL_IS_BIT_CLR(PWR->CR, PWR_CR_DBP))
 8003584:	4b6c      	ldr	r3, [pc, #432]	; (8003738 <HAL_RCC_OscConfig+0x4ac>)
 8003586:	681b      	ldr	r3, [r3, #0]
 8003588:	f403 7380 	and.w	r3, r3, #256	; 0x100
 800358c:	2b00      	cmp	r3, #0
 800358e:	d0f0      	beq.n	8003572 <HAL_RCC_OscConfig+0x2e6>
        }
      }
    }

    /* Set the new LSE configuration -----------------------------------------*/
    __HAL_RCC_LSE_CONFIG(RCC_OscInitStruct->LSEState);
 8003590:	687b      	ldr	r3, [r7, #4]
 8003592:	689b      	ldr	r3, [r3, #8]
 8003594:	2b01      	cmp	r3, #1
 8003596:	d106      	bne.n	80035a6 <HAL_RCC_OscConfig+0x31a>
 8003598:	4b66      	ldr	r3, [pc, #408]	; (8003734 <HAL_RCC_OscConfig+0x4a8>)
 800359a:	6f1b      	ldr	r3, [r3, #112]	; 0x70
 800359c:	4a65      	ldr	r2, [pc, #404]	; (8003734 <HAL_RCC_OscConfig+0x4a8>)
 800359e:	f043 0301 	orr.w	r3, r3, #1
 80035a2:	6713      	str	r3, [r2, #112]	; 0x70
 80035a4:	e01c      	b.n	80035e0 <HAL_RCC_OscConfig+0x354>
 80035a6:	687b      	ldr	r3, [r7, #4]
 80035a8:	689b      	ldr	r3, [r3, #8]
 80035aa:	2b05      	cmp	r3, #5
 80035ac:	d10c      	bne.n	80035c8 <HAL_RCC_OscConfig+0x33c>
 80035ae:	4b61      	ldr	r3, [pc, #388]	; (8003734 <HAL_RCC_OscConfig+0x4a8>)
 80035b0:	6f1b      	ldr	r3, [r3, #112]	; 0x70
 80035b2:	4a60      	ldr	r2, [pc, #384]	; (8003734 <HAL_RCC_OscConfig+0x4a8>)
 80035b4:	f043 0304 	orr.w	r3, r3, #4
 80035b8:	6713      	str	r3, [r2, #112]	; 0x70
 80035ba:	4b5e      	ldr	r3, [pc, #376]	; (8003734 <HAL_RCC_OscConfig+0x4a8>)
 80035bc:	6f1b      	ldr	r3, [r3, #112]	; 0x70
 80035be:	4a5d      	ldr	r2, [pc, #372]	; (8003734 <HAL_RCC_OscConfig+0x4a8>)
 80035c0:	f043 0301 	orr.w	r3, r3, #1
 80035c4:	6713      	str	r3, [r2, #112]	; 0x70
 80035c6:	e00b      	b.n	80035e0 <HAL_RCC_OscConfig+0x354>
 80035c8:	4b5a      	ldr	r3, [pc, #360]	; (8003734 <HAL_RCC_OscConfig+0x4a8>)
 80035ca:	6f1b      	ldr	r3, [r3, #112]	; 0x70
 80035cc:	4a59      	ldr	r2, [pc, #356]	; (8003734 <HAL_RCC_OscConfig+0x4a8>)
 80035ce:	f023 0301 	bic.w	r3, r3, #1
 80035d2:	6713      	str	r3, [r2, #112]	; 0x70
 80035d4:	4b57      	ldr	r3, [pc, #348]	; (8003734 <HAL_RCC_OscConfig+0x4a8>)
 80035d6:	6f1b      	ldr	r3, [r3, #112]	; 0x70
 80035d8:	4a56      	ldr	r2, [pc, #344]	; (8003734 <HAL_RCC_OscConfig+0x4a8>)
 80035da:	f023 0304 	bic.w	r3, r3, #4
 80035de:	6713      	str	r3, [r2, #112]	; 0x70
    /* Check the LSE State */
    if((RCC_OscInitStruct->LSEState) != RCC_LSE_OFF)
 80035e0:	687b      	ldr	r3, [r7, #4]
 80035e2:	689b      	ldr	r3, [r3, #8]
 80035e4:	2b00      	cmp	r3, #0
 80035e6:	d015      	beq.n	8003614 <HAL_RCC_OscConfig+0x388>
    {
      /* Get Start Tick*/
      tickstart = HAL_GetTick();
 80035e8:	f7fe fb0c 	bl	8001c04 <HAL_GetTick>
 80035ec:	6138      	str	r0, [r7, #16]

      /* Wait till LSE is ready */
      while(__HAL_RCC_GET_FLAG(RCC_FLAG_LSERDY) == RESET)
 80035ee:	e00a      	b.n	8003606 <HAL_RCC_OscConfig+0x37a>
      {
        if((HAL_GetTick() - tickstart ) > RCC_LSE_TIMEOUT_VALUE)
 80035f0:	f7fe fb08 	bl	8001c04 <HAL_GetTick>
 80035f4:	4602      	mov	r2, r0
 80035f6:	693b      	ldr	r3, [r7, #16]
 80035f8:	1ad3      	subs	r3, r2, r3
 80035fa:	f241 3288 	movw	r2, #5000	; 0x1388
 80035fe:	4293      	cmp	r3, r2
 8003600:	d901      	bls.n	8003606 <HAL_RCC_OscConfig+0x37a>
        {
          return HAL_TIMEOUT;
 8003602:	2303      	movs	r3, #3
 8003604:	e092      	b.n	800372c <HAL_RCC_OscConfig+0x4a0>
      while(__HAL_RCC_GET_FLAG(RCC_FLAG_LSERDY) == RESET)
 8003606:	4b4b      	ldr	r3, [pc, #300]	; (8003734 <HAL_RCC_OscConfig+0x4a8>)
 8003608:	6f1b      	ldr	r3, [r3, #112]	; 0x70
 800360a:	f003 0302 	and.w	r3, r3, #2
 800360e:	2b00      	cmp	r3, #0
 8003610:	d0ee      	beq.n	80035f0 <HAL_RCC_OscConfig+0x364>
 8003612:	e014      	b.n	800363e <HAL_RCC_OscConfig+0x3b2>
      }
    }
    else
    {
      /* Get Start Tick*/
      tickstart = HAL_GetTick();
 8003614:	f7fe faf6 	bl	8001c04 <HAL_GetTick>
 8003618:	6138      	str	r0, [r7, #16]

      /* Wait till LSE is ready */
      while(__HAL_RCC_GET_FLAG(RCC_FLAG_LSERDY) != RESET)
 800361a:	e00a      	b.n	8003632 <HAL_RCC_OscConfig+0x3a6>
      {
        if((HAL_GetTick() - tickstart ) > RCC_LSE_TIMEOUT_VALUE)
 800361c:	f7fe faf2 	bl	8001c04 <HAL_GetTick>
 8003620:	4602      	mov	r2, r0
 8003622:	693b      	ldr	r3, [r7, #16]
 8003624:	1ad3      	subs	r3, r2, r3
 8003626:	f241 3288 	movw	r2, #5000	; 0x1388
 800362a:	4293      	cmp	r3, r2
 800362c:	d901      	bls.n	8003632 <HAL_RCC_OscConfig+0x3a6>
        {
          return HAL_TIMEOUT;
 800362e:	2303      	movs	r3, #3
 8003630:	e07c      	b.n	800372c <HAL_RCC_OscConfig+0x4a0>
      while(__HAL_RCC_GET_FLAG(RCC_FLAG_LSERDY) != RESET)
 8003632:	4b40      	ldr	r3, [pc, #256]	; (8003734 <HAL_RCC_OscConfig+0x4a8>)
 8003634:	6f1b      	ldr	r3, [r3, #112]	; 0x70
 8003636:	f003 0302 	and.w	r3, r3, #2
 800363a:	2b00      	cmp	r3, #0
 800363c:	d1ee      	bne.n	800361c <HAL_RCC_OscConfig+0x390>
        }
      }
    }

    /* Restore clock configuration if changed */
    if(pwrclkchanged == SET)
 800363e:	7dfb      	ldrb	r3, [r7, #23]
 8003640:	2b01      	cmp	r3, #1
 8003642:	d105      	bne.n	8003650 <HAL_RCC_OscConfig+0x3c4>
    {
      __HAL_RCC_PWR_CLK_DISABLE();
 8003644:	4b3b      	ldr	r3, [pc, #236]	; (8003734 <HAL_RCC_OscConfig+0x4a8>)
 8003646:	6c1b      	ldr	r3, [r3, #64]	; 0x40
 8003648:	4a3a      	ldr	r2, [pc, #232]	; (8003734 <HAL_RCC_OscConfig+0x4a8>)
 800364a:	f023 5380 	bic.w	r3, r3, #268435456	; 0x10000000
 800364e:	6413      	str	r3, [r2, #64]	; 0x40
    }
  }
  /*-------------------------------- PLL Configuration -----------------------*/
  /* Check the parameters */
  assert_param(IS_RCC_PLL(RCC_OscInitStruct->PLL.PLLState));
  if ((RCC_OscInitStruct->PLL.PLLState) != RCC_PLL_NONE)
 8003650:	687b      	ldr	r3, [r7, #4]
 8003652:	699b      	ldr	r3, [r3, #24]
 8003654:	2b00      	cmp	r3, #0
 8003656:	d068      	beq.n	800372a <HAL_RCC_OscConfig+0x49e>
  {
    /* Check if the PLL is used as system clock or not */
    if(__HAL_RCC_GET_SYSCLK_SOURCE() != RCC_CFGR_SWS_PLL)
 8003658:	4b36      	ldr	r3, [pc, #216]	; (8003734 <HAL_RCC_OscConfig+0x4a8>)
 800365a:	689b      	ldr	r3, [r3, #8]
 800365c:	f003 030c 	and.w	r3, r3, #12
 8003660:	2b08      	cmp	r3, #8
 8003662:	d060      	beq.n	8003726 <HAL_RCC_OscConfig+0x49a>
    {
      if((RCC_OscInitStruct->PLL.PLLState) == RCC_PLL_ON)
 8003664:	687b      	ldr	r3, [r7, #4]
 8003666:	699b      	ldr	r3, [r3, #24]
 8003668:	2b02      	cmp	r3, #2
 800366a:	d145      	bne.n	80036f8 <HAL_RCC_OscConfig+0x46c>
        assert_param(IS_RCC_PLLP_VALUE(RCC_OscInitStruct->PLL.PLLP));
        assert_param(IS_RCC_PLLQ_VALUE(RCC_OscInitStruct->PLL.PLLQ));
        assert_param(IS_RCC_PLLR_VALUE(RCC_OscInitStruct->PLL.PLLR));

        /* Disable the main PLL. */
        __HAL_RCC_PLL_DISABLE();
 800366c:	4b33      	ldr	r3, [pc, #204]	; (800373c <HAL_RCC_OscConfig+0x4b0>)
 800366e:	2200      	movs	r2, #0
 8003670:	601a      	str	r2, [r3, #0]

        /* Get Start Tick*/
        tickstart = HAL_GetTick();
 8003672:	f7fe fac7 	bl	8001c04 <HAL_GetTick>
 8003676:	6138      	str	r0, [r7, #16]

        /* Wait till PLL is ready */
        while(__HAL_RCC_GET_FLAG(RCC_FLAG_PLLRDY) != RESET)
 8003678:	e008      	b.n	800368c <HAL_RCC_OscConfig+0x400>
        {
          if((HAL_GetTick() - tickstart ) > PLL_TIMEOUT_VALUE)
 800367a:	f7fe fac3 	bl	8001c04 <HAL_GetTick>
 800367e:	4602      	mov	r2, r0
 8003680:	693b      	ldr	r3, [r7, #16]
 8003682:	1ad3      	subs	r3, r2, r3
 8003684:	2b02      	cmp	r3, #2
 8003686:	d901      	bls.n	800368c <HAL_RCC_OscConfig+0x400>
          {
            return HAL_TIMEOUT;
 8003688:	2303      	movs	r3, #3
 800368a:	e04f      	b.n	800372c <HAL_RCC_OscConfig+0x4a0>
        while(__HAL_RCC_GET_FLAG(RCC_FLAG_PLLRDY) != RESET)
 800368c:	4b29      	ldr	r3, [pc, #164]	; (8003734 <HAL_RCC_OscConfig+0x4a8>)
 800368e:	681b      	ldr	r3, [r3, #0]
 8003690:	f003 7300 	and.w	r3, r3, #33554432	; 0x2000000
 8003694:	2b00      	cmp	r3, #0
 8003696:	d1f0      	bne.n	800367a <HAL_RCC_OscConfig+0x3ee>
          }
        }

        /* Configure the main PLL clock source, multiplication and division factors. */
        __HAL_RCC_PLL_CONFIG(RCC_OscInitStruct->PLL.PLLSource,
 8003698:	687b      	ldr	r3, [r7, #4]
 800369a:	69da      	ldr	r2, [r3, #28]
 800369c:	687b      	ldr	r3, [r7, #4]
 800369e:	6a1b      	ldr	r3, [r3, #32]
 80036a0:	431a      	orrs	r2, r3
 80036a2:	687b      	ldr	r3, [r7, #4]
 80036a4:	6a5b      	ldr	r3, [r3, #36]	; 0x24
 80036a6:	019b      	lsls	r3, r3, #6
 80036a8:	431a      	orrs	r2, r3
 80036aa:	687b      	ldr	r3, [r7, #4]
 80036ac:	6a9b      	ldr	r3, [r3, #40]	; 0x28
 80036ae:	085b      	lsrs	r3, r3, #1
 80036b0:	3b01      	subs	r3, #1
 80036b2:	041b      	lsls	r3, r3, #16
 80036b4:	431a      	orrs	r2, r3
 80036b6:	687b      	ldr	r3, [r7, #4]
 80036b8:	6adb      	ldr	r3, [r3, #44]	; 0x2c
 80036ba:	061b      	lsls	r3, r3, #24
 80036bc:	431a      	orrs	r2, r3
 80036be:	687b      	ldr	r3, [r7, #4]
 80036c0:	6b1b      	ldr	r3, [r3, #48]	; 0x30
 80036c2:	071b      	lsls	r3, r3, #28
 80036c4:	491b      	ldr	r1, [pc, #108]	; (8003734 <HAL_RCC_OscConfig+0x4a8>)
 80036c6:	4313      	orrs	r3, r2
 80036c8:	604b      	str	r3, [r1, #4]
                             RCC_OscInitStruct->PLL.PLLP,
                             RCC_OscInitStruct->PLL.PLLQ,
                             RCC_OscInitStruct->PLL.PLLR);

        /* Enable the main PLL. */
        __HAL_RCC_PLL_ENABLE();
 80036ca:	4b1c      	ldr	r3, [pc, #112]	; (800373c <HAL_RCC_OscConfig+0x4b0>)
 80036cc:	2201      	movs	r2, #1
 80036ce:	601a      	str	r2, [r3, #0]

        /* Get Start Tick*/
        tickstart = HAL_GetTick();
 80036d0:	f7fe fa98 	bl	8001c04 <HAL_GetTick>
 80036d4:	6138      	str	r0, [r7, #16]

        /* Wait till PLL is ready */
        while(__HAL_RCC_GET_FLAG(RCC_FLAG_PLLRDY) == RESET)
 80036d6:	e008      	b.n	80036ea <HAL_RCC_OscConfig+0x45e>
        {
          if((HAL_GetTick() - tickstart ) > PLL_TIMEOUT_VALUE)
 80036d8:	f7fe fa94 	bl	8001c04 <HAL_GetTick>
 80036dc:	4602      	mov	r2, r0
 80036de:	693b      	ldr	r3, [r7, #16]
 80036e0:	1ad3      	subs	r3, r2, r3
 80036e2:	2b02      	cmp	r3, #2
 80036e4:	d901      	bls.n	80036ea <HAL_RCC_OscConfig+0x45e>
          {
            return HAL_TIMEOUT;
 80036e6:	2303      	movs	r3, #3
 80036e8:	e020      	b.n	800372c <HAL_RCC_OscConfig+0x4a0>
        while(__HAL_RCC_GET_FLAG(RCC_FLAG_PLLRDY) == RESET)
 80036ea:	4b12      	ldr	r3, [pc, #72]	; (8003734 <HAL_RCC_OscConfig+0x4a8>)
 80036ec:	681b      	ldr	r3, [r3, #0]
 80036ee:	f003 7300 	and.w	r3, r3, #33554432	; 0x2000000
 80036f2:	2b00      	cmp	r3, #0
 80036f4:	d0f0      	beq.n	80036d8 <HAL_RCC_OscConfig+0x44c>
 80036f6:	e018      	b.n	800372a <HAL_RCC_OscConfig+0x49e>
        }
      }
      else
      {
        /* Disable the main PLL. */
        __HAL_RCC_PLL_DISABLE();
 80036f8:	4b10      	ldr	r3, [pc, #64]	; (800373c <HAL_RCC_OscConfig+0x4b0>)
 80036fa:	2200      	movs	r2, #0
 80036fc:	601a      	str	r2, [r3, #0]

        /* Get Start Tick*/
        tickstart = HAL_GetTick();
 80036fe:	f7fe fa81 	bl	8001c04 <HAL_GetTick>
 8003702:	6138      	str	r0, [r7, #16]

        /* Wait till PLL is ready */
        while(__HAL_RCC_GET_FLAG(RCC_FLAG_PLLRDY) != RESET)
 8003704:	e008      	b.n	8003718 <HAL_RCC_OscConfig+0x48c>
        {
          if((HAL_GetTick() - tickstart ) > PLL_TIMEOUT_VALUE)
 8003706:	f7fe fa7d 	bl	8001c04 <HAL_GetTick>
 800370a:	4602      	mov	r2, r0
 800370c:	693b      	ldr	r3, [r7, #16]
 800370e:	1ad3      	subs	r3, r2, r3
 8003710:	2b02      	cmp	r3, #2
 8003712:	d901      	bls.n	8003718 <HAL_RCC_OscConfig+0x48c>
          {
            return HAL_TIMEOUT;
 8003714:	2303      	movs	r3, #3
 8003716:	e009      	b.n	800372c <HAL_RCC_OscConfig+0x4a0>
        while(__HAL_RCC_GET_FLAG(RCC_FLAG_PLLRDY) != RESET)
 8003718:	4b06      	ldr	r3, [pc, #24]	; (8003734 <HAL_RCC_OscConfig+0x4a8>)
 800371a:	681b      	ldr	r3, [r3, #0]
 800371c:	f003 7300 	and.w	r3, r3, #33554432	; 0x2000000
 8003720:	2b00      	cmp	r3, #0
 8003722:	d1f0      	bne.n	8003706 <HAL_RCC_OscConfig+0x47a>
 8003724:	e001      	b.n	800372a <HAL_RCC_OscConfig+0x49e>
        }
      }
    }
    else
    {
      return HAL_ERROR;
 8003726:	2301      	movs	r3, #1
 8003728:	e000      	b.n	800372c <HAL_RCC_OscConfig+0x4a0>
    }
  }
  return HAL_OK;
 800372a:	2300      	movs	r3, #0
}
 800372c:	4618      	mov	r0, r3
 800372e:	3718      	adds	r7, #24
 8003730:	46bd      	mov	sp, r7
 8003732:	bd80      	pop	{r7, pc}
 8003734:	40023800 	.word	0x40023800
 8003738:	40007000 	.word	0x40007000
 800373c:	42470060 	.word	0x42470060

08003740 <HAL_TIM_Base_Init>:
  *         Ex: call @ref HAL_TIM_Base_DeInit() before HAL_TIM_Base_Init()
  * @param  htim TIM Base handle
  * @retval HAL status
  */
HAL_StatusTypeDef HAL_TIM_Base_Init(TIM_HandleTypeDef *htim)
{
 8003740:	b580      	push	{r7, lr}
 8003742:	b082      	sub	sp, #8
 8003744:	af00      	add	r7, sp, #0
 8003746:	6078      	str	r0, [r7, #4]
  /* Check the TIM handle allocation */
  if (htim == NULL)
 8003748:	687b      	ldr	r3, [r7, #4]
 800374a:	2b00      	cmp	r3, #0
 800374c:	d101      	bne.n	8003752 <HAL_TIM_Base_Init+0x12>
  {
    return HAL_ERROR;
 800374e:	2301      	movs	r3, #1
 8003750:	e01d      	b.n	800378e <HAL_TIM_Base_Init+0x4e>
  assert_param(IS_TIM_INSTANCE(htim->Instance));
  assert_param(IS_TIM_COUNTER_MODE(htim->Init.CounterMode));
  assert_param(IS_TIM_CLOCKDIVISION_DIV(htim->Init.ClockDivision));
  assert_param(IS_TIM_AUTORELOAD_PRELOAD(htim->Init.AutoReloadPreload));

  if (htim->State == HAL_TIM_STATE_RESET)
 8003752:	687b      	ldr	r3, [r7, #4]
 8003754:	f893 303d 	ldrb.w	r3, [r3, #61]	; 0x3d
 8003758:	b2db      	uxtb	r3, r3
 800375a:	2b00      	cmp	r3, #0
 800375c:	d106      	bne.n	800376c <HAL_TIM_Base_Init+0x2c>
  {
    /* Allocate lock resource and initialize it */
    htim->Lock = HAL_UNLOCKED;
 800375e:	687b      	ldr	r3, [r7, #4]
 8003760:	2200      	movs	r2, #0
 8003762:	f883 203c 	strb.w	r2, [r3, #60]	; 0x3c
    }
    /* Init the low level hardware : GPIO, CLOCK, NVIC */
    htim->Base_MspInitCallback(htim);
#else
    /* Init the low level hardware : GPIO, CLOCK, NVIC */
    HAL_TIM_Base_MspInit(htim);
 8003766:	6878      	ldr	r0, [r7, #4]
 8003768:	f7fe f844 	bl	80017f4 <HAL_TIM_Base_MspInit>
#endif /* USE_HAL_TIM_REGISTER_CALLBACKS */
  }

  /* Set the TIM state */
  htim->State = HAL_TIM_STATE_BUSY;
 800376c:	687b      	ldr	r3, [r7, #4]
 800376e:	2202      	movs	r2, #2
 8003770:	f883 203d 	strb.w	r2, [r3, #61]	; 0x3d

  /* Set the Time Base configuration */
  TIM_Base_SetConfig(htim->Instance, &htim->Init);
 8003774:	687b      	ldr	r3, [r7, #4]
 8003776:	681a      	ldr	r2, [r3, #0]
 8003778:	687b      	ldr	r3, [r7, #4]
 800377a:	3304      	adds	r3, #4
 800377c:	4619      	mov	r1, r3
 800377e:	4610      	mov	r0, r2
 8003780:	f000 f8f2 	bl	8003968 <TIM_Base_SetConfig>

  /* Initialize the TIM state*/
  htim->State = HAL_TIM_STATE_READY;
 8003784:	687b      	ldr	r3, [r7, #4]
 8003786:	2201      	movs	r2, #1
 8003788:	f883 203d 	strb.w	r2, [r3, #61]	; 0x3d

  return HAL_OK;
 800378c:	2300      	movs	r3, #0
}
 800378e:	4618      	mov	r0, r3
 8003790:	3708      	adds	r7, #8
 8003792:	46bd      	mov	sp, r7
 8003794:	bd80      	pop	{r7, pc}

08003796 <HAL_TIM_Base_Start>:
  * @brief  Starts the TIM Base generation.
  * @param  htim TIM Base handle
  * @retval HAL status
  */
HAL_StatusTypeDef HAL_TIM_Base_Start(TIM_HandleTypeDef *htim)
{
 8003796:	b480      	push	{r7}
 8003798:	b085      	sub	sp, #20
 800379a:	af00      	add	r7, sp, #0
 800379c:	6078      	str	r0, [r7, #4]

  /* Check the parameters */
  assert_param(IS_TIM_INSTANCE(htim->Instance));

  /* Set the TIM state */
  htim->State = HAL_TIM_STATE_BUSY;
 800379e:	687b      	ldr	r3, [r7, #4]
 80037a0:	2202      	movs	r2, #2
 80037a2:	f883 203d 	strb.w	r2, [r3, #61]	; 0x3d

  /* Enable the Peripheral, except in trigger mode where enable is automatically done with trigger */
  tmpsmcr = htim->Instance->SMCR & TIM_SMCR_SMS;
 80037a6:	687b      	ldr	r3, [r7, #4]
 80037a8:	681b      	ldr	r3, [r3, #0]
 80037aa:	689b      	ldr	r3, [r3, #8]
 80037ac:	f003 0307 	and.w	r3, r3, #7
 80037b0:	60fb      	str	r3, [r7, #12]
  if (!IS_TIM_SLAVEMODE_TRIGGER_ENABLED(tmpsmcr))
 80037b2:	68fb      	ldr	r3, [r7, #12]
 80037b4:	2b06      	cmp	r3, #6
 80037b6:	d007      	beq.n	80037c8 <HAL_TIM_Base_Start+0x32>
  {
    __HAL_TIM_ENABLE(htim);
 80037b8:	687b      	ldr	r3, [r7, #4]
 80037ba:	681b      	ldr	r3, [r3, #0]
 80037bc:	681a      	ldr	r2, [r3, #0]
 80037be:	687b      	ldr	r3, [r7, #4]
 80037c0:	681b      	ldr	r3, [r3, #0]
 80037c2:	f042 0201 	orr.w	r2, r2, #1
 80037c6:	601a      	str	r2, [r3, #0]
  }

  /* Change the TIM state*/
  htim->State = HAL_TIM_STATE_READY;
 80037c8:	687b      	ldr	r3, [r7, #4]
 80037ca:	2201      	movs	r2, #1
 80037cc:	f883 203d 	strb.w	r2, [r3, #61]	; 0x3d

  /* Return function status */
  return HAL_OK;
 80037d0:	2300      	movs	r3, #0
}
 80037d2:	4618      	mov	r0, r3
 80037d4:	3714      	adds	r7, #20
 80037d6:	46bd      	mov	sp, r7
 80037d8:	f85d 7b04 	ldr.w	r7, [sp], #4
 80037dc:	4770      	bx	lr

080037de <HAL_TIM_ConfigClockSource>:
  * @param  sClockSourceConfig pointer to a TIM_ClockConfigTypeDef structure that
  *         contains the clock source information for the TIM peripheral.
  * @retval HAL status
  */
HAL_StatusTypeDef HAL_TIM_ConfigClockSource(TIM_HandleTypeDef *htim, TIM_ClockConfigTypeDef *sClockSourceConfig)
{
 80037de:	b580      	push	{r7, lr}
 80037e0:	b084      	sub	sp, #16
 80037e2:	af00      	add	r7, sp, #0
 80037e4:	6078      	str	r0, [r7, #4]
 80037e6:	6039      	str	r1, [r7, #0]
  uint32_t tmpsmcr;

  /* Process Locked */
  __HAL_LOCK(htim);
 80037e8:	687b      	ldr	r3, [r7, #4]
 80037ea:	f893 303c 	ldrb.w	r3, [r3, #60]	; 0x3c
 80037ee:	2b01      	cmp	r3, #1
 80037f0:	d101      	bne.n	80037f6 <HAL_TIM_ConfigClockSource+0x18>
 80037f2:	2302      	movs	r3, #2
 80037f4:	e0b3      	b.n	800395e <HAL_TIM_ConfigClockSource+0x180>
 80037f6:	687b      	ldr	r3, [r7, #4]
 80037f8:	2201      	movs	r2, #1
 80037fa:	f883 203c 	strb.w	r2, [r3, #60]	; 0x3c

  htim->State = HAL_TIM_STATE_BUSY;
 80037fe:	687b      	ldr	r3, [r7, #4]
 8003800:	2202      	movs	r2, #2
 8003802:	f883 203d 	strb.w	r2, [r3, #61]	; 0x3d

  /* Check the parameters */
  assert_param(IS_TIM_CLOCKSOURCE(sClockSourceConfig->ClockSource));

  /* Reset the SMS, TS, ECE, ETPS and ETRF bits */
  tmpsmcr = htim->Instance->SMCR;
 8003806:	687b      	ldr	r3, [r7, #4]
 8003808:	681b      	ldr	r3, [r3, #0]
 800380a:	689b      	ldr	r3, [r3, #8]
 800380c:	60fb      	str	r3, [r7, #12]
  tmpsmcr &= ~(TIM_SMCR_SMS | TIM_SMCR_TS);
 800380e:	68fb      	ldr	r3, [r7, #12]
 8003810:	f023 0377 	bic.w	r3, r3, #119	; 0x77
 8003814:	60fb      	str	r3, [r7, #12]
  tmpsmcr &= ~(TIM_SMCR_ETF | TIM_SMCR_ETPS | TIM_SMCR_ECE | TIM_SMCR_ETP);
 8003816:	68fb      	ldr	r3, [r7, #12]
 8003818:	f423 437f 	bic.w	r3, r3, #65280	; 0xff00
 800381c:	60fb      	str	r3, [r7, #12]
  htim->Instance->SMCR = tmpsmcr;
 800381e:	687b      	ldr	r3, [r7, #4]
 8003820:	681b      	ldr	r3, [r3, #0]
 8003822:	68fa      	ldr	r2, [r7, #12]
 8003824:	609a      	str	r2, [r3, #8]

  switch (sClockSourceConfig->ClockSource)
 8003826:	683b      	ldr	r3, [r7, #0]
 8003828:	681b      	ldr	r3, [r3, #0]
 800382a:	f5b3 5f00 	cmp.w	r3, #8192	; 0x2000
 800382e:	d03e      	beq.n	80038ae <HAL_TIM_ConfigClockSource+0xd0>
 8003830:	f5b3 5f00 	cmp.w	r3, #8192	; 0x2000
 8003834:	f200 8087 	bhi.w	8003946 <HAL_TIM_ConfigClockSource+0x168>
 8003838:	f5b3 5f80 	cmp.w	r3, #4096	; 0x1000
 800383c:	f000 8085 	beq.w	800394a <HAL_TIM_ConfigClockSource+0x16c>
 8003840:	f5b3 5f80 	cmp.w	r3, #4096	; 0x1000
 8003844:	d87f      	bhi.n	8003946 <HAL_TIM_ConfigClockSource+0x168>
 8003846:	2b70      	cmp	r3, #112	; 0x70
 8003848:	d01a      	beq.n	8003880 <HAL_TIM_ConfigClockSource+0xa2>
 800384a:	2b70      	cmp	r3, #112	; 0x70
 800384c:	d87b      	bhi.n	8003946 <HAL_TIM_ConfigClockSource+0x168>
 800384e:	2b60      	cmp	r3, #96	; 0x60
 8003850:	d050      	beq.n	80038f4 <HAL_TIM_ConfigClockSource+0x116>
 8003852:	2b60      	cmp	r3, #96	; 0x60
 8003854:	d877      	bhi.n	8003946 <HAL_TIM_ConfigClockSource+0x168>
 8003856:	2b50      	cmp	r3, #80	; 0x50
 8003858:	d03c      	beq.n	80038d4 <HAL_TIM_ConfigClockSource+0xf6>
 800385a:	2b50      	cmp	r3, #80	; 0x50
 800385c:	d873      	bhi.n	8003946 <HAL_TIM_ConfigClockSource+0x168>
 800385e:	2b40      	cmp	r3, #64	; 0x40
 8003860:	d058      	beq.n	8003914 <HAL_TIM_ConfigClockSource+0x136>
 8003862:	2b40      	cmp	r3, #64	; 0x40
 8003864:	d86f      	bhi.n	8003946 <HAL_TIM_ConfigClockSource+0x168>
 8003866:	2b30      	cmp	r3, #48	; 0x30
 8003868:	d064      	beq.n	8003934 <HAL_TIM_ConfigClockSource+0x156>
 800386a:	2b30      	cmp	r3, #48	; 0x30
 800386c:	d86b      	bhi.n	8003946 <HAL_TIM_ConfigClockSource+0x168>
 800386e:	2b20      	cmp	r3, #32
 8003870:	d060      	beq.n	8003934 <HAL_TIM_ConfigClockSource+0x156>
 8003872:	2b20      	cmp	r3, #32
 8003874:	d867      	bhi.n	8003946 <HAL_TIM_ConfigClockSource+0x168>
 8003876:	2b00      	cmp	r3, #0
 8003878:	d05c      	beq.n	8003934 <HAL_TIM_ConfigClockSource+0x156>
 800387a:	2b10      	cmp	r3, #16
 800387c:	d05a      	beq.n	8003934 <HAL_TIM_ConfigClockSource+0x156>
      TIM_ITRx_SetConfig(htim->Instance, sClockSourceConfig->ClockSource);
      break;
    }

    default:
      break;
 800387e:	e062      	b.n	8003946 <HAL_TIM_ConfigClockSource+0x168>
      TIM_ETR_SetConfig(htim->Instance,
 8003880:	687b      	ldr	r3, [r7, #4]
 8003882:	6818      	ldr	r0, [r3, #0]
 8003884:	683b      	ldr	r3, [r7, #0]
 8003886:	6899      	ldr	r1, [r3, #8]
 8003888:	683b      	ldr	r3, [r7, #0]
 800388a:	685a      	ldr	r2, [r3, #4]
 800388c:	683b      	ldr	r3, [r7, #0]
 800388e:	68db      	ldr	r3, [r3, #12]
 8003890:	f000 f984 	bl	8003b9c <TIM_ETR_SetConfig>
      tmpsmcr = htim->Instance->SMCR;
 8003894:	687b      	ldr	r3, [r7, #4]
 8003896:	681b      	ldr	r3, [r3, #0]
 8003898:	689b      	ldr	r3, [r3, #8]
 800389a:	60fb      	str	r3, [r7, #12]
      tmpsmcr |= (TIM_SLAVEMODE_EXTERNAL1 | TIM_CLOCKSOURCE_ETRMODE1);
 800389c:	68fb      	ldr	r3, [r7, #12]
 800389e:	f043 0377 	orr.w	r3, r3, #119	; 0x77
 80038a2:	60fb      	str	r3, [r7, #12]
      htim->Instance->SMCR = tmpsmcr;
 80038a4:	687b      	ldr	r3, [r7, #4]
 80038a6:	681b      	ldr	r3, [r3, #0]
 80038a8:	68fa      	ldr	r2, [r7, #12]
 80038aa:	609a      	str	r2, [r3, #8]
      break;
 80038ac:	e04e      	b.n	800394c <HAL_TIM_ConfigClockSource+0x16e>
      TIM_ETR_SetConfig(htim->Instance,
 80038ae:	687b      	ldr	r3, [r7, #4]
 80038b0:	6818      	ldr	r0, [r3, #0]
 80038b2:	683b      	ldr	r3, [r7, #0]
 80038b4:	6899      	ldr	r1, [r3, #8]
 80038b6:	683b      	ldr	r3, [r7, #0]
 80038b8:	685a      	ldr	r2, [r3, #4]
 80038ba:	683b      	ldr	r3, [r7, #0]
 80038bc:	68db      	ldr	r3, [r3, #12]
 80038be:	f000 f96d 	bl	8003b9c <TIM_ETR_SetConfig>
      htim->Instance->SMCR |= TIM_SMCR_ECE;
 80038c2:	687b      	ldr	r3, [r7, #4]
 80038c4:	681b      	ldr	r3, [r3, #0]
 80038c6:	689a      	ldr	r2, [r3, #8]
 80038c8:	687b      	ldr	r3, [r7, #4]
 80038ca:	681b      	ldr	r3, [r3, #0]
 80038cc:	f442 4280 	orr.w	r2, r2, #16384	; 0x4000
 80038d0:	609a      	str	r2, [r3, #8]
      break;
 80038d2:	e03b      	b.n	800394c <HAL_TIM_ConfigClockSource+0x16e>
      TIM_TI1_ConfigInputStage(htim->Instance,
 80038d4:	687b      	ldr	r3, [r7, #4]
 80038d6:	6818      	ldr	r0, [r3, #0]
 80038d8:	683b      	ldr	r3, [r7, #0]
 80038da:	6859      	ldr	r1, [r3, #4]
 80038dc:	683b      	ldr	r3, [r7, #0]
 80038de:	68db      	ldr	r3, [r3, #12]
 80038e0:	461a      	mov	r2, r3
 80038e2:	f000 f8e1 	bl	8003aa8 <TIM_TI1_ConfigInputStage>
      TIM_ITRx_SetConfig(htim->Instance, TIM_CLOCKSOURCE_TI1);
 80038e6:	687b      	ldr	r3, [r7, #4]
 80038e8:	681b      	ldr	r3, [r3, #0]
 80038ea:	2150      	movs	r1, #80	; 0x50
 80038ec:	4618      	mov	r0, r3
 80038ee:	f000 f93a 	bl	8003b66 <TIM_ITRx_SetConfig>
      break;
 80038f2:	e02b      	b.n	800394c <HAL_TIM_ConfigClockSource+0x16e>
      TIM_TI2_ConfigInputStage(htim->Instance,
 80038f4:	687b      	ldr	r3, [r7, #4]
 80038f6:	6818      	ldr	r0, [r3, #0]
 80038f8:	683b      	ldr	r3, [r7, #0]
 80038fa:	6859      	ldr	r1, [r3, #4]
 80038fc:	683b      	ldr	r3, [r7, #0]
 80038fe:	68db      	ldr	r3, [r3, #12]
 8003900:	461a      	mov	r2, r3
 8003902:	f000 f900 	bl	8003b06 <TIM_TI2_ConfigInputStage>
      TIM_ITRx_SetConfig(htim->Instance, TIM_CLOCKSOURCE_TI2);
 8003906:	687b      	ldr	r3, [r7, #4]
 8003908:	681b      	ldr	r3, [r3, #0]
 800390a:	2160      	movs	r1, #96	; 0x60
 800390c:	4618      	mov	r0, r3
 800390e:	f000 f92a 	bl	8003b66 <TIM_ITRx_SetConfig>
      break;
 8003912:	e01b      	b.n	800394c <HAL_TIM_ConfigClockSource+0x16e>
      TIM_TI1_ConfigInputStage(htim->Instance,
 8003914:	687b      	ldr	r3, [r7, #4]
 8003916:	6818      	ldr	r0, [r3, #0]
 8003918:	683b      	ldr	r3, [r7, #0]
 800391a:	6859      	ldr	r1, [r3, #4]
 800391c:	683b      	ldr	r3, [r7, #0]
 800391e:	68db      	ldr	r3, [r3, #12]
 8003920:	461a      	mov	r2, r3
 8003922:	f000 f8c1 	bl	8003aa8 <TIM_TI1_ConfigInputStage>
      TIM_ITRx_SetConfig(htim->Instance, TIM_CLOCKSOURCE_TI1ED);
 8003926:	687b      	ldr	r3, [r7, #4]
 8003928:	681b      	ldr	r3, [r3, #0]
 800392a:	2140      	movs	r1, #64	; 0x40
 800392c:	4618      	mov	r0, r3
 800392e:	f000 f91a 	bl	8003b66 <TIM_ITRx_SetConfig>
      break;
 8003932:	e00b      	b.n	800394c <HAL_TIM_ConfigClockSource+0x16e>
      TIM_ITRx_SetConfig(htim->Instance, sClockSourceConfig->ClockSource);
 8003934:	687b      	ldr	r3, [r7, #4]
 8003936:	681a      	ldr	r2, [r3, #0]
 8003938:	683b      	ldr	r3, [r7, #0]
 800393a:	681b      	ldr	r3, [r3, #0]
 800393c:	4619      	mov	r1, r3
 800393e:	4610      	mov	r0, r2
 8003940:	f000 f911 	bl	8003b66 <TIM_ITRx_SetConfig>
      break;
 8003944:	e002      	b.n	800394c <HAL_TIM_ConfigClockSource+0x16e>
      break;
 8003946:	bf00      	nop
 8003948:	e000      	b.n	800394c <HAL_TIM_ConfigClockSource+0x16e>
      break;
 800394a:	bf00      	nop
  }
  htim->State = HAL_TIM_STATE_READY;
 800394c:	687b      	ldr	r3, [r7, #4]
 800394e:	2201      	movs	r2, #1
 8003950:	f883 203d 	strb.w	r2, [r3, #61]	; 0x3d

  __HAL_UNLOCK(htim);
 8003954:	687b      	ldr	r3, [r7, #4]
 8003956:	2200      	movs	r2, #0
 8003958:	f883 203c 	strb.w	r2, [r3, #60]	; 0x3c

  return HAL_OK;
 800395c:	2300      	movs	r3, #0
}
 800395e:	4618      	mov	r0, r3
 8003960:	3710      	adds	r7, #16
 8003962:	46bd      	mov	sp, r7
 8003964:	bd80      	pop	{r7, pc}
	...

08003968 <TIM_Base_SetConfig>:
  * @param  TIMx TIM peripheral
  * @param  Structure TIM Base configuration structure
  * @retval None
  */
void TIM_Base_SetConfig(TIM_TypeDef *TIMx, TIM_Base_InitTypeDef *Structure)
{
 8003968:	b480      	push	{r7}
 800396a:	b085      	sub	sp, #20
 800396c:	af00      	add	r7, sp, #0
 800396e:	6078      	str	r0, [r7, #4]
 8003970:	6039      	str	r1, [r7, #0]
  uint32_t tmpcr1;
  tmpcr1 = TIMx->CR1;
 8003972:	687b      	ldr	r3, [r7, #4]
 8003974:	681b      	ldr	r3, [r3, #0]
 8003976:	60fb      	str	r3, [r7, #12]

  /* Set TIM Time Base Unit parameters ---------------------------------------*/
  if (IS_TIM_COUNTER_MODE_SELECT_INSTANCE(TIMx))
 8003978:	687b      	ldr	r3, [r7, #4]
 800397a:	4a40      	ldr	r2, [pc, #256]	; (8003a7c <TIM_Base_SetConfig+0x114>)
 800397c:	4293      	cmp	r3, r2
 800397e:	d013      	beq.n	80039a8 <TIM_Base_SetConfig+0x40>
 8003980:	687b      	ldr	r3, [r7, #4]
 8003982:	f1b3 4f80 	cmp.w	r3, #1073741824	; 0x40000000
 8003986:	d00f      	beq.n	80039a8 <TIM_Base_SetConfig+0x40>
 8003988:	687b      	ldr	r3, [r7, #4]
 800398a:	4a3d      	ldr	r2, [pc, #244]	; (8003a80 <TIM_Base_SetConfig+0x118>)
 800398c:	4293      	cmp	r3, r2
 800398e:	d00b      	beq.n	80039a8 <TIM_Base_SetConfig+0x40>
 8003990:	687b      	ldr	r3, [r7, #4]
 8003992:	4a3c      	ldr	r2, [pc, #240]	; (8003a84 <TIM_Base_SetConfig+0x11c>)
 8003994:	4293      	cmp	r3, r2
 8003996:	d007      	beq.n	80039a8 <TIM_Base_SetConfig+0x40>
 8003998:	687b      	ldr	r3, [r7, #4]
 800399a:	4a3b      	ldr	r2, [pc, #236]	; (8003a88 <TIM_Base_SetConfig+0x120>)
 800399c:	4293      	cmp	r3, r2
 800399e:	d003      	beq.n	80039a8 <TIM_Base_SetConfig+0x40>
 80039a0:	687b      	ldr	r3, [r7, #4]
 80039a2:	4a3a      	ldr	r2, [pc, #232]	; (8003a8c <TIM_Base_SetConfig+0x124>)
 80039a4:	4293      	cmp	r3, r2
 80039a6:	d108      	bne.n	80039ba <TIM_Base_SetConfig+0x52>
  {
    /* Select the Counter Mode */
    tmpcr1 &= ~(TIM_CR1_DIR | TIM_CR1_CMS);
 80039a8:	68fb      	ldr	r3, [r7, #12]
 80039aa:	f023 0370 	bic.w	r3, r3, #112	; 0x70
 80039ae:	60fb      	str	r3, [r7, #12]
    tmpcr1 |= Structure->CounterMode;
 80039b0:	683b      	ldr	r3, [r7, #0]
 80039b2:	685b      	ldr	r3, [r3, #4]
 80039b4:	68fa      	ldr	r2, [r7, #12]
 80039b6:	4313      	orrs	r3, r2
 80039b8:	60fb      	str	r3, [r7, #12]
  }

  if (IS_TIM_CLOCK_DIVISION_INSTANCE(TIMx))
 80039ba:	687b      	ldr	r3, [r7, #4]
 80039bc:	4a2f      	ldr	r2, [pc, #188]	; (8003a7c <TIM_Base_SetConfig+0x114>)
 80039be:	4293      	cmp	r3, r2
 80039c0:	d02b      	beq.n	8003a1a <TIM_Base_SetConfig+0xb2>
 80039c2:	687b      	ldr	r3, [r7, #4]
 80039c4:	f1b3 4f80 	cmp.w	r3, #1073741824	; 0x40000000
 80039c8:	d027      	beq.n	8003a1a <TIM_Base_SetConfig+0xb2>
 80039ca:	687b      	ldr	r3, [r7, #4]
 80039cc:	4a2c      	ldr	r2, [pc, #176]	; (8003a80 <TIM_Base_SetConfig+0x118>)
 80039ce:	4293      	cmp	r3, r2
 80039d0:	d023      	beq.n	8003a1a <TIM_Base_SetConfig+0xb2>
 80039d2:	687b      	ldr	r3, [r7, #4]
 80039d4:	4a2b      	ldr	r2, [pc, #172]	; (8003a84 <TIM_Base_SetConfig+0x11c>)
 80039d6:	4293      	cmp	r3, r2
 80039d8:	d01f      	beq.n	8003a1a <TIM_Base_SetConfig+0xb2>
 80039da:	687b      	ldr	r3, [r7, #4]
 80039dc:	4a2a      	ldr	r2, [pc, #168]	; (8003a88 <TIM_Base_SetConfig+0x120>)
 80039de:	4293      	cmp	r3, r2
 80039e0:	d01b      	beq.n	8003a1a <TIM_Base_SetConfig+0xb2>
 80039e2:	687b      	ldr	r3, [r7, #4]
 80039e4:	4a29      	ldr	r2, [pc, #164]	; (8003a8c <TIM_Base_SetConfig+0x124>)
 80039e6:	4293      	cmp	r3, r2
 80039e8:	d017      	beq.n	8003a1a <TIM_Base_SetConfig+0xb2>
 80039ea:	687b      	ldr	r3, [r7, #4]
 80039ec:	4a28      	ldr	r2, [pc, #160]	; (8003a90 <TIM_Base_SetConfig+0x128>)
 80039ee:	4293      	cmp	r3, r2
 80039f0:	d013      	beq.n	8003a1a <TIM_Base_SetConfig+0xb2>
 80039f2:	687b      	ldr	r3, [r7, #4]
 80039f4:	4a27      	ldr	r2, [pc, #156]	; (8003a94 <TIM_Base_SetConfig+0x12c>)
 80039f6:	4293      	cmp	r3, r2
 80039f8:	d00f      	beq.n	8003a1a <TIM_Base_SetConfig+0xb2>
 80039fa:	687b      	ldr	r3, [r7, #4]
 80039fc:	4a26      	ldr	r2, [pc, #152]	; (8003a98 <TIM_Base_SetConfig+0x130>)
 80039fe:	4293      	cmp	r3, r2
 8003a00:	d00b      	beq.n	8003a1a <TIM_Base_SetConfig+0xb2>
 8003a02:	687b      	ldr	r3, [r7, #4]
 8003a04:	4a25      	ldr	r2, [pc, #148]	; (8003a9c <TIM_Base_SetConfig+0x134>)
 8003a06:	4293      	cmp	r3, r2
 8003a08:	d007      	beq.n	8003a1a <TIM_Base_SetConfig+0xb2>
 8003a0a:	687b      	ldr	r3, [r7, #4]
 8003a0c:	4a24      	ldr	r2, [pc, #144]	; (8003aa0 <TIM_Base_SetConfig+0x138>)
 8003a0e:	4293      	cmp	r3, r2
 8003a10:	d003      	beq.n	8003a1a <TIM_Base_SetConfig+0xb2>
 8003a12:	687b      	ldr	r3, [r7, #4]
 8003a14:	4a23      	ldr	r2, [pc, #140]	; (8003aa4 <TIM_Base_SetConfig+0x13c>)
 8003a16:	4293      	cmp	r3, r2
 8003a18:	d108      	bne.n	8003a2c <TIM_Base_SetConfig+0xc4>
  {
    /* Set the clock division */
    tmpcr1 &= ~TIM_CR1_CKD;
 8003a1a:	68fb      	ldr	r3, [r7, #12]
 8003a1c:	f423 7340 	bic.w	r3, r3, #768	; 0x300
 8003a20:	60fb      	str	r3, [r7, #12]
    tmpcr1 |= (uint32_t)Structure->ClockDivision;
 8003a22:	683b      	ldr	r3, [r7, #0]
 8003a24:	68db      	ldr	r3, [r3, #12]
 8003a26:	68fa      	ldr	r2, [r7, #12]
 8003a28:	4313      	orrs	r3, r2
 8003a2a:	60fb      	str	r3, [r7, #12]
  }

  /* Set the auto-reload preload */
  MODIFY_REG(tmpcr1, TIM_CR1_ARPE, Structure->AutoReloadPreload);
 8003a2c:	68fb      	ldr	r3, [r7, #12]
 8003a2e:	f023 0280 	bic.w	r2, r3, #128	; 0x80
 8003a32:	683b      	ldr	r3, [r7, #0]
 8003a34:	695b      	ldr	r3, [r3, #20]
 8003a36:	4313      	orrs	r3, r2
 8003a38:	60fb      	str	r3, [r7, #12]

  TIMx->CR1 = tmpcr1;
 8003a3a:	687b      	ldr	r3, [r7, #4]
 8003a3c:	68fa      	ldr	r2, [r7, #12]
 8003a3e:	601a      	str	r2, [r3, #0]

  /* Set the Autoreload value */
  TIMx->ARR = (uint32_t)Structure->Period ;
 8003a40:	683b      	ldr	r3, [r7, #0]
 8003a42:	689a      	ldr	r2, [r3, #8]
 8003a44:	687b      	ldr	r3, [r7, #4]
 8003a46:	62da      	str	r2, [r3, #44]	; 0x2c

  /* Set the Prescaler value */
  TIMx->PSC = Structure->Prescaler;
 8003a48:	683b      	ldr	r3, [r7, #0]
 8003a4a:	681a      	ldr	r2, [r3, #0]
 8003a4c:	687b      	ldr	r3, [r7, #4]
 8003a4e:	629a      	str	r2, [r3, #40]	; 0x28

  if (IS_TIM_REPETITION_COUNTER_INSTANCE(TIMx))
 8003a50:	687b      	ldr	r3, [r7, #4]
 8003a52:	4a0a      	ldr	r2, [pc, #40]	; (8003a7c <TIM_Base_SetConfig+0x114>)
 8003a54:	4293      	cmp	r3, r2
 8003a56:	d003      	beq.n	8003a60 <TIM_Base_SetConfig+0xf8>
 8003a58:	687b      	ldr	r3, [r7, #4]
 8003a5a:	4a0c      	ldr	r2, [pc, #48]	; (8003a8c <TIM_Base_SetConfig+0x124>)
 8003a5c:	4293      	cmp	r3, r2
 8003a5e:	d103      	bne.n	8003a68 <TIM_Base_SetConfig+0x100>
  {
    /* Set the Repetition Counter value */
    TIMx->RCR = Structure->RepetitionCounter;
 8003a60:	683b      	ldr	r3, [r7, #0]
 8003a62:	691a      	ldr	r2, [r3, #16]
 8003a64:	687b      	ldr	r3, [r7, #4]
 8003a66:	631a      	str	r2, [r3, #48]	; 0x30
  }

  /* Generate an update event to reload the Prescaler
     and the repetition counter (only for advanced timer) value immediately */
  TIMx->EGR = TIM_EGR_UG;
 8003a68:	687b      	ldr	r3, [r7, #4]
 8003a6a:	2201      	movs	r2, #1
 8003a6c:	615a      	str	r2, [r3, #20]
}
 8003a6e:	bf00      	nop
 8003a70:	3714      	adds	r7, #20
 8003a72:	46bd      	mov	sp, r7
 8003a74:	f85d 7b04 	ldr.w	r7, [sp], #4
 8003a78:	4770      	bx	lr
 8003a7a:	bf00      	nop
 8003a7c:	40010000 	.word	0x40010000
 8003a80:	40000400 	.word	0x40000400
 8003a84:	40000800 	.word	0x40000800
 8003a88:	40000c00 	.word	0x40000c00
 8003a8c:	40010400 	.word	0x40010400
 8003a90:	40014000 	.word	0x40014000
 8003a94:	40014400 	.word	0x40014400
 8003a98:	40014800 	.word	0x40014800
 8003a9c:	40001800 	.word	0x40001800
 8003aa0:	40001c00 	.word	0x40001c00
 8003aa4:	40002000 	.word	0x40002000

08003aa8 <TIM_TI1_ConfigInputStage>:
  * @param  TIM_ICFilter Specifies the Input Capture Filter.
  *          This parameter must be a value between 0x00 and 0x0F.
  * @retval None
  */
static void TIM_TI1_ConfigInputStage(TIM_TypeDef *TIMx, uint32_t TIM_ICPolarity, uint32_t TIM_ICFilter)
{
 8003aa8:	b480      	push	{r7}
 8003aaa:	b087      	sub	sp, #28
 8003aac:	af00      	add	r7, sp, #0
 8003aae:	60f8      	str	r0, [r7, #12]
 8003ab0:	60b9      	str	r1, [r7, #8]
 8003ab2:	607a      	str	r2, [r7, #4]
  uint32_t tmpccmr1;
  uint32_t tmpccer;

  /* Disable the Channel 1: Reset the CC1E Bit */
  tmpccer = TIMx->CCER;
 8003ab4:	68fb      	ldr	r3, [r7, #12]
 8003ab6:	6a1b      	ldr	r3, [r3, #32]
 8003ab8:	617b      	str	r3, [r7, #20]
  TIMx->CCER &= ~TIM_CCER_CC1E;
 8003aba:	68fb      	ldr	r3, [r7, #12]
 8003abc:	6a1b      	ldr	r3, [r3, #32]
 8003abe:	f023 0201 	bic.w	r2, r3, #1
 8003ac2:	68fb      	ldr	r3, [r7, #12]
 8003ac4:	621a      	str	r2, [r3, #32]
  tmpccmr1 = TIMx->CCMR1;
 8003ac6:	68fb      	ldr	r3, [r7, #12]
 8003ac8:	699b      	ldr	r3, [r3, #24]
 8003aca:	613b      	str	r3, [r7, #16]

  /* Set the filter */
  tmpccmr1 &= ~TIM_CCMR1_IC1F;
 8003acc:	693b      	ldr	r3, [r7, #16]
 8003ace:	f023 03f0 	bic.w	r3, r3, #240	; 0xf0
 8003ad2:	613b      	str	r3, [r7, #16]
  tmpccmr1 |= (TIM_ICFilter << 4U);
 8003ad4:	687b      	ldr	r3, [r7, #4]
 8003ad6:	011b      	lsls	r3, r3, #4
 8003ad8:	693a      	ldr	r2, [r7, #16]
 8003ada:	4313      	orrs	r3, r2
 8003adc:	613b      	str	r3, [r7, #16]

  /* Select the Polarity and set the CC1E Bit */
  tmpccer &= ~(TIM_CCER_CC1P | TIM_CCER_CC1NP);
 8003ade:	697b      	ldr	r3, [r7, #20]
 8003ae0:	f023 030a 	bic.w	r3, r3, #10
 8003ae4:	617b      	str	r3, [r7, #20]
  tmpccer |= TIM_ICPolarity;
 8003ae6:	697a      	ldr	r2, [r7, #20]
 8003ae8:	68bb      	ldr	r3, [r7, #8]
 8003aea:	4313      	orrs	r3, r2
 8003aec:	617b      	str	r3, [r7, #20]

  /* Write to TIMx CCMR1 and CCER registers */
  TIMx->CCMR1 = tmpccmr1;
 8003aee:	68fb      	ldr	r3, [r7, #12]
 8003af0:	693a      	ldr	r2, [r7, #16]
 8003af2:	619a      	str	r2, [r3, #24]
  TIMx->CCER = tmpccer;
 8003af4:	68fb      	ldr	r3, [r7, #12]
 8003af6:	697a      	ldr	r2, [r7, #20]
 8003af8:	621a      	str	r2, [r3, #32]
}
 8003afa:	bf00      	nop
 8003afc:	371c      	adds	r7, #28
 8003afe:	46bd      	mov	sp, r7
 8003b00:	f85d 7b04 	ldr.w	r7, [sp], #4
 8003b04:	4770      	bx	lr

08003b06 <TIM_TI2_ConfigInputStage>:
  * @param  TIM_ICFilter Specifies the Input Capture Filter.
  *          This parameter must be a value between 0x00 and 0x0F.
  * @retval None
  */
static void TIM_TI2_ConfigInputStage(TIM_TypeDef *TIMx, uint32_t TIM_ICPolarity, uint32_t TIM_ICFilter)
{
 8003b06:	b480      	push	{r7}
 8003b08:	b087      	sub	sp, #28
 8003b0a:	af00      	add	r7, sp, #0
 8003b0c:	60f8      	str	r0, [r7, #12]
 8003b0e:	60b9      	str	r1, [r7, #8]
 8003b10:	607a      	str	r2, [r7, #4]
  uint32_t tmpccmr1;
  uint32_t tmpccer;

  /* Disable the Channel 2: Reset the CC2E Bit */
  TIMx->CCER &= ~TIM_CCER_CC2E;
 8003b12:	68fb      	ldr	r3, [r7, #12]
 8003b14:	6a1b      	ldr	r3, [r3, #32]
 8003b16:	f023 0210 	bic.w	r2, r3, #16
 8003b1a:	68fb      	ldr	r3, [r7, #12]
 8003b1c:	621a      	str	r2, [r3, #32]
  tmpccmr1 = TIMx->CCMR1;
 8003b1e:	68fb      	ldr	r3, [r7, #12]
 8003b20:	699b      	ldr	r3, [r3, #24]
 8003b22:	617b      	str	r3, [r7, #20]
  tmpccer = TIMx->CCER;
 8003b24:	68fb      	ldr	r3, [r7, #12]
 8003b26:	6a1b      	ldr	r3, [r3, #32]
 8003b28:	613b      	str	r3, [r7, #16]

  /* Set the filter */
  tmpccmr1 &= ~TIM_CCMR1_IC2F;
 8003b2a:	697b      	ldr	r3, [r7, #20]
 8003b2c:	f423 4370 	bic.w	r3, r3, #61440	; 0xf000
 8003b30:	617b      	str	r3, [r7, #20]
  tmpccmr1 |= (TIM_ICFilter << 12U);
 8003b32:	687b      	ldr	r3, [r7, #4]
 8003b34:	031b      	lsls	r3, r3, #12
 8003b36:	697a      	ldr	r2, [r7, #20]
 8003b38:	4313      	orrs	r3, r2
 8003b3a:	617b      	str	r3, [r7, #20]

  /* Select the Polarity and set the CC2E Bit */
  tmpccer &= ~(TIM_CCER_CC2P | TIM_CCER_CC2NP);
 8003b3c:	693b      	ldr	r3, [r7, #16]
 8003b3e:	f023 03a0 	bic.w	r3, r3, #160	; 0xa0
 8003b42:	613b      	str	r3, [r7, #16]
  tmpccer |= (TIM_ICPolarity << 4U);
 8003b44:	68bb      	ldr	r3, [r7, #8]
 8003b46:	011b      	lsls	r3, r3, #4
 8003b48:	693a      	ldr	r2, [r7, #16]
 8003b4a:	4313      	orrs	r3, r2
 8003b4c:	613b      	str	r3, [r7, #16]

  /* Write to TIMx CCMR1 and CCER registers */
  TIMx->CCMR1 = tmpccmr1 ;
 8003b4e:	68fb      	ldr	r3, [r7, #12]
 8003b50:	697a      	ldr	r2, [r7, #20]
 8003b52:	619a      	str	r2, [r3, #24]
  TIMx->CCER = tmpccer;
 8003b54:	68fb      	ldr	r3, [r7, #12]
 8003b56:	693a      	ldr	r2, [r7, #16]
 8003b58:	621a      	str	r2, [r3, #32]
}
 8003b5a:	bf00      	nop
 8003b5c:	371c      	adds	r7, #28
 8003b5e:	46bd      	mov	sp, r7
 8003b60:	f85d 7b04 	ldr.w	r7, [sp], #4
 8003b64:	4770      	bx	lr

08003b66 <TIM_ITRx_SetConfig>:
  *            @arg TIM_TS_TI2FP2: Filtered Timer Input 2
  *            @arg TIM_TS_ETRF: External Trigger input
  * @retval None
  */
static void TIM_ITRx_SetConfig(TIM_TypeDef *TIMx, uint32_t InputTriggerSource)
{
 8003b66:	b480      	push	{r7}
 8003b68:	b085      	sub	sp, #20
 8003b6a:	af00      	add	r7, sp, #0
 8003b6c:	6078      	str	r0, [r7, #4]
 8003b6e:	6039      	str	r1, [r7, #0]
  uint32_t tmpsmcr;

  /* Get the TIMx SMCR register value */
  tmpsmcr = TIMx->SMCR;
 8003b70:	687b      	ldr	r3, [r7, #4]
 8003b72:	689b      	ldr	r3, [r3, #8]
 8003b74:	60fb      	str	r3, [r7, #12]
  /* Reset the TS Bits */
  tmpsmcr &= ~TIM_SMCR_TS;
 8003b76:	68fb      	ldr	r3, [r7, #12]
 8003b78:	f023 0370 	bic.w	r3, r3, #112	; 0x70
 8003b7c:	60fb      	str	r3, [r7, #12]
  /* Set the Input Trigger source and the slave mode*/
  tmpsmcr |= (InputTriggerSource | TIM_SLAVEMODE_EXTERNAL1);
 8003b7e:	683a      	ldr	r2, [r7, #0]
 8003b80:	68fb      	ldr	r3, [r7, #12]
 8003b82:	4313      	orrs	r3, r2
 8003b84:	f043 0307 	orr.w	r3, r3, #7
 8003b88:	60fb      	str	r3, [r7, #12]
  /* Write to TIMx SMCR */
  TIMx->SMCR = tmpsmcr;
 8003b8a:	687b      	ldr	r3, [r7, #4]
 8003b8c:	68fa      	ldr	r2, [r7, #12]
 8003b8e:	609a      	str	r2, [r3, #8]
}
 8003b90:	bf00      	nop
 8003b92:	3714      	adds	r7, #20
 8003b94:	46bd      	mov	sp, r7
 8003b96:	f85d 7b04 	ldr.w	r7, [sp], #4
 8003b9a:	4770      	bx	lr

08003b9c <TIM_ETR_SetConfig>:
  *          This parameter must be a value between 0x00 and 0x0F
  * @retval None
  */
void TIM_ETR_SetConfig(TIM_TypeDef *TIMx, uint32_t TIM_ExtTRGPrescaler,
                       uint32_t TIM_ExtTRGPolarity, uint32_t ExtTRGFilter)
{
 8003b9c:	b480      	push	{r7}
 8003b9e:	b087      	sub	sp, #28
 8003ba0:	af00      	add	r7, sp, #0
 8003ba2:	60f8      	str	r0, [r7, #12]
 8003ba4:	60b9      	str	r1, [r7, #8]
 8003ba6:	607a      	str	r2, [r7, #4]
 8003ba8:	603b      	str	r3, [r7, #0]
  uint32_t tmpsmcr;

  tmpsmcr = TIMx->SMCR;
 8003baa:	68fb      	ldr	r3, [r7, #12]
 8003bac:	689b      	ldr	r3, [r3, #8]
 8003bae:	617b      	str	r3, [r7, #20]

  /* Reset the ETR Bits */
  tmpsmcr &= ~(TIM_SMCR_ETF | TIM_SMCR_ETPS | TIM_SMCR_ECE | TIM_SMCR_ETP);
 8003bb0:	697b      	ldr	r3, [r7, #20]
 8003bb2:	f423 437f 	bic.w	r3, r3, #65280	; 0xff00
 8003bb6:	617b      	str	r3, [r7, #20]

  /* Set the Prescaler, the Filter value and the Polarity */
  tmpsmcr |= (uint32_t)(TIM_ExtTRGPrescaler | (TIM_ExtTRGPolarity | (ExtTRGFilter << 8U)));
 8003bb8:	683b      	ldr	r3, [r7, #0]
 8003bba:	021a      	lsls	r2, r3, #8
 8003bbc:	687b      	ldr	r3, [r7, #4]
 8003bbe:	431a      	orrs	r2, r3
 8003bc0:	68bb      	ldr	r3, [r7, #8]
 8003bc2:	4313      	orrs	r3, r2
 8003bc4:	697a      	ldr	r2, [r7, #20]
 8003bc6:	4313      	orrs	r3, r2
 8003bc8:	617b      	str	r3, [r7, #20]

  /* Write to TIMx SMCR */
  TIMx->SMCR = tmpsmcr;
 8003bca:	68fb      	ldr	r3, [r7, #12]
 8003bcc:	697a      	ldr	r2, [r7, #20]
 8003bce:	609a      	str	r2, [r3, #8]
}
 8003bd0:	bf00      	nop
 8003bd2:	371c      	adds	r7, #28
 8003bd4:	46bd      	mov	sp, r7
 8003bd6:	f85d 7b04 	ldr.w	r7, [sp], #4
 8003bda:	4770      	bx	lr

08003bdc <HAL_TIMEx_MasterConfigSynchronization>:
  *         mode.
  * @retval HAL status
  */
HAL_StatusTypeDef HAL_TIMEx_MasterConfigSynchronization(TIM_HandleTypeDef *htim,
                                                        TIM_MasterConfigTypeDef *sMasterConfig)
{
 8003bdc:	b480      	push	{r7}
 8003bde:	b085      	sub	sp, #20
 8003be0:	af00      	add	r7, sp, #0
 8003be2:	6078      	str	r0, [r7, #4]
 8003be4:	6039      	str	r1, [r7, #0]
  assert_param(IS_TIM_MASTER_INSTANCE(htim->Instance));
  assert_param(IS_TIM_TRGO_SOURCE(sMasterConfig->MasterOutputTrigger));
  assert_param(IS_TIM_MSM_STATE(sMasterConfig->MasterSlaveMode));

  /* Check input state */
  __HAL_LOCK(htim);
 8003be6:	687b      	ldr	r3, [r7, #4]
 8003be8:	f893 303c 	ldrb.w	r3, [r3, #60]	; 0x3c
 8003bec:	2b01      	cmp	r3, #1
 8003bee:	d101      	bne.n	8003bf4 <HAL_TIMEx_MasterConfigSynchronization+0x18>
 8003bf0:	2302      	movs	r3, #2
 8003bf2:	e05a      	b.n	8003caa <HAL_TIMEx_MasterConfigSynchronization+0xce>
 8003bf4:	687b      	ldr	r3, [r7, #4]
 8003bf6:	2201      	movs	r2, #1
 8003bf8:	f883 203c 	strb.w	r2, [r3, #60]	; 0x3c

  /* Change the handler state */
  htim->State = HAL_TIM_STATE_BUSY;
 8003bfc:	687b      	ldr	r3, [r7, #4]
 8003bfe:	2202      	movs	r2, #2
 8003c00:	f883 203d 	strb.w	r2, [r3, #61]	; 0x3d

  /* Get the TIMx CR2 register value */
  tmpcr2 = htim->Instance->CR2;
 8003c04:	687b      	ldr	r3, [r7, #4]
 8003c06:	681b      	ldr	r3, [r3, #0]
 8003c08:	685b      	ldr	r3, [r3, #4]
 8003c0a:	60fb      	str	r3, [r7, #12]

  /* Get the TIMx SMCR register value */
  tmpsmcr = htim->Instance->SMCR;
 8003c0c:	687b      	ldr	r3, [r7, #4]
 8003c0e:	681b      	ldr	r3, [r3, #0]
 8003c10:	689b      	ldr	r3, [r3, #8]
 8003c12:	60bb      	str	r3, [r7, #8]

  /* Reset the MMS Bits */
  tmpcr2 &= ~TIM_CR2_MMS;
 8003c14:	68fb      	ldr	r3, [r7, #12]
 8003c16:	f023 0370 	bic.w	r3, r3, #112	; 0x70
 8003c1a:	60fb      	str	r3, [r7, #12]
  /* Select the TRGO source */
  tmpcr2 |=  sMasterConfig->MasterOutputTrigger;
 8003c1c:	683b      	ldr	r3, [r7, #0]
 8003c1e:	681b      	ldr	r3, [r3, #0]
 8003c20:	68fa      	ldr	r2, [r7, #12]
 8003c22:	4313      	orrs	r3, r2
 8003c24:	60fb      	str	r3, [r7, #12]

  /* Update TIMx CR2 */
  htim->Instance->CR2 = tmpcr2;
 8003c26:	687b      	ldr	r3, [r7, #4]
 8003c28:	681b      	ldr	r3, [r3, #0]
 8003c2a:	68fa      	ldr	r2, [r7, #12]
 8003c2c:	605a      	str	r2, [r3, #4]

  if (IS_TIM_SLAVE_INSTANCE(htim->Instance))
 8003c2e:	687b      	ldr	r3, [r7, #4]
 8003c30:	681b      	ldr	r3, [r3, #0]
 8003c32:	4a21      	ldr	r2, [pc, #132]	; (8003cb8 <HAL_TIMEx_MasterConfigSynchronization+0xdc>)
 8003c34:	4293      	cmp	r3, r2
 8003c36:	d022      	beq.n	8003c7e <HAL_TIMEx_MasterConfigSynchronization+0xa2>
 8003c38:	687b      	ldr	r3, [r7, #4]
 8003c3a:	681b      	ldr	r3, [r3, #0]
 8003c3c:	f1b3 4f80 	cmp.w	r3, #1073741824	; 0x40000000
 8003c40:	d01d      	beq.n	8003c7e <HAL_TIMEx_MasterConfigSynchronization+0xa2>
 8003c42:	687b      	ldr	r3, [r7, #4]
 8003c44:	681b      	ldr	r3, [r3, #0]
 8003c46:	4a1d      	ldr	r2, [pc, #116]	; (8003cbc <HAL_TIMEx_MasterConfigSynchronization+0xe0>)
 8003c48:	4293      	cmp	r3, r2
 8003c4a:	d018      	beq.n	8003c7e <HAL_TIMEx_MasterConfigSynchronization+0xa2>
 8003c4c:	687b      	ldr	r3, [r7, #4]
 8003c4e:	681b      	ldr	r3, [r3, #0]
 8003c50:	4a1b      	ldr	r2, [pc, #108]	; (8003cc0 <HAL_TIMEx_MasterConfigSynchronization+0xe4>)
 8003c52:	4293      	cmp	r3, r2
 8003c54:	d013      	beq.n	8003c7e <HAL_TIMEx_MasterConfigSynchronization+0xa2>
 8003c56:	687b      	ldr	r3, [r7, #4]
 8003c58:	681b      	ldr	r3, [r3, #0]
 8003c5a:	4a1a      	ldr	r2, [pc, #104]	; (8003cc4 <HAL_TIMEx_MasterConfigSynchronization+0xe8>)
 8003c5c:	4293      	cmp	r3, r2
 8003c5e:	d00e      	beq.n	8003c7e <HAL_TIMEx_MasterConfigSynchronization+0xa2>
 8003c60:	687b      	ldr	r3, [r7, #4]
 8003c62:	681b      	ldr	r3, [r3, #0]
 8003c64:	4a18      	ldr	r2, [pc, #96]	; (8003cc8 <HAL_TIMEx_MasterConfigSynchronization+0xec>)
 8003c66:	4293      	cmp	r3, r2
 8003c68:	d009      	beq.n	8003c7e <HAL_TIMEx_MasterConfigSynchronization+0xa2>
 8003c6a:	687b      	ldr	r3, [r7, #4]
 8003c6c:	681b      	ldr	r3, [r3, #0]
 8003c6e:	4a17      	ldr	r2, [pc, #92]	; (8003ccc <HAL_TIMEx_MasterConfigSynchronization+0xf0>)
 8003c70:	4293      	cmp	r3, r2
 8003c72:	d004      	beq.n	8003c7e <HAL_TIMEx_MasterConfigSynchronization+0xa2>
 8003c74:	687b      	ldr	r3, [r7, #4]
 8003c76:	681b      	ldr	r3, [r3, #0]
 8003c78:	4a15      	ldr	r2, [pc, #84]	; (8003cd0 <HAL_TIMEx_MasterConfigSynchronization+0xf4>)
 8003c7a:	4293      	cmp	r3, r2
 8003c7c:	d10c      	bne.n	8003c98 <HAL_TIMEx_MasterConfigSynchronization+0xbc>
  {
    /* Reset the MSM Bit */
    tmpsmcr &= ~TIM_SMCR_MSM;
 8003c7e:	68bb      	ldr	r3, [r7, #8]
 8003c80:	f023 0380 	bic.w	r3, r3, #128	; 0x80
 8003c84:	60bb      	str	r3, [r7, #8]
    /* Set master mode */
    tmpsmcr |= sMasterConfig->MasterSlaveMode;
 8003c86:	683b      	ldr	r3, [r7, #0]
 8003c88:	685b      	ldr	r3, [r3, #4]
 8003c8a:	68ba      	ldr	r2, [r7, #8]
 8003c8c:	4313      	orrs	r3, r2
 8003c8e:	60bb      	str	r3, [r7, #8]

    /* Update TIMx SMCR */
    htim->Instance->SMCR = tmpsmcr;
 8003c90:	687b      	ldr	r3, [r7, #4]
 8003c92:	681b      	ldr	r3, [r3, #0]
 8003c94:	68ba      	ldr	r2, [r7, #8]
 8003c96:	609a      	str	r2, [r3, #8]
  }

  /* Change the htim state */
  htim->State = HAL_TIM_STATE_READY;
 8003c98:	687b      	ldr	r3, [r7, #4]
 8003c9a:	2201      	movs	r2, #1
 8003c9c:	f883 203d 	strb.w	r2, [r3, #61]	; 0x3d

  __HAL_UNLOCK(htim);
 8003ca0:	687b      	ldr	r3, [r7, #4]
 8003ca2:	2200      	movs	r2, #0
 8003ca4:	f883 203c 	strb.w	r2, [r3, #60]	; 0x3c

  return HAL_OK;
 8003ca8:	2300      	movs	r3, #0
}
 8003caa:	4618      	mov	r0, r3
 8003cac:	3714      	adds	r7, #20
 8003cae:	46bd      	mov	sp, r7
 8003cb0:	f85d 7b04 	ldr.w	r7, [sp], #4
 8003cb4:	4770      	bx	lr
 8003cb6:	bf00      	nop
 8003cb8:	40010000 	.word	0x40010000
 8003cbc:	40000400 	.word	0x40000400
 8003cc0:	40000800 	.word	0x40000800
 8003cc4:	40000c00 	.word	0x40000c00
 8003cc8:	40010400 	.word	0x40010400
 8003ccc:	40014000 	.word	0x40014000
 8003cd0:	40001800 	.word	0x40001800

08003cd4 <HAL_UART_Init>:
  * @param  huart  Pointer to a UART_HandleTypeDef structure that contains
  *                the configuration information for the specified UART module.
  * @retval HAL status
  */
HAL_StatusTypeDef HAL_UART_Init(UART_HandleTypeDef *huart)
{
 8003cd4:	b580      	push	{r7, lr}
 8003cd6:	b082      	sub	sp, #8
 8003cd8:	af00      	add	r7, sp, #0
 8003cda:	6078      	str	r0, [r7, #4]
  /* Check the UART handle allocation */
  if (huart == NULL)
 8003cdc:	687b      	ldr	r3, [r7, #4]
 8003cde:	2b00      	cmp	r3, #0
 8003ce0:	d101      	bne.n	8003ce6 <HAL_UART_Init+0x12>
  {
    return HAL_ERROR;
 8003ce2:	2301      	movs	r3, #1
 8003ce4:	e03f      	b.n	8003d66 <HAL_UART_Init+0x92>
    assert_param(IS_UART_INSTANCE(huart->Instance));
  }
  assert_param(IS_UART_WORD_LENGTH(huart->Init.WordLength));
  assert_param(IS_UART_OVERSAMPLING(huart->Init.OverSampling));

  if (huart->gState == HAL_UART_STATE_RESET)
 8003ce6:	687b      	ldr	r3, [r7, #4]
 8003ce8:	f893 3039 	ldrb.w	r3, [r3, #57]	; 0x39
 8003cec:	b2db      	uxtb	r3, r3
 8003cee:	2b00      	cmp	r3, #0
 8003cf0:	d106      	bne.n	8003d00 <HAL_UART_Init+0x2c>
  {
    /* Allocate lock resource and initialize it */
    huart->Lock = HAL_UNLOCKED;
 8003cf2:	687b      	ldr	r3, [r7, #4]
 8003cf4:	2200      	movs	r2, #0
 8003cf6:	f883 2038 	strb.w	r2, [r3, #56]	; 0x38

    /* Init the low level hardware */
    huart->MspInitCallback(huart);
#else
    /* Init the low level hardware : GPIO, CLOCK */
    HAL_UART_MspInit(huart);
 8003cfa:	6878      	ldr	r0, [r7, #4]
 8003cfc:	f7fd fd9a 	bl	8001834 <HAL_UART_MspInit>
#endif /* (USE_HAL_UART_REGISTER_CALLBACKS) */
  }

  huart->gState = HAL_UART_STATE_BUSY;
 8003d00:	687b      	ldr	r3, [r7, #4]
 8003d02:	2224      	movs	r2, #36	; 0x24
 8003d04:	f883 2039 	strb.w	r2, [r3, #57]	; 0x39

  /* Disable the peripheral */
  __HAL_UART_DISABLE(huart);
 8003d08:	687b      	ldr	r3, [r7, #4]
 8003d0a:	681b      	ldr	r3, [r3, #0]
 8003d0c:	68da      	ldr	r2, [r3, #12]
 8003d0e:	687b      	ldr	r3, [r7, #4]
 8003d10:	681b      	ldr	r3, [r3, #0]
 8003d12:	f422 5200 	bic.w	r2, r2, #8192	; 0x2000
 8003d16:	60da      	str	r2, [r3, #12]

  /* Set the UART Communication parameters */
  UART_SetConfig(huart);
 8003d18:	6878      	ldr	r0, [r7, #4]
 8003d1a:	f000 f90b 	bl	8003f34 <UART_SetConfig>

  /* In asynchronous mode, the following bits must be kept cleared:
     - LINEN and CLKEN bits in the USART_CR2 register,
     - SCEN, HDSEL and IREN  bits in the USART_CR3 register.*/
  CLEAR_BIT(huart->Instance->CR2, (USART_CR2_LINEN | USART_CR2_CLKEN));
 8003d1e:	687b      	ldr	r3, [r7, #4]
 8003d20:	681b      	ldr	r3, [r3, #0]
 8003d22:	691a      	ldr	r2, [r3, #16]
 8003d24:	687b      	ldr	r3, [r7, #4]
 8003d26:	681b      	ldr	r3, [r3, #0]
 8003d28:	f422 4290 	bic.w	r2, r2, #18432	; 0x4800
 8003d2c:	611a      	str	r2, [r3, #16]
  CLEAR_BIT(huart->Instance->CR3, (USART_CR3_SCEN | USART_CR3_HDSEL | USART_CR3_IREN));
 8003d2e:	687b      	ldr	r3, [r7, #4]
 8003d30:	681b      	ldr	r3, [r3, #0]
 8003d32:	695a      	ldr	r2, [r3, #20]
 8003d34:	687b      	ldr	r3, [r7, #4]
 8003d36:	681b      	ldr	r3, [r3, #0]
 8003d38:	f022 022a 	bic.w	r2, r2, #42	; 0x2a
 8003d3c:	615a      	str	r2, [r3, #20]

  /* Enable the peripheral */
  __HAL_UART_ENABLE(huart);
 8003d3e:	687b      	ldr	r3, [r7, #4]
 8003d40:	681b      	ldr	r3, [r3, #0]
 8003d42:	68da      	ldr	r2, [r3, #12]
 8003d44:	687b      	ldr	r3, [r7, #4]
 8003d46:	681b      	ldr	r3, [r3, #0]
 8003d48:	f442 5200 	orr.w	r2, r2, #8192	; 0x2000
 8003d4c:	60da      	str	r2, [r3, #12]

  /* Initialize the UART state */
  huart->ErrorCode = HAL_UART_ERROR_NONE;
 8003d4e:	687b      	ldr	r3, [r7, #4]
 8003d50:	2200      	movs	r2, #0
 8003d52:	63da      	str	r2, [r3, #60]	; 0x3c
  huart->gState = HAL_UART_STATE_READY;
 8003d54:	687b      	ldr	r3, [r7, #4]
 8003d56:	2220      	movs	r2, #32
 8003d58:	f883 2039 	strb.w	r2, [r3, #57]	; 0x39
  huart->RxState = HAL_UART_STATE_READY;
 8003d5c:	687b      	ldr	r3, [r7, #4]
 8003d5e:	2220      	movs	r2, #32
 8003d60:	f883 203a 	strb.w	r2, [r3, #58]	; 0x3a

  return HAL_OK;
 8003d64:	2300      	movs	r3, #0
}
 8003d66:	4618      	mov	r0, r3
 8003d68:	3708      	adds	r7, #8
 8003d6a:	46bd      	mov	sp, r7
 8003d6c:	bd80      	pop	{r7, pc}

08003d6e <HAL_UART_Transmit>:
  * @param  Size  Amount of data elements (u8 or u16) to be sent
  * @param  Timeout Timeout duration
  * @retval HAL status
  */
HAL_StatusTypeDef HAL_UART_Transmit(UART_HandleTypeDef *huart, uint8_t *pData, uint16_t Size, uint32_t Timeout)
{
 8003d6e:	b580      	push	{r7, lr}
 8003d70:	b088      	sub	sp, #32
 8003d72:	af02      	add	r7, sp, #8
 8003d74:	60f8      	str	r0, [r7, #12]
 8003d76:	60b9      	str	r1, [r7, #8]
 8003d78:	603b      	str	r3, [r7, #0]
 8003d7a:	4613      	mov	r3, r2
 8003d7c:	80fb      	strh	r3, [r7, #6]
  uint16_t *tmp;
  uint32_t tickstart = 0U;
 8003d7e:	2300      	movs	r3, #0
 8003d80:	617b      	str	r3, [r7, #20]

  /* Check that a Tx process is not already ongoing */
  if (huart->gState == HAL_UART_STATE_READY)
 8003d82:	68fb      	ldr	r3, [r7, #12]
 8003d84:	f893 3039 	ldrb.w	r3, [r3, #57]	; 0x39
 8003d88:	b2db      	uxtb	r3, r3
 8003d8a:	2b20      	cmp	r3, #32
 8003d8c:	f040 8083 	bne.w	8003e96 <HAL_UART_Transmit+0x128>
  {
    if ((pData == NULL) || (Size == 0U))
 8003d90:	68bb      	ldr	r3, [r7, #8]
 8003d92:	2b00      	cmp	r3, #0
 8003d94:	d002      	beq.n	8003d9c <HAL_UART_Transmit+0x2e>
 8003d96:	88fb      	ldrh	r3, [r7, #6]
 8003d98:	2b00      	cmp	r3, #0
 8003d9a:	d101      	bne.n	8003da0 <HAL_UART_Transmit+0x32>
    {
      return  HAL_ERROR;
 8003d9c:	2301      	movs	r3, #1
 8003d9e:	e07b      	b.n	8003e98 <HAL_UART_Transmit+0x12a>
    }

    /* Process Locked */
    __HAL_LOCK(huart);
 8003da0:	68fb      	ldr	r3, [r7, #12]
 8003da2:	f893 3038 	ldrb.w	r3, [r3, #56]	; 0x38
 8003da6:	2b01      	cmp	r3, #1
 8003da8:	d101      	bne.n	8003dae <HAL_UART_Transmit+0x40>
 8003daa:	2302      	movs	r3, #2
 8003dac:	e074      	b.n	8003e98 <HAL_UART_Transmit+0x12a>
 8003dae:	68fb      	ldr	r3, [r7, #12]
 8003db0:	2201      	movs	r2, #1
 8003db2:	f883 2038 	strb.w	r2, [r3, #56]	; 0x38

    huart->ErrorCode = HAL_UART_ERROR_NONE;
 8003db6:	68fb      	ldr	r3, [r7, #12]
 8003db8:	2200      	movs	r2, #0
 8003dba:	63da      	str	r2, [r3, #60]	; 0x3c
    huart->gState = HAL_UART_STATE_BUSY_TX;
 8003dbc:	68fb      	ldr	r3, [r7, #12]
 8003dbe:	2221      	movs	r2, #33	; 0x21
 8003dc0:	f883 2039 	strb.w	r2, [r3, #57]	; 0x39

    /* Init tickstart for timeout managment */
    tickstart = HAL_GetTick();
 8003dc4:	f7fd ff1e 	bl	8001c04 <HAL_GetTick>
 8003dc8:	6178      	str	r0, [r7, #20]

    huart->TxXferSize = Size;
 8003dca:	68fb      	ldr	r3, [r7, #12]
 8003dcc:	88fa      	ldrh	r2, [r7, #6]
 8003dce:	849a      	strh	r2, [r3, #36]	; 0x24
    huart->TxXferCount = Size;
 8003dd0:	68fb      	ldr	r3, [r7, #12]
 8003dd2:	88fa      	ldrh	r2, [r7, #6]
 8003dd4:	84da      	strh	r2, [r3, #38]	; 0x26

    /* Process Unlocked */
    __HAL_UNLOCK(huart);
 8003dd6:	68fb      	ldr	r3, [r7, #12]
 8003dd8:	2200      	movs	r2, #0
 8003dda:	f883 2038 	strb.w	r2, [r3, #56]	; 0x38

    while (huart->TxXferCount > 0U)
 8003dde:	e042      	b.n	8003e66 <HAL_UART_Transmit+0xf8>
    {
      huart->TxXferCount--;
 8003de0:	68fb      	ldr	r3, [r7, #12]
 8003de2:	8cdb      	ldrh	r3, [r3, #38]	; 0x26
 8003de4:	b29b      	uxth	r3, r3
 8003de6:	3b01      	subs	r3, #1
 8003de8:	b29a      	uxth	r2, r3
 8003dea:	68fb      	ldr	r3, [r7, #12]
 8003dec:	84da      	strh	r2, [r3, #38]	; 0x26
      if (huart->Init.WordLength == UART_WORDLENGTH_9B)
 8003dee:	68fb      	ldr	r3, [r7, #12]
 8003df0:	689b      	ldr	r3, [r3, #8]
 8003df2:	f5b3 5f80 	cmp.w	r3, #4096	; 0x1000
 8003df6:	d122      	bne.n	8003e3e <HAL_UART_Transmit+0xd0>
      {
        if (UART_WaitOnFlagUntilTimeout(huart, UART_FLAG_TXE, RESET, tickstart, Timeout) != HAL_OK)
 8003df8:	683b      	ldr	r3, [r7, #0]
 8003dfa:	9300      	str	r3, [sp, #0]
 8003dfc:	697b      	ldr	r3, [r7, #20]
 8003dfe:	2200      	movs	r2, #0
 8003e00:	2180      	movs	r1, #128	; 0x80
 8003e02:	68f8      	ldr	r0, [r7, #12]
 8003e04:	f000 f84c 	bl	8003ea0 <UART_WaitOnFlagUntilTimeout>
 8003e08:	4603      	mov	r3, r0
 8003e0a:	2b00      	cmp	r3, #0
 8003e0c:	d001      	beq.n	8003e12 <HAL_UART_Transmit+0xa4>
        {
          return HAL_TIMEOUT;
 8003e0e:	2303      	movs	r3, #3
 8003e10:	e042      	b.n	8003e98 <HAL_UART_Transmit+0x12a>
        }
        tmp = (uint16_t *) pData;
 8003e12:	68bb      	ldr	r3, [r7, #8]
 8003e14:	613b      	str	r3, [r7, #16]
        huart->Instance->DR = (*tmp & (uint16_t)0x01FF);
 8003e16:	693b      	ldr	r3, [r7, #16]
 8003e18:	881b      	ldrh	r3, [r3, #0]
 8003e1a:	461a      	mov	r2, r3
 8003e1c:	68fb      	ldr	r3, [r7, #12]
 8003e1e:	681b      	ldr	r3, [r3, #0]
 8003e20:	f3c2 0208 	ubfx	r2, r2, #0, #9
 8003e24:	605a      	str	r2, [r3, #4]
        if (huart->Init.Parity == UART_PARITY_NONE)
 8003e26:	68fb      	ldr	r3, [r7, #12]
 8003e28:	691b      	ldr	r3, [r3, #16]
 8003e2a:	2b00      	cmp	r3, #0
 8003e2c:	d103      	bne.n	8003e36 <HAL_UART_Transmit+0xc8>
        {
          pData += 2U;
 8003e2e:	68bb      	ldr	r3, [r7, #8]
 8003e30:	3302      	adds	r3, #2
 8003e32:	60bb      	str	r3, [r7, #8]
 8003e34:	e017      	b.n	8003e66 <HAL_UART_Transmit+0xf8>
        }
        else
        {
          pData += 1U;
 8003e36:	68bb      	ldr	r3, [r7, #8]
 8003e38:	3301      	adds	r3, #1
 8003e3a:	60bb      	str	r3, [r7, #8]
 8003e3c:	e013      	b.n	8003e66 <HAL_UART_Transmit+0xf8>
        }
      }
      else
      {
        if (UART_WaitOnFlagUntilTimeout(huart, UART_FLAG_TXE, RESET, tickstart, Timeout) != HAL_OK)
 8003e3e:	683b      	ldr	r3, [r7, #0]
 8003e40:	9300      	str	r3, [sp, #0]
 8003e42:	697b      	ldr	r3, [r7, #20]
 8003e44:	2200      	movs	r2, #0
 8003e46:	2180      	movs	r1, #128	; 0x80
 8003e48:	68f8      	ldr	r0, [r7, #12]
 8003e4a:	f000 f829 	bl	8003ea0 <UART_WaitOnFlagUntilTimeout>
 8003e4e:	4603      	mov	r3, r0
 8003e50:	2b00      	cmp	r3, #0
 8003e52:	d001      	beq.n	8003e58 <HAL_UART_Transmit+0xea>
        {
          return HAL_TIMEOUT;
 8003e54:	2303      	movs	r3, #3
 8003e56:	e01f      	b.n	8003e98 <HAL_UART_Transmit+0x12a>
        }
        huart->Instance->DR = (*pData++ & (uint8_t)0xFF);
 8003e58:	68bb      	ldr	r3, [r7, #8]
 8003e5a:	1c5a      	adds	r2, r3, #1
 8003e5c:	60ba      	str	r2, [r7, #8]
 8003e5e:	781a      	ldrb	r2, [r3, #0]
 8003e60:	68fb      	ldr	r3, [r7, #12]
 8003e62:	681b      	ldr	r3, [r3, #0]
 8003e64:	605a      	str	r2, [r3, #4]
    while (huart->TxXferCount > 0U)
 8003e66:	68fb      	ldr	r3, [r7, #12]
 8003e68:	8cdb      	ldrh	r3, [r3, #38]	; 0x26
 8003e6a:	b29b      	uxth	r3, r3
 8003e6c:	2b00      	cmp	r3, #0
 8003e6e:	d1b7      	bne.n	8003de0 <HAL_UART_Transmit+0x72>
      }
    }

    if (UART_WaitOnFlagUntilTimeout(huart, UART_FLAG_TC, RESET, tickstart, Timeout) != HAL_OK)
 8003e70:	683b      	ldr	r3, [r7, #0]
 8003e72:	9300      	str	r3, [sp, #0]
 8003e74:	697b      	ldr	r3, [r7, #20]
 8003e76:	2200      	movs	r2, #0
 8003e78:	2140      	movs	r1, #64	; 0x40
 8003e7a:	68f8      	ldr	r0, [r7, #12]
 8003e7c:	f000 f810 	bl	8003ea0 <UART_WaitOnFlagUntilTimeout>
 8003e80:	4603      	mov	r3, r0
 8003e82:	2b00      	cmp	r3, #0
 8003e84:	d001      	beq.n	8003e8a <HAL_UART_Transmit+0x11c>
    {
      return HAL_TIMEOUT;
 8003e86:	2303      	movs	r3, #3
 8003e88:	e006      	b.n	8003e98 <HAL_UART_Transmit+0x12a>
    }

    /* At end of Tx process, restore huart->gState to Ready */
    huart->gState = HAL_UART_STATE_READY;
 8003e8a:	68fb      	ldr	r3, [r7, #12]
 8003e8c:	2220      	movs	r2, #32
 8003e8e:	f883 2039 	strb.w	r2, [r3, #57]	; 0x39

    return HAL_OK;
 8003e92:	2300      	movs	r3, #0
 8003e94:	e000      	b.n	8003e98 <HAL_UART_Transmit+0x12a>
  }
  else
  {
    return HAL_BUSY;
 8003e96:	2302      	movs	r3, #2
  }
}
 8003e98:	4618      	mov	r0, r3
 8003e9a:	3718      	adds	r7, #24
 8003e9c:	46bd      	mov	sp, r7
 8003e9e:	bd80      	pop	{r7, pc}

08003ea0 <UART_WaitOnFlagUntilTimeout>:
  * @param  Tickstart Tick start value
  * @param  Timeout Timeout duration
  * @retval HAL status
  */
static HAL_StatusTypeDef UART_WaitOnFlagUntilTimeout(UART_HandleTypeDef *huart, uint32_t Flag, FlagStatus Status, uint32_t Tickstart, uint32_t Timeout)
{
 8003ea0:	b580      	push	{r7, lr}
 8003ea2:	b084      	sub	sp, #16
 8003ea4:	af00      	add	r7, sp, #0
 8003ea6:	60f8      	str	r0, [r7, #12]
 8003ea8:	60b9      	str	r1, [r7, #8]
 8003eaa:	603b      	str	r3, [r7, #0]
 8003eac:	4613      	mov	r3, r2
 8003eae:	71fb      	strb	r3, [r7, #7]
  /* Wait until flag is set */
  while ((__HAL_UART_GET_FLAG(huart, Flag) ? SET : RESET) == Status)
 8003eb0:	e02c      	b.n	8003f0c <UART_WaitOnFlagUntilTimeout+0x6c>
  {
    /* Check for the Timeout */
    if (Timeout != HAL_MAX_DELAY)
 8003eb2:	69bb      	ldr	r3, [r7, #24]
 8003eb4:	f1b3 3fff 	cmp.w	r3, #4294967295
 8003eb8:	d028      	beq.n	8003f0c <UART_WaitOnFlagUntilTimeout+0x6c>
    {
      if ((Timeout == 0U) || ((HAL_GetTick() - Tickstart) > Timeout))
 8003eba:	69bb      	ldr	r3, [r7, #24]
 8003ebc:	2b00      	cmp	r3, #0
 8003ebe:	d007      	beq.n	8003ed0 <UART_WaitOnFlagUntilTimeout+0x30>
 8003ec0:	f7fd fea0 	bl	8001c04 <HAL_GetTick>
 8003ec4:	4602      	mov	r2, r0
 8003ec6:	683b      	ldr	r3, [r7, #0]
 8003ec8:	1ad3      	subs	r3, r2, r3
 8003eca:	69ba      	ldr	r2, [r7, #24]
 8003ecc:	429a      	cmp	r2, r3
 8003ece:	d21d      	bcs.n	8003f0c <UART_WaitOnFlagUntilTimeout+0x6c>
      {
        /* Disable TXE, RXNE, PE and ERR (Frame error, noise error, overrun error) interrupts for the interrupt process */
        CLEAR_BIT(huart->Instance->CR1, (USART_CR1_RXNEIE | USART_CR1_PEIE | USART_CR1_TXEIE));
 8003ed0:	68fb      	ldr	r3, [r7, #12]
 8003ed2:	681b      	ldr	r3, [r3, #0]
 8003ed4:	68da      	ldr	r2, [r3, #12]
 8003ed6:	68fb      	ldr	r3, [r7, #12]
 8003ed8:	681b      	ldr	r3, [r3, #0]
 8003eda:	f422 72d0 	bic.w	r2, r2, #416	; 0x1a0
 8003ede:	60da      	str	r2, [r3, #12]
        CLEAR_BIT(huart->Instance->CR3, USART_CR3_EIE);
 8003ee0:	68fb      	ldr	r3, [r7, #12]
 8003ee2:	681b      	ldr	r3, [r3, #0]
 8003ee4:	695a      	ldr	r2, [r3, #20]
 8003ee6:	68fb      	ldr	r3, [r7, #12]
 8003ee8:	681b      	ldr	r3, [r3, #0]
 8003eea:	f022 0201 	bic.w	r2, r2, #1
 8003eee:	615a      	str	r2, [r3, #20]

        huart->gState  = HAL_UART_STATE_READY;
 8003ef0:	68fb      	ldr	r3, [r7, #12]
 8003ef2:	2220      	movs	r2, #32
 8003ef4:	f883 2039 	strb.w	r2, [r3, #57]	; 0x39
        huart->RxState = HAL_UART_STATE_READY;
 8003ef8:	68fb      	ldr	r3, [r7, #12]
 8003efa:	2220      	movs	r2, #32
 8003efc:	f883 203a 	strb.w	r2, [r3, #58]	; 0x3a

        /* Process Unlocked */
        __HAL_UNLOCK(huart);
 8003f00:	68fb      	ldr	r3, [r7, #12]
 8003f02:	2200      	movs	r2, #0
 8003f04:	f883 2038 	strb.w	r2, [r3, #56]	; 0x38

        return HAL_TIMEOUT;
 8003f08:	2303      	movs	r3, #3
 8003f0a:	e00f      	b.n	8003f2c <UART_WaitOnFlagUntilTimeout+0x8c>
  while ((__HAL_UART_GET_FLAG(huart, Flag) ? SET : RESET) == Status)
 8003f0c:	68fb      	ldr	r3, [r7, #12]
 8003f0e:	681b      	ldr	r3, [r3, #0]
 8003f10:	681a      	ldr	r2, [r3, #0]
 8003f12:	68bb      	ldr	r3, [r7, #8]
 8003f14:	4013      	ands	r3, r2
 8003f16:	68ba      	ldr	r2, [r7, #8]
 8003f18:	429a      	cmp	r2, r3
 8003f1a:	bf0c      	ite	eq
 8003f1c:	2301      	moveq	r3, #1
 8003f1e:	2300      	movne	r3, #0
 8003f20:	b2db      	uxtb	r3, r3
 8003f22:	461a      	mov	r2, r3
 8003f24:	79fb      	ldrb	r3, [r7, #7]
 8003f26:	429a      	cmp	r2, r3
 8003f28:	d0c3      	beq.n	8003eb2 <UART_WaitOnFlagUntilTimeout+0x12>
      }
    }
  }
  return HAL_OK;
 8003f2a:	2300      	movs	r3, #0
}
 8003f2c:	4618      	mov	r0, r3
 8003f2e:	3710      	adds	r7, #16
 8003f30:	46bd      	mov	sp, r7
 8003f32:	bd80      	pop	{r7, pc}

08003f34 <UART_SetConfig>:
  * @param  huart  Pointer to a UART_HandleTypeDef structure that contains
  *                the configuration information for the specified UART module.
  * @retval None
  */
static void UART_SetConfig(UART_HandleTypeDef *huart)
{
 8003f34:	e92d 4ff0 	stmdb	sp!, {r4, r5, r6, r7, r8, r9, sl, fp, lr}
 8003f38:	b0bd      	sub	sp, #244	; 0xf4
 8003f3a:	af00      	add	r7, sp, #0
 8003f3c:	f8c7 00e4 	str.w	r0, [r7, #228]	; 0xe4
  assert_param(IS_UART_MODE(huart->Init.Mode));

  /*-------------------------- USART CR2 Configuration -----------------------*/
  /* Configure the UART Stop Bits: Set STOP[13:12] bits
     according to huart->Init.StopBits value */
  MODIFY_REG(huart->Instance->CR2, USART_CR2_STOP, huart->Init.StopBits);
 8003f40:	f8d7 30e4 	ldr.w	r3, [r7, #228]	; 0xe4
 8003f44:	681b      	ldr	r3, [r3, #0]
 8003f46:	691b      	ldr	r3, [r3, #16]
 8003f48:	f423 5040 	bic.w	r0, r3, #12288	; 0x3000
 8003f4c:	f8d7 30e4 	ldr.w	r3, [r7, #228]	; 0xe4
 8003f50:	68d9      	ldr	r1, [r3, #12]
 8003f52:	f8d7 30e4 	ldr.w	r3, [r7, #228]	; 0xe4
 8003f56:	681a      	ldr	r2, [r3, #0]
 8003f58:	ea40 0301 	orr.w	r3, r0, r1
 8003f5c:	6113      	str	r3, [r2, #16]
     Set the M bits according to huart->Init.WordLength value
     Set PCE and PS bits according to huart->Init.Parity value
     Set TE and RE bits according to huart->Init.Mode value
     Set OVER8 bit according to huart->Init.OverSampling value */

  tmpreg = (uint32_t)huart->Init.WordLength | huart->Init.Parity | huart->Init.Mode | huart->Init.OverSampling;
 8003f5e:	f8d7 30e4 	ldr.w	r3, [r7, #228]	; 0xe4
 8003f62:	689a      	ldr	r2, [r3, #8]
 8003f64:	f8d7 30e4 	ldr.w	r3, [r7, #228]	; 0xe4
 8003f68:	691b      	ldr	r3, [r3, #16]
 8003f6a:	431a      	orrs	r2, r3
 8003f6c:	f8d7 30e4 	ldr.w	r3, [r7, #228]	; 0xe4
 8003f70:	695b      	ldr	r3, [r3, #20]
 8003f72:	431a      	orrs	r2, r3
 8003f74:	f8d7 30e4 	ldr.w	r3, [r7, #228]	; 0xe4
 8003f78:	69db      	ldr	r3, [r3, #28]
 8003f7a:	4313      	orrs	r3, r2
 8003f7c:	f8c7 30ec 	str.w	r3, [r7, #236]	; 0xec
  MODIFY_REG(huart->Instance->CR1,
 8003f80:	f8d7 30e4 	ldr.w	r3, [r7, #228]	; 0xe4
 8003f84:	681b      	ldr	r3, [r3, #0]
 8003f86:	68db      	ldr	r3, [r3, #12]
 8003f88:	f423 4116 	bic.w	r1, r3, #38400	; 0x9600
 8003f8c:	f021 010c 	bic.w	r1, r1, #12
 8003f90:	f8d7 30e4 	ldr.w	r3, [r7, #228]	; 0xe4
 8003f94:	681a      	ldr	r2, [r3, #0]
 8003f96:	f8d7 30ec 	ldr.w	r3, [r7, #236]	; 0xec
 8003f9a:	430b      	orrs	r3, r1
 8003f9c:	60d3      	str	r3, [r2, #12]
             (uint32_t)(USART_CR1_M | USART_CR1_PCE | USART_CR1_PS | USART_CR1_TE | USART_CR1_RE | USART_CR1_OVER8),
             tmpreg);

  /*-------------------------- USART CR3 Configuration -----------------------*/
  /* Configure the UART HFC: Set CTSE and RTSE bits according to huart->Init.HwFlowCtl value */
  MODIFY_REG(huart->Instance->CR3, (USART_CR3_RTSE | USART_CR3_CTSE), huart->Init.HwFlowCtl);
 8003f9e:	f8d7 30e4 	ldr.w	r3, [r7, #228]	; 0xe4
 8003fa2:	681b      	ldr	r3, [r3, #0]
 8003fa4:	695b      	ldr	r3, [r3, #20]
 8003fa6:	f423 7040 	bic.w	r0, r3, #768	; 0x300
 8003faa:	f8d7 30e4 	ldr.w	r3, [r7, #228]	; 0xe4
 8003fae:	6999      	ldr	r1, [r3, #24]
 8003fb0:	f8d7 30e4 	ldr.w	r3, [r7, #228]	; 0xe4
 8003fb4:	681a      	ldr	r2, [r3, #0]
 8003fb6:	ea40 0301 	orr.w	r3, r0, r1
 8003fba:	6153      	str	r3, [r2, #20]

  /* Check the Over Sampling */
  if (huart->Init.OverSampling == UART_OVERSAMPLING_8)
 8003fbc:	f8d7 30e4 	ldr.w	r3, [r7, #228]	; 0xe4
 8003fc0:	69db      	ldr	r3, [r3, #28]
 8003fc2:	f5b3 4f00 	cmp.w	r3, #32768	; 0x8000
 8003fc6:	f040 81a5 	bne.w	8004314 <UART_SetConfig+0x3e0>
    {
      pclk = HAL_RCC_GetPCLK2Freq();
      huart->Instance->BRR = UART_BRR_SAMPLING8(pclk, huart->Init.BaudRate);
    }
#elif defined(USART6)
    if ((huart->Instance == USART1) || (huart->Instance == USART6))
 8003fca:	f8d7 30e4 	ldr.w	r3, [r7, #228]	; 0xe4
 8003fce:	681a      	ldr	r2, [r3, #0]
 8003fd0:	4bcd      	ldr	r3, [pc, #820]	; (8004308 <UART_SetConfig+0x3d4>)
 8003fd2:	429a      	cmp	r2, r3
 8003fd4:	d006      	beq.n	8003fe4 <UART_SetConfig+0xb0>
 8003fd6:	f8d7 30e4 	ldr.w	r3, [r7, #228]	; 0xe4
 8003fda:	681a      	ldr	r2, [r3, #0]
 8003fdc:	4bcb      	ldr	r3, [pc, #812]	; (800430c <UART_SetConfig+0x3d8>)
 8003fde:	429a      	cmp	r2, r3
 8003fe0:	f040 80cb 	bne.w	800417a <UART_SetConfig+0x246>
    {
      pclk = HAL_RCC_GetPCLK2Freq();
 8003fe4:	f7fe ff8c 	bl	8002f00 <HAL_RCC_GetPCLK2Freq>
 8003fe8:	f8c7 00e8 	str.w	r0, [r7, #232]	; 0xe8
      huart->Instance->BRR = UART_BRR_SAMPLING8(pclk, huart->Init.BaudRate);
 8003fec:	f8d7 30e8 	ldr.w	r3, [r7, #232]	; 0xe8
 8003ff0:	461c      	mov	r4, r3
 8003ff2:	f04f 0500 	mov.w	r5, #0
 8003ff6:	4622      	mov	r2, r4
 8003ff8:	462b      	mov	r3, r5
 8003ffa:	1891      	adds	r1, r2, r2
 8003ffc:	f8c7 1088 	str.w	r1, [r7, #136]	; 0x88
 8004000:	415b      	adcs	r3, r3
 8004002:	f8c7 308c 	str.w	r3, [r7, #140]	; 0x8c
 8004006:	e9d7 2322 	ldrd	r2, r3, [r7, #136]	; 0x88
 800400a:	1912      	adds	r2, r2, r4
 800400c:	eb45 0303 	adc.w	r3, r5, r3
 8004010:	f04f 0000 	mov.w	r0, #0
 8004014:	f04f 0100 	mov.w	r1, #0
 8004018:	00d9      	lsls	r1, r3, #3
 800401a:	ea41 7152 	orr.w	r1, r1, r2, lsr #29
 800401e:	00d0      	lsls	r0, r2, #3
 8004020:	4602      	mov	r2, r0
 8004022:	460b      	mov	r3, r1
 8004024:	1911      	adds	r1, r2, r4
 8004026:	f8c7 10d8 	str.w	r1, [r7, #216]	; 0xd8
 800402a:	416b      	adcs	r3, r5
 800402c:	f8c7 30dc 	str.w	r3, [r7, #220]	; 0xdc
 8004030:	f8d7 30e4 	ldr.w	r3, [r7, #228]	; 0xe4
 8004034:	685b      	ldr	r3, [r3, #4]
 8004036:	461a      	mov	r2, r3
 8004038:	f04f 0300 	mov.w	r3, #0
 800403c:	1891      	adds	r1, r2, r2
 800403e:	f8c7 1080 	str.w	r1, [r7, #128]	; 0x80
 8004042:	415b      	adcs	r3, r3
 8004044:	f8c7 3084 	str.w	r3, [r7, #132]	; 0x84
 8004048:	e9d7 2320 	ldrd	r2, r3, [r7, #128]	; 0x80
 800404c:	e9d7 0136 	ldrd	r0, r1, [r7, #216]	; 0xd8
 8004050:	f7fc fe1a 	bl	8000c88 <__aeabi_uldivmod>
 8004054:	4602      	mov	r2, r0
 8004056:	460b      	mov	r3, r1
 8004058:	4bad      	ldr	r3, [pc, #692]	; (8004310 <UART_SetConfig+0x3dc>)
 800405a:	fba3 2302 	umull	r2, r3, r3, r2
 800405e:	095b      	lsrs	r3, r3, #5
 8004060:	011e      	lsls	r6, r3, #4
 8004062:	f8d7 30e8 	ldr.w	r3, [r7, #232]	; 0xe8
 8004066:	461c      	mov	r4, r3
 8004068:	f04f 0500 	mov.w	r5, #0
 800406c:	4622      	mov	r2, r4
 800406e:	462b      	mov	r3, r5
 8004070:	1891      	adds	r1, r2, r2
 8004072:	67b9      	str	r1, [r7, #120]	; 0x78
 8004074:	415b      	adcs	r3, r3
 8004076:	67fb      	str	r3, [r7, #124]	; 0x7c
 8004078:	e9d7 231e 	ldrd	r2, r3, [r7, #120]	; 0x78
 800407c:	1912      	adds	r2, r2, r4
 800407e:	eb45 0303 	adc.w	r3, r5, r3
 8004082:	f04f 0000 	mov.w	r0, #0
 8004086:	f04f 0100 	mov.w	r1, #0
 800408a:	00d9      	lsls	r1, r3, #3
 800408c:	ea41 7152 	orr.w	r1, r1, r2, lsr #29
 8004090:	00d0      	lsls	r0, r2, #3
 8004092:	4602      	mov	r2, r0
 8004094:	460b      	mov	r3, r1
 8004096:	1911      	adds	r1, r2, r4
 8004098:	f8c7 10d0 	str.w	r1, [r7, #208]	; 0xd0
 800409c:	416b      	adcs	r3, r5
 800409e:	f8c7 30d4 	str.w	r3, [r7, #212]	; 0xd4
 80040a2:	f8d7 30e4 	ldr.w	r3, [r7, #228]	; 0xe4
 80040a6:	685b      	ldr	r3, [r3, #4]
 80040a8:	461a      	mov	r2, r3
 80040aa:	f04f 0300 	mov.w	r3, #0
 80040ae:	1891      	adds	r1, r2, r2
 80040b0:	6739      	str	r1, [r7, #112]	; 0x70
 80040b2:	415b      	adcs	r3, r3
 80040b4:	677b      	str	r3, [r7, #116]	; 0x74
 80040b6:	e9d7 231c 	ldrd	r2, r3, [r7, #112]	; 0x70
 80040ba:	e9d7 0134 	ldrd	r0, r1, [r7, #208]	; 0xd0
 80040be:	f7fc fde3 	bl	8000c88 <__aeabi_uldivmod>
 80040c2:	4602      	mov	r2, r0
 80040c4:	460b      	mov	r3, r1
 80040c6:	4b92      	ldr	r3, [pc, #584]	; (8004310 <UART_SetConfig+0x3dc>)
 80040c8:	fba3 1302 	umull	r1, r3, r3, r2
 80040cc:	095b      	lsrs	r3, r3, #5
 80040ce:	2164      	movs	r1, #100	; 0x64
 80040d0:	fb01 f303 	mul.w	r3, r1, r3
 80040d4:	1ad3      	subs	r3, r2, r3
 80040d6:	00db      	lsls	r3, r3, #3
 80040d8:	3332      	adds	r3, #50	; 0x32
 80040da:	4a8d      	ldr	r2, [pc, #564]	; (8004310 <UART_SetConfig+0x3dc>)
 80040dc:	fba2 2303 	umull	r2, r3, r2, r3
 80040e0:	095b      	lsrs	r3, r3, #5
 80040e2:	005b      	lsls	r3, r3, #1
 80040e4:	f403 73f8 	and.w	r3, r3, #496	; 0x1f0
 80040e8:	441e      	add	r6, r3
 80040ea:	f8d7 30e8 	ldr.w	r3, [r7, #232]	; 0xe8
 80040ee:	4618      	mov	r0, r3
 80040f0:	f04f 0100 	mov.w	r1, #0
 80040f4:	4602      	mov	r2, r0
 80040f6:	460b      	mov	r3, r1
 80040f8:	1894      	adds	r4, r2, r2
 80040fa:	66bc      	str	r4, [r7, #104]	; 0x68
 80040fc:	415b      	adcs	r3, r3
 80040fe:	66fb      	str	r3, [r7, #108]	; 0x6c
 8004100:	e9d7 231a 	ldrd	r2, r3, [r7, #104]	; 0x68
 8004104:	1812      	adds	r2, r2, r0
 8004106:	eb41 0303 	adc.w	r3, r1, r3
 800410a:	f04f 0400 	mov.w	r4, #0
 800410e:	f04f 0500 	mov.w	r5, #0
 8004112:	00dd      	lsls	r5, r3, #3
 8004114:	ea45 7552 	orr.w	r5, r5, r2, lsr #29
 8004118:	00d4      	lsls	r4, r2, #3
 800411a:	4622      	mov	r2, r4
 800411c:	462b      	mov	r3, r5
 800411e:	1814      	adds	r4, r2, r0
 8004120:	f8c7 40c8 	str.w	r4, [r7, #200]	; 0xc8
 8004124:	414b      	adcs	r3, r1
 8004126:	f8c7 30cc 	str.w	r3, [r7, #204]	; 0xcc
 800412a:	f8d7 30e4 	ldr.w	r3, [r7, #228]	; 0xe4
 800412e:	685b      	ldr	r3, [r3, #4]
 8004130:	461a      	mov	r2, r3
 8004132:	f04f 0300 	mov.w	r3, #0
 8004136:	1891      	adds	r1, r2, r2
 8004138:	6639      	str	r1, [r7, #96]	; 0x60
 800413a:	415b      	adcs	r3, r3
 800413c:	667b      	str	r3, [r7, #100]	; 0x64
 800413e:	e9d7 2318 	ldrd	r2, r3, [r7, #96]	; 0x60
 8004142:	e9d7 0132 	ldrd	r0, r1, [r7, #200]	; 0xc8
 8004146:	f7fc fd9f 	bl	8000c88 <__aeabi_uldivmod>
 800414a:	4602      	mov	r2, r0
 800414c:	460b      	mov	r3, r1
 800414e:	4b70      	ldr	r3, [pc, #448]	; (8004310 <UART_SetConfig+0x3dc>)
 8004150:	fba3 1302 	umull	r1, r3, r3, r2
 8004154:	095b      	lsrs	r3, r3, #5
 8004156:	2164      	movs	r1, #100	; 0x64
 8004158:	fb01 f303 	mul.w	r3, r1, r3
 800415c:	1ad3      	subs	r3, r2, r3
 800415e:	00db      	lsls	r3, r3, #3
 8004160:	3332      	adds	r3, #50	; 0x32
 8004162:	4a6b      	ldr	r2, [pc, #428]	; (8004310 <UART_SetConfig+0x3dc>)
 8004164:	fba2 2303 	umull	r2, r3, r2, r3
 8004168:	095b      	lsrs	r3, r3, #5
 800416a:	f003 0207 	and.w	r2, r3, #7
 800416e:	f8d7 30e4 	ldr.w	r3, [r7, #228]	; 0xe4
 8004172:	681b      	ldr	r3, [r3, #0]
 8004174:	4432      	add	r2, r6
 8004176:	609a      	str	r2, [r3, #8]
 8004178:	e26d      	b.n	8004656 <UART_SetConfig+0x722>
      huart->Instance->BRR = UART_BRR_SAMPLING8(pclk, huart->Init.BaudRate);
    }
#endif /* USART6 */
    else
    {
      pclk = HAL_RCC_GetPCLK1Freq();
 800417a:	f7fe fead 	bl	8002ed8 <HAL_RCC_GetPCLK1Freq>
 800417e:	f8c7 00e8 	str.w	r0, [r7, #232]	; 0xe8
      huart->Instance->BRR = UART_BRR_SAMPLING8(pclk, huart->Init.BaudRate);
 8004182:	f8d7 30e8 	ldr.w	r3, [r7, #232]	; 0xe8
 8004186:	461c      	mov	r4, r3
 8004188:	f04f 0500 	mov.w	r5, #0
 800418c:	4622      	mov	r2, r4
 800418e:	462b      	mov	r3, r5
 8004190:	1891      	adds	r1, r2, r2
 8004192:	65b9      	str	r1, [r7, #88]	; 0x58
 8004194:	415b      	adcs	r3, r3
 8004196:	65fb      	str	r3, [r7, #92]	; 0x5c
 8004198:	e9d7 2316 	ldrd	r2, r3, [r7, #88]	; 0x58
 800419c:	1912      	adds	r2, r2, r4
 800419e:	eb45 0303 	adc.w	r3, r5, r3
 80041a2:	f04f 0000 	mov.w	r0, #0
 80041a6:	f04f 0100 	mov.w	r1, #0
 80041aa:	00d9      	lsls	r1, r3, #3
 80041ac:	ea41 7152 	orr.w	r1, r1, r2, lsr #29
 80041b0:	00d0      	lsls	r0, r2, #3
 80041b2:	4602      	mov	r2, r0
 80041b4:	460b      	mov	r3, r1
 80041b6:	1911      	adds	r1, r2, r4
 80041b8:	f8c7 10c0 	str.w	r1, [r7, #192]	; 0xc0
 80041bc:	416b      	adcs	r3, r5
 80041be:	f8c7 30c4 	str.w	r3, [r7, #196]	; 0xc4
 80041c2:	f8d7 30e4 	ldr.w	r3, [r7, #228]	; 0xe4
 80041c6:	685b      	ldr	r3, [r3, #4]
 80041c8:	461a      	mov	r2, r3
 80041ca:	f04f 0300 	mov.w	r3, #0
 80041ce:	1891      	adds	r1, r2, r2
 80041d0:	6539      	str	r1, [r7, #80]	; 0x50
 80041d2:	415b      	adcs	r3, r3
 80041d4:	657b      	str	r3, [r7, #84]	; 0x54
 80041d6:	e9d7 2314 	ldrd	r2, r3, [r7, #80]	; 0x50
 80041da:	e9d7 0130 	ldrd	r0, r1, [r7, #192]	; 0xc0
 80041de:	f7fc fd53 	bl	8000c88 <__aeabi_uldivmod>
 80041e2:	4602      	mov	r2, r0
 80041e4:	460b      	mov	r3, r1
 80041e6:	4b4a      	ldr	r3, [pc, #296]	; (8004310 <UART_SetConfig+0x3dc>)
 80041e8:	fba3 2302 	umull	r2, r3, r3, r2
 80041ec:	095b      	lsrs	r3, r3, #5
 80041ee:	011e      	lsls	r6, r3, #4
 80041f0:	f8d7 30e8 	ldr.w	r3, [r7, #232]	; 0xe8
 80041f4:	461c      	mov	r4, r3
 80041f6:	f04f 0500 	mov.w	r5, #0
 80041fa:	4622      	mov	r2, r4
 80041fc:	462b      	mov	r3, r5
 80041fe:	1891      	adds	r1, r2, r2
 8004200:	64b9      	str	r1, [r7, #72]	; 0x48
 8004202:	415b      	adcs	r3, r3
 8004204:	64fb      	str	r3, [r7, #76]	; 0x4c
 8004206:	e9d7 2312 	ldrd	r2, r3, [r7, #72]	; 0x48
 800420a:	1912      	adds	r2, r2, r4
 800420c:	eb45 0303 	adc.w	r3, r5, r3
 8004210:	f04f 0000 	mov.w	r0, #0
 8004214:	f04f 0100 	mov.w	r1, #0
 8004218:	00d9      	lsls	r1, r3, #3
 800421a:	ea41 7152 	orr.w	r1, r1, r2, lsr #29
 800421e:	00d0      	lsls	r0, r2, #3
 8004220:	4602      	mov	r2, r0
 8004222:	460b      	mov	r3, r1
 8004224:	1911      	adds	r1, r2, r4
 8004226:	f8c7 10b8 	str.w	r1, [r7, #184]	; 0xb8
 800422a:	416b      	adcs	r3, r5
 800422c:	f8c7 30bc 	str.w	r3, [r7, #188]	; 0xbc
 8004230:	f8d7 30e4 	ldr.w	r3, [r7, #228]	; 0xe4
 8004234:	685b      	ldr	r3, [r3, #4]
 8004236:	461a      	mov	r2, r3
 8004238:	f04f 0300 	mov.w	r3, #0
 800423c:	1891      	adds	r1, r2, r2
 800423e:	6439      	str	r1, [r7, #64]	; 0x40
 8004240:	415b      	adcs	r3, r3
 8004242:	647b      	str	r3, [r7, #68]	; 0x44
 8004244:	e9d7 2310 	ldrd	r2, r3, [r7, #64]	; 0x40
 8004248:	e9d7 012e 	ldrd	r0, r1, [r7, #184]	; 0xb8
 800424c:	f7fc fd1c 	bl	8000c88 <__aeabi_uldivmod>
 8004250:	4602      	mov	r2, r0
 8004252:	460b      	mov	r3, r1
 8004254:	4b2e      	ldr	r3, [pc, #184]	; (8004310 <UART_SetConfig+0x3dc>)
 8004256:	fba3 1302 	umull	r1, r3, r3, r2
 800425a:	095b      	lsrs	r3, r3, #5
 800425c:	2164      	movs	r1, #100	; 0x64
 800425e:	fb01 f303 	mul.w	r3, r1, r3
 8004262:	1ad3      	subs	r3, r2, r3
 8004264:	00db      	lsls	r3, r3, #3
 8004266:	3332      	adds	r3, #50	; 0x32
 8004268:	4a29      	ldr	r2, [pc, #164]	; (8004310 <UART_SetConfig+0x3dc>)
 800426a:	fba2 2303 	umull	r2, r3, r2, r3
 800426e:	095b      	lsrs	r3, r3, #5
 8004270:	005b      	lsls	r3, r3, #1
 8004272:	f403 73f8 	and.w	r3, r3, #496	; 0x1f0
 8004276:	441e      	add	r6, r3
 8004278:	f8d7 30e8 	ldr.w	r3, [r7, #232]	; 0xe8
 800427c:	4618      	mov	r0, r3
 800427e:	f04f 0100 	mov.w	r1, #0
 8004282:	4602      	mov	r2, r0
 8004284:	460b      	mov	r3, r1
 8004286:	1894      	adds	r4, r2, r2
 8004288:	63bc      	str	r4, [r7, #56]	; 0x38
 800428a:	415b      	adcs	r3, r3
 800428c:	63fb      	str	r3, [r7, #60]	; 0x3c
 800428e:	e9d7 230e 	ldrd	r2, r3, [r7, #56]	; 0x38
 8004292:	1812      	adds	r2, r2, r0
 8004294:	eb41 0303 	adc.w	r3, r1, r3
 8004298:	f04f 0400 	mov.w	r4, #0
 800429c:	f04f 0500 	mov.w	r5, #0
 80042a0:	00dd      	lsls	r5, r3, #3
 80042a2:	ea45 7552 	orr.w	r5, r5, r2, lsr #29
 80042a6:	00d4      	lsls	r4, r2, #3
 80042a8:	4622      	mov	r2, r4
 80042aa:	462b      	mov	r3, r5
 80042ac:	1814      	adds	r4, r2, r0
 80042ae:	f8c7 40b0 	str.w	r4, [r7, #176]	; 0xb0
 80042b2:	414b      	adcs	r3, r1
 80042b4:	f8c7 30b4 	str.w	r3, [r7, #180]	; 0xb4
 80042b8:	f8d7 30e4 	ldr.w	r3, [r7, #228]	; 0xe4
 80042bc:	685b      	ldr	r3, [r3, #4]
 80042be:	461a      	mov	r2, r3
 80042c0:	f04f 0300 	mov.w	r3, #0
 80042c4:	1891      	adds	r1, r2, r2
 80042c6:	6339      	str	r1, [r7, #48]	; 0x30
 80042c8:	415b      	adcs	r3, r3
 80042ca:	637b      	str	r3, [r7, #52]	; 0x34
 80042cc:	e9d7 230c 	ldrd	r2, r3, [r7, #48]	; 0x30
 80042d0:	e9d7 012c 	ldrd	r0, r1, [r7, #176]	; 0xb0
 80042d4:	f7fc fcd8 	bl	8000c88 <__aeabi_uldivmod>
 80042d8:	4602      	mov	r2, r0
 80042da:	460b      	mov	r3, r1
 80042dc:	4b0c      	ldr	r3, [pc, #48]	; (8004310 <UART_SetConfig+0x3dc>)
 80042de:	fba3 1302 	umull	r1, r3, r3, r2
 80042e2:	095b      	lsrs	r3, r3, #5
 80042e4:	2164      	movs	r1, #100	; 0x64
 80042e6:	fb01 f303 	mul.w	r3, r1, r3
 80042ea:	1ad3      	subs	r3, r2, r3
 80042ec:	00db      	lsls	r3, r3, #3
 80042ee:	3332      	adds	r3, #50	; 0x32
 80042f0:	4a07      	ldr	r2, [pc, #28]	; (8004310 <UART_SetConfig+0x3dc>)
 80042f2:	fba2 2303 	umull	r2, r3, r2, r3
 80042f6:	095b      	lsrs	r3, r3, #5
 80042f8:	f003 0207 	and.w	r2, r3, #7
 80042fc:	f8d7 30e4 	ldr.w	r3, [r7, #228]	; 0xe4
 8004300:	681b      	ldr	r3, [r3, #0]
 8004302:	4432      	add	r2, r6
 8004304:	609a      	str	r2, [r3, #8]
    {
      pclk = HAL_RCC_GetPCLK1Freq();
      huart->Instance->BRR = UART_BRR_SAMPLING16(pclk, huart->Init.BaudRate);
    }
  }
}
 8004306:	e1a6      	b.n	8004656 <UART_SetConfig+0x722>
 8004308:	40011000 	.word	0x40011000
 800430c:	40011400 	.word	0x40011400
 8004310:	51eb851f 	.word	0x51eb851f
    if ((huart->Instance == USART1) || (huart->Instance == USART6))
 8004314:	f8d7 30e4 	ldr.w	r3, [r7, #228]	; 0xe4
 8004318:	681a      	ldr	r2, [r3, #0]
 800431a:	4bd1      	ldr	r3, [pc, #836]	; (8004660 <UART_SetConfig+0x72c>)
 800431c:	429a      	cmp	r2, r3
 800431e:	d006      	beq.n	800432e <UART_SetConfig+0x3fa>
 8004320:	f8d7 30e4 	ldr.w	r3, [r7, #228]	; 0xe4
 8004324:	681a      	ldr	r2, [r3, #0]
 8004326:	4bcf      	ldr	r3, [pc, #828]	; (8004664 <UART_SetConfig+0x730>)
 8004328:	429a      	cmp	r2, r3
 800432a:	f040 80ca 	bne.w	80044c2 <UART_SetConfig+0x58e>
      pclk = HAL_RCC_GetPCLK2Freq();
 800432e:	f7fe fde7 	bl	8002f00 <HAL_RCC_GetPCLK2Freq>
 8004332:	f8c7 00e8 	str.w	r0, [r7, #232]	; 0xe8
      huart->Instance->BRR = UART_BRR_SAMPLING16(pclk, huart->Init.BaudRate);
 8004336:	f8d7 30e8 	ldr.w	r3, [r7, #232]	; 0xe8
 800433a:	461c      	mov	r4, r3
 800433c:	f04f 0500 	mov.w	r5, #0
 8004340:	4622      	mov	r2, r4
 8004342:	462b      	mov	r3, r5
 8004344:	1891      	adds	r1, r2, r2
 8004346:	62b9      	str	r1, [r7, #40]	; 0x28
 8004348:	415b      	adcs	r3, r3
 800434a:	62fb      	str	r3, [r7, #44]	; 0x2c
 800434c:	e9d7 230a 	ldrd	r2, r3, [r7, #40]	; 0x28
 8004350:	1912      	adds	r2, r2, r4
 8004352:	eb45 0303 	adc.w	r3, r5, r3
 8004356:	f04f 0000 	mov.w	r0, #0
 800435a:	f04f 0100 	mov.w	r1, #0
 800435e:	00d9      	lsls	r1, r3, #3
 8004360:	ea41 7152 	orr.w	r1, r1, r2, lsr #29
 8004364:	00d0      	lsls	r0, r2, #3
 8004366:	4602      	mov	r2, r0
 8004368:	460b      	mov	r3, r1
 800436a:	eb12 0a04 	adds.w	sl, r2, r4
 800436e:	eb43 0b05 	adc.w	fp, r3, r5
 8004372:	f8d7 30e4 	ldr.w	r3, [r7, #228]	; 0xe4
 8004376:	685b      	ldr	r3, [r3, #4]
 8004378:	4618      	mov	r0, r3
 800437a:	f04f 0100 	mov.w	r1, #0
 800437e:	f04f 0200 	mov.w	r2, #0
 8004382:	f04f 0300 	mov.w	r3, #0
 8004386:	008b      	lsls	r3, r1, #2
 8004388:	ea43 7390 	orr.w	r3, r3, r0, lsr #30
 800438c:	0082      	lsls	r2, r0, #2
 800438e:	4650      	mov	r0, sl
 8004390:	4659      	mov	r1, fp
 8004392:	f7fc fc79 	bl	8000c88 <__aeabi_uldivmod>
 8004396:	4602      	mov	r2, r0
 8004398:	460b      	mov	r3, r1
 800439a:	4bb3      	ldr	r3, [pc, #716]	; (8004668 <UART_SetConfig+0x734>)
 800439c:	fba3 2302 	umull	r2, r3, r3, r2
 80043a0:	095b      	lsrs	r3, r3, #5
 80043a2:	011e      	lsls	r6, r3, #4
 80043a4:	f8d7 30e8 	ldr.w	r3, [r7, #232]	; 0xe8
 80043a8:	4618      	mov	r0, r3
 80043aa:	f04f 0100 	mov.w	r1, #0
 80043ae:	4602      	mov	r2, r0
 80043b0:	460b      	mov	r3, r1
 80043b2:	1894      	adds	r4, r2, r2
 80043b4:	623c      	str	r4, [r7, #32]
 80043b6:	415b      	adcs	r3, r3
 80043b8:	627b      	str	r3, [r7, #36]	; 0x24
 80043ba:	e9d7 2308 	ldrd	r2, r3, [r7, #32]
 80043be:	1812      	adds	r2, r2, r0
 80043c0:	eb41 0303 	adc.w	r3, r1, r3
 80043c4:	f04f 0400 	mov.w	r4, #0
 80043c8:	f04f 0500 	mov.w	r5, #0
 80043cc:	00dd      	lsls	r5, r3, #3
 80043ce:	ea45 7552 	orr.w	r5, r5, r2, lsr #29
 80043d2:	00d4      	lsls	r4, r2, #3
 80043d4:	4622      	mov	r2, r4
 80043d6:	462b      	mov	r3, r5
 80043d8:	1814      	adds	r4, r2, r0
 80043da:	f8c7 40a8 	str.w	r4, [r7, #168]	; 0xa8
 80043de:	414b      	adcs	r3, r1
 80043e0:	f8c7 30ac 	str.w	r3, [r7, #172]	; 0xac
 80043e4:	f8d7 30e4 	ldr.w	r3, [r7, #228]	; 0xe4
 80043e8:	685b      	ldr	r3, [r3, #4]
 80043ea:	4618      	mov	r0, r3
 80043ec:	f04f 0100 	mov.w	r1, #0
 80043f0:	f04f 0200 	mov.w	r2, #0
 80043f4:	f04f 0300 	mov.w	r3, #0
 80043f8:	008b      	lsls	r3, r1, #2
 80043fa:	ea43 7390 	orr.w	r3, r3, r0, lsr #30
 80043fe:	0082      	lsls	r2, r0, #2
 8004400:	e9d7 012a 	ldrd	r0, r1, [r7, #168]	; 0xa8
 8004404:	f7fc fc40 	bl	8000c88 <__aeabi_uldivmod>
 8004408:	4602      	mov	r2, r0
 800440a:	460b      	mov	r3, r1
 800440c:	4b96      	ldr	r3, [pc, #600]	; (8004668 <UART_SetConfig+0x734>)
 800440e:	fba3 1302 	umull	r1, r3, r3, r2
 8004412:	095b      	lsrs	r3, r3, #5
 8004414:	2164      	movs	r1, #100	; 0x64
 8004416:	fb01 f303 	mul.w	r3, r1, r3
 800441a:	1ad3      	subs	r3, r2, r3
 800441c:	011b      	lsls	r3, r3, #4
 800441e:	3332      	adds	r3, #50	; 0x32
 8004420:	4a91      	ldr	r2, [pc, #580]	; (8004668 <UART_SetConfig+0x734>)
 8004422:	fba2 2303 	umull	r2, r3, r2, r3
 8004426:	095b      	lsrs	r3, r3, #5
 8004428:	f003 03f0 	and.w	r3, r3, #240	; 0xf0
 800442c:	441e      	add	r6, r3
 800442e:	f8d7 30e8 	ldr.w	r3, [r7, #232]	; 0xe8
 8004432:	4618      	mov	r0, r3
 8004434:	f04f 0100 	mov.w	r1, #0
 8004438:	4602      	mov	r2, r0
 800443a:	460b      	mov	r3, r1
 800443c:	1894      	adds	r4, r2, r2
 800443e:	61bc      	str	r4, [r7, #24]
 8004440:	415b      	adcs	r3, r3
 8004442:	61fb      	str	r3, [r7, #28]
 8004444:	e9d7 2306 	ldrd	r2, r3, [r7, #24]
 8004448:	1812      	adds	r2, r2, r0
 800444a:	eb41 0303 	adc.w	r3, r1, r3
 800444e:	f04f 0400 	mov.w	r4, #0
 8004452:	f04f 0500 	mov.w	r5, #0
 8004456:	00dd      	lsls	r5, r3, #3
 8004458:	ea45 7552 	orr.w	r5, r5, r2, lsr #29
 800445c:	00d4      	lsls	r4, r2, #3
 800445e:	4622      	mov	r2, r4
 8004460:	462b      	mov	r3, r5
 8004462:	1814      	adds	r4, r2, r0
 8004464:	f8c7 40a0 	str.w	r4, [r7, #160]	; 0xa0
 8004468:	414b      	adcs	r3, r1
 800446a:	f8c7 30a4 	str.w	r3, [r7, #164]	; 0xa4
 800446e:	f8d7 30e4 	ldr.w	r3, [r7, #228]	; 0xe4
 8004472:	685b      	ldr	r3, [r3, #4]
 8004474:	4618      	mov	r0, r3
 8004476:	f04f 0100 	mov.w	r1, #0
 800447a:	f04f 0200 	mov.w	r2, #0
 800447e:	f04f 0300 	mov.w	r3, #0
 8004482:	008b      	lsls	r3, r1, #2
 8004484:	ea43 7390 	orr.w	r3, r3, r0, lsr #30
 8004488:	0082      	lsls	r2, r0, #2
 800448a:	e9d7 0128 	ldrd	r0, r1, [r7, #160]	; 0xa0
 800448e:	f7fc fbfb 	bl	8000c88 <__aeabi_uldivmod>
 8004492:	4602      	mov	r2, r0
 8004494:	460b      	mov	r3, r1
 8004496:	4b74      	ldr	r3, [pc, #464]	; (8004668 <UART_SetConfig+0x734>)
 8004498:	fba3 1302 	umull	r1, r3, r3, r2
 800449c:	095b      	lsrs	r3, r3, #5
 800449e:	2164      	movs	r1, #100	; 0x64
 80044a0:	fb01 f303 	mul.w	r3, r1, r3
 80044a4:	1ad3      	subs	r3, r2, r3
 80044a6:	011b      	lsls	r3, r3, #4
 80044a8:	3332      	adds	r3, #50	; 0x32
 80044aa:	4a6f      	ldr	r2, [pc, #444]	; (8004668 <UART_SetConfig+0x734>)
 80044ac:	fba2 2303 	umull	r2, r3, r2, r3
 80044b0:	095b      	lsrs	r3, r3, #5
 80044b2:	f003 020f 	and.w	r2, r3, #15
 80044b6:	f8d7 30e4 	ldr.w	r3, [r7, #228]	; 0xe4
 80044ba:	681b      	ldr	r3, [r3, #0]
 80044bc:	4432      	add	r2, r6
 80044be:	609a      	str	r2, [r3, #8]
 80044c0:	e0c9      	b.n	8004656 <UART_SetConfig+0x722>
      pclk = HAL_RCC_GetPCLK1Freq();
 80044c2:	f7fe fd09 	bl	8002ed8 <HAL_RCC_GetPCLK1Freq>
 80044c6:	f8c7 00e8 	str.w	r0, [r7, #232]	; 0xe8
      huart->Instance->BRR = UART_BRR_SAMPLING16(pclk, huart->Init.BaudRate);
 80044ca:	f8d7 30e8 	ldr.w	r3, [r7, #232]	; 0xe8
 80044ce:	461c      	mov	r4, r3
 80044d0:	f04f 0500 	mov.w	r5, #0
 80044d4:	4622      	mov	r2, r4
 80044d6:	462b      	mov	r3, r5
 80044d8:	1891      	adds	r1, r2, r2
 80044da:	6139      	str	r1, [r7, #16]
 80044dc:	415b      	adcs	r3, r3
 80044de:	617b      	str	r3, [r7, #20]
 80044e0:	e9d7 2304 	ldrd	r2, r3, [r7, #16]
 80044e4:	1912      	adds	r2, r2, r4
 80044e6:	eb45 0303 	adc.w	r3, r5, r3
 80044ea:	f04f 0000 	mov.w	r0, #0
 80044ee:	f04f 0100 	mov.w	r1, #0
 80044f2:	00d9      	lsls	r1, r3, #3
 80044f4:	ea41 7152 	orr.w	r1, r1, r2, lsr #29
 80044f8:	00d0      	lsls	r0, r2, #3
 80044fa:	4602      	mov	r2, r0
 80044fc:	460b      	mov	r3, r1
 80044fe:	eb12 0804 	adds.w	r8, r2, r4
 8004502:	eb43 0905 	adc.w	r9, r3, r5
 8004506:	f8d7 30e4 	ldr.w	r3, [r7, #228]	; 0xe4
 800450a:	685b      	ldr	r3, [r3, #4]
 800450c:	4618      	mov	r0, r3
 800450e:	f04f 0100 	mov.w	r1, #0
 8004512:	f04f 0200 	mov.w	r2, #0
 8004516:	f04f 0300 	mov.w	r3, #0
 800451a:	008b      	lsls	r3, r1, #2
 800451c:	ea43 7390 	orr.w	r3, r3, r0, lsr #30
 8004520:	0082      	lsls	r2, r0, #2
 8004522:	4640      	mov	r0, r8
 8004524:	4649      	mov	r1, r9
 8004526:	f7fc fbaf 	bl	8000c88 <__aeabi_uldivmod>
 800452a:	4602      	mov	r2, r0
 800452c:	460b      	mov	r3, r1
 800452e:	4b4e      	ldr	r3, [pc, #312]	; (8004668 <UART_SetConfig+0x734>)
 8004530:	fba3 2302 	umull	r2, r3, r3, r2
 8004534:	095b      	lsrs	r3, r3, #5
 8004536:	011e      	lsls	r6, r3, #4
 8004538:	f8d7 30e8 	ldr.w	r3, [r7, #232]	; 0xe8
 800453c:	4618      	mov	r0, r3
 800453e:	f04f 0100 	mov.w	r1, #0
 8004542:	4602      	mov	r2, r0
 8004544:	460b      	mov	r3, r1
 8004546:	1894      	adds	r4, r2, r2
 8004548:	60bc      	str	r4, [r7, #8]
 800454a:	415b      	adcs	r3, r3
 800454c:	60fb      	str	r3, [r7, #12]
 800454e:	e9d7 2302 	ldrd	r2, r3, [r7, #8]
 8004552:	1812      	adds	r2, r2, r0
 8004554:	eb41 0303 	adc.w	r3, r1, r3
 8004558:	f04f 0400 	mov.w	r4, #0
 800455c:	f04f 0500 	mov.w	r5, #0
 8004560:	00dd      	lsls	r5, r3, #3
 8004562:	ea45 7552 	orr.w	r5, r5, r2, lsr #29
 8004566:	00d4      	lsls	r4, r2, #3
 8004568:	4622      	mov	r2, r4
 800456a:	462b      	mov	r3, r5
 800456c:	1814      	adds	r4, r2, r0
 800456e:	f8c7 4098 	str.w	r4, [r7, #152]	; 0x98
 8004572:	414b      	adcs	r3, r1
 8004574:	f8c7 309c 	str.w	r3, [r7, #156]	; 0x9c
 8004578:	f8d7 30e4 	ldr.w	r3, [r7, #228]	; 0xe4
 800457c:	685b      	ldr	r3, [r3, #4]
 800457e:	4618      	mov	r0, r3
 8004580:	f04f 0100 	mov.w	r1, #0
 8004584:	f04f 0200 	mov.w	r2, #0
 8004588:	f04f 0300 	mov.w	r3, #0
 800458c:	008b      	lsls	r3, r1, #2
 800458e:	ea43 7390 	orr.w	r3, r3, r0, lsr #30
 8004592:	0082      	lsls	r2, r0, #2
 8004594:	e9d7 0126 	ldrd	r0, r1, [r7, #152]	; 0x98
 8004598:	f7fc fb76 	bl	8000c88 <__aeabi_uldivmod>
 800459c:	4602      	mov	r2, r0
 800459e:	460b      	mov	r3, r1
 80045a0:	4b31      	ldr	r3, [pc, #196]	; (8004668 <UART_SetConfig+0x734>)
 80045a2:	fba3 1302 	umull	r1, r3, r3, r2
 80045a6:	095b      	lsrs	r3, r3, #5
 80045a8:	2164      	movs	r1, #100	; 0x64
 80045aa:	fb01 f303 	mul.w	r3, r1, r3
 80045ae:	1ad3      	subs	r3, r2, r3
 80045b0:	011b      	lsls	r3, r3, #4
 80045b2:	3332      	adds	r3, #50	; 0x32
 80045b4:	4a2c      	ldr	r2, [pc, #176]	; (8004668 <UART_SetConfig+0x734>)
 80045b6:	fba2 2303 	umull	r2, r3, r2, r3
 80045ba:	095b      	lsrs	r3, r3, #5
 80045bc:	f003 03f0 	and.w	r3, r3, #240	; 0xf0
 80045c0:	441e      	add	r6, r3
 80045c2:	f8d7 30e8 	ldr.w	r3, [r7, #232]	; 0xe8
 80045c6:	4618      	mov	r0, r3
 80045c8:	f04f 0100 	mov.w	r1, #0
 80045cc:	4602      	mov	r2, r0
 80045ce:	460b      	mov	r3, r1
 80045d0:	1894      	adds	r4, r2, r2
 80045d2:	603c      	str	r4, [r7, #0]
 80045d4:	415b      	adcs	r3, r3
 80045d6:	607b      	str	r3, [r7, #4]
 80045d8:	e9d7 2300 	ldrd	r2, r3, [r7]
 80045dc:	1812      	adds	r2, r2, r0
 80045de:	eb41 0303 	adc.w	r3, r1, r3
 80045e2:	f04f 0400 	mov.w	r4, #0
 80045e6:	f04f 0500 	mov.w	r5, #0
 80045ea:	00dd      	lsls	r5, r3, #3
 80045ec:	ea45 7552 	orr.w	r5, r5, r2, lsr #29
 80045f0:	00d4      	lsls	r4, r2, #3
 80045f2:	4622      	mov	r2, r4
 80045f4:	462b      	mov	r3, r5
 80045f6:	1814      	adds	r4, r2, r0
 80045f8:	f8c7 4090 	str.w	r4, [r7, #144]	; 0x90
 80045fc:	414b      	adcs	r3, r1
 80045fe:	f8c7 3094 	str.w	r3, [r7, #148]	; 0x94
 8004602:	f8d7 30e4 	ldr.w	r3, [r7, #228]	; 0xe4
 8004606:	685b      	ldr	r3, [r3, #4]
 8004608:	4618      	mov	r0, r3
 800460a:	f04f 0100 	mov.w	r1, #0
 800460e:	f04f 0200 	mov.w	r2, #0
 8004612:	f04f 0300 	mov.w	r3, #0
 8004616:	008b      	lsls	r3, r1, #2
 8004618:	ea43 7390 	orr.w	r3, r3, r0, lsr #30
 800461c:	0082      	lsls	r2, r0, #2
 800461e:	e9d7 0124 	ldrd	r0, r1, [r7, #144]	; 0x90
 8004622:	f7fc fb31 	bl	8000c88 <__aeabi_uldivmod>
 8004626:	4602      	mov	r2, r0
 8004628:	460b      	mov	r3, r1
 800462a:	4b0f      	ldr	r3, [pc, #60]	; (8004668 <UART_SetConfig+0x734>)
 800462c:	fba3 1302 	umull	r1, r3, r3, r2
 8004630:	095b      	lsrs	r3, r3, #5
 8004632:	2164      	movs	r1, #100	; 0x64
 8004634:	fb01 f303 	mul.w	r3, r1, r3
 8004638:	1ad3      	subs	r3, r2, r3
 800463a:	011b      	lsls	r3, r3, #4
 800463c:	3332      	adds	r3, #50	; 0x32
 800463e:	4a0a      	ldr	r2, [pc, #40]	; (8004668 <UART_SetConfig+0x734>)
 8004640:	fba2 2303 	umull	r2, r3, r2, r3
 8004644:	095b      	lsrs	r3, r3, #5
 8004646:	f003 020f 	and.w	r2, r3, #15
 800464a:	f8d7 30e4 	ldr.w	r3, [r7, #228]	; 0xe4
 800464e:	681b      	ldr	r3, [r3, #0]
 8004650:	4432      	add	r2, r6
 8004652:	609a      	str	r2, [r3, #8]
}
 8004654:	e7ff      	b.n	8004656 <UART_SetConfig+0x722>
 8004656:	bf00      	nop
 8004658:	37f4      	adds	r7, #244	; 0xf4
 800465a:	46bd      	mov	sp, r7
 800465c:	e8bd 8ff0 	ldmia.w	sp!, {r4, r5, r6, r7, r8, r9, sl, fp, pc}
 8004660:	40011000 	.word	0x40011000
 8004664:	40011400 	.word	0x40011400
 8004668:	51eb851f 	.word	0x51eb851f

0800466c <__errno>:
 800466c:	4b01      	ldr	r3, [pc, #4]	; (8004674 <__errno+0x8>)
 800466e:	6818      	ldr	r0, [r3, #0]
 8004670:	4770      	bx	lr
 8004672:	bf00      	nop
 8004674:	20000014 	.word	0x20000014

08004678 <__libc_init_array>:
 8004678:	b570      	push	{r4, r5, r6, lr}
 800467a:	4d0d      	ldr	r5, [pc, #52]	; (80046b0 <__libc_init_array+0x38>)
 800467c:	4c0d      	ldr	r4, [pc, #52]	; (80046b4 <__libc_init_array+0x3c>)
 800467e:	1b64      	subs	r4, r4, r5
 8004680:	10a4      	asrs	r4, r4, #2
 8004682:	2600      	movs	r6, #0
 8004684:	42a6      	cmp	r6, r4
 8004686:	d109      	bne.n	800469c <__libc_init_array+0x24>
 8004688:	4d0b      	ldr	r5, [pc, #44]	; (80046b8 <__libc_init_array+0x40>)
 800468a:	4c0c      	ldr	r4, [pc, #48]	; (80046bc <__libc_init_array+0x44>)
 800468c:	f002 feb6 	bl	80073fc <_init>
 8004690:	1b64      	subs	r4, r4, r5
 8004692:	10a4      	asrs	r4, r4, #2
 8004694:	2600      	movs	r6, #0
 8004696:	42a6      	cmp	r6, r4
 8004698:	d105      	bne.n	80046a6 <__libc_init_array+0x2e>
 800469a:	bd70      	pop	{r4, r5, r6, pc}
 800469c:	f855 3b04 	ldr.w	r3, [r5], #4
 80046a0:	4798      	blx	r3
 80046a2:	3601      	adds	r6, #1
 80046a4:	e7ee      	b.n	8004684 <__libc_init_array+0xc>
 80046a6:	f855 3b04 	ldr.w	r3, [r5], #4
 80046aa:	4798      	blx	r3
 80046ac:	3601      	adds	r6, #1
 80046ae:	e7f2      	b.n	8004696 <__libc_init_array+0x1e>
 80046b0:	08007824 	.word	0x08007824
 80046b4:	08007824 	.word	0x08007824
 80046b8:	08007824 	.word	0x08007824
 80046bc:	08007828 	.word	0x08007828

080046c0 <memset>:
 80046c0:	4402      	add	r2, r0
 80046c2:	4603      	mov	r3, r0
 80046c4:	4293      	cmp	r3, r2
 80046c6:	d100      	bne.n	80046ca <memset+0xa>
 80046c8:	4770      	bx	lr
 80046ca:	f803 1b01 	strb.w	r1, [r3], #1
 80046ce:	e7f9      	b.n	80046c4 <memset+0x4>

080046d0 <__cvt>:
 80046d0:	e92d 47ff 	stmdb	sp!, {r0, r1, r2, r3, r4, r5, r6, r7, r8, r9, sl, lr}
 80046d4:	ec55 4b10 	vmov	r4, r5, d0
 80046d8:	2d00      	cmp	r5, #0
 80046da:	460e      	mov	r6, r1
 80046dc:	4619      	mov	r1, r3
 80046de:	462b      	mov	r3, r5
 80046e0:	bfbb      	ittet	lt
 80046e2:	f105 4300 	addlt.w	r3, r5, #2147483648	; 0x80000000
 80046e6:	461d      	movlt	r5, r3
 80046e8:	2300      	movge	r3, #0
 80046ea:	232d      	movlt	r3, #45	; 0x2d
 80046ec:	700b      	strb	r3, [r1, #0]
 80046ee:	9b0d      	ldr	r3, [sp, #52]	; 0x34
 80046f0:	f8dd a030 	ldr.w	sl, [sp, #48]	; 0x30
 80046f4:	4691      	mov	r9, r2
 80046f6:	f023 0820 	bic.w	r8, r3, #32
 80046fa:	bfbc      	itt	lt
 80046fc:	4622      	movlt	r2, r4
 80046fe:	4614      	movlt	r4, r2
 8004700:	f1b8 0f46 	cmp.w	r8, #70	; 0x46
 8004704:	d005      	beq.n	8004712 <__cvt+0x42>
 8004706:	f1b8 0f45 	cmp.w	r8, #69	; 0x45
 800470a:	d100      	bne.n	800470e <__cvt+0x3e>
 800470c:	3601      	adds	r6, #1
 800470e:	2102      	movs	r1, #2
 8004710:	e000      	b.n	8004714 <__cvt+0x44>
 8004712:	2103      	movs	r1, #3
 8004714:	ab03      	add	r3, sp, #12
 8004716:	9301      	str	r3, [sp, #4]
 8004718:	ab02      	add	r3, sp, #8
 800471a:	9300      	str	r3, [sp, #0]
 800471c:	ec45 4b10 	vmov	d0, r4, r5
 8004720:	4653      	mov	r3, sl
 8004722:	4632      	mov	r2, r6
 8004724:	f000 fcec 	bl	8005100 <_dtoa_r>
 8004728:	f1b8 0f47 	cmp.w	r8, #71	; 0x47
 800472c:	4607      	mov	r7, r0
 800472e:	d102      	bne.n	8004736 <__cvt+0x66>
 8004730:	f019 0f01 	tst.w	r9, #1
 8004734:	d022      	beq.n	800477c <__cvt+0xac>
 8004736:	f1b8 0f46 	cmp.w	r8, #70	; 0x46
 800473a:	eb07 0906 	add.w	r9, r7, r6
 800473e:	d110      	bne.n	8004762 <__cvt+0x92>
 8004740:	783b      	ldrb	r3, [r7, #0]
 8004742:	2b30      	cmp	r3, #48	; 0x30
 8004744:	d10a      	bne.n	800475c <__cvt+0x8c>
 8004746:	2200      	movs	r2, #0
 8004748:	2300      	movs	r3, #0
 800474a:	4620      	mov	r0, r4
 800474c:	4629      	mov	r1, r5
 800474e:	f7fc f9db 	bl	8000b08 <__aeabi_dcmpeq>
 8004752:	b918      	cbnz	r0, 800475c <__cvt+0x8c>
 8004754:	f1c6 0601 	rsb	r6, r6, #1
 8004758:	f8ca 6000 	str.w	r6, [sl]
 800475c:	f8da 3000 	ldr.w	r3, [sl]
 8004760:	4499      	add	r9, r3
 8004762:	2200      	movs	r2, #0
 8004764:	2300      	movs	r3, #0
 8004766:	4620      	mov	r0, r4
 8004768:	4629      	mov	r1, r5
 800476a:	f7fc f9cd 	bl	8000b08 <__aeabi_dcmpeq>
 800476e:	b108      	cbz	r0, 8004774 <__cvt+0xa4>
 8004770:	f8cd 900c 	str.w	r9, [sp, #12]
 8004774:	2230      	movs	r2, #48	; 0x30
 8004776:	9b03      	ldr	r3, [sp, #12]
 8004778:	454b      	cmp	r3, r9
 800477a:	d307      	bcc.n	800478c <__cvt+0xbc>
 800477c:	9b03      	ldr	r3, [sp, #12]
 800477e:	9a0e      	ldr	r2, [sp, #56]	; 0x38
 8004780:	1bdb      	subs	r3, r3, r7
 8004782:	4638      	mov	r0, r7
 8004784:	6013      	str	r3, [r2, #0]
 8004786:	b004      	add	sp, #16
 8004788:	e8bd 87f0 	ldmia.w	sp!, {r4, r5, r6, r7, r8, r9, sl, pc}
 800478c:	1c59      	adds	r1, r3, #1
 800478e:	9103      	str	r1, [sp, #12]
 8004790:	701a      	strb	r2, [r3, #0]
 8004792:	e7f0      	b.n	8004776 <__cvt+0xa6>

08004794 <__exponent>:
 8004794:	b5f7      	push	{r0, r1, r2, r4, r5, r6, r7, lr}
 8004796:	4603      	mov	r3, r0
 8004798:	2900      	cmp	r1, #0
 800479a:	bfb8      	it	lt
 800479c:	4249      	neglt	r1, r1
 800479e:	f803 2b02 	strb.w	r2, [r3], #2
 80047a2:	bfb4      	ite	lt
 80047a4:	222d      	movlt	r2, #45	; 0x2d
 80047a6:	222b      	movge	r2, #43	; 0x2b
 80047a8:	2909      	cmp	r1, #9
 80047aa:	7042      	strb	r2, [r0, #1]
 80047ac:	dd2a      	ble.n	8004804 <__exponent+0x70>
 80047ae:	f10d 0407 	add.w	r4, sp, #7
 80047b2:	46a4      	mov	ip, r4
 80047b4:	270a      	movs	r7, #10
 80047b6:	46a6      	mov	lr, r4
 80047b8:	460a      	mov	r2, r1
 80047ba:	fb91 f6f7 	sdiv	r6, r1, r7
 80047be:	fb07 1516 	mls	r5, r7, r6, r1
 80047c2:	3530      	adds	r5, #48	; 0x30
 80047c4:	2a63      	cmp	r2, #99	; 0x63
 80047c6:	f104 34ff 	add.w	r4, r4, #4294967295
 80047ca:	f80e 5c01 	strb.w	r5, [lr, #-1]
 80047ce:	4631      	mov	r1, r6
 80047d0:	dcf1      	bgt.n	80047b6 <__exponent+0x22>
 80047d2:	3130      	adds	r1, #48	; 0x30
 80047d4:	f1ae 0502 	sub.w	r5, lr, #2
 80047d8:	f804 1c01 	strb.w	r1, [r4, #-1]
 80047dc:	1c44      	adds	r4, r0, #1
 80047de:	4629      	mov	r1, r5
 80047e0:	4561      	cmp	r1, ip
 80047e2:	d30a      	bcc.n	80047fa <__exponent+0x66>
 80047e4:	f10d 0209 	add.w	r2, sp, #9
 80047e8:	eba2 020e 	sub.w	r2, r2, lr
 80047ec:	4565      	cmp	r5, ip
 80047ee:	bf88      	it	hi
 80047f0:	2200      	movhi	r2, #0
 80047f2:	4413      	add	r3, r2
 80047f4:	1a18      	subs	r0, r3, r0
 80047f6:	b003      	add	sp, #12
 80047f8:	bdf0      	pop	{r4, r5, r6, r7, pc}
 80047fa:	f811 2b01 	ldrb.w	r2, [r1], #1
 80047fe:	f804 2f01 	strb.w	r2, [r4, #1]!
 8004802:	e7ed      	b.n	80047e0 <__exponent+0x4c>
 8004804:	2330      	movs	r3, #48	; 0x30
 8004806:	3130      	adds	r1, #48	; 0x30
 8004808:	7083      	strb	r3, [r0, #2]
 800480a:	70c1      	strb	r1, [r0, #3]
 800480c:	1d03      	adds	r3, r0, #4
 800480e:	e7f1      	b.n	80047f4 <__exponent+0x60>

08004810 <_printf_float>:
 8004810:	e92d 4ff0 	stmdb	sp!, {r4, r5, r6, r7, r8, r9, sl, fp, lr}
 8004814:	ed2d 8b02 	vpush	{d8}
 8004818:	b08d      	sub	sp, #52	; 0x34
 800481a:	460c      	mov	r4, r1
 800481c:	f8dd 8060 	ldr.w	r8, [sp, #96]	; 0x60
 8004820:	4616      	mov	r6, r2
 8004822:	461f      	mov	r7, r3
 8004824:	4605      	mov	r5, r0
 8004826:	f001 fa57 	bl	8005cd8 <_localeconv_r>
 800482a:	f8d0 a000 	ldr.w	sl, [r0]
 800482e:	4650      	mov	r0, sl
 8004830:	f7fb fcee 	bl	8000210 <strlen>
 8004834:	2300      	movs	r3, #0
 8004836:	930a      	str	r3, [sp, #40]	; 0x28
 8004838:	6823      	ldr	r3, [r4, #0]
 800483a:	9305      	str	r3, [sp, #20]
 800483c:	f8d8 3000 	ldr.w	r3, [r8]
 8004840:	f894 b018 	ldrb.w	fp, [r4, #24]
 8004844:	3307      	adds	r3, #7
 8004846:	f023 0307 	bic.w	r3, r3, #7
 800484a:	f103 0208 	add.w	r2, r3, #8
 800484e:	f8c8 2000 	str.w	r2, [r8]
 8004852:	e9d3 2300 	ldrd	r2, r3, [r3]
 8004856:	e9c4 2312 	strd	r2, r3, [r4, #72]	; 0x48
 800485a:	e9d4 8912 	ldrd	r8, r9, [r4, #72]	; 0x48
 800485e:	f029 4300 	bic.w	r3, r9, #2147483648	; 0x80000000
 8004862:	9307      	str	r3, [sp, #28]
 8004864:	f8cd 8018 	str.w	r8, [sp, #24]
 8004868:	ee08 0a10 	vmov	s16, r0
 800486c:	4b9f      	ldr	r3, [pc, #636]	; (8004aec <_printf_float+0x2dc>)
 800486e:	e9dd 0106 	ldrd	r0, r1, [sp, #24]
 8004872:	f04f 32ff 	mov.w	r2, #4294967295
 8004876:	f7fc f979 	bl	8000b6c <__aeabi_dcmpun>
 800487a:	bb88      	cbnz	r0, 80048e0 <_printf_float+0xd0>
 800487c:	e9dd 0106 	ldrd	r0, r1, [sp, #24]
 8004880:	4b9a      	ldr	r3, [pc, #616]	; (8004aec <_printf_float+0x2dc>)
 8004882:	f04f 32ff 	mov.w	r2, #4294967295
 8004886:	f7fc f953 	bl	8000b30 <__aeabi_dcmple>
 800488a:	bb48      	cbnz	r0, 80048e0 <_printf_float+0xd0>
 800488c:	2200      	movs	r2, #0
 800488e:	2300      	movs	r3, #0
 8004890:	4640      	mov	r0, r8
 8004892:	4649      	mov	r1, r9
 8004894:	f7fc f942 	bl	8000b1c <__aeabi_dcmplt>
 8004898:	b110      	cbz	r0, 80048a0 <_printf_float+0x90>
 800489a:	232d      	movs	r3, #45	; 0x2d
 800489c:	f884 3043 	strb.w	r3, [r4, #67]	; 0x43
 80048a0:	4b93      	ldr	r3, [pc, #588]	; (8004af0 <_printf_float+0x2e0>)
 80048a2:	4894      	ldr	r0, [pc, #592]	; (8004af4 <_printf_float+0x2e4>)
 80048a4:	f1bb 0f47 	cmp.w	fp, #71	; 0x47
 80048a8:	bf94      	ite	ls
 80048aa:	4698      	movls	r8, r3
 80048ac:	4680      	movhi	r8, r0
 80048ae:	2303      	movs	r3, #3
 80048b0:	6123      	str	r3, [r4, #16]
 80048b2:	9b05      	ldr	r3, [sp, #20]
 80048b4:	f023 0204 	bic.w	r2, r3, #4
 80048b8:	6022      	str	r2, [r4, #0]
 80048ba:	f04f 0900 	mov.w	r9, #0
 80048be:	9700      	str	r7, [sp, #0]
 80048c0:	4633      	mov	r3, r6
 80048c2:	aa0b      	add	r2, sp, #44	; 0x2c
 80048c4:	4621      	mov	r1, r4
 80048c6:	4628      	mov	r0, r5
 80048c8:	f000 f9d8 	bl	8004c7c <_printf_common>
 80048cc:	3001      	adds	r0, #1
 80048ce:	f040 8090 	bne.w	80049f2 <_printf_float+0x1e2>
 80048d2:	f04f 30ff 	mov.w	r0, #4294967295
 80048d6:	b00d      	add	sp, #52	; 0x34
 80048d8:	ecbd 8b02 	vpop	{d8}
 80048dc:	e8bd 8ff0 	ldmia.w	sp!, {r4, r5, r6, r7, r8, r9, sl, fp, pc}
 80048e0:	4642      	mov	r2, r8
 80048e2:	464b      	mov	r3, r9
 80048e4:	4640      	mov	r0, r8
 80048e6:	4649      	mov	r1, r9
 80048e8:	f7fc f940 	bl	8000b6c <__aeabi_dcmpun>
 80048ec:	b140      	cbz	r0, 8004900 <_printf_float+0xf0>
 80048ee:	464b      	mov	r3, r9
 80048f0:	2b00      	cmp	r3, #0
 80048f2:	bfbc      	itt	lt
 80048f4:	232d      	movlt	r3, #45	; 0x2d
 80048f6:	f884 3043 	strblt.w	r3, [r4, #67]	; 0x43
 80048fa:	487f      	ldr	r0, [pc, #508]	; (8004af8 <_printf_float+0x2e8>)
 80048fc:	4b7f      	ldr	r3, [pc, #508]	; (8004afc <_printf_float+0x2ec>)
 80048fe:	e7d1      	b.n	80048a4 <_printf_float+0x94>
 8004900:	6863      	ldr	r3, [r4, #4]
 8004902:	f00b 02df 	and.w	r2, fp, #223	; 0xdf
 8004906:	9206      	str	r2, [sp, #24]
 8004908:	1c5a      	adds	r2, r3, #1
 800490a:	d13f      	bne.n	800498c <_printf_float+0x17c>
 800490c:	2306      	movs	r3, #6
 800490e:	6063      	str	r3, [r4, #4]
 8004910:	9b05      	ldr	r3, [sp, #20]
 8004912:	6861      	ldr	r1, [r4, #4]
 8004914:	f443 6280 	orr.w	r2, r3, #1024	; 0x400
 8004918:	2300      	movs	r3, #0
 800491a:	9303      	str	r3, [sp, #12]
 800491c:	ab0a      	add	r3, sp, #40	; 0x28
 800491e:	e9cd b301 	strd	fp, r3, [sp, #4]
 8004922:	ab09      	add	r3, sp, #36	; 0x24
 8004924:	ec49 8b10 	vmov	d0, r8, r9
 8004928:	9300      	str	r3, [sp, #0]
 800492a:	6022      	str	r2, [r4, #0]
 800492c:	f10d 0323 	add.w	r3, sp, #35	; 0x23
 8004930:	4628      	mov	r0, r5
 8004932:	f7ff fecd 	bl	80046d0 <__cvt>
 8004936:	9b06      	ldr	r3, [sp, #24]
 8004938:	9909      	ldr	r1, [sp, #36]	; 0x24
 800493a:	2b47      	cmp	r3, #71	; 0x47
 800493c:	4680      	mov	r8, r0
 800493e:	d108      	bne.n	8004952 <_printf_float+0x142>
 8004940:	1cc8      	adds	r0, r1, #3
 8004942:	db02      	blt.n	800494a <_printf_float+0x13a>
 8004944:	6863      	ldr	r3, [r4, #4]
 8004946:	4299      	cmp	r1, r3
 8004948:	dd41      	ble.n	80049ce <_printf_float+0x1be>
 800494a:	f1ab 0b02 	sub.w	fp, fp, #2
 800494e:	fa5f fb8b 	uxtb.w	fp, fp
 8004952:	f1bb 0f65 	cmp.w	fp, #101	; 0x65
 8004956:	d820      	bhi.n	800499a <_printf_float+0x18a>
 8004958:	3901      	subs	r1, #1
 800495a:	465a      	mov	r2, fp
 800495c:	f104 0050 	add.w	r0, r4, #80	; 0x50
 8004960:	9109      	str	r1, [sp, #36]	; 0x24
 8004962:	f7ff ff17 	bl	8004794 <__exponent>
 8004966:	9a0a      	ldr	r2, [sp, #40]	; 0x28
 8004968:	1813      	adds	r3, r2, r0
 800496a:	2a01      	cmp	r2, #1
 800496c:	4681      	mov	r9, r0
 800496e:	6123      	str	r3, [r4, #16]
 8004970:	dc02      	bgt.n	8004978 <_printf_float+0x168>
 8004972:	6822      	ldr	r2, [r4, #0]
 8004974:	07d2      	lsls	r2, r2, #31
 8004976:	d501      	bpl.n	800497c <_printf_float+0x16c>
 8004978:	3301      	adds	r3, #1
 800497a:	6123      	str	r3, [r4, #16]
 800497c:	f89d 3023 	ldrb.w	r3, [sp, #35]	; 0x23
 8004980:	2b00      	cmp	r3, #0
 8004982:	d09c      	beq.n	80048be <_printf_float+0xae>
 8004984:	232d      	movs	r3, #45	; 0x2d
 8004986:	f884 3043 	strb.w	r3, [r4, #67]	; 0x43
 800498a:	e798      	b.n	80048be <_printf_float+0xae>
 800498c:	9a06      	ldr	r2, [sp, #24]
 800498e:	2a47      	cmp	r2, #71	; 0x47
 8004990:	d1be      	bne.n	8004910 <_printf_float+0x100>
 8004992:	2b00      	cmp	r3, #0
 8004994:	d1bc      	bne.n	8004910 <_printf_float+0x100>
 8004996:	2301      	movs	r3, #1
 8004998:	e7b9      	b.n	800490e <_printf_float+0xfe>
 800499a:	f1bb 0f66 	cmp.w	fp, #102	; 0x66
 800499e:	d118      	bne.n	80049d2 <_printf_float+0x1c2>
 80049a0:	2900      	cmp	r1, #0
 80049a2:	6863      	ldr	r3, [r4, #4]
 80049a4:	dd0b      	ble.n	80049be <_printf_float+0x1ae>
 80049a6:	6121      	str	r1, [r4, #16]
 80049a8:	b913      	cbnz	r3, 80049b0 <_printf_float+0x1a0>
 80049aa:	6822      	ldr	r2, [r4, #0]
 80049ac:	07d0      	lsls	r0, r2, #31
 80049ae:	d502      	bpl.n	80049b6 <_printf_float+0x1a6>
 80049b0:	3301      	adds	r3, #1
 80049b2:	440b      	add	r3, r1
 80049b4:	6123      	str	r3, [r4, #16]
 80049b6:	65a1      	str	r1, [r4, #88]	; 0x58
 80049b8:	f04f 0900 	mov.w	r9, #0
 80049bc:	e7de      	b.n	800497c <_printf_float+0x16c>
 80049be:	b913      	cbnz	r3, 80049c6 <_printf_float+0x1b6>
 80049c0:	6822      	ldr	r2, [r4, #0]
 80049c2:	07d2      	lsls	r2, r2, #31
 80049c4:	d501      	bpl.n	80049ca <_printf_float+0x1ba>
 80049c6:	3302      	adds	r3, #2
 80049c8:	e7f4      	b.n	80049b4 <_printf_float+0x1a4>
 80049ca:	2301      	movs	r3, #1
 80049cc:	e7f2      	b.n	80049b4 <_printf_float+0x1a4>
 80049ce:	f04f 0b67 	mov.w	fp, #103	; 0x67
 80049d2:	9b0a      	ldr	r3, [sp, #40]	; 0x28
 80049d4:	4299      	cmp	r1, r3
 80049d6:	db05      	blt.n	80049e4 <_printf_float+0x1d4>
 80049d8:	6823      	ldr	r3, [r4, #0]
 80049da:	6121      	str	r1, [r4, #16]
 80049dc:	07d8      	lsls	r0, r3, #31
 80049de:	d5ea      	bpl.n	80049b6 <_printf_float+0x1a6>
 80049e0:	1c4b      	adds	r3, r1, #1
 80049e2:	e7e7      	b.n	80049b4 <_printf_float+0x1a4>
 80049e4:	2900      	cmp	r1, #0
 80049e6:	bfd4      	ite	le
 80049e8:	f1c1 0202 	rsble	r2, r1, #2
 80049ec:	2201      	movgt	r2, #1
 80049ee:	4413      	add	r3, r2
 80049f0:	e7e0      	b.n	80049b4 <_printf_float+0x1a4>
 80049f2:	6823      	ldr	r3, [r4, #0]
 80049f4:	055a      	lsls	r2, r3, #21
 80049f6:	d407      	bmi.n	8004a08 <_printf_float+0x1f8>
 80049f8:	6923      	ldr	r3, [r4, #16]
 80049fa:	4642      	mov	r2, r8
 80049fc:	4631      	mov	r1, r6
 80049fe:	4628      	mov	r0, r5
 8004a00:	47b8      	blx	r7
 8004a02:	3001      	adds	r0, #1
 8004a04:	d12c      	bne.n	8004a60 <_printf_float+0x250>
 8004a06:	e764      	b.n	80048d2 <_printf_float+0xc2>
 8004a08:	f1bb 0f65 	cmp.w	fp, #101	; 0x65
 8004a0c:	f240 80e0 	bls.w	8004bd0 <_printf_float+0x3c0>
 8004a10:	e9d4 0112 	ldrd	r0, r1, [r4, #72]	; 0x48
 8004a14:	2200      	movs	r2, #0
 8004a16:	2300      	movs	r3, #0
 8004a18:	f7fc f876 	bl	8000b08 <__aeabi_dcmpeq>
 8004a1c:	2800      	cmp	r0, #0
 8004a1e:	d034      	beq.n	8004a8a <_printf_float+0x27a>
 8004a20:	4a37      	ldr	r2, [pc, #220]	; (8004b00 <_printf_float+0x2f0>)
 8004a22:	2301      	movs	r3, #1
 8004a24:	4631      	mov	r1, r6
 8004a26:	4628      	mov	r0, r5
 8004a28:	47b8      	blx	r7
 8004a2a:	3001      	adds	r0, #1
 8004a2c:	f43f af51 	beq.w	80048d2 <_printf_float+0xc2>
 8004a30:	e9dd 2309 	ldrd	r2, r3, [sp, #36]	; 0x24
 8004a34:	429a      	cmp	r2, r3
 8004a36:	db02      	blt.n	8004a3e <_printf_float+0x22e>
 8004a38:	6823      	ldr	r3, [r4, #0]
 8004a3a:	07d8      	lsls	r0, r3, #31
 8004a3c:	d510      	bpl.n	8004a60 <_printf_float+0x250>
 8004a3e:	ee18 3a10 	vmov	r3, s16
 8004a42:	4652      	mov	r2, sl
 8004a44:	4631      	mov	r1, r6
 8004a46:	4628      	mov	r0, r5
 8004a48:	47b8      	blx	r7
 8004a4a:	3001      	adds	r0, #1
 8004a4c:	f43f af41 	beq.w	80048d2 <_printf_float+0xc2>
 8004a50:	f04f 0800 	mov.w	r8, #0
 8004a54:	f104 091a 	add.w	r9, r4, #26
 8004a58:	9b0a      	ldr	r3, [sp, #40]	; 0x28
 8004a5a:	3b01      	subs	r3, #1
 8004a5c:	4543      	cmp	r3, r8
 8004a5e:	dc09      	bgt.n	8004a74 <_printf_float+0x264>
 8004a60:	6823      	ldr	r3, [r4, #0]
 8004a62:	079b      	lsls	r3, r3, #30
 8004a64:	f100 8105 	bmi.w	8004c72 <_printf_float+0x462>
 8004a68:	68e0      	ldr	r0, [r4, #12]
 8004a6a:	9b0b      	ldr	r3, [sp, #44]	; 0x2c
 8004a6c:	4298      	cmp	r0, r3
 8004a6e:	bfb8      	it	lt
 8004a70:	4618      	movlt	r0, r3
 8004a72:	e730      	b.n	80048d6 <_printf_float+0xc6>
 8004a74:	2301      	movs	r3, #1
 8004a76:	464a      	mov	r2, r9
 8004a78:	4631      	mov	r1, r6
 8004a7a:	4628      	mov	r0, r5
 8004a7c:	47b8      	blx	r7
 8004a7e:	3001      	adds	r0, #1
 8004a80:	f43f af27 	beq.w	80048d2 <_printf_float+0xc2>
 8004a84:	f108 0801 	add.w	r8, r8, #1
 8004a88:	e7e6      	b.n	8004a58 <_printf_float+0x248>
 8004a8a:	9b09      	ldr	r3, [sp, #36]	; 0x24
 8004a8c:	2b00      	cmp	r3, #0
 8004a8e:	dc39      	bgt.n	8004b04 <_printf_float+0x2f4>
 8004a90:	4a1b      	ldr	r2, [pc, #108]	; (8004b00 <_printf_float+0x2f0>)
 8004a92:	2301      	movs	r3, #1
 8004a94:	4631      	mov	r1, r6
 8004a96:	4628      	mov	r0, r5
 8004a98:	47b8      	blx	r7
 8004a9a:	3001      	adds	r0, #1
 8004a9c:	f43f af19 	beq.w	80048d2 <_printf_float+0xc2>
 8004aa0:	e9dd 2309 	ldrd	r2, r3, [sp, #36]	; 0x24
 8004aa4:	4313      	orrs	r3, r2
 8004aa6:	d102      	bne.n	8004aae <_printf_float+0x29e>
 8004aa8:	6823      	ldr	r3, [r4, #0]
 8004aaa:	07d9      	lsls	r1, r3, #31
 8004aac:	d5d8      	bpl.n	8004a60 <_printf_float+0x250>
 8004aae:	ee18 3a10 	vmov	r3, s16
 8004ab2:	4652      	mov	r2, sl
 8004ab4:	4631      	mov	r1, r6
 8004ab6:	4628      	mov	r0, r5
 8004ab8:	47b8      	blx	r7
 8004aba:	3001      	adds	r0, #1
 8004abc:	f43f af09 	beq.w	80048d2 <_printf_float+0xc2>
 8004ac0:	f04f 0900 	mov.w	r9, #0
 8004ac4:	f104 0a1a 	add.w	sl, r4, #26
 8004ac8:	9b09      	ldr	r3, [sp, #36]	; 0x24
 8004aca:	425b      	negs	r3, r3
 8004acc:	454b      	cmp	r3, r9
 8004ace:	dc01      	bgt.n	8004ad4 <_printf_float+0x2c4>
 8004ad0:	9b0a      	ldr	r3, [sp, #40]	; 0x28
 8004ad2:	e792      	b.n	80049fa <_printf_float+0x1ea>
 8004ad4:	2301      	movs	r3, #1
 8004ad6:	4652      	mov	r2, sl
 8004ad8:	4631      	mov	r1, r6
 8004ada:	4628      	mov	r0, r5
 8004adc:	47b8      	blx	r7
 8004ade:	3001      	adds	r0, #1
 8004ae0:	f43f aef7 	beq.w	80048d2 <_printf_float+0xc2>
 8004ae4:	f109 0901 	add.w	r9, r9, #1
 8004ae8:	e7ee      	b.n	8004ac8 <_printf_float+0x2b8>
 8004aea:	bf00      	nop
 8004aec:	7fefffff 	.word	0x7fefffff
 8004af0:	08007440 	.word	0x08007440
 8004af4:	08007444 	.word	0x08007444
 8004af8:	0800744c 	.word	0x0800744c
 8004afc:	08007448 	.word	0x08007448
 8004b00:	08007450 	.word	0x08007450
 8004b04:	9a0a      	ldr	r2, [sp, #40]	; 0x28
 8004b06:	6da3      	ldr	r3, [r4, #88]	; 0x58
 8004b08:	429a      	cmp	r2, r3
 8004b0a:	bfa8      	it	ge
 8004b0c:	461a      	movge	r2, r3
 8004b0e:	2a00      	cmp	r2, #0
 8004b10:	4691      	mov	r9, r2
 8004b12:	dc37      	bgt.n	8004b84 <_printf_float+0x374>
 8004b14:	f04f 0b00 	mov.w	fp, #0
 8004b18:	ea29 79e9 	bic.w	r9, r9, r9, asr #31
 8004b1c:	f104 021a 	add.w	r2, r4, #26
 8004b20:	6da3      	ldr	r3, [r4, #88]	; 0x58
 8004b22:	9305      	str	r3, [sp, #20]
 8004b24:	eba3 0309 	sub.w	r3, r3, r9
 8004b28:	455b      	cmp	r3, fp
 8004b2a:	dc33      	bgt.n	8004b94 <_printf_float+0x384>
 8004b2c:	e9dd 2309 	ldrd	r2, r3, [sp, #36]	; 0x24
 8004b30:	429a      	cmp	r2, r3
 8004b32:	db3b      	blt.n	8004bac <_printf_float+0x39c>
 8004b34:	6823      	ldr	r3, [r4, #0]
 8004b36:	07da      	lsls	r2, r3, #31
 8004b38:	d438      	bmi.n	8004bac <_printf_float+0x39c>
 8004b3a:	9a0a      	ldr	r2, [sp, #40]	; 0x28
 8004b3c:	9b05      	ldr	r3, [sp, #20]
 8004b3e:	9909      	ldr	r1, [sp, #36]	; 0x24
 8004b40:	1ad3      	subs	r3, r2, r3
 8004b42:	eba2 0901 	sub.w	r9, r2, r1
 8004b46:	4599      	cmp	r9, r3
 8004b48:	bfa8      	it	ge
 8004b4a:	4699      	movge	r9, r3
 8004b4c:	f1b9 0f00 	cmp.w	r9, #0
 8004b50:	dc35      	bgt.n	8004bbe <_printf_float+0x3ae>
 8004b52:	f04f 0800 	mov.w	r8, #0
 8004b56:	ea29 79e9 	bic.w	r9, r9, r9, asr #31
 8004b5a:	f104 0a1a 	add.w	sl, r4, #26
 8004b5e:	e9dd 2309 	ldrd	r2, r3, [sp, #36]	; 0x24
 8004b62:	1a9b      	subs	r3, r3, r2
 8004b64:	eba3 0309 	sub.w	r3, r3, r9
 8004b68:	4543      	cmp	r3, r8
 8004b6a:	f77f af79 	ble.w	8004a60 <_printf_float+0x250>
 8004b6e:	2301      	movs	r3, #1
 8004b70:	4652      	mov	r2, sl
 8004b72:	4631      	mov	r1, r6
 8004b74:	4628      	mov	r0, r5
 8004b76:	47b8      	blx	r7
 8004b78:	3001      	adds	r0, #1
 8004b7a:	f43f aeaa 	beq.w	80048d2 <_printf_float+0xc2>
 8004b7e:	f108 0801 	add.w	r8, r8, #1
 8004b82:	e7ec      	b.n	8004b5e <_printf_float+0x34e>
 8004b84:	4613      	mov	r3, r2
 8004b86:	4631      	mov	r1, r6
 8004b88:	4642      	mov	r2, r8
 8004b8a:	4628      	mov	r0, r5
 8004b8c:	47b8      	blx	r7
 8004b8e:	3001      	adds	r0, #1
 8004b90:	d1c0      	bne.n	8004b14 <_printf_float+0x304>
 8004b92:	e69e      	b.n	80048d2 <_printf_float+0xc2>
 8004b94:	2301      	movs	r3, #1
 8004b96:	4631      	mov	r1, r6
 8004b98:	4628      	mov	r0, r5
 8004b9a:	9205      	str	r2, [sp, #20]
 8004b9c:	47b8      	blx	r7
 8004b9e:	3001      	adds	r0, #1
 8004ba0:	f43f ae97 	beq.w	80048d2 <_printf_float+0xc2>
 8004ba4:	9a05      	ldr	r2, [sp, #20]
 8004ba6:	f10b 0b01 	add.w	fp, fp, #1
 8004baa:	e7b9      	b.n	8004b20 <_printf_float+0x310>
 8004bac:	ee18 3a10 	vmov	r3, s16
 8004bb0:	4652      	mov	r2, sl
 8004bb2:	4631      	mov	r1, r6
 8004bb4:	4628      	mov	r0, r5
 8004bb6:	47b8      	blx	r7
 8004bb8:	3001      	adds	r0, #1
 8004bba:	d1be      	bne.n	8004b3a <_printf_float+0x32a>
 8004bbc:	e689      	b.n	80048d2 <_printf_float+0xc2>
 8004bbe:	9a05      	ldr	r2, [sp, #20]
 8004bc0:	464b      	mov	r3, r9
 8004bc2:	4442      	add	r2, r8
 8004bc4:	4631      	mov	r1, r6
 8004bc6:	4628      	mov	r0, r5
 8004bc8:	47b8      	blx	r7
 8004bca:	3001      	adds	r0, #1
 8004bcc:	d1c1      	bne.n	8004b52 <_printf_float+0x342>
 8004bce:	e680      	b.n	80048d2 <_printf_float+0xc2>
 8004bd0:	9a0a      	ldr	r2, [sp, #40]	; 0x28
 8004bd2:	2a01      	cmp	r2, #1
 8004bd4:	dc01      	bgt.n	8004bda <_printf_float+0x3ca>
 8004bd6:	07db      	lsls	r3, r3, #31
 8004bd8:	d538      	bpl.n	8004c4c <_printf_float+0x43c>
 8004bda:	2301      	movs	r3, #1
 8004bdc:	4642      	mov	r2, r8
 8004bde:	4631      	mov	r1, r6
 8004be0:	4628      	mov	r0, r5
 8004be2:	47b8      	blx	r7
 8004be4:	3001      	adds	r0, #1
 8004be6:	f43f ae74 	beq.w	80048d2 <_printf_float+0xc2>
 8004bea:	ee18 3a10 	vmov	r3, s16
 8004bee:	4652      	mov	r2, sl
 8004bf0:	4631      	mov	r1, r6
 8004bf2:	4628      	mov	r0, r5
 8004bf4:	47b8      	blx	r7
 8004bf6:	3001      	adds	r0, #1
 8004bf8:	f43f ae6b 	beq.w	80048d2 <_printf_float+0xc2>
 8004bfc:	e9d4 0112 	ldrd	r0, r1, [r4, #72]	; 0x48
 8004c00:	2200      	movs	r2, #0
 8004c02:	2300      	movs	r3, #0
 8004c04:	f7fb ff80 	bl	8000b08 <__aeabi_dcmpeq>
 8004c08:	b9d8      	cbnz	r0, 8004c42 <_printf_float+0x432>
 8004c0a:	9b0a      	ldr	r3, [sp, #40]	; 0x28
 8004c0c:	f108 0201 	add.w	r2, r8, #1
 8004c10:	3b01      	subs	r3, #1
 8004c12:	4631      	mov	r1, r6
 8004c14:	4628      	mov	r0, r5
 8004c16:	47b8      	blx	r7
 8004c18:	3001      	adds	r0, #1
 8004c1a:	d10e      	bne.n	8004c3a <_printf_float+0x42a>
 8004c1c:	e659      	b.n	80048d2 <_printf_float+0xc2>
 8004c1e:	2301      	movs	r3, #1
 8004c20:	4652      	mov	r2, sl
 8004c22:	4631      	mov	r1, r6
 8004c24:	4628      	mov	r0, r5
 8004c26:	47b8      	blx	r7
 8004c28:	3001      	adds	r0, #1
 8004c2a:	f43f ae52 	beq.w	80048d2 <_printf_float+0xc2>
 8004c2e:	f108 0801 	add.w	r8, r8, #1
 8004c32:	9b0a      	ldr	r3, [sp, #40]	; 0x28
 8004c34:	3b01      	subs	r3, #1
 8004c36:	4543      	cmp	r3, r8
 8004c38:	dcf1      	bgt.n	8004c1e <_printf_float+0x40e>
 8004c3a:	464b      	mov	r3, r9
 8004c3c:	f104 0250 	add.w	r2, r4, #80	; 0x50
 8004c40:	e6dc      	b.n	80049fc <_printf_float+0x1ec>
 8004c42:	f04f 0800 	mov.w	r8, #0
 8004c46:	f104 0a1a 	add.w	sl, r4, #26
 8004c4a:	e7f2      	b.n	8004c32 <_printf_float+0x422>
 8004c4c:	2301      	movs	r3, #1
 8004c4e:	4642      	mov	r2, r8
 8004c50:	e7df      	b.n	8004c12 <_printf_float+0x402>
 8004c52:	2301      	movs	r3, #1
 8004c54:	464a      	mov	r2, r9
 8004c56:	4631      	mov	r1, r6
 8004c58:	4628      	mov	r0, r5
 8004c5a:	47b8      	blx	r7
 8004c5c:	3001      	adds	r0, #1
 8004c5e:	f43f ae38 	beq.w	80048d2 <_printf_float+0xc2>
 8004c62:	f108 0801 	add.w	r8, r8, #1
 8004c66:	68e3      	ldr	r3, [r4, #12]
 8004c68:	990b      	ldr	r1, [sp, #44]	; 0x2c
 8004c6a:	1a5b      	subs	r3, r3, r1
 8004c6c:	4543      	cmp	r3, r8
 8004c6e:	dcf0      	bgt.n	8004c52 <_printf_float+0x442>
 8004c70:	e6fa      	b.n	8004a68 <_printf_float+0x258>
 8004c72:	f04f 0800 	mov.w	r8, #0
 8004c76:	f104 0919 	add.w	r9, r4, #25
 8004c7a:	e7f4      	b.n	8004c66 <_printf_float+0x456>

08004c7c <_printf_common>:
 8004c7c:	e92d 47f0 	stmdb	sp!, {r4, r5, r6, r7, r8, r9, sl, lr}
 8004c80:	4616      	mov	r6, r2
 8004c82:	4699      	mov	r9, r3
 8004c84:	688a      	ldr	r2, [r1, #8]
 8004c86:	690b      	ldr	r3, [r1, #16]
 8004c88:	f8dd 8020 	ldr.w	r8, [sp, #32]
 8004c8c:	4293      	cmp	r3, r2
 8004c8e:	bfb8      	it	lt
 8004c90:	4613      	movlt	r3, r2
 8004c92:	6033      	str	r3, [r6, #0]
 8004c94:	f891 2043 	ldrb.w	r2, [r1, #67]	; 0x43
 8004c98:	4607      	mov	r7, r0
 8004c9a:	460c      	mov	r4, r1
 8004c9c:	b10a      	cbz	r2, 8004ca2 <_printf_common+0x26>
 8004c9e:	3301      	adds	r3, #1
 8004ca0:	6033      	str	r3, [r6, #0]
 8004ca2:	6823      	ldr	r3, [r4, #0]
 8004ca4:	0699      	lsls	r1, r3, #26
 8004ca6:	bf42      	ittt	mi
 8004ca8:	6833      	ldrmi	r3, [r6, #0]
 8004caa:	3302      	addmi	r3, #2
 8004cac:	6033      	strmi	r3, [r6, #0]
 8004cae:	6825      	ldr	r5, [r4, #0]
 8004cb0:	f015 0506 	ands.w	r5, r5, #6
 8004cb4:	d106      	bne.n	8004cc4 <_printf_common+0x48>
 8004cb6:	f104 0a19 	add.w	sl, r4, #25
 8004cba:	68e3      	ldr	r3, [r4, #12]
 8004cbc:	6832      	ldr	r2, [r6, #0]
 8004cbe:	1a9b      	subs	r3, r3, r2
 8004cc0:	42ab      	cmp	r3, r5
 8004cc2:	dc26      	bgt.n	8004d12 <_printf_common+0x96>
 8004cc4:	f894 2043 	ldrb.w	r2, [r4, #67]	; 0x43
 8004cc8:	1e13      	subs	r3, r2, #0
 8004cca:	6822      	ldr	r2, [r4, #0]
 8004ccc:	bf18      	it	ne
 8004cce:	2301      	movne	r3, #1
 8004cd0:	0692      	lsls	r2, r2, #26
 8004cd2:	d42b      	bmi.n	8004d2c <_printf_common+0xb0>
 8004cd4:	f104 0243 	add.w	r2, r4, #67	; 0x43
 8004cd8:	4649      	mov	r1, r9
 8004cda:	4638      	mov	r0, r7
 8004cdc:	47c0      	blx	r8
 8004cde:	3001      	adds	r0, #1
 8004ce0:	d01e      	beq.n	8004d20 <_printf_common+0xa4>
 8004ce2:	6823      	ldr	r3, [r4, #0]
 8004ce4:	68e5      	ldr	r5, [r4, #12]
 8004ce6:	6832      	ldr	r2, [r6, #0]
 8004ce8:	f003 0306 	and.w	r3, r3, #6
 8004cec:	2b04      	cmp	r3, #4
 8004cee:	bf08      	it	eq
 8004cf0:	1aad      	subeq	r5, r5, r2
 8004cf2:	68a3      	ldr	r3, [r4, #8]
 8004cf4:	6922      	ldr	r2, [r4, #16]
 8004cf6:	bf0c      	ite	eq
 8004cf8:	ea25 75e5 	biceq.w	r5, r5, r5, asr #31
 8004cfc:	2500      	movne	r5, #0
 8004cfe:	4293      	cmp	r3, r2
 8004d00:	bfc4      	itt	gt
 8004d02:	1a9b      	subgt	r3, r3, r2
 8004d04:	18ed      	addgt	r5, r5, r3
 8004d06:	2600      	movs	r6, #0
 8004d08:	341a      	adds	r4, #26
 8004d0a:	42b5      	cmp	r5, r6
 8004d0c:	d11a      	bne.n	8004d44 <_printf_common+0xc8>
 8004d0e:	2000      	movs	r0, #0
 8004d10:	e008      	b.n	8004d24 <_printf_common+0xa8>
 8004d12:	2301      	movs	r3, #1
 8004d14:	4652      	mov	r2, sl
 8004d16:	4649      	mov	r1, r9
 8004d18:	4638      	mov	r0, r7
 8004d1a:	47c0      	blx	r8
 8004d1c:	3001      	adds	r0, #1
 8004d1e:	d103      	bne.n	8004d28 <_printf_common+0xac>
 8004d20:	f04f 30ff 	mov.w	r0, #4294967295
 8004d24:	e8bd 87f0 	ldmia.w	sp!, {r4, r5, r6, r7, r8, r9, sl, pc}
 8004d28:	3501      	adds	r5, #1
 8004d2a:	e7c6      	b.n	8004cba <_printf_common+0x3e>
 8004d2c:	18e1      	adds	r1, r4, r3
 8004d2e:	1c5a      	adds	r2, r3, #1
 8004d30:	2030      	movs	r0, #48	; 0x30
 8004d32:	f881 0043 	strb.w	r0, [r1, #67]	; 0x43
 8004d36:	4422      	add	r2, r4
 8004d38:	f894 1045 	ldrb.w	r1, [r4, #69]	; 0x45
 8004d3c:	f882 1043 	strb.w	r1, [r2, #67]	; 0x43
 8004d40:	3302      	adds	r3, #2
 8004d42:	e7c7      	b.n	8004cd4 <_printf_common+0x58>
 8004d44:	2301      	movs	r3, #1
 8004d46:	4622      	mov	r2, r4
 8004d48:	4649      	mov	r1, r9
 8004d4a:	4638      	mov	r0, r7
 8004d4c:	47c0      	blx	r8
 8004d4e:	3001      	adds	r0, #1
 8004d50:	d0e6      	beq.n	8004d20 <_printf_common+0xa4>
 8004d52:	3601      	adds	r6, #1
 8004d54:	e7d9      	b.n	8004d0a <_printf_common+0x8e>
	...

08004d58 <_printf_i>:
 8004d58:	e92d 47ff 	stmdb	sp!, {r0, r1, r2, r3, r4, r5, r6, r7, r8, r9, sl, lr}
 8004d5c:	460c      	mov	r4, r1
 8004d5e:	4691      	mov	r9, r2
 8004d60:	7e27      	ldrb	r7, [r4, #24]
 8004d62:	990c      	ldr	r1, [sp, #48]	; 0x30
 8004d64:	2f78      	cmp	r7, #120	; 0x78
 8004d66:	4680      	mov	r8, r0
 8004d68:	469a      	mov	sl, r3
 8004d6a:	f104 0243 	add.w	r2, r4, #67	; 0x43
 8004d6e:	d807      	bhi.n	8004d80 <_printf_i+0x28>
 8004d70:	2f62      	cmp	r7, #98	; 0x62
 8004d72:	d80a      	bhi.n	8004d8a <_printf_i+0x32>
 8004d74:	2f00      	cmp	r7, #0
 8004d76:	f000 80d8 	beq.w	8004f2a <_printf_i+0x1d2>
 8004d7a:	2f58      	cmp	r7, #88	; 0x58
 8004d7c:	f000 80a3 	beq.w	8004ec6 <_printf_i+0x16e>
 8004d80:	f104 0642 	add.w	r6, r4, #66	; 0x42
 8004d84:	f884 7042 	strb.w	r7, [r4, #66]	; 0x42
 8004d88:	e03a      	b.n	8004e00 <_printf_i+0xa8>
 8004d8a:	f1a7 0363 	sub.w	r3, r7, #99	; 0x63
 8004d8e:	2b15      	cmp	r3, #21
 8004d90:	d8f6      	bhi.n	8004d80 <_printf_i+0x28>
 8004d92:	a001      	add	r0, pc, #4	; (adr r0, 8004d98 <_printf_i+0x40>)
 8004d94:	f850 f023 	ldr.w	pc, [r0, r3, lsl #2]
 8004d98:	08004df1 	.word	0x08004df1
 8004d9c:	08004e05 	.word	0x08004e05
 8004da0:	08004d81 	.word	0x08004d81
 8004da4:	08004d81 	.word	0x08004d81
 8004da8:	08004d81 	.word	0x08004d81
 8004dac:	08004d81 	.word	0x08004d81
 8004db0:	08004e05 	.word	0x08004e05
 8004db4:	08004d81 	.word	0x08004d81
 8004db8:	08004d81 	.word	0x08004d81
 8004dbc:	08004d81 	.word	0x08004d81
 8004dc0:	08004d81 	.word	0x08004d81
 8004dc4:	08004f11 	.word	0x08004f11
 8004dc8:	08004e35 	.word	0x08004e35
 8004dcc:	08004ef3 	.word	0x08004ef3
 8004dd0:	08004d81 	.word	0x08004d81
 8004dd4:	08004d81 	.word	0x08004d81
 8004dd8:	08004f33 	.word	0x08004f33
 8004ddc:	08004d81 	.word	0x08004d81
 8004de0:	08004e35 	.word	0x08004e35
 8004de4:	08004d81 	.word	0x08004d81
 8004de8:	08004d81 	.word	0x08004d81
 8004dec:	08004efb 	.word	0x08004efb
 8004df0:	680b      	ldr	r3, [r1, #0]
 8004df2:	1d1a      	adds	r2, r3, #4
 8004df4:	681b      	ldr	r3, [r3, #0]
 8004df6:	600a      	str	r2, [r1, #0]
 8004df8:	f104 0642 	add.w	r6, r4, #66	; 0x42
 8004dfc:	f884 3042 	strb.w	r3, [r4, #66]	; 0x42
 8004e00:	2301      	movs	r3, #1
 8004e02:	e0a3      	b.n	8004f4c <_printf_i+0x1f4>
 8004e04:	6825      	ldr	r5, [r4, #0]
 8004e06:	6808      	ldr	r0, [r1, #0]
 8004e08:	062e      	lsls	r6, r5, #24
 8004e0a:	f100 0304 	add.w	r3, r0, #4
 8004e0e:	d50a      	bpl.n	8004e26 <_printf_i+0xce>
 8004e10:	6805      	ldr	r5, [r0, #0]
 8004e12:	600b      	str	r3, [r1, #0]
 8004e14:	2d00      	cmp	r5, #0
 8004e16:	da03      	bge.n	8004e20 <_printf_i+0xc8>
 8004e18:	232d      	movs	r3, #45	; 0x2d
 8004e1a:	426d      	negs	r5, r5
 8004e1c:	f884 3043 	strb.w	r3, [r4, #67]	; 0x43
 8004e20:	485e      	ldr	r0, [pc, #376]	; (8004f9c <_printf_i+0x244>)
 8004e22:	230a      	movs	r3, #10
 8004e24:	e019      	b.n	8004e5a <_printf_i+0x102>
 8004e26:	f015 0f40 	tst.w	r5, #64	; 0x40
 8004e2a:	6805      	ldr	r5, [r0, #0]
 8004e2c:	600b      	str	r3, [r1, #0]
 8004e2e:	bf18      	it	ne
 8004e30:	b22d      	sxthne	r5, r5
 8004e32:	e7ef      	b.n	8004e14 <_printf_i+0xbc>
 8004e34:	680b      	ldr	r3, [r1, #0]
 8004e36:	6825      	ldr	r5, [r4, #0]
 8004e38:	1d18      	adds	r0, r3, #4
 8004e3a:	6008      	str	r0, [r1, #0]
 8004e3c:	0628      	lsls	r0, r5, #24
 8004e3e:	d501      	bpl.n	8004e44 <_printf_i+0xec>
 8004e40:	681d      	ldr	r5, [r3, #0]
 8004e42:	e002      	b.n	8004e4a <_printf_i+0xf2>
 8004e44:	0669      	lsls	r1, r5, #25
 8004e46:	d5fb      	bpl.n	8004e40 <_printf_i+0xe8>
 8004e48:	881d      	ldrh	r5, [r3, #0]
 8004e4a:	4854      	ldr	r0, [pc, #336]	; (8004f9c <_printf_i+0x244>)
 8004e4c:	2f6f      	cmp	r7, #111	; 0x6f
 8004e4e:	bf0c      	ite	eq
 8004e50:	2308      	moveq	r3, #8
 8004e52:	230a      	movne	r3, #10
 8004e54:	2100      	movs	r1, #0
 8004e56:	f884 1043 	strb.w	r1, [r4, #67]	; 0x43
 8004e5a:	6866      	ldr	r6, [r4, #4]
 8004e5c:	60a6      	str	r6, [r4, #8]
 8004e5e:	2e00      	cmp	r6, #0
 8004e60:	bfa2      	ittt	ge
 8004e62:	6821      	ldrge	r1, [r4, #0]
 8004e64:	f021 0104 	bicge.w	r1, r1, #4
 8004e68:	6021      	strge	r1, [r4, #0]
 8004e6a:	b90d      	cbnz	r5, 8004e70 <_printf_i+0x118>
 8004e6c:	2e00      	cmp	r6, #0
 8004e6e:	d04d      	beq.n	8004f0c <_printf_i+0x1b4>
 8004e70:	4616      	mov	r6, r2
 8004e72:	fbb5 f1f3 	udiv	r1, r5, r3
 8004e76:	fb03 5711 	mls	r7, r3, r1, r5
 8004e7a:	5dc7      	ldrb	r7, [r0, r7]
 8004e7c:	f806 7d01 	strb.w	r7, [r6, #-1]!
 8004e80:	462f      	mov	r7, r5
 8004e82:	42bb      	cmp	r3, r7
 8004e84:	460d      	mov	r5, r1
 8004e86:	d9f4      	bls.n	8004e72 <_printf_i+0x11a>
 8004e88:	2b08      	cmp	r3, #8
 8004e8a:	d10b      	bne.n	8004ea4 <_printf_i+0x14c>
 8004e8c:	6823      	ldr	r3, [r4, #0]
 8004e8e:	07df      	lsls	r7, r3, #31
 8004e90:	d508      	bpl.n	8004ea4 <_printf_i+0x14c>
 8004e92:	6923      	ldr	r3, [r4, #16]
 8004e94:	6861      	ldr	r1, [r4, #4]
 8004e96:	4299      	cmp	r1, r3
 8004e98:	bfde      	ittt	le
 8004e9a:	2330      	movle	r3, #48	; 0x30
 8004e9c:	f806 3c01 	strble.w	r3, [r6, #-1]
 8004ea0:	f106 36ff 	addle.w	r6, r6, #4294967295
 8004ea4:	1b92      	subs	r2, r2, r6
 8004ea6:	6122      	str	r2, [r4, #16]
 8004ea8:	f8cd a000 	str.w	sl, [sp]
 8004eac:	464b      	mov	r3, r9
 8004eae:	aa03      	add	r2, sp, #12
 8004eb0:	4621      	mov	r1, r4
 8004eb2:	4640      	mov	r0, r8
 8004eb4:	f7ff fee2 	bl	8004c7c <_printf_common>
 8004eb8:	3001      	adds	r0, #1
 8004eba:	d14c      	bne.n	8004f56 <_printf_i+0x1fe>
 8004ebc:	f04f 30ff 	mov.w	r0, #4294967295
 8004ec0:	b004      	add	sp, #16
 8004ec2:	e8bd 87f0 	ldmia.w	sp!, {r4, r5, r6, r7, r8, r9, sl, pc}
 8004ec6:	4835      	ldr	r0, [pc, #212]	; (8004f9c <_printf_i+0x244>)
 8004ec8:	f884 7045 	strb.w	r7, [r4, #69]	; 0x45
 8004ecc:	6823      	ldr	r3, [r4, #0]
 8004ece:	680e      	ldr	r6, [r1, #0]
 8004ed0:	061f      	lsls	r7, r3, #24
 8004ed2:	f856 5b04 	ldr.w	r5, [r6], #4
 8004ed6:	600e      	str	r6, [r1, #0]
 8004ed8:	d514      	bpl.n	8004f04 <_printf_i+0x1ac>
 8004eda:	07d9      	lsls	r1, r3, #31
 8004edc:	bf44      	itt	mi
 8004ede:	f043 0320 	orrmi.w	r3, r3, #32
 8004ee2:	6023      	strmi	r3, [r4, #0]
 8004ee4:	b91d      	cbnz	r5, 8004eee <_printf_i+0x196>
 8004ee6:	6823      	ldr	r3, [r4, #0]
 8004ee8:	f023 0320 	bic.w	r3, r3, #32
 8004eec:	6023      	str	r3, [r4, #0]
 8004eee:	2310      	movs	r3, #16
 8004ef0:	e7b0      	b.n	8004e54 <_printf_i+0xfc>
 8004ef2:	6823      	ldr	r3, [r4, #0]
 8004ef4:	f043 0320 	orr.w	r3, r3, #32
 8004ef8:	6023      	str	r3, [r4, #0]
 8004efa:	2378      	movs	r3, #120	; 0x78
 8004efc:	4828      	ldr	r0, [pc, #160]	; (8004fa0 <_printf_i+0x248>)
 8004efe:	f884 3045 	strb.w	r3, [r4, #69]	; 0x45
 8004f02:	e7e3      	b.n	8004ecc <_printf_i+0x174>
 8004f04:	065e      	lsls	r6, r3, #25
 8004f06:	bf48      	it	mi
 8004f08:	b2ad      	uxthmi	r5, r5
 8004f0a:	e7e6      	b.n	8004eda <_printf_i+0x182>
 8004f0c:	4616      	mov	r6, r2
 8004f0e:	e7bb      	b.n	8004e88 <_printf_i+0x130>
 8004f10:	680b      	ldr	r3, [r1, #0]
 8004f12:	6826      	ldr	r6, [r4, #0]
 8004f14:	6960      	ldr	r0, [r4, #20]
 8004f16:	1d1d      	adds	r5, r3, #4
 8004f18:	600d      	str	r5, [r1, #0]
 8004f1a:	0635      	lsls	r5, r6, #24
 8004f1c:	681b      	ldr	r3, [r3, #0]
 8004f1e:	d501      	bpl.n	8004f24 <_printf_i+0x1cc>
 8004f20:	6018      	str	r0, [r3, #0]
 8004f22:	e002      	b.n	8004f2a <_printf_i+0x1d2>
 8004f24:	0671      	lsls	r1, r6, #25
 8004f26:	d5fb      	bpl.n	8004f20 <_printf_i+0x1c8>
 8004f28:	8018      	strh	r0, [r3, #0]
 8004f2a:	2300      	movs	r3, #0
 8004f2c:	6123      	str	r3, [r4, #16]
 8004f2e:	4616      	mov	r6, r2
 8004f30:	e7ba      	b.n	8004ea8 <_printf_i+0x150>
 8004f32:	680b      	ldr	r3, [r1, #0]
 8004f34:	1d1a      	adds	r2, r3, #4
 8004f36:	600a      	str	r2, [r1, #0]
 8004f38:	681e      	ldr	r6, [r3, #0]
 8004f3a:	6862      	ldr	r2, [r4, #4]
 8004f3c:	2100      	movs	r1, #0
 8004f3e:	4630      	mov	r0, r6
 8004f40:	f7fb f96e 	bl	8000220 <memchr>
 8004f44:	b108      	cbz	r0, 8004f4a <_printf_i+0x1f2>
 8004f46:	1b80      	subs	r0, r0, r6
 8004f48:	6060      	str	r0, [r4, #4]
 8004f4a:	6863      	ldr	r3, [r4, #4]
 8004f4c:	6123      	str	r3, [r4, #16]
 8004f4e:	2300      	movs	r3, #0
 8004f50:	f884 3043 	strb.w	r3, [r4, #67]	; 0x43
 8004f54:	e7a8      	b.n	8004ea8 <_printf_i+0x150>
 8004f56:	6923      	ldr	r3, [r4, #16]
 8004f58:	4632      	mov	r2, r6
 8004f5a:	4649      	mov	r1, r9
 8004f5c:	4640      	mov	r0, r8
 8004f5e:	47d0      	blx	sl
 8004f60:	3001      	adds	r0, #1
 8004f62:	d0ab      	beq.n	8004ebc <_printf_i+0x164>
 8004f64:	6823      	ldr	r3, [r4, #0]
 8004f66:	079b      	lsls	r3, r3, #30
 8004f68:	d413      	bmi.n	8004f92 <_printf_i+0x23a>
 8004f6a:	68e0      	ldr	r0, [r4, #12]
 8004f6c:	9b03      	ldr	r3, [sp, #12]
 8004f6e:	4298      	cmp	r0, r3
 8004f70:	bfb8      	it	lt
 8004f72:	4618      	movlt	r0, r3
 8004f74:	e7a4      	b.n	8004ec0 <_printf_i+0x168>
 8004f76:	2301      	movs	r3, #1
 8004f78:	4632      	mov	r2, r6
 8004f7a:	4649      	mov	r1, r9
 8004f7c:	4640      	mov	r0, r8
 8004f7e:	47d0      	blx	sl
 8004f80:	3001      	adds	r0, #1
 8004f82:	d09b      	beq.n	8004ebc <_printf_i+0x164>
 8004f84:	3501      	adds	r5, #1
 8004f86:	68e3      	ldr	r3, [r4, #12]
 8004f88:	9903      	ldr	r1, [sp, #12]
 8004f8a:	1a5b      	subs	r3, r3, r1
 8004f8c:	42ab      	cmp	r3, r5
 8004f8e:	dcf2      	bgt.n	8004f76 <_printf_i+0x21e>
 8004f90:	e7eb      	b.n	8004f6a <_printf_i+0x212>
 8004f92:	2500      	movs	r5, #0
 8004f94:	f104 0619 	add.w	r6, r4, #25
 8004f98:	e7f5      	b.n	8004f86 <_printf_i+0x22e>
 8004f9a:	bf00      	nop
 8004f9c:	08007452 	.word	0x08007452
 8004fa0:	08007463 	.word	0x08007463

08004fa4 <siprintf>:
 8004fa4:	b40e      	push	{r1, r2, r3}
 8004fa6:	b500      	push	{lr}
 8004fa8:	b09c      	sub	sp, #112	; 0x70
 8004faa:	ab1d      	add	r3, sp, #116	; 0x74
 8004fac:	9002      	str	r0, [sp, #8]
 8004fae:	9006      	str	r0, [sp, #24]
 8004fb0:	f06f 4100 	mvn.w	r1, #2147483648	; 0x80000000
 8004fb4:	4809      	ldr	r0, [pc, #36]	; (8004fdc <siprintf+0x38>)
 8004fb6:	9107      	str	r1, [sp, #28]
 8004fb8:	9104      	str	r1, [sp, #16]
 8004fba:	4909      	ldr	r1, [pc, #36]	; (8004fe0 <siprintf+0x3c>)
 8004fbc:	f853 2b04 	ldr.w	r2, [r3], #4
 8004fc0:	9105      	str	r1, [sp, #20]
 8004fc2:	6800      	ldr	r0, [r0, #0]
 8004fc4:	9301      	str	r3, [sp, #4]
 8004fc6:	a902      	add	r1, sp, #8
 8004fc8:	f001 fb34 	bl	8006634 <_svfiprintf_r>
 8004fcc:	9b02      	ldr	r3, [sp, #8]
 8004fce:	2200      	movs	r2, #0
 8004fd0:	701a      	strb	r2, [r3, #0]
 8004fd2:	b01c      	add	sp, #112	; 0x70
 8004fd4:	f85d eb04 	ldr.w	lr, [sp], #4
 8004fd8:	b003      	add	sp, #12
 8004fda:	4770      	bx	lr
 8004fdc:	20000014 	.word	0x20000014
 8004fe0:	ffff0208 	.word	0xffff0208

08004fe4 <quorem>:
 8004fe4:	e92d 4ff7 	stmdb	sp!, {r0, r1, r2, r4, r5, r6, r7, r8, r9, sl, fp, lr}
 8004fe8:	6903      	ldr	r3, [r0, #16]
 8004fea:	690c      	ldr	r4, [r1, #16]
 8004fec:	42a3      	cmp	r3, r4
 8004fee:	4607      	mov	r7, r0
 8004ff0:	f2c0 8081 	blt.w	80050f6 <quorem+0x112>
 8004ff4:	3c01      	subs	r4, #1
 8004ff6:	f101 0814 	add.w	r8, r1, #20
 8004ffa:	f100 0514 	add.w	r5, r0, #20
 8004ffe:	eb05 0384 	add.w	r3, r5, r4, lsl #2
 8005002:	9301      	str	r3, [sp, #4]
 8005004:	f858 3024 	ldr.w	r3, [r8, r4, lsl #2]
 8005008:	f855 2024 	ldr.w	r2, [r5, r4, lsl #2]
 800500c:	3301      	adds	r3, #1
 800500e:	429a      	cmp	r2, r3
 8005010:	ea4f 0b84 	mov.w	fp, r4, lsl #2
 8005014:	eb08 0984 	add.w	r9, r8, r4, lsl #2
 8005018:	fbb2 f6f3 	udiv	r6, r2, r3
 800501c:	d331      	bcc.n	8005082 <quorem+0x9e>
 800501e:	f04f 0e00 	mov.w	lr, #0
 8005022:	4640      	mov	r0, r8
 8005024:	46ac      	mov	ip, r5
 8005026:	46f2      	mov	sl, lr
 8005028:	f850 2b04 	ldr.w	r2, [r0], #4
 800502c:	b293      	uxth	r3, r2
 800502e:	fb06 e303 	mla	r3, r6, r3, lr
 8005032:	ea4f 4e13 	mov.w	lr, r3, lsr #16
 8005036:	b29b      	uxth	r3, r3
 8005038:	ebaa 0303 	sub.w	r3, sl, r3
 800503c:	0c12      	lsrs	r2, r2, #16
 800503e:	f8dc a000 	ldr.w	sl, [ip]
 8005042:	fb06 e202 	mla	r2, r6, r2, lr
 8005046:	fa13 f38a 	uxtah	r3, r3, sl
 800504a:	ea4f 4e12 	mov.w	lr, r2, lsr #16
 800504e:	fa1f fa82 	uxth.w	sl, r2
 8005052:	f8dc 2000 	ldr.w	r2, [ip]
 8005056:	ebca 4212 	rsb	r2, sl, r2, lsr #16
 800505a:	eb02 4223 	add.w	r2, r2, r3, asr #16
 800505e:	b29b      	uxth	r3, r3
 8005060:	ea43 4302 	orr.w	r3, r3, r2, lsl #16
 8005064:	4581      	cmp	r9, r0
 8005066:	f84c 3b04 	str.w	r3, [ip], #4
 800506a:	ea4f 4a22 	mov.w	sl, r2, asr #16
 800506e:	d2db      	bcs.n	8005028 <quorem+0x44>
 8005070:	f855 300b 	ldr.w	r3, [r5, fp]
 8005074:	b92b      	cbnz	r3, 8005082 <quorem+0x9e>
 8005076:	9b01      	ldr	r3, [sp, #4]
 8005078:	3b04      	subs	r3, #4
 800507a:	429d      	cmp	r5, r3
 800507c:	461a      	mov	r2, r3
 800507e:	d32e      	bcc.n	80050de <quorem+0xfa>
 8005080:	613c      	str	r4, [r7, #16]
 8005082:	4638      	mov	r0, r7
 8005084:	f001 f8c0 	bl	8006208 <__mcmp>
 8005088:	2800      	cmp	r0, #0
 800508a:	db24      	blt.n	80050d6 <quorem+0xf2>
 800508c:	3601      	adds	r6, #1
 800508e:	4628      	mov	r0, r5
 8005090:	f04f 0c00 	mov.w	ip, #0
 8005094:	f858 2b04 	ldr.w	r2, [r8], #4
 8005098:	f8d0 e000 	ldr.w	lr, [r0]
 800509c:	b293      	uxth	r3, r2
 800509e:	ebac 0303 	sub.w	r3, ip, r3
 80050a2:	0c12      	lsrs	r2, r2, #16
 80050a4:	fa13 f38e 	uxtah	r3, r3, lr
 80050a8:	ebc2 421e 	rsb	r2, r2, lr, lsr #16
 80050ac:	eb02 4223 	add.w	r2, r2, r3, asr #16
 80050b0:	b29b      	uxth	r3, r3
 80050b2:	ea43 4302 	orr.w	r3, r3, r2, lsl #16
 80050b6:	45c1      	cmp	r9, r8
 80050b8:	f840 3b04 	str.w	r3, [r0], #4
 80050bc:	ea4f 4c22 	mov.w	ip, r2, asr #16
 80050c0:	d2e8      	bcs.n	8005094 <quorem+0xb0>
 80050c2:	f855 2024 	ldr.w	r2, [r5, r4, lsl #2]
 80050c6:	eb05 0384 	add.w	r3, r5, r4, lsl #2
 80050ca:	b922      	cbnz	r2, 80050d6 <quorem+0xf2>
 80050cc:	3b04      	subs	r3, #4
 80050ce:	429d      	cmp	r5, r3
 80050d0:	461a      	mov	r2, r3
 80050d2:	d30a      	bcc.n	80050ea <quorem+0x106>
 80050d4:	613c      	str	r4, [r7, #16]
 80050d6:	4630      	mov	r0, r6
 80050d8:	b003      	add	sp, #12
 80050da:	e8bd 8ff0 	ldmia.w	sp!, {r4, r5, r6, r7, r8, r9, sl, fp, pc}
 80050de:	6812      	ldr	r2, [r2, #0]
 80050e0:	3b04      	subs	r3, #4
 80050e2:	2a00      	cmp	r2, #0
 80050e4:	d1cc      	bne.n	8005080 <quorem+0x9c>
 80050e6:	3c01      	subs	r4, #1
 80050e8:	e7c7      	b.n	800507a <quorem+0x96>
 80050ea:	6812      	ldr	r2, [r2, #0]
 80050ec:	3b04      	subs	r3, #4
 80050ee:	2a00      	cmp	r2, #0
 80050f0:	d1f0      	bne.n	80050d4 <quorem+0xf0>
 80050f2:	3c01      	subs	r4, #1
 80050f4:	e7eb      	b.n	80050ce <quorem+0xea>
 80050f6:	2000      	movs	r0, #0
 80050f8:	e7ee      	b.n	80050d8 <quorem+0xf4>
 80050fa:	0000      	movs	r0, r0
 80050fc:	0000      	movs	r0, r0
	...

08005100 <_dtoa_r>:
 8005100:	e92d 4ff0 	stmdb	sp!, {r4, r5, r6, r7, r8, r9, sl, fp, lr}
 8005104:	ed2d 8b02 	vpush	{d8}
 8005108:	ec57 6b10 	vmov	r6, r7, d0
 800510c:	b095      	sub	sp, #84	; 0x54
 800510e:	6a45      	ldr	r5, [r0, #36]	; 0x24
 8005110:	f8dd 8080 	ldr.w	r8, [sp, #128]	; 0x80
 8005114:	9105      	str	r1, [sp, #20]
 8005116:	e9cd 6702 	strd	r6, r7, [sp, #8]
 800511a:	4604      	mov	r4, r0
 800511c:	9209      	str	r2, [sp, #36]	; 0x24
 800511e:	930f      	str	r3, [sp, #60]	; 0x3c
 8005120:	b975      	cbnz	r5, 8005140 <_dtoa_r+0x40>
 8005122:	2010      	movs	r0, #16
 8005124:	f000 fddc 	bl	8005ce0 <malloc>
 8005128:	4602      	mov	r2, r0
 800512a:	6260      	str	r0, [r4, #36]	; 0x24
 800512c:	b920      	cbnz	r0, 8005138 <_dtoa_r+0x38>
 800512e:	4bb2      	ldr	r3, [pc, #712]	; (80053f8 <_dtoa_r+0x2f8>)
 8005130:	21ea      	movs	r1, #234	; 0xea
 8005132:	48b2      	ldr	r0, [pc, #712]	; (80053fc <_dtoa_r+0x2fc>)
 8005134:	f001 fb8e 	bl	8006854 <__assert_func>
 8005138:	e9c0 5501 	strd	r5, r5, [r0, #4]
 800513c:	6005      	str	r5, [r0, #0]
 800513e:	60c5      	str	r5, [r0, #12]
 8005140:	6a63      	ldr	r3, [r4, #36]	; 0x24
 8005142:	6819      	ldr	r1, [r3, #0]
 8005144:	b151      	cbz	r1, 800515c <_dtoa_r+0x5c>
 8005146:	685a      	ldr	r2, [r3, #4]
 8005148:	604a      	str	r2, [r1, #4]
 800514a:	2301      	movs	r3, #1
 800514c:	4093      	lsls	r3, r2
 800514e:	608b      	str	r3, [r1, #8]
 8005150:	4620      	mov	r0, r4
 8005152:	f000 fe1b 	bl	8005d8c <_Bfree>
 8005156:	6a63      	ldr	r3, [r4, #36]	; 0x24
 8005158:	2200      	movs	r2, #0
 800515a:	601a      	str	r2, [r3, #0]
 800515c:	1e3b      	subs	r3, r7, #0
 800515e:	bfb9      	ittee	lt
 8005160:	f023 4300 	biclt.w	r3, r3, #2147483648	; 0x80000000
 8005164:	9303      	strlt	r3, [sp, #12]
 8005166:	2300      	movge	r3, #0
 8005168:	f8c8 3000 	strge.w	r3, [r8]
 800516c:	f8dd 900c 	ldr.w	r9, [sp, #12]
 8005170:	4ba3      	ldr	r3, [pc, #652]	; (8005400 <_dtoa_r+0x300>)
 8005172:	bfbc      	itt	lt
 8005174:	2201      	movlt	r2, #1
 8005176:	f8c8 2000 	strlt.w	r2, [r8]
 800517a:	ea33 0309 	bics.w	r3, r3, r9
 800517e:	d11b      	bne.n	80051b8 <_dtoa_r+0xb8>
 8005180:	9a0f      	ldr	r2, [sp, #60]	; 0x3c
 8005182:	f242 730f 	movw	r3, #9999	; 0x270f
 8005186:	6013      	str	r3, [r2, #0]
 8005188:	f3c9 0313 	ubfx	r3, r9, #0, #20
 800518c:	4333      	orrs	r3, r6
 800518e:	f000 857a 	beq.w	8005c86 <_dtoa_r+0xb86>
 8005192:	9b21      	ldr	r3, [sp, #132]	; 0x84
 8005194:	b963      	cbnz	r3, 80051b0 <_dtoa_r+0xb0>
 8005196:	4b9b      	ldr	r3, [pc, #620]	; (8005404 <_dtoa_r+0x304>)
 8005198:	e024      	b.n	80051e4 <_dtoa_r+0xe4>
 800519a:	4b9b      	ldr	r3, [pc, #620]	; (8005408 <_dtoa_r+0x308>)
 800519c:	9300      	str	r3, [sp, #0]
 800519e:	3308      	adds	r3, #8
 80051a0:	9a21      	ldr	r2, [sp, #132]	; 0x84
 80051a2:	6013      	str	r3, [r2, #0]
 80051a4:	9800      	ldr	r0, [sp, #0]
 80051a6:	b015      	add	sp, #84	; 0x54
 80051a8:	ecbd 8b02 	vpop	{d8}
 80051ac:	e8bd 8ff0 	ldmia.w	sp!, {r4, r5, r6, r7, r8, r9, sl, fp, pc}
 80051b0:	4b94      	ldr	r3, [pc, #592]	; (8005404 <_dtoa_r+0x304>)
 80051b2:	9300      	str	r3, [sp, #0]
 80051b4:	3303      	adds	r3, #3
 80051b6:	e7f3      	b.n	80051a0 <_dtoa_r+0xa0>
 80051b8:	ed9d 7b02 	vldr	d7, [sp, #8]
 80051bc:	2200      	movs	r2, #0
 80051be:	ec51 0b17 	vmov	r0, r1, d7
 80051c2:	2300      	movs	r3, #0
 80051c4:	ed8d 7b0a 	vstr	d7, [sp, #40]	; 0x28
 80051c8:	f7fb fc9e 	bl	8000b08 <__aeabi_dcmpeq>
 80051cc:	4680      	mov	r8, r0
 80051ce:	b158      	cbz	r0, 80051e8 <_dtoa_r+0xe8>
 80051d0:	9a0f      	ldr	r2, [sp, #60]	; 0x3c
 80051d2:	2301      	movs	r3, #1
 80051d4:	6013      	str	r3, [r2, #0]
 80051d6:	9b21      	ldr	r3, [sp, #132]	; 0x84
 80051d8:	2b00      	cmp	r3, #0
 80051da:	f000 8551 	beq.w	8005c80 <_dtoa_r+0xb80>
 80051de:	488b      	ldr	r0, [pc, #556]	; (800540c <_dtoa_r+0x30c>)
 80051e0:	6018      	str	r0, [r3, #0]
 80051e2:	1e43      	subs	r3, r0, #1
 80051e4:	9300      	str	r3, [sp, #0]
 80051e6:	e7dd      	b.n	80051a4 <_dtoa_r+0xa4>
 80051e8:	ed9d 0b0a 	vldr	d0, [sp, #40]	; 0x28
 80051ec:	aa12      	add	r2, sp, #72	; 0x48
 80051ee:	a913      	add	r1, sp, #76	; 0x4c
 80051f0:	4620      	mov	r0, r4
 80051f2:	f001 f8ad 	bl	8006350 <__d2b>
 80051f6:	f3c9 550a 	ubfx	r5, r9, #20, #11
 80051fa:	4683      	mov	fp, r0
 80051fc:	2d00      	cmp	r5, #0
 80051fe:	d07c      	beq.n	80052fa <_dtoa_r+0x1fa>
 8005200:	9b0b      	ldr	r3, [sp, #44]	; 0x2c
 8005202:	f8cd 8040 	str.w	r8, [sp, #64]	; 0x40
 8005206:	f3c3 0313 	ubfx	r3, r3, #0, #20
 800520a:	e9dd 670a 	ldrd	r6, r7, [sp, #40]	; 0x28
 800520e:	f043 577f 	orr.w	r7, r3, #1069547520	; 0x3fc00000
 8005212:	f447 1740 	orr.w	r7, r7, #3145728	; 0x300000
 8005216:	f2a5 35ff 	subw	r5, r5, #1023	; 0x3ff
 800521a:	4b7d      	ldr	r3, [pc, #500]	; (8005410 <_dtoa_r+0x310>)
 800521c:	2200      	movs	r2, #0
 800521e:	4630      	mov	r0, r6
 8005220:	4639      	mov	r1, r7
 8005222:	f7fb f851 	bl	80002c8 <__aeabi_dsub>
 8005226:	a36e      	add	r3, pc, #440	; (adr r3, 80053e0 <_dtoa_r+0x2e0>)
 8005228:	e9d3 2300 	ldrd	r2, r3, [r3]
 800522c:	f7fb fa04 	bl	8000638 <__aeabi_dmul>
 8005230:	a36d      	add	r3, pc, #436	; (adr r3, 80053e8 <_dtoa_r+0x2e8>)
 8005232:	e9d3 2300 	ldrd	r2, r3, [r3]
 8005236:	f7fb f849 	bl	80002cc <__adddf3>
 800523a:	4606      	mov	r6, r0
 800523c:	4628      	mov	r0, r5
 800523e:	460f      	mov	r7, r1
 8005240:	f7fb f990 	bl	8000564 <__aeabi_i2d>
 8005244:	a36a      	add	r3, pc, #424	; (adr r3, 80053f0 <_dtoa_r+0x2f0>)
 8005246:	e9d3 2300 	ldrd	r2, r3, [r3]
 800524a:	f7fb f9f5 	bl	8000638 <__aeabi_dmul>
 800524e:	4602      	mov	r2, r0
 8005250:	460b      	mov	r3, r1
 8005252:	4630      	mov	r0, r6
 8005254:	4639      	mov	r1, r7
 8005256:	f7fb f839 	bl	80002cc <__adddf3>
 800525a:	4606      	mov	r6, r0
 800525c:	460f      	mov	r7, r1
 800525e:	f7fb fc9b 	bl	8000b98 <__aeabi_d2iz>
 8005262:	2200      	movs	r2, #0
 8005264:	4682      	mov	sl, r0
 8005266:	2300      	movs	r3, #0
 8005268:	4630      	mov	r0, r6
 800526a:	4639      	mov	r1, r7
 800526c:	f7fb fc56 	bl	8000b1c <__aeabi_dcmplt>
 8005270:	b148      	cbz	r0, 8005286 <_dtoa_r+0x186>
 8005272:	4650      	mov	r0, sl
 8005274:	f7fb f976 	bl	8000564 <__aeabi_i2d>
 8005278:	4632      	mov	r2, r6
 800527a:	463b      	mov	r3, r7
 800527c:	f7fb fc44 	bl	8000b08 <__aeabi_dcmpeq>
 8005280:	b908      	cbnz	r0, 8005286 <_dtoa_r+0x186>
 8005282:	f10a 3aff 	add.w	sl, sl, #4294967295
 8005286:	f1ba 0f16 	cmp.w	sl, #22
 800528a:	d854      	bhi.n	8005336 <_dtoa_r+0x236>
 800528c:	4b61      	ldr	r3, [pc, #388]	; (8005414 <_dtoa_r+0x314>)
 800528e:	eb03 03ca 	add.w	r3, r3, sl, lsl #3
 8005292:	e9d3 2300 	ldrd	r2, r3, [r3]
 8005296:	e9dd 010a 	ldrd	r0, r1, [sp, #40]	; 0x28
 800529a:	f7fb fc3f 	bl	8000b1c <__aeabi_dcmplt>
 800529e:	2800      	cmp	r0, #0
 80052a0:	d04b      	beq.n	800533a <_dtoa_r+0x23a>
 80052a2:	f10a 3aff 	add.w	sl, sl, #4294967295
 80052a6:	2300      	movs	r3, #0
 80052a8:	930e      	str	r3, [sp, #56]	; 0x38
 80052aa:	9b12      	ldr	r3, [sp, #72]	; 0x48
 80052ac:	1b5d      	subs	r5, r3, r5
 80052ae:	1e6b      	subs	r3, r5, #1
 80052b0:	9304      	str	r3, [sp, #16]
 80052b2:	bf43      	ittte	mi
 80052b4:	2300      	movmi	r3, #0
 80052b6:	f1c5 0801 	rsbmi	r8, r5, #1
 80052ba:	9304      	strmi	r3, [sp, #16]
 80052bc:	f04f 0800 	movpl.w	r8, #0
 80052c0:	f1ba 0f00 	cmp.w	sl, #0
 80052c4:	db3b      	blt.n	800533e <_dtoa_r+0x23e>
 80052c6:	9b04      	ldr	r3, [sp, #16]
 80052c8:	f8cd a034 	str.w	sl, [sp, #52]	; 0x34
 80052cc:	4453      	add	r3, sl
 80052ce:	9304      	str	r3, [sp, #16]
 80052d0:	2300      	movs	r3, #0
 80052d2:	9306      	str	r3, [sp, #24]
 80052d4:	9b05      	ldr	r3, [sp, #20]
 80052d6:	2b09      	cmp	r3, #9
 80052d8:	d869      	bhi.n	80053ae <_dtoa_r+0x2ae>
 80052da:	2b05      	cmp	r3, #5
 80052dc:	bfc4      	itt	gt
 80052de:	3b04      	subgt	r3, #4
 80052e0:	9305      	strgt	r3, [sp, #20]
 80052e2:	9b05      	ldr	r3, [sp, #20]
 80052e4:	f1a3 0302 	sub.w	r3, r3, #2
 80052e8:	bfcc      	ite	gt
 80052ea:	2500      	movgt	r5, #0
 80052ec:	2501      	movle	r5, #1
 80052ee:	2b03      	cmp	r3, #3
 80052f0:	d869      	bhi.n	80053c6 <_dtoa_r+0x2c6>
 80052f2:	e8df f003 	tbb	[pc, r3]
 80052f6:	4e2c      	.short	0x4e2c
 80052f8:	5a4c      	.short	0x5a4c
 80052fa:	e9dd 5312 	ldrd	r5, r3, [sp, #72]	; 0x48
 80052fe:	441d      	add	r5, r3
 8005300:	f205 4332 	addw	r3, r5, #1074	; 0x432
 8005304:	2b20      	cmp	r3, #32
 8005306:	bfc1      	itttt	gt
 8005308:	f1c3 0340 	rsbgt	r3, r3, #64	; 0x40
 800530c:	f205 4012 	addwgt	r0, r5, #1042	; 0x412
 8005310:	fa09 f303 	lslgt.w	r3, r9, r3
 8005314:	fa26 f000 	lsrgt.w	r0, r6, r0
 8005318:	bfda      	itte	le
 800531a:	f1c3 0320 	rsble	r3, r3, #32
 800531e:	fa06 f003 	lslle.w	r0, r6, r3
 8005322:	4318      	orrgt	r0, r3
 8005324:	f7fb f90e 	bl	8000544 <__aeabi_ui2d>
 8005328:	2301      	movs	r3, #1
 800532a:	4606      	mov	r6, r0
 800532c:	f1a1 77f8 	sub.w	r7, r1, #32505856	; 0x1f00000
 8005330:	3d01      	subs	r5, #1
 8005332:	9310      	str	r3, [sp, #64]	; 0x40
 8005334:	e771      	b.n	800521a <_dtoa_r+0x11a>
 8005336:	2301      	movs	r3, #1
 8005338:	e7b6      	b.n	80052a8 <_dtoa_r+0x1a8>
 800533a:	900e      	str	r0, [sp, #56]	; 0x38
 800533c:	e7b5      	b.n	80052aa <_dtoa_r+0x1aa>
 800533e:	f1ca 0300 	rsb	r3, sl, #0
 8005342:	9306      	str	r3, [sp, #24]
 8005344:	2300      	movs	r3, #0
 8005346:	eba8 080a 	sub.w	r8, r8, sl
 800534a:	930d      	str	r3, [sp, #52]	; 0x34
 800534c:	e7c2      	b.n	80052d4 <_dtoa_r+0x1d4>
 800534e:	2300      	movs	r3, #0
 8005350:	9308      	str	r3, [sp, #32]
 8005352:	9b09      	ldr	r3, [sp, #36]	; 0x24
 8005354:	2b00      	cmp	r3, #0
 8005356:	dc39      	bgt.n	80053cc <_dtoa_r+0x2cc>
 8005358:	f04f 0901 	mov.w	r9, #1
 800535c:	f8cd 9004 	str.w	r9, [sp, #4]
 8005360:	464b      	mov	r3, r9
 8005362:	f8cd 9024 	str.w	r9, [sp, #36]	; 0x24
 8005366:	6a60      	ldr	r0, [r4, #36]	; 0x24
 8005368:	2200      	movs	r2, #0
 800536a:	6042      	str	r2, [r0, #4]
 800536c:	2204      	movs	r2, #4
 800536e:	f102 0614 	add.w	r6, r2, #20
 8005372:	429e      	cmp	r6, r3
 8005374:	6841      	ldr	r1, [r0, #4]
 8005376:	d92f      	bls.n	80053d8 <_dtoa_r+0x2d8>
 8005378:	4620      	mov	r0, r4
 800537a:	f000 fcc7 	bl	8005d0c <_Balloc>
 800537e:	9000      	str	r0, [sp, #0]
 8005380:	2800      	cmp	r0, #0
 8005382:	d14b      	bne.n	800541c <_dtoa_r+0x31c>
 8005384:	4b24      	ldr	r3, [pc, #144]	; (8005418 <_dtoa_r+0x318>)
 8005386:	4602      	mov	r2, r0
 8005388:	f44f 71d5 	mov.w	r1, #426	; 0x1aa
 800538c:	e6d1      	b.n	8005132 <_dtoa_r+0x32>
 800538e:	2301      	movs	r3, #1
 8005390:	e7de      	b.n	8005350 <_dtoa_r+0x250>
 8005392:	2300      	movs	r3, #0
 8005394:	9308      	str	r3, [sp, #32]
 8005396:	9b09      	ldr	r3, [sp, #36]	; 0x24
 8005398:	eb0a 0903 	add.w	r9, sl, r3
 800539c:	f109 0301 	add.w	r3, r9, #1
 80053a0:	2b01      	cmp	r3, #1
 80053a2:	9301      	str	r3, [sp, #4]
 80053a4:	bfb8      	it	lt
 80053a6:	2301      	movlt	r3, #1
 80053a8:	e7dd      	b.n	8005366 <_dtoa_r+0x266>
 80053aa:	2301      	movs	r3, #1
 80053ac:	e7f2      	b.n	8005394 <_dtoa_r+0x294>
 80053ae:	2501      	movs	r5, #1
 80053b0:	2300      	movs	r3, #0
 80053b2:	9305      	str	r3, [sp, #20]
 80053b4:	9508      	str	r5, [sp, #32]
 80053b6:	f04f 39ff 	mov.w	r9, #4294967295
 80053ba:	2200      	movs	r2, #0
 80053bc:	f8cd 9004 	str.w	r9, [sp, #4]
 80053c0:	2312      	movs	r3, #18
 80053c2:	9209      	str	r2, [sp, #36]	; 0x24
 80053c4:	e7cf      	b.n	8005366 <_dtoa_r+0x266>
 80053c6:	2301      	movs	r3, #1
 80053c8:	9308      	str	r3, [sp, #32]
 80053ca:	e7f4      	b.n	80053b6 <_dtoa_r+0x2b6>
 80053cc:	f8dd 9024 	ldr.w	r9, [sp, #36]	; 0x24
 80053d0:	f8cd 9004 	str.w	r9, [sp, #4]
 80053d4:	464b      	mov	r3, r9
 80053d6:	e7c6      	b.n	8005366 <_dtoa_r+0x266>
 80053d8:	3101      	adds	r1, #1
 80053da:	6041      	str	r1, [r0, #4]
 80053dc:	0052      	lsls	r2, r2, #1
 80053de:	e7c6      	b.n	800536e <_dtoa_r+0x26e>
 80053e0:	636f4361 	.word	0x636f4361
 80053e4:	3fd287a7 	.word	0x3fd287a7
 80053e8:	8b60c8b3 	.word	0x8b60c8b3
 80053ec:	3fc68a28 	.word	0x3fc68a28
 80053f0:	509f79fb 	.word	0x509f79fb
 80053f4:	3fd34413 	.word	0x3fd34413
 80053f8:	08007481 	.word	0x08007481
 80053fc:	08007498 	.word	0x08007498
 8005400:	7ff00000 	.word	0x7ff00000
 8005404:	0800747d 	.word	0x0800747d
 8005408:	08007474 	.word	0x08007474
 800540c:	08007451 	.word	0x08007451
 8005410:	3ff80000 	.word	0x3ff80000
 8005414:	08007590 	.word	0x08007590
 8005418:	080074f7 	.word	0x080074f7
 800541c:	6a63      	ldr	r3, [r4, #36]	; 0x24
 800541e:	9a00      	ldr	r2, [sp, #0]
 8005420:	601a      	str	r2, [r3, #0]
 8005422:	9b01      	ldr	r3, [sp, #4]
 8005424:	2b0e      	cmp	r3, #14
 8005426:	f200 80ad 	bhi.w	8005584 <_dtoa_r+0x484>
 800542a:	2d00      	cmp	r5, #0
 800542c:	f000 80aa 	beq.w	8005584 <_dtoa_r+0x484>
 8005430:	f1ba 0f00 	cmp.w	sl, #0
 8005434:	dd36      	ble.n	80054a4 <_dtoa_r+0x3a4>
 8005436:	4ac3      	ldr	r2, [pc, #780]	; (8005744 <_dtoa_r+0x644>)
 8005438:	f00a 030f 	and.w	r3, sl, #15
 800543c:	eb02 03c3 	add.w	r3, r2, r3, lsl #3
 8005440:	ed93 7b00 	vldr	d7, [r3]
 8005444:	f41a 7f80 	tst.w	sl, #256	; 0x100
 8005448:	ea4f 172a 	mov.w	r7, sl, asr #4
 800544c:	eeb0 8a47 	vmov.f32	s16, s14
 8005450:	eef0 8a67 	vmov.f32	s17, s15
 8005454:	d016      	beq.n	8005484 <_dtoa_r+0x384>
 8005456:	4bbc      	ldr	r3, [pc, #752]	; (8005748 <_dtoa_r+0x648>)
 8005458:	e9dd 010a 	ldrd	r0, r1, [sp, #40]	; 0x28
 800545c:	e9d3 2308 	ldrd	r2, r3, [r3, #32]
 8005460:	f7fb fa14 	bl	800088c <__aeabi_ddiv>
 8005464:	e9cd 0102 	strd	r0, r1, [sp, #8]
 8005468:	f007 070f 	and.w	r7, r7, #15
 800546c:	2503      	movs	r5, #3
 800546e:	4eb6      	ldr	r6, [pc, #728]	; (8005748 <_dtoa_r+0x648>)
 8005470:	b957      	cbnz	r7, 8005488 <_dtoa_r+0x388>
 8005472:	e9dd 0102 	ldrd	r0, r1, [sp, #8]
 8005476:	ec53 2b18 	vmov	r2, r3, d8
 800547a:	f7fb fa07 	bl	800088c <__aeabi_ddiv>
 800547e:	e9cd 0102 	strd	r0, r1, [sp, #8]
 8005482:	e029      	b.n	80054d8 <_dtoa_r+0x3d8>
 8005484:	2502      	movs	r5, #2
 8005486:	e7f2      	b.n	800546e <_dtoa_r+0x36e>
 8005488:	07f9      	lsls	r1, r7, #31
 800548a:	d508      	bpl.n	800549e <_dtoa_r+0x39e>
 800548c:	ec51 0b18 	vmov	r0, r1, d8
 8005490:	e9d6 2300 	ldrd	r2, r3, [r6]
 8005494:	f7fb f8d0 	bl	8000638 <__aeabi_dmul>
 8005498:	ec41 0b18 	vmov	d8, r0, r1
 800549c:	3501      	adds	r5, #1
 800549e:	107f      	asrs	r7, r7, #1
 80054a0:	3608      	adds	r6, #8
 80054a2:	e7e5      	b.n	8005470 <_dtoa_r+0x370>
 80054a4:	f000 80a6 	beq.w	80055f4 <_dtoa_r+0x4f4>
 80054a8:	f1ca 0600 	rsb	r6, sl, #0
 80054ac:	4ba5      	ldr	r3, [pc, #660]	; (8005744 <_dtoa_r+0x644>)
 80054ae:	4fa6      	ldr	r7, [pc, #664]	; (8005748 <_dtoa_r+0x648>)
 80054b0:	f006 020f 	and.w	r2, r6, #15
 80054b4:	eb03 03c2 	add.w	r3, r3, r2, lsl #3
 80054b8:	e9d3 2300 	ldrd	r2, r3, [r3]
 80054bc:	e9dd 010a 	ldrd	r0, r1, [sp, #40]	; 0x28
 80054c0:	f7fb f8ba 	bl	8000638 <__aeabi_dmul>
 80054c4:	e9cd 0102 	strd	r0, r1, [sp, #8]
 80054c8:	1136      	asrs	r6, r6, #4
 80054ca:	2300      	movs	r3, #0
 80054cc:	2502      	movs	r5, #2
 80054ce:	2e00      	cmp	r6, #0
 80054d0:	f040 8085 	bne.w	80055de <_dtoa_r+0x4de>
 80054d4:	2b00      	cmp	r3, #0
 80054d6:	d1d2      	bne.n	800547e <_dtoa_r+0x37e>
 80054d8:	9b0e      	ldr	r3, [sp, #56]	; 0x38
 80054da:	2b00      	cmp	r3, #0
 80054dc:	f000 808c 	beq.w	80055f8 <_dtoa_r+0x4f8>
 80054e0:	e9dd 6702 	ldrd	r6, r7, [sp, #8]
 80054e4:	4b99      	ldr	r3, [pc, #612]	; (800574c <_dtoa_r+0x64c>)
 80054e6:	2200      	movs	r2, #0
 80054e8:	4630      	mov	r0, r6
 80054ea:	4639      	mov	r1, r7
 80054ec:	f7fb fb16 	bl	8000b1c <__aeabi_dcmplt>
 80054f0:	2800      	cmp	r0, #0
 80054f2:	f000 8081 	beq.w	80055f8 <_dtoa_r+0x4f8>
 80054f6:	9b01      	ldr	r3, [sp, #4]
 80054f8:	2b00      	cmp	r3, #0
 80054fa:	d07d      	beq.n	80055f8 <_dtoa_r+0x4f8>
 80054fc:	f1b9 0f00 	cmp.w	r9, #0
 8005500:	dd3c      	ble.n	800557c <_dtoa_r+0x47c>
 8005502:	f10a 33ff 	add.w	r3, sl, #4294967295
 8005506:	9307      	str	r3, [sp, #28]
 8005508:	2200      	movs	r2, #0
 800550a:	4b91      	ldr	r3, [pc, #580]	; (8005750 <_dtoa_r+0x650>)
 800550c:	4630      	mov	r0, r6
 800550e:	4639      	mov	r1, r7
 8005510:	f7fb f892 	bl	8000638 <__aeabi_dmul>
 8005514:	e9cd 0102 	strd	r0, r1, [sp, #8]
 8005518:	3501      	adds	r5, #1
 800551a:	f8cd 9030 	str.w	r9, [sp, #48]	; 0x30
 800551e:	e9dd 6702 	ldrd	r6, r7, [sp, #8]
 8005522:	4628      	mov	r0, r5
 8005524:	f7fb f81e 	bl	8000564 <__aeabi_i2d>
 8005528:	4632      	mov	r2, r6
 800552a:	463b      	mov	r3, r7
 800552c:	f7fb f884 	bl	8000638 <__aeabi_dmul>
 8005530:	4b88      	ldr	r3, [pc, #544]	; (8005754 <_dtoa_r+0x654>)
 8005532:	2200      	movs	r2, #0
 8005534:	f7fa feca 	bl	80002cc <__adddf3>
 8005538:	f1a1 7350 	sub.w	r3, r1, #54525952	; 0x3400000
 800553c:	e9cd 0102 	strd	r0, r1, [sp, #8]
 8005540:	9303      	str	r3, [sp, #12]
 8005542:	9b0c      	ldr	r3, [sp, #48]	; 0x30
 8005544:	2b00      	cmp	r3, #0
 8005546:	d15c      	bne.n	8005602 <_dtoa_r+0x502>
 8005548:	4b83      	ldr	r3, [pc, #524]	; (8005758 <_dtoa_r+0x658>)
 800554a:	2200      	movs	r2, #0
 800554c:	4630      	mov	r0, r6
 800554e:	4639      	mov	r1, r7
 8005550:	f7fa feba 	bl	80002c8 <__aeabi_dsub>
 8005554:	e9dd 2302 	ldrd	r2, r3, [sp, #8]
 8005558:	4606      	mov	r6, r0
 800555a:	460f      	mov	r7, r1
 800555c:	f7fb fafc 	bl	8000b58 <__aeabi_dcmpgt>
 8005560:	2800      	cmp	r0, #0
 8005562:	f040 8296 	bne.w	8005a92 <_dtoa_r+0x992>
 8005566:	e9dd 2102 	ldrd	r2, r1, [sp, #8]
 800556a:	4630      	mov	r0, r6
 800556c:	f101 4300 	add.w	r3, r1, #2147483648	; 0x80000000
 8005570:	4639      	mov	r1, r7
 8005572:	f7fb fad3 	bl	8000b1c <__aeabi_dcmplt>
 8005576:	2800      	cmp	r0, #0
 8005578:	f040 8288 	bne.w	8005a8c <_dtoa_r+0x98c>
 800557c:	e9dd 230a 	ldrd	r2, r3, [sp, #40]	; 0x28
 8005580:	e9cd 2302 	strd	r2, r3, [sp, #8]
 8005584:	9b13      	ldr	r3, [sp, #76]	; 0x4c
 8005586:	2b00      	cmp	r3, #0
 8005588:	f2c0 8158 	blt.w	800583c <_dtoa_r+0x73c>
 800558c:	f1ba 0f0e 	cmp.w	sl, #14
 8005590:	f300 8154 	bgt.w	800583c <_dtoa_r+0x73c>
 8005594:	4b6b      	ldr	r3, [pc, #428]	; (8005744 <_dtoa_r+0x644>)
 8005596:	eb03 03ca 	add.w	r3, r3, sl, lsl #3
 800559a:	e9d3 8900 	ldrd	r8, r9, [r3]
 800559e:	9b09      	ldr	r3, [sp, #36]	; 0x24
 80055a0:	2b00      	cmp	r3, #0
 80055a2:	f280 80e3 	bge.w	800576c <_dtoa_r+0x66c>
 80055a6:	9b01      	ldr	r3, [sp, #4]
 80055a8:	2b00      	cmp	r3, #0
 80055aa:	f300 80df 	bgt.w	800576c <_dtoa_r+0x66c>
 80055ae:	f040 826d 	bne.w	8005a8c <_dtoa_r+0x98c>
 80055b2:	4b69      	ldr	r3, [pc, #420]	; (8005758 <_dtoa_r+0x658>)
 80055b4:	2200      	movs	r2, #0
 80055b6:	4640      	mov	r0, r8
 80055b8:	4649      	mov	r1, r9
 80055ba:	f7fb f83d 	bl	8000638 <__aeabi_dmul>
 80055be:	e9dd 2302 	ldrd	r2, r3, [sp, #8]
 80055c2:	f7fb fabf 	bl	8000b44 <__aeabi_dcmpge>
 80055c6:	9e01      	ldr	r6, [sp, #4]
 80055c8:	4637      	mov	r7, r6
 80055ca:	2800      	cmp	r0, #0
 80055cc:	f040 8243 	bne.w	8005a56 <_dtoa_r+0x956>
 80055d0:	9d00      	ldr	r5, [sp, #0]
 80055d2:	2331      	movs	r3, #49	; 0x31
 80055d4:	f805 3b01 	strb.w	r3, [r5], #1
 80055d8:	f10a 0a01 	add.w	sl, sl, #1
 80055dc:	e23f      	b.n	8005a5e <_dtoa_r+0x95e>
 80055de:	07f2      	lsls	r2, r6, #31
 80055e0:	d505      	bpl.n	80055ee <_dtoa_r+0x4ee>
 80055e2:	e9d7 2300 	ldrd	r2, r3, [r7]
 80055e6:	f7fb f827 	bl	8000638 <__aeabi_dmul>
 80055ea:	3501      	adds	r5, #1
 80055ec:	2301      	movs	r3, #1
 80055ee:	1076      	asrs	r6, r6, #1
 80055f0:	3708      	adds	r7, #8
 80055f2:	e76c      	b.n	80054ce <_dtoa_r+0x3ce>
 80055f4:	2502      	movs	r5, #2
 80055f6:	e76f      	b.n	80054d8 <_dtoa_r+0x3d8>
 80055f8:	9b01      	ldr	r3, [sp, #4]
 80055fa:	f8cd a01c 	str.w	sl, [sp, #28]
 80055fe:	930c      	str	r3, [sp, #48]	; 0x30
 8005600:	e78d      	b.n	800551e <_dtoa_r+0x41e>
 8005602:	9900      	ldr	r1, [sp, #0]
 8005604:	980c      	ldr	r0, [sp, #48]	; 0x30
 8005606:	9a0c      	ldr	r2, [sp, #48]	; 0x30
 8005608:	4b4e      	ldr	r3, [pc, #312]	; (8005744 <_dtoa_r+0x644>)
 800560a:	ed9d 7b02 	vldr	d7, [sp, #8]
 800560e:	4401      	add	r1, r0
 8005610:	9102      	str	r1, [sp, #8]
 8005612:	9908      	ldr	r1, [sp, #32]
 8005614:	eeb0 8a47 	vmov.f32	s16, s14
 8005618:	eef0 8a67 	vmov.f32	s17, s15
 800561c:	eb03 03c2 	add.w	r3, r3, r2, lsl #3
 8005620:	e953 2302 	ldrd	r2, r3, [r3, #-8]
 8005624:	2900      	cmp	r1, #0
 8005626:	d045      	beq.n	80056b4 <_dtoa_r+0x5b4>
 8005628:	494c      	ldr	r1, [pc, #304]	; (800575c <_dtoa_r+0x65c>)
 800562a:	2000      	movs	r0, #0
 800562c:	f7fb f92e 	bl	800088c <__aeabi_ddiv>
 8005630:	ec53 2b18 	vmov	r2, r3, d8
 8005634:	f7fa fe48 	bl	80002c8 <__aeabi_dsub>
 8005638:	9d00      	ldr	r5, [sp, #0]
 800563a:	ec41 0b18 	vmov	d8, r0, r1
 800563e:	4639      	mov	r1, r7
 8005640:	4630      	mov	r0, r6
 8005642:	f7fb faa9 	bl	8000b98 <__aeabi_d2iz>
 8005646:	900c      	str	r0, [sp, #48]	; 0x30
 8005648:	f7fa ff8c 	bl	8000564 <__aeabi_i2d>
 800564c:	4602      	mov	r2, r0
 800564e:	460b      	mov	r3, r1
 8005650:	4630      	mov	r0, r6
 8005652:	4639      	mov	r1, r7
 8005654:	f7fa fe38 	bl	80002c8 <__aeabi_dsub>
 8005658:	9b0c      	ldr	r3, [sp, #48]	; 0x30
 800565a:	3330      	adds	r3, #48	; 0x30
 800565c:	f805 3b01 	strb.w	r3, [r5], #1
 8005660:	ec53 2b18 	vmov	r2, r3, d8
 8005664:	4606      	mov	r6, r0
 8005666:	460f      	mov	r7, r1
 8005668:	f7fb fa58 	bl	8000b1c <__aeabi_dcmplt>
 800566c:	2800      	cmp	r0, #0
 800566e:	d165      	bne.n	800573c <_dtoa_r+0x63c>
 8005670:	4632      	mov	r2, r6
 8005672:	463b      	mov	r3, r7
 8005674:	4935      	ldr	r1, [pc, #212]	; (800574c <_dtoa_r+0x64c>)
 8005676:	2000      	movs	r0, #0
 8005678:	f7fa fe26 	bl	80002c8 <__aeabi_dsub>
 800567c:	ec53 2b18 	vmov	r2, r3, d8
 8005680:	f7fb fa4c 	bl	8000b1c <__aeabi_dcmplt>
 8005684:	2800      	cmp	r0, #0
 8005686:	f040 80b9 	bne.w	80057fc <_dtoa_r+0x6fc>
 800568a:	9b02      	ldr	r3, [sp, #8]
 800568c:	429d      	cmp	r5, r3
 800568e:	f43f af75 	beq.w	800557c <_dtoa_r+0x47c>
 8005692:	4b2f      	ldr	r3, [pc, #188]	; (8005750 <_dtoa_r+0x650>)
 8005694:	ec51 0b18 	vmov	r0, r1, d8
 8005698:	2200      	movs	r2, #0
 800569a:	f7fa ffcd 	bl	8000638 <__aeabi_dmul>
 800569e:	4b2c      	ldr	r3, [pc, #176]	; (8005750 <_dtoa_r+0x650>)
 80056a0:	ec41 0b18 	vmov	d8, r0, r1
 80056a4:	2200      	movs	r2, #0
 80056a6:	4630      	mov	r0, r6
 80056a8:	4639      	mov	r1, r7
 80056aa:	f7fa ffc5 	bl	8000638 <__aeabi_dmul>
 80056ae:	4606      	mov	r6, r0
 80056b0:	460f      	mov	r7, r1
 80056b2:	e7c4      	b.n	800563e <_dtoa_r+0x53e>
 80056b4:	ec51 0b17 	vmov	r0, r1, d7
 80056b8:	f7fa ffbe 	bl	8000638 <__aeabi_dmul>
 80056bc:	9b02      	ldr	r3, [sp, #8]
 80056be:	9d00      	ldr	r5, [sp, #0]
 80056c0:	930c      	str	r3, [sp, #48]	; 0x30
 80056c2:	ec41 0b18 	vmov	d8, r0, r1
 80056c6:	4639      	mov	r1, r7
 80056c8:	4630      	mov	r0, r6
 80056ca:	f7fb fa65 	bl	8000b98 <__aeabi_d2iz>
 80056ce:	9011      	str	r0, [sp, #68]	; 0x44
 80056d0:	f7fa ff48 	bl	8000564 <__aeabi_i2d>
 80056d4:	4602      	mov	r2, r0
 80056d6:	460b      	mov	r3, r1
 80056d8:	4630      	mov	r0, r6
 80056da:	4639      	mov	r1, r7
 80056dc:	f7fa fdf4 	bl	80002c8 <__aeabi_dsub>
 80056e0:	9b11      	ldr	r3, [sp, #68]	; 0x44
 80056e2:	3330      	adds	r3, #48	; 0x30
 80056e4:	f805 3b01 	strb.w	r3, [r5], #1
 80056e8:	9b02      	ldr	r3, [sp, #8]
 80056ea:	429d      	cmp	r5, r3
 80056ec:	4606      	mov	r6, r0
 80056ee:	460f      	mov	r7, r1
 80056f0:	f04f 0200 	mov.w	r2, #0
 80056f4:	d134      	bne.n	8005760 <_dtoa_r+0x660>
 80056f6:	4b19      	ldr	r3, [pc, #100]	; (800575c <_dtoa_r+0x65c>)
 80056f8:	ec51 0b18 	vmov	r0, r1, d8
 80056fc:	f7fa fde6 	bl	80002cc <__adddf3>
 8005700:	4602      	mov	r2, r0
 8005702:	460b      	mov	r3, r1
 8005704:	4630      	mov	r0, r6
 8005706:	4639      	mov	r1, r7
 8005708:	f7fb fa26 	bl	8000b58 <__aeabi_dcmpgt>
 800570c:	2800      	cmp	r0, #0
 800570e:	d175      	bne.n	80057fc <_dtoa_r+0x6fc>
 8005710:	ec53 2b18 	vmov	r2, r3, d8
 8005714:	4911      	ldr	r1, [pc, #68]	; (800575c <_dtoa_r+0x65c>)
 8005716:	2000      	movs	r0, #0
 8005718:	f7fa fdd6 	bl	80002c8 <__aeabi_dsub>
 800571c:	4602      	mov	r2, r0
 800571e:	460b      	mov	r3, r1
 8005720:	4630      	mov	r0, r6
 8005722:	4639      	mov	r1, r7
 8005724:	f7fb f9fa 	bl	8000b1c <__aeabi_dcmplt>
 8005728:	2800      	cmp	r0, #0
 800572a:	f43f af27 	beq.w	800557c <_dtoa_r+0x47c>
 800572e:	9d0c      	ldr	r5, [sp, #48]	; 0x30
 8005730:	1e6b      	subs	r3, r5, #1
 8005732:	930c      	str	r3, [sp, #48]	; 0x30
 8005734:	f815 3c01 	ldrb.w	r3, [r5, #-1]
 8005738:	2b30      	cmp	r3, #48	; 0x30
 800573a:	d0f8      	beq.n	800572e <_dtoa_r+0x62e>
 800573c:	f8dd a01c 	ldr.w	sl, [sp, #28]
 8005740:	e04a      	b.n	80057d8 <_dtoa_r+0x6d8>
 8005742:	bf00      	nop
 8005744:	08007590 	.word	0x08007590
 8005748:	08007568 	.word	0x08007568
 800574c:	3ff00000 	.word	0x3ff00000
 8005750:	40240000 	.word	0x40240000
 8005754:	401c0000 	.word	0x401c0000
 8005758:	40140000 	.word	0x40140000
 800575c:	3fe00000 	.word	0x3fe00000
 8005760:	4baf      	ldr	r3, [pc, #700]	; (8005a20 <_dtoa_r+0x920>)
 8005762:	f7fa ff69 	bl	8000638 <__aeabi_dmul>
 8005766:	4606      	mov	r6, r0
 8005768:	460f      	mov	r7, r1
 800576a:	e7ac      	b.n	80056c6 <_dtoa_r+0x5c6>
 800576c:	e9dd 6702 	ldrd	r6, r7, [sp, #8]
 8005770:	9d00      	ldr	r5, [sp, #0]
 8005772:	4642      	mov	r2, r8
 8005774:	464b      	mov	r3, r9
 8005776:	4630      	mov	r0, r6
 8005778:	4639      	mov	r1, r7
 800577a:	f7fb f887 	bl	800088c <__aeabi_ddiv>
 800577e:	f7fb fa0b 	bl	8000b98 <__aeabi_d2iz>
 8005782:	9002      	str	r0, [sp, #8]
 8005784:	f7fa feee 	bl	8000564 <__aeabi_i2d>
 8005788:	4642      	mov	r2, r8
 800578a:	464b      	mov	r3, r9
 800578c:	f7fa ff54 	bl	8000638 <__aeabi_dmul>
 8005790:	4602      	mov	r2, r0
 8005792:	460b      	mov	r3, r1
 8005794:	4630      	mov	r0, r6
 8005796:	4639      	mov	r1, r7
 8005798:	f7fa fd96 	bl	80002c8 <__aeabi_dsub>
 800579c:	9e02      	ldr	r6, [sp, #8]
 800579e:	9f01      	ldr	r7, [sp, #4]
 80057a0:	3630      	adds	r6, #48	; 0x30
 80057a2:	f805 6b01 	strb.w	r6, [r5], #1
 80057a6:	9e00      	ldr	r6, [sp, #0]
 80057a8:	1bae      	subs	r6, r5, r6
 80057aa:	42b7      	cmp	r7, r6
 80057ac:	4602      	mov	r2, r0
 80057ae:	460b      	mov	r3, r1
 80057b0:	d137      	bne.n	8005822 <_dtoa_r+0x722>
 80057b2:	f7fa fd8b 	bl	80002cc <__adddf3>
 80057b6:	4642      	mov	r2, r8
 80057b8:	464b      	mov	r3, r9
 80057ba:	4606      	mov	r6, r0
 80057bc:	460f      	mov	r7, r1
 80057be:	f7fb f9cb 	bl	8000b58 <__aeabi_dcmpgt>
 80057c2:	b9c8      	cbnz	r0, 80057f8 <_dtoa_r+0x6f8>
 80057c4:	4642      	mov	r2, r8
 80057c6:	464b      	mov	r3, r9
 80057c8:	4630      	mov	r0, r6
 80057ca:	4639      	mov	r1, r7
 80057cc:	f7fb f99c 	bl	8000b08 <__aeabi_dcmpeq>
 80057d0:	b110      	cbz	r0, 80057d8 <_dtoa_r+0x6d8>
 80057d2:	9b02      	ldr	r3, [sp, #8]
 80057d4:	07d9      	lsls	r1, r3, #31
 80057d6:	d40f      	bmi.n	80057f8 <_dtoa_r+0x6f8>
 80057d8:	4620      	mov	r0, r4
 80057da:	4659      	mov	r1, fp
 80057dc:	f000 fad6 	bl	8005d8c <_Bfree>
 80057e0:	2300      	movs	r3, #0
 80057e2:	702b      	strb	r3, [r5, #0]
 80057e4:	9b0f      	ldr	r3, [sp, #60]	; 0x3c
 80057e6:	f10a 0001 	add.w	r0, sl, #1
 80057ea:	6018      	str	r0, [r3, #0]
 80057ec:	9b21      	ldr	r3, [sp, #132]	; 0x84
 80057ee:	2b00      	cmp	r3, #0
 80057f0:	f43f acd8 	beq.w	80051a4 <_dtoa_r+0xa4>
 80057f4:	601d      	str	r5, [r3, #0]
 80057f6:	e4d5      	b.n	80051a4 <_dtoa_r+0xa4>
 80057f8:	f8cd a01c 	str.w	sl, [sp, #28]
 80057fc:	462b      	mov	r3, r5
 80057fe:	461d      	mov	r5, r3
 8005800:	f813 2d01 	ldrb.w	r2, [r3, #-1]!
 8005804:	2a39      	cmp	r2, #57	; 0x39
 8005806:	d108      	bne.n	800581a <_dtoa_r+0x71a>
 8005808:	9a00      	ldr	r2, [sp, #0]
 800580a:	429a      	cmp	r2, r3
 800580c:	d1f7      	bne.n	80057fe <_dtoa_r+0x6fe>
 800580e:	9a07      	ldr	r2, [sp, #28]
 8005810:	9900      	ldr	r1, [sp, #0]
 8005812:	3201      	adds	r2, #1
 8005814:	9207      	str	r2, [sp, #28]
 8005816:	2230      	movs	r2, #48	; 0x30
 8005818:	700a      	strb	r2, [r1, #0]
 800581a:	781a      	ldrb	r2, [r3, #0]
 800581c:	3201      	adds	r2, #1
 800581e:	701a      	strb	r2, [r3, #0]
 8005820:	e78c      	b.n	800573c <_dtoa_r+0x63c>
 8005822:	4b7f      	ldr	r3, [pc, #508]	; (8005a20 <_dtoa_r+0x920>)
 8005824:	2200      	movs	r2, #0
 8005826:	f7fa ff07 	bl	8000638 <__aeabi_dmul>
 800582a:	2200      	movs	r2, #0
 800582c:	2300      	movs	r3, #0
 800582e:	4606      	mov	r6, r0
 8005830:	460f      	mov	r7, r1
 8005832:	f7fb f969 	bl	8000b08 <__aeabi_dcmpeq>
 8005836:	2800      	cmp	r0, #0
 8005838:	d09b      	beq.n	8005772 <_dtoa_r+0x672>
 800583a:	e7cd      	b.n	80057d8 <_dtoa_r+0x6d8>
 800583c:	9a08      	ldr	r2, [sp, #32]
 800583e:	2a00      	cmp	r2, #0
 8005840:	f000 80c4 	beq.w	80059cc <_dtoa_r+0x8cc>
 8005844:	9a05      	ldr	r2, [sp, #20]
 8005846:	2a01      	cmp	r2, #1
 8005848:	f300 80a8 	bgt.w	800599c <_dtoa_r+0x89c>
 800584c:	9a10      	ldr	r2, [sp, #64]	; 0x40
 800584e:	2a00      	cmp	r2, #0
 8005850:	f000 80a0 	beq.w	8005994 <_dtoa_r+0x894>
 8005854:	f203 4333 	addw	r3, r3, #1075	; 0x433
 8005858:	9e06      	ldr	r6, [sp, #24]
 800585a:	4645      	mov	r5, r8
 800585c:	9a04      	ldr	r2, [sp, #16]
 800585e:	2101      	movs	r1, #1
 8005860:	441a      	add	r2, r3
 8005862:	4620      	mov	r0, r4
 8005864:	4498      	add	r8, r3
 8005866:	9204      	str	r2, [sp, #16]
 8005868:	f000 fb4c 	bl	8005f04 <__i2b>
 800586c:	4607      	mov	r7, r0
 800586e:	2d00      	cmp	r5, #0
 8005870:	dd0b      	ble.n	800588a <_dtoa_r+0x78a>
 8005872:	9b04      	ldr	r3, [sp, #16]
 8005874:	2b00      	cmp	r3, #0
 8005876:	dd08      	ble.n	800588a <_dtoa_r+0x78a>
 8005878:	42ab      	cmp	r3, r5
 800587a:	9a04      	ldr	r2, [sp, #16]
 800587c:	bfa8      	it	ge
 800587e:	462b      	movge	r3, r5
 8005880:	eba8 0803 	sub.w	r8, r8, r3
 8005884:	1aed      	subs	r5, r5, r3
 8005886:	1ad3      	subs	r3, r2, r3
 8005888:	9304      	str	r3, [sp, #16]
 800588a:	9b06      	ldr	r3, [sp, #24]
 800588c:	b1fb      	cbz	r3, 80058ce <_dtoa_r+0x7ce>
 800588e:	9b08      	ldr	r3, [sp, #32]
 8005890:	2b00      	cmp	r3, #0
 8005892:	f000 809f 	beq.w	80059d4 <_dtoa_r+0x8d4>
 8005896:	2e00      	cmp	r6, #0
 8005898:	dd11      	ble.n	80058be <_dtoa_r+0x7be>
 800589a:	4639      	mov	r1, r7
 800589c:	4632      	mov	r2, r6
 800589e:	4620      	mov	r0, r4
 80058a0:	f000 fbec 	bl	800607c <__pow5mult>
 80058a4:	465a      	mov	r2, fp
 80058a6:	4601      	mov	r1, r0
 80058a8:	4607      	mov	r7, r0
 80058aa:	4620      	mov	r0, r4
 80058ac:	f000 fb40 	bl	8005f30 <__multiply>
 80058b0:	4659      	mov	r1, fp
 80058b2:	9007      	str	r0, [sp, #28]
 80058b4:	4620      	mov	r0, r4
 80058b6:	f000 fa69 	bl	8005d8c <_Bfree>
 80058ba:	9b07      	ldr	r3, [sp, #28]
 80058bc:	469b      	mov	fp, r3
 80058be:	9b06      	ldr	r3, [sp, #24]
 80058c0:	1b9a      	subs	r2, r3, r6
 80058c2:	d004      	beq.n	80058ce <_dtoa_r+0x7ce>
 80058c4:	4659      	mov	r1, fp
 80058c6:	4620      	mov	r0, r4
 80058c8:	f000 fbd8 	bl	800607c <__pow5mult>
 80058cc:	4683      	mov	fp, r0
 80058ce:	2101      	movs	r1, #1
 80058d0:	4620      	mov	r0, r4
 80058d2:	f000 fb17 	bl	8005f04 <__i2b>
 80058d6:	9b0d      	ldr	r3, [sp, #52]	; 0x34
 80058d8:	2b00      	cmp	r3, #0
 80058da:	4606      	mov	r6, r0
 80058dc:	dd7c      	ble.n	80059d8 <_dtoa_r+0x8d8>
 80058de:	461a      	mov	r2, r3
 80058e0:	4601      	mov	r1, r0
 80058e2:	4620      	mov	r0, r4
 80058e4:	f000 fbca 	bl	800607c <__pow5mult>
 80058e8:	9b05      	ldr	r3, [sp, #20]
 80058ea:	2b01      	cmp	r3, #1
 80058ec:	4606      	mov	r6, r0
 80058ee:	dd76      	ble.n	80059de <_dtoa_r+0x8de>
 80058f0:	2300      	movs	r3, #0
 80058f2:	9306      	str	r3, [sp, #24]
 80058f4:	6933      	ldr	r3, [r6, #16]
 80058f6:	eb06 0383 	add.w	r3, r6, r3, lsl #2
 80058fa:	6918      	ldr	r0, [r3, #16]
 80058fc:	f000 fab2 	bl	8005e64 <__hi0bits>
 8005900:	f1c0 0020 	rsb	r0, r0, #32
 8005904:	9b04      	ldr	r3, [sp, #16]
 8005906:	4418      	add	r0, r3
 8005908:	f010 001f 	ands.w	r0, r0, #31
 800590c:	f000 8086 	beq.w	8005a1c <_dtoa_r+0x91c>
 8005910:	f1c0 0320 	rsb	r3, r0, #32
 8005914:	2b04      	cmp	r3, #4
 8005916:	dd7f      	ble.n	8005a18 <_dtoa_r+0x918>
 8005918:	f1c0 001c 	rsb	r0, r0, #28
 800591c:	9b04      	ldr	r3, [sp, #16]
 800591e:	4403      	add	r3, r0
 8005920:	4480      	add	r8, r0
 8005922:	4405      	add	r5, r0
 8005924:	9304      	str	r3, [sp, #16]
 8005926:	f1b8 0f00 	cmp.w	r8, #0
 800592a:	dd05      	ble.n	8005938 <_dtoa_r+0x838>
 800592c:	4659      	mov	r1, fp
 800592e:	4642      	mov	r2, r8
 8005930:	4620      	mov	r0, r4
 8005932:	f000 fbfd 	bl	8006130 <__lshift>
 8005936:	4683      	mov	fp, r0
 8005938:	9b04      	ldr	r3, [sp, #16]
 800593a:	2b00      	cmp	r3, #0
 800593c:	dd05      	ble.n	800594a <_dtoa_r+0x84a>
 800593e:	4631      	mov	r1, r6
 8005940:	461a      	mov	r2, r3
 8005942:	4620      	mov	r0, r4
 8005944:	f000 fbf4 	bl	8006130 <__lshift>
 8005948:	4606      	mov	r6, r0
 800594a:	9b0e      	ldr	r3, [sp, #56]	; 0x38
 800594c:	2b00      	cmp	r3, #0
 800594e:	d069      	beq.n	8005a24 <_dtoa_r+0x924>
 8005950:	4631      	mov	r1, r6
 8005952:	4658      	mov	r0, fp
 8005954:	f000 fc58 	bl	8006208 <__mcmp>
 8005958:	2800      	cmp	r0, #0
 800595a:	da63      	bge.n	8005a24 <_dtoa_r+0x924>
 800595c:	2300      	movs	r3, #0
 800595e:	4659      	mov	r1, fp
 8005960:	220a      	movs	r2, #10
 8005962:	4620      	mov	r0, r4
 8005964:	f000 fa34 	bl	8005dd0 <__multadd>
 8005968:	9b08      	ldr	r3, [sp, #32]
 800596a:	f10a 3aff 	add.w	sl, sl, #4294967295
 800596e:	4683      	mov	fp, r0
 8005970:	2b00      	cmp	r3, #0
 8005972:	f000 818f 	beq.w	8005c94 <_dtoa_r+0xb94>
 8005976:	4639      	mov	r1, r7
 8005978:	2300      	movs	r3, #0
 800597a:	220a      	movs	r2, #10
 800597c:	4620      	mov	r0, r4
 800597e:	f000 fa27 	bl	8005dd0 <__multadd>
 8005982:	f1b9 0f00 	cmp.w	r9, #0
 8005986:	4607      	mov	r7, r0
 8005988:	f300 808e 	bgt.w	8005aa8 <_dtoa_r+0x9a8>
 800598c:	9b05      	ldr	r3, [sp, #20]
 800598e:	2b02      	cmp	r3, #2
 8005990:	dc50      	bgt.n	8005a34 <_dtoa_r+0x934>
 8005992:	e089      	b.n	8005aa8 <_dtoa_r+0x9a8>
 8005994:	9b12      	ldr	r3, [sp, #72]	; 0x48
 8005996:	f1c3 0336 	rsb	r3, r3, #54	; 0x36
 800599a:	e75d      	b.n	8005858 <_dtoa_r+0x758>
 800599c:	9b01      	ldr	r3, [sp, #4]
 800599e:	1e5e      	subs	r6, r3, #1
 80059a0:	9b06      	ldr	r3, [sp, #24]
 80059a2:	42b3      	cmp	r3, r6
 80059a4:	bfbf      	itttt	lt
 80059a6:	9b06      	ldrlt	r3, [sp, #24]
 80059a8:	9606      	strlt	r6, [sp, #24]
 80059aa:	1af2      	sublt	r2, r6, r3
 80059ac:	9b0d      	ldrlt	r3, [sp, #52]	; 0x34
 80059ae:	bfb6      	itet	lt
 80059b0:	189b      	addlt	r3, r3, r2
 80059b2:	1b9e      	subge	r6, r3, r6
 80059b4:	930d      	strlt	r3, [sp, #52]	; 0x34
 80059b6:	9b01      	ldr	r3, [sp, #4]
 80059b8:	bfb8      	it	lt
 80059ba:	2600      	movlt	r6, #0
 80059bc:	2b00      	cmp	r3, #0
 80059be:	bfb5      	itete	lt
 80059c0:	eba8 0503 	sublt.w	r5, r8, r3
 80059c4:	9b01      	ldrge	r3, [sp, #4]
 80059c6:	2300      	movlt	r3, #0
 80059c8:	4645      	movge	r5, r8
 80059ca:	e747      	b.n	800585c <_dtoa_r+0x75c>
 80059cc:	9e06      	ldr	r6, [sp, #24]
 80059ce:	9f08      	ldr	r7, [sp, #32]
 80059d0:	4645      	mov	r5, r8
 80059d2:	e74c      	b.n	800586e <_dtoa_r+0x76e>
 80059d4:	9a06      	ldr	r2, [sp, #24]
 80059d6:	e775      	b.n	80058c4 <_dtoa_r+0x7c4>
 80059d8:	9b05      	ldr	r3, [sp, #20]
 80059da:	2b01      	cmp	r3, #1
 80059dc:	dc18      	bgt.n	8005a10 <_dtoa_r+0x910>
 80059de:	9b02      	ldr	r3, [sp, #8]
 80059e0:	b9b3      	cbnz	r3, 8005a10 <_dtoa_r+0x910>
 80059e2:	9b03      	ldr	r3, [sp, #12]
 80059e4:	f3c3 0313 	ubfx	r3, r3, #0, #20
 80059e8:	b9a3      	cbnz	r3, 8005a14 <_dtoa_r+0x914>
 80059ea:	9b03      	ldr	r3, [sp, #12]
 80059ec:	f023 4300 	bic.w	r3, r3, #2147483648	; 0x80000000
 80059f0:	0d1b      	lsrs	r3, r3, #20
 80059f2:	051b      	lsls	r3, r3, #20
 80059f4:	b12b      	cbz	r3, 8005a02 <_dtoa_r+0x902>
 80059f6:	9b04      	ldr	r3, [sp, #16]
 80059f8:	3301      	adds	r3, #1
 80059fa:	9304      	str	r3, [sp, #16]
 80059fc:	f108 0801 	add.w	r8, r8, #1
 8005a00:	2301      	movs	r3, #1
 8005a02:	9306      	str	r3, [sp, #24]
 8005a04:	9b0d      	ldr	r3, [sp, #52]	; 0x34
 8005a06:	2b00      	cmp	r3, #0
 8005a08:	f47f af74 	bne.w	80058f4 <_dtoa_r+0x7f4>
 8005a0c:	2001      	movs	r0, #1
 8005a0e:	e779      	b.n	8005904 <_dtoa_r+0x804>
 8005a10:	2300      	movs	r3, #0
 8005a12:	e7f6      	b.n	8005a02 <_dtoa_r+0x902>
 8005a14:	9b02      	ldr	r3, [sp, #8]
 8005a16:	e7f4      	b.n	8005a02 <_dtoa_r+0x902>
 8005a18:	d085      	beq.n	8005926 <_dtoa_r+0x826>
 8005a1a:	4618      	mov	r0, r3
 8005a1c:	301c      	adds	r0, #28
 8005a1e:	e77d      	b.n	800591c <_dtoa_r+0x81c>
 8005a20:	40240000 	.word	0x40240000
 8005a24:	9b01      	ldr	r3, [sp, #4]
 8005a26:	2b00      	cmp	r3, #0
 8005a28:	dc38      	bgt.n	8005a9c <_dtoa_r+0x99c>
 8005a2a:	9b05      	ldr	r3, [sp, #20]
 8005a2c:	2b02      	cmp	r3, #2
 8005a2e:	dd35      	ble.n	8005a9c <_dtoa_r+0x99c>
 8005a30:	f8dd 9004 	ldr.w	r9, [sp, #4]
 8005a34:	f1b9 0f00 	cmp.w	r9, #0
 8005a38:	d10d      	bne.n	8005a56 <_dtoa_r+0x956>
 8005a3a:	4631      	mov	r1, r6
 8005a3c:	464b      	mov	r3, r9
 8005a3e:	2205      	movs	r2, #5
 8005a40:	4620      	mov	r0, r4
 8005a42:	f000 f9c5 	bl	8005dd0 <__multadd>
 8005a46:	4601      	mov	r1, r0
 8005a48:	4606      	mov	r6, r0
 8005a4a:	4658      	mov	r0, fp
 8005a4c:	f000 fbdc 	bl	8006208 <__mcmp>
 8005a50:	2800      	cmp	r0, #0
 8005a52:	f73f adbd 	bgt.w	80055d0 <_dtoa_r+0x4d0>
 8005a56:	9b09      	ldr	r3, [sp, #36]	; 0x24
 8005a58:	9d00      	ldr	r5, [sp, #0]
 8005a5a:	ea6f 0a03 	mvn.w	sl, r3
 8005a5e:	f04f 0800 	mov.w	r8, #0
 8005a62:	4631      	mov	r1, r6
 8005a64:	4620      	mov	r0, r4
 8005a66:	f000 f991 	bl	8005d8c <_Bfree>
 8005a6a:	2f00      	cmp	r7, #0
 8005a6c:	f43f aeb4 	beq.w	80057d8 <_dtoa_r+0x6d8>
 8005a70:	f1b8 0f00 	cmp.w	r8, #0
 8005a74:	d005      	beq.n	8005a82 <_dtoa_r+0x982>
 8005a76:	45b8      	cmp	r8, r7
 8005a78:	d003      	beq.n	8005a82 <_dtoa_r+0x982>
 8005a7a:	4641      	mov	r1, r8
 8005a7c:	4620      	mov	r0, r4
 8005a7e:	f000 f985 	bl	8005d8c <_Bfree>
 8005a82:	4639      	mov	r1, r7
 8005a84:	4620      	mov	r0, r4
 8005a86:	f000 f981 	bl	8005d8c <_Bfree>
 8005a8a:	e6a5      	b.n	80057d8 <_dtoa_r+0x6d8>
 8005a8c:	2600      	movs	r6, #0
 8005a8e:	4637      	mov	r7, r6
 8005a90:	e7e1      	b.n	8005a56 <_dtoa_r+0x956>
 8005a92:	9e0c      	ldr	r6, [sp, #48]	; 0x30
 8005a94:	f8dd a01c 	ldr.w	sl, [sp, #28]
 8005a98:	4637      	mov	r7, r6
 8005a9a:	e599      	b.n	80055d0 <_dtoa_r+0x4d0>
 8005a9c:	9b08      	ldr	r3, [sp, #32]
 8005a9e:	f8dd 9004 	ldr.w	r9, [sp, #4]
 8005aa2:	2b00      	cmp	r3, #0
 8005aa4:	f000 80fd 	beq.w	8005ca2 <_dtoa_r+0xba2>
 8005aa8:	2d00      	cmp	r5, #0
 8005aaa:	dd05      	ble.n	8005ab8 <_dtoa_r+0x9b8>
 8005aac:	4639      	mov	r1, r7
 8005aae:	462a      	mov	r2, r5
 8005ab0:	4620      	mov	r0, r4
 8005ab2:	f000 fb3d 	bl	8006130 <__lshift>
 8005ab6:	4607      	mov	r7, r0
 8005ab8:	9b06      	ldr	r3, [sp, #24]
 8005aba:	2b00      	cmp	r3, #0
 8005abc:	d05c      	beq.n	8005b78 <_dtoa_r+0xa78>
 8005abe:	6879      	ldr	r1, [r7, #4]
 8005ac0:	4620      	mov	r0, r4
 8005ac2:	f000 f923 	bl	8005d0c <_Balloc>
 8005ac6:	4605      	mov	r5, r0
 8005ac8:	b928      	cbnz	r0, 8005ad6 <_dtoa_r+0x9d6>
 8005aca:	4b80      	ldr	r3, [pc, #512]	; (8005ccc <_dtoa_r+0xbcc>)
 8005acc:	4602      	mov	r2, r0
 8005ace:	f240 21ea 	movw	r1, #746	; 0x2ea
 8005ad2:	f7ff bb2e 	b.w	8005132 <_dtoa_r+0x32>
 8005ad6:	693a      	ldr	r2, [r7, #16]
 8005ad8:	3202      	adds	r2, #2
 8005ada:	0092      	lsls	r2, r2, #2
 8005adc:	f107 010c 	add.w	r1, r7, #12
 8005ae0:	300c      	adds	r0, #12
 8005ae2:	f000 f905 	bl	8005cf0 <memcpy>
 8005ae6:	2201      	movs	r2, #1
 8005ae8:	4629      	mov	r1, r5
 8005aea:	4620      	mov	r0, r4
 8005aec:	f000 fb20 	bl	8006130 <__lshift>
 8005af0:	9b00      	ldr	r3, [sp, #0]
 8005af2:	3301      	adds	r3, #1
 8005af4:	9301      	str	r3, [sp, #4]
 8005af6:	9b00      	ldr	r3, [sp, #0]
 8005af8:	444b      	add	r3, r9
 8005afa:	9307      	str	r3, [sp, #28]
 8005afc:	9b02      	ldr	r3, [sp, #8]
 8005afe:	f003 0301 	and.w	r3, r3, #1
 8005b02:	46b8      	mov	r8, r7
 8005b04:	9306      	str	r3, [sp, #24]
 8005b06:	4607      	mov	r7, r0
 8005b08:	9b01      	ldr	r3, [sp, #4]
 8005b0a:	4631      	mov	r1, r6
 8005b0c:	3b01      	subs	r3, #1
 8005b0e:	4658      	mov	r0, fp
 8005b10:	9302      	str	r3, [sp, #8]
 8005b12:	f7ff fa67 	bl	8004fe4 <quorem>
 8005b16:	4603      	mov	r3, r0
 8005b18:	3330      	adds	r3, #48	; 0x30
 8005b1a:	9004      	str	r0, [sp, #16]
 8005b1c:	4641      	mov	r1, r8
 8005b1e:	4658      	mov	r0, fp
 8005b20:	9308      	str	r3, [sp, #32]
 8005b22:	f000 fb71 	bl	8006208 <__mcmp>
 8005b26:	463a      	mov	r2, r7
 8005b28:	4681      	mov	r9, r0
 8005b2a:	4631      	mov	r1, r6
 8005b2c:	4620      	mov	r0, r4
 8005b2e:	f000 fb87 	bl	8006240 <__mdiff>
 8005b32:	68c2      	ldr	r2, [r0, #12]
 8005b34:	9b08      	ldr	r3, [sp, #32]
 8005b36:	4605      	mov	r5, r0
 8005b38:	bb02      	cbnz	r2, 8005b7c <_dtoa_r+0xa7c>
 8005b3a:	4601      	mov	r1, r0
 8005b3c:	4658      	mov	r0, fp
 8005b3e:	f000 fb63 	bl	8006208 <__mcmp>
 8005b42:	9b08      	ldr	r3, [sp, #32]
 8005b44:	4602      	mov	r2, r0
 8005b46:	4629      	mov	r1, r5
 8005b48:	4620      	mov	r0, r4
 8005b4a:	e9cd 3208 	strd	r3, r2, [sp, #32]
 8005b4e:	f000 f91d 	bl	8005d8c <_Bfree>
 8005b52:	9b05      	ldr	r3, [sp, #20]
 8005b54:	9a09      	ldr	r2, [sp, #36]	; 0x24
 8005b56:	9d01      	ldr	r5, [sp, #4]
 8005b58:	ea43 0102 	orr.w	r1, r3, r2
 8005b5c:	9b06      	ldr	r3, [sp, #24]
 8005b5e:	430b      	orrs	r3, r1
 8005b60:	9b08      	ldr	r3, [sp, #32]
 8005b62:	d10d      	bne.n	8005b80 <_dtoa_r+0xa80>
 8005b64:	2b39      	cmp	r3, #57	; 0x39
 8005b66:	d029      	beq.n	8005bbc <_dtoa_r+0xabc>
 8005b68:	f1b9 0f00 	cmp.w	r9, #0
 8005b6c:	dd01      	ble.n	8005b72 <_dtoa_r+0xa72>
 8005b6e:	9b04      	ldr	r3, [sp, #16]
 8005b70:	3331      	adds	r3, #49	; 0x31
 8005b72:	9a02      	ldr	r2, [sp, #8]
 8005b74:	7013      	strb	r3, [r2, #0]
 8005b76:	e774      	b.n	8005a62 <_dtoa_r+0x962>
 8005b78:	4638      	mov	r0, r7
 8005b7a:	e7b9      	b.n	8005af0 <_dtoa_r+0x9f0>
 8005b7c:	2201      	movs	r2, #1
 8005b7e:	e7e2      	b.n	8005b46 <_dtoa_r+0xa46>
 8005b80:	f1b9 0f00 	cmp.w	r9, #0
 8005b84:	db06      	blt.n	8005b94 <_dtoa_r+0xa94>
 8005b86:	9905      	ldr	r1, [sp, #20]
 8005b88:	ea41 0909 	orr.w	r9, r1, r9
 8005b8c:	9906      	ldr	r1, [sp, #24]
 8005b8e:	ea59 0101 	orrs.w	r1, r9, r1
 8005b92:	d120      	bne.n	8005bd6 <_dtoa_r+0xad6>
 8005b94:	2a00      	cmp	r2, #0
 8005b96:	ddec      	ble.n	8005b72 <_dtoa_r+0xa72>
 8005b98:	4659      	mov	r1, fp
 8005b9a:	2201      	movs	r2, #1
 8005b9c:	4620      	mov	r0, r4
 8005b9e:	9301      	str	r3, [sp, #4]
 8005ba0:	f000 fac6 	bl	8006130 <__lshift>
 8005ba4:	4631      	mov	r1, r6
 8005ba6:	4683      	mov	fp, r0
 8005ba8:	f000 fb2e 	bl	8006208 <__mcmp>
 8005bac:	2800      	cmp	r0, #0
 8005bae:	9b01      	ldr	r3, [sp, #4]
 8005bb0:	dc02      	bgt.n	8005bb8 <_dtoa_r+0xab8>
 8005bb2:	d1de      	bne.n	8005b72 <_dtoa_r+0xa72>
 8005bb4:	07da      	lsls	r2, r3, #31
 8005bb6:	d5dc      	bpl.n	8005b72 <_dtoa_r+0xa72>
 8005bb8:	2b39      	cmp	r3, #57	; 0x39
 8005bba:	d1d8      	bne.n	8005b6e <_dtoa_r+0xa6e>
 8005bbc:	9a02      	ldr	r2, [sp, #8]
 8005bbe:	2339      	movs	r3, #57	; 0x39
 8005bc0:	7013      	strb	r3, [r2, #0]
 8005bc2:	462b      	mov	r3, r5
 8005bc4:	461d      	mov	r5, r3
 8005bc6:	3b01      	subs	r3, #1
 8005bc8:	f815 2c01 	ldrb.w	r2, [r5, #-1]
 8005bcc:	2a39      	cmp	r2, #57	; 0x39
 8005bce:	d050      	beq.n	8005c72 <_dtoa_r+0xb72>
 8005bd0:	3201      	adds	r2, #1
 8005bd2:	701a      	strb	r2, [r3, #0]
 8005bd4:	e745      	b.n	8005a62 <_dtoa_r+0x962>
 8005bd6:	2a00      	cmp	r2, #0
 8005bd8:	dd03      	ble.n	8005be2 <_dtoa_r+0xae2>
 8005bda:	2b39      	cmp	r3, #57	; 0x39
 8005bdc:	d0ee      	beq.n	8005bbc <_dtoa_r+0xabc>
 8005bde:	3301      	adds	r3, #1
 8005be0:	e7c7      	b.n	8005b72 <_dtoa_r+0xa72>
 8005be2:	9a01      	ldr	r2, [sp, #4]
 8005be4:	9907      	ldr	r1, [sp, #28]
 8005be6:	f802 3c01 	strb.w	r3, [r2, #-1]
 8005bea:	428a      	cmp	r2, r1
 8005bec:	d02a      	beq.n	8005c44 <_dtoa_r+0xb44>
 8005bee:	4659      	mov	r1, fp
 8005bf0:	2300      	movs	r3, #0
 8005bf2:	220a      	movs	r2, #10
 8005bf4:	4620      	mov	r0, r4
 8005bf6:	f000 f8eb 	bl	8005dd0 <__multadd>
 8005bfa:	45b8      	cmp	r8, r7
 8005bfc:	4683      	mov	fp, r0
 8005bfe:	f04f 0300 	mov.w	r3, #0
 8005c02:	f04f 020a 	mov.w	r2, #10
 8005c06:	4641      	mov	r1, r8
 8005c08:	4620      	mov	r0, r4
 8005c0a:	d107      	bne.n	8005c1c <_dtoa_r+0xb1c>
 8005c0c:	f000 f8e0 	bl	8005dd0 <__multadd>
 8005c10:	4680      	mov	r8, r0
 8005c12:	4607      	mov	r7, r0
 8005c14:	9b01      	ldr	r3, [sp, #4]
 8005c16:	3301      	adds	r3, #1
 8005c18:	9301      	str	r3, [sp, #4]
 8005c1a:	e775      	b.n	8005b08 <_dtoa_r+0xa08>
 8005c1c:	f000 f8d8 	bl	8005dd0 <__multadd>
 8005c20:	4639      	mov	r1, r7
 8005c22:	4680      	mov	r8, r0
 8005c24:	2300      	movs	r3, #0
 8005c26:	220a      	movs	r2, #10
 8005c28:	4620      	mov	r0, r4
 8005c2a:	f000 f8d1 	bl	8005dd0 <__multadd>
 8005c2e:	4607      	mov	r7, r0
 8005c30:	e7f0      	b.n	8005c14 <_dtoa_r+0xb14>
 8005c32:	f1b9 0f00 	cmp.w	r9, #0
 8005c36:	9a00      	ldr	r2, [sp, #0]
 8005c38:	bfcc      	ite	gt
 8005c3a:	464d      	movgt	r5, r9
 8005c3c:	2501      	movle	r5, #1
 8005c3e:	4415      	add	r5, r2
 8005c40:	f04f 0800 	mov.w	r8, #0
 8005c44:	4659      	mov	r1, fp
 8005c46:	2201      	movs	r2, #1
 8005c48:	4620      	mov	r0, r4
 8005c4a:	9301      	str	r3, [sp, #4]
 8005c4c:	f000 fa70 	bl	8006130 <__lshift>
 8005c50:	4631      	mov	r1, r6
 8005c52:	4683      	mov	fp, r0
 8005c54:	f000 fad8 	bl	8006208 <__mcmp>
 8005c58:	2800      	cmp	r0, #0
 8005c5a:	dcb2      	bgt.n	8005bc2 <_dtoa_r+0xac2>
 8005c5c:	d102      	bne.n	8005c64 <_dtoa_r+0xb64>
 8005c5e:	9b01      	ldr	r3, [sp, #4]
 8005c60:	07db      	lsls	r3, r3, #31
 8005c62:	d4ae      	bmi.n	8005bc2 <_dtoa_r+0xac2>
 8005c64:	462b      	mov	r3, r5
 8005c66:	461d      	mov	r5, r3
 8005c68:	f813 2d01 	ldrb.w	r2, [r3, #-1]!
 8005c6c:	2a30      	cmp	r2, #48	; 0x30
 8005c6e:	d0fa      	beq.n	8005c66 <_dtoa_r+0xb66>
 8005c70:	e6f7      	b.n	8005a62 <_dtoa_r+0x962>
 8005c72:	9a00      	ldr	r2, [sp, #0]
 8005c74:	429a      	cmp	r2, r3
 8005c76:	d1a5      	bne.n	8005bc4 <_dtoa_r+0xac4>
 8005c78:	f10a 0a01 	add.w	sl, sl, #1
 8005c7c:	2331      	movs	r3, #49	; 0x31
 8005c7e:	e779      	b.n	8005b74 <_dtoa_r+0xa74>
 8005c80:	4b13      	ldr	r3, [pc, #76]	; (8005cd0 <_dtoa_r+0xbd0>)
 8005c82:	f7ff baaf 	b.w	80051e4 <_dtoa_r+0xe4>
 8005c86:	9b21      	ldr	r3, [sp, #132]	; 0x84
 8005c88:	2b00      	cmp	r3, #0
 8005c8a:	f47f aa86 	bne.w	800519a <_dtoa_r+0x9a>
 8005c8e:	4b11      	ldr	r3, [pc, #68]	; (8005cd4 <_dtoa_r+0xbd4>)
 8005c90:	f7ff baa8 	b.w	80051e4 <_dtoa_r+0xe4>
 8005c94:	f1b9 0f00 	cmp.w	r9, #0
 8005c98:	dc03      	bgt.n	8005ca2 <_dtoa_r+0xba2>
 8005c9a:	9b05      	ldr	r3, [sp, #20]
 8005c9c:	2b02      	cmp	r3, #2
 8005c9e:	f73f aec9 	bgt.w	8005a34 <_dtoa_r+0x934>
 8005ca2:	9d00      	ldr	r5, [sp, #0]
 8005ca4:	4631      	mov	r1, r6
 8005ca6:	4658      	mov	r0, fp
 8005ca8:	f7ff f99c 	bl	8004fe4 <quorem>
 8005cac:	f100 0330 	add.w	r3, r0, #48	; 0x30
 8005cb0:	f805 3b01 	strb.w	r3, [r5], #1
 8005cb4:	9a00      	ldr	r2, [sp, #0]
 8005cb6:	1aaa      	subs	r2, r5, r2
 8005cb8:	4591      	cmp	r9, r2
 8005cba:	ddba      	ble.n	8005c32 <_dtoa_r+0xb32>
 8005cbc:	4659      	mov	r1, fp
 8005cbe:	2300      	movs	r3, #0
 8005cc0:	220a      	movs	r2, #10
 8005cc2:	4620      	mov	r0, r4
 8005cc4:	f000 f884 	bl	8005dd0 <__multadd>
 8005cc8:	4683      	mov	fp, r0
 8005cca:	e7eb      	b.n	8005ca4 <_dtoa_r+0xba4>
 8005ccc:	080074f7 	.word	0x080074f7
 8005cd0:	08007450 	.word	0x08007450
 8005cd4:	08007474 	.word	0x08007474

08005cd8 <_localeconv_r>:
 8005cd8:	4800      	ldr	r0, [pc, #0]	; (8005cdc <_localeconv_r+0x4>)
 8005cda:	4770      	bx	lr
 8005cdc:	20000168 	.word	0x20000168

08005ce0 <malloc>:
 8005ce0:	4b02      	ldr	r3, [pc, #8]	; (8005cec <malloc+0xc>)
 8005ce2:	4601      	mov	r1, r0
 8005ce4:	6818      	ldr	r0, [r3, #0]
 8005ce6:	f000 bbef 	b.w	80064c8 <_malloc_r>
 8005cea:	bf00      	nop
 8005cec:	20000014 	.word	0x20000014

08005cf0 <memcpy>:
 8005cf0:	440a      	add	r2, r1
 8005cf2:	4291      	cmp	r1, r2
 8005cf4:	f100 33ff 	add.w	r3, r0, #4294967295
 8005cf8:	d100      	bne.n	8005cfc <memcpy+0xc>
 8005cfa:	4770      	bx	lr
 8005cfc:	b510      	push	{r4, lr}
 8005cfe:	f811 4b01 	ldrb.w	r4, [r1], #1
 8005d02:	f803 4f01 	strb.w	r4, [r3, #1]!
 8005d06:	4291      	cmp	r1, r2
 8005d08:	d1f9      	bne.n	8005cfe <memcpy+0xe>
 8005d0a:	bd10      	pop	{r4, pc}

08005d0c <_Balloc>:
 8005d0c:	b570      	push	{r4, r5, r6, lr}
 8005d0e:	6a46      	ldr	r6, [r0, #36]	; 0x24
 8005d10:	4604      	mov	r4, r0
 8005d12:	460d      	mov	r5, r1
 8005d14:	b976      	cbnz	r6, 8005d34 <_Balloc+0x28>
 8005d16:	2010      	movs	r0, #16
 8005d18:	f7ff ffe2 	bl	8005ce0 <malloc>
 8005d1c:	4602      	mov	r2, r0
 8005d1e:	6260      	str	r0, [r4, #36]	; 0x24
 8005d20:	b920      	cbnz	r0, 8005d2c <_Balloc+0x20>
 8005d22:	4b18      	ldr	r3, [pc, #96]	; (8005d84 <_Balloc+0x78>)
 8005d24:	4818      	ldr	r0, [pc, #96]	; (8005d88 <_Balloc+0x7c>)
 8005d26:	2166      	movs	r1, #102	; 0x66
 8005d28:	f000 fd94 	bl	8006854 <__assert_func>
 8005d2c:	e9c0 6601 	strd	r6, r6, [r0, #4]
 8005d30:	6006      	str	r6, [r0, #0]
 8005d32:	60c6      	str	r6, [r0, #12]
 8005d34:	6a66      	ldr	r6, [r4, #36]	; 0x24
 8005d36:	68f3      	ldr	r3, [r6, #12]
 8005d38:	b183      	cbz	r3, 8005d5c <_Balloc+0x50>
 8005d3a:	6a63      	ldr	r3, [r4, #36]	; 0x24
 8005d3c:	68db      	ldr	r3, [r3, #12]
 8005d3e:	f853 0025 	ldr.w	r0, [r3, r5, lsl #2]
 8005d42:	b9b8      	cbnz	r0, 8005d74 <_Balloc+0x68>
 8005d44:	2101      	movs	r1, #1
 8005d46:	fa01 f605 	lsl.w	r6, r1, r5
 8005d4a:	1d72      	adds	r2, r6, #5
 8005d4c:	0092      	lsls	r2, r2, #2
 8005d4e:	4620      	mov	r0, r4
 8005d50:	f000 fb5a 	bl	8006408 <_calloc_r>
 8005d54:	b160      	cbz	r0, 8005d70 <_Balloc+0x64>
 8005d56:	e9c0 5601 	strd	r5, r6, [r0, #4]
 8005d5a:	e00e      	b.n	8005d7a <_Balloc+0x6e>
 8005d5c:	2221      	movs	r2, #33	; 0x21
 8005d5e:	2104      	movs	r1, #4
 8005d60:	4620      	mov	r0, r4
 8005d62:	f000 fb51 	bl	8006408 <_calloc_r>
 8005d66:	6a63      	ldr	r3, [r4, #36]	; 0x24
 8005d68:	60f0      	str	r0, [r6, #12]
 8005d6a:	68db      	ldr	r3, [r3, #12]
 8005d6c:	2b00      	cmp	r3, #0
 8005d6e:	d1e4      	bne.n	8005d3a <_Balloc+0x2e>
 8005d70:	2000      	movs	r0, #0
 8005d72:	bd70      	pop	{r4, r5, r6, pc}
 8005d74:	6802      	ldr	r2, [r0, #0]
 8005d76:	f843 2025 	str.w	r2, [r3, r5, lsl #2]
 8005d7a:	2300      	movs	r3, #0
 8005d7c:	e9c0 3303 	strd	r3, r3, [r0, #12]
 8005d80:	e7f7      	b.n	8005d72 <_Balloc+0x66>
 8005d82:	bf00      	nop
 8005d84:	08007481 	.word	0x08007481
 8005d88:	08007508 	.word	0x08007508

08005d8c <_Bfree>:
 8005d8c:	b570      	push	{r4, r5, r6, lr}
 8005d8e:	6a46      	ldr	r6, [r0, #36]	; 0x24
 8005d90:	4605      	mov	r5, r0
 8005d92:	460c      	mov	r4, r1
 8005d94:	b976      	cbnz	r6, 8005db4 <_Bfree+0x28>
 8005d96:	2010      	movs	r0, #16
 8005d98:	f7ff ffa2 	bl	8005ce0 <malloc>
 8005d9c:	4602      	mov	r2, r0
 8005d9e:	6268      	str	r0, [r5, #36]	; 0x24
 8005da0:	b920      	cbnz	r0, 8005dac <_Bfree+0x20>
 8005da2:	4b09      	ldr	r3, [pc, #36]	; (8005dc8 <_Bfree+0x3c>)
 8005da4:	4809      	ldr	r0, [pc, #36]	; (8005dcc <_Bfree+0x40>)
 8005da6:	218a      	movs	r1, #138	; 0x8a
 8005da8:	f000 fd54 	bl	8006854 <__assert_func>
 8005dac:	e9c0 6601 	strd	r6, r6, [r0, #4]
 8005db0:	6006      	str	r6, [r0, #0]
 8005db2:	60c6      	str	r6, [r0, #12]
 8005db4:	b13c      	cbz	r4, 8005dc6 <_Bfree+0x3a>
 8005db6:	6a6b      	ldr	r3, [r5, #36]	; 0x24
 8005db8:	6862      	ldr	r2, [r4, #4]
 8005dba:	68db      	ldr	r3, [r3, #12]
 8005dbc:	f853 1022 	ldr.w	r1, [r3, r2, lsl #2]
 8005dc0:	6021      	str	r1, [r4, #0]
 8005dc2:	f843 4022 	str.w	r4, [r3, r2, lsl #2]
 8005dc6:	bd70      	pop	{r4, r5, r6, pc}
 8005dc8:	08007481 	.word	0x08007481
 8005dcc:	08007508 	.word	0x08007508

08005dd0 <__multadd>:
 8005dd0:	e92d 41f0 	stmdb	sp!, {r4, r5, r6, r7, r8, lr}
 8005dd4:	690e      	ldr	r6, [r1, #16]
 8005dd6:	4607      	mov	r7, r0
 8005dd8:	4698      	mov	r8, r3
 8005dda:	460c      	mov	r4, r1
 8005ddc:	f101 0014 	add.w	r0, r1, #20
 8005de0:	2300      	movs	r3, #0
 8005de2:	6805      	ldr	r5, [r0, #0]
 8005de4:	b2a9      	uxth	r1, r5
 8005de6:	fb02 8101 	mla	r1, r2, r1, r8
 8005dea:	ea4f 4c11 	mov.w	ip, r1, lsr #16
 8005dee:	0c2d      	lsrs	r5, r5, #16
 8005df0:	fb02 c505 	mla	r5, r2, r5, ip
 8005df4:	b289      	uxth	r1, r1
 8005df6:	3301      	adds	r3, #1
 8005df8:	eb01 4105 	add.w	r1, r1, r5, lsl #16
 8005dfc:	429e      	cmp	r6, r3
 8005dfe:	f840 1b04 	str.w	r1, [r0], #4
 8005e02:	ea4f 4815 	mov.w	r8, r5, lsr #16
 8005e06:	dcec      	bgt.n	8005de2 <__multadd+0x12>
 8005e08:	f1b8 0f00 	cmp.w	r8, #0
 8005e0c:	d022      	beq.n	8005e54 <__multadd+0x84>
 8005e0e:	68a3      	ldr	r3, [r4, #8]
 8005e10:	42b3      	cmp	r3, r6
 8005e12:	dc19      	bgt.n	8005e48 <__multadd+0x78>
 8005e14:	6861      	ldr	r1, [r4, #4]
 8005e16:	4638      	mov	r0, r7
 8005e18:	3101      	adds	r1, #1
 8005e1a:	f7ff ff77 	bl	8005d0c <_Balloc>
 8005e1e:	4605      	mov	r5, r0
 8005e20:	b928      	cbnz	r0, 8005e2e <__multadd+0x5e>
 8005e22:	4602      	mov	r2, r0
 8005e24:	4b0d      	ldr	r3, [pc, #52]	; (8005e5c <__multadd+0x8c>)
 8005e26:	480e      	ldr	r0, [pc, #56]	; (8005e60 <__multadd+0x90>)
 8005e28:	21b5      	movs	r1, #181	; 0xb5
 8005e2a:	f000 fd13 	bl	8006854 <__assert_func>
 8005e2e:	6922      	ldr	r2, [r4, #16]
 8005e30:	3202      	adds	r2, #2
 8005e32:	f104 010c 	add.w	r1, r4, #12
 8005e36:	0092      	lsls	r2, r2, #2
 8005e38:	300c      	adds	r0, #12
 8005e3a:	f7ff ff59 	bl	8005cf0 <memcpy>
 8005e3e:	4621      	mov	r1, r4
 8005e40:	4638      	mov	r0, r7
 8005e42:	f7ff ffa3 	bl	8005d8c <_Bfree>
 8005e46:	462c      	mov	r4, r5
 8005e48:	eb04 0386 	add.w	r3, r4, r6, lsl #2
 8005e4c:	3601      	adds	r6, #1
 8005e4e:	f8c3 8014 	str.w	r8, [r3, #20]
 8005e52:	6126      	str	r6, [r4, #16]
 8005e54:	4620      	mov	r0, r4
 8005e56:	e8bd 81f0 	ldmia.w	sp!, {r4, r5, r6, r7, r8, pc}
 8005e5a:	bf00      	nop
 8005e5c:	080074f7 	.word	0x080074f7
 8005e60:	08007508 	.word	0x08007508

08005e64 <__hi0bits>:
 8005e64:	0c03      	lsrs	r3, r0, #16
 8005e66:	041b      	lsls	r3, r3, #16
 8005e68:	b9d3      	cbnz	r3, 8005ea0 <__hi0bits+0x3c>
 8005e6a:	0400      	lsls	r0, r0, #16
 8005e6c:	2310      	movs	r3, #16
 8005e6e:	f010 4f7f 	tst.w	r0, #4278190080	; 0xff000000
 8005e72:	bf04      	itt	eq
 8005e74:	0200      	lsleq	r0, r0, #8
 8005e76:	3308      	addeq	r3, #8
 8005e78:	f010 4f70 	tst.w	r0, #4026531840	; 0xf0000000
 8005e7c:	bf04      	itt	eq
 8005e7e:	0100      	lsleq	r0, r0, #4
 8005e80:	3304      	addeq	r3, #4
 8005e82:	f010 4f40 	tst.w	r0, #3221225472	; 0xc0000000
 8005e86:	bf04      	itt	eq
 8005e88:	0080      	lsleq	r0, r0, #2
 8005e8a:	3302      	addeq	r3, #2
 8005e8c:	2800      	cmp	r0, #0
 8005e8e:	db05      	blt.n	8005e9c <__hi0bits+0x38>
 8005e90:	f010 4f80 	tst.w	r0, #1073741824	; 0x40000000
 8005e94:	f103 0301 	add.w	r3, r3, #1
 8005e98:	bf08      	it	eq
 8005e9a:	2320      	moveq	r3, #32
 8005e9c:	4618      	mov	r0, r3
 8005e9e:	4770      	bx	lr
 8005ea0:	2300      	movs	r3, #0
 8005ea2:	e7e4      	b.n	8005e6e <__hi0bits+0xa>

08005ea4 <__lo0bits>:
 8005ea4:	6803      	ldr	r3, [r0, #0]
 8005ea6:	f013 0207 	ands.w	r2, r3, #7
 8005eaa:	4601      	mov	r1, r0
 8005eac:	d00b      	beq.n	8005ec6 <__lo0bits+0x22>
 8005eae:	07da      	lsls	r2, r3, #31
 8005eb0:	d424      	bmi.n	8005efc <__lo0bits+0x58>
 8005eb2:	0798      	lsls	r0, r3, #30
 8005eb4:	bf49      	itett	mi
 8005eb6:	085b      	lsrmi	r3, r3, #1
 8005eb8:	089b      	lsrpl	r3, r3, #2
 8005eba:	2001      	movmi	r0, #1
 8005ebc:	600b      	strmi	r3, [r1, #0]
 8005ebe:	bf5c      	itt	pl
 8005ec0:	600b      	strpl	r3, [r1, #0]
 8005ec2:	2002      	movpl	r0, #2
 8005ec4:	4770      	bx	lr
 8005ec6:	b298      	uxth	r0, r3
 8005ec8:	b9b0      	cbnz	r0, 8005ef8 <__lo0bits+0x54>
 8005eca:	0c1b      	lsrs	r3, r3, #16
 8005ecc:	2010      	movs	r0, #16
 8005ece:	f013 0fff 	tst.w	r3, #255	; 0xff
 8005ed2:	bf04      	itt	eq
 8005ed4:	0a1b      	lsreq	r3, r3, #8
 8005ed6:	3008      	addeq	r0, #8
 8005ed8:	071a      	lsls	r2, r3, #28
 8005eda:	bf04      	itt	eq
 8005edc:	091b      	lsreq	r3, r3, #4
 8005ede:	3004      	addeq	r0, #4
 8005ee0:	079a      	lsls	r2, r3, #30
 8005ee2:	bf04      	itt	eq
 8005ee4:	089b      	lsreq	r3, r3, #2
 8005ee6:	3002      	addeq	r0, #2
 8005ee8:	07da      	lsls	r2, r3, #31
 8005eea:	d403      	bmi.n	8005ef4 <__lo0bits+0x50>
 8005eec:	085b      	lsrs	r3, r3, #1
 8005eee:	f100 0001 	add.w	r0, r0, #1
 8005ef2:	d005      	beq.n	8005f00 <__lo0bits+0x5c>
 8005ef4:	600b      	str	r3, [r1, #0]
 8005ef6:	4770      	bx	lr
 8005ef8:	4610      	mov	r0, r2
 8005efa:	e7e8      	b.n	8005ece <__lo0bits+0x2a>
 8005efc:	2000      	movs	r0, #0
 8005efe:	4770      	bx	lr
 8005f00:	2020      	movs	r0, #32
 8005f02:	4770      	bx	lr

08005f04 <__i2b>:
 8005f04:	b510      	push	{r4, lr}
 8005f06:	460c      	mov	r4, r1
 8005f08:	2101      	movs	r1, #1
 8005f0a:	f7ff feff 	bl	8005d0c <_Balloc>
 8005f0e:	4602      	mov	r2, r0
 8005f10:	b928      	cbnz	r0, 8005f1e <__i2b+0x1a>
 8005f12:	4b05      	ldr	r3, [pc, #20]	; (8005f28 <__i2b+0x24>)
 8005f14:	4805      	ldr	r0, [pc, #20]	; (8005f2c <__i2b+0x28>)
 8005f16:	f44f 71a0 	mov.w	r1, #320	; 0x140
 8005f1a:	f000 fc9b 	bl	8006854 <__assert_func>
 8005f1e:	2301      	movs	r3, #1
 8005f20:	6144      	str	r4, [r0, #20]
 8005f22:	6103      	str	r3, [r0, #16]
 8005f24:	bd10      	pop	{r4, pc}
 8005f26:	bf00      	nop
 8005f28:	080074f7 	.word	0x080074f7
 8005f2c:	08007508 	.word	0x08007508

08005f30 <__multiply>:
 8005f30:	e92d 4ff0 	stmdb	sp!, {r4, r5, r6, r7, r8, r9, sl, fp, lr}
 8005f34:	4614      	mov	r4, r2
 8005f36:	690a      	ldr	r2, [r1, #16]
 8005f38:	6923      	ldr	r3, [r4, #16]
 8005f3a:	429a      	cmp	r2, r3
 8005f3c:	bfb8      	it	lt
 8005f3e:	460b      	movlt	r3, r1
 8005f40:	460d      	mov	r5, r1
 8005f42:	bfbc      	itt	lt
 8005f44:	4625      	movlt	r5, r4
 8005f46:	461c      	movlt	r4, r3
 8005f48:	f8d5 a010 	ldr.w	sl, [r5, #16]
 8005f4c:	f8d4 9010 	ldr.w	r9, [r4, #16]
 8005f50:	68ab      	ldr	r3, [r5, #8]
 8005f52:	6869      	ldr	r1, [r5, #4]
 8005f54:	eb0a 0709 	add.w	r7, sl, r9
 8005f58:	42bb      	cmp	r3, r7
 8005f5a:	b085      	sub	sp, #20
 8005f5c:	bfb8      	it	lt
 8005f5e:	3101      	addlt	r1, #1
 8005f60:	f7ff fed4 	bl	8005d0c <_Balloc>
 8005f64:	b930      	cbnz	r0, 8005f74 <__multiply+0x44>
 8005f66:	4602      	mov	r2, r0
 8005f68:	4b42      	ldr	r3, [pc, #264]	; (8006074 <__multiply+0x144>)
 8005f6a:	4843      	ldr	r0, [pc, #268]	; (8006078 <__multiply+0x148>)
 8005f6c:	f240 115d 	movw	r1, #349	; 0x15d
 8005f70:	f000 fc70 	bl	8006854 <__assert_func>
 8005f74:	f100 0614 	add.w	r6, r0, #20
 8005f78:	eb06 0887 	add.w	r8, r6, r7, lsl #2
 8005f7c:	4633      	mov	r3, r6
 8005f7e:	2200      	movs	r2, #0
 8005f80:	4543      	cmp	r3, r8
 8005f82:	d31e      	bcc.n	8005fc2 <__multiply+0x92>
 8005f84:	f105 0c14 	add.w	ip, r5, #20
 8005f88:	f104 0314 	add.w	r3, r4, #20
 8005f8c:	eb0c 0c8a 	add.w	ip, ip, sl, lsl #2
 8005f90:	eb03 0289 	add.w	r2, r3, r9, lsl #2
 8005f94:	9202      	str	r2, [sp, #8]
 8005f96:	ebac 0205 	sub.w	r2, ip, r5
 8005f9a:	3a15      	subs	r2, #21
 8005f9c:	f022 0203 	bic.w	r2, r2, #3
 8005fa0:	3204      	adds	r2, #4
 8005fa2:	f105 0115 	add.w	r1, r5, #21
 8005fa6:	458c      	cmp	ip, r1
 8005fa8:	bf38      	it	cc
 8005faa:	2204      	movcc	r2, #4
 8005fac:	9201      	str	r2, [sp, #4]
 8005fae:	9a02      	ldr	r2, [sp, #8]
 8005fb0:	9303      	str	r3, [sp, #12]
 8005fb2:	429a      	cmp	r2, r3
 8005fb4:	d808      	bhi.n	8005fc8 <__multiply+0x98>
 8005fb6:	2f00      	cmp	r7, #0
 8005fb8:	dc55      	bgt.n	8006066 <__multiply+0x136>
 8005fba:	6107      	str	r7, [r0, #16]
 8005fbc:	b005      	add	sp, #20
 8005fbe:	e8bd 8ff0 	ldmia.w	sp!, {r4, r5, r6, r7, r8, r9, sl, fp, pc}
 8005fc2:	f843 2b04 	str.w	r2, [r3], #4
 8005fc6:	e7db      	b.n	8005f80 <__multiply+0x50>
 8005fc8:	f8b3 a000 	ldrh.w	sl, [r3]
 8005fcc:	f1ba 0f00 	cmp.w	sl, #0
 8005fd0:	d020      	beq.n	8006014 <__multiply+0xe4>
 8005fd2:	f105 0e14 	add.w	lr, r5, #20
 8005fd6:	46b1      	mov	r9, r6
 8005fd8:	2200      	movs	r2, #0
 8005fda:	f85e 4b04 	ldr.w	r4, [lr], #4
 8005fde:	f8d9 b000 	ldr.w	fp, [r9]
 8005fe2:	b2a1      	uxth	r1, r4
 8005fe4:	fa1f fb8b 	uxth.w	fp, fp
 8005fe8:	fb0a b101 	mla	r1, sl, r1, fp
 8005fec:	4411      	add	r1, r2
 8005fee:	f8d9 2000 	ldr.w	r2, [r9]
 8005ff2:	0c24      	lsrs	r4, r4, #16
 8005ff4:	0c12      	lsrs	r2, r2, #16
 8005ff6:	fb0a 2404 	mla	r4, sl, r4, r2
 8005ffa:	eb04 4411 	add.w	r4, r4, r1, lsr #16
 8005ffe:	b289      	uxth	r1, r1
 8006000:	ea41 4104 	orr.w	r1, r1, r4, lsl #16
 8006004:	45f4      	cmp	ip, lr
 8006006:	f849 1b04 	str.w	r1, [r9], #4
 800600a:	ea4f 4214 	mov.w	r2, r4, lsr #16
 800600e:	d8e4      	bhi.n	8005fda <__multiply+0xaa>
 8006010:	9901      	ldr	r1, [sp, #4]
 8006012:	5072      	str	r2, [r6, r1]
 8006014:	9a03      	ldr	r2, [sp, #12]
 8006016:	f8b2 9002 	ldrh.w	r9, [r2, #2]
 800601a:	3304      	adds	r3, #4
 800601c:	f1b9 0f00 	cmp.w	r9, #0
 8006020:	d01f      	beq.n	8006062 <__multiply+0x132>
 8006022:	6834      	ldr	r4, [r6, #0]
 8006024:	f105 0114 	add.w	r1, r5, #20
 8006028:	46b6      	mov	lr, r6
 800602a:	f04f 0a00 	mov.w	sl, #0
 800602e:	880a      	ldrh	r2, [r1, #0]
 8006030:	f8be b002 	ldrh.w	fp, [lr, #2]
 8006034:	fb09 b202 	mla	r2, r9, r2, fp
 8006038:	4492      	add	sl, r2
 800603a:	b2a4      	uxth	r4, r4
 800603c:	ea44 440a 	orr.w	r4, r4, sl, lsl #16
 8006040:	f84e 4b04 	str.w	r4, [lr], #4
 8006044:	f851 4b04 	ldr.w	r4, [r1], #4
 8006048:	f8be 2000 	ldrh.w	r2, [lr]
 800604c:	0c24      	lsrs	r4, r4, #16
 800604e:	fb09 2404 	mla	r4, r9, r4, r2
 8006052:	eb04 441a 	add.w	r4, r4, sl, lsr #16
 8006056:	458c      	cmp	ip, r1
 8006058:	ea4f 4a14 	mov.w	sl, r4, lsr #16
 800605c:	d8e7      	bhi.n	800602e <__multiply+0xfe>
 800605e:	9a01      	ldr	r2, [sp, #4]
 8006060:	50b4      	str	r4, [r6, r2]
 8006062:	3604      	adds	r6, #4
 8006064:	e7a3      	b.n	8005fae <__multiply+0x7e>
 8006066:	f858 3d04 	ldr.w	r3, [r8, #-4]!
 800606a:	2b00      	cmp	r3, #0
 800606c:	d1a5      	bne.n	8005fba <__multiply+0x8a>
 800606e:	3f01      	subs	r7, #1
 8006070:	e7a1      	b.n	8005fb6 <__multiply+0x86>
 8006072:	bf00      	nop
 8006074:	080074f7 	.word	0x080074f7
 8006078:	08007508 	.word	0x08007508

0800607c <__pow5mult>:
 800607c:	e92d 43f8 	stmdb	sp!, {r3, r4, r5, r6, r7, r8, r9, lr}
 8006080:	4615      	mov	r5, r2
 8006082:	f012 0203 	ands.w	r2, r2, #3
 8006086:	4606      	mov	r6, r0
 8006088:	460f      	mov	r7, r1
 800608a:	d007      	beq.n	800609c <__pow5mult+0x20>
 800608c:	4c25      	ldr	r4, [pc, #148]	; (8006124 <__pow5mult+0xa8>)
 800608e:	3a01      	subs	r2, #1
 8006090:	2300      	movs	r3, #0
 8006092:	f854 2022 	ldr.w	r2, [r4, r2, lsl #2]
 8006096:	f7ff fe9b 	bl	8005dd0 <__multadd>
 800609a:	4607      	mov	r7, r0
 800609c:	10ad      	asrs	r5, r5, #2
 800609e:	d03d      	beq.n	800611c <__pow5mult+0xa0>
 80060a0:	6a74      	ldr	r4, [r6, #36]	; 0x24
 80060a2:	b97c      	cbnz	r4, 80060c4 <__pow5mult+0x48>
 80060a4:	2010      	movs	r0, #16
 80060a6:	f7ff fe1b 	bl	8005ce0 <malloc>
 80060aa:	4602      	mov	r2, r0
 80060ac:	6270      	str	r0, [r6, #36]	; 0x24
 80060ae:	b928      	cbnz	r0, 80060bc <__pow5mult+0x40>
 80060b0:	4b1d      	ldr	r3, [pc, #116]	; (8006128 <__pow5mult+0xac>)
 80060b2:	481e      	ldr	r0, [pc, #120]	; (800612c <__pow5mult+0xb0>)
 80060b4:	f44f 71d7 	mov.w	r1, #430	; 0x1ae
 80060b8:	f000 fbcc 	bl	8006854 <__assert_func>
 80060bc:	e9c0 4401 	strd	r4, r4, [r0, #4]
 80060c0:	6004      	str	r4, [r0, #0]
 80060c2:	60c4      	str	r4, [r0, #12]
 80060c4:	f8d6 8024 	ldr.w	r8, [r6, #36]	; 0x24
 80060c8:	f8d8 4008 	ldr.w	r4, [r8, #8]
 80060cc:	b94c      	cbnz	r4, 80060e2 <__pow5mult+0x66>
 80060ce:	f240 2171 	movw	r1, #625	; 0x271
 80060d2:	4630      	mov	r0, r6
 80060d4:	f7ff ff16 	bl	8005f04 <__i2b>
 80060d8:	2300      	movs	r3, #0
 80060da:	f8c8 0008 	str.w	r0, [r8, #8]
 80060de:	4604      	mov	r4, r0
 80060e0:	6003      	str	r3, [r0, #0]
 80060e2:	f04f 0900 	mov.w	r9, #0
 80060e6:	07eb      	lsls	r3, r5, #31
 80060e8:	d50a      	bpl.n	8006100 <__pow5mult+0x84>
 80060ea:	4639      	mov	r1, r7
 80060ec:	4622      	mov	r2, r4
 80060ee:	4630      	mov	r0, r6
 80060f0:	f7ff ff1e 	bl	8005f30 <__multiply>
 80060f4:	4639      	mov	r1, r7
 80060f6:	4680      	mov	r8, r0
 80060f8:	4630      	mov	r0, r6
 80060fa:	f7ff fe47 	bl	8005d8c <_Bfree>
 80060fe:	4647      	mov	r7, r8
 8006100:	106d      	asrs	r5, r5, #1
 8006102:	d00b      	beq.n	800611c <__pow5mult+0xa0>
 8006104:	6820      	ldr	r0, [r4, #0]
 8006106:	b938      	cbnz	r0, 8006118 <__pow5mult+0x9c>
 8006108:	4622      	mov	r2, r4
 800610a:	4621      	mov	r1, r4
 800610c:	4630      	mov	r0, r6
 800610e:	f7ff ff0f 	bl	8005f30 <__multiply>
 8006112:	6020      	str	r0, [r4, #0]
 8006114:	f8c0 9000 	str.w	r9, [r0]
 8006118:	4604      	mov	r4, r0
 800611a:	e7e4      	b.n	80060e6 <__pow5mult+0x6a>
 800611c:	4638      	mov	r0, r7
 800611e:	e8bd 83f8 	ldmia.w	sp!, {r3, r4, r5, r6, r7, r8, r9, pc}
 8006122:	bf00      	nop
 8006124:	08007658 	.word	0x08007658
 8006128:	08007481 	.word	0x08007481
 800612c:	08007508 	.word	0x08007508

08006130 <__lshift>:
 8006130:	e92d 47f0 	stmdb	sp!, {r4, r5, r6, r7, r8, r9, sl, lr}
 8006134:	460c      	mov	r4, r1
 8006136:	6849      	ldr	r1, [r1, #4]
 8006138:	6923      	ldr	r3, [r4, #16]
 800613a:	eb03 1862 	add.w	r8, r3, r2, asr #5
 800613e:	68a3      	ldr	r3, [r4, #8]
 8006140:	4607      	mov	r7, r0
 8006142:	4691      	mov	r9, r2
 8006144:	ea4f 1a62 	mov.w	sl, r2, asr #5
 8006148:	f108 0601 	add.w	r6, r8, #1
 800614c:	42b3      	cmp	r3, r6
 800614e:	db0b      	blt.n	8006168 <__lshift+0x38>
 8006150:	4638      	mov	r0, r7
 8006152:	f7ff fddb 	bl	8005d0c <_Balloc>
 8006156:	4605      	mov	r5, r0
 8006158:	b948      	cbnz	r0, 800616e <__lshift+0x3e>
 800615a:	4602      	mov	r2, r0
 800615c:	4b28      	ldr	r3, [pc, #160]	; (8006200 <__lshift+0xd0>)
 800615e:	4829      	ldr	r0, [pc, #164]	; (8006204 <__lshift+0xd4>)
 8006160:	f240 11d9 	movw	r1, #473	; 0x1d9
 8006164:	f000 fb76 	bl	8006854 <__assert_func>
 8006168:	3101      	adds	r1, #1
 800616a:	005b      	lsls	r3, r3, #1
 800616c:	e7ee      	b.n	800614c <__lshift+0x1c>
 800616e:	2300      	movs	r3, #0
 8006170:	f100 0114 	add.w	r1, r0, #20
 8006174:	f100 0210 	add.w	r2, r0, #16
 8006178:	4618      	mov	r0, r3
 800617a:	4553      	cmp	r3, sl
 800617c:	db33      	blt.n	80061e6 <__lshift+0xb6>
 800617e:	6920      	ldr	r0, [r4, #16]
 8006180:	ea2a 7aea 	bic.w	sl, sl, sl, asr #31
 8006184:	f104 0314 	add.w	r3, r4, #20
 8006188:	f019 091f 	ands.w	r9, r9, #31
 800618c:	eb01 018a 	add.w	r1, r1, sl, lsl #2
 8006190:	eb03 0c80 	add.w	ip, r3, r0, lsl #2
 8006194:	d02b      	beq.n	80061ee <__lshift+0xbe>
 8006196:	f1c9 0e20 	rsb	lr, r9, #32
 800619a:	468a      	mov	sl, r1
 800619c:	2200      	movs	r2, #0
 800619e:	6818      	ldr	r0, [r3, #0]
 80061a0:	fa00 f009 	lsl.w	r0, r0, r9
 80061a4:	4302      	orrs	r2, r0
 80061a6:	f84a 2b04 	str.w	r2, [sl], #4
 80061aa:	f853 2b04 	ldr.w	r2, [r3], #4
 80061ae:	459c      	cmp	ip, r3
 80061b0:	fa22 f20e 	lsr.w	r2, r2, lr
 80061b4:	d8f3      	bhi.n	800619e <__lshift+0x6e>
 80061b6:	ebac 0304 	sub.w	r3, ip, r4
 80061ba:	3b15      	subs	r3, #21
 80061bc:	f023 0303 	bic.w	r3, r3, #3
 80061c0:	3304      	adds	r3, #4
 80061c2:	f104 0015 	add.w	r0, r4, #21
 80061c6:	4584      	cmp	ip, r0
 80061c8:	bf38      	it	cc
 80061ca:	2304      	movcc	r3, #4
 80061cc:	50ca      	str	r2, [r1, r3]
 80061ce:	b10a      	cbz	r2, 80061d4 <__lshift+0xa4>
 80061d0:	f108 0602 	add.w	r6, r8, #2
 80061d4:	3e01      	subs	r6, #1
 80061d6:	4638      	mov	r0, r7
 80061d8:	612e      	str	r6, [r5, #16]
 80061da:	4621      	mov	r1, r4
 80061dc:	f7ff fdd6 	bl	8005d8c <_Bfree>
 80061e0:	4628      	mov	r0, r5
 80061e2:	e8bd 87f0 	ldmia.w	sp!, {r4, r5, r6, r7, r8, r9, sl, pc}
 80061e6:	f842 0f04 	str.w	r0, [r2, #4]!
 80061ea:	3301      	adds	r3, #1
 80061ec:	e7c5      	b.n	800617a <__lshift+0x4a>
 80061ee:	3904      	subs	r1, #4
 80061f0:	f853 2b04 	ldr.w	r2, [r3], #4
 80061f4:	f841 2f04 	str.w	r2, [r1, #4]!
 80061f8:	459c      	cmp	ip, r3
 80061fa:	d8f9      	bhi.n	80061f0 <__lshift+0xc0>
 80061fc:	e7ea      	b.n	80061d4 <__lshift+0xa4>
 80061fe:	bf00      	nop
 8006200:	080074f7 	.word	0x080074f7
 8006204:	08007508 	.word	0x08007508

08006208 <__mcmp>:
 8006208:	b530      	push	{r4, r5, lr}
 800620a:	6902      	ldr	r2, [r0, #16]
 800620c:	690c      	ldr	r4, [r1, #16]
 800620e:	1b12      	subs	r2, r2, r4
 8006210:	d10e      	bne.n	8006230 <__mcmp+0x28>
 8006212:	f100 0314 	add.w	r3, r0, #20
 8006216:	3114      	adds	r1, #20
 8006218:	eb03 0084 	add.w	r0, r3, r4, lsl #2
 800621c:	eb01 0184 	add.w	r1, r1, r4, lsl #2
 8006220:	f850 5d04 	ldr.w	r5, [r0, #-4]!
 8006224:	f851 4d04 	ldr.w	r4, [r1, #-4]!
 8006228:	42a5      	cmp	r5, r4
 800622a:	d003      	beq.n	8006234 <__mcmp+0x2c>
 800622c:	d305      	bcc.n	800623a <__mcmp+0x32>
 800622e:	2201      	movs	r2, #1
 8006230:	4610      	mov	r0, r2
 8006232:	bd30      	pop	{r4, r5, pc}
 8006234:	4283      	cmp	r3, r0
 8006236:	d3f3      	bcc.n	8006220 <__mcmp+0x18>
 8006238:	e7fa      	b.n	8006230 <__mcmp+0x28>
 800623a:	f04f 32ff 	mov.w	r2, #4294967295
 800623e:	e7f7      	b.n	8006230 <__mcmp+0x28>

08006240 <__mdiff>:
 8006240:	e92d 4ff8 	stmdb	sp!, {r3, r4, r5, r6, r7, r8, r9, sl, fp, lr}
 8006244:	460c      	mov	r4, r1
 8006246:	4606      	mov	r6, r0
 8006248:	4611      	mov	r1, r2
 800624a:	4620      	mov	r0, r4
 800624c:	4617      	mov	r7, r2
 800624e:	f7ff ffdb 	bl	8006208 <__mcmp>
 8006252:	1e05      	subs	r5, r0, #0
 8006254:	d110      	bne.n	8006278 <__mdiff+0x38>
 8006256:	4629      	mov	r1, r5
 8006258:	4630      	mov	r0, r6
 800625a:	f7ff fd57 	bl	8005d0c <_Balloc>
 800625e:	b930      	cbnz	r0, 800626e <__mdiff+0x2e>
 8006260:	4b39      	ldr	r3, [pc, #228]	; (8006348 <__mdiff+0x108>)
 8006262:	4602      	mov	r2, r0
 8006264:	f240 2132 	movw	r1, #562	; 0x232
 8006268:	4838      	ldr	r0, [pc, #224]	; (800634c <__mdiff+0x10c>)
 800626a:	f000 faf3 	bl	8006854 <__assert_func>
 800626e:	2301      	movs	r3, #1
 8006270:	e9c0 3504 	strd	r3, r5, [r0, #16]
 8006274:	e8bd 8ff8 	ldmia.w	sp!, {r3, r4, r5, r6, r7, r8, r9, sl, fp, pc}
 8006278:	bfa4      	itt	ge
 800627a:	463b      	movge	r3, r7
 800627c:	4627      	movge	r7, r4
 800627e:	4630      	mov	r0, r6
 8006280:	6879      	ldr	r1, [r7, #4]
 8006282:	bfa6      	itte	ge
 8006284:	461c      	movge	r4, r3
 8006286:	2500      	movge	r5, #0
 8006288:	2501      	movlt	r5, #1
 800628a:	f7ff fd3f 	bl	8005d0c <_Balloc>
 800628e:	b920      	cbnz	r0, 800629a <__mdiff+0x5a>
 8006290:	4b2d      	ldr	r3, [pc, #180]	; (8006348 <__mdiff+0x108>)
 8006292:	4602      	mov	r2, r0
 8006294:	f44f 7110 	mov.w	r1, #576	; 0x240
 8006298:	e7e6      	b.n	8006268 <__mdiff+0x28>
 800629a:	693e      	ldr	r6, [r7, #16]
 800629c:	60c5      	str	r5, [r0, #12]
 800629e:	6925      	ldr	r5, [r4, #16]
 80062a0:	f107 0114 	add.w	r1, r7, #20
 80062a4:	f104 0914 	add.w	r9, r4, #20
 80062a8:	f100 0e14 	add.w	lr, r0, #20
 80062ac:	f107 0210 	add.w	r2, r7, #16
 80062b0:	eb01 0c86 	add.w	ip, r1, r6, lsl #2
 80062b4:	eb09 0585 	add.w	r5, r9, r5, lsl #2
 80062b8:	46f2      	mov	sl, lr
 80062ba:	2700      	movs	r7, #0
 80062bc:	f859 3b04 	ldr.w	r3, [r9], #4
 80062c0:	f852 bf04 	ldr.w	fp, [r2, #4]!
 80062c4:	fa1f f883 	uxth.w	r8, r3
 80062c8:	fa17 f78b 	uxtah	r7, r7, fp
 80062cc:	0c1b      	lsrs	r3, r3, #16
 80062ce:	eba7 0808 	sub.w	r8, r7, r8
 80062d2:	ebc3 431b 	rsb	r3, r3, fp, lsr #16
 80062d6:	eb03 4328 	add.w	r3, r3, r8, asr #16
 80062da:	fa1f f888 	uxth.w	r8, r8
 80062de:	141f      	asrs	r7, r3, #16
 80062e0:	454d      	cmp	r5, r9
 80062e2:	ea48 4303 	orr.w	r3, r8, r3, lsl #16
 80062e6:	f84a 3b04 	str.w	r3, [sl], #4
 80062ea:	d8e7      	bhi.n	80062bc <__mdiff+0x7c>
 80062ec:	1b2b      	subs	r3, r5, r4
 80062ee:	3b15      	subs	r3, #21
 80062f0:	f023 0303 	bic.w	r3, r3, #3
 80062f4:	3304      	adds	r3, #4
 80062f6:	3415      	adds	r4, #21
 80062f8:	42a5      	cmp	r5, r4
 80062fa:	bf38      	it	cc
 80062fc:	2304      	movcc	r3, #4
 80062fe:	4419      	add	r1, r3
 8006300:	4473      	add	r3, lr
 8006302:	469e      	mov	lr, r3
 8006304:	460d      	mov	r5, r1
 8006306:	4565      	cmp	r5, ip
 8006308:	d30e      	bcc.n	8006328 <__mdiff+0xe8>
 800630a:	f10c 0203 	add.w	r2, ip, #3
 800630e:	1a52      	subs	r2, r2, r1
 8006310:	f022 0203 	bic.w	r2, r2, #3
 8006314:	3903      	subs	r1, #3
 8006316:	458c      	cmp	ip, r1
 8006318:	bf38      	it	cc
 800631a:	2200      	movcc	r2, #0
 800631c:	441a      	add	r2, r3
 800631e:	f852 3d04 	ldr.w	r3, [r2, #-4]!
 8006322:	b17b      	cbz	r3, 8006344 <__mdiff+0x104>
 8006324:	6106      	str	r6, [r0, #16]
 8006326:	e7a5      	b.n	8006274 <__mdiff+0x34>
 8006328:	f855 8b04 	ldr.w	r8, [r5], #4
 800632c:	fa17 f488 	uxtah	r4, r7, r8
 8006330:	1422      	asrs	r2, r4, #16
 8006332:	eb02 4218 	add.w	r2, r2, r8, lsr #16
 8006336:	b2a4      	uxth	r4, r4
 8006338:	ea44 4402 	orr.w	r4, r4, r2, lsl #16
 800633c:	f84e 4b04 	str.w	r4, [lr], #4
 8006340:	1417      	asrs	r7, r2, #16
 8006342:	e7e0      	b.n	8006306 <__mdiff+0xc6>
 8006344:	3e01      	subs	r6, #1
 8006346:	e7ea      	b.n	800631e <__mdiff+0xde>
 8006348:	080074f7 	.word	0x080074f7
 800634c:	08007508 	.word	0x08007508

08006350 <__d2b>:
 8006350:	e92d 43f7 	stmdb	sp!, {r0, r1, r2, r4, r5, r6, r7, r8, r9, lr}
 8006354:	4689      	mov	r9, r1
 8006356:	2101      	movs	r1, #1
 8006358:	ec57 6b10 	vmov	r6, r7, d0
 800635c:	4690      	mov	r8, r2
 800635e:	f7ff fcd5 	bl	8005d0c <_Balloc>
 8006362:	4604      	mov	r4, r0
 8006364:	b930      	cbnz	r0, 8006374 <__d2b+0x24>
 8006366:	4602      	mov	r2, r0
 8006368:	4b25      	ldr	r3, [pc, #148]	; (8006400 <__d2b+0xb0>)
 800636a:	4826      	ldr	r0, [pc, #152]	; (8006404 <__d2b+0xb4>)
 800636c:	f240 310a 	movw	r1, #778	; 0x30a
 8006370:	f000 fa70 	bl	8006854 <__assert_func>
 8006374:	f3c7 550a 	ubfx	r5, r7, #20, #11
 8006378:	f3c7 0313 	ubfx	r3, r7, #0, #20
 800637c:	bb35      	cbnz	r5, 80063cc <__d2b+0x7c>
 800637e:	2e00      	cmp	r6, #0
 8006380:	9301      	str	r3, [sp, #4]
 8006382:	d028      	beq.n	80063d6 <__d2b+0x86>
 8006384:	4668      	mov	r0, sp
 8006386:	9600      	str	r6, [sp, #0]
 8006388:	f7ff fd8c 	bl	8005ea4 <__lo0bits>
 800638c:	9900      	ldr	r1, [sp, #0]
 800638e:	b300      	cbz	r0, 80063d2 <__d2b+0x82>
 8006390:	9a01      	ldr	r2, [sp, #4]
 8006392:	f1c0 0320 	rsb	r3, r0, #32
 8006396:	fa02 f303 	lsl.w	r3, r2, r3
 800639a:	430b      	orrs	r3, r1
 800639c:	40c2      	lsrs	r2, r0
 800639e:	6163      	str	r3, [r4, #20]
 80063a0:	9201      	str	r2, [sp, #4]
 80063a2:	9b01      	ldr	r3, [sp, #4]
 80063a4:	61a3      	str	r3, [r4, #24]
 80063a6:	2b00      	cmp	r3, #0
 80063a8:	bf14      	ite	ne
 80063aa:	2202      	movne	r2, #2
 80063ac:	2201      	moveq	r2, #1
 80063ae:	6122      	str	r2, [r4, #16]
 80063b0:	b1d5      	cbz	r5, 80063e8 <__d2b+0x98>
 80063b2:	f2a5 4533 	subw	r5, r5, #1075	; 0x433
 80063b6:	4405      	add	r5, r0
 80063b8:	f8c9 5000 	str.w	r5, [r9]
 80063bc:	f1c0 0035 	rsb	r0, r0, #53	; 0x35
 80063c0:	f8c8 0000 	str.w	r0, [r8]
 80063c4:	4620      	mov	r0, r4
 80063c6:	b003      	add	sp, #12
 80063c8:	e8bd 83f0 	ldmia.w	sp!, {r4, r5, r6, r7, r8, r9, pc}
 80063cc:	f443 1380 	orr.w	r3, r3, #1048576	; 0x100000
 80063d0:	e7d5      	b.n	800637e <__d2b+0x2e>
 80063d2:	6161      	str	r1, [r4, #20]
 80063d4:	e7e5      	b.n	80063a2 <__d2b+0x52>
 80063d6:	a801      	add	r0, sp, #4
 80063d8:	f7ff fd64 	bl	8005ea4 <__lo0bits>
 80063dc:	9b01      	ldr	r3, [sp, #4]
 80063de:	6163      	str	r3, [r4, #20]
 80063e0:	2201      	movs	r2, #1
 80063e2:	6122      	str	r2, [r4, #16]
 80063e4:	3020      	adds	r0, #32
 80063e6:	e7e3      	b.n	80063b0 <__d2b+0x60>
 80063e8:	eb04 0382 	add.w	r3, r4, r2, lsl #2
 80063ec:	f2a0 4032 	subw	r0, r0, #1074	; 0x432
 80063f0:	f8c9 0000 	str.w	r0, [r9]
 80063f4:	6918      	ldr	r0, [r3, #16]
 80063f6:	f7ff fd35 	bl	8005e64 <__hi0bits>
 80063fa:	ebc0 1042 	rsb	r0, r0, r2, lsl #5
 80063fe:	e7df      	b.n	80063c0 <__d2b+0x70>
 8006400:	080074f7 	.word	0x080074f7
 8006404:	08007508 	.word	0x08007508

08006408 <_calloc_r>:
 8006408:	b513      	push	{r0, r1, r4, lr}
 800640a:	434a      	muls	r2, r1
 800640c:	4611      	mov	r1, r2
 800640e:	9201      	str	r2, [sp, #4]
 8006410:	f000 f85a 	bl	80064c8 <_malloc_r>
 8006414:	4604      	mov	r4, r0
 8006416:	b118      	cbz	r0, 8006420 <_calloc_r+0x18>
 8006418:	9a01      	ldr	r2, [sp, #4]
 800641a:	2100      	movs	r1, #0
 800641c:	f7fe f950 	bl	80046c0 <memset>
 8006420:	4620      	mov	r0, r4
 8006422:	b002      	add	sp, #8
 8006424:	bd10      	pop	{r4, pc}
	...

08006428 <_free_r>:
 8006428:	b537      	push	{r0, r1, r2, r4, r5, lr}
 800642a:	2900      	cmp	r1, #0
 800642c:	d048      	beq.n	80064c0 <_free_r+0x98>
 800642e:	f851 3c04 	ldr.w	r3, [r1, #-4]
 8006432:	9001      	str	r0, [sp, #4]
 8006434:	2b00      	cmp	r3, #0
 8006436:	f1a1 0404 	sub.w	r4, r1, #4
 800643a:	bfb8      	it	lt
 800643c:	18e4      	addlt	r4, r4, r3
 800643e:	f000 fa65 	bl	800690c <__malloc_lock>
 8006442:	4a20      	ldr	r2, [pc, #128]	; (80064c4 <_free_r+0x9c>)
 8006444:	9801      	ldr	r0, [sp, #4]
 8006446:	6813      	ldr	r3, [r2, #0]
 8006448:	4615      	mov	r5, r2
 800644a:	b933      	cbnz	r3, 800645a <_free_r+0x32>
 800644c:	6063      	str	r3, [r4, #4]
 800644e:	6014      	str	r4, [r2, #0]
 8006450:	b003      	add	sp, #12
 8006452:	e8bd 4030 	ldmia.w	sp!, {r4, r5, lr}
 8006456:	f000 ba5f 	b.w	8006918 <__malloc_unlock>
 800645a:	42a3      	cmp	r3, r4
 800645c:	d90b      	bls.n	8006476 <_free_r+0x4e>
 800645e:	6821      	ldr	r1, [r4, #0]
 8006460:	1862      	adds	r2, r4, r1
 8006462:	4293      	cmp	r3, r2
 8006464:	bf04      	itt	eq
 8006466:	681a      	ldreq	r2, [r3, #0]
 8006468:	685b      	ldreq	r3, [r3, #4]
 800646a:	6063      	str	r3, [r4, #4]
 800646c:	bf04      	itt	eq
 800646e:	1852      	addeq	r2, r2, r1
 8006470:	6022      	streq	r2, [r4, #0]
 8006472:	602c      	str	r4, [r5, #0]
 8006474:	e7ec      	b.n	8006450 <_free_r+0x28>
 8006476:	461a      	mov	r2, r3
 8006478:	685b      	ldr	r3, [r3, #4]
 800647a:	b10b      	cbz	r3, 8006480 <_free_r+0x58>
 800647c:	42a3      	cmp	r3, r4
 800647e:	d9fa      	bls.n	8006476 <_free_r+0x4e>
 8006480:	6811      	ldr	r1, [r2, #0]
 8006482:	1855      	adds	r5, r2, r1
 8006484:	42a5      	cmp	r5, r4
 8006486:	d10b      	bne.n	80064a0 <_free_r+0x78>
 8006488:	6824      	ldr	r4, [r4, #0]
 800648a:	4421      	add	r1, r4
 800648c:	1854      	adds	r4, r2, r1
 800648e:	42a3      	cmp	r3, r4
 8006490:	6011      	str	r1, [r2, #0]
 8006492:	d1dd      	bne.n	8006450 <_free_r+0x28>
 8006494:	681c      	ldr	r4, [r3, #0]
 8006496:	685b      	ldr	r3, [r3, #4]
 8006498:	6053      	str	r3, [r2, #4]
 800649a:	4421      	add	r1, r4
 800649c:	6011      	str	r1, [r2, #0]
 800649e:	e7d7      	b.n	8006450 <_free_r+0x28>
 80064a0:	d902      	bls.n	80064a8 <_free_r+0x80>
 80064a2:	230c      	movs	r3, #12
 80064a4:	6003      	str	r3, [r0, #0]
 80064a6:	e7d3      	b.n	8006450 <_free_r+0x28>
 80064a8:	6825      	ldr	r5, [r4, #0]
 80064aa:	1961      	adds	r1, r4, r5
 80064ac:	428b      	cmp	r3, r1
 80064ae:	bf04      	itt	eq
 80064b0:	6819      	ldreq	r1, [r3, #0]
 80064b2:	685b      	ldreq	r3, [r3, #4]
 80064b4:	6063      	str	r3, [r4, #4]
 80064b6:	bf04      	itt	eq
 80064b8:	1949      	addeq	r1, r1, r5
 80064ba:	6021      	streq	r1, [r4, #0]
 80064bc:	6054      	str	r4, [r2, #4]
 80064be:	e7c7      	b.n	8006450 <_free_r+0x28>
 80064c0:	b003      	add	sp, #12
 80064c2:	bd30      	pop	{r4, r5, pc}
 80064c4:	20000214 	.word	0x20000214

080064c8 <_malloc_r>:
 80064c8:	b5f8      	push	{r3, r4, r5, r6, r7, lr}
 80064ca:	1ccd      	adds	r5, r1, #3
 80064cc:	f025 0503 	bic.w	r5, r5, #3
 80064d0:	3508      	adds	r5, #8
 80064d2:	2d0c      	cmp	r5, #12
 80064d4:	bf38      	it	cc
 80064d6:	250c      	movcc	r5, #12
 80064d8:	2d00      	cmp	r5, #0
 80064da:	4606      	mov	r6, r0
 80064dc:	db01      	blt.n	80064e2 <_malloc_r+0x1a>
 80064de:	42a9      	cmp	r1, r5
 80064e0:	d903      	bls.n	80064ea <_malloc_r+0x22>
 80064e2:	230c      	movs	r3, #12
 80064e4:	6033      	str	r3, [r6, #0]
 80064e6:	2000      	movs	r0, #0
 80064e8:	bdf8      	pop	{r3, r4, r5, r6, r7, pc}
 80064ea:	f000 fa0f 	bl	800690c <__malloc_lock>
 80064ee:	4921      	ldr	r1, [pc, #132]	; (8006574 <_malloc_r+0xac>)
 80064f0:	680a      	ldr	r2, [r1, #0]
 80064f2:	4614      	mov	r4, r2
 80064f4:	b99c      	cbnz	r4, 800651e <_malloc_r+0x56>
 80064f6:	4f20      	ldr	r7, [pc, #128]	; (8006578 <_malloc_r+0xb0>)
 80064f8:	683b      	ldr	r3, [r7, #0]
 80064fa:	b923      	cbnz	r3, 8006506 <_malloc_r+0x3e>
 80064fc:	4621      	mov	r1, r4
 80064fe:	4630      	mov	r0, r6
 8006500:	f000 f998 	bl	8006834 <_sbrk_r>
 8006504:	6038      	str	r0, [r7, #0]
 8006506:	4629      	mov	r1, r5
 8006508:	4630      	mov	r0, r6
 800650a:	f000 f993 	bl	8006834 <_sbrk_r>
 800650e:	1c43      	adds	r3, r0, #1
 8006510:	d123      	bne.n	800655a <_malloc_r+0x92>
 8006512:	230c      	movs	r3, #12
 8006514:	6033      	str	r3, [r6, #0]
 8006516:	4630      	mov	r0, r6
 8006518:	f000 f9fe 	bl	8006918 <__malloc_unlock>
 800651c:	e7e3      	b.n	80064e6 <_malloc_r+0x1e>
 800651e:	6823      	ldr	r3, [r4, #0]
 8006520:	1b5b      	subs	r3, r3, r5
 8006522:	d417      	bmi.n	8006554 <_malloc_r+0x8c>
 8006524:	2b0b      	cmp	r3, #11
 8006526:	d903      	bls.n	8006530 <_malloc_r+0x68>
 8006528:	6023      	str	r3, [r4, #0]
 800652a:	441c      	add	r4, r3
 800652c:	6025      	str	r5, [r4, #0]
 800652e:	e004      	b.n	800653a <_malloc_r+0x72>
 8006530:	6863      	ldr	r3, [r4, #4]
 8006532:	42a2      	cmp	r2, r4
 8006534:	bf0c      	ite	eq
 8006536:	600b      	streq	r3, [r1, #0]
 8006538:	6053      	strne	r3, [r2, #4]
 800653a:	4630      	mov	r0, r6
 800653c:	f000 f9ec 	bl	8006918 <__malloc_unlock>
 8006540:	f104 000b 	add.w	r0, r4, #11
 8006544:	1d23      	adds	r3, r4, #4
 8006546:	f020 0007 	bic.w	r0, r0, #7
 800654a:	1ac2      	subs	r2, r0, r3
 800654c:	d0cc      	beq.n	80064e8 <_malloc_r+0x20>
 800654e:	1a1b      	subs	r3, r3, r0
 8006550:	50a3      	str	r3, [r4, r2]
 8006552:	e7c9      	b.n	80064e8 <_malloc_r+0x20>
 8006554:	4622      	mov	r2, r4
 8006556:	6864      	ldr	r4, [r4, #4]
 8006558:	e7cc      	b.n	80064f4 <_malloc_r+0x2c>
 800655a:	1cc4      	adds	r4, r0, #3
 800655c:	f024 0403 	bic.w	r4, r4, #3
 8006560:	42a0      	cmp	r0, r4
 8006562:	d0e3      	beq.n	800652c <_malloc_r+0x64>
 8006564:	1a21      	subs	r1, r4, r0
 8006566:	4630      	mov	r0, r6
 8006568:	f000 f964 	bl	8006834 <_sbrk_r>
 800656c:	3001      	adds	r0, #1
 800656e:	d1dd      	bne.n	800652c <_malloc_r+0x64>
 8006570:	e7cf      	b.n	8006512 <_malloc_r+0x4a>
 8006572:	bf00      	nop
 8006574:	20000214 	.word	0x20000214
 8006578:	20000218 	.word	0x20000218

0800657c <__ssputs_r>:
 800657c:	e92d 47f0 	stmdb	sp!, {r4, r5, r6, r7, r8, r9, sl, lr}
 8006580:	688e      	ldr	r6, [r1, #8]
 8006582:	429e      	cmp	r6, r3
 8006584:	4682      	mov	sl, r0
 8006586:	460c      	mov	r4, r1
 8006588:	4690      	mov	r8, r2
 800658a:	461f      	mov	r7, r3
 800658c:	d838      	bhi.n	8006600 <__ssputs_r+0x84>
 800658e:	898a      	ldrh	r2, [r1, #12]
 8006590:	f412 6f90 	tst.w	r2, #1152	; 0x480
 8006594:	d032      	beq.n	80065fc <__ssputs_r+0x80>
 8006596:	6825      	ldr	r5, [r4, #0]
 8006598:	6909      	ldr	r1, [r1, #16]
 800659a:	eba5 0901 	sub.w	r9, r5, r1
 800659e:	6965      	ldr	r5, [r4, #20]
 80065a0:	eb05 0545 	add.w	r5, r5, r5, lsl #1
 80065a4:	eb05 75d5 	add.w	r5, r5, r5, lsr #31
 80065a8:	3301      	adds	r3, #1
 80065aa:	444b      	add	r3, r9
 80065ac:	106d      	asrs	r5, r5, #1
 80065ae:	429d      	cmp	r5, r3
 80065b0:	bf38      	it	cc
 80065b2:	461d      	movcc	r5, r3
 80065b4:	0553      	lsls	r3, r2, #21
 80065b6:	d531      	bpl.n	800661c <__ssputs_r+0xa0>
 80065b8:	4629      	mov	r1, r5
 80065ba:	f7ff ff85 	bl	80064c8 <_malloc_r>
 80065be:	4606      	mov	r6, r0
 80065c0:	b950      	cbnz	r0, 80065d8 <__ssputs_r+0x5c>
 80065c2:	230c      	movs	r3, #12
 80065c4:	f8ca 3000 	str.w	r3, [sl]
 80065c8:	89a3      	ldrh	r3, [r4, #12]
 80065ca:	f043 0340 	orr.w	r3, r3, #64	; 0x40
 80065ce:	81a3      	strh	r3, [r4, #12]
 80065d0:	f04f 30ff 	mov.w	r0, #4294967295
 80065d4:	e8bd 87f0 	ldmia.w	sp!, {r4, r5, r6, r7, r8, r9, sl, pc}
 80065d8:	6921      	ldr	r1, [r4, #16]
 80065da:	464a      	mov	r2, r9
 80065dc:	f7ff fb88 	bl	8005cf0 <memcpy>
 80065e0:	89a3      	ldrh	r3, [r4, #12]
 80065e2:	f423 6390 	bic.w	r3, r3, #1152	; 0x480
 80065e6:	f043 0380 	orr.w	r3, r3, #128	; 0x80
 80065ea:	81a3      	strh	r3, [r4, #12]
 80065ec:	6126      	str	r6, [r4, #16]
 80065ee:	6165      	str	r5, [r4, #20]
 80065f0:	444e      	add	r6, r9
 80065f2:	eba5 0509 	sub.w	r5, r5, r9
 80065f6:	6026      	str	r6, [r4, #0]
 80065f8:	60a5      	str	r5, [r4, #8]
 80065fa:	463e      	mov	r6, r7
 80065fc:	42be      	cmp	r6, r7
 80065fe:	d900      	bls.n	8006602 <__ssputs_r+0x86>
 8006600:	463e      	mov	r6, r7
 8006602:	4632      	mov	r2, r6
 8006604:	6820      	ldr	r0, [r4, #0]
 8006606:	4641      	mov	r1, r8
 8006608:	f000 f966 	bl	80068d8 <memmove>
 800660c:	68a3      	ldr	r3, [r4, #8]
 800660e:	6822      	ldr	r2, [r4, #0]
 8006610:	1b9b      	subs	r3, r3, r6
 8006612:	4432      	add	r2, r6
 8006614:	60a3      	str	r3, [r4, #8]
 8006616:	6022      	str	r2, [r4, #0]
 8006618:	2000      	movs	r0, #0
 800661a:	e7db      	b.n	80065d4 <__ssputs_r+0x58>
 800661c:	462a      	mov	r2, r5
 800661e:	f000 f981 	bl	8006924 <_realloc_r>
 8006622:	4606      	mov	r6, r0
 8006624:	2800      	cmp	r0, #0
 8006626:	d1e1      	bne.n	80065ec <__ssputs_r+0x70>
 8006628:	6921      	ldr	r1, [r4, #16]
 800662a:	4650      	mov	r0, sl
 800662c:	f7ff fefc 	bl	8006428 <_free_r>
 8006630:	e7c7      	b.n	80065c2 <__ssputs_r+0x46>
	...

08006634 <_svfiprintf_r>:
 8006634:	e92d 4ff0 	stmdb	sp!, {r4, r5, r6, r7, r8, r9, sl, fp, lr}
 8006638:	4698      	mov	r8, r3
 800663a:	898b      	ldrh	r3, [r1, #12]
 800663c:	061b      	lsls	r3, r3, #24
 800663e:	b09d      	sub	sp, #116	; 0x74
 8006640:	4607      	mov	r7, r0
 8006642:	460d      	mov	r5, r1
 8006644:	4614      	mov	r4, r2
 8006646:	d50e      	bpl.n	8006666 <_svfiprintf_r+0x32>
 8006648:	690b      	ldr	r3, [r1, #16]
 800664a:	b963      	cbnz	r3, 8006666 <_svfiprintf_r+0x32>
 800664c:	2140      	movs	r1, #64	; 0x40
 800664e:	f7ff ff3b 	bl	80064c8 <_malloc_r>
 8006652:	6028      	str	r0, [r5, #0]
 8006654:	6128      	str	r0, [r5, #16]
 8006656:	b920      	cbnz	r0, 8006662 <_svfiprintf_r+0x2e>
 8006658:	230c      	movs	r3, #12
 800665a:	603b      	str	r3, [r7, #0]
 800665c:	f04f 30ff 	mov.w	r0, #4294967295
 8006660:	e0d1      	b.n	8006806 <_svfiprintf_r+0x1d2>
 8006662:	2340      	movs	r3, #64	; 0x40
 8006664:	616b      	str	r3, [r5, #20]
 8006666:	2300      	movs	r3, #0
 8006668:	9309      	str	r3, [sp, #36]	; 0x24
 800666a:	2320      	movs	r3, #32
 800666c:	f88d 3029 	strb.w	r3, [sp, #41]	; 0x29
 8006670:	f8cd 800c 	str.w	r8, [sp, #12]
 8006674:	2330      	movs	r3, #48	; 0x30
 8006676:	f8df 81a8 	ldr.w	r8, [pc, #424]	; 8006820 <_svfiprintf_r+0x1ec>
 800667a:	f88d 302a 	strb.w	r3, [sp, #42]	; 0x2a
 800667e:	f04f 0901 	mov.w	r9, #1
 8006682:	4623      	mov	r3, r4
 8006684:	469a      	mov	sl, r3
 8006686:	f813 2b01 	ldrb.w	r2, [r3], #1
 800668a:	b10a      	cbz	r2, 8006690 <_svfiprintf_r+0x5c>
 800668c:	2a25      	cmp	r2, #37	; 0x25
 800668e:	d1f9      	bne.n	8006684 <_svfiprintf_r+0x50>
 8006690:	ebba 0b04 	subs.w	fp, sl, r4
 8006694:	d00b      	beq.n	80066ae <_svfiprintf_r+0x7a>
 8006696:	465b      	mov	r3, fp
 8006698:	4622      	mov	r2, r4
 800669a:	4629      	mov	r1, r5
 800669c:	4638      	mov	r0, r7
 800669e:	f7ff ff6d 	bl	800657c <__ssputs_r>
 80066a2:	3001      	adds	r0, #1
 80066a4:	f000 80aa 	beq.w	80067fc <_svfiprintf_r+0x1c8>
 80066a8:	9a09      	ldr	r2, [sp, #36]	; 0x24
 80066aa:	445a      	add	r2, fp
 80066ac:	9209      	str	r2, [sp, #36]	; 0x24
 80066ae:	f89a 3000 	ldrb.w	r3, [sl]
 80066b2:	2b00      	cmp	r3, #0
 80066b4:	f000 80a2 	beq.w	80067fc <_svfiprintf_r+0x1c8>
 80066b8:	2300      	movs	r3, #0
 80066ba:	f04f 32ff 	mov.w	r2, #4294967295
 80066be:	e9cd 2305 	strd	r2, r3, [sp, #20]
 80066c2:	f10a 0a01 	add.w	sl, sl, #1
 80066c6:	9304      	str	r3, [sp, #16]
 80066c8:	9307      	str	r3, [sp, #28]
 80066ca:	f88d 3053 	strb.w	r3, [sp, #83]	; 0x53
 80066ce:	931a      	str	r3, [sp, #104]	; 0x68
 80066d0:	4654      	mov	r4, sl
 80066d2:	2205      	movs	r2, #5
 80066d4:	f814 1b01 	ldrb.w	r1, [r4], #1
 80066d8:	4851      	ldr	r0, [pc, #324]	; (8006820 <_svfiprintf_r+0x1ec>)
 80066da:	f7f9 fda1 	bl	8000220 <memchr>
 80066de:	9a04      	ldr	r2, [sp, #16]
 80066e0:	b9d8      	cbnz	r0, 800671a <_svfiprintf_r+0xe6>
 80066e2:	06d0      	lsls	r0, r2, #27
 80066e4:	bf44      	itt	mi
 80066e6:	2320      	movmi	r3, #32
 80066e8:	f88d 3053 	strbmi.w	r3, [sp, #83]	; 0x53
 80066ec:	0711      	lsls	r1, r2, #28
 80066ee:	bf44      	itt	mi
 80066f0:	232b      	movmi	r3, #43	; 0x2b
 80066f2:	f88d 3053 	strbmi.w	r3, [sp, #83]	; 0x53
 80066f6:	f89a 3000 	ldrb.w	r3, [sl]
 80066fa:	2b2a      	cmp	r3, #42	; 0x2a
 80066fc:	d015      	beq.n	800672a <_svfiprintf_r+0xf6>
 80066fe:	9a07      	ldr	r2, [sp, #28]
 8006700:	4654      	mov	r4, sl
 8006702:	2000      	movs	r0, #0
 8006704:	f04f 0c0a 	mov.w	ip, #10
 8006708:	4621      	mov	r1, r4
 800670a:	f811 3b01 	ldrb.w	r3, [r1], #1
 800670e:	3b30      	subs	r3, #48	; 0x30
 8006710:	2b09      	cmp	r3, #9
 8006712:	d94e      	bls.n	80067b2 <_svfiprintf_r+0x17e>
 8006714:	b1b0      	cbz	r0, 8006744 <_svfiprintf_r+0x110>
 8006716:	9207      	str	r2, [sp, #28]
 8006718:	e014      	b.n	8006744 <_svfiprintf_r+0x110>
 800671a:	eba0 0308 	sub.w	r3, r0, r8
 800671e:	fa09 f303 	lsl.w	r3, r9, r3
 8006722:	4313      	orrs	r3, r2
 8006724:	9304      	str	r3, [sp, #16]
 8006726:	46a2      	mov	sl, r4
 8006728:	e7d2      	b.n	80066d0 <_svfiprintf_r+0x9c>
 800672a:	9b03      	ldr	r3, [sp, #12]
 800672c:	1d19      	adds	r1, r3, #4
 800672e:	681b      	ldr	r3, [r3, #0]
 8006730:	9103      	str	r1, [sp, #12]
 8006732:	2b00      	cmp	r3, #0
 8006734:	bfbb      	ittet	lt
 8006736:	425b      	neglt	r3, r3
 8006738:	f042 0202 	orrlt.w	r2, r2, #2
 800673c:	9307      	strge	r3, [sp, #28]
 800673e:	9307      	strlt	r3, [sp, #28]
 8006740:	bfb8      	it	lt
 8006742:	9204      	strlt	r2, [sp, #16]
 8006744:	7823      	ldrb	r3, [r4, #0]
 8006746:	2b2e      	cmp	r3, #46	; 0x2e
 8006748:	d10c      	bne.n	8006764 <_svfiprintf_r+0x130>
 800674a:	7863      	ldrb	r3, [r4, #1]
 800674c:	2b2a      	cmp	r3, #42	; 0x2a
 800674e:	d135      	bne.n	80067bc <_svfiprintf_r+0x188>
 8006750:	9b03      	ldr	r3, [sp, #12]
 8006752:	1d1a      	adds	r2, r3, #4
 8006754:	681b      	ldr	r3, [r3, #0]
 8006756:	9203      	str	r2, [sp, #12]
 8006758:	2b00      	cmp	r3, #0
 800675a:	bfb8      	it	lt
 800675c:	f04f 33ff 	movlt.w	r3, #4294967295
 8006760:	3402      	adds	r4, #2
 8006762:	9305      	str	r3, [sp, #20]
 8006764:	f8df a0c8 	ldr.w	sl, [pc, #200]	; 8006830 <_svfiprintf_r+0x1fc>
 8006768:	7821      	ldrb	r1, [r4, #0]
 800676a:	2203      	movs	r2, #3
 800676c:	4650      	mov	r0, sl
 800676e:	f7f9 fd57 	bl	8000220 <memchr>
 8006772:	b140      	cbz	r0, 8006786 <_svfiprintf_r+0x152>
 8006774:	2340      	movs	r3, #64	; 0x40
 8006776:	eba0 000a 	sub.w	r0, r0, sl
 800677a:	fa03 f000 	lsl.w	r0, r3, r0
 800677e:	9b04      	ldr	r3, [sp, #16]
 8006780:	4303      	orrs	r3, r0
 8006782:	3401      	adds	r4, #1
 8006784:	9304      	str	r3, [sp, #16]
 8006786:	f814 1b01 	ldrb.w	r1, [r4], #1
 800678a:	4826      	ldr	r0, [pc, #152]	; (8006824 <_svfiprintf_r+0x1f0>)
 800678c:	f88d 1028 	strb.w	r1, [sp, #40]	; 0x28
 8006790:	2206      	movs	r2, #6
 8006792:	f7f9 fd45 	bl	8000220 <memchr>
 8006796:	2800      	cmp	r0, #0
 8006798:	d038      	beq.n	800680c <_svfiprintf_r+0x1d8>
 800679a:	4b23      	ldr	r3, [pc, #140]	; (8006828 <_svfiprintf_r+0x1f4>)
 800679c:	bb1b      	cbnz	r3, 80067e6 <_svfiprintf_r+0x1b2>
 800679e:	9b03      	ldr	r3, [sp, #12]
 80067a0:	3307      	adds	r3, #7
 80067a2:	f023 0307 	bic.w	r3, r3, #7
 80067a6:	3308      	adds	r3, #8
 80067a8:	9303      	str	r3, [sp, #12]
 80067aa:	9b09      	ldr	r3, [sp, #36]	; 0x24
 80067ac:	4433      	add	r3, r6
 80067ae:	9309      	str	r3, [sp, #36]	; 0x24
 80067b0:	e767      	b.n	8006682 <_svfiprintf_r+0x4e>
 80067b2:	fb0c 3202 	mla	r2, ip, r2, r3
 80067b6:	460c      	mov	r4, r1
 80067b8:	2001      	movs	r0, #1
 80067ba:	e7a5      	b.n	8006708 <_svfiprintf_r+0xd4>
 80067bc:	2300      	movs	r3, #0
 80067be:	3401      	adds	r4, #1
 80067c0:	9305      	str	r3, [sp, #20]
 80067c2:	4619      	mov	r1, r3
 80067c4:	f04f 0c0a 	mov.w	ip, #10
 80067c8:	4620      	mov	r0, r4
 80067ca:	f810 2b01 	ldrb.w	r2, [r0], #1
 80067ce:	3a30      	subs	r2, #48	; 0x30
 80067d0:	2a09      	cmp	r2, #9
 80067d2:	d903      	bls.n	80067dc <_svfiprintf_r+0x1a8>
 80067d4:	2b00      	cmp	r3, #0
 80067d6:	d0c5      	beq.n	8006764 <_svfiprintf_r+0x130>
 80067d8:	9105      	str	r1, [sp, #20]
 80067da:	e7c3      	b.n	8006764 <_svfiprintf_r+0x130>
 80067dc:	fb0c 2101 	mla	r1, ip, r1, r2
 80067e0:	4604      	mov	r4, r0
 80067e2:	2301      	movs	r3, #1
 80067e4:	e7f0      	b.n	80067c8 <_svfiprintf_r+0x194>
 80067e6:	ab03      	add	r3, sp, #12
 80067e8:	9300      	str	r3, [sp, #0]
 80067ea:	462a      	mov	r2, r5
 80067ec:	4b0f      	ldr	r3, [pc, #60]	; (800682c <_svfiprintf_r+0x1f8>)
 80067ee:	a904      	add	r1, sp, #16
 80067f0:	4638      	mov	r0, r7
 80067f2:	f7fe f80d 	bl	8004810 <_printf_float>
 80067f6:	1c42      	adds	r2, r0, #1
 80067f8:	4606      	mov	r6, r0
 80067fa:	d1d6      	bne.n	80067aa <_svfiprintf_r+0x176>
 80067fc:	89ab      	ldrh	r3, [r5, #12]
 80067fe:	065b      	lsls	r3, r3, #25
 8006800:	f53f af2c 	bmi.w	800665c <_svfiprintf_r+0x28>
 8006804:	9809      	ldr	r0, [sp, #36]	; 0x24
 8006806:	b01d      	add	sp, #116	; 0x74
 8006808:	e8bd 8ff0 	ldmia.w	sp!, {r4, r5, r6, r7, r8, r9, sl, fp, pc}
 800680c:	ab03      	add	r3, sp, #12
 800680e:	9300      	str	r3, [sp, #0]
 8006810:	462a      	mov	r2, r5
 8006812:	4b06      	ldr	r3, [pc, #24]	; (800682c <_svfiprintf_r+0x1f8>)
 8006814:	a904      	add	r1, sp, #16
 8006816:	4638      	mov	r0, r7
 8006818:	f7fe fa9e 	bl	8004d58 <_printf_i>
 800681c:	e7eb      	b.n	80067f6 <_svfiprintf_r+0x1c2>
 800681e:	bf00      	nop
 8006820:	08007664 	.word	0x08007664
 8006824:	0800766e 	.word	0x0800766e
 8006828:	08004811 	.word	0x08004811
 800682c:	0800657d 	.word	0x0800657d
 8006830:	0800766a 	.word	0x0800766a

08006834 <_sbrk_r>:
 8006834:	b538      	push	{r3, r4, r5, lr}
 8006836:	4d06      	ldr	r5, [pc, #24]	; (8006850 <_sbrk_r+0x1c>)
 8006838:	2300      	movs	r3, #0
 800683a:	4604      	mov	r4, r0
 800683c:	4608      	mov	r0, r1
 800683e:	602b      	str	r3, [r5, #0]
 8006840:	f7fb f904 	bl	8001a4c <_sbrk>
 8006844:	1c43      	adds	r3, r0, #1
 8006846:	d102      	bne.n	800684e <_sbrk_r+0x1a>
 8006848:	682b      	ldr	r3, [r5, #0]
 800684a:	b103      	cbz	r3, 800684e <_sbrk_r+0x1a>
 800684c:	6023      	str	r3, [r4, #0]
 800684e:	bd38      	pop	{r3, r4, r5, pc}
 8006850:	20013bd0 	.word	0x20013bd0

08006854 <__assert_func>:
 8006854:	b51f      	push	{r0, r1, r2, r3, r4, lr}
 8006856:	4614      	mov	r4, r2
 8006858:	461a      	mov	r2, r3
 800685a:	4b09      	ldr	r3, [pc, #36]	; (8006880 <__assert_func+0x2c>)
 800685c:	681b      	ldr	r3, [r3, #0]
 800685e:	4605      	mov	r5, r0
 8006860:	68d8      	ldr	r0, [r3, #12]
 8006862:	b14c      	cbz	r4, 8006878 <__assert_func+0x24>
 8006864:	4b07      	ldr	r3, [pc, #28]	; (8006884 <__assert_func+0x30>)
 8006866:	9100      	str	r1, [sp, #0]
 8006868:	e9cd 3401 	strd	r3, r4, [sp, #4]
 800686c:	4906      	ldr	r1, [pc, #24]	; (8006888 <__assert_func+0x34>)
 800686e:	462b      	mov	r3, r5
 8006870:	f000 f80e 	bl	8006890 <fiprintf>
 8006874:	f000 faa4 	bl	8006dc0 <abort>
 8006878:	4b04      	ldr	r3, [pc, #16]	; (800688c <__assert_func+0x38>)
 800687a:	461c      	mov	r4, r3
 800687c:	e7f3      	b.n	8006866 <__assert_func+0x12>
 800687e:	bf00      	nop
 8006880:	20000014 	.word	0x20000014
 8006884:	08007675 	.word	0x08007675
 8006888:	08007682 	.word	0x08007682
 800688c:	080076b0 	.word	0x080076b0

08006890 <fiprintf>:
 8006890:	b40e      	push	{r1, r2, r3}
 8006892:	b503      	push	{r0, r1, lr}
 8006894:	4601      	mov	r1, r0
 8006896:	ab03      	add	r3, sp, #12
 8006898:	4805      	ldr	r0, [pc, #20]	; (80068b0 <fiprintf+0x20>)
 800689a:	f853 2b04 	ldr.w	r2, [r3], #4
 800689e:	6800      	ldr	r0, [r0, #0]
 80068a0:	9301      	str	r3, [sp, #4]
 80068a2:	f000 f88f 	bl	80069c4 <_vfiprintf_r>
 80068a6:	b002      	add	sp, #8
 80068a8:	f85d eb04 	ldr.w	lr, [sp], #4
 80068ac:	b003      	add	sp, #12
 80068ae:	4770      	bx	lr
 80068b0:	20000014 	.word	0x20000014

080068b4 <__ascii_mbtowc>:
 80068b4:	b082      	sub	sp, #8
 80068b6:	b901      	cbnz	r1, 80068ba <__ascii_mbtowc+0x6>
 80068b8:	a901      	add	r1, sp, #4
 80068ba:	b142      	cbz	r2, 80068ce <__ascii_mbtowc+0x1a>
 80068bc:	b14b      	cbz	r3, 80068d2 <__ascii_mbtowc+0x1e>
 80068be:	7813      	ldrb	r3, [r2, #0]
 80068c0:	600b      	str	r3, [r1, #0]
 80068c2:	7812      	ldrb	r2, [r2, #0]
 80068c4:	1e10      	subs	r0, r2, #0
 80068c6:	bf18      	it	ne
 80068c8:	2001      	movne	r0, #1
 80068ca:	b002      	add	sp, #8
 80068cc:	4770      	bx	lr
 80068ce:	4610      	mov	r0, r2
 80068d0:	e7fb      	b.n	80068ca <__ascii_mbtowc+0x16>
 80068d2:	f06f 0001 	mvn.w	r0, #1
 80068d6:	e7f8      	b.n	80068ca <__ascii_mbtowc+0x16>

080068d8 <memmove>:
 80068d8:	4288      	cmp	r0, r1
 80068da:	b510      	push	{r4, lr}
 80068dc:	eb01 0402 	add.w	r4, r1, r2
 80068e0:	d902      	bls.n	80068e8 <memmove+0x10>
 80068e2:	4284      	cmp	r4, r0
 80068e4:	4623      	mov	r3, r4
 80068e6:	d807      	bhi.n	80068f8 <memmove+0x20>
 80068e8:	1e43      	subs	r3, r0, #1
 80068ea:	42a1      	cmp	r1, r4
 80068ec:	d008      	beq.n	8006900 <memmove+0x28>
 80068ee:	f811 2b01 	ldrb.w	r2, [r1], #1
 80068f2:	f803 2f01 	strb.w	r2, [r3, #1]!
 80068f6:	e7f8      	b.n	80068ea <memmove+0x12>
 80068f8:	4402      	add	r2, r0
 80068fa:	4601      	mov	r1, r0
 80068fc:	428a      	cmp	r2, r1
 80068fe:	d100      	bne.n	8006902 <memmove+0x2a>
 8006900:	bd10      	pop	{r4, pc}
 8006902:	f813 4d01 	ldrb.w	r4, [r3, #-1]!
 8006906:	f802 4d01 	strb.w	r4, [r2, #-1]!
 800690a:	e7f7      	b.n	80068fc <memmove+0x24>

0800690c <__malloc_lock>:
 800690c:	4801      	ldr	r0, [pc, #4]	; (8006914 <__malloc_lock+0x8>)
 800690e:	f000 bc17 	b.w	8007140 <__retarget_lock_acquire_recursive>
 8006912:	bf00      	nop
 8006914:	20013bd8 	.word	0x20013bd8

08006918 <__malloc_unlock>:
 8006918:	4801      	ldr	r0, [pc, #4]	; (8006920 <__malloc_unlock+0x8>)
 800691a:	f000 bc12 	b.w	8007142 <__retarget_lock_release_recursive>
 800691e:	bf00      	nop
 8006920:	20013bd8 	.word	0x20013bd8

08006924 <_realloc_r>:
 8006924:	b5f8      	push	{r3, r4, r5, r6, r7, lr}
 8006926:	4607      	mov	r7, r0
 8006928:	4614      	mov	r4, r2
 800692a:	460e      	mov	r6, r1
 800692c:	b921      	cbnz	r1, 8006938 <_realloc_r+0x14>
 800692e:	e8bd 40f8 	ldmia.w	sp!, {r3, r4, r5, r6, r7, lr}
 8006932:	4611      	mov	r1, r2
 8006934:	f7ff bdc8 	b.w	80064c8 <_malloc_r>
 8006938:	b922      	cbnz	r2, 8006944 <_realloc_r+0x20>
 800693a:	f7ff fd75 	bl	8006428 <_free_r>
 800693e:	4625      	mov	r5, r4
 8006940:	4628      	mov	r0, r5
 8006942:	bdf8      	pop	{r3, r4, r5, r6, r7, pc}
 8006944:	f000 fc62 	bl	800720c <_malloc_usable_size_r>
 8006948:	42a0      	cmp	r0, r4
 800694a:	d20f      	bcs.n	800696c <_realloc_r+0x48>
 800694c:	4621      	mov	r1, r4
 800694e:	4638      	mov	r0, r7
 8006950:	f7ff fdba 	bl	80064c8 <_malloc_r>
 8006954:	4605      	mov	r5, r0
 8006956:	2800      	cmp	r0, #0
 8006958:	d0f2      	beq.n	8006940 <_realloc_r+0x1c>
 800695a:	4631      	mov	r1, r6
 800695c:	4622      	mov	r2, r4
 800695e:	f7ff f9c7 	bl	8005cf0 <memcpy>
 8006962:	4631      	mov	r1, r6
 8006964:	4638      	mov	r0, r7
 8006966:	f7ff fd5f 	bl	8006428 <_free_r>
 800696a:	e7e9      	b.n	8006940 <_realloc_r+0x1c>
 800696c:	4635      	mov	r5, r6
 800696e:	e7e7      	b.n	8006940 <_realloc_r+0x1c>

08006970 <__sfputc_r>:
 8006970:	6893      	ldr	r3, [r2, #8]
 8006972:	3b01      	subs	r3, #1
 8006974:	2b00      	cmp	r3, #0
 8006976:	b410      	push	{r4}
 8006978:	6093      	str	r3, [r2, #8]
 800697a:	da08      	bge.n	800698e <__sfputc_r+0x1e>
 800697c:	6994      	ldr	r4, [r2, #24]
 800697e:	42a3      	cmp	r3, r4
 8006980:	db01      	blt.n	8006986 <__sfputc_r+0x16>
 8006982:	290a      	cmp	r1, #10
 8006984:	d103      	bne.n	800698e <__sfputc_r+0x1e>
 8006986:	f85d 4b04 	ldr.w	r4, [sp], #4
 800698a:	f000 b94b 	b.w	8006c24 <__swbuf_r>
 800698e:	6813      	ldr	r3, [r2, #0]
 8006990:	1c58      	adds	r0, r3, #1
 8006992:	6010      	str	r0, [r2, #0]
 8006994:	7019      	strb	r1, [r3, #0]
 8006996:	4608      	mov	r0, r1
 8006998:	f85d 4b04 	ldr.w	r4, [sp], #4
 800699c:	4770      	bx	lr

0800699e <__sfputs_r>:
 800699e:	b5f8      	push	{r3, r4, r5, r6, r7, lr}
 80069a0:	4606      	mov	r6, r0
 80069a2:	460f      	mov	r7, r1
 80069a4:	4614      	mov	r4, r2
 80069a6:	18d5      	adds	r5, r2, r3
 80069a8:	42ac      	cmp	r4, r5
 80069aa:	d101      	bne.n	80069b0 <__sfputs_r+0x12>
 80069ac:	2000      	movs	r0, #0
 80069ae:	e007      	b.n	80069c0 <__sfputs_r+0x22>
 80069b0:	f814 1b01 	ldrb.w	r1, [r4], #1
 80069b4:	463a      	mov	r2, r7
 80069b6:	4630      	mov	r0, r6
 80069b8:	f7ff ffda 	bl	8006970 <__sfputc_r>
 80069bc:	1c43      	adds	r3, r0, #1
 80069be:	d1f3      	bne.n	80069a8 <__sfputs_r+0xa>
 80069c0:	bdf8      	pop	{r3, r4, r5, r6, r7, pc}
	...

080069c4 <_vfiprintf_r>:
 80069c4:	e92d 4ff0 	stmdb	sp!, {r4, r5, r6, r7, r8, r9, sl, fp, lr}
 80069c8:	460d      	mov	r5, r1
 80069ca:	b09d      	sub	sp, #116	; 0x74
 80069cc:	4614      	mov	r4, r2
 80069ce:	4698      	mov	r8, r3
 80069d0:	4606      	mov	r6, r0
 80069d2:	b118      	cbz	r0, 80069dc <_vfiprintf_r+0x18>
 80069d4:	6983      	ldr	r3, [r0, #24]
 80069d6:	b90b      	cbnz	r3, 80069dc <_vfiprintf_r+0x18>
 80069d8:	f000 fb14 	bl	8007004 <__sinit>
 80069dc:	4b89      	ldr	r3, [pc, #548]	; (8006c04 <_vfiprintf_r+0x240>)
 80069de:	429d      	cmp	r5, r3
 80069e0:	d11b      	bne.n	8006a1a <_vfiprintf_r+0x56>
 80069e2:	6875      	ldr	r5, [r6, #4]
 80069e4:	6e6b      	ldr	r3, [r5, #100]	; 0x64
 80069e6:	07d9      	lsls	r1, r3, #31
 80069e8:	d405      	bmi.n	80069f6 <_vfiprintf_r+0x32>
 80069ea:	89ab      	ldrh	r3, [r5, #12]
 80069ec:	059a      	lsls	r2, r3, #22
 80069ee:	d402      	bmi.n	80069f6 <_vfiprintf_r+0x32>
 80069f0:	6da8      	ldr	r0, [r5, #88]	; 0x58
 80069f2:	f000 fba5 	bl	8007140 <__retarget_lock_acquire_recursive>
 80069f6:	89ab      	ldrh	r3, [r5, #12]
 80069f8:	071b      	lsls	r3, r3, #28
 80069fa:	d501      	bpl.n	8006a00 <_vfiprintf_r+0x3c>
 80069fc:	692b      	ldr	r3, [r5, #16]
 80069fe:	b9eb      	cbnz	r3, 8006a3c <_vfiprintf_r+0x78>
 8006a00:	4629      	mov	r1, r5
 8006a02:	4630      	mov	r0, r6
 8006a04:	f000 f96e 	bl	8006ce4 <__swsetup_r>
 8006a08:	b1c0      	cbz	r0, 8006a3c <_vfiprintf_r+0x78>
 8006a0a:	6e6b      	ldr	r3, [r5, #100]	; 0x64
 8006a0c:	07dc      	lsls	r4, r3, #31
 8006a0e:	d50e      	bpl.n	8006a2e <_vfiprintf_r+0x6a>
 8006a10:	f04f 30ff 	mov.w	r0, #4294967295
 8006a14:	b01d      	add	sp, #116	; 0x74
 8006a16:	e8bd 8ff0 	ldmia.w	sp!, {r4, r5, r6, r7, r8, r9, sl, fp, pc}
 8006a1a:	4b7b      	ldr	r3, [pc, #492]	; (8006c08 <_vfiprintf_r+0x244>)
 8006a1c:	429d      	cmp	r5, r3
 8006a1e:	d101      	bne.n	8006a24 <_vfiprintf_r+0x60>
 8006a20:	68b5      	ldr	r5, [r6, #8]
 8006a22:	e7df      	b.n	80069e4 <_vfiprintf_r+0x20>
 8006a24:	4b79      	ldr	r3, [pc, #484]	; (8006c0c <_vfiprintf_r+0x248>)
 8006a26:	429d      	cmp	r5, r3
 8006a28:	bf08      	it	eq
 8006a2a:	68f5      	ldreq	r5, [r6, #12]
 8006a2c:	e7da      	b.n	80069e4 <_vfiprintf_r+0x20>
 8006a2e:	89ab      	ldrh	r3, [r5, #12]
 8006a30:	0598      	lsls	r0, r3, #22
 8006a32:	d4ed      	bmi.n	8006a10 <_vfiprintf_r+0x4c>
 8006a34:	6da8      	ldr	r0, [r5, #88]	; 0x58
 8006a36:	f000 fb84 	bl	8007142 <__retarget_lock_release_recursive>
 8006a3a:	e7e9      	b.n	8006a10 <_vfiprintf_r+0x4c>
 8006a3c:	2300      	movs	r3, #0
 8006a3e:	9309      	str	r3, [sp, #36]	; 0x24
 8006a40:	2320      	movs	r3, #32
 8006a42:	f88d 3029 	strb.w	r3, [sp, #41]	; 0x29
 8006a46:	f8cd 800c 	str.w	r8, [sp, #12]
 8006a4a:	2330      	movs	r3, #48	; 0x30
 8006a4c:	f8df 81c0 	ldr.w	r8, [pc, #448]	; 8006c10 <_vfiprintf_r+0x24c>
 8006a50:	f88d 302a 	strb.w	r3, [sp, #42]	; 0x2a
 8006a54:	f04f 0901 	mov.w	r9, #1
 8006a58:	4623      	mov	r3, r4
 8006a5a:	469a      	mov	sl, r3
 8006a5c:	f813 2b01 	ldrb.w	r2, [r3], #1
 8006a60:	b10a      	cbz	r2, 8006a66 <_vfiprintf_r+0xa2>
 8006a62:	2a25      	cmp	r2, #37	; 0x25
 8006a64:	d1f9      	bne.n	8006a5a <_vfiprintf_r+0x96>
 8006a66:	ebba 0b04 	subs.w	fp, sl, r4
 8006a6a:	d00b      	beq.n	8006a84 <_vfiprintf_r+0xc0>
 8006a6c:	465b      	mov	r3, fp
 8006a6e:	4622      	mov	r2, r4
 8006a70:	4629      	mov	r1, r5
 8006a72:	4630      	mov	r0, r6
 8006a74:	f7ff ff93 	bl	800699e <__sfputs_r>
 8006a78:	3001      	adds	r0, #1
 8006a7a:	f000 80aa 	beq.w	8006bd2 <_vfiprintf_r+0x20e>
 8006a7e:	9a09      	ldr	r2, [sp, #36]	; 0x24
 8006a80:	445a      	add	r2, fp
 8006a82:	9209      	str	r2, [sp, #36]	; 0x24
 8006a84:	f89a 3000 	ldrb.w	r3, [sl]
 8006a88:	2b00      	cmp	r3, #0
 8006a8a:	f000 80a2 	beq.w	8006bd2 <_vfiprintf_r+0x20e>
 8006a8e:	2300      	movs	r3, #0
 8006a90:	f04f 32ff 	mov.w	r2, #4294967295
 8006a94:	e9cd 2305 	strd	r2, r3, [sp, #20]
 8006a98:	f10a 0a01 	add.w	sl, sl, #1
 8006a9c:	9304      	str	r3, [sp, #16]
 8006a9e:	9307      	str	r3, [sp, #28]
 8006aa0:	f88d 3053 	strb.w	r3, [sp, #83]	; 0x53
 8006aa4:	931a      	str	r3, [sp, #104]	; 0x68
 8006aa6:	4654      	mov	r4, sl
 8006aa8:	2205      	movs	r2, #5
 8006aaa:	f814 1b01 	ldrb.w	r1, [r4], #1
 8006aae:	4858      	ldr	r0, [pc, #352]	; (8006c10 <_vfiprintf_r+0x24c>)
 8006ab0:	f7f9 fbb6 	bl	8000220 <memchr>
 8006ab4:	9a04      	ldr	r2, [sp, #16]
 8006ab6:	b9d8      	cbnz	r0, 8006af0 <_vfiprintf_r+0x12c>
 8006ab8:	06d1      	lsls	r1, r2, #27
 8006aba:	bf44      	itt	mi
 8006abc:	2320      	movmi	r3, #32
 8006abe:	f88d 3053 	strbmi.w	r3, [sp, #83]	; 0x53
 8006ac2:	0713      	lsls	r3, r2, #28
 8006ac4:	bf44      	itt	mi
 8006ac6:	232b      	movmi	r3, #43	; 0x2b
 8006ac8:	f88d 3053 	strbmi.w	r3, [sp, #83]	; 0x53
 8006acc:	f89a 3000 	ldrb.w	r3, [sl]
 8006ad0:	2b2a      	cmp	r3, #42	; 0x2a
 8006ad2:	d015      	beq.n	8006b00 <_vfiprintf_r+0x13c>
 8006ad4:	9a07      	ldr	r2, [sp, #28]
 8006ad6:	4654      	mov	r4, sl
 8006ad8:	2000      	movs	r0, #0
 8006ada:	f04f 0c0a 	mov.w	ip, #10
 8006ade:	4621      	mov	r1, r4
 8006ae0:	f811 3b01 	ldrb.w	r3, [r1], #1
 8006ae4:	3b30      	subs	r3, #48	; 0x30
 8006ae6:	2b09      	cmp	r3, #9
 8006ae8:	d94e      	bls.n	8006b88 <_vfiprintf_r+0x1c4>
 8006aea:	b1b0      	cbz	r0, 8006b1a <_vfiprintf_r+0x156>
 8006aec:	9207      	str	r2, [sp, #28]
 8006aee:	e014      	b.n	8006b1a <_vfiprintf_r+0x156>
 8006af0:	eba0 0308 	sub.w	r3, r0, r8
 8006af4:	fa09 f303 	lsl.w	r3, r9, r3
 8006af8:	4313      	orrs	r3, r2
 8006afa:	9304      	str	r3, [sp, #16]
 8006afc:	46a2      	mov	sl, r4
 8006afe:	e7d2      	b.n	8006aa6 <_vfiprintf_r+0xe2>
 8006b00:	9b03      	ldr	r3, [sp, #12]
 8006b02:	1d19      	adds	r1, r3, #4
 8006b04:	681b      	ldr	r3, [r3, #0]
 8006b06:	9103      	str	r1, [sp, #12]
 8006b08:	2b00      	cmp	r3, #0
 8006b0a:	bfbb      	ittet	lt
 8006b0c:	425b      	neglt	r3, r3
 8006b0e:	f042 0202 	orrlt.w	r2, r2, #2
 8006b12:	9307      	strge	r3, [sp, #28]
 8006b14:	9307      	strlt	r3, [sp, #28]
 8006b16:	bfb8      	it	lt
 8006b18:	9204      	strlt	r2, [sp, #16]
 8006b1a:	7823      	ldrb	r3, [r4, #0]
 8006b1c:	2b2e      	cmp	r3, #46	; 0x2e
 8006b1e:	d10c      	bne.n	8006b3a <_vfiprintf_r+0x176>
 8006b20:	7863      	ldrb	r3, [r4, #1]
 8006b22:	2b2a      	cmp	r3, #42	; 0x2a
 8006b24:	d135      	bne.n	8006b92 <_vfiprintf_r+0x1ce>
 8006b26:	9b03      	ldr	r3, [sp, #12]
 8006b28:	1d1a      	adds	r2, r3, #4
 8006b2a:	681b      	ldr	r3, [r3, #0]
 8006b2c:	9203      	str	r2, [sp, #12]
 8006b2e:	2b00      	cmp	r3, #0
 8006b30:	bfb8      	it	lt
 8006b32:	f04f 33ff 	movlt.w	r3, #4294967295
 8006b36:	3402      	adds	r4, #2
 8006b38:	9305      	str	r3, [sp, #20]
 8006b3a:	f8df a0e4 	ldr.w	sl, [pc, #228]	; 8006c20 <_vfiprintf_r+0x25c>
 8006b3e:	7821      	ldrb	r1, [r4, #0]
 8006b40:	2203      	movs	r2, #3
 8006b42:	4650      	mov	r0, sl
 8006b44:	f7f9 fb6c 	bl	8000220 <memchr>
 8006b48:	b140      	cbz	r0, 8006b5c <_vfiprintf_r+0x198>
 8006b4a:	2340      	movs	r3, #64	; 0x40
 8006b4c:	eba0 000a 	sub.w	r0, r0, sl
 8006b50:	fa03 f000 	lsl.w	r0, r3, r0
 8006b54:	9b04      	ldr	r3, [sp, #16]
 8006b56:	4303      	orrs	r3, r0
 8006b58:	3401      	adds	r4, #1
 8006b5a:	9304      	str	r3, [sp, #16]
 8006b5c:	f814 1b01 	ldrb.w	r1, [r4], #1
 8006b60:	482c      	ldr	r0, [pc, #176]	; (8006c14 <_vfiprintf_r+0x250>)
 8006b62:	f88d 1028 	strb.w	r1, [sp, #40]	; 0x28
 8006b66:	2206      	movs	r2, #6
 8006b68:	f7f9 fb5a 	bl	8000220 <memchr>
 8006b6c:	2800      	cmp	r0, #0
 8006b6e:	d03f      	beq.n	8006bf0 <_vfiprintf_r+0x22c>
 8006b70:	4b29      	ldr	r3, [pc, #164]	; (8006c18 <_vfiprintf_r+0x254>)
 8006b72:	bb1b      	cbnz	r3, 8006bbc <_vfiprintf_r+0x1f8>
 8006b74:	9b03      	ldr	r3, [sp, #12]
 8006b76:	3307      	adds	r3, #7
 8006b78:	f023 0307 	bic.w	r3, r3, #7
 8006b7c:	3308      	adds	r3, #8
 8006b7e:	9303      	str	r3, [sp, #12]
 8006b80:	9b09      	ldr	r3, [sp, #36]	; 0x24
 8006b82:	443b      	add	r3, r7
 8006b84:	9309      	str	r3, [sp, #36]	; 0x24
 8006b86:	e767      	b.n	8006a58 <_vfiprintf_r+0x94>
 8006b88:	fb0c 3202 	mla	r2, ip, r2, r3
 8006b8c:	460c      	mov	r4, r1
 8006b8e:	2001      	movs	r0, #1
 8006b90:	e7a5      	b.n	8006ade <_vfiprintf_r+0x11a>
 8006b92:	2300      	movs	r3, #0
 8006b94:	3401      	adds	r4, #1
 8006b96:	9305      	str	r3, [sp, #20]
 8006b98:	4619      	mov	r1, r3
 8006b9a:	f04f 0c0a 	mov.w	ip, #10
 8006b9e:	4620      	mov	r0, r4
 8006ba0:	f810 2b01 	ldrb.w	r2, [r0], #1
 8006ba4:	3a30      	subs	r2, #48	; 0x30
 8006ba6:	2a09      	cmp	r2, #9
 8006ba8:	d903      	bls.n	8006bb2 <_vfiprintf_r+0x1ee>
 8006baa:	2b00      	cmp	r3, #0
 8006bac:	d0c5      	beq.n	8006b3a <_vfiprintf_r+0x176>
 8006bae:	9105      	str	r1, [sp, #20]
 8006bb0:	e7c3      	b.n	8006b3a <_vfiprintf_r+0x176>
 8006bb2:	fb0c 2101 	mla	r1, ip, r1, r2
 8006bb6:	4604      	mov	r4, r0
 8006bb8:	2301      	movs	r3, #1
 8006bba:	e7f0      	b.n	8006b9e <_vfiprintf_r+0x1da>
 8006bbc:	ab03      	add	r3, sp, #12
 8006bbe:	9300      	str	r3, [sp, #0]
 8006bc0:	462a      	mov	r2, r5
 8006bc2:	4b16      	ldr	r3, [pc, #88]	; (8006c1c <_vfiprintf_r+0x258>)
 8006bc4:	a904      	add	r1, sp, #16
 8006bc6:	4630      	mov	r0, r6
 8006bc8:	f7fd fe22 	bl	8004810 <_printf_float>
 8006bcc:	4607      	mov	r7, r0
 8006bce:	1c78      	adds	r0, r7, #1
 8006bd0:	d1d6      	bne.n	8006b80 <_vfiprintf_r+0x1bc>
 8006bd2:	6e6b      	ldr	r3, [r5, #100]	; 0x64
 8006bd4:	07d9      	lsls	r1, r3, #31
 8006bd6:	d405      	bmi.n	8006be4 <_vfiprintf_r+0x220>
 8006bd8:	89ab      	ldrh	r3, [r5, #12]
 8006bda:	059a      	lsls	r2, r3, #22
 8006bdc:	d402      	bmi.n	8006be4 <_vfiprintf_r+0x220>
 8006bde:	6da8      	ldr	r0, [r5, #88]	; 0x58
 8006be0:	f000 faaf 	bl	8007142 <__retarget_lock_release_recursive>
 8006be4:	89ab      	ldrh	r3, [r5, #12]
 8006be6:	065b      	lsls	r3, r3, #25
 8006be8:	f53f af12 	bmi.w	8006a10 <_vfiprintf_r+0x4c>
 8006bec:	9809      	ldr	r0, [sp, #36]	; 0x24
 8006bee:	e711      	b.n	8006a14 <_vfiprintf_r+0x50>
 8006bf0:	ab03      	add	r3, sp, #12
 8006bf2:	9300      	str	r3, [sp, #0]
 8006bf4:	462a      	mov	r2, r5
 8006bf6:	4b09      	ldr	r3, [pc, #36]	; (8006c1c <_vfiprintf_r+0x258>)
 8006bf8:	a904      	add	r1, sp, #16
 8006bfa:	4630      	mov	r0, r6
 8006bfc:	f7fe f8ac 	bl	8004d58 <_printf_i>
 8006c00:	e7e4      	b.n	8006bcc <_vfiprintf_r+0x208>
 8006c02:	bf00      	nop
 8006c04:	080077dc 	.word	0x080077dc
 8006c08:	080077fc 	.word	0x080077fc
 8006c0c:	080077bc 	.word	0x080077bc
 8006c10:	08007664 	.word	0x08007664
 8006c14:	0800766e 	.word	0x0800766e
 8006c18:	08004811 	.word	0x08004811
 8006c1c:	0800699f 	.word	0x0800699f
 8006c20:	0800766a 	.word	0x0800766a

08006c24 <__swbuf_r>:
 8006c24:	b5f8      	push	{r3, r4, r5, r6, r7, lr}
 8006c26:	460e      	mov	r6, r1
 8006c28:	4614      	mov	r4, r2
 8006c2a:	4605      	mov	r5, r0
 8006c2c:	b118      	cbz	r0, 8006c36 <__swbuf_r+0x12>
 8006c2e:	6983      	ldr	r3, [r0, #24]
 8006c30:	b90b      	cbnz	r3, 8006c36 <__swbuf_r+0x12>
 8006c32:	f000 f9e7 	bl	8007004 <__sinit>
 8006c36:	4b21      	ldr	r3, [pc, #132]	; (8006cbc <__swbuf_r+0x98>)
 8006c38:	429c      	cmp	r4, r3
 8006c3a:	d12b      	bne.n	8006c94 <__swbuf_r+0x70>
 8006c3c:	686c      	ldr	r4, [r5, #4]
 8006c3e:	69a3      	ldr	r3, [r4, #24]
 8006c40:	60a3      	str	r3, [r4, #8]
 8006c42:	89a3      	ldrh	r3, [r4, #12]
 8006c44:	071a      	lsls	r2, r3, #28
 8006c46:	d52f      	bpl.n	8006ca8 <__swbuf_r+0x84>
 8006c48:	6923      	ldr	r3, [r4, #16]
 8006c4a:	b36b      	cbz	r3, 8006ca8 <__swbuf_r+0x84>
 8006c4c:	6923      	ldr	r3, [r4, #16]
 8006c4e:	6820      	ldr	r0, [r4, #0]
 8006c50:	1ac0      	subs	r0, r0, r3
 8006c52:	6963      	ldr	r3, [r4, #20]
 8006c54:	b2f6      	uxtb	r6, r6
 8006c56:	4283      	cmp	r3, r0
 8006c58:	4637      	mov	r7, r6
 8006c5a:	dc04      	bgt.n	8006c66 <__swbuf_r+0x42>
 8006c5c:	4621      	mov	r1, r4
 8006c5e:	4628      	mov	r0, r5
 8006c60:	f000 f93c 	bl	8006edc <_fflush_r>
 8006c64:	bb30      	cbnz	r0, 8006cb4 <__swbuf_r+0x90>
 8006c66:	68a3      	ldr	r3, [r4, #8]
 8006c68:	3b01      	subs	r3, #1
 8006c6a:	60a3      	str	r3, [r4, #8]
 8006c6c:	6823      	ldr	r3, [r4, #0]
 8006c6e:	1c5a      	adds	r2, r3, #1
 8006c70:	6022      	str	r2, [r4, #0]
 8006c72:	701e      	strb	r6, [r3, #0]
 8006c74:	6963      	ldr	r3, [r4, #20]
 8006c76:	3001      	adds	r0, #1
 8006c78:	4283      	cmp	r3, r0
 8006c7a:	d004      	beq.n	8006c86 <__swbuf_r+0x62>
 8006c7c:	89a3      	ldrh	r3, [r4, #12]
 8006c7e:	07db      	lsls	r3, r3, #31
 8006c80:	d506      	bpl.n	8006c90 <__swbuf_r+0x6c>
 8006c82:	2e0a      	cmp	r6, #10
 8006c84:	d104      	bne.n	8006c90 <__swbuf_r+0x6c>
 8006c86:	4621      	mov	r1, r4
 8006c88:	4628      	mov	r0, r5
 8006c8a:	f000 f927 	bl	8006edc <_fflush_r>
 8006c8e:	b988      	cbnz	r0, 8006cb4 <__swbuf_r+0x90>
 8006c90:	4638      	mov	r0, r7
 8006c92:	bdf8      	pop	{r3, r4, r5, r6, r7, pc}
 8006c94:	4b0a      	ldr	r3, [pc, #40]	; (8006cc0 <__swbuf_r+0x9c>)
 8006c96:	429c      	cmp	r4, r3
 8006c98:	d101      	bne.n	8006c9e <__swbuf_r+0x7a>
 8006c9a:	68ac      	ldr	r4, [r5, #8]
 8006c9c:	e7cf      	b.n	8006c3e <__swbuf_r+0x1a>
 8006c9e:	4b09      	ldr	r3, [pc, #36]	; (8006cc4 <__swbuf_r+0xa0>)
 8006ca0:	429c      	cmp	r4, r3
 8006ca2:	bf08      	it	eq
 8006ca4:	68ec      	ldreq	r4, [r5, #12]
 8006ca6:	e7ca      	b.n	8006c3e <__swbuf_r+0x1a>
 8006ca8:	4621      	mov	r1, r4
 8006caa:	4628      	mov	r0, r5
 8006cac:	f000 f81a 	bl	8006ce4 <__swsetup_r>
 8006cb0:	2800      	cmp	r0, #0
 8006cb2:	d0cb      	beq.n	8006c4c <__swbuf_r+0x28>
 8006cb4:	f04f 37ff 	mov.w	r7, #4294967295
 8006cb8:	e7ea      	b.n	8006c90 <__swbuf_r+0x6c>
 8006cba:	bf00      	nop
 8006cbc:	080077dc 	.word	0x080077dc
 8006cc0:	080077fc 	.word	0x080077fc
 8006cc4:	080077bc 	.word	0x080077bc

08006cc8 <__ascii_wctomb>:
 8006cc8:	b149      	cbz	r1, 8006cde <__ascii_wctomb+0x16>
 8006cca:	2aff      	cmp	r2, #255	; 0xff
 8006ccc:	bf85      	ittet	hi
 8006cce:	238a      	movhi	r3, #138	; 0x8a
 8006cd0:	6003      	strhi	r3, [r0, #0]
 8006cd2:	700a      	strbls	r2, [r1, #0]
 8006cd4:	f04f 30ff 	movhi.w	r0, #4294967295
 8006cd8:	bf98      	it	ls
 8006cda:	2001      	movls	r0, #1
 8006cdc:	4770      	bx	lr
 8006cde:	4608      	mov	r0, r1
 8006ce0:	4770      	bx	lr
	...

08006ce4 <__swsetup_r>:
 8006ce4:	4b32      	ldr	r3, [pc, #200]	; (8006db0 <__swsetup_r+0xcc>)
 8006ce6:	b570      	push	{r4, r5, r6, lr}
 8006ce8:	681d      	ldr	r5, [r3, #0]
 8006cea:	4606      	mov	r6, r0
 8006cec:	460c      	mov	r4, r1
 8006cee:	b125      	cbz	r5, 8006cfa <__swsetup_r+0x16>
 8006cf0:	69ab      	ldr	r3, [r5, #24]
 8006cf2:	b913      	cbnz	r3, 8006cfa <__swsetup_r+0x16>
 8006cf4:	4628      	mov	r0, r5
 8006cf6:	f000 f985 	bl	8007004 <__sinit>
 8006cfa:	4b2e      	ldr	r3, [pc, #184]	; (8006db4 <__swsetup_r+0xd0>)
 8006cfc:	429c      	cmp	r4, r3
 8006cfe:	d10f      	bne.n	8006d20 <__swsetup_r+0x3c>
 8006d00:	686c      	ldr	r4, [r5, #4]
 8006d02:	89a3      	ldrh	r3, [r4, #12]
 8006d04:	f9b4 200c 	ldrsh.w	r2, [r4, #12]
 8006d08:	0719      	lsls	r1, r3, #28
 8006d0a:	d42c      	bmi.n	8006d66 <__swsetup_r+0x82>
 8006d0c:	06dd      	lsls	r5, r3, #27
 8006d0e:	d411      	bmi.n	8006d34 <__swsetup_r+0x50>
 8006d10:	2309      	movs	r3, #9
 8006d12:	6033      	str	r3, [r6, #0]
 8006d14:	f042 0340 	orr.w	r3, r2, #64	; 0x40
 8006d18:	81a3      	strh	r3, [r4, #12]
 8006d1a:	f04f 30ff 	mov.w	r0, #4294967295
 8006d1e:	e03e      	b.n	8006d9e <__swsetup_r+0xba>
 8006d20:	4b25      	ldr	r3, [pc, #148]	; (8006db8 <__swsetup_r+0xd4>)
 8006d22:	429c      	cmp	r4, r3
 8006d24:	d101      	bne.n	8006d2a <__swsetup_r+0x46>
 8006d26:	68ac      	ldr	r4, [r5, #8]
 8006d28:	e7eb      	b.n	8006d02 <__swsetup_r+0x1e>
 8006d2a:	4b24      	ldr	r3, [pc, #144]	; (8006dbc <__swsetup_r+0xd8>)
 8006d2c:	429c      	cmp	r4, r3
 8006d2e:	bf08      	it	eq
 8006d30:	68ec      	ldreq	r4, [r5, #12]
 8006d32:	e7e6      	b.n	8006d02 <__swsetup_r+0x1e>
 8006d34:	0758      	lsls	r0, r3, #29
 8006d36:	d512      	bpl.n	8006d5e <__swsetup_r+0x7a>
 8006d38:	6b61      	ldr	r1, [r4, #52]	; 0x34
 8006d3a:	b141      	cbz	r1, 8006d4e <__swsetup_r+0x6a>
 8006d3c:	f104 0344 	add.w	r3, r4, #68	; 0x44
 8006d40:	4299      	cmp	r1, r3
 8006d42:	d002      	beq.n	8006d4a <__swsetup_r+0x66>
 8006d44:	4630      	mov	r0, r6
 8006d46:	f7ff fb6f 	bl	8006428 <_free_r>
 8006d4a:	2300      	movs	r3, #0
 8006d4c:	6363      	str	r3, [r4, #52]	; 0x34
 8006d4e:	89a3      	ldrh	r3, [r4, #12]
 8006d50:	f023 0324 	bic.w	r3, r3, #36	; 0x24
 8006d54:	81a3      	strh	r3, [r4, #12]
 8006d56:	2300      	movs	r3, #0
 8006d58:	6063      	str	r3, [r4, #4]
 8006d5a:	6923      	ldr	r3, [r4, #16]
 8006d5c:	6023      	str	r3, [r4, #0]
 8006d5e:	89a3      	ldrh	r3, [r4, #12]
 8006d60:	f043 0308 	orr.w	r3, r3, #8
 8006d64:	81a3      	strh	r3, [r4, #12]
 8006d66:	6923      	ldr	r3, [r4, #16]
 8006d68:	b94b      	cbnz	r3, 8006d7e <__swsetup_r+0x9a>
 8006d6a:	89a3      	ldrh	r3, [r4, #12]
 8006d6c:	f403 7320 	and.w	r3, r3, #640	; 0x280
 8006d70:	f5b3 7f00 	cmp.w	r3, #512	; 0x200
 8006d74:	d003      	beq.n	8006d7e <__swsetup_r+0x9a>
 8006d76:	4621      	mov	r1, r4
 8006d78:	4630      	mov	r0, r6
 8006d7a:	f000 fa07 	bl	800718c <__smakebuf_r>
 8006d7e:	89a0      	ldrh	r0, [r4, #12]
 8006d80:	f9b4 200c 	ldrsh.w	r2, [r4, #12]
 8006d84:	f010 0301 	ands.w	r3, r0, #1
 8006d88:	d00a      	beq.n	8006da0 <__swsetup_r+0xbc>
 8006d8a:	2300      	movs	r3, #0
 8006d8c:	60a3      	str	r3, [r4, #8]
 8006d8e:	6963      	ldr	r3, [r4, #20]
 8006d90:	425b      	negs	r3, r3
 8006d92:	61a3      	str	r3, [r4, #24]
 8006d94:	6923      	ldr	r3, [r4, #16]
 8006d96:	b943      	cbnz	r3, 8006daa <__swsetup_r+0xc6>
 8006d98:	f010 0080 	ands.w	r0, r0, #128	; 0x80
 8006d9c:	d1ba      	bne.n	8006d14 <__swsetup_r+0x30>
 8006d9e:	bd70      	pop	{r4, r5, r6, pc}
 8006da0:	0781      	lsls	r1, r0, #30
 8006da2:	bf58      	it	pl
 8006da4:	6963      	ldrpl	r3, [r4, #20]
 8006da6:	60a3      	str	r3, [r4, #8]
 8006da8:	e7f4      	b.n	8006d94 <__swsetup_r+0xb0>
 8006daa:	2000      	movs	r0, #0
 8006dac:	e7f7      	b.n	8006d9e <__swsetup_r+0xba>
 8006dae:	bf00      	nop
 8006db0:	20000014 	.word	0x20000014
 8006db4:	080077dc 	.word	0x080077dc
 8006db8:	080077fc 	.word	0x080077fc
 8006dbc:	080077bc 	.word	0x080077bc

08006dc0 <abort>:
 8006dc0:	b508      	push	{r3, lr}
 8006dc2:	2006      	movs	r0, #6
 8006dc4:	f000 fa52 	bl	800726c <raise>
 8006dc8:	2001      	movs	r0, #1
 8006dca:	f7fa fdc7 	bl	800195c <_exit>
	...

08006dd0 <__sflush_r>:
 8006dd0:	898a      	ldrh	r2, [r1, #12]
 8006dd2:	e92d 41f0 	stmdb	sp!, {r4, r5, r6, r7, r8, lr}
 8006dd6:	4605      	mov	r5, r0
 8006dd8:	0710      	lsls	r0, r2, #28
 8006dda:	460c      	mov	r4, r1
 8006ddc:	d458      	bmi.n	8006e90 <__sflush_r+0xc0>
 8006dde:	684b      	ldr	r3, [r1, #4]
 8006de0:	2b00      	cmp	r3, #0
 8006de2:	dc05      	bgt.n	8006df0 <__sflush_r+0x20>
 8006de4:	6c0b      	ldr	r3, [r1, #64]	; 0x40
 8006de6:	2b00      	cmp	r3, #0
 8006de8:	dc02      	bgt.n	8006df0 <__sflush_r+0x20>
 8006dea:	2000      	movs	r0, #0
 8006dec:	e8bd 81f0 	ldmia.w	sp!, {r4, r5, r6, r7, r8, pc}
 8006df0:	6ae6      	ldr	r6, [r4, #44]	; 0x2c
 8006df2:	2e00      	cmp	r6, #0
 8006df4:	d0f9      	beq.n	8006dea <__sflush_r+0x1a>
 8006df6:	2300      	movs	r3, #0
 8006df8:	f412 5280 	ands.w	r2, r2, #4096	; 0x1000
 8006dfc:	682f      	ldr	r7, [r5, #0]
 8006dfe:	602b      	str	r3, [r5, #0]
 8006e00:	d032      	beq.n	8006e68 <__sflush_r+0x98>
 8006e02:	6d60      	ldr	r0, [r4, #84]	; 0x54
 8006e04:	89a3      	ldrh	r3, [r4, #12]
 8006e06:	075a      	lsls	r2, r3, #29
 8006e08:	d505      	bpl.n	8006e16 <__sflush_r+0x46>
 8006e0a:	6863      	ldr	r3, [r4, #4]
 8006e0c:	1ac0      	subs	r0, r0, r3
 8006e0e:	6b63      	ldr	r3, [r4, #52]	; 0x34
 8006e10:	b10b      	cbz	r3, 8006e16 <__sflush_r+0x46>
 8006e12:	6c23      	ldr	r3, [r4, #64]	; 0x40
 8006e14:	1ac0      	subs	r0, r0, r3
 8006e16:	2300      	movs	r3, #0
 8006e18:	4602      	mov	r2, r0
 8006e1a:	6ae6      	ldr	r6, [r4, #44]	; 0x2c
 8006e1c:	6a21      	ldr	r1, [r4, #32]
 8006e1e:	4628      	mov	r0, r5
 8006e20:	47b0      	blx	r6
 8006e22:	1c43      	adds	r3, r0, #1
 8006e24:	89a3      	ldrh	r3, [r4, #12]
 8006e26:	d106      	bne.n	8006e36 <__sflush_r+0x66>
 8006e28:	6829      	ldr	r1, [r5, #0]
 8006e2a:	291d      	cmp	r1, #29
 8006e2c:	d82c      	bhi.n	8006e88 <__sflush_r+0xb8>
 8006e2e:	4a2a      	ldr	r2, [pc, #168]	; (8006ed8 <__sflush_r+0x108>)
 8006e30:	40ca      	lsrs	r2, r1
 8006e32:	07d6      	lsls	r6, r2, #31
 8006e34:	d528      	bpl.n	8006e88 <__sflush_r+0xb8>
 8006e36:	2200      	movs	r2, #0
 8006e38:	6062      	str	r2, [r4, #4]
 8006e3a:	04d9      	lsls	r1, r3, #19
 8006e3c:	6922      	ldr	r2, [r4, #16]
 8006e3e:	6022      	str	r2, [r4, #0]
 8006e40:	d504      	bpl.n	8006e4c <__sflush_r+0x7c>
 8006e42:	1c42      	adds	r2, r0, #1
 8006e44:	d101      	bne.n	8006e4a <__sflush_r+0x7a>
 8006e46:	682b      	ldr	r3, [r5, #0]
 8006e48:	b903      	cbnz	r3, 8006e4c <__sflush_r+0x7c>
 8006e4a:	6560      	str	r0, [r4, #84]	; 0x54
 8006e4c:	6b61      	ldr	r1, [r4, #52]	; 0x34
 8006e4e:	602f      	str	r7, [r5, #0]
 8006e50:	2900      	cmp	r1, #0
 8006e52:	d0ca      	beq.n	8006dea <__sflush_r+0x1a>
 8006e54:	f104 0344 	add.w	r3, r4, #68	; 0x44
 8006e58:	4299      	cmp	r1, r3
 8006e5a:	d002      	beq.n	8006e62 <__sflush_r+0x92>
 8006e5c:	4628      	mov	r0, r5
 8006e5e:	f7ff fae3 	bl	8006428 <_free_r>
 8006e62:	2000      	movs	r0, #0
 8006e64:	6360      	str	r0, [r4, #52]	; 0x34
 8006e66:	e7c1      	b.n	8006dec <__sflush_r+0x1c>
 8006e68:	6a21      	ldr	r1, [r4, #32]
 8006e6a:	2301      	movs	r3, #1
 8006e6c:	4628      	mov	r0, r5
 8006e6e:	47b0      	blx	r6
 8006e70:	1c41      	adds	r1, r0, #1
 8006e72:	d1c7      	bne.n	8006e04 <__sflush_r+0x34>
 8006e74:	682b      	ldr	r3, [r5, #0]
 8006e76:	2b00      	cmp	r3, #0
 8006e78:	d0c4      	beq.n	8006e04 <__sflush_r+0x34>
 8006e7a:	2b1d      	cmp	r3, #29
 8006e7c:	d001      	beq.n	8006e82 <__sflush_r+0xb2>
 8006e7e:	2b16      	cmp	r3, #22
 8006e80:	d101      	bne.n	8006e86 <__sflush_r+0xb6>
 8006e82:	602f      	str	r7, [r5, #0]
 8006e84:	e7b1      	b.n	8006dea <__sflush_r+0x1a>
 8006e86:	89a3      	ldrh	r3, [r4, #12]
 8006e88:	f043 0340 	orr.w	r3, r3, #64	; 0x40
 8006e8c:	81a3      	strh	r3, [r4, #12]
 8006e8e:	e7ad      	b.n	8006dec <__sflush_r+0x1c>
 8006e90:	690f      	ldr	r7, [r1, #16]
 8006e92:	2f00      	cmp	r7, #0
 8006e94:	d0a9      	beq.n	8006dea <__sflush_r+0x1a>
 8006e96:	0793      	lsls	r3, r2, #30
 8006e98:	680e      	ldr	r6, [r1, #0]
 8006e9a:	bf08      	it	eq
 8006e9c:	694b      	ldreq	r3, [r1, #20]
 8006e9e:	600f      	str	r7, [r1, #0]
 8006ea0:	bf18      	it	ne
 8006ea2:	2300      	movne	r3, #0
 8006ea4:	eba6 0807 	sub.w	r8, r6, r7
 8006ea8:	608b      	str	r3, [r1, #8]
 8006eaa:	f1b8 0f00 	cmp.w	r8, #0
 8006eae:	dd9c      	ble.n	8006dea <__sflush_r+0x1a>
 8006eb0:	6a21      	ldr	r1, [r4, #32]
 8006eb2:	6aa6      	ldr	r6, [r4, #40]	; 0x28
 8006eb4:	4643      	mov	r3, r8
 8006eb6:	463a      	mov	r2, r7
 8006eb8:	4628      	mov	r0, r5
 8006eba:	47b0      	blx	r6
 8006ebc:	2800      	cmp	r0, #0
 8006ebe:	dc06      	bgt.n	8006ece <__sflush_r+0xfe>
 8006ec0:	89a3      	ldrh	r3, [r4, #12]
 8006ec2:	f043 0340 	orr.w	r3, r3, #64	; 0x40
 8006ec6:	81a3      	strh	r3, [r4, #12]
 8006ec8:	f04f 30ff 	mov.w	r0, #4294967295
 8006ecc:	e78e      	b.n	8006dec <__sflush_r+0x1c>
 8006ece:	4407      	add	r7, r0
 8006ed0:	eba8 0800 	sub.w	r8, r8, r0
 8006ed4:	e7e9      	b.n	8006eaa <__sflush_r+0xda>
 8006ed6:	bf00      	nop
 8006ed8:	20400001 	.word	0x20400001

08006edc <_fflush_r>:
 8006edc:	b538      	push	{r3, r4, r5, lr}
 8006ede:	690b      	ldr	r3, [r1, #16]
 8006ee0:	4605      	mov	r5, r0
 8006ee2:	460c      	mov	r4, r1
 8006ee4:	b913      	cbnz	r3, 8006eec <_fflush_r+0x10>
 8006ee6:	2500      	movs	r5, #0
 8006ee8:	4628      	mov	r0, r5
 8006eea:	bd38      	pop	{r3, r4, r5, pc}
 8006eec:	b118      	cbz	r0, 8006ef6 <_fflush_r+0x1a>
 8006eee:	6983      	ldr	r3, [r0, #24]
 8006ef0:	b90b      	cbnz	r3, 8006ef6 <_fflush_r+0x1a>
 8006ef2:	f000 f887 	bl	8007004 <__sinit>
 8006ef6:	4b14      	ldr	r3, [pc, #80]	; (8006f48 <_fflush_r+0x6c>)
 8006ef8:	429c      	cmp	r4, r3
 8006efa:	d11b      	bne.n	8006f34 <_fflush_r+0x58>
 8006efc:	686c      	ldr	r4, [r5, #4]
 8006efe:	f9b4 300c 	ldrsh.w	r3, [r4, #12]
 8006f02:	2b00      	cmp	r3, #0
 8006f04:	d0ef      	beq.n	8006ee6 <_fflush_r+0xa>
 8006f06:	6e62      	ldr	r2, [r4, #100]	; 0x64
 8006f08:	07d0      	lsls	r0, r2, #31
 8006f0a:	d404      	bmi.n	8006f16 <_fflush_r+0x3a>
 8006f0c:	0599      	lsls	r1, r3, #22
 8006f0e:	d402      	bmi.n	8006f16 <_fflush_r+0x3a>
 8006f10:	6da0      	ldr	r0, [r4, #88]	; 0x58
 8006f12:	f000 f915 	bl	8007140 <__retarget_lock_acquire_recursive>
 8006f16:	4628      	mov	r0, r5
 8006f18:	4621      	mov	r1, r4
 8006f1a:	f7ff ff59 	bl	8006dd0 <__sflush_r>
 8006f1e:	6e63      	ldr	r3, [r4, #100]	; 0x64
 8006f20:	07da      	lsls	r2, r3, #31
 8006f22:	4605      	mov	r5, r0
 8006f24:	d4e0      	bmi.n	8006ee8 <_fflush_r+0xc>
 8006f26:	89a3      	ldrh	r3, [r4, #12]
 8006f28:	059b      	lsls	r3, r3, #22
 8006f2a:	d4dd      	bmi.n	8006ee8 <_fflush_r+0xc>
 8006f2c:	6da0      	ldr	r0, [r4, #88]	; 0x58
 8006f2e:	f000 f908 	bl	8007142 <__retarget_lock_release_recursive>
 8006f32:	e7d9      	b.n	8006ee8 <_fflush_r+0xc>
 8006f34:	4b05      	ldr	r3, [pc, #20]	; (8006f4c <_fflush_r+0x70>)
 8006f36:	429c      	cmp	r4, r3
 8006f38:	d101      	bne.n	8006f3e <_fflush_r+0x62>
 8006f3a:	68ac      	ldr	r4, [r5, #8]
 8006f3c:	e7df      	b.n	8006efe <_fflush_r+0x22>
 8006f3e:	4b04      	ldr	r3, [pc, #16]	; (8006f50 <_fflush_r+0x74>)
 8006f40:	429c      	cmp	r4, r3
 8006f42:	bf08      	it	eq
 8006f44:	68ec      	ldreq	r4, [r5, #12]
 8006f46:	e7da      	b.n	8006efe <_fflush_r+0x22>
 8006f48:	080077dc 	.word	0x080077dc
 8006f4c:	080077fc 	.word	0x080077fc
 8006f50:	080077bc 	.word	0x080077bc

08006f54 <std>:
 8006f54:	2300      	movs	r3, #0
 8006f56:	b510      	push	{r4, lr}
 8006f58:	4604      	mov	r4, r0
 8006f5a:	e9c0 3300 	strd	r3, r3, [r0]
 8006f5e:	e9c0 3304 	strd	r3, r3, [r0, #16]
 8006f62:	6083      	str	r3, [r0, #8]
 8006f64:	8181      	strh	r1, [r0, #12]
 8006f66:	6643      	str	r3, [r0, #100]	; 0x64
 8006f68:	81c2      	strh	r2, [r0, #14]
 8006f6a:	6183      	str	r3, [r0, #24]
 8006f6c:	4619      	mov	r1, r3
 8006f6e:	2208      	movs	r2, #8
 8006f70:	305c      	adds	r0, #92	; 0x5c
 8006f72:	f7fd fba5 	bl	80046c0 <memset>
 8006f76:	4b05      	ldr	r3, [pc, #20]	; (8006f8c <std+0x38>)
 8006f78:	6263      	str	r3, [r4, #36]	; 0x24
 8006f7a:	4b05      	ldr	r3, [pc, #20]	; (8006f90 <std+0x3c>)
 8006f7c:	62a3      	str	r3, [r4, #40]	; 0x28
 8006f7e:	4b05      	ldr	r3, [pc, #20]	; (8006f94 <std+0x40>)
 8006f80:	62e3      	str	r3, [r4, #44]	; 0x2c
 8006f82:	4b05      	ldr	r3, [pc, #20]	; (8006f98 <std+0x44>)
 8006f84:	6224      	str	r4, [r4, #32]
 8006f86:	6323      	str	r3, [r4, #48]	; 0x30
 8006f88:	bd10      	pop	{r4, pc}
 8006f8a:	bf00      	nop
 8006f8c:	080072a5 	.word	0x080072a5
 8006f90:	080072c7 	.word	0x080072c7
 8006f94:	080072ff 	.word	0x080072ff
 8006f98:	08007323 	.word	0x08007323

08006f9c <_cleanup_r>:
 8006f9c:	4901      	ldr	r1, [pc, #4]	; (8006fa4 <_cleanup_r+0x8>)
 8006f9e:	f000 b8af 	b.w	8007100 <_fwalk_reent>
 8006fa2:	bf00      	nop
 8006fa4:	08006edd 	.word	0x08006edd

08006fa8 <__sfmoreglue>:
 8006fa8:	b570      	push	{r4, r5, r6, lr}
 8006faa:	1e4a      	subs	r2, r1, #1
 8006fac:	2568      	movs	r5, #104	; 0x68
 8006fae:	4355      	muls	r5, r2
 8006fb0:	460e      	mov	r6, r1
 8006fb2:	f105 0174 	add.w	r1, r5, #116	; 0x74
 8006fb6:	f7ff fa87 	bl	80064c8 <_malloc_r>
 8006fba:	4604      	mov	r4, r0
 8006fbc:	b140      	cbz	r0, 8006fd0 <__sfmoreglue+0x28>
 8006fbe:	2100      	movs	r1, #0
 8006fc0:	e9c0 1600 	strd	r1, r6, [r0]
 8006fc4:	300c      	adds	r0, #12
 8006fc6:	60a0      	str	r0, [r4, #8]
 8006fc8:	f105 0268 	add.w	r2, r5, #104	; 0x68
 8006fcc:	f7fd fb78 	bl	80046c0 <memset>
 8006fd0:	4620      	mov	r0, r4
 8006fd2:	bd70      	pop	{r4, r5, r6, pc}

08006fd4 <__sfp_lock_acquire>:
 8006fd4:	4801      	ldr	r0, [pc, #4]	; (8006fdc <__sfp_lock_acquire+0x8>)
 8006fd6:	f000 b8b3 	b.w	8007140 <__retarget_lock_acquire_recursive>
 8006fda:	bf00      	nop
 8006fdc:	20013bdc 	.word	0x20013bdc

08006fe0 <__sfp_lock_release>:
 8006fe0:	4801      	ldr	r0, [pc, #4]	; (8006fe8 <__sfp_lock_release+0x8>)
 8006fe2:	f000 b8ae 	b.w	8007142 <__retarget_lock_release_recursive>
 8006fe6:	bf00      	nop
 8006fe8:	20013bdc 	.word	0x20013bdc

08006fec <__sinit_lock_acquire>:
 8006fec:	4801      	ldr	r0, [pc, #4]	; (8006ff4 <__sinit_lock_acquire+0x8>)
 8006fee:	f000 b8a7 	b.w	8007140 <__retarget_lock_acquire_recursive>
 8006ff2:	bf00      	nop
 8006ff4:	20013bd7 	.word	0x20013bd7

08006ff8 <__sinit_lock_release>:
 8006ff8:	4801      	ldr	r0, [pc, #4]	; (8007000 <__sinit_lock_release+0x8>)
 8006ffa:	f000 b8a2 	b.w	8007142 <__retarget_lock_release_recursive>
 8006ffe:	bf00      	nop
 8007000:	20013bd7 	.word	0x20013bd7

08007004 <__sinit>:
 8007004:	b510      	push	{r4, lr}
 8007006:	4604      	mov	r4, r0
 8007008:	f7ff fff0 	bl	8006fec <__sinit_lock_acquire>
 800700c:	69a3      	ldr	r3, [r4, #24]
 800700e:	b11b      	cbz	r3, 8007018 <__sinit+0x14>
 8007010:	e8bd 4010 	ldmia.w	sp!, {r4, lr}
 8007014:	f7ff bff0 	b.w	8006ff8 <__sinit_lock_release>
 8007018:	e9c4 3312 	strd	r3, r3, [r4, #72]	; 0x48
 800701c:	6523      	str	r3, [r4, #80]	; 0x50
 800701e:	4b13      	ldr	r3, [pc, #76]	; (800706c <__sinit+0x68>)
 8007020:	4a13      	ldr	r2, [pc, #76]	; (8007070 <__sinit+0x6c>)
 8007022:	681b      	ldr	r3, [r3, #0]
 8007024:	62a2      	str	r2, [r4, #40]	; 0x28
 8007026:	42a3      	cmp	r3, r4
 8007028:	bf04      	itt	eq
 800702a:	2301      	moveq	r3, #1
 800702c:	61a3      	streq	r3, [r4, #24]
 800702e:	4620      	mov	r0, r4
 8007030:	f000 f820 	bl	8007074 <__sfp>
 8007034:	6060      	str	r0, [r4, #4]
 8007036:	4620      	mov	r0, r4
 8007038:	f000 f81c 	bl	8007074 <__sfp>
 800703c:	60a0      	str	r0, [r4, #8]
 800703e:	4620      	mov	r0, r4
 8007040:	f000 f818 	bl	8007074 <__sfp>
 8007044:	2200      	movs	r2, #0
 8007046:	60e0      	str	r0, [r4, #12]
 8007048:	2104      	movs	r1, #4
 800704a:	6860      	ldr	r0, [r4, #4]
 800704c:	f7ff ff82 	bl	8006f54 <std>
 8007050:	68a0      	ldr	r0, [r4, #8]
 8007052:	2201      	movs	r2, #1
 8007054:	2109      	movs	r1, #9
 8007056:	f7ff ff7d 	bl	8006f54 <std>
 800705a:	68e0      	ldr	r0, [r4, #12]
 800705c:	2202      	movs	r2, #2
 800705e:	2112      	movs	r1, #18
 8007060:	f7ff ff78 	bl	8006f54 <std>
 8007064:	2301      	movs	r3, #1
 8007066:	61a3      	str	r3, [r4, #24]
 8007068:	e7d2      	b.n	8007010 <__sinit+0xc>
 800706a:	bf00      	nop
 800706c:	0800743c 	.word	0x0800743c
 8007070:	08006f9d 	.word	0x08006f9d

08007074 <__sfp>:
 8007074:	b5f8      	push	{r3, r4, r5, r6, r7, lr}
 8007076:	4607      	mov	r7, r0
 8007078:	f7ff ffac 	bl	8006fd4 <__sfp_lock_acquire>
 800707c:	4b1e      	ldr	r3, [pc, #120]	; (80070f8 <__sfp+0x84>)
 800707e:	681e      	ldr	r6, [r3, #0]
 8007080:	69b3      	ldr	r3, [r6, #24]
 8007082:	b913      	cbnz	r3, 800708a <__sfp+0x16>
 8007084:	4630      	mov	r0, r6
 8007086:	f7ff ffbd 	bl	8007004 <__sinit>
 800708a:	3648      	adds	r6, #72	; 0x48
 800708c:	e9d6 3401 	ldrd	r3, r4, [r6, #4]
 8007090:	3b01      	subs	r3, #1
 8007092:	d503      	bpl.n	800709c <__sfp+0x28>
 8007094:	6833      	ldr	r3, [r6, #0]
 8007096:	b30b      	cbz	r3, 80070dc <__sfp+0x68>
 8007098:	6836      	ldr	r6, [r6, #0]
 800709a:	e7f7      	b.n	800708c <__sfp+0x18>
 800709c:	f9b4 500c 	ldrsh.w	r5, [r4, #12]
 80070a0:	b9d5      	cbnz	r5, 80070d8 <__sfp+0x64>
 80070a2:	4b16      	ldr	r3, [pc, #88]	; (80070fc <__sfp+0x88>)
 80070a4:	60e3      	str	r3, [r4, #12]
 80070a6:	f104 0058 	add.w	r0, r4, #88	; 0x58
 80070aa:	6665      	str	r5, [r4, #100]	; 0x64
 80070ac:	f000 f847 	bl	800713e <__retarget_lock_init_recursive>
 80070b0:	f7ff ff96 	bl	8006fe0 <__sfp_lock_release>
 80070b4:	e9c4 5501 	strd	r5, r5, [r4, #4]
 80070b8:	e9c4 5504 	strd	r5, r5, [r4, #16]
 80070bc:	6025      	str	r5, [r4, #0]
 80070be:	61a5      	str	r5, [r4, #24]
 80070c0:	2208      	movs	r2, #8
 80070c2:	4629      	mov	r1, r5
 80070c4:	f104 005c 	add.w	r0, r4, #92	; 0x5c
 80070c8:	f7fd fafa 	bl	80046c0 <memset>
 80070cc:	e9c4 550d 	strd	r5, r5, [r4, #52]	; 0x34
 80070d0:	e9c4 5512 	strd	r5, r5, [r4, #72]	; 0x48
 80070d4:	4620      	mov	r0, r4
 80070d6:	bdf8      	pop	{r3, r4, r5, r6, r7, pc}
 80070d8:	3468      	adds	r4, #104	; 0x68
 80070da:	e7d9      	b.n	8007090 <__sfp+0x1c>
 80070dc:	2104      	movs	r1, #4
 80070de:	4638      	mov	r0, r7
 80070e0:	f7ff ff62 	bl	8006fa8 <__sfmoreglue>
 80070e4:	4604      	mov	r4, r0
 80070e6:	6030      	str	r0, [r6, #0]
 80070e8:	2800      	cmp	r0, #0
 80070ea:	d1d5      	bne.n	8007098 <__sfp+0x24>
 80070ec:	f7ff ff78 	bl	8006fe0 <__sfp_lock_release>
 80070f0:	230c      	movs	r3, #12
 80070f2:	603b      	str	r3, [r7, #0]
 80070f4:	e7ee      	b.n	80070d4 <__sfp+0x60>
 80070f6:	bf00      	nop
 80070f8:	0800743c 	.word	0x0800743c
 80070fc:	ffff0001 	.word	0xffff0001

08007100 <_fwalk_reent>:
 8007100:	e92d 43f8 	stmdb	sp!, {r3, r4, r5, r6, r7, r8, r9, lr}
 8007104:	4606      	mov	r6, r0
 8007106:	4688      	mov	r8, r1
 8007108:	f100 0448 	add.w	r4, r0, #72	; 0x48
 800710c:	2700      	movs	r7, #0
 800710e:	e9d4 9501 	ldrd	r9, r5, [r4, #4]
 8007112:	f1b9 0901 	subs.w	r9, r9, #1
 8007116:	d505      	bpl.n	8007124 <_fwalk_reent+0x24>
 8007118:	6824      	ldr	r4, [r4, #0]
 800711a:	2c00      	cmp	r4, #0
 800711c:	d1f7      	bne.n	800710e <_fwalk_reent+0xe>
 800711e:	4638      	mov	r0, r7
 8007120:	e8bd 83f8 	ldmia.w	sp!, {r3, r4, r5, r6, r7, r8, r9, pc}
 8007124:	89ab      	ldrh	r3, [r5, #12]
 8007126:	2b01      	cmp	r3, #1
 8007128:	d907      	bls.n	800713a <_fwalk_reent+0x3a>
 800712a:	f9b5 300e 	ldrsh.w	r3, [r5, #14]
 800712e:	3301      	adds	r3, #1
 8007130:	d003      	beq.n	800713a <_fwalk_reent+0x3a>
 8007132:	4629      	mov	r1, r5
 8007134:	4630      	mov	r0, r6
 8007136:	47c0      	blx	r8
 8007138:	4307      	orrs	r7, r0
 800713a:	3568      	adds	r5, #104	; 0x68
 800713c:	e7e9      	b.n	8007112 <_fwalk_reent+0x12>

0800713e <__retarget_lock_init_recursive>:
 800713e:	4770      	bx	lr

08007140 <__retarget_lock_acquire_recursive>:
 8007140:	4770      	bx	lr

08007142 <__retarget_lock_release_recursive>:
 8007142:	4770      	bx	lr

08007144 <__swhatbuf_r>:
 8007144:	b570      	push	{r4, r5, r6, lr}
 8007146:	460e      	mov	r6, r1
 8007148:	f9b1 100e 	ldrsh.w	r1, [r1, #14]
 800714c:	2900      	cmp	r1, #0
 800714e:	b096      	sub	sp, #88	; 0x58
 8007150:	4614      	mov	r4, r2
 8007152:	461d      	mov	r5, r3
 8007154:	da07      	bge.n	8007166 <__swhatbuf_r+0x22>
 8007156:	2300      	movs	r3, #0
 8007158:	602b      	str	r3, [r5, #0]
 800715a:	89b3      	ldrh	r3, [r6, #12]
 800715c:	061a      	lsls	r2, r3, #24
 800715e:	d410      	bmi.n	8007182 <__swhatbuf_r+0x3e>
 8007160:	f44f 6380 	mov.w	r3, #1024	; 0x400
 8007164:	e00e      	b.n	8007184 <__swhatbuf_r+0x40>
 8007166:	466a      	mov	r2, sp
 8007168:	f000 f902 	bl	8007370 <_fstat_r>
 800716c:	2800      	cmp	r0, #0
 800716e:	dbf2      	blt.n	8007156 <__swhatbuf_r+0x12>
 8007170:	9a01      	ldr	r2, [sp, #4]
 8007172:	f402 4270 	and.w	r2, r2, #61440	; 0xf000
 8007176:	f5a2 5300 	sub.w	r3, r2, #8192	; 0x2000
 800717a:	425a      	negs	r2, r3
 800717c:	415a      	adcs	r2, r3
 800717e:	602a      	str	r2, [r5, #0]
 8007180:	e7ee      	b.n	8007160 <__swhatbuf_r+0x1c>
 8007182:	2340      	movs	r3, #64	; 0x40
 8007184:	2000      	movs	r0, #0
 8007186:	6023      	str	r3, [r4, #0]
 8007188:	b016      	add	sp, #88	; 0x58
 800718a:	bd70      	pop	{r4, r5, r6, pc}

0800718c <__smakebuf_r>:
 800718c:	898b      	ldrh	r3, [r1, #12]
 800718e:	b573      	push	{r0, r1, r4, r5, r6, lr}
 8007190:	079d      	lsls	r5, r3, #30
 8007192:	4606      	mov	r6, r0
 8007194:	460c      	mov	r4, r1
 8007196:	d507      	bpl.n	80071a8 <__smakebuf_r+0x1c>
 8007198:	f104 0347 	add.w	r3, r4, #71	; 0x47
 800719c:	6023      	str	r3, [r4, #0]
 800719e:	6123      	str	r3, [r4, #16]
 80071a0:	2301      	movs	r3, #1
 80071a2:	6163      	str	r3, [r4, #20]
 80071a4:	b002      	add	sp, #8
 80071a6:	bd70      	pop	{r4, r5, r6, pc}
 80071a8:	ab01      	add	r3, sp, #4
 80071aa:	466a      	mov	r2, sp
 80071ac:	f7ff ffca 	bl	8007144 <__swhatbuf_r>
 80071b0:	9900      	ldr	r1, [sp, #0]
 80071b2:	4605      	mov	r5, r0
 80071b4:	4630      	mov	r0, r6
 80071b6:	f7ff f987 	bl	80064c8 <_malloc_r>
 80071ba:	b948      	cbnz	r0, 80071d0 <__smakebuf_r+0x44>
 80071bc:	f9b4 300c 	ldrsh.w	r3, [r4, #12]
 80071c0:	059a      	lsls	r2, r3, #22
 80071c2:	d4ef      	bmi.n	80071a4 <__smakebuf_r+0x18>
 80071c4:	f023 0303 	bic.w	r3, r3, #3
 80071c8:	f043 0302 	orr.w	r3, r3, #2
 80071cc:	81a3      	strh	r3, [r4, #12]
 80071ce:	e7e3      	b.n	8007198 <__smakebuf_r+0xc>
 80071d0:	4b0d      	ldr	r3, [pc, #52]	; (8007208 <__smakebuf_r+0x7c>)
 80071d2:	62b3      	str	r3, [r6, #40]	; 0x28
 80071d4:	89a3      	ldrh	r3, [r4, #12]
 80071d6:	6020      	str	r0, [r4, #0]
 80071d8:	f043 0380 	orr.w	r3, r3, #128	; 0x80
 80071dc:	81a3      	strh	r3, [r4, #12]
 80071de:	9b00      	ldr	r3, [sp, #0]
 80071e0:	6163      	str	r3, [r4, #20]
 80071e2:	9b01      	ldr	r3, [sp, #4]
 80071e4:	6120      	str	r0, [r4, #16]
 80071e6:	b15b      	cbz	r3, 8007200 <__smakebuf_r+0x74>
 80071e8:	f9b4 100e 	ldrsh.w	r1, [r4, #14]
 80071ec:	4630      	mov	r0, r6
 80071ee:	f000 f8d1 	bl	8007394 <_isatty_r>
 80071f2:	b128      	cbz	r0, 8007200 <__smakebuf_r+0x74>
 80071f4:	89a3      	ldrh	r3, [r4, #12]
 80071f6:	f023 0303 	bic.w	r3, r3, #3
 80071fa:	f043 0301 	orr.w	r3, r3, #1
 80071fe:	81a3      	strh	r3, [r4, #12]
 8007200:	89a0      	ldrh	r0, [r4, #12]
 8007202:	4305      	orrs	r5, r0
 8007204:	81a5      	strh	r5, [r4, #12]
 8007206:	e7cd      	b.n	80071a4 <__smakebuf_r+0x18>
 8007208:	08006f9d 	.word	0x08006f9d

0800720c <_malloc_usable_size_r>:
 800720c:	f851 3c04 	ldr.w	r3, [r1, #-4]
 8007210:	1f18      	subs	r0, r3, #4
 8007212:	2b00      	cmp	r3, #0
 8007214:	bfbc      	itt	lt
 8007216:	580b      	ldrlt	r3, [r1, r0]
 8007218:	18c0      	addlt	r0, r0, r3
 800721a:	4770      	bx	lr

0800721c <_raise_r>:
 800721c:	291f      	cmp	r1, #31
 800721e:	b538      	push	{r3, r4, r5, lr}
 8007220:	4604      	mov	r4, r0
 8007222:	460d      	mov	r5, r1
 8007224:	d904      	bls.n	8007230 <_raise_r+0x14>
 8007226:	2316      	movs	r3, #22
 8007228:	6003      	str	r3, [r0, #0]
 800722a:	f04f 30ff 	mov.w	r0, #4294967295
 800722e:	bd38      	pop	{r3, r4, r5, pc}
 8007230:	6c42      	ldr	r2, [r0, #68]	; 0x44
 8007232:	b112      	cbz	r2, 800723a <_raise_r+0x1e>
 8007234:	f852 3021 	ldr.w	r3, [r2, r1, lsl #2]
 8007238:	b94b      	cbnz	r3, 800724e <_raise_r+0x32>
 800723a:	4620      	mov	r0, r4
 800723c:	f000 f830 	bl	80072a0 <_getpid_r>
 8007240:	462a      	mov	r2, r5
 8007242:	4601      	mov	r1, r0
 8007244:	4620      	mov	r0, r4
 8007246:	e8bd 4038 	ldmia.w	sp!, {r3, r4, r5, lr}
 800724a:	f000 b817 	b.w	800727c <_kill_r>
 800724e:	2b01      	cmp	r3, #1
 8007250:	d00a      	beq.n	8007268 <_raise_r+0x4c>
 8007252:	1c59      	adds	r1, r3, #1
 8007254:	d103      	bne.n	800725e <_raise_r+0x42>
 8007256:	2316      	movs	r3, #22
 8007258:	6003      	str	r3, [r0, #0]
 800725a:	2001      	movs	r0, #1
 800725c:	e7e7      	b.n	800722e <_raise_r+0x12>
 800725e:	2400      	movs	r4, #0
 8007260:	f842 4025 	str.w	r4, [r2, r5, lsl #2]
 8007264:	4628      	mov	r0, r5
 8007266:	4798      	blx	r3
 8007268:	2000      	movs	r0, #0
 800726a:	e7e0      	b.n	800722e <_raise_r+0x12>

0800726c <raise>:
 800726c:	4b02      	ldr	r3, [pc, #8]	; (8007278 <raise+0xc>)
 800726e:	4601      	mov	r1, r0
 8007270:	6818      	ldr	r0, [r3, #0]
 8007272:	f7ff bfd3 	b.w	800721c <_raise_r>
 8007276:	bf00      	nop
 8007278:	20000014 	.word	0x20000014

0800727c <_kill_r>:
 800727c:	b538      	push	{r3, r4, r5, lr}
 800727e:	4d07      	ldr	r5, [pc, #28]	; (800729c <_kill_r+0x20>)
 8007280:	2300      	movs	r3, #0
 8007282:	4604      	mov	r4, r0
 8007284:	4608      	mov	r0, r1
 8007286:	4611      	mov	r1, r2
 8007288:	602b      	str	r3, [r5, #0]
 800728a:	f7fa fb57 	bl	800193c <_kill>
 800728e:	1c43      	adds	r3, r0, #1
 8007290:	d102      	bne.n	8007298 <_kill_r+0x1c>
 8007292:	682b      	ldr	r3, [r5, #0]
 8007294:	b103      	cbz	r3, 8007298 <_kill_r+0x1c>
 8007296:	6023      	str	r3, [r4, #0]
 8007298:	bd38      	pop	{r3, r4, r5, pc}
 800729a:	bf00      	nop
 800729c:	20013bd0 	.word	0x20013bd0

080072a0 <_getpid_r>:
 80072a0:	f7fa bb44 	b.w	800192c <_getpid>

080072a4 <__sread>:
 80072a4:	b510      	push	{r4, lr}
 80072a6:	460c      	mov	r4, r1
 80072a8:	f9b1 100e 	ldrsh.w	r1, [r1, #14]
 80072ac:	f000 f894 	bl	80073d8 <_read_r>
 80072b0:	2800      	cmp	r0, #0
 80072b2:	bfab      	itete	ge
 80072b4:	6d63      	ldrge	r3, [r4, #84]	; 0x54
 80072b6:	89a3      	ldrhlt	r3, [r4, #12]
 80072b8:	181b      	addge	r3, r3, r0
 80072ba:	f423 5380 	biclt.w	r3, r3, #4096	; 0x1000
 80072be:	bfac      	ite	ge
 80072c0:	6563      	strge	r3, [r4, #84]	; 0x54
 80072c2:	81a3      	strhlt	r3, [r4, #12]
 80072c4:	bd10      	pop	{r4, pc}

080072c6 <__swrite>:
 80072c6:	e92d 41f0 	stmdb	sp!, {r4, r5, r6, r7, r8, lr}
 80072ca:	461f      	mov	r7, r3
 80072cc:	898b      	ldrh	r3, [r1, #12]
 80072ce:	05db      	lsls	r3, r3, #23
 80072d0:	4605      	mov	r5, r0
 80072d2:	460c      	mov	r4, r1
 80072d4:	4616      	mov	r6, r2
 80072d6:	d505      	bpl.n	80072e4 <__swrite+0x1e>
 80072d8:	f9b1 100e 	ldrsh.w	r1, [r1, #14]
 80072dc:	2302      	movs	r3, #2
 80072de:	2200      	movs	r2, #0
 80072e0:	f000 f868 	bl	80073b4 <_lseek_r>
 80072e4:	89a3      	ldrh	r3, [r4, #12]
 80072e6:	f9b4 100e 	ldrsh.w	r1, [r4, #14]
 80072ea:	f423 5380 	bic.w	r3, r3, #4096	; 0x1000
 80072ee:	81a3      	strh	r3, [r4, #12]
 80072f0:	4632      	mov	r2, r6
 80072f2:	463b      	mov	r3, r7
 80072f4:	4628      	mov	r0, r5
 80072f6:	e8bd 41f0 	ldmia.w	sp!, {r4, r5, r6, r7, r8, lr}
 80072fa:	f000 b817 	b.w	800732c <_write_r>

080072fe <__sseek>:
 80072fe:	b510      	push	{r4, lr}
 8007300:	460c      	mov	r4, r1
 8007302:	f9b1 100e 	ldrsh.w	r1, [r1, #14]
 8007306:	f000 f855 	bl	80073b4 <_lseek_r>
 800730a:	1c43      	adds	r3, r0, #1
 800730c:	89a3      	ldrh	r3, [r4, #12]
 800730e:	bf15      	itete	ne
 8007310:	6560      	strne	r0, [r4, #84]	; 0x54
 8007312:	f423 5380 	biceq.w	r3, r3, #4096	; 0x1000
 8007316:	f443 5380 	orrne.w	r3, r3, #4096	; 0x1000
 800731a:	81a3      	strheq	r3, [r4, #12]
 800731c:	bf18      	it	ne
 800731e:	81a3      	strhne	r3, [r4, #12]
 8007320:	bd10      	pop	{r4, pc}

08007322 <__sclose>:
 8007322:	f9b1 100e 	ldrsh.w	r1, [r1, #14]
 8007326:	f000 b813 	b.w	8007350 <_close_r>
	...

0800732c <_write_r>:
 800732c:	b538      	push	{r3, r4, r5, lr}
 800732e:	4d07      	ldr	r5, [pc, #28]	; (800734c <_write_r+0x20>)
 8007330:	4604      	mov	r4, r0
 8007332:	4608      	mov	r0, r1
 8007334:	4611      	mov	r1, r2
 8007336:	2200      	movs	r2, #0
 8007338:	602a      	str	r2, [r5, #0]
 800733a:	461a      	mov	r2, r3
 800733c:	f7fa fb35 	bl	80019aa <_write>
 8007340:	1c43      	adds	r3, r0, #1
 8007342:	d102      	bne.n	800734a <_write_r+0x1e>
 8007344:	682b      	ldr	r3, [r5, #0]
 8007346:	b103      	cbz	r3, 800734a <_write_r+0x1e>
 8007348:	6023      	str	r3, [r4, #0]
 800734a:	bd38      	pop	{r3, r4, r5, pc}
 800734c:	20013bd0 	.word	0x20013bd0

08007350 <_close_r>:
 8007350:	b538      	push	{r3, r4, r5, lr}
 8007352:	4d06      	ldr	r5, [pc, #24]	; (800736c <_close_r+0x1c>)
 8007354:	2300      	movs	r3, #0
 8007356:	4604      	mov	r4, r0
 8007358:	4608      	mov	r0, r1
 800735a:	602b      	str	r3, [r5, #0]
 800735c:	f7fa fb41 	bl	80019e2 <_close>
 8007360:	1c43      	adds	r3, r0, #1
 8007362:	d102      	bne.n	800736a <_close_r+0x1a>
 8007364:	682b      	ldr	r3, [r5, #0]
 8007366:	b103      	cbz	r3, 800736a <_close_r+0x1a>
 8007368:	6023      	str	r3, [r4, #0]
 800736a:	bd38      	pop	{r3, r4, r5, pc}
 800736c:	20013bd0 	.word	0x20013bd0

08007370 <_fstat_r>:
 8007370:	b538      	push	{r3, r4, r5, lr}
 8007372:	4d07      	ldr	r5, [pc, #28]	; (8007390 <_fstat_r+0x20>)
 8007374:	2300      	movs	r3, #0
 8007376:	4604      	mov	r4, r0
 8007378:	4608      	mov	r0, r1
 800737a:	4611      	mov	r1, r2
 800737c:	602b      	str	r3, [r5, #0]
 800737e:	f7fa fb3c 	bl	80019fa <_fstat>
 8007382:	1c43      	adds	r3, r0, #1
 8007384:	d102      	bne.n	800738c <_fstat_r+0x1c>
 8007386:	682b      	ldr	r3, [r5, #0]
 8007388:	b103      	cbz	r3, 800738c <_fstat_r+0x1c>
 800738a:	6023      	str	r3, [r4, #0]
 800738c:	bd38      	pop	{r3, r4, r5, pc}
 800738e:	bf00      	nop
 8007390:	20013bd0 	.word	0x20013bd0

08007394 <_isatty_r>:
 8007394:	b538      	push	{r3, r4, r5, lr}
 8007396:	4d06      	ldr	r5, [pc, #24]	; (80073b0 <_isatty_r+0x1c>)
 8007398:	2300      	movs	r3, #0
 800739a:	4604      	mov	r4, r0
 800739c:	4608      	mov	r0, r1
 800739e:	602b      	str	r3, [r5, #0]
 80073a0:	f7fa fb3b 	bl	8001a1a <_isatty>
 80073a4:	1c43      	adds	r3, r0, #1
 80073a6:	d102      	bne.n	80073ae <_isatty_r+0x1a>
 80073a8:	682b      	ldr	r3, [r5, #0]
 80073aa:	b103      	cbz	r3, 80073ae <_isatty_r+0x1a>
 80073ac:	6023      	str	r3, [r4, #0]
 80073ae:	bd38      	pop	{r3, r4, r5, pc}
 80073b0:	20013bd0 	.word	0x20013bd0

080073b4 <_lseek_r>:
 80073b4:	b538      	push	{r3, r4, r5, lr}
 80073b6:	4d07      	ldr	r5, [pc, #28]	; (80073d4 <_lseek_r+0x20>)
 80073b8:	4604      	mov	r4, r0
 80073ba:	4608      	mov	r0, r1
 80073bc:	4611      	mov	r1, r2
 80073be:	2200      	movs	r2, #0
 80073c0:	602a      	str	r2, [r5, #0]
 80073c2:	461a      	mov	r2, r3
 80073c4:	f7fa fb34 	bl	8001a30 <_lseek>
 80073c8:	1c43      	adds	r3, r0, #1
 80073ca:	d102      	bne.n	80073d2 <_lseek_r+0x1e>
 80073cc:	682b      	ldr	r3, [r5, #0]
 80073ce:	b103      	cbz	r3, 80073d2 <_lseek_r+0x1e>
 80073d0:	6023      	str	r3, [r4, #0]
 80073d2:	bd38      	pop	{r3, r4, r5, pc}
 80073d4:	20013bd0 	.word	0x20013bd0

080073d8 <_read_r>:
 80073d8:	b538      	push	{r3, r4, r5, lr}
 80073da:	4d07      	ldr	r5, [pc, #28]	; (80073f8 <_read_r+0x20>)
 80073dc:	4604      	mov	r4, r0
 80073de:	4608      	mov	r0, r1
 80073e0:	4611      	mov	r1, r2
 80073e2:	2200      	movs	r2, #0
 80073e4:	602a      	str	r2, [r5, #0]
 80073e6:	461a      	mov	r2, r3
 80073e8:	f7fa fac2 	bl	8001970 <_read>
 80073ec:	1c43      	adds	r3, r0, #1
 80073ee:	d102      	bne.n	80073f6 <_read_r+0x1e>
 80073f0:	682b      	ldr	r3, [r5, #0]
 80073f2:	b103      	cbz	r3, 80073f6 <_read_r+0x1e>
 80073f4:	6023      	str	r3, [r4, #0]
 80073f6:	bd38      	pop	{r3, r4, r5, pc}
 80073f8:	20013bd0 	.word	0x20013bd0

080073fc <_init>:
 80073fc:	b5f8      	push	{r3, r4, r5, r6, r7, lr}
 80073fe:	bf00      	nop
 8007400:	bcf8      	pop	{r3, r4, r5, r6, r7}
 8007402:	bc08      	pop	{r3}
 8007404:	469e      	mov	lr, r3
 8007406:	4770      	bx	lr

08007408 <_fini>:
 8007408:	b5f8      	push	{r3, r4, r5, r6, r7, lr}
 800740a:	bf00      	nop
 800740c:	bcf8      	pop	{r3, r4, r5, r6, r7}
 800740e:	bc08      	pop	{r3}
 8007410:	469e      	mov	lr, r3
 8007412:	4770      	bx	lr
