
Laser_ADC_F446.elf:     file format elf32-littlearm

Sections:
Idx Name          Size      VMA       LMA       File off  Algn
  0 .isr_vector   000001c4  08000000  08000000  00010000  2**0
                  CONTENTS, ALLOC, LOAD, READONLY, DATA
  1 .text         00006138  080001d0  080001d0  000101d0  2**4
                  CONTENTS, ALLOC, LOAD, READONLY, CODE
  2 .rodata       00000280  08006308  08006308  00016308  2**3
                  CONTENTS, ALLOC, LOAD, READONLY, DATA
  3 .ARM.extab    00000000  08006588  08006588  000201dc  2**0
                  CONTENTS
  4 .ARM          00000008  08006588  08006588  00016588  2**2
                  CONTENTS, ALLOC, LOAD, READONLY, DATA
  5 .preinit_array 00000000  08006590  08006590  000201dc  2**0
                  CONTENTS, ALLOC, LOAD, DATA
  6 .init_array   00000004  08006590  08006590  00016590  2**2
                  CONTENTS, ALLOC, LOAD, DATA
  7 .fini_array   00000004  08006594  08006594  00016594  2**2
                  CONTENTS, ALLOC, LOAD, DATA
  8 .data         000001dc  20000000  08006598  00020000  2**2
                  CONTENTS, ALLOC, LOAD, DATA
  9 .bss          0000c8f4  200001dc  08006774  000201dc  2**2
                  ALLOC
 10 ._user_heap_stack 00000600  2000cad0  08006774  0002cad0  2**0
                  ALLOC
 11 .ARM.attributes 00000030  00000000  00000000  000201dc  2**0
                  CONTENTS, READONLY
 12 .debug_info   00009d66  00000000  00000000  0002020c  2**0
                  CONTENTS, READONLY, DEBUGGING
 13 .debug_abbrev 00001b2a  00000000  00000000  00029f72  2**0
                  CONTENTS, READONLY, DEBUGGING
 14 .debug_aranges 00000878  00000000  00000000  0002baa0  2**3
                  CONTENTS, READONLY, DEBUGGING
 15 .debug_ranges 00000790  00000000  00000000  0002c318  2**3
                  CONTENTS, READONLY, DEBUGGING
 16 .debug_macro  00021c3f  00000000  00000000  0002caa8  2**0
                  CONTENTS, READONLY, DEBUGGING
 17 .debug_line   00008855  00000000  00000000  0004e6e7  2**0
                  CONTENTS, READONLY, DEBUGGING
 18 .debug_str    000ccf46  00000000  00000000  00056f3c  2**0
                  CONTENTS, READONLY, DEBUGGING
 19 .comment      0000007b  00000000  00000000  00123e82  2**0
                  CONTENTS, READONLY
 20 .debug_frame  00002b70  00000000  00000000  00123f00  2**2
                  CONTENTS, READONLY, DEBUGGING

Disassembly of section .text:

080001d0 <__do_global_dtors_aux>:
 80001d0:	b510      	push	{r4, lr}
 80001d2:	4c05      	ldr	r4, [pc, #20]	; (80001e8 <__do_global_dtors_aux+0x18>)
 80001d4:	7823      	ldrb	r3, [r4, #0]
 80001d6:	b933      	cbnz	r3, 80001e6 <__do_global_dtors_aux+0x16>
 80001d8:	4b04      	ldr	r3, [pc, #16]	; (80001ec <__do_global_dtors_aux+0x1c>)
 80001da:	b113      	cbz	r3, 80001e2 <__do_global_dtors_aux+0x12>
 80001dc:	4804      	ldr	r0, [pc, #16]	; (80001f0 <__do_global_dtors_aux+0x20>)
 80001de:	f3af 8000 	nop.w
 80001e2:	2301      	movs	r3, #1
 80001e4:	7023      	strb	r3, [r4, #0]
 80001e6:	bd10      	pop	{r4, pc}
 80001e8:	200001dc 	.word	0x200001dc
 80001ec:	00000000 	.word	0x00000000
 80001f0:	080062f0 	.word	0x080062f0

080001f4 <frame_dummy>:
 80001f4:	b508      	push	{r3, lr}
 80001f6:	4b03      	ldr	r3, [pc, #12]	; (8000204 <frame_dummy+0x10>)
 80001f8:	b11b      	cbz	r3, 8000202 <frame_dummy+0xe>
 80001fa:	4903      	ldr	r1, [pc, #12]	; (8000208 <frame_dummy+0x14>)
 80001fc:	4803      	ldr	r0, [pc, #12]	; (800020c <frame_dummy+0x18>)
 80001fe:	f3af 8000 	nop.w
 8000202:	bd08      	pop	{r3, pc}
 8000204:	00000000 	.word	0x00000000
 8000208:	200001e0 	.word	0x200001e0
 800020c:	080062f0 	.word	0x080062f0

08000210 <strlen>:
 8000210:	4603      	mov	r3, r0
 8000212:	f813 2b01 	ldrb.w	r2, [r3], #1
 8000216:	2a00      	cmp	r2, #0
 8000218:	d1fb      	bne.n	8000212 <strlen+0x2>
 800021a:	1a18      	subs	r0, r3, r0
 800021c:	3801      	subs	r0, #1
 800021e:	4770      	bx	lr

08000220 <memchr>:
 8000220:	f001 01ff 	and.w	r1, r1, #255	; 0xff
 8000224:	2a10      	cmp	r2, #16
 8000226:	db2b      	blt.n	8000280 <memchr+0x60>
 8000228:	f010 0f07 	tst.w	r0, #7
 800022c:	d008      	beq.n	8000240 <memchr+0x20>
 800022e:	f810 3b01 	ldrb.w	r3, [r0], #1
 8000232:	3a01      	subs	r2, #1
 8000234:	428b      	cmp	r3, r1
 8000236:	d02d      	beq.n	8000294 <memchr+0x74>
 8000238:	f010 0f07 	tst.w	r0, #7
 800023c:	b342      	cbz	r2, 8000290 <memchr+0x70>
 800023e:	d1f6      	bne.n	800022e <memchr+0xe>
 8000240:	b4f0      	push	{r4, r5, r6, r7}
 8000242:	ea41 2101 	orr.w	r1, r1, r1, lsl #8
 8000246:	ea41 4101 	orr.w	r1, r1, r1, lsl #16
 800024a:	f022 0407 	bic.w	r4, r2, #7
 800024e:	f07f 0700 	mvns.w	r7, #0
 8000252:	2300      	movs	r3, #0
 8000254:	e8f0 5602 	ldrd	r5, r6, [r0], #8
 8000258:	3c08      	subs	r4, #8
 800025a:	ea85 0501 	eor.w	r5, r5, r1
 800025e:	ea86 0601 	eor.w	r6, r6, r1
 8000262:	fa85 f547 	uadd8	r5, r5, r7
 8000266:	faa3 f587 	sel	r5, r3, r7
 800026a:	fa86 f647 	uadd8	r6, r6, r7
 800026e:	faa5 f687 	sel	r6, r5, r7
 8000272:	b98e      	cbnz	r6, 8000298 <memchr+0x78>
 8000274:	d1ee      	bne.n	8000254 <memchr+0x34>
 8000276:	bcf0      	pop	{r4, r5, r6, r7}
 8000278:	f001 01ff 	and.w	r1, r1, #255	; 0xff
 800027c:	f002 0207 	and.w	r2, r2, #7
 8000280:	b132      	cbz	r2, 8000290 <memchr+0x70>
 8000282:	f810 3b01 	ldrb.w	r3, [r0], #1
 8000286:	3a01      	subs	r2, #1
 8000288:	ea83 0301 	eor.w	r3, r3, r1
 800028c:	b113      	cbz	r3, 8000294 <memchr+0x74>
 800028e:	d1f8      	bne.n	8000282 <memchr+0x62>
 8000290:	2000      	movs	r0, #0
 8000292:	4770      	bx	lr
 8000294:	3801      	subs	r0, #1
 8000296:	4770      	bx	lr
 8000298:	2d00      	cmp	r5, #0
 800029a:	bf06      	itte	eq
 800029c:	4635      	moveq	r5, r6
 800029e:	3803      	subeq	r0, #3
 80002a0:	3807      	subne	r0, #7
 80002a2:	f015 0f01 	tst.w	r5, #1
 80002a6:	d107      	bne.n	80002b8 <memchr+0x98>
 80002a8:	3001      	adds	r0, #1
 80002aa:	f415 7f80 	tst.w	r5, #256	; 0x100
 80002ae:	bf02      	ittt	eq
 80002b0:	3001      	addeq	r0, #1
 80002b2:	f415 3fc0 	tsteq.w	r5, #98304	; 0x18000
 80002b6:	3001      	addeq	r0, #1
 80002b8:	bcf0      	pop	{r4, r5, r6, r7}
 80002ba:	3801      	subs	r0, #1
 80002bc:	4770      	bx	lr
 80002be:	bf00      	nop

080002c0 <__aeabi_drsub>:
 80002c0:	f081 4100 	eor.w	r1, r1, #2147483648	; 0x80000000
 80002c4:	e002      	b.n	80002cc <__adddf3>
 80002c6:	bf00      	nop

080002c8 <__aeabi_dsub>:
 80002c8:	f083 4300 	eor.w	r3, r3, #2147483648	; 0x80000000

080002cc <__adddf3>:
 80002cc:	b530      	push	{r4, r5, lr}
 80002ce:	ea4f 0441 	mov.w	r4, r1, lsl #1
 80002d2:	ea4f 0543 	mov.w	r5, r3, lsl #1
 80002d6:	ea94 0f05 	teq	r4, r5
 80002da:	bf08      	it	eq
 80002dc:	ea90 0f02 	teqeq	r0, r2
 80002e0:	bf1f      	itttt	ne
 80002e2:	ea54 0c00 	orrsne.w	ip, r4, r0
 80002e6:	ea55 0c02 	orrsne.w	ip, r5, r2
 80002ea:	ea7f 5c64 	mvnsne.w	ip, r4, asr #21
 80002ee:	ea7f 5c65 	mvnsne.w	ip, r5, asr #21
 80002f2:	f000 80e2 	beq.w	80004ba <__adddf3+0x1ee>
 80002f6:	ea4f 5454 	mov.w	r4, r4, lsr #21
 80002fa:	ebd4 5555 	rsbs	r5, r4, r5, lsr #21
 80002fe:	bfb8      	it	lt
 8000300:	426d      	neglt	r5, r5
 8000302:	dd0c      	ble.n	800031e <__adddf3+0x52>
 8000304:	442c      	add	r4, r5
 8000306:	ea80 0202 	eor.w	r2, r0, r2
 800030a:	ea81 0303 	eor.w	r3, r1, r3
 800030e:	ea82 0000 	eor.w	r0, r2, r0
 8000312:	ea83 0101 	eor.w	r1, r3, r1
 8000316:	ea80 0202 	eor.w	r2, r0, r2
 800031a:	ea81 0303 	eor.w	r3, r1, r3
 800031e:	2d36      	cmp	r5, #54	; 0x36
 8000320:	bf88      	it	hi
 8000322:	bd30      	pophi	{r4, r5, pc}
 8000324:	f011 4f00 	tst.w	r1, #2147483648	; 0x80000000
 8000328:	ea4f 3101 	mov.w	r1, r1, lsl #12
 800032c:	f44f 1c80 	mov.w	ip, #1048576	; 0x100000
 8000330:	ea4c 3111 	orr.w	r1, ip, r1, lsr #12
 8000334:	d002      	beq.n	800033c <__adddf3+0x70>
 8000336:	4240      	negs	r0, r0
 8000338:	eb61 0141 	sbc.w	r1, r1, r1, lsl #1
 800033c:	f013 4f00 	tst.w	r3, #2147483648	; 0x80000000
 8000340:	ea4f 3303 	mov.w	r3, r3, lsl #12
 8000344:	ea4c 3313 	orr.w	r3, ip, r3, lsr #12
 8000348:	d002      	beq.n	8000350 <__adddf3+0x84>
 800034a:	4252      	negs	r2, r2
 800034c:	eb63 0343 	sbc.w	r3, r3, r3, lsl #1
 8000350:	ea94 0f05 	teq	r4, r5
 8000354:	f000 80a7 	beq.w	80004a6 <__adddf3+0x1da>
 8000358:	f1a4 0401 	sub.w	r4, r4, #1
 800035c:	f1d5 0e20 	rsbs	lr, r5, #32
 8000360:	db0d      	blt.n	800037e <__adddf3+0xb2>
 8000362:	fa02 fc0e 	lsl.w	ip, r2, lr
 8000366:	fa22 f205 	lsr.w	r2, r2, r5
 800036a:	1880      	adds	r0, r0, r2
 800036c:	f141 0100 	adc.w	r1, r1, #0
 8000370:	fa03 f20e 	lsl.w	r2, r3, lr
 8000374:	1880      	adds	r0, r0, r2
 8000376:	fa43 f305 	asr.w	r3, r3, r5
 800037a:	4159      	adcs	r1, r3
 800037c:	e00e      	b.n	800039c <__adddf3+0xd0>
 800037e:	f1a5 0520 	sub.w	r5, r5, #32
 8000382:	f10e 0e20 	add.w	lr, lr, #32
 8000386:	2a01      	cmp	r2, #1
 8000388:	fa03 fc0e 	lsl.w	ip, r3, lr
 800038c:	bf28      	it	cs
 800038e:	f04c 0c02 	orrcs.w	ip, ip, #2
 8000392:	fa43 f305 	asr.w	r3, r3, r5
 8000396:	18c0      	adds	r0, r0, r3
 8000398:	eb51 71e3 	adcs.w	r1, r1, r3, asr #31
 800039c:	f001 4500 	and.w	r5, r1, #2147483648	; 0x80000000
 80003a0:	d507      	bpl.n	80003b2 <__adddf3+0xe6>
 80003a2:	f04f 0e00 	mov.w	lr, #0
 80003a6:	f1dc 0c00 	rsbs	ip, ip, #0
 80003aa:	eb7e 0000 	sbcs.w	r0, lr, r0
 80003ae:	eb6e 0101 	sbc.w	r1, lr, r1
 80003b2:	f5b1 1f80 	cmp.w	r1, #1048576	; 0x100000
 80003b6:	d31b      	bcc.n	80003f0 <__adddf3+0x124>
 80003b8:	f5b1 1f00 	cmp.w	r1, #2097152	; 0x200000
 80003bc:	d30c      	bcc.n	80003d8 <__adddf3+0x10c>
 80003be:	0849      	lsrs	r1, r1, #1
 80003c0:	ea5f 0030 	movs.w	r0, r0, rrx
 80003c4:	ea4f 0c3c 	mov.w	ip, ip, rrx
 80003c8:	f104 0401 	add.w	r4, r4, #1
 80003cc:	ea4f 5244 	mov.w	r2, r4, lsl #21
 80003d0:	f512 0f80 	cmn.w	r2, #4194304	; 0x400000
 80003d4:	f080 809a 	bcs.w	800050c <__adddf3+0x240>
 80003d8:	f1bc 4f00 	cmp.w	ip, #2147483648	; 0x80000000
 80003dc:	bf08      	it	eq
 80003de:	ea5f 0c50 	movseq.w	ip, r0, lsr #1
 80003e2:	f150 0000 	adcs.w	r0, r0, #0
 80003e6:	eb41 5104 	adc.w	r1, r1, r4, lsl #20
 80003ea:	ea41 0105 	orr.w	r1, r1, r5
 80003ee:	bd30      	pop	{r4, r5, pc}
 80003f0:	ea5f 0c4c 	movs.w	ip, ip, lsl #1
 80003f4:	4140      	adcs	r0, r0
 80003f6:	eb41 0101 	adc.w	r1, r1, r1
 80003fa:	f411 1f80 	tst.w	r1, #1048576	; 0x100000
 80003fe:	f1a4 0401 	sub.w	r4, r4, #1
 8000402:	d1e9      	bne.n	80003d8 <__adddf3+0x10c>
 8000404:	f091 0f00 	teq	r1, #0
 8000408:	bf04      	itt	eq
 800040a:	4601      	moveq	r1, r0
 800040c:	2000      	moveq	r0, #0
 800040e:	fab1 f381 	clz	r3, r1
 8000412:	bf08      	it	eq
 8000414:	3320      	addeq	r3, #32
 8000416:	f1a3 030b 	sub.w	r3, r3, #11
 800041a:	f1b3 0220 	subs.w	r2, r3, #32
 800041e:	da0c      	bge.n	800043a <__adddf3+0x16e>
 8000420:	320c      	adds	r2, #12
 8000422:	dd08      	ble.n	8000436 <__adddf3+0x16a>
 8000424:	f102 0c14 	add.w	ip, r2, #20
 8000428:	f1c2 020c 	rsb	r2, r2, #12
 800042c:	fa01 f00c 	lsl.w	r0, r1, ip
 8000430:	fa21 f102 	lsr.w	r1, r1, r2
 8000434:	e00c      	b.n	8000450 <__adddf3+0x184>
 8000436:	f102 0214 	add.w	r2, r2, #20
 800043a:	bfd8      	it	le
 800043c:	f1c2 0c20 	rsble	ip, r2, #32
 8000440:	fa01 f102 	lsl.w	r1, r1, r2
 8000444:	fa20 fc0c 	lsr.w	ip, r0, ip
 8000448:	bfdc      	itt	le
 800044a:	ea41 010c 	orrle.w	r1, r1, ip
 800044e:	4090      	lslle	r0, r2
 8000450:	1ae4      	subs	r4, r4, r3
 8000452:	bfa2      	ittt	ge
 8000454:	eb01 5104 	addge.w	r1, r1, r4, lsl #20
 8000458:	4329      	orrge	r1, r5
 800045a:	bd30      	popge	{r4, r5, pc}
 800045c:	ea6f 0404 	mvn.w	r4, r4
 8000460:	3c1f      	subs	r4, #31
 8000462:	da1c      	bge.n	800049e <__adddf3+0x1d2>
 8000464:	340c      	adds	r4, #12
 8000466:	dc0e      	bgt.n	8000486 <__adddf3+0x1ba>
 8000468:	f104 0414 	add.w	r4, r4, #20
 800046c:	f1c4 0220 	rsb	r2, r4, #32
 8000470:	fa20 f004 	lsr.w	r0, r0, r4
 8000474:	fa01 f302 	lsl.w	r3, r1, r2
 8000478:	ea40 0003 	orr.w	r0, r0, r3
 800047c:	fa21 f304 	lsr.w	r3, r1, r4
 8000480:	ea45 0103 	orr.w	r1, r5, r3
 8000484:	bd30      	pop	{r4, r5, pc}
 8000486:	f1c4 040c 	rsb	r4, r4, #12
 800048a:	f1c4 0220 	rsb	r2, r4, #32
 800048e:	fa20 f002 	lsr.w	r0, r0, r2
 8000492:	fa01 f304 	lsl.w	r3, r1, r4
 8000496:	ea40 0003 	orr.w	r0, r0, r3
 800049a:	4629      	mov	r1, r5
 800049c:	bd30      	pop	{r4, r5, pc}
 800049e:	fa21 f004 	lsr.w	r0, r1, r4
 80004a2:	4629      	mov	r1, r5
 80004a4:	bd30      	pop	{r4, r5, pc}
 80004a6:	f094 0f00 	teq	r4, #0
 80004aa:	f483 1380 	eor.w	r3, r3, #1048576	; 0x100000
 80004ae:	bf06      	itte	eq
 80004b0:	f481 1180 	eoreq.w	r1, r1, #1048576	; 0x100000
 80004b4:	3401      	addeq	r4, #1
 80004b6:	3d01      	subne	r5, #1
 80004b8:	e74e      	b.n	8000358 <__adddf3+0x8c>
 80004ba:	ea7f 5c64 	mvns.w	ip, r4, asr #21
 80004be:	bf18      	it	ne
 80004c0:	ea7f 5c65 	mvnsne.w	ip, r5, asr #21
 80004c4:	d029      	beq.n	800051a <__adddf3+0x24e>
 80004c6:	ea94 0f05 	teq	r4, r5
 80004ca:	bf08      	it	eq
 80004cc:	ea90 0f02 	teqeq	r0, r2
 80004d0:	d005      	beq.n	80004de <__adddf3+0x212>
 80004d2:	ea54 0c00 	orrs.w	ip, r4, r0
 80004d6:	bf04      	itt	eq
 80004d8:	4619      	moveq	r1, r3
 80004da:	4610      	moveq	r0, r2
 80004dc:	bd30      	pop	{r4, r5, pc}
 80004de:	ea91 0f03 	teq	r1, r3
 80004e2:	bf1e      	ittt	ne
 80004e4:	2100      	movne	r1, #0
 80004e6:	2000      	movne	r0, #0
 80004e8:	bd30      	popne	{r4, r5, pc}
 80004ea:	ea5f 5c54 	movs.w	ip, r4, lsr #21
 80004ee:	d105      	bne.n	80004fc <__adddf3+0x230>
 80004f0:	0040      	lsls	r0, r0, #1
 80004f2:	4149      	adcs	r1, r1
 80004f4:	bf28      	it	cs
 80004f6:	f041 4100 	orrcs.w	r1, r1, #2147483648	; 0x80000000
 80004fa:	bd30      	pop	{r4, r5, pc}
 80004fc:	f514 0480 	adds.w	r4, r4, #4194304	; 0x400000
 8000500:	bf3c      	itt	cc
 8000502:	f501 1180 	addcc.w	r1, r1, #1048576	; 0x100000
 8000506:	bd30      	popcc	{r4, r5, pc}
 8000508:	f001 4500 	and.w	r5, r1, #2147483648	; 0x80000000
 800050c:	f045 41fe 	orr.w	r1, r5, #2130706432	; 0x7f000000
 8000510:	f441 0170 	orr.w	r1, r1, #15728640	; 0xf00000
 8000514:	f04f 0000 	mov.w	r0, #0
 8000518:	bd30      	pop	{r4, r5, pc}
 800051a:	ea7f 5c64 	mvns.w	ip, r4, asr #21
 800051e:	bf1a      	itte	ne
 8000520:	4619      	movne	r1, r3
 8000522:	4610      	movne	r0, r2
 8000524:	ea7f 5c65 	mvnseq.w	ip, r5, asr #21
 8000528:	bf1c      	itt	ne
 800052a:	460b      	movne	r3, r1
 800052c:	4602      	movne	r2, r0
 800052e:	ea50 3401 	orrs.w	r4, r0, r1, lsl #12
 8000532:	bf06      	itte	eq
 8000534:	ea52 3503 	orrseq.w	r5, r2, r3, lsl #12
 8000538:	ea91 0f03 	teqeq	r1, r3
 800053c:	f441 2100 	orrne.w	r1, r1, #524288	; 0x80000
 8000540:	bd30      	pop	{r4, r5, pc}
 8000542:	bf00      	nop

08000544 <__aeabi_ui2d>:
 8000544:	f090 0f00 	teq	r0, #0
 8000548:	bf04      	itt	eq
 800054a:	2100      	moveq	r1, #0
 800054c:	4770      	bxeq	lr
 800054e:	b530      	push	{r4, r5, lr}
 8000550:	f44f 6480 	mov.w	r4, #1024	; 0x400
 8000554:	f104 0432 	add.w	r4, r4, #50	; 0x32
 8000558:	f04f 0500 	mov.w	r5, #0
 800055c:	f04f 0100 	mov.w	r1, #0
 8000560:	e750      	b.n	8000404 <__adddf3+0x138>
 8000562:	bf00      	nop

08000564 <__aeabi_i2d>:
 8000564:	f090 0f00 	teq	r0, #0
 8000568:	bf04      	itt	eq
 800056a:	2100      	moveq	r1, #0
 800056c:	4770      	bxeq	lr
 800056e:	b530      	push	{r4, r5, lr}
 8000570:	f44f 6480 	mov.w	r4, #1024	; 0x400
 8000574:	f104 0432 	add.w	r4, r4, #50	; 0x32
 8000578:	f010 4500 	ands.w	r5, r0, #2147483648	; 0x80000000
 800057c:	bf48      	it	mi
 800057e:	4240      	negmi	r0, r0
 8000580:	f04f 0100 	mov.w	r1, #0
 8000584:	e73e      	b.n	8000404 <__adddf3+0x138>
 8000586:	bf00      	nop

08000588 <__aeabi_f2d>:
 8000588:	0042      	lsls	r2, r0, #1
 800058a:	ea4f 01e2 	mov.w	r1, r2, asr #3
 800058e:	ea4f 0131 	mov.w	r1, r1, rrx
 8000592:	ea4f 7002 	mov.w	r0, r2, lsl #28
 8000596:	bf1f      	itttt	ne
 8000598:	f012 437f 	andsne.w	r3, r2, #4278190080	; 0xff000000
 800059c:	f093 4f7f 	teqne	r3, #4278190080	; 0xff000000
 80005a0:	f081 5160 	eorne.w	r1, r1, #939524096	; 0x38000000
 80005a4:	4770      	bxne	lr
 80005a6:	f032 427f 	bics.w	r2, r2, #4278190080	; 0xff000000
 80005aa:	bf08      	it	eq
 80005ac:	4770      	bxeq	lr
 80005ae:	f093 4f7f 	teq	r3, #4278190080	; 0xff000000
 80005b2:	bf04      	itt	eq
 80005b4:	f441 2100 	orreq.w	r1, r1, #524288	; 0x80000
 80005b8:	4770      	bxeq	lr
 80005ba:	b530      	push	{r4, r5, lr}
 80005bc:	f44f 7460 	mov.w	r4, #896	; 0x380
 80005c0:	f001 4500 	and.w	r5, r1, #2147483648	; 0x80000000
 80005c4:	f021 4100 	bic.w	r1, r1, #2147483648	; 0x80000000
 80005c8:	e71c      	b.n	8000404 <__adddf3+0x138>
 80005ca:	bf00      	nop

080005cc <__aeabi_ul2d>:
 80005cc:	ea50 0201 	orrs.w	r2, r0, r1
 80005d0:	bf08      	it	eq
 80005d2:	4770      	bxeq	lr
 80005d4:	b530      	push	{r4, r5, lr}
 80005d6:	f04f 0500 	mov.w	r5, #0
 80005da:	e00a      	b.n	80005f2 <__aeabi_l2d+0x16>

080005dc <__aeabi_l2d>:
 80005dc:	ea50 0201 	orrs.w	r2, r0, r1
 80005e0:	bf08      	it	eq
 80005e2:	4770      	bxeq	lr
 80005e4:	b530      	push	{r4, r5, lr}
 80005e6:	f011 4500 	ands.w	r5, r1, #2147483648	; 0x80000000
 80005ea:	d502      	bpl.n	80005f2 <__aeabi_l2d+0x16>
 80005ec:	4240      	negs	r0, r0
 80005ee:	eb61 0141 	sbc.w	r1, r1, r1, lsl #1
 80005f2:	f44f 6480 	mov.w	r4, #1024	; 0x400
 80005f6:	f104 0432 	add.w	r4, r4, #50	; 0x32
 80005fa:	ea5f 5c91 	movs.w	ip, r1, lsr #22
 80005fe:	f43f aed8 	beq.w	80003b2 <__adddf3+0xe6>
 8000602:	f04f 0203 	mov.w	r2, #3
 8000606:	ea5f 0cdc 	movs.w	ip, ip, lsr #3
 800060a:	bf18      	it	ne
 800060c:	3203      	addne	r2, #3
 800060e:	ea5f 0cdc 	movs.w	ip, ip, lsr #3
 8000612:	bf18      	it	ne
 8000614:	3203      	addne	r2, #3
 8000616:	eb02 02dc 	add.w	r2, r2, ip, lsr #3
 800061a:	f1c2 0320 	rsb	r3, r2, #32
 800061e:	fa00 fc03 	lsl.w	ip, r0, r3
 8000622:	fa20 f002 	lsr.w	r0, r0, r2
 8000626:	fa01 fe03 	lsl.w	lr, r1, r3
 800062a:	ea40 000e 	orr.w	r0, r0, lr
 800062e:	fa21 f102 	lsr.w	r1, r1, r2
 8000632:	4414      	add	r4, r2
 8000634:	e6bd      	b.n	80003b2 <__adddf3+0xe6>
 8000636:	bf00      	nop

08000638 <__aeabi_dmul>:
 8000638:	b570      	push	{r4, r5, r6, lr}
 800063a:	f04f 0cff 	mov.w	ip, #255	; 0xff
 800063e:	f44c 6ce0 	orr.w	ip, ip, #1792	; 0x700
 8000642:	ea1c 5411 	ands.w	r4, ip, r1, lsr #20
 8000646:	bf1d      	ittte	ne
 8000648:	ea1c 5513 	andsne.w	r5, ip, r3, lsr #20
 800064c:	ea94 0f0c 	teqne	r4, ip
 8000650:	ea95 0f0c 	teqne	r5, ip
 8000654:	f000 f8de 	bleq	8000814 <__aeabi_dmul+0x1dc>
 8000658:	442c      	add	r4, r5
 800065a:	ea81 0603 	eor.w	r6, r1, r3
 800065e:	ea21 514c 	bic.w	r1, r1, ip, lsl #21
 8000662:	ea23 534c 	bic.w	r3, r3, ip, lsl #21
 8000666:	ea50 3501 	orrs.w	r5, r0, r1, lsl #12
 800066a:	bf18      	it	ne
 800066c:	ea52 3503 	orrsne.w	r5, r2, r3, lsl #12
 8000670:	f441 1180 	orr.w	r1, r1, #1048576	; 0x100000
 8000674:	f443 1380 	orr.w	r3, r3, #1048576	; 0x100000
 8000678:	d038      	beq.n	80006ec <__aeabi_dmul+0xb4>
 800067a:	fba0 ce02 	umull	ip, lr, r0, r2
 800067e:	f04f 0500 	mov.w	r5, #0
 8000682:	fbe1 e502 	umlal	lr, r5, r1, r2
 8000686:	f006 4200 	and.w	r2, r6, #2147483648	; 0x80000000
 800068a:	fbe0 e503 	umlal	lr, r5, r0, r3
 800068e:	f04f 0600 	mov.w	r6, #0
 8000692:	fbe1 5603 	umlal	r5, r6, r1, r3
 8000696:	f09c 0f00 	teq	ip, #0
 800069a:	bf18      	it	ne
 800069c:	f04e 0e01 	orrne.w	lr, lr, #1
 80006a0:	f1a4 04ff 	sub.w	r4, r4, #255	; 0xff
 80006a4:	f5b6 7f00 	cmp.w	r6, #512	; 0x200
 80006a8:	f564 7440 	sbc.w	r4, r4, #768	; 0x300
 80006ac:	d204      	bcs.n	80006b8 <__aeabi_dmul+0x80>
 80006ae:	ea5f 0e4e 	movs.w	lr, lr, lsl #1
 80006b2:	416d      	adcs	r5, r5
 80006b4:	eb46 0606 	adc.w	r6, r6, r6
 80006b8:	ea42 21c6 	orr.w	r1, r2, r6, lsl #11
 80006bc:	ea41 5155 	orr.w	r1, r1, r5, lsr #21
 80006c0:	ea4f 20c5 	mov.w	r0, r5, lsl #11
 80006c4:	ea40 505e 	orr.w	r0, r0, lr, lsr #21
 80006c8:	ea4f 2ece 	mov.w	lr, lr, lsl #11
 80006cc:	f1b4 0cfd 	subs.w	ip, r4, #253	; 0xfd
 80006d0:	bf88      	it	hi
 80006d2:	f5bc 6fe0 	cmphi.w	ip, #1792	; 0x700
 80006d6:	d81e      	bhi.n	8000716 <__aeabi_dmul+0xde>
 80006d8:	f1be 4f00 	cmp.w	lr, #2147483648	; 0x80000000
 80006dc:	bf08      	it	eq
 80006de:	ea5f 0e50 	movseq.w	lr, r0, lsr #1
 80006e2:	f150 0000 	adcs.w	r0, r0, #0
 80006e6:	eb41 5104 	adc.w	r1, r1, r4, lsl #20
 80006ea:	bd70      	pop	{r4, r5, r6, pc}
 80006ec:	f006 4600 	and.w	r6, r6, #2147483648	; 0x80000000
 80006f0:	ea46 0101 	orr.w	r1, r6, r1
 80006f4:	ea40 0002 	orr.w	r0, r0, r2
 80006f8:	ea81 0103 	eor.w	r1, r1, r3
 80006fc:	ebb4 045c 	subs.w	r4, r4, ip, lsr #1
 8000700:	bfc2      	ittt	gt
 8000702:	ebd4 050c 	rsbsgt	r5, r4, ip
 8000706:	ea41 5104 	orrgt.w	r1, r1, r4, lsl #20
 800070a:	bd70      	popgt	{r4, r5, r6, pc}
 800070c:	f441 1180 	orr.w	r1, r1, #1048576	; 0x100000
 8000710:	f04f 0e00 	mov.w	lr, #0
 8000714:	3c01      	subs	r4, #1
 8000716:	f300 80ab 	bgt.w	8000870 <__aeabi_dmul+0x238>
 800071a:	f114 0f36 	cmn.w	r4, #54	; 0x36
 800071e:	bfde      	ittt	le
 8000720:	2000      	movle	r0, #0
 8000722:	f001 4100 	andle.w	r1, r1, #2147483648	; 0x80000000
 8000726:	bd70      	pople	{r4, r5, r6, pc}
 8000728:	f1c4 0400 	rsb	r4, r4, #0
 800072c:	3c20      	subs	r4, #32
 800072e:	da35      	bge.n	800079c <__aeabi_dmul+0x164>
 8000730:	340c      	adds	r4, #12
 8000732:	dc1b      	bgt.n	800076c <__aeabi_dmul+0x134>
 8000734:	f104 0414 	add.w	r4, r4, #20
 8000738:	f1c4 0520 	rsb	r5, r4, #32
 800073c:	fa00 f305 	lsl.w	r3, r0, r5
 8000740:	fa20 f004 	lsr.w	r0, r0, r4
 8000744:	fa01 f205 	lsl.w	r2, r1, r5
 8000748:	ea40 0002 	orr.w	r0, r0, r2
 800074c:	f001 4200 	and.w	r2, r1, #2147483648	; 0x80000000
 8000750:	f021 4100 	bic.w	r1, r1, #2147483648	; 0x80000000
 8000754:	eb10 70d3 	adds.w	r0, r0, r3, lsr #31
 8000758:	fa21 f604 	lsr.w	r6, r1, r4
 800075c:	eb42 0106 	adc.w	r1, r2, r6
 8000760:	ea5e 0e43 	orrs.w	lr, lr, r3, lsl #1
 8000764:	bf08      	it	eq
 8000766:	ea20 70d3 	biceq.w	r0, r0, r3, lsr #31
 800076a:	bd70      	pop	{r4, r5, r6, pc}
 800076c:	f1c4 040c 	rsb	r4, r4, #12
 8000770:	f1c4 0520 	rsb	r5, r4, #32
 8000774:	fa00 f304 	lsl.w	r3, r0, r4
 8000778:	fa20 f005 	lsr.w	r0, r0, r5
 800077c:	fa01 f204 	lsl.w	r2, r1, r4
 8000780:	ea40 0002 	orr.w	r0, r0, r2
 8000784:	f001 4100 	and.w	r1, r1, #2147483648	; 0x80000000
 8000788:	eb10 70d3 	adds.w	r0, r0, r3, lsr #31
 800078c:	f141 0100 	adc.w	r1, r1, #0
 8000790:	ea5e 0e43 	orrs.w	lr, lr, r3, lsl #1
 8000794:	bf08      	it	eq
 8000796:	ea20 70d3 	biceq.w	r0, r0, r3, lsr #31
 800079a:	bd70      	pop	{r4, r5, r6, pc}
 800079c:	f1c4 0520 	rsb	r5, r4, #32
 80007a0:	fa00 f205 	lsl.w	r2, r0, r5
 80007a4:	ea4e 0e02 	orr.w	lr, lr, r2
 80007a8:	fa20 f304 	lsr.w	r3, r0, r4
 80007ac:	fa01 f205 	lsl.w	r2, r1, r5
 80007b0:	ea43 0302 	orr.w	r3, r3, r2
 80007b4:	fa21 f004 	lsr.w	r0, r1, r4
 80007b8:	f001 4100 	and.w	r1, r1, #2147483648	; 0x80000000
 80007bc:	fa21 f204 	lsr.w	r2, r1, r4
 80007c0:	ea20 0002 	bic.w	r0, r0, r2
 80007c4:	eb00 70d3 	add.w	r0, r0, r3, lsr #31
 80007c8:	ea5e 0e43 	orrs.w	lr, lr, r3, lsl #1
 80007cc:	bf08      	it	eq
 80007ce:	ea20 70d3 	biceq.w	r0, r0, r3, lsr #31
 80007d2:	bd70      	pop	{r4, r5, r6, pc}
 80007d4:	f094 0f00 	teq	r4, #0
 80007d8:	d10f      	bne.n	80007fa <__aeabi_dmul+0x1c2>
 80007da:	f001 4600 	and.w	r6, r1, #2147483648	; 0x80000000
 80007de:	0040      	lsls	r0, r0, #1
 80007e0:	eb41 0101 	adc.w	r1, r1, r1
 80007e4:	f411 1f80 	tst.w	r1, #1048576	; 0x100000
 80007e8:	bf08      	it	eq
 80007ea:	3c01      	subeq	r4, #1
 80007ec:	d0f7      	beq.n	80007de <__aeabi_dmul+0x1a6>
 80007ee:	ea41 0106 	orr.w	r1, r1, r6
 80007f2:	f095 0f00 	teq	r5, #0
 80007f6:	bf18      	it	ne
 80007f8:	4770      	bxne	lr
 80007fa:	f003 4600 	and.w	r6, r3, #2147483648	; 0x80000000
 80007fe:	0052      	lsls	r2, r2, #1
 8000800:	eb43 0303 	adc.w	r3, r3, r3
 8000804:	f413 1f80 	tst.w	r3, #1048576	; 0x100000
 8000808:	bf08      	it	eq
 800080a:	3d01      	subeq	r5, #1
 800080c:	d0f7      	beq.n	80007fe <__aeabi_dmul+0x1c6>
 800080e:	ea43 0306 	orr.w	r3, r3, r6
 8000812:	4770      	bx	lr
 8000814:	ea94 0f0c 	teq	r4, ip
 8000818:	ea0c 5513 	and.w	r5, ip, r3, lsr #20
 800081c:	bf18      	it	ne
 800081e:	ea95 0f0c 	teqne	r5, ip
 8000822:	d00c      	beq.n	800083e <__aeabi_dmul+0x206>
 8000824:	ea50 0641 	orrs.w	r6, r0, r1, lsl #1
 8000828:	bf18      	it	ne
 800082a:	ea52 0643 	orrsne.w	r6, r2, r3, lsl #1
 800082e:	d1d1      	bne.n	80007d4 <__aeabi_dmul+0x19c>
 8000830:	ea81 0103 	eor.w	r1, r1, r3
 8000834:	f001 4100 	and.w	r1, r1, #2147483648	; 0x80000000
 8000838:	f04f 0000 	mov.w	r0, #0
 800083c:	bd70      	pop	{r4, r5, r6, pc}
 800083e:	ea50 0641 	orrs.w	r6, r0, r1, lsl #1
 8000842:	bf06      	itte	eq
 8000844:	4610      	moveq	r0, r2
 8000846:	4619      	moveq	r1, r3
 8000848:	ea52 0643 	orrsne.w	r6, r2, r3, lsl #1
 800084c:	d019      	beq.n	8000882 <__aeabi_dmul+0x24a>
 800084e:	ea94 0f0c 	teq	r4, ip
 8000852:	d102      	bne.n	800085a <__aeabi_dmul+0x222>
 8000854:	ea50 3601 	orrs.w	r6, r0, r1, lsl #12
 8000858:	d113      	bne.n	8000882 <__aeabi_dmul+0x24a>
 800085a:	ea95 0f0c 	teq	r5, ip
 800085e:	d105      	bne.n	800086c <__aeabi_dmul+0x234>
 8000860:	ea52 3603 	orrs.w	r6, r2, r3, lsl #12
 8000864:	bf1c      	itt	ne
 8000866:	4610      	movne	r0, r2
 8000868:	4619      	movne	r1, r3
 800086a:	d10a      	bne.n	8000882 <__aeabi_dmul+0x24a>
 800086c:	ea81 0103 	eor.w	r1, r1, r3
 8000870:	f001 4100 	and.w	r1, r1, #2147483648	; 0x80000000
 8000874:	f041 41fe 	orr.w	r1, r1, #2130706432	; 0x7f000000
 8000878:	f441 0170 	orr.w	r1, r1, #15728640	; 0xf00000
 800087c:	f04f 0000 	mov.w	r0, #0
 8000880:	bd70      	pop	{r4, r5, r6, pc}
 8000882:	f041 41fe 	orr.w	r1, r1, #2130706432	; 0x7f000000
 8000886:	f441 0178 	orr.w	r1, r1, #16252928	; 0xf80000
 800088a:	bd70      	pop	{r4, r5, r6, pc}

0800088c <__aeabi_ddiv>:
 800088c:	b570      	push	{r4, r5, r6, lr}
 800088e:	f04f 0cff 	mov.w	ip, #255	; 0xff
 8000892:	f44c 6ce0 	orr.w	ip, ip, #1792	; 0x700
 8000896:	ea1c 5411 	ands.w	r4, ip, r1, lsr #20
 800089a:	bf1d      	ittte	ne
 800089c:	ea1c 5513 	andsne.w	r5, ip, r3, lsr #20
 80008a0:	ea94 0f0c 	teqne	r4, ip
 80008a4:	ea95 0f0c 	teqne	r5, ip
 80008a8:	f000 f8a7 	bleq	80009fa <__aeabi_ddiv+0x16e>
 80008ac:	eba4 0405 	sub.w	r4, r4, r5
 80008b0:	ea81 0e03 	eor.w	lr, r1, r3
 80008b4:	ea52 3503 	orrs.w	r5, r2, r3, lsl #12
 80008b8:	ea4f 3101 	mov.w	r1, r1, lsl #12
 80008bc:	f000 8088 	beq.w	80009d0 <__aeabi_ddiv+0x144>
 80008c0:	ea4f 3303 	mov.w	r3, r3, lsl #12
 80008c4:	f04f 5580 	mov.w	r5, #268435456	; 0x10000000
 80008c8:	ea45 1313 	orr.w	r3, r5, r3, lsr #4
 80008cc:	ea43 6312 	orr.w	r3, r3, r2, lsr #24
 80008d0:	ea4f 2202 	mov.w	r2, r2, lsl #8
 80008d4:	ea45 1511 	orr.w	r5, r5, r1, lsr #4
 80008d8:	ea45 6510 	orr.w	r5, r5, r0, lsr #24
 80008dc:	ea4f 2600 	mov.w	r6, r0, lsl #8
 80008e0:	f00e 4100 	and.w	r1, lr, #2147483648	; 0x80000000
 80008e4:	429d      	cmp	r5, r3
 80008e6:	bf08      	it	eq
 80008e8:	4296      	cmpeq	r6, r2
 80008ea:	f144 04fd 	adc.w	r4, r4, #253	; 0xfd
 80008ee:	f504 7440 	add.w	r4, r4, #768	; 0x300
 80008f2:	d202      	bcs.n	80008fa <__aeabi_ddiv+0x6e>
 80008f4:	085b      	lsrs	r3, r3, #1
 80008f6:	ea4f 0232 	mov.w	r2, r2, rrx
 80008fa:	1ab6      	subs	r6, r6, r2
 80008fc:	eb65 0503 	sbc.w	r5, r5, r3
 8000900:	085b      	lsrs	r3, r3, #1
 8000902:	ea4f 0232 	mov.w	r2, r2, rrx
 8000906:	f44f 1080 	mov.w	r0, #1048576	; 0x100000
 800090a:	f44f 2c00 	mov.w	ip, #524288	; 0x80000
 800090e:	ebb6 0e02 	subs.w	lr, r6, r2
 8000912:	eb75 0e03 	sbcs.w	lr, r5, r3
 8000916:	bf22      	ittt	cs
 8000918:	1ab6      	subcs	r6, r6, r2
 800091a:	4675      	movcs	r5, lr
 800091c:	ea40 000c 	orrcs.w	r0, r0, ip
 8000920:	085b      	lsrs	r3, r3, #1
 8000922:	ea4f 0232 	mov.w	r2, r2, rrx
 8000926:	ebb6 0e02 	subs.w	lr, r6, r2
 800092a:	eb75 0e03 	sbcs.w	lr, r5, r3
 800092e:	bf22      	ittt	cs
 8000930:	1ab6      	subcs	r6, r6, r2
 8000932:	4675      	movcs	r5, lr
 8000934:	ea40 005c 	orrcs.w	r0, r0, ip, lsr #1
 8000938:	085b      	lsrs	r3, r3, #1
 800093a:	ea4f 0232 	mov.w	r2, r2, rrx
 800093e:	ebb6 0e02 	subs.w	lr, r6, r2
 8000942:	eb75 0e03 	sbcs.w	lr, r5, r3
 8000946:	bf22      	ittt	cs
 8000948:	1ab6      	subcs	r6, r6, r2
 800094a:	4675      	movcs	r5, lr
 800094c:	ea40 009c 	orrcs.w	r0, r0, ip, lsr #2
 8000950:	085b      	lsrs	r3, r3, #1
 8000952:	ea4f 0232 	mov.w	r2, r2, rrx
 8000956:	ebb6 0e02 	subs.w	lr, r6, r2
 800095a:	eb75 0e03 	sbcs.w	lr, r5, r3
 800095e:	bf22      	ittt	cs
 8000960:	1ab6      	subcs	r6, r6, r2
 8000962:	4675      	movcs	r5, lr
 8000964:	ea40 00dc 	orrcs.w	r0, r0, ip, lsr #3
 8000968:	ea55 0e06 	orrs.w	lr, r5, r6
 800096c:	d018      	beq.n	80009a0 <__aeabi_ddiv+0x114>
 800096e:	ea4f 1505 	mov.w	r5, r5, lsl #4
 8000972:	ea45 7516 	orr.w	r5, r5, r6, lsr #28
 8000976:	ea4f 1606 	mov.w	r6, r6, lsl #4
 800097a:	ea4f 03c3 	mov.w	r3, r3, lsl #3
 800097e:	ea43 7352 	orr.w	r3, r3, r2, lsr #29
 8000982:	ea4f 02c2 	mov.w	r2, r2, lsl #3
 8000986:	ea5f 1c1c 	movs.w	ip, ip, lsr #4
 800098a:	d1c0      	bne.n	800090e <__aeabi_ddiv+0x82>
 800098c:	f411 1f80 	tst.w	r1, #1048576	; 0x100000
 8000990:	d10b      	bne.n	80009aa <__aeabi_ddiv+0x11e>
 8000992:	ea41 0100 	orr.w	r1, r1, r0
 8000996:	f04f 0000 	mov.w	r0, #0
 800099a:	f04f 4c00 	mov.w	ip, #2147483648	; 0x80000000
 800099e:	e7b6      	b.n	800090e <__aeabi_ddiv+0x82>
 80009a0:	f411 1f80 	tst.w	r1, #1048576	; 0x100000
 80009a4:	bf04      	itt	eq
 80009a6:	4301      	orreq	r1, r0
 80009a8:	2000      	moveq	r0, #0
 80009aa:	f1b4 0cfd 	subs.w	ip, r4, #253	; 0xfd
 80009ae:	bf88      	it	hi
 80009b0:	f5bc 6fe0 	cmphi.w	ip, #1792	; 0x700
 80009b4:	f63f aeaf 	bhi.w	8000716 <__aeabi_dmul+0xde>
 80009b8:	ebb5 0c03 	subs.w	ip, r5, r3
 80009bc:	bf04      	itt	eq
 80009be:	ebb6 0c02 	subseq.w	ip, r6, r2
 80009c2:	ea5f 0c50 	movseq.w	ip, r0, lsr #1
 80009c6:	f150 0000 	adcs.w	r0, r0, #0
 80009ca:	eb41 5104 	adc.w	r1, r1, r4, lsl #20
 80009ce:	bd70      	pop	{r4, r5, r6, pc}
 80009d0:	f00e 4e00 	and.w	lr, lr, #2147483648	; 0x80000000
 80009d4:	ea4e 3111 	orr.w	r1, lr, r1, lsr #12
 80009d8:	eb14 045c 	adds.w	r4, r4, ip, lsr #1
 80009dc:	bfc2      	ittt	gt
 80009de:	ebd4 050c 	rsbsgt	r5, r4, ip
 80009e2:	ea41 5104 	orrgt.w	r1, r1, r4, lsl #20
 80009e6:	bd70      	popgt	{r4, r5, r6, pc}
 80009e8:	f441 1180 	orr.w	r1, r1, #1048576	; 0x100000
 80009ec:	f04f 0e00 	mov.w	lr, #0
 80009f0:	3c01      	subs	r4, #1
 80009f2:	e690      	b.n	8000716 <__aeabi_dmul+0xde>
 80009f4:	ea45 0e06 	orr.w	lr, r5, r6
 80009f8:	e68d      	b.n	8000716 <__aeabi_dmul+0xde>
 80009fa:	ea0c 5513 	and.w	r5, ip, r3, lsr #20
 80009fe:	ea94 0f0c 	teq	r4, ip
 8000a02:	bf08      	it	eq
 8000a04:	ea95 0f0c 	teqeq	r5, ip
 8000a08:	f43f af3b 	beq.w	8000882 <__aeabi_dmul+0x24a>
 8000a0c:	ea94 0f0c 	teq	r4, ip
 8000a10:	d10a      	bne.n	8000a28 <__aeabi_ddiv+0x19c>
 8000a12:	ea50 3401 	orrs.w	r4, r0, r1, lsl #12
 8000a16:	f47f af34 	bne.w	8000882 <__aeabi_dmul+0x24a>
 8000a1a:	ea95 0f0c 	teq	r5, ip
 8000a1e:	f47f af25 	bne.w	800086c <__aeabi_dmul+0x234>
 8000a22:	4610      	mov	r0, r2
 8000a24:	4619      	mov	r1, r3
 8000a26:	e72c      	b.n	8000882 <__aeabi_dmul+0x24a>
 8000a28:	ea95 0f0c 	teq	r5, ip
 8000a2c:	d106      	bne.n	8000a3c <__aeabi_ddiv+0x1b0>
 8000a2e:	ea52 3503 	orrs.w	r5, r2, r3, lsl #12
 8000a32:	f43f aefd 	beq.w	8000830 <__aeabi_dmul+0x1f8>
 8000a36:	4610      	mov	r0, r2
 8000a38:	4619      	mov	r1, r3
 8000a3a:	e722      	b.n	8000882 <__aeabi_dmul+0x24a>
 8000a3c:	ea50 0641 	orrs.w	r6, r0, r1, lsl #1
 8000a40:	bf18      	it	ne
 8000a42:	ea52 0643 	orrsne.w	r6, r2, r3, lsl #1
 8000a46:	f47f aec5 	bne.w	80007d4 <__aeabi_dmul+0x19c>
 8000a4a:	ea50 0441 	orrs.w	r4, r0, r1, lsl #1
 8000a4e:	f47f af0d 	bne.w	800086c <__aeabi_dmul+0x234>
 8000a52:	ea52 0543 	orrs.w	r5, r2, r3, lsl #1
 8000a56:	f47f aeeb 	bne.w	8000830 <__aeabi_dmul+0x1f8>
 8000a5a:	e712      	b.n	8000882 <__aeabi_dmul+0x24a>

08000a5c <__gedf2>:
 8000a5c:	f04f 3cff 	mov.w	ip, #4294967295
 8000a60:	e006      	b.n	8000a70 <__cmpdf2+0x4>
 8000a62:	bf00      	nop

08000a64 <__ledf2>:
 8000a64:	f04f 0c01 	mov.w	ip, #1
 8000a68:	e002      	b.n	8000a70 <__cmpdf2+0x4>
 8000a6a:	bf00      	nop

08000a6c <__cmpdf2>:
 8000a6c:	f04f 0c01 	mov.w	ip, #1
 8000a70:	f84d cd04 	str.w	ip, [sp, #-4]!
 8000a74:	ea4f 0c41 	mov.w	ip, r1, lsl #1
 8000a78:	ea7f 5c6c 	mvns.w	ip, ip, asr #21
 8000a7c:	ea4f 0c43 	mov.w	ip, r3, lsl #1
 8000a80:	bf18      	it	ne
 8000a82:	ea7f 5c6c 	mvnsne.w	ip, ip, asr #21
 8000a86:	d01b      	beq.n	8000ac0 <__cmpdf2+0x54>
 8000a88:	b001      	add	sp, #4
 8000a8a:	ea50 0c41 	orrs.w	ip, r0, r1, lsl #1
 8000a8e:	bf0c      	ite	eq
 8000a90:	ea52 0c43 	orrseq.w	ip, r2, r3, lsl #1
 8000a94:	ea91 0f03 	teqne	r1, r3
 8000a98:	bf02      	ittt	eq
 8000a9a:	ea90 0f02 	teqeq	r0, r2
 8000a9e:	2000      	moveq	r0, #0
 8000aa0:	4770      	bxeq	lr
 8000aa2:	f110 0f00 	cmn.w	r0, #0
 8000aa6:	ea91 0f03 	teq	r1, r3
 8000aaa:	bf58      	it	pl
 8000aac:	4299      	cmppl	r1, r3
 8000aae:	bf08      	it	eq
 8000ab0:	4290      	cmpeq	r0, r2
 8000ab2:	bf2c      	ite	cs
 8000ab4:	17d8      	asrcs	r0, r3, #31
 8000ab6:	ea6f 70e3 	mvncc.w	r0, r3, asr #31
 8000aba:	f040 0001 	orr.w	r0, r0, #1
 8000abe:	4770      	bx	lr
 8000ac0:	ea4f 0c41 	mov.w	ip, r1, lsl #1
 8000ac4:	ea7f 5c6c 	mvns.w	ip, ip, asr #21
 8000ac8:	d102      	bne.n	8000ad0 <__cmpdf2+0x64>
 8000aca:	ea50 3c01 	orrs.w	ip, r0, r1, lsl #12
 8000ace:	d107      	bne.n	8000ae0 <__cmpdf2+0x74>
 8000ad0:	ea4f 0c43 	mov.w	ip, r3, lsl #1
 8000ad4:	ea7f 5c6c 	mvns.w	ip, ip, asr #21
 8000ad8:	d1d6      	bne.n	8000a88 <__cmpdf2+0x1c>
 8000ada:	ea52 3c03 	orrs.w	ip, r2, r3, lsl #12
 8000ade:	d0d3      	beq.n	8000a88 <__cmpdf2+0x1c>
 8000ae0:	f85d 0b04 	ldr.w	r0, [sp], #4
 8000ae4:	4770      	bx	lr
 8000ae6:	bf00      	nop

08000ae8 <__aeabi_cdrcmple>:
 8000ae8:	4684      	mov	ip, r0
 8000aea:	4610      	mov	r0, r2
 8000aec:	4662      	mov	r2, ip
 8000aee:	468c      	mov	ip, r1
 8000af0:	4619      	mov	r1, r3
 8000af2:	4663      	mov	r3, ip
 8000af4:	e000      	b.n	8000af8 <__aeabi_cdcmpeq>
 8000af6:	bf00      	nop

08000af8 <__aeabi_cdcmpeq>:
 8000af8:	b501      	push	{r0, lr}
 8000afa:	f7ff ffb7 	bl	8000a6c <__cmpdf2>
 8000afe:	2800      	cmp	r0, #0
 8000b00:	bf48      	it	mi
 8000b02:	f110 0f00 	cmnmi.w	r0, #0
 8000b06:	bd01      	pop	{r0, pc}

08000b08 <__aeabi_dcmpeq>:
 8000b08:	f84d ed08 	str.w	lr, [sp, #-8]!
 8000b0c:	f7ff fff4 	bl	8000af8 <__aeabi_cdcmpeq>
 8000b10:	bf0c      	ite	eq
 8000b12:	2001      	moveq	r0, #1
 8000b14:	2000      	movne	r0, #0
 8000b16:	f85d fb08 	ldr.w	pc, [sp], #8
 8000b1a:	bf00      	nop

08000b1c <__aeabi_dcmplt>:
 8000b1c:	f84d ed08 	str.w	lr, [sp, #-8]!
 8000b20:	f7ff ffea 	bl	8000af8 <__aeabi_cdcmpeq>
 8000b24:	bf34      	ite	cc
 8000b26:	2001      	movcc	r0, #1
 8000b28:	2000      	movcs	r0, #0
 8000b2a:	f85d fb08 	ldr.w	pc, [sp], #8
 8000b2e:	bf00      	nop

08000b30 <__aeabi_dcmple>:
 8000b30:	f84d ed08 	str.w	lr, [sp, #-8]!
 8000b34:	f7ff ffe0 	bl	8000af8 <__aeabi_cdcmpeq>
 8000b38:	bf94      	ite	ls
 8000b3a:	2001      	movls	r0, #1
 8000b3c:	2000      	movhi	r0, #0
 8000b3e:	f85d fb08 	ldr.w	pc, [sp], #8
 8000b42:	bf00      	nop

08000b44 <__aeabi_dcmpge>:
 8000b44:	f84d ed08 	str.w	lr, [sp, #-8]!
 8000b48:	f7ff ffce 	bl	8000ae8 <__aeabi_cdrcmple>
 8000b4c:	bf94      	ite	ls
 8000b4e:	2001      	movls	r0, #1
 8000b50:	2000      	movhi	r0, #0
 8000b52:	f85d fb08 	ldr.w	pc, [sp], #8
 8000b56:	bf00      	nop

08000b58 <__aeabi_dcmpgt>:
 8000b58:	f84d ed08 	str.w	lr, [sp, #-8]!
 8000b5c:	f7ff ffc4 	bl	8000ae8 <__aeabi_cdrcmple>
 8000b60:	bf34      	ite	cc
 8000b62:	2001      	movcc	r0, #1
 8000b64:	2000      	movcs	r0, #0
 8000b66:	f85d fb08 	ldr.w	pc, [sp], #8
 8000b6a:	bf00      	nop

08000b6c <__aeabi_dcmpun>:
 8000b6c:	ea4f 0c41 	mov.w	ip, r1, lsl #1
 8000b70:	ea7f 5c6c 	mvns.w	ip, ip, asr #21
 8000b74:	d102      	bne.n	8000b7c <__aeabi_dcmpun+0x10>
 8000b76:	ea50 3c01 	orrs.w	ip, r0, r1, lsl #12
 8000b7a:	d10a      	bne.n	8000b92 <__aeabi_dcmpun+0x26>
 8000b7c:	ea4f 0c43 	mov.w	ip, r3, lsl #1
 8000b80:	ea7f 5c6c 	mvns.w	ip, ip, asr #21
 8000b84:	d102      	bne.n	8000b8c <__aeabi_dcmpun+0x20>
 8000b86:	ea52 3c03 	orrs.w	ip, r2, r3, lsl #12
 8000b8a:	d102      	bne.n	8000b92 <__aeabi_dcmpun+0x26>
 8000b8c:	f04f 0000 	mov.w	r0, #0
 8000b90:	4770      	bx	lr
 8000b92:	f04f 0001 	mov.w	r0, #1
 8000b96:	4770      	bx	lr

08000b98 <__aeabi_d2iz>:
 8000b98:	ea4f 0241 	mov.w	r2, r1, lsl #1
 8000b9c:	f512 1200 	adds.w	r2, r2, #2097152	; 0x200000
 8000ba0:	d215      	bcs.n	8000bce <__aeabi_d2iz+0x36>
 8000ba2:	d511      	bpl.n	8000bc8 <__aeabi_d2iz+0x30>
 8000ba4:	f46f 7378 	mvn.w	r3, #992	; 0x3e0
 8000ba8:	ebb3 5262 	subs.w	r2, r3, r2, asr #21
 8000bac:	d912      	bls.n	8000bd4 <__aeabi_d2iz+0x3c>
 8000bae:	ea4f 23c1 	mov.w	r3, r1, lsl #11
 8000bb2:	f043 4300 	orr.w	r3, r3, #2147483648	; 0x80000000
 8000bb6:	ea43 5350 	orr.w	r3, r3, r0, lsr #21
 8000bba:	f011 4f00 	tst.w	r1, #2147483648	; 0x80000000
 8000bbe:	fa23 f002 	lsr.w	r0, r3, r2
 8000bc2:	bf18      	it	ne
 8000bc4:	4240      	negne	r0, r0
 8000bc6:	4770      	bx	lr
 8000bc8:	f04f 0000 	mov.w	r0, #0
 8000bcc:	4770      	bx	lr
 8000bce:	ea50 3001 	orrs.w	r0, r0, r1, lsl #12
 8000bd2:	d105      	bne.n	8000be0 <__aeabi_d2iz+0x48>
 8000bd4:	f011 4000 	ands.w	r0, r1, #2147483648	; 0x80000000
 8000bd8:	bf08      	it	eq
 8000bda:	f06f 4000 	mvneq.w	r0, #2147483648	; 0x80000000
 8000bde:	4770      	bx	lr
 8000be0:	f04f 0000 	mov.w	r0, #0
 8000be4:	4770      	bx	lr
 8000be6:	bf00      	nop

08000be8 <__aeabi_d2f>:
 8000be8:	ea4f 0241 	mov.w	r2, r1, lsl #1
 8000bec:	f1b2 43e0 	subs.w	r3, r2, #1879048192	; 0x70000000
 8000bf0:	bf24      	itt	cs
 8000bf2:	f5b3 1c00 	subscs.w	ip, r3, #2097152	; 0x200000
 8000bf6:	f1dc 5cfe 	rsbscs	ip, ip, #532676608	; 0x1fc00000
 8000bfa:	d90d      	bls.n	8000c18 <__aeabi_d2f+0x30>
 8000bfc:	f001 4c00 	and.w	ip, r1, #2147483648	; 0x80000000
 8000c00:	ea4f 02c0 	mov.w	r2, r0, lsl #3
 8000c04:	ea4c 7050 	orr.w	r0, ip, r0, lsr #29
 8000c08:	f1b2 4f00 	cmp.w	r2, #2147483648	; 0x80000000
 8000c0c:	eb40 0083 	adc.w	r0, r0, r3, lsl #2
 8000c10:	bf08      	it	eq
 8000c12:	f020 0001 	biceq.w	r0, r0, #1
 8000c16:	4770      	bx	lr
 8000c18:	f011 4f80 	tst.w	r1, #1073741824	; 0x40000000
 8000c1c:	d121      	bne.n	8000c62 <__aeabi_d2f+0x7a>
 8000c1e:	f113 7238 	adds.w	r2, r3, #48234496	; 0x2e00000
 8000c22:	bfbc      	itt	lt
 8000c24:	f001 4000 	andlt.w	r0, r1, #2147483648	; 0x80000000
 8000c28:	4770      	bxlt	lr
 8000c2a:	f441 1180 	orr.w	r1, r1, #1048576	; 0x100000
 8000c2e:	ea4f 5252 	mov.w	r2, r2, lsr #21
 8000c32:	f1c2 0218 	rsb	r2, r2, #24
 8000c36:	f1c2 0c20 	rsb	ip, r2, #32
 8000c3a:	fa10 f30c 	lsls.w	r3, r0, ip
 8000c3e:	fa20 f002 	lsr.w	r0, r0, r2
 8000c42:	bf18      	it	ne
 8000c44:	f040 0001 	orrne.w	r0, r0, #1
 8000c48:	ea4f 23c1 	mov.w	r3, r1, lsl #11
 8000c4c:	ea4f 23d3 	mov.w	r3, r3, lsr #11
 8000c50:	fa03 fc0c 	lsl.w	ip, r3, ip
 8000c54:	ea40 000c 	orr.w	r0, r0, ip
 8000c58:	fa23 f302 	lsr.w	r3, r3, r2
 8000c5c:	ea4f 0343 	mov.w	r3, r3, lsl #1
 8000c60:	e7cc      	b.n	8000bfc <__aeabi_d2f+0x14>
 8000c62:	ea7f 5362 	mvns.w	r3, r2, asr #21
 8000c66:	d107      	bne.n	8000c78 <__aeabi_d2f+0x90>
 8000c68:	ea50 3301 	orrs.w	r3, r0, r1, lsl #12
 8000c6c:	bf1e      	ittt	ne
 8000c6e:	f04f 40fe 	movne.w	r0, #2130706432	; 0x7f000000
 8000c72:	f440 0040 	orrne.w	r0, r0, #12582912	; 0xc00000
 8000c76:	4770      	bxne	lr
 8000c78:	f001 4000 	and.w	r0, r1, #2147483648	; 0x80000000
 8000c7c:	f040 40fe 	orr.w	r0, r0, #2130706432	; 0x7f000000
 8000c80:	f440 0000 	orr.w	r0, r0, #8388608	; 0x800000
 8000c84:	4770      	bx	lr
 8000c86:	bf00      	nop

08000c88 <__aeabi_uldivmod>:
 8000c88:	b953      	cbnz	r3, 8000ca0 <__aeabi_uldivmod+0x18>
 8000c8a:	b94a      	cbnz	r2, 8000ca0 <__aeabi_uldivmod+0x18>
 8000c8c:	2900      	cmp	r1, #0
 8000c8e:	bf08      	it	eq
 8000c90:	2800      	cmpeq	r0, #0
 8000c92:	bf1c      	itt	ne
 8000c94:	f04f 31ff 	movne.w	r1, #4294967295
 8000c98:	f04f 30ff 	movne.w	r0, #4294967295
 8000c9c:	f000 b972 	b.w	8000f84 <__aeabi_idiv0>
 8000ca0:	f1ad 0c08 	sub.w	ip, sp, #8
 8000ca4:	e96d ce04 	strd	ip, lr, [sp, #-16]!
 8000ca8:	f000 f806 	bl	8000cb8 <__udivmoddi4>
 8000cac:	f8dd e004 	ldr.w	lr, [sp, #4]
 8000cb0:	e9dd 2302 	ldrd	r2, r3, [sp, #8]
 8000cb4:	b004      	add	sp, #16
 8000cb6:	4770      	bx	lr

08000cb8 <__udivmoddi4>:
 8000cb8:	e92d 47f0 	stmdb	sp!, {r4, r5, r6, r7, r8, r9, sl, lr}
 8000cbc:	9e08      	ldr	r6, [sp, #32]
 8000cbe:	4604      	mov	r4, r0
 8000cc0:	4688      	mov	r8, r1
 8000cc2:	2b00      	cmp	r3, #0
 8000cc4:	d14b      	bne.n	8000d5e <__udivmoddi4+0xa6>
 8000cc6:	428a      	cmp	r2, r1
 8000cc8:	4615      	mov	r5, r2
 8000cca:	d967      	bls.n	8000d9c <__udivmoddi4+0xe4>
 8000ccc:	fab2 f282 	clz	r2, r2
 8000cd0:	b14a      	cbz	r2, 8000ce6 <__udivmoddi4+0x2e>
 8000cd2:	f1c2 0720 	rsb	r7, r2, #32
 8000cd6:	fa01 f302 	lsl.w	r3, r1, r2
 8000cda:	fa20 f707 	lsr.w	r7, r0, r7
 8000cde:	4095      	lsls	r5, r2
 8000ce0:	ea47 0803 	orr.w	r8, r7, r3
 8000ce4:	4094      	lsls	r4, r2
 8000ce6:	ea4f 4e15 	mov.w	lr, r5, lsr #16
 8000cea:	0c23      	lsrs	r3, r4, #16
 8000cec:	fbb8 f7fe 	udiv	r7, r8, lr
 8000cf0:	fa1f fc85 	uxth.w	ip, r5
 8000cf4:	fb0e 8817 	mls	r8, lr, r7, r8
 8000cf8:	ea43 4308 	orr.w	r3, r3, r8, lsl #16
 8000cfc:	fb07 f10c 	mul.w	r1, r7, ip
 8000d00:	4299      	cmp	r1, r3
 8000d02:	d909      	bls.n	8000d18 <__udivmoddi4+0x60>
 8000d04:	18eb      	adds	r3, r5, r3
 8000d06:	f107 30ff 	add.w	r0, r7, #4294967295
 8000d0a:	f080 811b 	bcs.w	8000f44 <__udivmoddi4+0x28c>
 8000d0e:	4299      	cmp	r1, r3
 8000d10:	f240 8118 	bls.w	8000f44 <__udivmoddi4+0x28c>
 8000d14:	3f02      	subs	r7, #2
 8000d16:	442b      	add	r3, r5
 8000d18:	1a5b      	subs	r3, r3, r1
 8000d1a:	b2a4      	uxth	r4, r4
 8000d1c:	fbb3 f0fe 	udiv	r0, r3, lr
 8000d20:	fb0e 3310 	mls	r3, lr, r0, r3
 8000d24:	ea44 4403 	orr.w	r4, r4, r3, lsl #16
 8000d28:	fb00 fc0c 	mul.w	ip, r0, ip
 8000d2c:	45a4      	cmp	ip, r4
 8000d2e:	d909      	bls.n	8000d44 <__udivmoddi4+0x8c>
 8000d30:	192c      	adds	r4, r5, r4
 8000d32:	f100 33ff 	add.w	r3, r0, #4294967295
 8000d36:	f080 8107 	bcs.w	8000f48 <__udivmoddi4+0x290>
 8000d3a:	45a4      	cmp	ip, r4
 8000d3c:	f240 8104 	bls.w	8000f48 <__udivmoddi4+0x290>
 8000d40:	3802      	subs	r0, #2
 8000d42:	442c      	add	r4, r5
 8000d44:	ea40 4007 	orr.w	r0, r0, r7, lsl #16
 8000d48:	eba4 040c 	sub.w	r4, r4, ip
 8000d4c:	2700      	movs	r7, #0
 8000d4e:	b11e      	cbz	r6, 8000d58 <__udivmoddi4+0xa0>
 8000d50:	40d4      	lsrs	r4, r2
 8000d52:	2300      	movs	r3, #0
 8000d54:	e9c6 4300 	strd	r4, r3, [r6]
 8000d58:	4639      	mov	r1, r7
 8000d5a:	e8bd 87f0 	ldmia.w	sp!, {r4, r5, r6, r7, r8, r9, sl, pc}
 8000d5e:	428b      	cmp	r3, r1
 8000d60:	d909      	bls.n	8000d76 <__udivmoddi4+0xbe>
 8000d62:	2e00      	cmp	r6, #0
 8000d64:	f000 80eb 	beq.w	8000f3e <__udivmoddi4+0x286>
 8000d68:	2700      	movs	r7, #0
 8000d6a:	e9c6 0100 	strd	r0, r1, [r6]
 8000d6e:	4638      	mov	r0, r7
 8000d70:	4639      	mov	r1, r7
 8000d72:	e8bd 87f0 	ldmia.w	sp!, {r4, r5, r6, r7, r8, r9, sl, pc}
 8000d76:	fab3 f783 	clz	r7, r3
 8000d7a:	2f00      	cmp	r7, #0
 8000d7c:	d147      	bne.n	8000e0e <__udivmoddi4+0x156>
 8000d7e:	428b      	cmp	r3, r1
 8000d80:	d302      	bcc.n	8000d88 <__udivmoddi4+0xd0>
 8000d82:	4282      	cmp	r2, r0
 8000d84:	f200 80fa 	bhi.w	8000f7c <__udivmoddi4+0x2c4>
 8000d88:	1a84      	subs	r4, r0, r2
 8000d8a:	eb61 0303 	sbc.w	r3, r1, r3
 8000d8e:	2001      	movs	r0, #1
 8000d90:	4698      	mov	r8, r3
 8000d92:	2e00      	cmp	r6, #0
 8000d94:	d0e0      	beq.n	8000d58 <__udivmoddi4+0xa0>
 8000d96:	e9c6 4800 	strd	r4, r8, [r6]
 8000d9a:	e7dd      	b.n	8000d58 <__udivmoddi4+0xa0>
 8000d9c:	b902      	cbnz	r2, 8000da0 <__udivmoddi4+0xe8>
 8000d9e:	deff      	udf	#255	; 0xff
 8000da0:	fab2 f282 	clz	r2, r2
 8000da4:	2a00      	cmp	r2, #0
 8000da6:	f040 808f 	bne.w	8000ec8 <__udivmoddi4+0x210>
 8000daa:	1b49      	subs	r1, r1, r5
 8000dac:	ea4f 4e15 	mov.w	lr, r5, lsr #16
 8000db0:	fa1f f885 	uxth.w	r8, r5
 8000db4:	2701      	movs	r7, #1
 8000db6:	fbb1 fcfe 	udiv	ip, r1, lr
 8000dba:	0c23      	lsrs	r3, r4, #16
 8000dbc:	fb0e 111c 	mls	r1, lr, ip, r1
 8000dc0:	ea43 4301 	orr.w	r3, r3, r1, lsl #16
 8000dc4:	fb08 f10c 	mul.w	r1, r8, ip
 8000dc8:	4299      	cmp	r1, r3
 8000dca:	d907      	bls.n	8000ddc <__udivmoddi4+0x124>
 8000dcc:	18eb      	adds	r3, r5, r3
 8000dce:	f10c 30ff 	add.w	r0, ip, #4294967295
 8000dd2:	d202      	bcs.n	8000dda <__udivmoddi4+0x122>
 8000dd4:	4299      	cmp	r1, r3
 8000dd6:	f200 80cd 	bhi.w	8000f74 <__udivmoddi4+0x2bc>
 8000dda:	4684      	mov	ip, r0
 8000ddc:	1a59      	subs	r1, r3, r1
 8000dde:	b2a3      	uxth	r3, r4
 8000de0:	fbb1 f0fe 	udiv	r0, r1, lr
 8000de4:	fb0e 1410 	mls	r4, lr, r0, r1
 8000de8:	ea43 4404 	orr.w	r4, r3, r4, lsl #16
 8000dec:	fb08 f800 	mul.w	r8, r8, r0
 8000df0:	45a0      	cmp	r8, r4
 8000df2:	d907      	bls.n	8000e04 <__udivmoddi4+0x14c>
 8000df4:	192c      	adds	r4, r5, r4
 8000df6:	f100 33ff 	add.w	r3, r0, #4294967295
 8000dfa:	d202      	bcs.n	8000e02 <__udivmoddi4+0x14a>
 8000dfc:	45a0      	cmp	r8, r4
 8000dfe:	f200 80b6 	bhi.w	8000f6e <__udivmoddi4+0x2b6>
 8000e02:	4618      	mov	r0, r3
 8000e04:	eba4 0408 	sub.w	r4, r4, r8
 8000e08:	ea40 400c 	orr.w	r0, r0, ip, lsl #16
 8000e0c:	e79f      	b.n	8000d4e <__udivmoddi4+0x96>
 8000e0e:	f1c7 0c20 	rsb	ip, r7, #32
 8000e12:	40bb      	lsls	r3, r7
 8000e14:	fa22 fe0c 	lsr.w	lr, r2, ip
 8000e18:	ea4e 0e03 	orr.w	lr, lr, r3
 8000e1c:	fa01 f407 	lsl.w	r4, r1, r7
 8000e20:	fa20 f50c 	lsr.w	r5, r0, ip
 8000e24:	fa21 f30c 	lsr.w	r3, r1, ip
 8000e28:	ea4f 481e 	mov.w	r8, lr, lsr #16
 8000e2c:	4325      	orrs	r5, r4
 8000e2e:	fbb3 f9f8 	udiv	r9, r3, r8
 8000e32:	0c2c      	lsrs	r4, r5, #16
 8000e34:	fb08 3319 	mls	r3, r8, r9, r3
 8000e38:	fa1f fa8e 	uxth.w	sl, lr
 8000e3c:	ea44 4303 	orr.w	r3, r4, r3, lsl #16
 8000e40:	fb09 f40a 	mul.w	r4, r9, sl
 8000e44:	429c      	cmp	r4, r3
 8000e46:	fa02 f207 	lsl.w	r2, r2, r7
 8000e4a:	fa00 f107 	lsl.w	r1, r0, r7
 8000e4e:	d90b      	bls.n	8000e68 <__udivmoddi4+0x1b0>
 8000e50:	eb1e 0303 	adds.w	r3, lr, r3
 8000e54:	f109 30ff 	add.w	r0, r9, #4294967295
 8000e58:	f080 8087 	bcs.w	8000f6a <__udivmoddi4+0x2b2>
 8000e5c:	429c      	cmp	r4, r3
 8000e5e:	f240 8084 	bls.w	8000f6a <__udivmoddi4+0x2b2>
 8000e62:	f1a9 0902 	sub.w	r9, r9, #2
 8000e66:	4473      	add	r3, lr
 8000e68:	1b1b      	subs	r3, r3, r4
 8000e6a:	b2ad      	uxth	r5, r5
 8000e6c:	fbb3 f0f8 	udiv	r0, r3, r8
 8000e70:	fb08 3310 	mls	r3, r8, r0, r3
 8000e74:	ea45 4403 	orr.w	r4, r5, r3, lsl #16
 8000e78:	fb00 fa0a 	mul.w	sl, r0, sl
 8000e7c:	45a2      	cmp	sl, r4
 8000e7e:	d908      	bls.n	8000e92 <__udivmoddi4+0x1da>
 8000e80:	eb1e 0404 	adds.w	r4, lr, r4
 8000e84:	f100 33ff 	add.w	r3, r0, #4294967295
 8000e88:	d26b      	bcs.n	8000f62 <__udivmoddi4+0x2aa>
 8000e8a:	45a2      	cmp	sl, r4
 8000e8c:	d969      	bls.n	8000f62 <__udivmoddi4+0x2aa>
 8000e8e:	3802      	subs	r0, #2
 8000e90:	4474      	add	r4, lr
 8000e92:	ea40 4009 	orr.w	r0, r0, r9, lsl #16
 8000e96:	fba0 8902 	umull	r8, r9, r0, r2
 8000e9a:	eba4 040a 	sub.w	r4, r4, sl
 8000e9e:	454c      	cmp	r4, r9
 8000ea0:	46c2      	mov	sl, r8
 8000ea2:	464b      	mov	r3, r9
 8000ea4:	d354      	bcc.n	8000f50 <__udivmoddi4+0x298>
 8000ea6:	d051      	beq.n	8000f4c <__udivmoddi4+0x294>
 8000ea8:	2e00      	cmp	r6, #0
 8000eaa:	d069      	beq.n	8000f80 <__udivmoddi4+0x2c8>
 8000eac:	ebb1 050a 	subs.w	r5, r1, sl
 8000eb0:	eb64 0403 	sbc.w	r4, r4, r3
 8000eb4:	fa04 fc0c 	lsl.w	ip, r4, ip
 8000eb8:	40fd      	lsrs	r5, r7
 8000eba:	40fc      	lsrs	r4, r7
 8000ebc:	ea4c 0505 	orr.w	r5, ip, r5
 8000ec0:	e9c6 5400 	strd	r5, r4, [r6]
 8000ec4:	2700      	movs	r7, #0
 8000ec6:	e747      	b.n	8000d58 <__udivmoddi4+0xa0>
 8000ec8:	f1c2 0320 	rsb	r3, r2, #32
 8000ecc:	fa20 f703 	lsr.w	r7, r0, r3
 8000ed0:	4095      	lsls	r5, r2
 8000ed2:	fa01 f002 	lsl.w	r0, r1, r2
 8000ed6:	fa21 f303 	lsr.w	r3, r1, r3
 8000eda:	ea4f 4e15 	mov.w	lr, r5, lsr #16
 8000ede:	4338      	orrs	r0, r7
 8000ee0:	0c01      	lsrs	r1, r0, #16
 8000ee2:	fbb3 f7fe 	udiv	r7, r3, lr
 8000ee6:	fa1f f885 	uxth.w	r8, r5
 8000eea:	fb0e 3317 	mls	r3, lr, r7, r3
 8000eee:	ea41 4103 	orr.w	r1, r1, r3, lsl #16
 8000ef2:	fb07 f308 	mul.w	r3, r7, r8
 8000ef6:	428b      	cmp	r3, r1
 8000ef8:	fa04 f402 	lsl.w	r4, r4, r2
 8000efc:	d907      	bls.n	8000f0e <__udivmoddi4+0x256>
 8000efe:	1869      	adds	r1, r5, r1
 8000f00:	f107 3cff 	add.w	ip, r7, #4294967295
 8000f04:	d22f      	bcs.n	8000f66 <__udivmoddi4+0x2ae>
 8000f06:	428b      	cmp	r3, r1
 8000f08:	d92d      	bls.n	8000f66 <__udivmoddi4+0x2ae>
 8000f0a:	3f02      	subs	r7, #2
 8000f0c:	4429      	add	r1, r5
 8000f0e:	1acb      	subs	r3, r1, r3
 8000f10:	b281      	uxth	r1, r0
 8000f12:	fbb3 f0fe 	udiv	r0, r3, lr
 8000f16:	fb0e 3310 	mls	r3, lr, r0, r3
 8000f1a:	ea41 4103 	orr.w	r1, r1, r3, lsl #16
 8000f1e:	fb00 f308 	mul.w	r3, r0, r8
 8000f22:	428b      	cmp	r3, r1
 8000f24:	d907      	bls.n	8000f36 <__udivmoddi4+0x27e>
 8000f26:	1869      	adds	r1, r5, r1
 8000f28:	f100 3cff 	add.w	ip, r0, #4294967295
 8000f2c:	d217      	bcs.n	8000f5e <__udivmoddi4+0x2a6>
 8000f2e:	428b      	cmp	r3, r1
 8000f30:	d915      	bls.n	8000f5e <__udivmoddi4+0x2a6>
 8000f32:	3802      	subs	r0, #2
 8000f34:	4429      	add	r1, r5
 8000f36:	1ac9      	subs	r1, r1, r3
 8000f38:	ea40 4707 	orr.w	r7, r0, r7, lsl #16
 8000f3c:	e73b      	b.n	8000db6 <__udivmoddi4+0xfe>
 8000f3e:	4637      	mov	r7, r6
 8000f40:	4630      	mov	r0, r6
 8000f42:	e709      	b.n	8000d58 <__udivmoddi4+0xa0>
 8000f44:	4607      	mov	r7, r0
 8000f46:	e6e7      	b.n	8000d18 <__udivmoddi4+0x60>
 8000f48:	4618      	mov	r0, r3
 8000f4a:	e6fb      	b.n	8000d44 <__udivmoddi4+0x8c>
 8000f4c:	4541      	cmp	r1, r8
 8000f4e:	d2ab      	bcs.n	8000ea8 <__udivmoddi4+0x1f0>
 8000f50:	ebb8 0a02 	subs.w	sl, r8, r2
 8000f54:	eb69 020e 	sbc.w	r2, r9, lr
 8000f58:	3801      	subs	r0, #1
 8000f5a:	4613      	mov	r3, r2
 8000f5c:	e7a4      	b.n	8000ea8 <__udivmoddi4+0x1f0>
 8000f5e:	4660      	mov	r0, ip
 8000f60:	e7e9      	b.n	8000f36 <__udivmoddi4+0x27e>
 8000f62:	4618      	mov	r0, r3
 8000f64:	e795      	b.n	8000e92 <__udivmoddi4+0x1da>
 8000f66:	4667      	mov	r7, ip
 8000f68:	e7d1      	b.n	8000f0e <__udivmoddi4+0x256>
 8000f6a:	4681      	mov	r9, r0
 8000f6c:	e77c      	b.n	8000e68 <__udivmoddi4+0x1b0>
 8000f6e:	3802      	subs	r0, #2
 8000f70:	442c      	add	r4, r5
 8000f72:	e747      	b.n	8000e04 <__udivmoddi4+0x14c>
 8000f74:	f1ac 0c02 	sub.w	ip, ip, #2
 8000f78:	442b      	add	r3, r5
 8000f7a:	e72f      	b.n	8000ddc <__udivmoddi4+0x124>
 8000f7c:	4638      	mov	r0, r7
 8000f7e:	e708      	b.n	8000d92 <__udivmoddi4+0xda>
 8000f80:	4637      	mov	r7, r6
 8000f82:	e6e9      	b.n	8000d58 <__udivmoddi4+0xa0>

08000f84 <__aeabi_idiv0>:
 8000f84:	4770      	bx	lr
 8000f86:	bf00      	nop

08000f88 <main>:
/**
  * @brief  The application entry point.
  * @retval int
  */
int main(void)
{
 8000f88:	b590      	push	{r4, r7, lr}
 8000f8a:	b08b      	sub	sp, #44	; 0x2c
 8000f8c:	af00      	add	r7, sp, #0
  /* USER CODE END 1 */

  /* MCU Configuration--------------------------------------------------------*/

  /* Reset of all peripherals, Initializes the Flash interface and the Systick. */
  HAL_Init();
 8000f8e:	f000 fc5b 	bl	8001848 <HAL_Init>
  /* USER CODE BEGIN Init */

  /* USER CODE END Init */

  /* Configure the system clock */
  SystemClock_Config();
 8000f92:	f000 f933 	bl	80011fc <SystemClock_Config>
  /* USER CODE BEGIN SysInit */

  /* USER CODE END SysInit */

  /* Initialize all configured peripherals */
  MX_GPIO_Init();
 8000f96:	f000 fa3f 	bl	8001418 <MX_GPIO_Init>
  MX_DMA_Init();
 8000f9a:	f000 fa1d 	bl	80013d8 <MX_DMA_Init>
  MX_USART2_UART_Init();
 8000f9e:	f000 f9f1 	bl	8001384 <MX_USART2_UART_Init>
  MX_ADC1_Init();
 8000fa2:	f000 f99d 	bl	80012e0 <MX_ADC1_Init>
  /* USER CODE BEGIN 2 */
  HAL_GPIO_WritePin(GPIOA, LD2_Pin, GPIO_PIN_SET);
 8000fa6:	2201      	movs	r2, #1
 8000fa8:	2120      	movs	r1, #32
 8000faa:	4889      	ldr	r0, [pc, #548]	; (80011d0 <main+0x248>)
 8000fac:	f001 feec 	bl	8002d88 <HAL_GPIO_WritePin>
  HAL_GPIO_WritePin(GPIOA, GPIO_PIN_10, GPIO_PIN_SET);
 8000fb0:	2201      	movs	r2, #1
 8000fb2:	f44f 6180 	mov.w	r1, #1024	; 0x400
 8000fb6:	4886      	ldr	r0, [pc, #536]	; (80011d0 <main+0x248>)
 8000fb8:	f001 fee6 	bl	8002d88 <HAL_GPIO_WritePin>
  HAL_Delay(LASER_DELAY);
 8000fbc:	2019      	movs	r0, #25
 8000fbe:	f000 fcb5 	bl	800192c <HAL_Delay>
  HAL_ADC_Start_DMA(&hadc1, (uint32_t*)adc_buf, ADC_BUF_LEN);
 8000fc2:	f44f 5200 	mov.w	r2, #8192	; 0x2000
 8000fc6:	4983      	ldr	r1, [pc, #524]	; (80011d4 <main+0x24c>)
 8000fc8:	4883      	ldr	r0, [pc, #524]	; (80011d8 <main+0x250>)
 8000fca:	f000 fd15 	bl	80019f8 <HAL_ADC_Start_DMA>

  /* Infinite loop */
  /* USER CODE BEGIN WHILE */
  while (1)
  {
	if (state == 1) {
 8000fce:	4b83      	ldr	r3, [pc, #524]	; (80011dc <main+0x254>)
 8000fd0:	681b      	ldr	r3, [r3, #0]
 8000fd2:	2b01      	cmp	r3, #1
 8000fd4:	d158      	bne.n	8001088 <main+0x100>
		HAL_GPIO_WritePin(GPIOA, GPIO_PIN_10, GPIO_PIN_RESET);
 8000fd6:	2200      	movs	r2, #0
 8000fd8:	f44f 6180 	mov.w	r1, #1024	; 0x400
 8000fdc:	487c      	ldr	r0, [pc, #496]	; (80011d0 <main+0x248>)
 8000fde:	f001 fed3 	bl	8002d88 <HAL_GPIO_WritePin>
		HAL_Delay(COOLDOWN);
 8000fe2:	2064      	movs	r0, #100	; 0x64
 8000fe4:	f000 fca2 	bl	800192c <HAL_Delay>
		for (int j = 0; j < ADC_BUF_LEN; j++) {
 8000fe8:	2300      	movs	r3, #0
 8000fea:	627b      	str	r3, [r7, #36]	; 0x24
 8000fec:	e029      	b.n	8001042 <main+0xba>
			avgs[j] = (avgs[j] * pass + adc_buf[j]) / (pass + 1);
 8000fee:	4a7c      	ldr	r2, [pc, #496]	; (80011e0 <main+0x258>)
 8000ff0:	6a7b      	ldr	r3, [r7, #36]	; 0x24
 8000ff2:	009b      	lsls	r3, r3, #2
 8000ff4:	4413      	add	r3, r2
 8000ff6:	ed93 7a00 	vldr	s14, [r3]
 8000ffa:	4b7a      	ldr	r3, [pc, #488]	; (80011e4 <main+0x25c>)
 8000ffc:	681b      	ldr	r3, [r3, #0]
 8000ffe:	ee07 3a90 	vmov	s15, r3
 8001002:	eef8 7ae7 	vcvt.f32.s32	s15, s15
 8001006:	ee27 7a27 	vmul.f32	s14, s14, s15
 800100a:	4a72      	ldr	r2, [pc, #456]	; (80011d4 <main+0x24c>)
 800100c:	6a7b      	ldr	r3, [r7, #36]	; 0x24
 800100e:	f832 3013 	ldrh.w	r3, [r2, r3, lsl #1]
 8001012:	ee07 3a90 	vmov	s15, r3
 8001016:	eef8 7ae7 	vcvt.f32.s32	s15, s15
 800101a:	ee77 6a27 	vadd.f32	s13, s14, s15
 800101e:	4b71      	ldr	r3, [pc, #452]	; (80011e4 <main+0x25c>)
 8001020:	681b      	ldr	r3, [r3, #0]
 8001022:	3301      	adds	r3, #1
 8001024:	ee07 3a90 	vmov	s15, r3
 8001028:	eeb8 7ae7 	vcvt.f32.s32	s14, s15
 800102c:	eec6 7a87 	vdiv.f32	s15, s13, s14
 8001030:	4a6b      	ldr	r2, [pc, #428]	; (80011e0 <main+0x258>)
 8001032:	6a7b      	ldr	r3, [r7, #36]	; 0x24
 8001034:	009b      	lsls	r3, r3, #2
 8001036:	4413      	add	r3, r2
 8001038:	edc3 7a00 	vstr	s15, [r3]
		for (int j = 0; j < ADC_BUF_LEN; j++) {
 800103c:	6a7b      	ldr	r3, [r7, #36]	; 0x24
 800103e:	3301      	adds	r3, #1
 8001040:	627b      	str	r3, [r7, #36]	; 0x24
 8001042:	6a7b      	ldr	r3, [r7, #36]	; 0x24
 8001044:	f5b3 5f00 	cmp.w	r3, #8192	; 0x2000
 8001048:	dbd1      	blt.n	8000fee <main+0x66>
		}
		pass += 1;
 800104a:	4b66      	ldr	r3, [pc, #408]	; (80011e4 <main+0x25c>)
 800104c:	681b      	ldr	r3, [r3, #0]
 800104e:	3301      	adds	r3, #1
 8001050:	4a64      	ldr	r2, [pc, #400]	; (80011e4 <main+0x25c>)
 8001052:	6013      	str	r3, [r2, #0]
		if (pass == NUM_PASSES) {
 8001054:	4b63      	ldr	r3, [pc, #396]	; (80011e4 <main+0x25c>)
 8001056:	681b      	ldr	r3, [r3, #0]
 8001058:	2b01      	cmp	r3, #1
 800105a:	d103      	bne.n	8001064 <main+0xdc>
			state = 2;
 800105c:	4b5f      	ldr	r3, [pc, #380]	; (80011dc <main+0x254>)
 800105e:	2202      	movs	r2, #2
 8001060:	601a      	str	r2, [r3, #0]
 8001062:	e011      	b.n	8001088 <main+0x100>
		} else {
			state = 0;
 8001064:	4b5d      	ldr	r3, [pc, #372]	; (80011dc <main+0x254>)
 8001066:	2200      	movs	r2, #0
 8001068:	601a      	str	r2, [r3, #0]
			HAL_GPIO_WritePin(GPIOA, GPIO_PIN_10, GPIO_PIN_SET);
 800106a:	2201      	movs	r2, #1
 800106c:	f44f 6180 	mov.w	r1, #1024	; 0x400
 8001070:	4857      	ldr	r0, [pc, #348]	; (80011d0 <main+0x248>)
 8001072:	f001 fe89 	bl	8002d88 <HAL_GPIO_WritePin>
			HAL_Delay(LASER_DELAY);
 8001076:	2019      	movs	r0, #25
 8001078:	f000 fc58 	bl	800192c <HAL_Delay>
			HAL_ADC_Start_DMA(&hadc1, (uint32_t*)adc_buf, ADC_BUF_LEN);
 800107c:	f44f 5200 	mov.w	r2, #8192	; 0x2000
 8001080:	4954      	ldr	r1, [pc, #336]	; (80011d4 <main+0x24c>)
 8001082:	4855      	ldr	r0, [pc, #340]	; (80011d8 <main+0x250>)
 8001084:	f000 fcb8 	bl	80019f8 <HAL_ADC_Start_DMA>
		}
	}
	if (state == 2) {
 8001088:	4b54      	ldr	r3, [pc, #336]	; (80011dc <main+0x254>)
 800108a:	681b      	ldr	r3, [r3, #0]
 800108c:	2b02      	cmp	r3, #2
 800108e:	d16e      	bne.n	800116e <main+0x1e6>
			}
			while(1) {

			}
		} else {
			HAL_GPIO_TogglePin(GPIOA, LD2_Pin);
 8001090:	2120      	movs	r1, #32
 8001092:	484f      	ldr	r0, [pc, #316]	; (80011d0 <main+0x248>)
 8001094:	f001 fe91 	bl	8002dba <HAL_GPIO_TogglePin>
			float average = 0;
 8001098:	f04f 0300 	mov.w	r3, #0
 800109c:	617b      	str	r3, [r7, #20]
			int total = 0;
 800109e:	2300      	movs	r3, #0
 80010a0:	623b      	str	r3, [r7, #32]
			for (int j = 0; j < ADC_BUF_LEN; j++) {
 80010a2:	2300      	movs	r3, #0
 80010a4:	61fb      	str	r3, [r7, #28]
 80010a6:	e014      	b.n	80010d2 <main+0x14a>
				total += avgs[j];
 80010a8:	6a3b      	ldr	r3, [r7, #32]
 80010aa:	ee07 3a90 	vmov	s15, r3
 80010ae:	eeb8 7ae7 	vcvt.f32.s32	s14, s15
 80010b2:	4a4b      	ldr	r2, [pc, #300]	; (80011e0 <main+0x258>)
 80010b4:	69fb      	ldr	r3, [r7, #28]
 80010b6:	009b      	lsls	r3, r3, #2
 80010b8:	4413      	add	r3, r2
 80010ba:	edd3 7a00 	vldr	s15, [r3]
 80010be:	ee77 7a27 	vadd.f32	s15, s14, s15
 80010c2:	eefd 7ae7 	vcvt.s32.f32	s15, s15
 80010c6:	ee17 3a90 	vmov	r3, s15
 80010ca:	623b      	str	r3, [r7, #32]
			for (int j = 0; j < ADC_BUF_LEN; j++) {
 80010cc:	69fb      	ldr	r3, [r7, #28]
 80010ce:	3301      	adds	r3, #1
 80010d0:	61fb      	str	r3, [r7, #28]
 80010d2:	69fb      	ldr	r3, [r7, #28]
 80010d4:	f5b3 5f00 	cmp.w	r3, #8192	; 0x2000
 80010d8:	dbe6      	blt.n	80010a8 <main+0x120>
			}
			average = 3.3 * (total / ADC_BUF_LEN) / 4096;
 80010da:	6a3b      	ldr	r3, [r7, #32]
 80010dc:	2b00      	cmp	r3, #0
 80010de:	da02      	bge.n	80010e6 <main+0x15e>
 80010e0:	f503 53ff 	add.w	r3, r3, #8160	; 0x1fe0
 80010e4:	331f      	adds	r3, #31
 80010e6:	135b      	asrs	r3, r3, #13
 80010e8:	4618      	mov	r0, r3
 80010ea:	f7ff fa3b 	bl	8000564 <__aeabi_i2d>
 80010ee:	a336      	add	r3, pc, #216	; (adr r3, 80011c8 <main+0x240>)
 80010f0:	e9d3 2300 	ldrd	r2, r3, [r3]
 80010f4:	f7ff faa0 	bl	8000638 <__aeabi_dmul>
 80010f8:	4603      	mov	r3, r0
 80010fa:	460c      	mov	r4, r1
 80010fc:	4618      	mov	r0, r3
 80010fe:	4621      	mov	r1, r4
 8001100:	f04f 0200 	mov.w	r2, #0
 8001104:	4b38      	ldr	r3, [pc, #224]	; (80011e8 <main+0x260>)
 8001106:	f7ff fbc1 	bl	800088c <__aeabi_ddiv>
 800110a:	4603      	mov	r3, r0
 800110c:	460c      	mov	r4, r1
 800110e:	4618      	mov	r0, r3
 8001110:	4621      	mov	r1, r4
 8001112:	f7ff fd69 	bl	8000be8 <__aeabi_d2f>
 8001116:	4603      	mov	r3, r0
 8001118:	617b      	str	r3, [r7, #20]
			freqs[freq] = average;
 800111a:	4b34      	ldr	r3, [pc, #208]	; (80011ec <main+0x264>)
 800111c:	681b      	ldr	r3, [r3, #0]
 800111e:	4a34      	ldr	r2, [pc, #208]	; (80011f0 <main+0x268>)
 8001120:	009b      	lsls	r3, r3, #2
 8001122:	4413      	add	r3, r2
 8001124:	697a      	ldr	r2, [r7, #20]
 8001126:	601a      	str	r2, [r3, #0]
			freq += 1;
 8001128:	4b30      	ldr	r3, [pc, #192]	; (80011ec <main+0x264>)
 800112a:	681b      	ldr	r3, [r3, #0]
 800112c:	3301      	adds	r3, #1
 800112e:	4a2f      	ldr	r2, [pc, #188]	; (80011ec <main+0x264>)
 8001130:	6013      	str	r3, [r2, #0]
			if (freq == NUM_FREQS) {
 8001132:	4b2e      	ldr	r3, [pc, #184]	; (80011ec <main+0x264>)
 8001134:	681b      	ldr	r3, [r3, #0]
 8001136:	f5b3 7ffa 	cmp.w	r3, #500	; 0x1f4
 800113a:	d103      	bne.n	8001144 <main+0x1bc>
				state = 3;
 800113c:	4b27      	ldr	r3, [pc, #156]	; (80011dc <main+0x254>)
 800113e:	2203      	movs	r2, #3
 8001140:	601a      	str	r2, [r3, #0]
 8001142:	e014      	b.n	800116e <main+0x1e6>
			} else {
				pass = 0;
 8001144:	4b27      	ldr	r3, [pc, #156]	; (80011e4 <main+0x25c>)
 8001146:	2200      	movs	r2, #0
 8001148:	601a      	str	r2, [r3, #0]
				state = 0;
 800114a:	4b24      	ldr	r3, [pc, #144]	; (80011dc <main+0x254>)
 800114c:	2200      	movs	r2, #0
 800114e:	601a      	str	r2, [r3, #0]
				HAL_GPIO_WritePin(GPIOA, GPIO_PIN_10, GPIO_PIN_SET);
 8001150:	2201      	movs	r2, #1
 8001152:	f44f 6180 	mov.w	r1, #1024	; 0x400
 8001156:	481e      	ldr	r0, [pc, #120]	; (80011d0 <main+0x248>)
 8001158:	f001 fe16 	bl	8002d88 <HAL_GPIO_WritePin>
				HAL_Delay(LASER_DELAY);
 800115c:	2019      	movs	r0, #25
 800115e:	f000 fbe5 	bl	800192c <HAL_Delay>
				HAL_ADC_Start_DMA(&hadc1, (uint32_t*)adc_buf, ADC_BUF_LEN);
 8001162:	f44f 5200 	mov.w	r2, #8192	; 0x2000
 8001166:	491b      	ldr	r1, [pc, #108]	; (80011d4 <main+0x24c>)
 8001168:	481b      	ldr	r0, [pc, #108]	; (80011d8 <main+0x250>)
 800116a:	f000 fc45 	bl	80019f8 <HAL_ADC_Start_DMA>
			}
		}

	}
	if (state == 3) {
 800116e:	4b1b      	ldr	r3, [pc, #108]	; (80011dc <main+0x254>)
 8001170:	681b      	ldr	r3, [r3, #0]
 8001172:	2b03      	cmp	r3, #3
 8001174:	f47f af2b 	bne.w	8000fce <main+0x46>
		for (int j = 0; j < NUM_FREQS; j++) {
 8001178:	2300      	movs	r3, #0
 800117a:	61bb      	str	r3, [r7, #24]
 800117c:	e01e      	b.n	80011bc <main+0x234>
			sprintf(msg, "%f\n", freqs[j]);
 800117e:	4a1c      	ldr	r2, [pc, #112]	; (80011f0 <main+0x268>)
 8001180:	69bb      	ldr	r3, [r7, #24]
 8001182:	009b      	lsls	r3, r3, #2
 8001184:	4413      	add	r3, r2
 8001186:	681b      	ldr	r3, [r3, #0]
 8001188:	4618      	mov	r0, r3
 800118a:	f7ff f9fd 	bl	8000588 <__aeabi_f2d>
 800118e:	4603      	mov	r3, r0
 8001190:	460c      	mov	r4, r1
 8001192:	1d38      	adds	r0, r7, #4
 8001194:	461a      	mov	r2, r3
 8001196:	4623      	mov	r3, r4
 8001198:	4916      	ldr	r1, [pc, #88]	; (80011f4 <main+0x26c>)
 800119a:	f003 fcc7 	bl	8004b2c <siprintf>
			HAL_UART_Transmit(&huart2, (uint8_t*)msg, strlen(msg), HAL_MAX_DELAY);
 800119e:	1d3b      	adds	r3, r7, #4
 80011a0:	4618      	mov	r0, r3
 80011a2:	f7ff f835 	bl	8000210 <strlen>
 80011a6:	4603      	mov	r3, r0
 80011a8:	b29a      	uxth	r2, r3
 80011aa:	1d39      	adds	r1, r7, #4
 80011ac:	f04f 33ff 	mov.w	r3, #4294967295
 80011b0:	4811      	ldr	r0, [pc, #68]	; (80011f8 <main+0x270>)
 80011b2:	f002 fbce 	bl	8003952 <HAL_UART_Transmit>
		for (int j = 0; j < NUM_FREQS; j++) {
 80011b6:	69bb      	ldr	r3, [r7, #24]
 80011b8:	3301      	adds	r3, #1
 80011ba:	61bb      	str	r3, [r7, #24]
 80011bc:	69bb      	ldr	r3, [r7, #24]
 80011be:	f5b3 7ffa 	cmp.w	r3, #500	; 0x1f4
 80011c2:	dbdc      	blt.n	800117e <main+0x1f6>
		}
		while (1) {
 80011c4:	e7fe      	b.n	80011c4 <main+0x23c>
 80011c6:	bf00      	nop
 80011c8:	66666666 	.word	0x66666666
 80011cc:	400a6666 	.word	0x400a6666
 80011d0:	40020000 	.word	0x40020000
 80011d4:	200082b8 	.word	0x200082b8
 80011d8:	20008210 	.word	0x20008210
 80011dc:	200001fc 	.word	0x200001fc
 80011e0:	20000210 	.word	0x20000210
 80011e4:	20000200 	.word	0x20000200
 80011e8:	40b00000 	.word	0x40b00000
 80011ec:	200001f8 	.word	0x200001f8
 80011f0:	2000c2b8 	.word	0x2000c2b8
 80011f4:	08006308 	.word	0x08006308
 80011f8:	2000ca88 	.word	0x2000ca88

080011fc <SystemClock_Config>:
/**
  * @brief System Clock Configuration
  * @retval None
  */
void SystemClock_Config(void)
{
 80011fc:	b580      	push	{r7, lr}
 80011fe:	b094      	sub	sp, #80	; 0x50
 8001200:	af00      	add	r7, sp, #0
  RCC_OscInitTypeDef RCC_OscInitStruct = {0};
 8001202:	f107 031c 	add.w	r3, r7, #28
 8001206:	2234      	movs	r2, #52	; 0x34
 8001208:	2100      	movs	r1, #0
 800120a:	4618      	mov	r0, r3
 800120c:	f003 f82a 	bl	8004264 <memset>
  RCC_ClkInitTypeDef RCC_ClkInitStruct = {0};
 8001210:	f107 0308 	add.w	r3, r7, #8
 8001214:	2200      	movs	r2, #0
 8001216:	601a      	str	r2, [r3, #0]
 8001218:	605a      	str	r2, [r3, #4]
 800121a:	609a      	str	r2, [r3, #8]
 800121c:	60da      	str	r2, [r3, #12]
 800121e:	611a      	str	r2, [r3, #16]

  /** Configure the main internal regulator output voltage
  */
  __HAL_RCC_PWR_CLK_ENABLE();
 8001220:	2300      	movs	r3, #0
 8001222:	607b      	str	r3, [r7, #4]
 8001224:	4b2c      	ldr	r3, [pc, #176]	; (80012d8 <SystemClock_Config+0xdc>)
 8001226:	6c1b      	ldr	r3, [r3, #64]	; 0x40
 8001228:	4a2b      	ldr	r2, [pc, #172]	; (80012d8 <SystemClock_Config+0xdc>)
 800122a:	f043 5380 	orr.w	r3, r3, #268435456	; 0x10000000
 800122e:	6413      	str	r3, [r2, #64]	; 0x40
 8001230:	4b29      	ldr	r3, [pc, #164]	; (80012d8 <SystemClock_Config+0xdc>)
 8001232:	6c1b      	ldr	r3, [r3, #64]	; 0x40
 8001234:	f003 5380 	and.w	r3, r3, #268435456	; 0x10000000
 8001238:	607b      	str	r3, [r7, #4]
 800123a:	687b      	ldr	r3, [r7, #4]
  __HAL_PWR_VOLTAGESCALING_CONFIG(PWR_REGULATOR_VOLTAGE_SCALE1);
 800123c:	2300      	movs	r3, #0
 800123e:	603b      	str	r3, [r7, #0]
 8001240:	4b26      	ldr	r3, [pc, #152]	; (80012dc <SystemClock_Config+0xe0>)
 8001242:	681b      	ldr	r3, [r3, #0]
 8001244:	4a25      	ldr	r2, [pc, #148]	; (80012dc <SystemClock_Config+0xe0>)
 8001246:	f443 4340 	orr.w	r3, r3, #49152	; 0xc000
 800124a:	6013      	str	r3, [r2, #0]
 800124c:	4b23      	ldr	r3, [pc, #140]	; (80012dc <SystemClock_Config+0xe0>)
 800124e:	681b      	ldr	r3, [r3, #0]
 8001250:	f403 4340 	and.w	r3, r3, #49152	; 0xc000
 8001254:	603b      	str	r3, [r7, #0]
 8001256:	683b      	ldr	r3, [r7, #0]
  /** Initializes the RCC Oscillators according to the specified parameters
  * in the RCC_OscInitTypeDef structure.
  */
  RCC_OscInitStruct.OscillatorType = RCC_OSCILLATORTYPE_HSI;
 8001258:	2302      	movs	r3, #2
 800125a:	61fb      	str	r3, [r7, #28]
  RCC_OscInitStruct.HSIState = RCC_HSI_ON;
 800125c:	2301      	movs	r3, #1
 800125e:	62bb      	str	r3, [r7, #40]	; 0x28
  RCC_OscInitStruct.HSICalibrationValue = RCC_HSICALIBRATION_DEFAULT;
 8001260:	2310      	movs	r3, #16
 8001262:	62fb      	str	r3, [r7, #44]	; 0x2c
  RCC_OscInitStruct.PLL.PLLState = RCC_PLL_ON;
 8001264:	2302      	movs	r3, #2
 8001266:	637b      	str	r3, [r7, #52]	; 0x34
  RCC_OscInitStruct.PLL.PLLSource = RCC_PLLSOURCE_HSI;
 8001268:	2300      	movs	r3, #0
 800126a:	63bb      	str	r3, [r7, #56]	; 0x38
  RCC_OscInitStruct.PLL.PLLM = 8;
 800126c:	2308      	movs	r3, #8
 800126e:	63fb      	str	r3, [r7, #60]	; 0x3c
  RCC_OscInitStruct.PLL.PLLN = 180;
 8001270:	23b4      	movs	r3, #180	; 0xb4
 8001272:	643b      	str	r3, [r7, #64]	; 0x40
  RCC_OscInitStruct.PLL.PLLP = RCC_PLLP_DIV2;
 8001274:	2302      	movs	r3, #2
 8001276:	647b      	str	r3, [r7, #68]	; 0x44
  RCC_OscInitStruct.PLL.PLLQ = 2;
 8001278:	2302      	movs	r3, #2
 800127a:	64bb      	str	r3, [r7, #72]	; 0x48
  RCC_OscInitStruct.PLL.PLLR = 2;
 800127c:	2302      	movs	r3, #2
 800127e:	64fb      	str	r3, [r7, #76]	; 0x4c
  if (HAL_RCC_OscConfig(&RCC_OscInitStruct) != HAL_OK)
 8001280:	f107 031c 	add.w	r3, r7, #28
 8001284:	4618      	mov	r0, r3
 8001286:	f002 f8bd 	bl	8003404 <HAL_RCC_OscConfig>
 800128a:	4603      	mov	r3, r0
 800128c:	2b00      	cmp	r3, #0
 800128e:	d001      	beq.n	8001294 <SystemClock_Config+0x98>
  {
    Error_Handler();
 8001290:	f000 f944 	bl	800151c <Error_Handler>
  }
  /** Activate the Over-Drive mode
  */
  if (HAL_PWREx_EnableOverDrive() != HAL_OK)
 8001294:	f001 fdac 	bl	8002df0 <HAL_PWREx_EnableOverDrive>
 8001298:	4603      	mov	r3, r0
 800129a:	2b00      	cmp	r3, #0
 800129c:	d001      	beq.n	80012a2 <SystemClock_Config+0xa6>
  {
    Error_Handler();
 800129e:	f000 f93d 	bl	800151c <Error_Handler>
  }
  /** Initializes the CPU, AHB and APB buses clocks
  */
  RCC_ClkInitStruct.ClockType = RCC_CLOCKTYPE_HCLK|RCC_CLOCKTYPE_SYSCLK
 80012a2:	230f      	movs	r3, #15
 80012a4:	60bb      	str	r3, [r7, #8]
                              |RCC_CLOCKTYPE_PCLK1|RCC_CLOCKTYPE_PCLK2;
  RCC_ClkInitStruct.SYSCLKSource = RCC_SYSCLKSOURCE_PLLCLK;
 80012a6:	2302      	movs	r3, #2
 80012a8:	60fb      	str	r3, [r7, #12]
  RCC_ClkInitStruct.AHBCLKDivider = RCC_SYSCLK_DIV1;
 80012aa:	2300      	movs	r3, #0
 80012ac:	613b      	str	r3, [r7, #16]
  RCC_ClkInitStruct.APB1CLKDivider = RCC_HCLK_DIV4;
 80012ae:	f44f 53a0 	mov.w	r3, #5120	; 0x1400
 80012b2:	617b      	str	r3, [r7, #20]
  RCC_ClkInitStruct.APB2CLKDivider = RCC_HCLK_DIV2;
 80012b4:	f44f 5380 	mov.w	r3, #4096	; 0x1000
 80012b8:	61bb      	str	r3, [r7, #24]

  if (HAL_RCC_ClockConfig(&RCC_ClkInitStruct, FLASH_LATENCY_5) != HAL_OK)
 80012ba:	f107 0308 	add.w	r3, r7, #8
 80012be:	2105      	movs	r1, #5
 80012c0:	4618      	mov	r0, r3
 80012c2:	f001 fde5 	bl	8002e90 <HAL_RCC_ClockConfig>
 80012c6:	4603      	mov	r3, r0
 80012c8:	2b00      	cmp	r3, #0
 80012ca:	d001      	beq.n	80012d0 <SystemClock_Config+0xd4>
  {
    Error_Handler();
 80012cc:	f000 f926 	bl	800151c <Error_Handler>
  }
}
 80012d0:	bf00      	nop
 80012d2:	3750      	adds	r7, #80	; 0x50
 80012d4:	46bd      	mov	sp, r7
 80012d6:	bd80      	pop	{r7, pc}
 80012d8:	40023800 	.word	0x40023800
 80012dc:	40007000 	.word	0x40007000

080012e0 <MX_ADC1_Init>:
  * @brief ADC1 Initialization Function
  * @param None
  * @retval None
  */
static void MX_ADC1_Init(void)
{
 80012e0:	b580      	push	{r7, lr}
 80012e2:	b084      	sub	sp, #16
 80012e4:	af00      	add	r7, sp, #0

  /* USER CODE BEGIN ADC1_Init 0 */

  /* USER CODE END ADC1_Init 0 */

  ADC_ChannelConfTypeDef sConfig = {0};
 80012e6:	463b      	mov	r3, r7
 80012e8:	2200      	movs	r2, #0
 80012ea:	601a      	str	r2, [r3, #0]
 80012ec:	605a      	str	r2, [r3, #4]
 80012ee:	609a      	str	r2, [r3, #8]
 80012f0:	60da      	str	r2, [r3, #12]
  /* USER CODE BEGIN ADC1_Init 1 */

  /* USER CODE END ADC1_Init 1 */
  /** Configure the global features of the ADC (Clock, Resolution, Data Alignment and number of conversion)
  */
  hadc1.Instance = ADC1;
 80012f2:	4b21      	ldr	r3, [pc, #132]	; (8001378 <MX_ADC1_Init+0x98>)
 80012f4:	4a21      	ldr	r2, [pc, #132]	; (800137c <MX_ADC1_Init+0x9c>)
 80012f6:	601a      	str	r2, [r3, #0]
  hadc1.Init.ClockPrescaler = ADC_CLOCK_SYNC_PCLK_DIV4;
 80012f8:	4b1f      	ldr	r3, [pc, #124]	; (8001378 <MX_ADC1_Init+0x98>)
 80012fa:	f44f 3280 	mov.w	r2, #65536	; 0x10000
 80012fe:	605a      	str	r2, [r3, #4]
  hadc1.Init.Resolution = ADC_RESOLUTION_12B;
 8001300:	4b1d      	ldr	r3, [pc, #116]	; (8001378 <MX_ADC1_Init+0x98>)
 8001302:	2200      	movs	r2, #0
 8001304:	609a      	str	r2, [r3, #8]
  hadc1.Init.ScanConvMode = DISABLE;
 8001306:	4b1c      	ldr	r3, [pc, #112]	; (8001378 <MX_ADC1_Init+0x98>)
 8001308:	2200      	movs	r2, #0
 800130a:	611a      	str	r2, [r3, #16]
  hadc1.Init.ContinuousConvMode = ENABLE;
 800130c:	4b1a      	ldr	r3, [pc, #104]	; (8001378 <MX_ADC1_Init+0x98>)
 800130e:	2201      	movs	r2, #1
 8001310:	761a      	strb	r2, [r3, #24]
  hadc1.Init.DiscontinuousConvMode = DISABLE;
 8001312:	4b19      	ldr	r3, [pc, #100]	; (8001378 <MX_ADC1_Init+0x98>)
 8001314:	2200      	movs	r2, #0
 8001316:	f883 2020 	strb.w	r2, [r3, #32]
  hadc1.Init.ExternalTrigConvEdge = ADC_EXTERNALTRIGCONVEDGE_NONE;
 800131a:	4b17      	ldr	r3, [pc, #92]	; (8001378 <MX_ADC1_Init+0x98>)
 800131c:	2200      	movs	r2, #0
 800131e:	62da      	str	r2, [r3, #44]	; 0x2c
  hadc1.Init.ExternalTrigConv = ADC_SOFTWARE_START;
 8001320:	4b15      	ldr	r3, [pc, #84]	; (8001378 <MX_ADC1_Init+0x98>)
 8001322:	4a17      	ldr	r2, [pc, #92]	; (8001380 <MX_ADC1_Init+0xa0>)
 8001324:	629a      	str	r2, [r3, #40]	; 0x28
  hadc1.Init.DataAlign = ADC_DATAALIGN_RIGHT;
 8001326:	4b14      	ldr	r3, [pc, #80]	; (8001378 <MX_ADC1_Init+0x98>)
 8001328:	2200      	movs	r2, #0
 800132a:	60da      	str	r2, [r3, #12]
  hadc1.Init.NbrOfConversion = 1;
 800132c:	4b12      	ldr	r3, [pc, #72]	; (8001378 <MX_ADC1_Init+0x98>)
 800132e:	2201      	movs	r2, #1
 8001330:	61da      	str	r2, [r3, #28]
  hadc1.Init.DMAContinuousRequests = ENABLE;
 8001332:	4b11      	ldr	r3, [pc, #68]	; (8001378 <MX_ADC1_Init+0x98>)
 8001334:	2201      	movs	r2, #1
 8001336:	f883 2030 	strb.w	r2, [r3, #48]	; 0x30
  hadc1.Init.EOCSelection = ADC_EOC_SINGLE_CONV;
 800133a:	4b0f      	ldr	r3, [pc, #60]	; (8001378 <MX_ADC1_Init+0x98>)
 800133c:	2201      	movs	r2, #1
 800133e:	615a      	str	r2, [r3, #20]
  if (HAL_ADC_Init(&hadc1) != HAL_OK)
 8001340:	480d      	ldr	r0, [pc, #52]	; (8001378 <MX_ADC1_Init+0x98>)
 8001342:	f000 fb15 	bl	8001970 <HAL_ADC_Init>
 8001346:	4603      	mov	r3, r0
 8001348:	2b00      	cmp	r3, #0
 800134a:	d001      	beq.n	8001350 <MX_ADC1_Init+0x70>
  {
    Error_Handler();
 800134c:	f000 f8e6 	bl	800151c <Error_Handler>
  }
  /** Configure for the selected ADC regular channel its corresponding rank in the sequencer and its sample time.
  */
  sConfig.Channel = ADC_CHANNEL_0;
 8001350:	2300      	movs	r3, #0
 8001352:	603b      	str	r3, [r7, #0]
  sConfig.Rank = 1;
 8001354:	2301      	movs	r3, #1
 8001356:	607b      	str	r3, [r7, #4]
  sConfig.SamplingTime = ADC_SAMPLETIME_3CYCLES;
 8001358:	2300      	movs	r3, #0
 800135a:	60bb      	str	r3, [r7, #8]
  if (HAL_ADC_ConfigChannel(&hadc1, &sConfig) != HAL_OK)
 800135c:	463b      	mov	r3, r7
 800135e:	4619      	mov	r1, r3
 8001360:	4805      	ldr	r0, [pc, #20]	; (8001378 <MX_ADC1_Init+0x98>)
 8001362:	f000 fc4f 	bl	8001c04 <HAL_ADC_ConfigChannel>
 8001366:	4603      	mov	r3, r0
 8001368:	2b00      	cmp	r3, #0
 800136a:	d001      	beq.n	8001370 <MX_ADC1_Init+0x90>
  {
    Error_Handler();
 800136c:	f000 f8d6 	bl	800151c <Error_Handler>
  }
  /* USER CODE BEGIN ADC1_Init 2 */

  /* USER CODE END ADC1_Init 2 */

}
 8001370:	bf00      	nop
 8001372:	3710      	adds	r7, #16
 8001374:	46bd      	mov	sp, r7
 8001376:	bd80      	pop	{r7, pc}
 8001378:	20008210 	.word	0x20008210
 800137c:	40012000 	.word	0x40012000
 8001380:	0f000001 	.word	0x0f000001

08001384 <MX_USART2_UART_Init>:
  * @brief USART2 Initialization Function
  * @param None
  * @retval None
  */
static void MX_USART2_UART_Init(void)
{
 8001384:	b580      	push	{r7, lr}
 8001386:	af00      	add	r7, sp, #0
  /* USER CODE END USART2_Init 0 */

  /* USER CODE BEGIN USART2_Init 1 */

  /* USER CODE END USART2_Init 1 */
  huart2.Instance = USART2;
 8001388:	4b11      	ldr	r3, [pc, #68]	; (80013d0 <MX_USART2_UART_Init+0x4c>)
 800138a:	4a12      	ldr	r2, [pc, #72]	; (80013d4 <MX_USART2_UART_Init+0x50>)
 800138c:	601a      	str	r2, [r3, #0]
  huart2.Init.BaudRate = 115200;
 800138e:	4b10      	ldr	r3, [pc, #64]	; (80013d0 <MX_USART2_UART_Init+0x4c>)
 8001390:	f44f 32e1 	mov.w	r2, #115200	; 0x1c200
 8001394:	605a      	str	r2, [r3, #4]
  huart2.Init.WordLength = UART_WORDLENGTH_8B;
 8001396:	4b0e      	ldr	r3, [pc, #56]	; (80013d0 <MX_USART2_UART_Init+0x4c>)
 8001398:	2200      	movs	r2, #0
 800139a:	609a      	str	r2, [r3, #8]
  huart2.Init.StopBits = UART_STOPBITS_1;
 800139c:	4b0c      	ldr	r3, [pc, #48]	; (80013d0 <MX_USART2_UART_Init+0x4c>)
 800139e:	2200      	movs	r2, #0
 80013a0:	60da      	str	r2, [r3, #12]
  huart2.Init.Parity = UART_PARITY_NONE;
 80013a2:	4b0b      	ldr	r3, [pc, #44]	; (80013d0 <MX_USART2_UART_Init+0x4c>)
 80013a4:	2200      	movs	r2, #0
 80013a6:	611a      	str	r2, [r3, #16]
  huart2.Init.Mode = UART_MODE_TX_RX;
 80013a8:	4b09      	ldr	r3, [pc, #36]	; (80013d0 <MX_USART2_UART_Init+0x4c>)
 80013aa:	220c      	movs	r2, #12
 80013ac:	615a      	str	r2, [r3, #20]
  huart2.Init.HwFlowCtl = UART_HWCONTROL_NONE;
 80013ae:	4b08      	ldr	r3, [pc, #32]	; (80013d0 <MX_USART2_UART_Init+0x4c>)
 80013b0:	2200      	movs	r2, #0
 80013b2:	619a      	str	r2, [r3, #24]
  huart2.Init.OverSampling = UART_OVERSAMPLING_16;
 80013b4:	4b06      	ldr	r3, [pc, #24]	; (80013d0 <MX_USART2_UART_Init+0x4c>)
 80013b6:	2200      	movs	r2, #0
 80013b8:	61da      	str	r2, [r3, #28]
  if (HAL_UART_Init(&huart2) != HAL_OK)
 80013ba:	4805      	ldr	r0, [pc, #20]	; (80013d0 <MX_USART2_UART_Init+0x4c>)
 80013bc:	f002 fa7c 	bl	80038b8 <HAL_UART_Init>
 80013c0:	4603      	mov	r3, r0
 80013c2:	2b00      	cmp	r3, #0
 80013c4:	d001      	beq.n	80013ca <MX_USART2_UART_Init+0x46>
  {
    Error_Handler();
 80013c6:	f000 f8a9 	bl	800151c <Error_Handler>
  }
  /* USER CODE BEGIN USART2_Init 2 */

  /* USER CODE END USART2_Init 2 */

}
 80013ca:	bf00      	nop
 80013cc:	bd80      	pop	{r7, pc}
 80013ce:	bf00      	nop
 80013d0:	2000ca88 	.word	0x2000ca88
 80013d4:	40004400 	.word	0x40004400

080013d8 <MX_DMA_Init>:

/**
  * Enable DMA controller clock
  */
static void MX_DMA_Init(void)
{
 80013d8:	b580      	push	{r7, lr}
 80013da:	b082      	sub	sp, #8
 80013dc:	af00      	add	r7, sp, #0

  /* DMA controller clock enable */
  __HAL_RCC_DMA2_CLK_ENABLE();
 80013de:	2300      	movs	r3, #0
 80013e0:	607b      	str	r3, [r7, #4]
 80013e2:	4b0c      	ldr	r3, [pc, #48]	; (8001414 <MX_DMA_Init+0x3c>)
 80013e4:	6b1b      	ldr	r3, [r3, #48]	; 0x30
 80013e6:	4a0b      	ldr	r2, [pc, #44]	; (8001414 <MX_DMA_Init+0x3c>)
 80013e8:	f443 0380 	orr.w	r3, r3, #4194304	; 0x400000
 80013ec:	6313      	str	r3, [r2, #48]	; 0x30
 80013ee:	4b09      	ldr	r3, [pc, #36]	; (8001414 <MX_DMA_Init+0x3c>)
 80013f0:	6b1b      	ldr	r3, [r3, #48]	; 0x30
 80013f2:	f403 0380 	and.w	r3, r3, #4194304	; 0x400000
 80013f6:	607b      	str	r3, [r7, #4]
 80013f8:	687b      	ldr	r3, [r7, #4]

  /* DMA interrupt init */
  /* DMA2_Stream0_IRQn interrupt configuration */
  HAL_NVIC_SetPriority(DMA2_Stream0_IRQn, 0, 0);
 80013fa:	2200      	movs	r2, #0
 80013fc:	2100      	movs	r1, #0
 80013fe:	2038      	movs	r0, #56	; 0x38
 8001400:	f000 ff8b 	bl	800231a <HAL_NVIC_SetPriority>
  HAL_NVIC_EnableIRQ(DMA2_Stream0_IRQn);
 8001404:	2038      	movs	r0, #56	; 0x38
 8001406:	f000 ffa4 	bl	8002352 <HAL_NVIC_EnableIRQ>

}
 800140a:	bf00      	nop
 800140c:	3708      	adds	r7, #8
 800140e:	46bd      	mov	sp, r7
 8001410:	bd80      	pop	{r7, pc}
 8001412:	bf00      	nop
 8001414:	40023800 	.word	0x40023800

08001418 <MX_GPIO_Init>:
  * @brief GPIO Initialization Function
  * @param None
  * @retval None
  */
static void MX_GPIO_Init(void)
{
 8001418:	b580      	push	{r7, lr}
 800141a:	b08a      	sub	sp, #40	; 0x28
 800141c:	af00      	add	r7, sp, #0
  GPIO_InitTypeDef GPIO_InitStruct = {0};
 800141e:	f107 0314 	add.w	r3, r7, #20
 8001422:	2200      	movs	r2, #0
 8001424:	601a      	str	r2, [r3, #0]
 8001426:	605a      	str	r2, [r3, #4]
 8001428:	609a      	str	r2, [r3, #8]
 800142a:	60da      	str	r2, [r3, #12]
 800142c:	611a      	str	r2, [r3, #16]

  /* GPIO Ports Clock Enable */
  __HAL_RCC_GPIOC_CLK_ENABLE();
 800142e:	2300      	movs	r3, #0
 8001430:	613b      	str	r3, [r7, #16]
 8001432:	4b2e      	ldr	r3, [pc, #184]	; (80014ec <MX_GPIO_Init+0xd4>)
 8001434:	6b1b      	ldr	r3, [r3, #48]	; 0x30
 8001436:	4a2d      	ldr	r2, [pc, #180]	; (80014ec <MX_GPIO_Init+0xd4>)
 8001438:	f043 0304 	orr.w	r3, r3, #4
 800143c:	6313      	str	r3, [r2, #48]	; 0x30
 800143e:	4b2b      	ldr	r3, [pc, #172]	; (80014ec <MX_GPIO_Init+0xd4>)
 8001440:	6b1b      	ldr	r3, [r3, #48]	; 0x30
 8001442:	f003 0304 	and.w	r3, r3, #4
 8001446:	613b      	str	r3, [r7, #16]
 8001448:	693b      	ldr	r3, [r7, #16]
  __HAL_RCC_GPIOH_CLK_ENABLE();
 800144a:	2300      	movs	r3, #0
 800144c:	60fb      	str	r3, [r7, #12]
 800144e:	4b27      	ldr	r3, [pc, #156]	; (80014ec <MX_GPIO_Init+0xd4>)
 8001450:	6b1b      	ldr	r3, [r3, #48]	; 0x30
 8001452:	4a26      	ldr	r2, [pc, #152]	; (80014ec <MX_GPIO_Init+0xd4>)
 8001454:	f043 0380 	orr.w	r3, r3, #128	; 0x80
 8001458:	6313      	str	r3, [r2, #48]	; 0x30
 800145a:	4b24      	ldr	r3, [pc, #144]	; (80014ec <MX_GPIO_Init+0xd4>)
 800145c:	6b1b      	ldr	r3, [r3, #48]	; 0x30
 800145e:	f003 0380 	and.w	r3, r3, #128	; 0x80
 8001462:	60fb      	str	r3, [r7, #12]
 8001464:	68fb      	ldr	r3, [r7, #12]
  __HAL_RCC_GPIOA_CLK_ENABLE();
 8001466:	2300      	movs	r3, #0
 8001468:	60bb      	str	r3, [r7, #8]
 800146a:	4b20      	ldr	r3, [pc, #128]	; (80014ec <MX_GPIO_Init+0xd4>)
 800146c:	6b1b      	ldr	r3, [r3, #48]	; 0x30
 800146e:	4a1f      	ldr	r2, [pc, #124]	; (80014ec <MX_GPIO_Init+0xd4>)
 8001470:	f043 0301 	orr.w	r3, r3, #1
 8001474:	6313      	str	r3, [r2, #48]	; 0x30
 8001476:	4b1d      	ldr	r3, [pc, #116]	; (80014ec <MX_GPIO_Init+0xd4>)
 8001478:	6b1b      	ldr	r3, [r3, #48]	; 0x30
 800147a:	f003 0301 	and.w	r3, r3, #1
 800147e:	60bb      	str	r3, [r7, #8]
 8001480:	68bb      	ldr	r3, [r7, #8]
  __HAL_RCC_GPIOB_CLK_ENABLE();
 8001482:	2300      	movs	r3, #0
 8001484:	607b      	str	r3, [r7, #4]
 8001486:	4b19      	ldr	r3, [pc, #100]	; (80014ec <MX_GPIO_Init+0xd4>)
 8001488:	6b1b      	ldr	r3, [r3, #48]	; 0x30
 800148a:	4a18      	ldr	r2, [pc, #96]	; (80014ec <MX_GPIO_Init+0xd4>)
 800148c:	f043 0302 	orr.w	r3, r3, #2
 8001490:	6313      	str	r3, [r2, #48]	; 0x30
 8001492:	4b16      	ldr	r3, [pc, #88]	; (80014ec <MX_GPIO_Init+0xd4>)
 8001494:	6b1b      	ldr	r3, [r3, #48]	; 0x30
 8001496:	f003 0302 	and.w	r3, r3, #2
 800149a:	607b      	str	r3, [r7, #4]
 800149c:	687b      	ldr	r3, [r7, #4]

  /*Configure GPIO pin Output Level */
  HAL_GPIO_WritePin(GPIOA, LD2_Pin|GPIO_PIN_10, GPIO_PIN_RESET);
 800149e:	2200      	movs	r2, #0
 80014a0:	f44f 6184 	mov.w	r1, #1056	; 0x420
 80014a4:	4812      	ldr	r0, [pc, #72]	; (80014f0 <MX_GPIO_Init+0xd8>)
 80014a6:	f001 fc6f 	bl	8002d88 <HAL_GPIO_WritePin>

  /*Configure GPIO pin : B1_Pin */
  GPIO_InitStruct.Pin = B1_Pin;
 80014aa:	f44f 5300 	mov.w	r3, #8192	; 0x2000
 80014ae:	617b      	str	r3, [r7, #20]
  GPIO_InitStruct.Mode = GPIO_MODE_IT_FALLING;
 80014b0:	4b10      	ldr	r3, [pc, #64]	; (80014f4 <MX_GPIO_Init+0xdc>)
 80014b2:	61bb      	str	r3, [r7, #24]
  GPIO_InitStruct.Pull = GPIO_NOPULL;
 80014b4:	2300      	movs	r3, #0
 80014b6:	61fb      	str	r3, [r7, #28]
  HAL_GPIO_Init(B1_GPIO_Port, &GPIO_InitStruct);
 80014b8:	f107 0314 	add.w	r3, r7, #20
 80014bc:	4619      	mov	r1, r3
 80014be:	480e      	ldr	r0, [pc, #56]	; (80014f8 <MX_GPIO_Init+0xe0>)
 80014c0:	f001 fad0 	bl	8002a64 <HAL_GPIO_Init>

  /*Configure GPIO pins : LD2_Pin PA10 */
  GPIO_InitStruct.Pin = LD2_Pin|GPIO_PIN_10;
 80014c4:	f44f 6384 	mov.w	r3, #1056	; 0x420
 80014c8:	617b      	str	r3, [r7, #20]
  GPIO_InitStruct.Mode = GPIO_MODE_OUTPUT_PP;
 80014ca:	2301      	movs	r3, #1
 80014cc:	61bb      	str	r3, [r7, #24]
  GPIO_InitStruct.Pull = GPIO_NOPULL;
 80014ce:	2300      	movs	r3, #0
 80014d0:	61fb      	str	r3, [r7, #28]
  GPIO_InitStruct.Speed = GPIO_SPEED_FREQ_LOW;
 80014d2:	2300      	movs	r3, #0
 80014d4:	623b      	str	r3, [r7, #32]
  HAL_GPIO_Init(GPIOA, &GPIO_InitStruct);
 80014d6:	f107 0314 	add.w	r3, r7, #20
 80014da:	4619      	mov	r1, r3
 80014dc:	4804      	ldr	r0, [pc, #16]	; (80014f0 <MX_GPIO_Init+0xd8>)
 80014de:	f001 fac1 	bl	8002a64 <HAL_GPIO_Init>

}
 80014e2:	bf00      	nop
 80014e4:	3728      	adds	r7, #40	; 0x28
 80014e6:	46bd      	mov	sp, r7
 80014e8:	bd80      	pop	{r7, pc}
 80014ea:	bf00      	nop
 80014ec:	40023800 	.word	0x40023800
 80014f0:	40020000 	.word	0x40020000
 80014f4:	10210000 	.word	0x10210000
 80014f8:	40020800 	.word	0x40020800

080014fc <HAL_ADC_ConvCpltCallback>:
/*
void HAL_ADC_ConvHalfCpltCallback(ADC_HandleTypeDef* hadc) {
	HAL_GPIO_WritePin(LD2_GPIO_Port, LD2_Pin, GPIO_PIN_SET);
}
*/
void HAL_ADC_ConvCpltCallback(ADC_HandleTypeDef* hadc) {
 80014fc:	b480      	push	{r7}
 80014fe:	b083      	sub	sp, #12
 8001500:	af00      	add	r7, sp, #0
 8001502:	6078      	str	r0, [r7, #4]
	//HAL_GPIO_WritePin(LD2_GPIO_Port, LD2_Pin, GPIO_PIN_RESET);
	state = 1;
 8001504:	4b04      	ldr	r3, [pc, #16]	; (8001518 <HAL_ADC_ConvCpltCallback+0x1c>)
 8001506:	2201      	movs	r2, #1
 8001508:	601a      	str	r2, [r3, #0]
}
 800150a:	bf00      	nop
 800150c:	370c      	adds	r7, #12
 800150e:	46bd      	mov	sp, r7
 8001510:	f85d 7b04 	ldr.w	r7, [sp], #4
 8001514:	4770      	bx	lr
 8001516:	bf00      	nop
 8001518:	200001fc 	.word	0x200001fc

0800151c <Error_Handler>:
/**
  * @brief  This function is executed in case of error occurrence.
  * @retval None
  */
void Error_Handler(void)
{
 800151c:	b480      	push	{r7}
 800151e:	af00      	add	r7, sp, #0
  \details Disables IRQ interrupts by setting the I-bit in the CPSR.
           Can only be executed in Privileged modes.
 */
__STATIC_FORCEINLINE void __disable_irq(void)
{
  __ASM volatile ("cpsid i" : : : "memory");
 8001520:	b672      	cpsid	i
  /* USER CODE BEGIN Error_Handler_Debug */
  /* User can add his own implementation to report the HAL error return state */
  __disable_irq();
  while (1)
 8001522:	e7fe      	b.n	8001522 <Error_Handler+0x6>

08001524 <HAL_MspInit>:
/* USER CODE END 0 */
/**
  * Initializes the Global MSP.
  */
void HAL_MspInit(void)
{
 8001524:	b580      	push	{r7, lr}
 8001526:	b082      	sub	sp, #8
 8001528:	af00      	add	r7, sp, #0
  /* USER CODE BEGIN MspInit 0 */

  /* USER CODE END MspInit 0 */

  __HAL_RCC_SYSCFG_CLK_ENABLE();
 800152a:	2300      	movs	r3, #0
 800152c:	607b      	str	r3, [r7, #4]
 800152e:	4b10      	ldr	r3, [pc, #64]	; (8001570 <HAL_MspInit+0x4c>)
 8001530:	6c5b      	ldr	r3, [r3, #68]	; 0x44
 8001532:	4a0f      	ldr	r2, [pc, #60]	; (8001570 <HAL_MspInit+0x4c>)
 8001534:	f443 4380 	orr.w	r3, r3, #16384	; 0x4000
 8001538:	6453      	str	r3, [r2, #68]	; 0x44
 800153a:	4b0d      	ldr	r3, [pc, #52]	; (8001570 <HAL_MspInit+0x4c>)
 800153c:	6c5b      	ldr	r3, [r3, #68]	; 0x44
 800153e:	f403 4380 	and.w	r3, r3, #16384	; 0x4000
 8001542:	607b      	str	r3, [r7, #4]
 8001544:	687b      	ldr	r3, [r7, #4]
  __HAL_RCC_PWR_CLK_ENABLE();
 8001546:	2300      	movs	r3, #0
 8001548:	603b      	str	r3, [r7, #0]
 800154a:	4b09      	ldr	r3, [pc, #36]	; (8001570 <HAL_MspInit+0x4c>)
 800154c:	6c1b      	ldr	r3, [r3, #64]	; 0x40
 800154e:	4a08      	ldr	r2, [pc, #32]	; (8001570 <HAL_MspInit+0x4c>)
 8001550:	f043 5380 	orr.w	r3, r3, #268435456	; 0x10000000
 8001554:	6413      	str	r3, [r2, #64]	; 0x40
 8001556:	4b06      	ldr	r3, [pc, #24]	; (8001570 <HAL_MspInit+0x4c>)
 8001558:	6c1b      	ldr	r3, [r3, #64]	; 0x40
 800155a:	f003 5380 	and.w	r3, r3, #268435456	; 0x10000000
 800155e:	603b      	str	r3, [r7, #0]
 8001560:	683b      	ldr	r3, [r7, #0]

  HAL_NVIC_SetPriorityGrouping(NVIC_PRIORITYGROUP_0);
 8001562:	2007      	movs	r0, #7
 8001564:	f000 fece 	bl	8002304 <HAL_NVIC_SetPriorityGrouping>
  /* System interrupt init*/

  /* USER CODE BEGIN MspInit 1 */

  /* USER CODE END MspInit 1 */
}
 8001568:	bf00      	nop
 800156a:	3708      	adds	r7, #8
 800156c:	46bd      	mov	sp, r7
 800156e:	bd80      	pop	{r7, pc}
 8001570:	40023800 	.word	0x40023800

08001574 <HAL_ADC_MspInit>:
* This function configures the hardware resources used in this example
* @param hadc: ADC handle pointer
* @retval None
*/
void HAL_ADC_MspInit(ADC_HandleTypeDef* hadc)
{
 8001574:	b580      	push	{r7, lr}
 8001576:	b08a      	sub	sp, #40	; 0x28
 8001578:	af00      	add	r7, sp, #0
 800157a:	6078      	str	r0, [r7, #4]
  GPIO_InitTypeDef GPIO_InitStruct = {0};
 800157c:	f107 0314 	add.w	r3, r7, #20
 8001580:	2200      	movs	r2, #0
 8001582:	601a      	str	r2, [r3, #0]
 8001584:	605a      	str	r2, [r3, #4]
 8001586:	609a      	str	r2, [r3, #8]
 8001588:	60da      	str	r2, [r3, #12]
 800158a:	611a      	str	r2, [r3, #16]
  if(hadc->Instance==ADC1)
 800158c:	687b      	ldr	r3, [r7, #4]
 800158e:	681b      	ldr	r3, [r3, #0]
 8001590:	4a2f      	ldr	r2, [pc, #188]	; (8001650 <HAL_ADC_MspInit+0xdc>)
 8001592:	4293      	cmp	r3, r2
 8001594:	d157      	bne.n	8001646 <HAL_ADC_MspInit+0xd2>
  {
  /* USER CODE BEGIN ADC1_MspInit 0 */

  /* USER CODE END ADC1_MspInit 0 */
    /* Peripheral clock enable */
    __HAL_RCC_ADC1_CLK_ENABLE();
 8001596:	2300      	movs	r3, #0
 8001598:	613b      	str	r3, [r7, #16]
 800159a:	4b2e      	ldr	r3, [pc, #184]	; (8001654 <HAL_ADC_MspInit+0xe0>)
 800159c:	6c5b      	ldr	r3, [r3, #68]	; 0x44
 800159e:	4a2d      	ldr	r2, [pc, #180]	; (8001654 <HAL_ADC_MspInit+0xe0>)
 80015a0:	f443 7380 	orr.w	r3, r3, #256	; 0x100
 80015a4:	6453      	str	r3, [r2, #68]	; 0x44
 80015a6:	4b2b      	ldr	r3, [pc, #172]	; (8001654 <HAL_ADC_MspInit+0xe0>)
 80015a8:	6c5b      	ldr	r3, [r3, #68]	; 0x44
 80015aa:	f403 7380 	and.w	r3, r3, #256	; 0x100
 80015ae:	613b      	str	r3, [r7, #16]
 80015b0:	693b      	ldr	r3, [r7, #16]

    __HAL_RCC_GPIOA_CLK_ENABLE();
 80015b2:	2300      	movs	r3, #0
 80015b4:	60fb      	str	r3, [r7, #12]
 80015b6:	4b27      	ldr	r3, [pc, #156]	; (8001654 <HAL_ADC_MspInit+0xe0>)
 80015b8:	6b1b      	ldr	r3, [r3, #48]	; 0x30
 80015ba:	4a26      	ldr	r2, [pc, #152]	; (8001654 <HAL_ADC_MspInit+0xe0>)
 80015bc:	f043 0301 	orr.w	r3, r3, #1
 80015c0:	6313      	str	r3, [r2, #48]	; 0x30
 80015c2:	4b24      	ldr	r3, [pc, #144]	; (8001654 <HAL_ADC_MspInit+0xe0>)
 80015c4:	6b1b      	ldr	r3, [r3, #48]	; 0x30
 80015c6:	f003 0301 	and.w	r3, r3, #1
 80015ca:	60fb      	str	r3, [r7, #12]
 80015cc:	68fb      	ldr	r3, [r7, #12]
    /**ADC1 GPIO Configuration
    PA0-WKUP     ------> ADC1_IN0
    */
    GPIO_InitStruct.Pin = GPIO_PIN_0;
 80015ce:	2301      	movs	r3, #1
 80015d0:	617b      	str	r3, [r7, #20]
    GPIO_InitStruct.Mode = GPIO_MODE_ANALOG;
 80015d2:	2303      	movs	r3, #3
 80015d4:	61bb      	str	r3, [r7, #24]
    GPIO_InitStruct.Pull = GPIO_NOPULL;
 80015d6:	2300      	movs	r3, #0
 80015d8:	61fb      	str	r3, [r7, #28]
    HAL_GPIO_Init(GPIOA, &GPIO_InitStruct);
 80015da:	f107 0314 	add.w	r3, r7, #20
 80015de:	4619      	mov	r1, r3
 80015e0:	481d      	ldr	r0, [pc, #116]	; (8001658 <HAL_ADC_MspInit+0xe4>)
 80015e2:	f001 fa3f 	bl	8002a64 <HAL_GPIO_Init>

    /* ADC1 DMA Init */
    /* ADC1 Init */
    hdma_adc1.Instance = DMA2_Stream0;
 80015e6:	4b1d      	ldr	r3, [pc, #116]	; (800165c <HAL_ADC_MspInit+0xe8>)
 80015e8:	4a1d      	ldr	r2, [pc, #116]	; (8001660 <HAL_ADC_MspInit+0xec>)
 80015ea:	601a      	str	r2, [r3, #0]
    hdma_adc1.Init.Channel = DMA_CHANNEL_0;
 80015ec:	4b1b      	ldr	r3, [pc, #108]	; (800165c <HAL_ADC_MspInit+0xe8>)
 80015ee:	2200      	movs	r2, #0
 80015f0:	605a      	str	r2, [r3, #4]
    hdma_adc1.Init.Direction = DMA_PERIPH_TO_MEMORY;
 80015f2:	4b1a      	ldr	r3, [pc, #104]	; (800165c <HAL_ADC_MspInit+0xe8>)
 80015f4:	2200      	movs	r2, #0
 80015f6:	609a      	str	r2, [r3, #8]
    hdma_adc1.Init.PeriphInc = DMA_PINC_DISABLE;
 80015f8:	4b18      	ldr	r3, [pc, #96]	; (800165c <HAL_ADC_MspInit+0xe8>)
 80015fa:	2200      	movs	r2, #0
 80015fc:	60da      	str	r2, [r3, #12]
    hdma_adc1.Init.MemInc = DMA_MINC_ENABLE;
 80015fe:	4b17      	ldr	r3, [pc, #92]	; (800165c <HAL_ADC_MspInit+0xe8>)
 8001600:	f44f 6280 	mov.w	r2, #1024	; 0x400
 8001604:	611a      	str	r2, [r3, #16]
    hdma_adc1.Init.PeriphDataAlignment = DMA_PDATAALIGN_HALFWORD;
 8001606:	4b15      	ldr	r3, [pc, #84]	; (800165c <HAL_ADC_MspInit+0xe8>)
 8001608:	f44f 6200 	mov.w	r2, #2048	; 0x800
 800160c:	615a      	str	r2, [r3, #20]
    hdma_adc1.Init.MemDataAlignment = DMA_MDATAALIGN_HALFWORD;
 800160e:	4b13      	ldr	r3, [pc, #76]	; (800165c <HAL_ADC_MspInit+0xe8>)
 8001610:	f44f 5200 	mov.w	r2, #8192	; 0x2000
 8001614:	619a      	str	r2, [r3, #24]
    hdma_adc1.Init.Mode = DMA_NORMAL;
 8001616:	4b11      	ldr	r3, [pc, #68]	; (800165c <HAL_ADC_MspInit+0xe8>)
 8001618:	2200      	movs	r2, #0
 800161a:	61da      	str	r2, [r3, #28]
    hdma_adc1.Init.Priority = DMA_PRIORITY_VERY_HIGH;
 800161c:	4b0f      	ldr	r3, [pc, #60]	; (800165c <HAL_ADC_MspInit+0xe8>)
 800161e:	f44f 3240 	mov.w	r2, #196608	; 0x30000
 8001622:	621a      	str	r2, [r3, #32]
    hdma_adc1.Init.FIFOMode = DMA_FIFOMODE_DISABLE;
 8001624:	4b0d      	ldr	r3, [pc, #52]	; (800165c <HAL_ADC_MspInit+0xe8>)
 8001626:	2200      	movs	r2, #0
 8001628:	625a      	str	r2, [r3, #36]	; 0x24
    if (HAL_DMA_Init(&hdma_adc1) != HAL_OK)
 800162a:	480c      	ldr	r0, [pc, #48]	; (800165c <HAL_ADC_MspInit+0xe8>)
 800162c:	f000 feac 	bl	8002388 <HAL_DMA_Init>
 8001630:	4603      	mov	r3, r0
 8001632:	2b00      	cmp	r3, #0
 8001634:	d001      	beq.n	800163a <HAL_ADC_MspInit+0xc6>
    {
      Error_Handler();
 8001636:	f7ff ff71 	bl	800151c <Error_Handler>
    }

    __HAL_LINKDMA(hadc,DMA_Handle,hdma_adc1);
 800163a:	687b      	ldr	r3, [r7, #4]
 800163c:	4a07      	ldr	r2, [pc, #28]	; (800165c <HAL_ADC_MspInit+0xe8>)
 800163e:	639a      	str	r2, [r3, #56]	; 0x38
 8001640:	4a06      	ldr	r2, [pc, #24]	; (800165c <HAL_ADC_MspInit+0xe8>)
 8001642:	687b      	ldr	r3, [r7, #4]
 8001644:	6393      	str	r3, [r2, #56]	; 0x38
  /* USER CODE BEGIN ADC1_MspInit 1 */

  /* USER CODE END ADC1_MspInit 1 */
  }

}
 8001646:	bf00      	nop
 8001648:	3728      	adds	r7, #40	; 0x28
 800164a:	46bd      	mov	sp, r7
 800164c:	bd80      	pop	{r7, pc}
 800164e:	bf00      	nop
 8001650:	40012000 	.word	0x40012000
 8001654:	40023800 	.word	0x40023800
 8001658:	40020000 	.word	0x40020000
 800165c:	20008258 	.word	0x20008258
 8001660:	40026410 	.word	0x40026410

08001664 <HAL_UART_MspInit>:
* This function configures the hardware resources used in this example
* @param huart: UART handle pointer
* @retval None
*/
void HAL_UART_MspInit(UART_HandleTypeDef* huart)
{
 8001664:	b580      	push	{r7, lr}
 8001666:	b08a      	sub	sp, #40	; 0x28
 8001668:	af00      	add	r7, sp, #0
 800166a:	6078      	str	r0, [r7, #4]
  GPIO_InitTypeDef GPIO_InitStruct = {0};
 800166c:	f107 0314 	add.w	r3, r7, #20
 8001670:	2200      	movs	r2, #0
 8001672:	601a      	str	r2, [r3, #0]
 8001674:	605a      	str	r2, [r3, #4]
 8001676:	609a      	str	r2, [r3, #8]
 8001678:	60da      	str	r2, [r3, #12]
 800167a:	611a      	str	r2, [r3, #16]
  if(huart->Instance==USART2)
 800167c:	687b      	ldr	r3, [r7, #4]
 800167e:	681b      	ldr	r3, [r3, #0]
 8001680:	4a19      	ldr	r2, [pc, #100]	; (80016e8 <HAL_UART_MspInit+0x84>)
 8001682:	4293      	cmp	r3, r2
 8001684:	d12b      	bne.n	80016de <HAL_UART_MspInit+0x7a>
  {
  /* USER CODE BEGIN USART2_MspInit 0 */

  /* USER CODE END USART2_MspInit 0 */
    /* Peripheral clock enable */
    __HAL_RCC_USART2_CLK_ENABLE();
 8001686:	2300      	movs	r3, #0
 8001688:	613b      	str	r3, [r7, #16]
 800168a:	4b18      	ldr	r3, [pc, #96]	; (80016ec <HAL_UART_MspInit+0x88>)
 800168c:	6c1b      	ldr	r3, [r3, #64]	; 0x40
 800168e:	4a17      	ldr	r2, [pc, #92]	; (80016ec <HAL_UART_MspInit+0x88>)
 8001690:	f443 3300 	orr.w	r3, r3, #131072	; 0x20000
 8001694:	6413      	str	r3, [r2, #64]	; 0x40
 8001696:	4b15      	ldr	r3, [pc, #84]	; (80016ec <HAL_UART_MspInit+0x88>)
 8001698:	6c1b      	ldr	r3, [r3, #64]	; 0x40
 800169a:	f403 3300 	and.w	r3, r3, #131072	; 0x20000
 800169e:	613b      	str	r3, [r7, #16]
 80016a0:	693b      	ldr	r3, [r7, #16]

    __HAL_RCC_GPIOA_CLK_ENABLE();
 80016a2:	2300      	movs	r3, #0
 80016a4:	60fb      	str	r3, [r7, #12]
 80016a6:	4b11      	ldr	r3, [pc, #68]	; (80016ec <HAL_UART_MspInit+0x88>)
 80016a8:	6b1b      	ldr	r3, [r3, #48]	; 0x30
 80016aa:	4a10      	ldr	r2, [pc, #64]	; (80016ec <HAL_UART_MspInit+0x88>)
 80016ac:	f043 0301 	orr.w	r3, r3, #1
 80016b0:	6313      	str	r3, [r2, #48]	; 0x30
 80016b2:	4b0e      	ldr	r3, [pc, #56]	; (80016ec <HAL_UART_MspInit+0x88>)
 80016b4:	6b1b      	ldr	r3, [r3, #48]	; 0x30
 80016b6:	f003 0301 	and.w	r3, r3, #1
 80016ba:	60fb      	str	r3, [r7, #12]
 80016bc:	68fb      	ldr	r3, [r7, #12]
    /**USART2 GPIO Configuration
    PA2     ------> USART2_TX
    PA3     ------> USART2_RX
    */
    GPIO_InitStruct.Pin = USART_TX_Pin|USART_RX_Pin;
 80016be:	230c      	movs	r3, #12
 80016c0:	617b      	str	r3, [r7, #20]
    GPIO_InitStruct.Mode = GPIO_MODE_AF_PP;
 80016c2:	2302      	movs	r3, #2
 80016c4:	61bb      	str	r3, [r7, #24]
    GPIO_InitStruct.Pull = GPIO_NOPULL;
 80016c6:	2300      	movs	r3, #0
 80016c8:	61fb      	str	r3, [r7, #28]
    GPIO_InitStruct.Speed = GPIO_SPEED_FREQ_VERY_HIGH;
 80016ca:	2303      	movs	r3, #3
 80016cc:	623b      	str	r3, [r7, #32]
    GPIO_InitStruct.Alternate = GPIO_AF7_USART2;
 80016ce:	2307      	movs	r3, #7
 80016d0:	627b      	str	r3, [r7, #36]	; 0x24
    HAL_GPIO_Init(GPIOA, &GPIO_InitStruct);
 80016d2:	f107 0314 	add.w	r3, r7, #20
 80016d6:	4619      	mov	r1, r3
 80016d8:	4805      	ldr	r0, [pc, #20]	; (80016f0 <HAL_UART_MspInit+0x8c>)
 80016da:	f001 f9c3 	bl	8002a64 <HAL_GPIO_Init>
  /* USER CODE BEGIN USART2_MspInit 1 */

  /* USER CODE END USART2_MspInit 1 */
  }

}
 80016de:	bf00      	nop
 80016e0:	3728      	adds	r7, #40	; 0x28
 80016e2:	46bd      	mov	sp, r7
 80016e4:	bd80      	pop	{r7, pc}
 80016e6:	bf00      	nop
 80016e8:	40004400 	.word	0x40004400
 80016ec:	40023800 	.word	0x40023800
 80016f0:	40020000 	.word	0x40020000

080016f4 <NMI_Handler>:
/******************************************************************************/
/**
  * @brief This function handles Non maskable interrupt.
  */
void NMI_Handler(void)
{
 80016f4:	b480      	push	{r7}
 80016f6:	af00      	add	r7, sp, #0
  /* USER CODE BEGIN NonMaskableInt_IRQn 0 */

  /* USER CODE END NonMaskableInt_IRQn 0 */
  /* USER CODE BEGIN NonMaskableInt_IRQn 1 */
  while (1)
 80016f8:	e7fe      	b.n	80016f8 <NMI_Handler+0x4>

080016fa <HardFault_Handler>:

/**
  * @brief This function handles Hard fault interrupt.
  */
void HardFault_Handler(void)
{
 80016fa:	b480      	push	{r7}
 80016fc:	af00      	add	r7, sp, #0
  /* USER CODE BEGIN HardFault_IRQn 0 */

  /* USER CODE END HardFault_IRQn 0 */
  while (1)
 80016fe:	e7fe      	b.n	80016fe <HardFault_Handler+0x4>

08001700 <MemManage_Handler>:

/**
  * @brief This function handles Memory management fault.
  */
void MemManage_Handler(void)
{
 8001700:	b480      	push	{r7}
 8001702:	af00      	add	r7, sp, #0
  /* USER CODE BEGIN MemoryManagement_IRQn 0 */

  /* USER CODE END MemoryManagement_IRQn 0 */
  while (1)
 8001704:	e7fe      	b.n	8001704 <MemManage_Handler+0x4>

08001706 <BusFault_Handler>:

/**
  * @brief This function handles Pre-fetch fault, memory access fault.
  */
void BusFault_Handler(void)
{
 8001706:	b480      	push	{r7}
 8001708:	af00      	add	r7, sp, #0
  /* USER CODE BEGIN BusFault_IRQn 0 */

  /* USER CODE END BusFault_IRQn 0 */
  while (1)
 800170a:	e7fe      	b.n	800170a <BusFault_Handler+0x4>

0800170c <UsageFault_Handler>:

/**
  * @brief This function handles Undefined instruction or illegal state.
  */
void UsageFault_Handler(void)
{
 800170c:	b480      	push	{r7}
 800170e:	af00      	add	r7, sp, #0
  /* USER CODE BEGIN UsageFault_IRQn 0 */

  /* USER CODE END UsageFault_IRQn 0 */
  while (1)
 8001710:	e7fe      	b.n	8001710 <UsageFault_Handler+0x4>

08001712 <SVC_Handler>:

/**
  * @brief This function handles System service call via SWI instruction.
  */
void SVC_Handler(void)
{
 8001712:	b480      	push	{r7}
 8001714:	af00      	add	r7, sp, #0

  /* USER CODE END SVCall_IRQn 0 */
  /* USER CODE BEGIN SVCall_IRQn 1 */

  /* USER CODE END SVCall_IRQn 1 */
}
 8001716:	bf00      	nop
 8001718:	46bd      	mov	sp, r7
 800171a:	f85d 7b04 	ldr.w	r7, [sp], #4
 800171e:	4770      	bx	lr

08001720 <DebugMon_Handler>:

/**
  * @brief This function handles Debug monitor.
  */
void DebugMon_Handler(void)
{
 8001720:	b480      	push	{r7}
 8001722:	af00      	add	r7, sp, #0

  /* USER CODE END DebugMonitor_IRQn 0 */
  /* USER CODE BEGIN DebugMonitor_IRQn 1 */

  /* USER CODE END DebugMonitor_IRQn 1 */
}
 8001724:	bf00      	nop
 8001726:	46bd      	mov	sp, r7
 8001728:	f85d 7b04 	ldr.w	r7, [sp], #4
 800172c:	4770      	bx	lr

0800172e <PendSV_Handler>:

/**
  * @brief This function handles Pendable request for system service.
  */
void PendSV_Handler(void)
{
 800172e:	b480      	push	{r7}
 8001730:	af00      	add	r7, sp, #0

  /* USER CODE END PendSV_IRQn 0 */
  /* USER CODE BEGIN PendSV_IRQn 1 */

  /* USER CODE END PendSV_IRQn 1 */
}
 8001732:	bf00      	nop
 8001734:	46bd      	mov	sp, r7
 8001736:	f85d 7b04 	ldr.w	r7, [sp], #4
 800173a:	4770      	bx	lr

0800173c <SysTick_Handler>:

/**
  * @brief This function handles System tick timer.
  */
void SysTick_Handler(void)
{
 800173c:	b580      	push	{r7, lr}
 800173e:	af00      	add	r7, sp, #0
  /* USER CODE BEGIN SysTick_IRQn 0 */

  /* USER CODE END SysTick_IRQn 0 */
  HAL_IncTick();
 8001740:	f000 f8d4 	bl	80018ec <HAL_IncTick>
  /* USER CODE BEGIN SysTick_IRQn 1 */

  /* USER CODE END SysTick_IRQn 1 */
}
 8001744:	bf00      	nop
 8001746:	bd80      	pop	{r7, pc}

08001748 <DMA2_Stream0_IRQHandler>:

/**
  * @brief This function handles DMA2 stream0 global interrupt.
  */
void DMA2_Stream0_IRQHandler(void)
{
 8001748:	b580      	push	{r7, lr}
 800174a:	af00      	add	r7, sp, #0
  /* USER CODE BEGIN DMA2_Stream0_IRQn 0 */

  /* USER CODE END DMA2_Stream0_IRQn 0 */
  HAL_DMA_IRQHandler(&hdma_adc1);
 800174c:	4802      	ldr	r0, [pc, #8]	; (8001758 <DMA2_Stream0_IRQHandler+0x10>)
 800174e:	f000 ff21 	bl	8002594 <HAL_DMA_IRQHandler>
  /* USER CODE BEGIN DMA2_Stream0_IRQn 1 */

  /* USER CODE END DMA2_Stream0_IRQn 1 */
}
 8001752:	bf00      	nop
 8001754:	bd80      	pop	{r7, pc}
 8001756:	bf00      	nop
 8001758:	20008258 	.word	0x20008258

0800175c <_sbrk>:
 *
 * @param incr Memory size
 * @return Pointer to allocated memory
 */
void *_sbrk(ptrdiff_t incr)
{
 800175c:	b580      	push	{r7, lr}
 800175e:	b086      	sub	sp, #24
 8001760:	af00      	add	r7, sp, #0
 8001762:	6078      	str	r0, [r7, #4]
  extern uint8_t _end; /* Symbol defined in the linker script */
  extern uint8_t _estack; /* Symbol defined in the linker script */
  extern uint32_t _Min_Stack_Size; /* Symbol defined in the linker script */
  const uint32_t stack_limit = (uint32_t)&_estack - (uint32_t)&_Min_Stack_Size;
 8001764:	4a14      	ldr	r2, [pc, #80]	; (80017b8 <_sbrk+0x5c>)
 8001766:	4b15      	ldr	r3, [pc, #84]	; (80017bc <_sbrk+0x60>)
 8001768:	1ad3      	subs	r3, r2, r3
 800176a:	617b      	str	r3, [r7, #20]
  const uint8_t *max_heap = (uint8_t *)stack_limit;
 800176c:	697b      	ldr	r3, [r7, #20]
 800176e:	613b      	str	r3, [r7, #16]
  uint8_t *prev_heap_end;

  /* Initialize heap end at first call */
  if (NULL == __sbrk_heap_end)
 8001770:	4b13      	ldr	r3, [pc, #76]	; (80017c0 <_sbrk+0x64>)
 8001772:	681b      	ldr	r3, [r3, #0]
 8001774:	2b00      	cmp	r3, #0
 8001776:	d102      	bne.n	800177e <_sbrk+0x22>
  {
    __sbrk_heap_end = &_end;
 8001778:	4b11      	ldr	r3, [pc, #68]	; (80017c0 <_sbrk+0x64>)
 800177a:	4a12      	ldr	r2, [pc, #72]	; (80017c4 <_sbrk+0x68>)
 800177c:	601a      	str	r2, [r3, #0]
  }

  /* Protect heap from growing into the reserved MSP stack */
  if (__sbrk_heap_end + incr > max_heap)
 800177e:	4b10      	ldr	r3, [pc, #64]	; (80017c0 <_sbrk+0x64>)
 8001780:	681a      	ldr	r2, [r3, #0]
 8001782:	687b      	ldr	r3, [r7, #4]
 8001784:	4413      	add	r3, r2
 8001786:	693a      	ldr	r2, [r7, #16]
 8001788:	429a      	cmp	r2, r3
 800178a:	d207      	bcs.n	800179c <_sbrk+0x40>
  {
    errno = ENOMEM;
 800178c:	f002 fd40 	bl	8004210 <__errno>
 8001790:	4602      	mov	r2, r0
 8001792:	230c      	movs	r3, #12
 8001794:	6013      	str	r3, [r2, #0]
    return (void *)-1;
 8001796:	f04f 33ff 	mov.w	r3, #4294967295
 800179a:	e009      	b.n	80017b0 <_sbrk+0x54>
  }

  prev_heap_end = __sbrk_heap_end;
 800179c:	4b08      	ldr	r3, [pc, #32]	; (80017c0 <_sbrk+0x64>)
 800179e:	681b      	ldr	r3, [r3, #0]
 80017a0:	60fb      	str	r3, [r7, #12]
  __sbrk_heap_end += incr;
 80017a2:	4b07      	ldr	r3, [pc, #28]	; (80017c0 <_sbrk+0x64>)
 80017a4:	681a      	ldr	r2, [r3, #0]
 80017a6:	687b      	ldr	r3, [r7, #4]
 80017a8:	4413      	add	r3, r2
 80017aa:	4a05      	ldr	r2, [pc, #20]	; (80017c0 <_sbrk+0x64>)
 80017ac:	6013      	str	r3, [r2, #0]

  return (void *)prev_heap_end;
 80017ae:	68fb      	ldr	r3, [r7, #12]
}
 80017b0:	4618      	mov	r0, r3
 80017b2:	3718      	adds	r7, #24
 80017b4:	46bd      	mov	sp, r7
 80017b6:	bd80      	pop	{r7, pc}
 80017b8:	20020000 	.word	0x20020000
 80017bc:	00000400 	.word	0x00000400
 80017c0:	20000204 	.word	0x20000204
 80017c4:	2000cad0 	.word	0x2000cad0

080017c8 <SystemInit>:
  *         configuration.
  * @param  None
  * @retval None
  */
void SystemInit(void)
{
 80017c8:	b480      	push	{r7}
 80017ca:	af00      	add	r7, sp, #0
  /* FPU settings ------------------------------------------------------------*/
  #if (__FPU_PRESENT == 1) && (__FPU_USED == 1)
    SCB->CPACR |= ((3UL << 10*2)|(3UL << 11*2));  /* set CP10 and CP11 Full Access */
 80017cc:	4b08      	ldr	r3, [pc, #32]	; (80017f0 <SystemInit+0x28>)
 80017ce:	f8d3 3088 	ldr.w	r3, [r3, #136]	; 0x88
 80017d2:	4a07      	ldr	r2, [pc, #28]	; (80017f0 <SystemInit+0x28>)
 80017d4:	f443 0370 	orr.w	r3, r3, #15728640	; 0xf00000
 80017d8:	f8c2 3088 	str.w	r3, [r2, #136]	; 0x88

  /* Configure the Vector Table location add offset address ------------------*/
#ifdef VECT_TAB_SRAM
  SCB->VTOR = SRAM_BASE | VECT_TAB_OFFSET; /* Vector Table Relocation in Internal SRAM */
#else
  SCB->VTOR = FLASH_BASE | VECT_TAB_OFFSET; /* Vector Table Relocation in Internal FLASH */
 80017dc:	4b04      	ldr	r3, [pc, #16]	; (80017f0 <SystemInit+0x28>)
 80017de:	f04f 6200 	mov.w	r2, #134217728	; 0x8000000
 80017e2:	609a      	str	r2, [r3, #8]
#endif
}
 80017e4:	bf00      	nop
 80017e6:	46bd      	mov	sp, r7
 80017e8:	f85d 7b04 	ldr.w	r7, [sp], #4
 80017ec:	4770      	bx	lr
 80017ee:	bf00      	nop
 80017f0:	e000ed00 	.word	0xe000ed00

080017f4 <Reset_Handler>:

    .section  .text.Reset_Handler
  .weak  Reset_Handler
  .type  Reset_Handler, %function
Reset_Handler:  
  ldr   sp, =_estack      /* set stack pointer */
 80017f4:	f8df d034 	ldr.w	sp, [pc, #52]	; 800182c <LoopFillZerobss+0x14>

/* Copy the data segment initializers from flash to SRAM */  
  movs  r1, #0
 80017f8:	2100      	movs	r1, #0
  b  LoopCopyDataInit
 80017fa:	e003      	b.n	8001804 <LoopCopyDataInit>

080017fc <CopyDataInit>:

CopyDataInit:
  ldr  r3, =_sidata
 80017fc:	4b0c      	ldr	r3, [pc, #48]	; (8001830 <LoopFillZerobss+0x18>)
  ldr  r3, [r3, r1]
 80017fe:	585b      	ldr	r3, [r3, r1]
  str  r3, [r0, r1]
 8001800:	5043      	str	r3, [r0, r1]
  adds  r1, r1, #4
 8001802:	3104      	adds	r1, #4

08001804 <LoopCopyDataInit>:
    
LoopCopyDataInit:
  ldr  r0, =_sdata
 8001804:	480b      	ldr	r0, [pc, #44]	; (8001834 <LoopFillZerobss+0x1c>)
  ldr  r3, =_edata
 8001806:	4b0c      	ldr	r3, [pc, #48]	; (8001838 <LoopFillZerobss+0x20>)
  adds  r2, r0, r1
 8001808:	1842      	adds	r2, r0, r1
  cmp  r2, r3
 800180a:	429a      	cmp	r2, r3
  bcc  CopyDataInit
 800180c:	d3f6      	bcc.n	80017fc <CopyDataInit>
  ldr  r2, =_sbss
 800180e:	4a0b      	ldr	r2, [pc, #44]	; (800183c <LoopFillZerobss+0x24>)
  b  LoopFillZerobss
 8001810:	e002      	b.n	8001818 <LoopFillZerobss>

08001812 <FillZerobss>:
/* Zero fill the bss segment. */  
FillZerobss:
  movs  r3, #0
 8001812:	2300      	movs	r3, #0
  str  r3, [r2], #4
 8001814:	f842 3b04 	str.w	r3, [r2], #4

08001818 <LoopFillZerobss>:
    
LoopFillZerobss:
  ldr  r3, = _ebss
 8001818:	4b09      	ldr	r3, [pc, #36]	; (8001840 <LoopFillZerobss+0x28>)
  cmp  r2, r3
 800181a:	429a      	cmp	r2, r3
  bcc  FillZerobss
 800181c:	d3f9      	bcc.n	8001812 <FillZerobss>

/* Call the clock system intitialization function.*/
  bl  SystemInit   
 800181e:	f7ff ffd3 	bl	80017c8 <SystemInit>
/* Call static constructors */
    bl __libc_init_array
 8001822:	f002 fcfb 	bl	800421c <__libc_init_array>
/* Call the application's entry point.*/
  bl  main
 8001826:	f7ff fbaf 	bl	8000f88 <main>
  bx  lr    
 800182a:	4770      	bx	lr
  ldr   sp, =_estack      /* set stack pointer */
 800182c:	20020000 	.word	0x20020000
  ldr  r3, =_sidata
 8001830:	08006598 	.word	0x08006598
  ldr  r0, =_sdata
 8001834:	20000000 	.word	0x20000000
  ldr  r3, =_edata
 8001838:	200001dc 	.word	0x200001dc
  ldr  r2, =_sbss
 800183c:	200001dc 	.word	0x200001dc
  ldr  r3, = _ebss
 8001840:	2000cad0 	.word	0x2000cad0

08001844 <ADC_IRQHandler>:
 * @retval None       
*/
    .section  .text.Default_Handler,"ax",%progbits
Default_Handler:
Infinite_Loop:
  b  Infinite_Loop
 8001844:	e7fe      	b.n	8001844 <ADC_IRQHandler>
	...

08001848 <HAL_Init>:
  *         need to ensure that the SysTick time base is always set to 1 millisecond
  *         to have correct HAL operation.
  * @retval HAL status
  */
HAL_StatusTypeDef HAL_Init(void)
{
 8001848:	b580      	push	{r7, lr}
 800184a:	af00      	add	r7, sp, #0
  /* Configure Flash prefetch, Instruction cache, Data cache */ 
#if (INSTRUCTION_CACHE_ENABLE != 0U)
  __HAL_FLASH_INSTRUCTION_CACHE_ENABLE();
 800184c:	4b0e      	ldr	r3, [pc, #56]	; (8001888 <HAL_Init+0x40>)
 800184e:	681b      	ldr	r3, [r3, #0]
 8001850:	4a0d      	ldr	r2, [pc, #52]	; (8001888 <HAL_Init+0x40>)
 8001852:	f443 7300 	orr.w	r3, r3, #512	; 0x200
 8001856:	6013      	str	r3, [r2, #0]
#endif /* INSTRUCTION_CACHE_ENABLE */

#if (DATA_CACHE_ENABLE != 0U)
  __HAL_FLASH_DATA_CACHE_ENABLE();
 8001858:	4b0b      	ldr	r3, [pc, #44]	; (8001888 <HAL_Init+0x40>)
 800185a:	681b      	ldr	r3, [r3, #0]
 800185c:	4a0a      	ldr	r2, [pc, #40]	; (8001888 <HAL_Init+0x40>)
 800185e:	f443 6380 	orr.w	r3, r3, #1024	; 0x400
 8001862:	6013      	str	r3, [r2, #0]
#endif /* DATA_CACHE_ENABLE */

#if (PREFETCH_ENABLE != 0U)
  __HAL_FLASH_PREFETCH_BUFFER_ENABLE();
 8001864:	4b08      	ldr	r3, [pc, #32]	; (8001888 <HAL_Init+0x40>)
 8001866:	681b      	ldr	r3, [r3, #0]
 8001868:	4a07      	ldr	r2, [pc, #28]	; (8001888 <HAL_Init+0x40>)
 800186a:	f443 7380 	orr.w	r3, r3, #256	; 0x100
 800186e:	6013      	str	r3, [r2, #0]
#endif /* PREFETCH_ENABLE */

  /* Set Interrupt Group Priority */
  HAL_NVIC_SetPriorityGrouping(NVIC_PRIORITYGROUP_4);
 8001870:	2003      	movs	r0, #3
 8001872:	f000 fd47 	bl	8002304 <HAL_NVIC_SetPriorityGrouping>

  /* Use systick as time base source and configure 1ms tick (default clock after Reset is HSI) */
  HAL_InitTick(TICK_INT_PRIORITY);
 8001876:	2000      	movs	r0, #0
 8001878:	f000 f808 	bl	800188c <HAL_InitTick>

  /* Init the low level hardware */
  HAL_MspInit();
 800187c:	f7ff fe52 	bl	8001524 <HAL_MspInit>

  /* Return function status */
  return HAL_OK;
 8001880:	2300      	movs	r3, #0
}
 8001882:	4618      	mov	r0, r3
 8001884:	bd80      	pop	{r7, pc}
 8001886:	bf00      	nop
 8001888:	40023c00 	.word	0x40023c00

0800188c <HAL_InitTick>:
  *       implementation  in user file.
  * @param TickPriority Tick interrupt priority.
  * @retval HAL status
  */
__weak HAL_StatusTypeDef HAL_InitTick(uint32_t TickPriority)
{
 800188c:	b580      	push	{r7, lr}
 800188e:	b082      	sub	sp, #8
 8001890:	af00      	add	r7, sp, #0
 8001892:	6078      	str	r0, [r7, #4]
  /* Configure the SysTick to have interrupt in 1ms time basis*/
  if (HAL_SYSTICK_Config(SystemCoreClock / (1000U / uwTickFreq)) > 0U)
 8001894:	4b12      	ldr	r3, [pc, #72]	; (80018e0 <HAL_InitTick+0x54>)
 8001896:	681a      	ldr	r2, [r3, #0]
 8001898:	4b12      	ldr	r3, [pc, #72]	; (80018e4 <HAL_InitTick+0x58>)
 800189a:	781b      	ldrb	r3, [r3, #0]
 800189c:	4619      	mov	r1, r3
 800189e:	f44f 737a 	mov.w	r3, #1000	; 0x3e8
 80018a2:	fbb3 f3f1 	udiv	r3, r3, r1
 80018a6:	fbb2 f3f3 	udiv	r3, r2, r3
 80018aa:	4618      	mov	r0, r3
 80018ac:	f000 fd5f 	bl	800236e <HAL_SYSTICK_Config>
 80018b0:	4603      	mov	r3, r0
 80018b2:	2b00      	cmp	r3, #0
 80018b4:	d001      	beq.n	80018ba <HAL_InitTick+0x2e>
  {
    return HAL_ERROR;
 80018b6:	2301      	movs	r3, #1
 80018b8:	e00e      	b.n	80018d8 <HAL_InitTick+0x4c>
  }

  /* Configure the SysTick IRQ priority */
  if (TickPriority < (1UL << __NVIC_PRIO_BITS))
 80018ba:	687b      	ldr	r3, [r7, #4]
 80018bc:	2b0f      	cmp	r3, #15
 80018be:	d80a      	bhi.n	80018d6 <HAL_InitTick+0x4a>
  {
    HAL_NVIC_SetPriority(SysTick_IRQn, TickPriority, 0U);
 80018c0:	2200      	movs	r2, #0
 80018c2:	6879      	ldr	r1, [r7, #4]
 80018c4:	f04f 30ff 	mov.w	r0, #4294967295
 80018c8:	f000 fd27 	bl	800231a <HAL_NVIC_SetPriority>
    uwTickPrio = TickPriority;
 80018cc:	4a06      	ldr	r2, [pc, #24]	; (80018e8 <HAL_InitTick+0x5c>)
 80018ce:	687b      	ldr	r3, [r7, #4]
 80018d0:	6013      	str	r3, [r2, #0]
  {
    return HAL_ERROR;
  }

  /* Return function status */
  return HAL_OK;
 80018d2:	2300      	movs	r3, #0
 80018d4:	e000      	b.n	80018d8 <HAL_InitTick+0x4c>
    return HAL_ERROR;
 80018d6:	2301      	movs	r3, #1
}
 80018d8:	4618      	mov	r0, r3
 80018da:	3708      	adds	r7, #8
 80018dc:	46bd      	mov	sp, r7
 80018de:	bd80      	pop	{r7, pc}
 80018e0:	20000000 	.word	0x20000000
 80018e4:	20000008 	.word	0x20000008
 80018e8:	20000004 	.word	0x20000004

080018ec <HAL_IncTick>:
 * @note This function is declared as __weak to be overwritten in case of other 
  *      implementations in user file.
  * @retval None
  */
__weak void HAL_IncTick(void)
{
 80018ec:	b480      	push	{r7}
 80018ee:	af00      	add	r7, sp, #0
  uwTick += uwTickFreq;
 80018f0:	4b06      	ldr	r3, [pc, #24]	; (800190c <HAL_IncTick+0x20>)
 80018f2:	781b      	ldrb	r3, [r3, #0]
 80018f4:	461a      	mov	r2, r3
 80018f6:	4b06      	ldr	r3, [pc, #24]	; (8001910 <HAL_IncTick+0x24>)
 80018f8:	681b      	ldr	r3, [r3, #0]
 80018fa:	4413      	add	r3, r2
 80018fc:	4a04      	ldr	r2, [pc, #16]	; (8001910 <HAL_IncTick+0x24>)
 80018fe:	6013      	str	r3, [r2, #0]
}
 8001900:	bf00      	nop
 8001902:	46bd      	mov	sp, r7
 8001904:	f85d 7b04 	ldr.w	r7, [sp], #4
 8001908:	4770      	bx	lr
 800190a:	bf00      	nop
 800190c:	20000008 	.word	0x20000008
 8001910:	2000cac8 	.word	0x2000cac8

08001914 <HAL_GetTick>:
  * @note This function is declared as __weak to be overwritten in case of other 
  *       implementations in user file.
  * @retval tick value
  */
__weak uint32_t HAL_GetTick(void)
{
 8001914:	b480      	push	{r7}
 8001916:	af00      	add	r7, sp, #0
  return uwTick;
 8001918:	4b03      	ldr	r3, [pc, #12]	; (8001928 <HAL_GetTick+0x14>)
 800191a:	681b      	ldr	r3, [r3, #0]
}
 800191c:	4618      	mov	r0, r3
 800191e:	46bd      	mov	sp, r7
 8001920:	f85d 7b04 	ldr.w	r7, [sp], #4
 8001924:	4770      	bx	lr
 8001926:	bf00      	nop
 8001928:	2000cac8 	.word	0x2000cac8

0800192c <HAL_Delay>:
  *       implementations in user file.
  * @param Delay specifies the delay time length, in milliseconds.
  * @retval None
  */
__weak void HAL_Delay(uint32_t Delay)
{
 800192c:	b580      	push	{r7, lr}
 800192e:	b084      	sub	sp, #16
 8001930:	af00      	add	r7, sp, #0
 8001932:	6078      	str	r0, [r7, #4]
  uint32_t tickstart = HAL_GetTick();
 8001934:	f7ff ffee 	bl	8001914 <HAL_GetTick>
 8001938:	60b8      	str	r0, [r7, #8]
  uint32_t wait = Delay;
 800193a:	687b      	ldr	r3, [r7, #4]
 800193c:	60fb      	str	r3, [r7, #12]

  /* Add a freq to guarantee minimum wait */
  if (wait < HAL_MAX_DELAY)
 800193e:	68fb      	ldr	r3, [r7, #12]
 8001940:	f1b3 3fff 	cmp.w	r3, #4294967295
 8001944:	d005      	beq.n	8001952 <HAL_Delay+0x26>
  {
    wait += (uint32_t)(uwTickFreq);
 8001946:	4b09      	ldr	r3, [pc, #36]	; (800196c <HAL_Delay+0x40>)
 8001948:	781b      	ldrb	r3, [r3, #0]
 800194a:	461a      	mov	r2, r3
 800194c:	68fb      	ldr	r3, [r7, #12]
 800194e:	4413      	add	r3, r2
 8001950:	60fb      	str	r3, [r7, #12]
  }

  while((HAL_GetTick() - tickstart) < wait)
 8001952:	bf00      	nop
 8001954:	f7ff ffde 	bl	8001914 <HAL_GetTick>
 8001958:	4602      	mov	r2, r0
 800195a:	68bb      	ldr	r3, [r7, #8]
 800195c:	1ad3      	subs	r3, r2, r3
 800195e:	68fa      	ldr	r2, [r7, #12]
 8001960:	429a      	cmp	r2, r3
 8001962:	d8f7      	bhi.n	8001954 <HAL_Delay+0x28>
  {
  }
}
 8001964:	bf00      	nop
 8001966:	3710      	adds	r7, #16
 8001968:	46bd      	mov	sp, r7
 800196a:	bd80      	pop	{r7, pc}
 800196c:	20000008 	.word	0x20000008

08001970 <HAL_ADC_Init>:
  * @param  hadc pointer to a ADC_HandleTypeDef structure that contains
  *         the configuration information for the specified ADC.  
  * @retval HAL status
  */
HAL_StatusTypeDef HAL_ADC_Init(ADC_HandleTypeDef* hadc)
{
 8001970:	b580      	push	{r7, lr}
 8001972:	b084      	sub	sp, #16
 8001974:	af00      	add	r7, sp, #0
 8001976:	6078      	str	r0, [r7, #4]
  HAL_StatusTypeDef tmp_hal_status = HAL_OK;
 8001978:	2300      	movs	r3, #0
 800197a:	73fb      	strb	r3, [r7, #15]
  
  /* Check ADC handle */
  if(hadc == NULL)
 800197c:	687b      	ldr	r3, [r7, #4]
 800197e:	2b00      	cmp	r3, #0
 8001980:	d101      	bne.n	8001986 <HAL_ADC_Init+0x16>
  {
    return HAL_ERROR;
 8001982:	2301      	movs	r3, #1
 8001984:	e033      	b.n	80019ee <HAL_ADC_Init+0x7e>
  if(hadc->Init.ExternalTrigConv != ADC_SOFTWARE_START)
  {
    assert_param(IS_ADC_EXT_TRIG_EDGE(hadc->Init.ExternalTrigConvEdge));
  }
  
  if(hadc->State == HAL_ADC_STATE_RESET)
 8001986:	687b      	ldr	r3, [r7, #4]
 8001988:	6c1b      	ldr	r3, [r3, #64]	; 0x40
 800198a:	2b00      	cmp	r3, #0
 800198c:	d109      	bne.n	80019a2 <HAL_ADC_Init+0x32>

    /* Init the low level hardware */
    hadc->MspInitCallback(hadc);
#else
    /* Init the low level hardware */
    HAL_ADC_MspInit(hadc);
 800198e:	6878      	ldr	r0, [r7, #4]
 8001990:	f7ff fdf0 	bl	8001574 <HAL_ADC_MspInit>
#endif /* USE_HAL_ADC_REGISTER_CALLBACKS */

    /* Initialize ADC error code */
    ADC_CLEAR_ERRORCODE(hadc);
 8001994:	687b      	ldr	r3, [r7, #4]
 8001996:	2200      	movs	r2, #0
 8001998:	645a      	str	r2, [r3, #68]	; 0x44
    
    /* Allocate lock resource and initialize it */
    hadc->Lock = HAL_UNLOCKED;
 800199a:	687b      	ldr	r3, [r7, #4]
 800199c:	2200      	movs	r2, #0
 800199e:	f883 203c 	strb.w	r2, [r3, #60]	; 0x3c
  }
  
  /* Configuration of ADC parameters if previous preliminary actions are      */ 
  /* correctly completed.                                                     */
  if (HAL_IS_BIT_CLR(hadc->State, HAL_ADC_STATE_ERROR_INTERNAL))
 80019a2:	687b      	ldr	r3, [r7, #4]
 80019a4:	6c1b      	ldr	r3, [r3, #64]	; 0x40
 80019a6:	f003 0310 	and.w	r3, r3, #16
 80019aa:	2b00      	cmp	r3, #0
 80019ac:	d118      	bne.n	80019e0 <HAL_ADC_Init+0x70>
  {
    /* Set ADC state */
    ADC_STATE_CLR_SET(hadc->State,
 80019ae:	687b      	ldr	r3, [r7, #4]
 80019b0:	6c1b      	ldr	r3, [r3, #64]	; 0x40
 80019b2:	f423 5388 	bic.w	r3, r3, #4352	; 0x1100
 80019b6:	f023 0302 	bic.w	r3, r3, #2
 80019ba:	f043 0202 	orr.w	r2, r3, #2
 80019be:	687b      	ldr	r3, [r7, #4]
 80019c0:	641a      	str	r2, [r3, #64]	; 0x40
                      HAL_ADC_STATE_REG_BUSY | HAL_ADC_STATE_INJ_BUSY,
                      HAL_ADC_STATE_BUSY_INTERNAL);
    
    /* Set ADC parameters */
    ADC_Init(hadc);
 80019c2:	6878      	ldr	r0, [r7, #4]
 80019c4:	f000 fa50 	bl	8001e68 <ADC_Init>
    
    /* Set ADC error code to none */
    ADC_CLEAR_ERRORCODE(hadc);
 80019c8:	687b      	ldr	r3, [r7, #4]
 80019ca:	2200      	movs	r2, #0
 80019cc:	645a      	str	r2, [r3, #68]	; 0x44
    
    /* Set the ADC state */
    ADC_STATE_CLR_SET(hadc->State,
 80019ce:	687b      	ldr	r3, [r7, #4]
 80019d0:	6c1b      	ldr	r3, [r3, #64]	; 0x40
 80019d2:	f023 0303 	bic.w	r3, r3, #3
 80019d6:	f043 0201 	orr.w	r2, r3, #1
 80019da:	687b      	ldr	r3, [r7, #4]
 80019dc:	641a      	str	r2, [r3, #64]	; 0x40
 80019de:	e001      	b.n	80019e4 <HAL_ADC_Init+0x74>
                      HAL_ADC_STATE_BUSY_INTERNAL,
                      HAL_ADC_STATE_READY);
  }
  else
  {
    tmp_hal_status = HAL_ERROR;
 80019e0:	2301      	movs	r3, #1
 80019e2:	73fb      	strb	r3, [r7, #15]
  }
  
  /* Release Lock */
  __HAL_UNLOCK(hadc);
 80019e4:	687b      	ldr	r3, [r7, #4]
 80019e6:	2200      	movs	r2, #0
 80019e8:	f883 203c 	strb.w	r2, [r3, #60]	; 0x3c

  /* Return function status */
  return tmp_hal_status;
 80019ec:	7bfb      	ldrb	r3, [r7, #15]
}
 80019ee:	4618      	mov	r0, r3
 80019f0:	3710      	adds	r7, #16
 80019f2:	46bd      	mov	sp, r7
 80019f4:	bd80      	pop	{r7, pc}
	...

080019f8 <HAL_ADC_Start_DMA>:
  * @param  pData The destination Buffer address.
  * @param  Length The length of data to be transferred from ADC peripheral to memory.
  * @retval HAL status
  */
HAL_StatusTypeDef HAL_ADC_Start_DMA(ADC_HandleTypeDef* hadc, uint32_t* pData, uint32_t Length)
{
 80019f8:	b580      	push	{r7, lr}
 80019fa:	b086      	sub	sp, #24
 80019fc:	af00      	add	r7, sp, #0
 80019fe:	60f8      	str	r0, [r7, #12]
 8001a00:	60b9      	str	r1, [r7, #8]
 8001a02:	607a      	str	r2, [r7, #4]
  __IO uint32_t counter = 0U;
 8001a04:	2300      	movs	r3, #0
 8001a06:	613b      	str	r3, [r7, #16]
  /* Check the parameters */
  assert_param(IS_FUNCTIONAL_STATE(hadc->Init.ContinuousConvMode));
  assert_param(IS_ADC_EXT_TRIG_EDGE(hadc->Init.ExternalTrigConvEdge)); 
  
  /* Process locked */
  __HAL_LOCK(hadc);
 8001a08:	68fb      	ldr	r3, [r7, #12]
 8001a0a:	f893 303c 	ldrb.w	r3, [r3, #60]	; 0x3c
 8001a0e:	2b01      	cmp	r3, #1
 8001a10:	d101      	bne.n	8001a16 <HAL_ADC_Start_DMA+0x1e>
 8001a12:	2302      	movs	r3, #2
 8001a14:	e0cc      	b.n	8001bb0 <HAL_ADC_Start_DMA+0x1b8>
 8001a16:	68fb      	ldr	r3, [r7, #12]
 8001a18:	2201      	movs	r2, #1
 8001a1a:	f883 203c 	strb.w	r2, [r3, #60]	; 0x3c
  
  /* Enable the ADC peripheral */
  /* Check if ADC peripheral is disabled in order to enable it and wait during 
  Tstab time the ADC's stabilization */
  if((hadc->Instance->CR2 & ADC_CR2_ADON) != ADC_CR2_ADON)
 8001a1e:	68fb      	ldr	r3, [r7, #12]
 8001a20:	681b      	ldr	r3, [r3, #0]
 8001a22:	689b      	ldr	r3, [r3, #8]
 8001a24:	f003 0301 	and.w	r3, r3, #1
 8001a28:	2b01      	cmp	r3, #1
 8001a2a:	d018      	beq.n	8001a5e <HAL_ADC_Start_DMA+0x66>
  {  
    /* Enable the Peripheral */
    __HAL_ADC_ENABLE(hadc);
 8001a2c:	68fb      	ldr	r3, [r7, #12]
 8001a2e:	681b      	ldr	r3, [r3, #0]
 8001a30:	689a      	ldr	r2, [r3, #8]
 8001a32:	68fb      	ldr	r3, [r7, #12]
 8001a34:	681b      	ldr	r3, [r3, #0]
 8001a36:	f042 0201 	orr.w	r2, r2, #1
 8001a3a:	609a      	str	r2, [r3, #8]
    
    /* Delay for ADC stabilization time */
    /* Compute number of CPU cycles to wait for */
    counter = (ADC_STAB_DELAY_US * (SystemCoreClock / 1000000U));
 8001a3c:	4b5e      	ldr	r3, [pc, #376]	; (8001bb8 <HAL_ADC_Start_DMA+0x1c0>)
 8001a3e:	681b      	ldr	r3, [r3, #0]
 8001a40:	4a5e      	ldr	r2, [pc, #376]	; (8001bbc <HAL_ADC_Start_DMA+0x1c4>)
 8001a42:	fba2 2303 	umull	r2, r3, r2, r3
 8001a46:	0c9a      	lsrs	r2, r3, #18
 8001a48:	4613      	mov	r3, r2
 8001a4a:	005b      	lsls	r3, r3, #1
 8001a4c:	4413      	add	r3, r2
 8001a4e:	613b      	str	r3, [r7, #16]
    while(counter != 0U)
 8001a50:	e002      	b.n	8001a58 <HAL_ADC_Start_DMA+0x60>
    {
      counter--;
 8001a52:	693b      	ldr	r3, [r7, #16]
 8001a54:	3b01      	subs	r3, #1
 8001a56:	613b      	str	r3, [r7, #16]
    while(counter != 0U)
 8001a58:	693b      	ldr	r3, [r7, #16]
 8001a5a:	2b00      	cmp	r3, #0
 8001a5c:	d1f9      	bne.n	8001a52 <HAL_ADC_Start_DMA+0x5a>
    }
  }
  
  /* Start conversion if ADC is effectively enabled */
  if(HAL_IS_BIT_SET(hadc->Instance->CR2, ADC_CR2_ADON))
 8001a5e:	68fb      	ldr	r3, [r7, #12]
 8001a60:	681b      	ldr	r3, [r3, #0]
 8001a62:	689b      	ldr	r3, [r3, #8]
 8001a64:	f003 0301 	and.w	r3, r3, #1
 8001a68:	2b01      	cmp	r3, #1
 8001a6a:	f040 80a0 	bne.w	8001bae <HAL_ADC_Start_DMA+0x1b6>
  {
    /* Set ADC state                                                          */
    /* - Clear state bitfield related to regular group conversion results     */
    /* - Set state bitfield related to regular group operation                */
    ADC_STATE_CLR_SET(hadc->State,
 8001a6e:	68fb      	ldr	r3, [r7, #12]
 8001a70:	6c1b      	ldr	r3, [r3, #64]	; 0x40
 8001a72:	f423 63e0 	bic.w	r3, r3, #1792	; 0x700
 8001a76:	f023 0301 	bic.w	r3, r3, #1
 8001a7a:	f443 7280 	orr.w	r2, r3, #256	; 0x100
 8001a7e:	68fb      	ldr	r3, [r7, #12]
 8001a80:	641a      	str	r2, [r3, #64]	; 0x40
                      HAL_ADC_STATE_READY | HAL_ADC_STATE_REG_EOC | HAL_ADC_STATE_REG_OVR,
                      HAL_ADC_STATE_REG_BUSY);
    
    /* If conversions on group regular are also triggering group injected,    */
    /* update ADC state.                                                      */
    if (READ_BIT(hadc->Instance->CR1, ADC_CR1_JAUTO) != RESET)
 8001a82:	68fb      	ldr	r3, [r7, #12]
 8001a84:	681b      	ldr	r3, [r3, #0]
 8001a86:	685b      	ldr	r3, [r3, #4]
 8001a88:	f403 6380 	and.w	r3, r3, #1024	; 0x400
 8001a8c:	2b00      	cmp	r3, #0
 8001a8e:	d007      	beq.n	8001aa0 <HAL_ADC_Start_DMA+0xa8>
    {
      ADC_STATE_CLR_SET(hadc->State, HAL_ADC_STATE_INJ_EOC, HAL_ADC_STATE_INJ_BUSY);  
 8001a90:	68fb      	ldr	r3, [r7, #12]
 8001a92:	6c1b      	ldr	r3, [r3, #64]	; 0x40
 8001a94:	f423 5340 	bic.w	r3, r3, #12288	; 0x3000
 8001a98:	f443 5280 	orr.w	r2, r3, #4096	; 0x1000
 8001a9c:	68fb      	ldr	r3, [r7, #12]
 8001a9e:	641a      	str	r2, [r3, #64]	; 0x40
    }
    
    /* State machine update: Check if an injected conversion is ongoing */
    if (HAL_IS_BIT_SET(hadc->State, HAL_ADC_STATE_INJ_BUSY))
 8001aa0:	68fb      	ldr	r3, [r7, #12]
 8001aa2:	6c1b      	ldr	r3, [r3, #64]	; 0x40
 8001aa4:	f403 5380 	and.w	r3, r3, #4096	; 0x1000
 8001aa8:	f5b3 5f80 	cmp.w	r3, #4096	; 0x1000
 8001aac:	d106      	bne.n	8001abc <HAL_ADC_Start_DMA+0xc4>
    {
      /* Reset ADC error code fields related to conversions on group regular */
      CLEAR_BIT(hadc->ErrorCode, (HAL_ADC_ERROR_OVR | HAL_ADC_ERROR_DMA));         
 8001aae:	68fb      	ldr	r3, [r7, #12]
 8001ab0:	6c5b      	ldr	r3, [r3, #68]	; 0x44
 8001ab2:	f023 0206 	bic.w	r2, r3, #6
 8001ab6:	68fb      	ldr	r3, [r7, #12]
 8001ab8:	645a      	str	r2, [r3, #68]	; 0x44
 8001aba:	e002      	b.n	8001ac2 <HAL_ADC_Start_DMA+0xca>
    }
    else
    {
      /* Reset ADC all error code fields */
      ADC_CLEAR_ERRORCODE(hadc);
 8001abc:	68fb      	ldr	r3, [r7, #12]
 8001abe:	2200      	movs	r2, #0
 8001ac0:	645a      	str	r2, [r3, #68]	; 0x44
    }

    /* Process unlocked */
    /* Unlock before starting ADC conversions: in case of potential           */
    /* interruption, to let the process to ADC IRQ Handler.                   */
    __HAL_UNLOCK(hadc);   
 8001ac2:	68fb      	ldr	r3, [r7, #12]
 8001ac4:	2200      	movs	r2, #0
 8001ac6:	f883 203c 	strb.w	r2, [r3, #60]	; 0x3c

    /* Pointer to the common control register to which is belonging hadc    */
    /* (Depending on STM32F4 product, there may be up to 3 ADCs and 1 common */
    /* control register)                                                    */
    tmpADC_Common = ADC_COMMON_REGISTER(hadc);
 8001aca:	4b3d      	ldr	r3, [pc, #244]	; (8001bc0 <HAL_ADC_Start_DMA+0x1c8>)
 8001acc:	617b      	str	r3, [r7, #20]

    /* Set the DMA transfer complete callback */
    hadc->DMA_Handle->XferCpltCallback = ADC_DMAConvCplt;
 8001ace:	68fb      	ldr	r3, [r7, #12]
 8001ad0:	6b9b      	ldr	r3, [r3, #56]	; 0x38
 8001ad2:	4a3c      	ldr	r2, [pc, #240]	; (8001bc4 <HAL_ADC_Start_DMA+0x1cc>)
 8001ad4:	63da      	str	r2, [r3, #60]	; 0x3c

    /* Set the DMA half transfer complete callback */
    hadc->DMA_Handle->XferHalfCpltCallback = ADC_DMAHalfConvCplt;
 8001ad6:	68fb      	ldr	r3, [r7, #12]
 8001ad8:	6b9b      	ldr	r3, [r3, #56]	; 0x38
 8001ada:	4a3b      	ldr	r2, [pc, #236]	; (8001bc8 <HAL_ADC_Start_DMA+0x1d0>)
 8001adc:	641a      	str	r2, [r3, #64]	; 0x40
    
    /* Set the DMA error callback */
    hadc->DMA_Handle->XferErrorCallback = ADC_DMAError;
 8001ade:	68fb      	ldr	r3, [r7, #12]
 8001ae0:	6b9b      	ldr	r3, [r3, #56]	; 0x38
 8001ae2:	4a3a      	ldr	r2, [pc, #232]	; (8001bcc <HAL_ADC_Start_DMA+0x1d4>)
 8001ae4:	64da      	str	r2, [r3, #76]	; 0x4c
    /* Manage ADC and DMA start: ADC overrun interruption, DMA start, ADC     */
    /* start (in case of SW start):                                           */
    
    /* Clear regular group conversion flag and overrun flag */
    /* (To ensure of no unknown state from potential previous ADC operations) */
    __HAL_ADC_CLEAR_FLAG(hadc, ADC_FLAG_EOC | ADC_FLAG_OVR);
 8001ae6:	68fb      	ldr	r3, [r7, #12]
 8001ae8:	681b      	ldr	r3, [r3, #0]
 8001aea:	f06f 0222 	mvn.w	r2, #34	; 0x22
 8001aee:	601a      	str	r2, [r3, #0]

    /* Enable ADC overrun interrupt */
    __HAL_ADC_ENABLE_IT(hadc, ADC_IT_OVR);
 8001af0:	68fb      	ldr	r3, [r7, #12]
 8001af2:	681b      	ldr	r3, [r3, #0]
 8001af4:	685a      	ldr	r2, [r3, #4]
 8001af6:	68fb      	ldr	r3, [r7, #12]
 8001af8:	681b      	ldr	r3, [r3, #0]
 8001afa:	f042 6280 	orr.w	r2, r2, #67108864	; 0x4000000
 8001afe:	605a      	str	r2, [r3, #4]
    
    /* Enable ADC DMA mode */
    hadc->Instance->CR2 |= ADC_CR2_DMA;
 8001b00:	68fb      	ldr	r3, [r7, #12]
 8001b02:	681b      	ldr	r3, [r3, #0]
 8001b04:	689a      	ldr	r2, [r3, #8]
 8001b06:	68fb      	ldr	r3, [r7, #12]
 8001b08:	681b      	ldr	r3, [r3, #0]
 8001b0a:	f442 7280 	orr.w	r2, r2, #256	; 0x100
 8001b0e:	609a      	str	r2, [r3, #8]
    
    /* Start the DMA channel */
    HAL_DMA_Start_IT(hadc->DMA_Handle, (uint32_t)&hadc->Instance->DR, (uint32_t)pData, Length);
 8001b10:	68fb      	ldr	r3, [r7, #12]
 8001b12:	6b98      	ldr	r0, [r3, #56]	; 0x38
 8001b14:	68fb      	ldr	r3, [r7, #12]
 8001b16:	681b      	ldr	r3, [r3, #0]
 8001b18:	334c      	adds	r3, #76	; 0x4c
 8001b1a:	4619      	mov	r1, r3
 8001b1c:	68ba      	ldr	r2, [r7, #8]
 8001b1e:	687b      	ldr	r3, [r7, #4]
 8001b20:	f000 fce0 	bl	80024e4 <HAL_DMA_Start_IT>
    
    /* Check if Multimode enabled */
    if(HAL_IS_BIT_CLR(tmpADC_Common->CCR, ADC_CCR_MULTI))
 8001b24:	697b      	ldr	r3, [r7, #20]
 8001b26:	685b      	ldr	r3, [r3, #4]
 8001b28:	f003 031f 	and.w	r3, r3, #31
 8001b2c:	2b00      	cmp	r3, #0
 8001b2e:	d12a      	bne.n	8001b86 <HAL_ADC_Start_DMA+0x18e>
    {
#if defined(ADC2) && defined(ADC3)
      if((hadc->Instance == ADC1) || ((hadc->Instance == ADC2) && ((ADC->CCR & ADC_CCR_MULTI_Msk) < ADC_CCR_MULTI_0)) \
 8001b30:	68fb      	ldr	r3, [r7, #12]
 8001b32:	681b      	ldr	r3, [r3, #0]
 8001b34:	4a26      	ldr	r2, [pc, #152]	; (8001bd0 <HAL_ADC_Start_DMA+0x1d8>)
 8001b36:	4293      	cmp	r3, r2
 8001b38:	d015      	beq.n	8001b66 <HAL_ADC_Start_DMA+0x16e>
 8001b3a:	68fb      	ldr	r3, [r7, #12]
 8001b3c:	681b      	ldr	r3, [r3, #0]
 8001b3e:	4a25      	ldr	r2, [pc, #148]	; (8001bd4 <HAL_ADC_Start_DMA+0x1dc>)
 8001b40:	4293      	cmp	r3, r2
 8001b42:	d105      	bne.n	8001b50 <HAL_ADC_Start_DMA+0x158>
 8001b44:	4b1e      	ldr	r3, [pc, #120]	; (8001bc0 <HAL_ADC_Start_DMA+0x1c8>)
 8001b46:	685b      	ldr	r3, [r3, #4]
 8001b48:	f003 031f 	and.w	r3, r3, #31
 8001b4c:	2b00      	cmp	r3, #0
 8001b4e:	d00a      	beq.n	8001b66 <HAL_ADC_Start_DMA+0x16e>
                                  || ((hadc->Instance == ADC3) && ((ADC->CCR & ADC_CCR_MULTI_Msk) < ADC_CCR_MULTI_4)))
 8001b50:	68fb      	ldr	r3, [r7, #12]
 8001b52:	681b      	ldr	r3, [r3, #0]
 8001b54:	4a20      	ldr	r2, [pc, #128]	; (8001bd8 <HAL_ADC_Start_DMA+0x1e0>)
 8001b56:	4293      	cmp	r3, r2
 8001b58:	d129      	bne.n	8001bae <HAL_ADC_Start_DMA+0x1b6>
 8001b5a:	4b19      	ldr	r3, [pc, #100]	; (8001bc0 <HAL_ADC_Start_DMA+0x1c8>)
 8001b5c:	685b      	ldr	r3, [r3, #4]
 8001b5e:	f003 031f 	and.w	r3, r3, #31
 8001b62:	2b0f      	cmp	r3, #15
 8001b64:	d823      	bhi.n	8001bae <HAL_ADC_Start_DMA+0x1b6>
      {
#endif /* ADC2 || ADC3 */
        /* if no external trigger present enable software conversion of regular channels */
        if((hadc->Instance->CR2 & ADC_CR2_EXTEN) == RESET) 
 8001b66:	68fb      	ldr	r3, [r7, #12]
 8001b68:	681b      	ldr	r3, [r3, #0]
 8001b6a:	689b      	ldr	r3, [r3, #8]
 8001b6c:	f003 5340 	and.w	r3, r3, #805306368	; 0x30000000
 8001b70:	2b00      	cmp	r3, #0
 8001b72:	d11c      	bne.n	8001bae <HAL_ADC_Start_DMA+0x1b6>
        {
          /* Enable the selected ADC software conversion for regular group */
          hadc->Instance->CR2 |= (uint32_t)ADC_CR2_SWSTART;
 8001b74:	68fb      	ldr	r3, [r7, #12]
 8001b76:	681b      	ldr	r3, [r3, #0]
 8001b78:	689a      	ldr	r2, [r3, #8]
 8001b7a:	68fb      	ldr	r3, [r7, #12]
 8001b7c:	681b      	ldr	r3, [r3, #0]
 8001b7e:	f042 4280 	orr.w	r2, r2, #1073741824	; 0x40000000
 8001b82:	609a      	str	r2, [r3, #8]
 8001b84:	e013      	b.n	8001bae <HAL_ADC_Start_DMA+0x1b6>
#endif /* ADC2 || ADC3 */
    }
    else
    {
      /* if instance of handle correspond to ADC1 and  no external trigger present enable software conversion of regular channels */
      if((hadc->Instance == ADC1) && ((hadc->Instance->CR2 & ADC_CR2_EXTEN) == RESET))
 8001b86:	68fb      	ldr	r3, [r7, #12]
 8001b88:	681b      	ldr	r3, [r3, #0]
 8001b8a:	4a11      	ldr	r2, [pc, #68]	; (8001bd0 <HAL_ADC_Start_DMA+0x1d8>)
 8001b8c:	4293      	cmp	r3, r2
 8001b8e:	d10e      	bne.n	8001bae <HAL_ADC_Start_DMA+0x1b6>
 8001b90:	68fb      	ldr	r3, [r7, #12]
 8001b92:	681b      	ldr	r3, [r3, #0]
 8001b94:	689b      	ldr	r3, [r3, #8]
 8001b96:	f003 5340 	and.w	r3, r3, #805306368	; 0x30000000
 8001b9a:	2b00      	cmp	r3, #0
 8001b9c:	d107      	bne.n	8001bae <HAL_ADC_Start_DMA+0x1b6>
      {
        /* Enable the selected ADC software conversion for regular group */
          hadc->Instance->CR2 |= (uint32_t)ADC_CR2_SWSTART;
 8001b9e:	68fb      	ldr	r3, [r7, #12]
 8001ba0:	681b      	ldr	r3, [r3, #0]
 8001ba2:	689a      	ldr	r2, [r3, #8]
 8001ba4:	68fb      	ldr	r3, [r7, #12]
 8001ba6:	681b      	ldr	r3, [r3, #0]
 8001ba8:	f042 4280 	orr.w	r2, r2, #1073741824	; 0x40000000
 8001bac:	609a      	str	r2, [r3, #8]
      }
    }
  }
  
  /* Return function status */
  return HAL_OK;
 8001bae:	2300      	movs	r3, #0
}
 8001bb0:	4618      	mov	r0, r3
 8001bb2:	3718      	adds	r7, #24
 8001bb4:	46bd      	mov	sp, r7
 8001bb6:	bd80      	pop	{r7, pc}
 8001bb8:	20000000 	.word	0x20000000
 8001bbc:	431bde83 	.word	0x431bde83
 8001bc0:	40012300 	.word	0x40012300
 8001bc4:	08002061 	.word	0x08002061
 8001bc8:	0800211b 	.word	0x0800211b
 8001bcc:	08002137 	.word	0x08002137
 8001bd0:	40012000 	.word	0x40012000
 8001bd4:	40012100 	.word	0x40012100
 8001bd8:	40012200 	.word	0x40012200

08001bdc <HAL_ADC_ConvHalfCpltCallback>:
  * @param  hadc pointer to a ADC_HandleTypeDef structure that contains
  *         the configuration information for the specified ADC.
  * @retval None
  */
__weak void HAL_ADC_ConvHalfCpltCallback(ADC_HandleTypeDef* hadc)
{
 8001bdc:	b480      	push	{r7}
 8001bde:	b083      	sub	sp, #12
 8001be0:	af00      	add	r7, sp, #0
 8001be2:	6078      	str	r0, [r7, #4]
  /* Prevent unused argument(s) compilation warning */
  UNUSED(hadc);
  /* NOTE : This function Should not be modified, when the callback is needed,
            the HAL_ADC_ConvHalfCpltCallback could be implemented in the user file
   */
}
 8001be4:	bf00      	nop
 8001be6:	370c      	adds	r7, #12
 8001be8:	46bd      	mov	sp, r7
 8001bea:	f85d 7b04 	ldr.w	r7, [sp], #4
 8001bee:	4770      	bx	lr

08001bf0 <HAL_ADC_ErrorCallback>:
  * @param  hadc pointer to a ADC_HandleTypeDef structure that contains
  *         the configuration information for the specified ADC.
  * @retval None
  */
__weak void HAL_ADC_ErrorCallback(ADC_HandleTypeDef *hadc)
{
 8001bf0:	b480      	push	{r7}
 8001bf2:	b083      	sub	sp, #12
 8001bf4:	af00      	add	r7, sp, #0
 8001bf6:	6078      	str	r0, [r7, #4]
  /* Prevent unused argument(s) compilation warning */
  UNUSED(hadc);
  /* NOTE : This function Should not be modified, when the callback is needed,
            the HAL_ADC_ErrorCallback could be implemented in the user file
   */
}
 8001bf8:	bf00      	nop
 8001bfa:	370c      	adds	r7, #12
 8001bfc:	46bd      	mov	sp, r7
 8001bfe:	f85d 7b04 	ldr.w	r7, [sp], #4
 8001c02:	4770      	bx	lr

08001c04 <HAL_ADC_ConfigChannel>:
  *         the configuration information for the specified ADC.
  * @param  sConfig ADC configuration structure. 
  * @retval HAL status
  */
HAL_StatusTypeDef HAL_ADC_ConfigChannel(ADC_HandleTypeDef* hadc, ADC_ChannelConfTypeDef* sConfig)
{
 8001c04:	b480      	push	{r7}
 8001c06:	b085      	sub	sp, #20
 8001c08:	af00      	add	r7, sp, #0
 8001c0a:	6078      	str	r0, [r7, #4]
 8001c0c:	6039      	str	r1, [r7, #0]
  __IO uint32_t counter = 0U;
 8001c0e:	2300      	movs	r3, #0
 8001c10:	60bb      	str	r3, [r7, #8]
  assert_param(IS_ADC_CHANNEL(sConfig->Channel));
  assert_param(IS_ADC_REGULAR_RANK(sConfig->Rank));
  assert_param(IS_ADC_SAMPLE_TIME(sConfig->SamplingTime));
  
  /* Process locked */
  __HAL_LOCK(hadc);
 8001c12:	687b      	ldr	r3, [r7, #4]
 8001c14:	f893 303c 	ldrb.w	r3, [r3, #60]	; 0x3c
 8001c18:	2b01      	cmp	r3, #1
 8001c1a:	d101      	bne.n	8001c20 <HAL_ADC_ConfigChannel+0x1c>
 8001c1c:	2302      	movs	r3, #2
 8001c1e:	e113      	b.n	8001e48 <HAL_ADC_ConfigChannel+0x244>
 8001c20:	687b      	ldr	r3, [r7, #4]
 8001c22:	2201      	movs	r2, #1
 8001c24:	f883 203c 	strb.w	r2, [r3, #60]	; 0x3c
    
  /* if ADC_Channel_10 ... ADC_Channel_18 is selected */
  if (sConfig->Channel > ADC_CHANNEL_9)
 8001c28:	683b      	ldr	r3, [r7, #0]
 8001c2a:	681b      	ldr	r3, [r3, #0]
 8001c2c:	2b09      	cmp	r3, #9
 8001c2e:	d925      	bls.n	8001c7c <HAL_ADC_ConfigChannel+0x78>
  {
    /* Clear the old sample time */
    hadc->Instance->SMPR1 &= ~ADC_SMPR1(ADC_SMPR1_SMP10, sConfig->Channel);
 8001c30:	687b      	ldr	r3, [r7, #4]
 8001c32:	681b      	ldr	r3, [r3, #0]
 8001c34:	68d9      	ldr	r1, [r3, #12]
 8001c36:	683b      	ldr	r3, [r7, #0]
 8001c38:	681b      	ldr	r3, [r3, #0]
 8001c3a:	b29b      	uxth	r3, r3
 8001c3c:	461a      	mov	r2, r3
 8001c3e:	4613      	mov	r3, r2
 8001c40:	005b      	lsls	r3, r3, #1
 8001c42:	4413      	add	r3, r2
 8001c44:	3b1e      	subs	r3, #30
 8001c46:	2207      	movs	r2, #7
 8001c48:	fa02 f303 	lsl.w	r3, r2, r3
 8001c4c:	43da      	mvns	r2, r3
 8001c4e:	687b      	ldr	r3, [r7, #4]
 8001c50:	681b      	ldr	r3, [r3, #0]
 8001c52:	400a      	ands	r2, r1
 8001c54:	60da      	str	r2, [r3, #12]
    
    /* Set the new sample time */
    hadc->Instance->SMPR1 |= ADC_SMPR1(sConfig->SamplingTime, sConfig->Channel);
 8001c56:	687b      	ldr	r3, [r7, #4]
 8001c58:	681b      	ldr	r3, [r3, #0]
 8001c5a:	68d9      	ldr	r1, [r3, #12]
 8001c5c:	683b      	ldr	r3, [r7, #0]
 8001c5e:	689a      	ldr	r2, [r3, #8]
 8001c60:	683b      	ldr	r3, [r7, #0]
 8001c62:	681b      	ldr	r3, [r3, #0]
 8001c64:	b29b      	uxth	r3, r3
 8001c66:	4618      	mov	r0, r3
 8001c68:	4603      	mov	r3, r0
 8001c6a:	005b      	lsls	r3, r3, #1
 8001c6c:	4403      	add	r3, r0
 8001c6e:	3b1e      	subs	r3, #30
 8001c70:	409a      	lsls	r2, r3
 8001c72:	687b      	ldr	r3, [r7, #4]
 8001c74:	681b      	ldr	r3, [r3, #0]
 8001c76:	430a      	orrs	r2, r1
 8001c78:	60da      	str	r2, [r3, #12]
 8001c7a:	e022      	b.n	8001cc2 <HAL_ADC_ConfigChannel+0xbe>
  }
  else /* ADC_Channel include in ADC_Channel_[0..9] */
  {
    /* Clear the old sample time */
    hadc->Instance->SMPR2 &= ~ADC_SMPR2(ADC_SMPR2_SMP0, sConfig->Channel);
 8001c7c:	687b      	ldr	r3, [r7, #4]
 8001c7e:	681b      	ldr	r3, [r3, #0]
 8001c80:	6919      	ldr	r1, [r3, #16]
 8001c82:	683b      	ldr	r3, [r7, #0]
 8001c84:	681b      	ldr	r3, [r3, #0]
 8001c86:	b29b      	uxth	r3, r3
 8001c88:	461a      	mov	r2, r3
 8001c8a:	4613      	mov	r3, r2
 8001c8c:	005b      	lsls	r3, r3, #1
 8001c8e:	4413      	add	r3, r2
 8001c90:	2207      	movs	r2, #7
 8001c92:	fa02 f303 	lsl.w	r3, r2, r3
 8001c96:	43da      	mvns	r2, r3
 8001c98:	687b      	ldr	r3, [r7, #4]
 8001c9a:	681b      	ldr	r3, [r3, #0]
 8001c9c:	400a      	ands	r2, r1
 8001c9e:	611a      	str	r2, [r3, #16]
    
    /* Set the new sample time */
    hadc->Instance->SMPR2 |= ADC_SMPR2(sConfig->SamplingTime, sConfig->Channel);
 8001ca0:	687b      	ldr	r3, [r7, #4]
 8001ca2:	681b      	ldr	r3, [r3, #0]
 8001ca4:	6919      	ldr	r1, [r3, #16]
 8001ca6:	683b      	ldr	r3, [r7, #0]
 8001ca8:	689a      	ldr	r2, [r3, #8]
 8001caa:	683b      	ldr	r3, [r7, #0]
 8001cac:	681b      	ldr	r3, [r3, #0]
 8001cae:	b29b      	uxth	r3, r3
 8001cb0:	4618      	mov	r0, r3
 8001cb2:	4603      	mov	r3, r0
 8001cb4:	005b      	lsls	r3, r3, #1
 8001cb6:	4403      	add	r3, r0
 8001cb8:	409a      	lsls	r2, r3
 8001cba:	687b      	ldr	r3, [r7, #4]
 8001cbc:	681b      	ldr	r3, [r3, #0]
 8001cbe:	430a      	orrs	r2, r1
 8001cc0:	611a      	str	r2, [r3, #16]
  }
  
  /* For Rank 1 to 6 */
  if (sConfig->Rank < 7U)
 8001cc2:	683b      	ldr	r3, [r7, #0]
 8001cc4:	685b      	ldr	r3, [r3, #4]
 8001cc6:	2b06      	cmp	r3, #6
 8001cc8:	d824      	bhi.n	8001d14 <HAL_ADC_ConfigChannel+0x110>
  {
    /* Clear the old SQx bits for the selected rank */
    hadc->Instance->SQR3 &= ~ADC_SQR3_RK(ADC_SQR3_SQ1, sConfig->Rank);
 8001cca:	687b      	ldr	r3, [r7, #4]
 8001ccc:	681b      	ldr	r3, [r3, #0]
 8001cce:	6b59      	ldr	r1, [r3, #52]	; 0x34
 8001cd0:	683b      	ldr	r3, [r7, #0]
 8001cd2:	685a      	ldr	r2, [r3, #4]
 8001cd4:	4613      	mov	r3, r2
 8001cd6:	009b      	lsls	r3, r3, #2
 8001cd8:	4413      	add	r3, r2
 8001cda:	3b05      	subs	r3, #5
 8001cdc:	221f      	movs	r2, #31
 8001cde:	fa02 f303 	lsl.w	r3, r2, r3
 8001ce2:	43da      	mvns	r2, r3
 8001ce4:	687b      	ldr	r3, [r7, #4]
 8001ce6:	681b      	ldr	r3, [r3, #0]
 8001ce8:	400a      	ands	r2, r1
 8001cea:	635a      	str	r2, [r3, #52]	; 0x34
    
    /* Set the SQx bits for the selected rank */
    hadc->Instance->SQR3 |= ADC_SQR3_RK(sConfig->Channel, sConfig->Rank);
 8001cec:	687b      	ldr	r3, [r7, #4]
 8001cee:	681b      	ldr	r3, [r3, #0]
 8001cf0:	6b59      	ldr	r1, [r3, #52]	; 0x34
 8001cf2:	683b      	ldr	r3, [r7, #0]
 8001cf4:	681b      	ldr	r3, [r3, #0]
 8001cf6:	b29b      	uxth	r3, r3
 8001cf8:	4618      	mov	r0, r3
 8001cfa:	683b      	ldr	r3, [r7, #0]
 8001cfc:	685a      	ldr	r2, [r3, #4]
 8001cfe:	4613      	mov	r3, r2
 8001d00:	009b      	lsls	r3, r3, #2
 8001d02:	4413      	add	r3, r2
 8001d04:	3b05      	subs	r3, #5
 8001d06:	fa00 f203 	lsl.w	r2, r0, r3
 8001d0a:	687b      	ldr	r3, [r7, #4]
 8001d0c:	681b      	ldr	r3, [r3, #0]
 8001d0e:	430a      	orrs	r2, r1
 8001d10:	635a      	str	r2, [r3, #52]	; 0x34
 8001d12:	e04c      	b.n	8001dae <HAL_ADC_ConfigChannel+0x1aa>
  }
  /* For Rank 7 to 12 */
  else if (sConfig->Rank < 13U)
 8001d14:	683b      	ldr	r3, [r7, #0]
 8001d16:	685b      	ldr	r3, [r3, #4]
 8001d18:	2b0c      	cmp	r3, #12
 8001d1a:	d824      	bhi.n	8001d66 <HAL_ADC_ConfigChannel+0x162>
  {
    /* Clear the old SQx bits for the selected rank */
    hadc->Instance->SQR2 &= ~ADC_SQR2_RK(ADC_SQR2_SQ7, sConfig->Rank);
 8001d1c:	687b      	ldr	r3, [r7, #4]
 8001d1e:	681b      	ldr	r3, [r3, #0]
 8001d20:	6b19      	ldr	r1, [r3, #48]	; 0x30
 8001d22:	683b      	ldr	r3, [r7, #0]
 8001d24:	685a      	ldr	r2, [r3, #4]
 8001d26:	4613      	mov	r3, r2
 8001d28:	009b      	lsls	r3, r3, #2
 8001d2a:	4413      	add	r3, r2
 8001d2c:	3b23      	subs	r3, #35	; 0x23
 8001d2e:	221f      	movs	r2, #31
 8001d30:	fa02 f303 	lsl.w	r3, r2, r3
 8001d34:	43da      	mvns	r2, r3
 8001d36:	687b      	ldr	r3, [r7, #4]
 8001d38:	681b      	ldr	r3, [r3, #0]
 8001d3a:	400a      	ands	r2, r1
 8001d3c:	631a      	str	r2, [r3, #48]	; 0x30
    
    /* Set the SQx bits for the selected rank */
    hadc->Instance->SQR2 |= ADC_SQR2_RK(sConfig->Channel, sConfig->Rank);
 8001d3e:	687b      	ldr	r3, [r7, #4]
 8001d40:	681b      	ldr	r3, [r3, #0]
 8001d42:	6b19      	ldr	r1, [r3, #48]	; 0x30
 8001d44:	683b      	ldr	r3, [r7, #0]
 8001d46:	681b      	ldr	r3, [r3, #0]
 8001d48:	b29b      	uxth	r3, r3
 8001d4a:	4618      	mov	r0, r3
 8001d4c:	683b      	ldr	r3, [r7, #0]
 8001d4e:	685a      	ldr	r2, [r3, #4]
 8001d50:	4613      	mov	r3, r2
 8001d52:	009b      	lsls	r3, r3, #2
 8001d54:	4413      	add	r3, r2
 8001d56:	3b23      	subs	r3, #35	; 0x23
 8001d58:	fa00 f203 	lsl.w	r2, r0, r3
 8001d5c:	687b      	ldr	r3, [r7, #4]
 8001d5e:	681b      	ldr	r3, [r3, #0]
 8001d60:	430a      	orrs	r2, r1
 8001d62:	631a      	str	r2, [r3, #48]	; 0x30
 8001d64:	e023      	b.n	8001dae <HAL_ADC_ConfigChannel+0x1aa>
  }
  /* For Rank 13 to 16 */
  else
  {
    /* Clear the old SQx bits for the selected rank */
    hadc->Instance->SQR1 &= ~ADC_SQR1_RK(ADC_SQR1_SQ13, sConfig->Rank);
 8001d66:	687b      	ldr	r3, [r7, #4]
 8001d68:	681b      	ldr	r3, [r3, #0]
 8001d6a:	6ad9      	ldr	r1, [r3, #44]	; 0x2c
 8001d6c:	683b      	ldr	r3, [r7, #0]
 8001d6e:	685a      	ldr	r2, [r3, #4]
 8001d70:	4613      	mov	r3, r2
 8001d72:	009b      	lsls	r3, r3, #2
 8001d74:	4413      	add	r3, r2
 8001d76:	3b41      	subs	r3, #65	; 0x41
 8001d78:	221f      	movs	r2, #31
 8001d7a:	fa02 f303 	lsl.w	r3, r2, r3
 8001d7e:	43da      	mvns	r2, r3
 8001d80:	687b      	ldr	r3, [r7, #4]
 8001d82:	681b      	ldr	r3, [r3, #0]
 8001d84:	400a      	ands	r2, r1
 8001d86:	62da      	str	r2, [r3, #44]	; 0x2c
    
    /* Set the SQx bits for the selected rank */
    hadc->Instance->SQR1 |= ADC_SQR1_RK(sConfig->Channel, sConfig->Rank);
 8001d88:	687b      	ldr	r3, [r7, #4]
 8001d8a:	681b      	ldr	r3, [r3, #0]
 8001d8c:	6ad9      	ldr	r1, [r3, #44]	; 0x2c
 8001d8e:	683b      	ldr	r3, [r7, #0]
 8001d90:	681b      	ldr	r3, [r3, #0]
 8001d92:	b29b      	uxth	r3, r3
 8001d94:	4618      	mov	r0, r3
 8001d96:	683b      	ldr	r3, [r7, #0]
 8001d98:	685a      	ldr	r2, [r3, #4]
 8001d9a:	4613      	mov	r3, r2
 8001d9c:	009b      	lsls	r3, r3, #2
 8001d9e:	4413      	add	r3, r2
 8001da0:	3b41      	subs	r3, #65	; 0x41
 8001da2:	fa00 f203 	lsl.w	r2, r0, r3
 8001da6:	687b      	ldr	r3, [r7, #4]
 8001da8:	681b      	ldr	r3, [r3, #0]
 8001daa:	430a      	orrs	r2, r1
 8001dac:	62da      	str	r2, [r3, #44]	; 0x2c
  }

    /* Pointer to the common control register to which is belonging hadc    */
    /* (Depending on STM32F4 product, there may be up to 3 ADCs and 1 common */
    /* control register)                                                    */
    tmpADC_Common = ADC_COMMON_REGISTER(hadc);
 8001dae:	4b29      	ldr	r3, [pc, #164]	; (8001e54 <HAL_ADC_ConfigChannel+0x250>)
 8001db0:	60fb      	str	r3, [r7, #12]

  /* if ADC1 Channel_18 is selected for VBAT Channel ennable VBATE */
  if ((hadc->Instance == ADC1) && (sConfig->Channel == ADC_CHANNEL_VBAT))
 8001db2:	687b      	ldr	r3, [r7, #4]
 8001db4:	681b      	ldr	r3, [r3, #0]
 8001db6:	4a28      	ldr	r2, [pc, #160]	; (8001e58 <HAL_ADC_ConfigChannel+0x254>)
 8001db8:	4293      	cmp	r3, r2
 8001dba:	d10f      	bne.n	8001ddc <HAL_ADC_ConfigChannel+0x1d8>
 8001dbc:	683b      	ldr	r3, [r7, #0]
 8001dbe:	681b      	ldr	r3, [r3, #0]
 8001dc0:	2b12      	cmp	r3, #18
 8001dc2:	d10b      	bne.n	8001ddc <HAL_ADC_ConfigChannel+0x1d8>
  {
    /* Disable the TEMPSENSOR channel in case of using board with multiplixed ADC_CHANNEL_VBAT & ADC_CHANNEL_TEMPSENSOR*/    
    if ((uint16_t)ADC_CHANNEL_TEMPSENSOR == (uint16_t)ADC_CHANNEL_VBAT)
    {
      tmpADC_Common->CCR &= ~ADC_CCR_TSVREFE;
 8001dc4:	68fb      	ldr	r3, [r7, #12]
 8001dc6:	685b      	ldr	r3, [r3, #4]
 8001dc8:	f423 0200 	bic.w	r2, r3, #8388608	; 0x800000
 8001dcc:	68fb      	ldr	r3, [r7, #12]
 8001dce:	605a      	str	r2, [r3, #4]
    }
    /* Enable the VBAT channel*/
    tmpADC_Common->CCR |= ADC_CCR_VBATE;
 8001dd0:	68fb      	ldr	r3, [r7, #12]
 8001dd2:	685b      	ldr	r3, [r3, #4]
 8001dd4:	f443 0280 	orr.w	r2, r3, #4194304	; 0x400000
 8001dd8:	68fb      	ldr	r3, [r7, #12]
 8001dda:	605a      	str	r2, [r3, #4]
  }
  
  /* if ADC1 Channel_16 or Channel_18 is selected for Temperature sensor or 
     Channel_17 is selected for VREFINT enable TSVREFE */
  if ((hadc->Instance == ADC1) && ((sConfig->Channel == ADC_CHANNEL_TEMPSENSOR) || (sConfig->Channel == ADC_CHANNEL_VREFINT)))
 8001ddc:	687b      	ldr	r3, [r7, #4]
 8001dde:	681b      	ldr	r3, [r3, #0]
 8001de0:	4a1d      	ldr	r2, [pc, #116]	; (8001e58 <HAL_ADC_ConfigChannel+0x254>)
 8001de2:	4293      	cmp	r3, r2
 8001de4:	d12b      	bne.n	8001e3e <HAL_ADC_ConfigChannel+0x23a>
 8001de6:	683b      	ldr	r3, [r7, #0]
 8001de8:	681b      	ldr	r3, [r3, #0]
 8001dea:	4a1c      	ldr	r2, [pc, #112]	; (8001e5c <HAL_ADC_ConfigChannel+0x258>)
 8001dec:	4293      	cmp	r3, r2
 8001dee:	d003      	beq.n	8001df8 <HAL_ADC_ConfigChannel+0x1f4>
 8001df0:	683b      	ldr	r3, [r7, #0]
 8001df2:	681b      	ldr	r3, [r3, #0]
 8001df4:	2b11      	cmp	r3, #17
 8001df6:	d122      	bne.n	8001e3e <HAL_ADC_ConfigChannel+0x23a>
  {
    /* Disable the VBAT channel in case of using board with multiplixed ADC_CHANNEL_VBAT & ADC_CHANNEL_TEMPSENSOR*/
    if ((uint16_t)ADC_CHANNEL_TEMPSENSOR == (uint16_t)ADC_CHANNEL_VBAT)
    {
      tmpADC_Common->CCR &= ~ADC_CCR_VBATE;
 8001df8:	68fb      	ldr	r3, [r7, #12]
 8001dfa:	685b      	ldr	r3, [r3, #4]
 8001dfc:	f423 0280 	bic.w	r2, r3, #4194304	; 0x400000
 8001e00:	68fb      	ldr	r3, [r7, #12]
 8001e02:	605a      	str	r2, [r3, #4]
    }
    /* Enable the Temperature sensor and VREFINT channel*/
    tmpADC_Common->CCR |= ADC_CCR_TSVREFE;
 8001e04:	68fb      	ldr	r3, [r7, #12]
 8001e06:	685b      	ldr	r3, [r3, #4]
 8001e08:	f443 0200 	orr.w	r2, r3, #8388608	; 0x800000
 8001e0c:	68fb      	ldr	r3, [r7, #12]
 8001e0e:	605a      	str	r2, [r3, #4]
    
    if((sConfig->Channel == ADC_CHANNEL_TEMPSENSOR))
 8001e10:	683b      	ldr	r3, [r7, #0]
 8001e12:	681b      	ldr	r3, [r3, #0]
 8001e14:	4a11      	ldr	r2, [pc, #68]	; (8001e5c <HAL_ADC_ConfigChannel+0x258>)
 8001e16:	4293      	cmp	r3, r2
 8001e18:	d111      	bne.n	8001e3e <HAL_ADC_ConfigChannel+0x23a>
    {
      /* Delay for temperature sensor stabilization time */
      /* Compute number of CPU cycles to wait for */
      counter = (ADC_TEMPSENSOR_DELAY_US * (SystemCoreClock / 1000000U));
 8001e1a:	4b11      	ldr	r3, [pc, #68]	; (8001e60 <HAL_ADC_ConfigChannel+0x25c>)
 8001e1c:	681b      	ldr	r3, [r3, #0]
 8001e1e:	4a11      	ldr	r2, [pc, #68]	; (8001e64 <HAL_ADC_ConfigChannel+0x260>)
 8001e20:	fba2 2303 	umull	r2, r3, r2, r3
 8001e24:	0c9a      	lsrs	r2, r3, #18
 8001e26:	4613      	mov	r3, r2
 8001e28:	009b      	lsls	r3, r3, #2
 8001e2a:	4413      	add	r3, r2
 8001e2c:	005b      	lsls	r3, r3, #1
 8001e2e:	60bb      	str	r3, [r7, #8]
      while(counter != 0U)
 8001e30:	e002      	b.n	8001e38 <HAL_ADC_ConfigChannel+0x234>
      {
        counter--;
 8001e32:	68bb      	ldr	r3, [r7, #8]
 8001e34:	3b01      	subs	r3, #1
 8001e36:	60bb      	str	r3, [r7, #8]
      while(counter != 0U)
 8001e38:	68bb      	ldr	r3, [r7, #8]
 8001e3a:	2b00      	cmp	r3, #0
 8001e3c:	d1f9      	bne.n	8001e32 <HAL_ADC_ConfigChannel+0x22e>
      }
    }
  }
  
  /* Process unlocked */
  __HAL_UNLOCK(hadc);
 8001e3e:	687b      	ldr	r3, [r7, #4]
 8001e40:	2200      	movs	r2, #0
 8001e42:	f883 203c 	strb.w	r2, [r3, #60]	; 0x3c
  
  /* Return function status */
  return HAL_OK;
 8001e46:	2300      	movs	r3, #0
}
 8001e48:	4618      	mov	r0, r3
 8001e4a:	3714      	adds	r7, #20
 8001e4c:	46bd      	mov	sp, r7
 8001e4e:	f85d 7b04 	ldr.w	r7, [sp], #4
 8001e52:	4770      	bx	lr
 8001e54:	40012300 	.word	0x40012300
 8001e58:	40012000 	.word	0x40012000
 8001e5c:	10000012 	.word	0x10000012
 8001e60:	20000000 	.word	0x20000000
 8001e64:	431bde83 	.word	0x431bde83

08001e68 <ADC_Init>:
  * @param  hadc pointer to a ADC_HandleTypeDef structure that contains
  *         the configuration information for the specified ADC.  
  * @retval None
  */
static void ADC_Init(ADC_HandleTypeDef* hadc)
{
 8001e68:	b480      	push	{r7}
 8001e6a:	b085      	sub	sp, #20
 8001e6c:	af00      	add	r7, sp, #0
 8001e6e:	6078      	str	r0, [r7, #4]
  
  /* Set ADC parameters */
  /* Pointer to the common control register to which is belonging hadc    */
  /* (Depending on STM32F4 product, there may be up to 3 ADCs and 1 common */
  /* control register)                                                    */
  tmpADC_Common = ADC_COMMON_REGISTER(hadc);
 8001e70:	4b79      	ldr	r3, [pc, #484]	; (8002058 <ADC_Init+0x1f0>)
 8001e72:	60fb      	str	r3, [r7, #12]
  
  /* Set the ADC clock prescaler */
  tmpADC_Common->CCR &= ~(ADC_CCR_ADCPRE);
 8001e74:	68fb      	ldr	r3, [r7, #12]
 8001e76:	685b      	ldr	r3, [r3, #4]
 8001e78:	f423 3240 	bic.w	r2, r3, #196608	; 0x30000
 8001e7c:	68fb      	ldr	r3, [r7, #12]
 8001e7e:	605a      	str	r2, [r3, #4]
  tmpADC_Common->CCR |=  hadc->Init.ClockPrescaler;
 8001e80:	68fb      	ldr	r3, [r7, #12]
 8001e82:	685a      	ldr	r2, [r3, #4]
 8001e84:	687b      	ldr	r3, [r7, #4]
 8001e86:	685b      	ldr	r3, [r3, #4]
 8001e88:	431a      	orrs	r2, r3
 8001e8a:	68fb      	ldr	r3, [r7, #12]
 8001e8c:	605a      	str	r2, [r3, #4]
  
  /* Set ADC scan mode */
  hadc->Instance->CR1 &= ~(ADC_CR1_SCAN);
 8001e8e:	687b      	ldr	r3, [r7, #4]
 8001e90:	681b      	ldr	r3, [r3, #0]
 8001e92:	685a      	ldr	r2, [r3, #4]
 8001e94:	687b      	ldr	r3, [r7, #4]
 8001e96:	681b      	ldr	r3, [r3, #0]
 8001e98:	f422 7280 	bic.w	r2, r2, #256	; 0x100
 8001e9c:	605a      	str	r2, [r3, #4]
  hadc->Instance->CR1 |=  ADC_CR1_SCANCONV(hadc->Init.ScanConvMode);
 8001e9e:	687b      	ldr	r3, [r7, #4]
 8001ea0:	681b      	ldr	r3, [r3, #0]
 8001ea2:	6859      	ldr	r1, [r3, #4]
 8001ea4:	687b      	ldr	r3, [r7, #4]
 8001ea6:	691b      	ldr	r3, [r3, #16]
 8001ea8:	021a      	lsls	r2, r3, #8
 8001eaa:	687b      	ldr	r3, [r7, #4]
 8001eac:	681b      	ldr	r3, [r3, #0]
 8001eae:	430a      	orrs	r2, r1
 8001eb0:	605a      	str	r2, [r3, #4]
  
  /* Set ADC resolution */
  hadc->Instance->CR1 &= ~(ADC_CR1_RES);
 8001eb2:	687b      	ldr	r3, [r7, #4]
 8001eb4:	681b      	ldr	r3, [r3, #0]
 8001eb6:	685a      	ldr	r2, [r3, #4]
 8001eb8:	687b      	ldr	r3, [r7, #4]
 8001eba:	681b      	ldr	r3, [r3, #0]
 8001ebc:	f022 7240 	bic.w	r2, r2, #50331648	; 0x3000000
 8001ec0:	605a      	str	r2, [r3, #4]
  hadc->Instance->CR1 |=  hadc->Init.Resolution;
 8001ec2:	687b      	ldr	r3, [r7, #4]
 8001ec4:	681b      	ldr	r3, [r3, #0]
 8001ec6:	6859      	ldr	r1, [r3, #4]
 8001ec8:	687b      	ldr	r3, [r7, #4]
 8001eca:	689a      	ldr	r2, [r3, #8]
 8001ecc:	687b      	ldr	r3, [r7, #4]
 8001ece:	681b      	ldr	r3, [r3, #0]
 8001ed0:	430a      	orrs	r2, r1
 8001ed2:	605a      	str	r2, [r3, #4]
  
  /* Set ADC data alignment */
  hadc->Instance->CR2 &= ~(ADC_CR2_ALIGN);
 8001ed4:	687b      	ldr	r3, [r7, #4]
 8001ed6:	681b      	ldr	r3, [r3, #0]
 8001ed8:	689a      	ldr	r2, [r3, #8]
 8001eda:	687b      	ldr	r3, [r7, #4]
 8001edc:	681b      	ldr	r3, [r3, #0]
 8001ede:	f422 6200 	bic.w	r2, r2, #2048	; 0x800
 8001ee2:	609a      	str	r2, [r3, #8]
  hadc->Instance->CR2 |= hadc->Init.DataAlign;
 8001ee4:	687b      	ldr	r3, [r7, #4]
 8001ee6:	681b      	ldr	r3, [r3, #0]
 8001ee8:	6899      	ldr	r1, [r3, #8]
 8001eea:	687b      	ldr	r3, [r7, #4]
 8001eec:	68da      	ldr	r2, [r3, #12]
 8001eee:	687b      	ldr	r3, [r7, #4]
 8001ef0:	681b      	ldr	r3, [r3, #0]
 8001ef2:	430a      	orrs	r2, r1
 8001ef4:	609a      	str	r2, [r3, #8]
  /* Enable external trigger if trigger selection is different of software  */
  /* start.                                                                 */
  /* Note: This configuration keeps the hardware feature of parameter       */
  /*       ExternalTrigConvEdge "trigger edge none" equivalent to           */
  /*       software start.                                                  */
  if(hadc->Init.ExternalTrigConv != ADC_SOFTWARE_START)
 8001ef6:	687b      	ldr	r3, [r7, #4]
 8001ef8:	6a9b      	ldr	r3, [r3, #40]	; 0x28
 8001efa:	4a58      	ldr	r2, [pc, #352]	; (800205c <ADC_Init+0x1f4>)
 8001efc:	4293      	cmp	r3, r2
 8001efe:	d022      	beq.n	8001f46 <ADC_Init+0xde>
  {
    /* Select external trigger to start conversion */
    hadc->Instance->CR2 &= ~(ADC_CR2_EXTSEL);
 8001f00:	687b      	ldr	r3, [r7, #4]
 8001f02:	681b      	ldr	r3, [r3, #0]
 8001f04:	689a      	ldr	r2, [r3, #8]
 8001f06:	687b      	ldr	r3, [r7, #4]
 8001f08:	681b      	ldr	r3, [r3, #0]
 8001f0a:	f022 6270 	bic.w	r2, r2, #251658240	; 0xf000000
 8001f0e:	609a      	str	r2, [r3, #8]
    hadc->Instance->CR2 |= hadc->Init.ExternalTrigConv;
 8001f10:	687b      	ldr	r3, [r7, #4]
 8001f12:	681b      	ldr	r3, [r3, #0]
 8001f14:	6899      	ldr	r1, [r3, #8]
 8001f16:	687b      	ldr	r3, [r7, #4]
 8001f18:	6a9a      	ldr	r2, [r3, #40]	; 0x28
 8001f1a:	687b      	ldr	r3, [r7, #4]
 8001f1c:	681b      	ldr	r3, [r3, #0]
 8001f1e:	430a      	orrs	r2, r1
 8001f20:	609a      	str	r2, [r3, #8]
    
    /* Select external trigger polarity */
    hadc->Instance->CR2 &= ~(ADC_CR2_EXTEN);
 8001f22:	687b      	ldr	r3, [r7, #4]
 8001f24:	681b      	ldr	r3, [r3, #0]
 8001f26:	689a      	ldr	r2, [r3, #8]
 8001f28:	687b      	ldr	r3, [r7, #4]
 8001f2a:	681b      	ldr	r3, [r3, #0]
 8001f2c:	f022 5240 	bic.w	r2, r2, #805306368	; 0x30000000
 8001f30:	609a      	str	r2, [r3, #8]
    hadc->Instance->CR2 |= hadc->Init.ExternalTrigConvEdge;
 8001f32:	687b      	ldr	r3, [r7, #4]
 8001f34:	681b      	ldr	r3, [r3, #0]
 8001f36:	6899      	ldr	r1, [r3, #8]
 8001f38:	687b      	ldr	r3, [r7, #4]
 8001f3a:	6ada      	ldr	r2, [r3, #44]	; 0x2c
 8001f3c:	687b      	ldr	r3, [r7, #4]
 8001f3e:	681b      	ldr	r3, [r3, #0]
 8001f40:	430a      	orrs	r2, r1
 8001f42:	609a      	str	r2, [r3, #8]
 8001f44:	e00f      	b.n	8001f66 <ADC_Init+0xfe>
  }
  else
  {
    /* Reset the external trigger */
    hadc->Instance->CR2 &= ~(ADC_CR2_EXTSEL);
 8001f46:	687b      	ldr	r3, [r7, #4]
 8001f48:	681b      	ldr	r3, [r3, #0]
 8001f4a:	689a      	ldr	r2, [r3, #8]
 8001f4c:	687b      	ldr	r3, [r7, #4]
 8001f4e:	681b      	ldr	r3, [r3, #0]
 8001f50:	f022 6270 	bic.w	r2, r2, #251658240	; 0xf000000
 8001f54:	609a      	str	r2, [r3, #8]
    hadc->Instance->CR2 &= ~(ADC_CR2_EXTEN);
 8001f56:	687b      	ldr	r3, [r7, #4]
 8001f58:	681b      	ldr	r3, [r3, #0]
 8001f5a:	689a      	ldr	r2, [r3, #8]
 8001f5c:	687b      	ldr	r3, [r7, #4]
 8001f5e:	681b      	ldr	r3, [r3, #0]
 8001f60:	f022 5240 	bic.w	r2, r2, #805306368	; 0x30000000
 8001f64:	609a      	str	r2, [r3, #8]
  }
  
  /* Enable or disable ADC continuous conversion mode */
  hadc->Instance->CR2 &= ~(ADC_CR2_CONT);
 8001f66:	687b      	ldr	r3, [r7, #4]
 8001f68:	681b      	ldr	r3, [r3, #0]
 8001f6a:	689a      	ldr	r2, [r3, #8]
 8001f6c:	687b      	ldr	r3, [r7, #4]
 8001f6e:	681b      	ldr	r3, [r3, #0]
 8001f70:	f022 0202 	bic.w	r2, r2, #2
 8001f74:	609a      	str	r2, [r3, #8]
  hadc->Instance->CR2 |= ADC_CR2_CONTINUOUS((uint32_t)hadc->Init.ContinuousConvMode);
 8001f76:	687b      	ldr	r3, [r7, #4]
 8001f78:	681b      	ldr	r3, [r3, #0]
 8001f7a:	6899      	ldr	r1, [r3, #8]
 8001f7c:	687b      	ldr	r3, [r7, #4]
 8001f7e:	7e1b      	ldrb	r3, [r3, #24]
 8001f80:	005a      	lsls	r2, r3, #1
 8001f82:	687b      	ldr	r3, [r7, #4]
 8001f84:	681b      	ldr	r3, [r3, #0]
 8001f86:	430a      	orrs	r2, r1
 8001f88:	609a      	str	r2, [r3, #8]
  
  if(hadc->Init.DiscontinuousConvMode != DISABLE)
 8001f8a:	687b      	ldr	r3, [r7, #4]
 8001f8c:	f893 3020 	ldrb.w	r3, [r3, #32]
 8001f90:	2b00      	cmp	r3, #0
 8001f92:	d01b      	beq.n	8001fcc <ADC_Init+0x164>
  {
    assert_param(IS_ADC_REGULAR_DISC_NUMBER(hadc->Init.NbrOfDiscConversion));
  
    /* Enable the selected ADC regular discontinuous mode */
    hadc->Instance->CR1 |= (uint32_t)ADC_CR1_DISCEN;
 8001f94:	687b      	ldr	r3, [r7, #4]
 8001f96:	681b      	ldr	r3, [r3, #0]
 8001f98:	685a      	ldr	r2, [r3, #4]
 8001f9a:	687b      	ldr	r3, [r7, #4]
 8001f9c:	681b      	ldr	r3, [r3, #0]
 8001f9e:	f442 6200 	orr.w	r2, r2, #2048	; 0x800
 8001fa2:	605a      	str	r2, [r3, #4]
    
    /* Set the number of channels to be converted in discontinuous mode */
    hadc->Instance->CR1 &= ~(ADC_CR1_DISCNUM);
 8001fa4:	687b      	ldr	r3, [r7, #4]
 8001fa6:	681b      	ldr	r3, [r3, #0]
 8001fa8:	685a      	ldr	r2, [r3, #4]
 8001faa:	687b      	ldr	r3, [r7, #4]
 8001fac:	681b      	ldr	r3, [r3, #0]
 8001fae:	f422 4260 	bic.w	r2, r2, #57344	; 0xe000
 8001fb2:	605a      	str	r2, [r3, #4]
    hadc->Instance->CR1 |=  ADC_CR1_DISCONTINUOUS(hadc->Init.NbrOfDiscConversion);
 8001fb4:	687b      	ldr	r3, [r7, #4]
 8001fb6:	681b      	ldr	r3, [r3, #0]
 8001fb8:	6859      	ldr	r1, [r3, #4]
 8001fba:	687b      	ldr	r3, [r7, #4]
 8001fbc:	6a5b      	ldr	r3, [r3, #36]	; 0x24
 8001fbe:	3b01      	subs	r3, #1
 8001fc0:	035a      	lsls	r2, r3, #13
 8001fc2:	687b      	ldr	r3, [r7, #4]
 8001fc4:	681b      	ldr	r3, [r3, #0]
 8001fc6:	430a      	orrs	r2, r1
 8001fc8:	605a      	str	r2, [r3, #4]
 8001fca:	e007      	b.n	8001fdc <ADC_Init+0x174>
  }
  else
  {
    /* Disable the selected ADC regular discontinuous mode */
    hadc->Instance->CR1 &= ~(ADC_CR1_DISCEN);
 8001fcc:	687b      	ldr	r3, [r7, #4]
 8001fce:	681b      	ldr	r3, [r3, #0]
 8001fd0:	685a      	ldr	r2, [r3, #4]
 8001fd2:	687b      	ldr	r3, [r7, #4]
 8001fd4:	681b      	ldr	r3, [r3, #0]
 8001fd6:	f422 6200 	bic.w	r2, r2, #2048	; 0x800
 8001fda:	605a      	str	r2, [r3, #4]
  }
  
  /* Set ADC number of conversion */
  hadc->Instance->SQR1 &= ~(ADC_SQR1_L);
 8001fdc:	687b      	ldr	r3, [r7, #4]
 8001fde:	681b      	ldr	r3, [r3, #0]
 8001fe0:	6ada      	ldr	r2, [r3, #44]	; 0x2c
 8001fe2:	687b      	ldr	r3, [r7, #4]
 8001fe4:	681b      	ldr	r3, [r3, #0]
 8001fe6:	f422 0270 	bic.w	r2, r2, #15728640	; 0xf00000
 8001fea:	62da      	str	r2, [r3, #44]	; 0x2c
  hadc->Instance->SQR1 |=  ADC_SQR1(hadc->Init.NbrOfConversion);
 8001fec:	687b      	ldr	r3, [r7, #4]
 8001fee:	681b      	ldr	r3, [r3, #0]
 8001ff0:	6ad9      	ldr	r1, [r3, #44]	; 0x2c
 8001ff2:	687b      	ldr	r3, [r7, #4]
 8001ff4:	69db      	ldr	r3, [r3, #28]
 8001ff6:	3b01      	subs	r3, #1
 8001ff8:	051a      	lsls	r2, r3, #20
 8001ffa:	687b      	ldr	r3, [r7, #4]
 8001ffc:	681b      	ldr	r3, [r3, #0]
 8001ffe:	430a      	orrs	r2, r1
 8002000:	62da      	str	r2, [r3, #44]	; 0x2c
  
  /* Enable or disable ADC DMA continuous request */
  hadc->Instance->CR2 &= ~(ADC_CR2_DDS);
 8002002:	687b      	ldr	r3, [r7, #4]
 8002004:	681b      	ldr	r3, [r3, #0]
 8002006:	689a      	ldr	r2, [r3, #8]
 8002008:	687b      	ldr	r3, [r7, #4]
 800200a:	681b      	ldr	r3, [r3, #0]
 800200c:	f422 7200 	bic.w	r2, r2, #512	; 0x200
 8002010:	609a      	str	r2, [r3, #8]
  hadc->Instance->CR2 |= ADC_CR2_DMAContReq((uint32_t)hadc->Init.DMAContinuousRequests);
 8002012:	687b      	ldr	r3, [r7, #4]
 8002014:	681b      	ldr	r3, [r3, #0]
 8002016:	6899      	ldr	r1, [r3, #8]
 8002018:	687b      	ldr	r3, [r7, #4]
 800201a:	f893 3030 	ldrb.w	r3, [r3, #48]	; 0x30
 800201e:	025a      	lsls	r2, r3, #9
 8002020:	687b      	ldr	r3, [r7, #4]
 8002022:	681b      	ldr	r3, [r3, #0]
 8002024:	430a      	orrs	r2, r1
 8002026:	609a      	str	r2, [r3, #8]
  
  /* Enable or disable ADC end of conversion selection */
  hadc->Instance->CR2 &= ~(ADC_CR2_EOCS);
 8002028:	687b      	ldr	r3, [r7, #4]
 800202a:	681b      	ldr	r3, [r3, #0]
 800202c:	689a      	ldr	r2, [r3, #8]
 800202e:	687b      	ldr	r3, [r7, #4]
 8002030:	681b      	ldr	r3, [r3, #0]
 8002032:	f422 6280 	bic.w	r2, r2, #1024	; 0x400
 8002036:	609a      	str	r2, [r3, #8]
  hadc->Instance->CR2 |= ADC_CR2_EOCSelection(hadc->Init.EOCSelection);
 8002038:	687b      	ldr	r3, [r7, #4]
 800203a:	681b      	ldr	r3, [r3, #0]
 800203c:	6899      	ldr	r1, [r3, #8]
 800203e:	687b      	ldr	r3, [r7, #4]
 8002040:	695b      	ldr	r3, [r3, #20]
 8002042:	029a      	lsls	r2, r3, #10
 8002044:	687b      	ldr	r3, [r7, #4]
 8002046:	681b      	ldr	r3, [r3, #0]
 8002048:	430a      	orrs	r2, r1
 800204a:	609a      	str	r2, [r3, #8]
}
 800204c:	bf00      	nop
 800204e:	3714      	adds	r7, #20
 8002050:	46bd      	mov	sp, r7
 8002052:	f85d 7b04 	ldr.w	r7, [sp], #4
 8002056:	4770      	bx	lr
 8002058:	40012300 	.word	0x40012300
 800205c:	0f000001 	.word	0x0f000001

08002060 <ADC_DMAConvCplt>:
  * @param  hdma pointer to a DMA_HandleTypeDef structure that contains
  *                the configuration information for the specified DMA module.
  * @retval None
  */
static void ADC_DMAConvCplt(DMA_HandleTypeDef *hdma)   
{
 8002060:	b580      	push	{r7, lr}
 8002062:	b084      	sub	sp, #16
 8002064:	af00      	add	r7, sp, #0
 8002066:	6078      	str	r0, [r7, #4]
  /* Retrieve ADC handle corresponding to current DMA handle */
  ADC_HandleTypeDef* hadc = ( ADC_HandleTypeDef* )((DMA_HandleTypeDef* )hdma)->Parent;
 8002068:	687b      	ldr	r3, [r7, #4]
 800206a:	6b9b      	ldr	r3, [r3, #56]	; 0x38
 800206c:	60fb      	str	r3, [r7, #12]
  
  /* Update state machine on conversion status if not in error state */
  if (HAL_IS_BIT_CLR(hadc->State, HAL_ADC_STATE_ERROR_INTERNAL | HAL_ADC_STATE_ERROR_DMA))
 800206e:	68fb      	ldr	r3, [r7, #12]
 8002070:	6c1b      	ldr	r3, [r3, #64]	; 0x40
 8002072:	f003 0350 	and.w	r3, r3, #80	; 0x50
 8002076:	2b00      	cmp	r3, #0
 8002078:	d13c      	bne.n	80020f4 <ADC_DMAConvCplt+0x94>
  {
    /* Update ADC state machine */
    SET_BIT(hadc->State, HAL_ADC_STATE_REG_EOC);
 800207a:	68fb      	ldr	r3, [r7, #12]
 800207c:	6c1b      	ldr	r3, [r3, #64]	; 0x40
 800207e:	f443 7200 	orr.w	r2, r3, #512	; 0x200
 8002082:	68fb      	ldr	r3, [r7, #12]
 8002084:	641a      	str	r2, [r3, #64]	; 0x40
    /* by external trigger, continuous mode or scan sequence on going.      */
    /* Note: On STM32F4, there is no independent flag of end of sequence.   */
    /*       The test of scan sequence on going is done either with scan    */
    /*       sequence disabled or with end of conversion flag set to        */
    /*       of end of sequence.                                            */
    if(ADC_IS_SOFTWARE_START_REGULAR(hadc)                   &&
 8002086:	68fb      	ldr	r3, [r7, #12]
 8002088:	681b      	ldr	r3, [r3, #0]
 800208a:	689b      	ldr	r3, [r3, #8]
 800208c:	f003 5340 	and.w	r3, r3, #805306368	; 0x30000000
 8002090:	2b00      	cmp	r3, #0
 8002092:	d12b      	bne.n	80020ec <ADC_DMAConvCplt+0x8c>
       (hadc->Init.ContinuousConvMode == DISABLE)            &&
 8002094:	68fb      	ldr	r3, [r7, #12]
 8002096:	7e1b      	ldrb	r3, [r3, #24]
    if(ADC_IS_SOFTWARE_START_REGULAR(hadc)                   &&
 8002098:	2b00      	cmp	r3, #0
 800209a:	d127      	bne.n	80020ec <ADC_DMAConvCplt+0x8c>
       (HAL_IS_BIT_CLR(hadc->Instance->SQR1, ADC_SQR1_L) || 
 800209c:	68fb      	ldr	r3, [r7, #12]
 800209e:	681b      	ldr	r3, [r3, #0]
 80020a0:	6adb      	ldr	r3, [r3, #44]	; 0x2c
 80020a2:	f403 0370 	and.w	r3, r3, #15728640	; 0xf00000
       (hadc->Init.ContinuousConvMode == DISABLE)            &&
 80020a6:	2b00      	cmp	r3, #0
 80020a8:	d006      	beq.n	80020b8 <ADC_DMAConvCplt+0x58>
        HAL_IS_BIT_CLR(hadc->Instance->CR2, ADC_CR2_EOCS)  )   )
 80020aa:	68fb      	ldr	r3, [r7, #12]
 80020ac:	681b      	ldr	r3, [r3, #0]
 80020ae:	689b      	ldr	r3, [r3, #8]
 80020b0:	f403 6380 	and.w	r3, r3, #1024	; 0x400
       (HAL_IS_BIT_CLR(hadc->Instance->SQR1, ADC_SQR1_L) || 
 80020b4:	2b00      	cmp	r3, #0
 80020b6:	d119      	bne.n	80020ec <ADC_DMAConvCplt+0x8c>
    {
      /* Disable ADC end of single conversion interrupt on group regular */
      /* Note: Overrun interrupt was enabled with EOC interrupt in          */
      /* HAL_ADC_Start_IT(), but is not disabled here because can be used   */
      /* by overrun IRQ process below.                                      */
      __HAL_ADC_DISABLE_IT(hadc, ADC_IT_EOC);
 80020b8:	68fb      	ldr	r3, [r7, #12]
 80020ba:	681b      	ldr	r3, [r3, #0]
 80020bc:	685a      	ldr	r2, [r3, #4]
 80020be:	68fb      	ldr	r3, [r7, #12]
 80020c0:	681b      	ldr	r3, [r3, #0]
 80020c2:	f022 0220 	bic.w	r2, r2, #32
 80020c6:	605a      	str	r2, [r3, #4]
      
      /* Set ADC state */
      CLEAR_BIT(hadc->State, HAL_ADC_STATE_REG_BUSY);   
 80020c8:	68fb      	ldr	r3, [r7, #12]
 80020ca:	6c1b      	ldr	r3, [r3, #64]	; 0x40
 80020cc:	f423 7280 	bic.w	r2, r3, #256	; 0x100
 80020d0:	68fb      	ldr	r3, [r7, #12]
 80020d2:	641a      	str	r2, [r3, #64]	; 0x40
      
      if (HAL_IS_BIT_CLR(hadc->State, HAL_ADC_STATE_INJ_BUSY))
 80020d4:	68fb      	ldr	r3, [r7, #12]
 80020d6:	6c1b      	ldr	r3, [r3, #64]	; 0x40
 80020d8:	f403 5380 	and.w	r3, r3, #4096	; 0x1000
 80020dc:	2b00      	cmp	r3, #0
 80020de:	d105      	bne.n	80020ec <ADC_DMAConvCplt+0x8c>
      {
        SET_BIT(hadc->State, HAL_ADC_STATE_READY);
 80020e0:	68fb      	ldr	r3, [r7, #12]
 80020e2:	6c1b      	ldr	r3, [r3, #64]	; 0x40
 80020e4:	f043 0201 	orr.w	r2, r3, #1
 80020e8:	68fb      	ldr	r3, [r7, #12]
 80020ea:	641a      	str	r2, [r3, #64]	; 0x40
    
    /* Conversion complete callback */
#if (USE_HAL_ADC_REGISTER_CALLBACKS == 1)
    hadc->ConvCpltCallback(hadc);
#else
    HAL_ADC_ConvCpltCallback(hadc);
 80020ec:	68f8      	ldr	r0, [r7, #12]
 80020ee:	f7ff fa05 	bl	80014fc <HAL_ADC_ConvCpltCallback>
	{
      /* Call DMA error callback */
      hadc->DMA_Handle->XferErrorCallback(hdma);
    }
  }
}
 80020f2:	e00e      	b.n	8002112 <ADC_DMAConvCplt+0xb2>
    if ((hadc->State & HAL_ADC_STATE_ERROR_INTERNAL) != 0UL)
 80020f4:	68fb      	ldr	r3, [r7, #12]
 80020f6:	6c1b      	ldr	r3, [r3, #64]	; 0x40
 80020f8:	f003 0310 	and.w	r3, r3, #16
 80020fc:	2b00      	cmp	r3, #0
 80020fe:	d003      	beq.n	8002108 <ADC_DMAConvCplt+0xa8>
      HAL_ADC_ErrorCallback(hadc);
 8002100:	68f8      	ldr	r0, [r7, #12]
 8002102:	f7ff fd75 	bl	8001bf0 <HAL_ADC_ErrorCallback>
}
 8002106:	e004      	b.n	8002112 <ADC_DMAConvCplt+0xb2>
      hadc->DMA_Handle->XferErrorCallback(hdma);
 8002108:	68fb      	ldr	r3, [r7, #12]
 800210a:	6b9b      	ldr	r3, [r3, #56]	; 0x38
 800210c:	6cdb      	ldr	r3, [r3, #76]	; 0x4c
 800210e:	6878      	ldr	r0, [r7, #4]
 8002110:	4798      	blx	r3
}
 8002112:	bf00      	nop
 8002114:	3710      	adds	r7, #16
 8002116:	46bd      	mov	sp, r7
 8002118:	bd80      	pop	{r7, pc}

0800211a <ADC_DMAHalfConvCplt>:
  * @param  hdma pointer to a DMA_HandleTypeDef structure that contains
  *                the configuration information for the specified DMA module.
  * @retval None
  */
static void ADC_DMAHalfConvCplt(DMA_HandleTypeDef *hdma)   
{
 800211a:	b580      	push	{r7, lr}
 800211c:	b084      	sub	sp, #16
 800211e:	af00      	add	r7, sp, #0
 8002120:	6078      	str	r0, [r7, #4]
  ADC_HandleTypeDef* hadc = ( ADC_HandleTypeDef* )((DMA_HandleTypeDef* )hdma)->Parent;
 8002122:	687b      	ldr	r3, [r7, #4]
 8002124:	6b9b      	ldr	r3, [r3, #56]	; 0x38
 8002126:	60fb      	str	r3, [r7, #12]
   /* Half conversion callback */
#if (USE_HAL_ADC_REGISTER_CALLBACKS == 1)
  hadc->ConvHalfCpltCallback(hadc);
#else
  HAL_ADC_ConvHalfCpltCallback(hadc);
 8002128:	68f8      	ldr	r0, [r7, #12]
 800212a:	f7ff fd57 	bl	8001bdc <HAL_ADC_ConvHalfCpltCallback>
#endif /* USE_HAL_ADC_REGISTER_CALLBACKS */
}
 800212e:	bf00      	nop
 8002130:	3710      	adds	r7, #16
 8002132:	46bd      	mov	sp, r7
 8002134:	bd80      	pop	{r7, pc}

08002136 <ADC_DMAError>:
  * @param  hdma pointer to a DMA_HandleTypeDef structure that contains
  *                the configuration information for the specified DMA module.
  * @retval None
  */
static void ADC_DMAError(DMA_HandleTypeDef *hdma)   
{
 8002136:	b580      	push	{r7, lr}
 8002138:	b084      	sub	sp, #16
 800213a:	af00      	add	r7, sp, #0
 800213c:	6078      	str	r0, [r7, #4]
  ADC_HandleTypeDef* hadc = ( ADC_HandleTypeDef* )((DMA_HandleTypeDef* )hdma)->Parent;
 800213e:	687b      	ldr	r3, [r7, #4]
 8002140:	6b9b      	ldr	r3, [r3, #56]	; 0x38
 8002142:	60fb      	str	r3, [r7, #12]
  hadc->State= HAL_ADC_STATE_ERROR_DMA;
 8002144:	68fb      	ldr	r3, [r7, #12]
 8002146:	2240      	movs	r2, #64	; 0x40
 8002148:	641a      	str	r2, [r3, #64]	; 0x40
  /* Set ADC error code to DMA error */
  hadc->ErrorCode |= HAL_ADC_ERROR_DMA;
 800214a:	68fb      	ldr	r3, [r7, #12]
 800214c:	6c5b      	ldr	r3, [r3, #68]	; 0x44
 800214e:	f043 0204 	orr.w	r2, r3, #4
 8002152:	68fb      	ldr	r3, [r7, #12]
 8002154:	645a      	str	r2, [r3, #68]	; 0x44
   /* Error callback */
#if (USE_HAL_ADC_REGISTER_CALLBACKS == 1)
  hadc->ErrorCallback(hadc);
#else
  HAL_ADC_ErrorCallback(hadc);
 8002156:	68f8      	ldr	r0, [r7, #12]
 8002158:	f7ff fd4a 	bl	8001bf0 <HAL_ADC_ErrorCallback>
#endif /* USE_HAL_ADC_REGISTER_CALLBACKS */
}
 800215c:	bf00      	nop
 800215e:	3710      	adds	r7, #16
 8002160:	46bd      	mov	sp, r7
 8002162:	bd80      	pop	{r7, pc}

08002164 <__NVIC_SetPriorityGrouping>:
           In case of a conflict between priority grouping and available
           priority bits (__NVIC_PRIO_BITS), the smallest possible priority group is set.
  \param [in]      PriorityGroup  Priority grouping field.
 */
__STATIC_INLINE void __NVIC_SetPriorityGrouping(uint32_t PriorityGroup)
{
 8002164:	b480      	push	{r7}
 8002166:	b085      	sub	sp, #20
 8002168:	af00      	add	r7, sp, #0
 800216a:	6078      	str	r0, [r7, #4]
  uint32_t reg_value;
  uint32_t PriorityGroupTmp = (PriorityGroup & (uint32_t)0x07UL);             /* only values 0..7 are used          */
 800216c:	687b      	ldr	r3, [r7, #4]
 800216e:	f003 0307 	and.w	r3, r3, #7
 8002172:	60fb      	str	r3, [r7, #12]

  reg_value  =  SCB->AIRCR;                                                   /* read old register configuration    */
 8002174:	4b0c      	ldr	r3, [pc, #48]	; (80021a8 <__NVIC_SetPriorityGrouping+0x44>)
 8002176:	68db      	ldr	r3, [r3, #12]
 8002178:	60bb      	str	r3, [r7, #8]
  reg_value &= ~((uint32_t)(SCB_AIRCR_VECTKEY_Msk | SCB_AIRCR_PRIGROUP_Msk)); /* clear bits to change               */
 800217a:	68ba      	ldr	r2, [r7, #8]
 800217c:	f64f 03ff 	movw	r3, #63743	; 0xf8ff
 8002180:	4013      	ands	r3, r2
 8002182:	60bb      	str	r3, [r7, #8]
  reg_value  =  (reg_value                                   |
                ((uint32_t)0x5FAUL << SCB_AIRCR_VECTKEY_Pos) |
                (PriorityGroupTmp << SCB_AIRCR_PRIGROUP_Pos)  );              /* Insert write key and priority group */
 8002184:	68fb      	ldr	r3, [r7, #12]
 8002186:	021a      	lsls	r2, r3, #8
                ((uint32_t)0x5FAUL << SCB_AIRCR_VECTKEY_Pos) |
 8002188:	68bb      	ldr	r3, [r7, #8]
 800218a:	4313      	orrs	r3, r2
  reg_value  =  (reg_value                                   |
 800218c:	f043 63bf 	orr.w	r3, r3, #100139008	; 0x5f80000
 8002190:	f443 3300 	orr.w	r3, r3, #131072	; 0x20000
 8002194:	60bb      	str	r3, [r7, #8]
  SCB->AIRCR =  reg_value;
 8002196:	4a04      	ldr	r2, [pc, #16]	; (80021a8 <__NVIC_SetPriorityGrouping+0x44>)
 8002198:	68bb      	ldr	r3, [r7, #8]
 800219a:	60d3      	str	r3, [r2, #12]
}
 800219c:	bf00      	nop
 800219e:	3714      	adds	r7, #20
 80021a0:	46bd      	mov	sp, r7
 80021a2:	f85d 7b04 	ldr.w	r7, [sp], #4
 80021a6:	4770      	bx	lr
 80021a8:	e000ed00 	.word	0xe000ed00

080021ac <__NVIC_GetPriorityGrouping>:
  \brief   Get Priority Grouping
  \details Reads the priority grouping field from the NVIC Interrupt Controller.
  \return                Priority grouping field (SCB->AIRCR [10:8] PRIGROUP field).
 */
__STATIC_INLINE uint32_t __NVIC_GetPriorityGrouping(void)
{
 80021ac:	b480      	push	{r7}
 80021ae:	af00      	add	r7, sp, #0
  return ((uint32_t)((SCB->AIRCR & SCB_AIRCR_PRIGROUP_Msk) >> SCB_AIRCR_PRIGROUP_Pos));
 80021b0:	4b04      	ldr	r3, [pc, #16]	; (80021c4 <__NVIC_GetPriorityGrouping+0x18>)
 80021b2:	68db      	ldr	r3, [r3, #12]
 80021b4:	0a1b      	lsrs	r3, r3, #8
 80021b6:	f003 0307 	and.w	r3, r3, #7
}
 80021ba:	4618      	mov	r0, r3
 80021bc:	46bd      	mov	sp, r7
 80021be:	f85d 7b04 	ldr.w	r7, [sp], #4
 80021c2:	4770      	bx	lr
 80021c4:	e000ed00 	.word	0xe000ed00

080021c8 <__NVIC_EnableIRQ>:
  \details Enables a device specific interrupt in the NVIC interrupt controller.
  \param [in]      IRQn  Device specific interrupt number.
  \note    IRQn must not be negative.
 */
__STATIC_INLINE void __NVIC_EnableIRQ(IRQn_Type IRQn)
{
 80021c8:	b480      	push	{r7}
 80021ca:	b083      	sub	sp, #12
 80021cc:	af00      	add	r7, sp, #0
 80021ce:	4603      	mov	r3, r0
 80021d0:	71fb      	strb	r3, [r7, #7]
  if ((int32_t)(IRQn) >= 0)
 80021d2:	f997 3007 	ldrsb.w	r3, [r7, #7]
 80021d6:	2b00      	cmp	r3, #0
 80021d8:	db0b      	blt.n	80021f2 <__NVIC_EnableIRQ+0x2a>
  {
    NVIC->ISER[(((uint32_t)IRQn) >> 5UL)] = (uint32_t)(1UL << (((uint32_t)IRQn) & 0x1FUL));
 80021da:	79fb      	ldrb	r3, [r7, #7]
 80021dc:	f003 021f 	and.w	r2, r3, #31
 80021e0:	4907      	ldr	r1, [pc, #28]	; (8002200 <__NVIC_EnableIRQ+0x38>)
 80021e2:	f997 3007 	ldrsb.w	r3, [r7, #7]
 80021e6:	095b      	lsrs	r3, r3, #5
 80021e8:	2001      	movs	r0, #1
 80021ea:	fa00 f202 	lsl.w	r2, r0, r2
 80021ee:	f841 2023 	str.w	r2, [r1, r3, lsl #2]
  }
}
 80021f2:	bf00      	nop
 80021f4:	370c      	adds	r7, #12
 80021f6:	46bd      	mov	sp, r7
 80021f8:	f85d 7b04 	ldr.w	r7, [sp], #4
 80021fc:	4770      	bx	lr
 80021fe:	bf00      	nop
 8002200:	e000e100 	.word	0xe000e100

08002204 <__NVIC_SetPriority>:
  \param [in]      IRQn  Interrupt number.
  \param [in]  priority  Priority to set.
  \note    The priority cannot be set for every processor exception.
 */
__STATIC_INLINE void __NVIC_SetPriority(IRQn_Type IRQn, uint32_t priority)
{
 8002204:	b480      	push	{r7}
 8002206:	b083      	sub	sp, #12
 8002208:	af00      	add	r7, sp, #0
 800220a:	4603      	mov	r3, r0
 800220c:	6039      	str	r1, [r7, #0]
 800220e:	71fb      	strb	r3, [r7, #7]
  if ((int32_t)(IRQn) >= 0)
 8002210:	f997 3007 	ldrsb.w	r3, [r7, #7]
 8002214:	2b00      	cmp	r3, #0
 8002216:	db0a      	blt.n	800222e <__NVIC_SetPriority+0x2a>
  {
    NVIC->IP[((uint32_t)IRQn)]               = (uint8_t)((priority << (8U - __NVIC_PRIO_BITS)) & (uint32_t)0xFFUL);
 8002218:	683b      	ldr	r3, [r7, #0]
 800221a:	b2da      	uxtb	r2, r3
 800221c:	490c      	ldr	r1, [pc, #48]	; (8002250 <__NVIC_SetPriority+0x4c>)
 800221e:	f997 3007 	ldrsb.w	r3, [r7, #7]
 8002222:	0112      	lsls	r2, r2, #4
 8002224:	b2d2      	uxtb	r2, r2
 8002226:	440b      	add	r3, r1
 8002228:	f883 2300 	strb.w	r2, [r3, #768]	; 0x300
  }
  else
  {
    SCB->SHP[(((uint32_t)IRQn) & 0xFUL)-4UL] = (uint8_t)((priority << (8U - __NVIC_PRIO_BITS)) & (uint32_t)0xFFUL);
  }
}
 800222c:	e00a      	b.n	8002244 <__NVIC_SetPriority+0x40>
    SCB->SHP[(((uint32_t)IRQn) & 0xFUL)-4UL] = (uint8_t)((priority << (8U - __NVIC_PRIO_BITS)) & (uint32_t)0xFFUL);
 800222e:	683b      	ldr	r3, [r7, #0]
 8002230:	b2da      	uxtb	r2, r3
 8002232:	4908      	ldr	r1, [pc, #32]	; (8002254 <__NVIC_SetPriority+0x50>)
 8002234:	79fb      	ldrb	r3, [r7, #7]
 8002236:	f003 030f 	and.w	r3, r3, #15
 800223a:	3b04      	subs	r3, #4
 800223c:	0112      	lsls	r2, r2, #4
 800223e:	b2d2      	uxtb	r2, r2
 8002240:	440b      	add	r3, r1
 8002242:	761a      	strb	r2, [r3, #24]
}
 8002244:	bf00      	nop
 8002246:	370c      	adds	r7, #12
 8002248:	46bd      	mov	sp, r7
 800224a:	f85d 7b04 	ldr.w	r7, [sp], #4
 800224e:	4770      	bx	lr
 8002250:	e000e100 	.word	0xe000e100
 8002254:	e000ed00 	.word	0xe000ed00

08002258 <NVIC_EncodePriority>:
  \param [in]   PreemptPriority  Preemptive priority value (starting from 0).
  \param [in]       SubPriority  Subpriority value (starting from 0).
  \return                        Encoded priority. Value can be used in the function \ref NVIC_SetPriority().
 */
__STATIC_INLINE uint32_t NVIC_EncodePriority (uint32_t PriorityGroup, uint32_t PreemptPriority, uint32_t SubPriority)
{
 8002258:	b480      	push	{r7}
 800225a:	b089      	sub	sp, #36	; 0x24
 800225c:	af00      	add	r7, sp, #0
 800225e:	60f8      	str	r0, [r7, #12]
 8002260:	60b9      	str	r1, [r7, #8]
 8002262:	607a      	str	r2, [r7, #4]
  uint32_t PriorityGroupTmp = (PriorityGroup & (uint32_t)0x07UL);   /* only values 0..7 are used          */
 8002264:	68fb      	ldr	r3, [r7, #12]
 8002266:	f003 0307 	and.w	r3, r3, #7
 800226a:	61fb      	str	r3, [r7, #28]
  uint32_t PreemptPriorityBits;
  uint32_t SubPriorityBits;

  PreemptPriorityBits = ((7UL - PriorityGroupTmp) > (uint32_t)(__NVIC_PRIO_BITS)) ? (uint32_t)(__NVIC_PRIO_BITS) : (uint32_t)(7UL - PriorityGroupTmp);
 800226c:	69fb      	ldr	r3, [r7, #28]
 800226e:	f1c3 0307 	rsb	r3, r3, #7
 8002272:	2b04      	cmp	r3, #4
 8002274:	bf28      	it	cs
 8002276:	2304      	movcs	r3, #4
 8002278:	61bb      	str	r3, [r7, #24]
  SubPriorityBits     = ((PriorityGroupTmp + (uint32_t)(__NVIC_PRIO_BITS)) < (uint32_t)7UL) ? (uint32_t)0UL : (uint32_t)((PriorityGroupTmp - 7UL) + (uint32_t)(__NVIC_PRIO_BITS));
 800227a:	69fb      	ldr	r3, [r7, #28]
 800227c:	3304      	adds	r3, #4
 800227e:	2b06      	cmp	r3, #6
 8002280:	d902      	bls.n	8002288 <NVIC_EncodePriority+0x30>
 8002282:	69fb      	ldr	r3, [r7, #28]
 8002284:	3b03      	subs	r3, #3
 8002286:	e000      	b.n	800228a <NVIC_EncodePriority+0x32>
 8002288:	2300      	movs	r3, #0
 800228a:	617b      	str	r3, [r7, #20]

  return (
           ((PreemptPriority & (uint32_t)((1UL << (PreemptPriorityBits)) - 1UL)) << SubPriorityBits) |
 800228c:	f04f 32ff 	mov.w	r2, #4294967295
 8002290:	69bb      	ldr	r3, [r7, #24]
 8002292:	fa02 f303 	lsl.w	r3, r2, r3
 8002296:	43da      	mvns	r2, r3
 8002298:	68bb      	ldr	r3, [r7, #8]
 800229a:	401a      	ands	r2, r3
 800229c:	697b      	ldr	r3, [r7, #20]
 800229e:	409a      	lsls	r2, r3
           ((SubPriority     & (uint32_t)((1UL << (SubPriorityBits    )) - 1UL)))
 80022a0:	f04f 31ff 	mov.w	r1, #4294967295
 80022a4:	697b      	ldr	r3, [r7, #20]
 80022a6:	fa01 f303 	lsl.w	r3, r1, r3
 80022aa:	43d9      	mvns	r1, r3
 80022ac:	687b      	ldr	r3, [r7, #4]
 80022ae:	400b      	ands	r3, r1
           ((PreemptPriority & (uint32_t)((1UL << (PreemptPriorityBits)) - 1UL)) << SubPriorityBits) |
 80022b0:	4313      	orrs	r3, r2
         );
}
 80022b2:	4618      	mov	r0, r3
 80022b4:	3724      	adds	r7, #36	; 0x24
 80022b6:	46bd      	mov	sp, r7
 80022b8:	f85d 7b04 	ldr.w	r7, [sp], #4
 80022bc:	4770      	bx	lr
	...

080022c0 <SysTick_Config>:
  \note    When the variable <b>__Vendor_SysTickConfig</b> is set to 1, then the
           function <b>SysTick_Config</b> is not included. In this case, the file <b><i>device</i>.h</b>
           must contain a vendor-specific implementation of this function.
 */
__STATIC_INLINE uint32_t SysTick_Config(uint32_t ticks)
{
 80022c0:	b580      	push	{r7, lr}
 80022c2:	b082      	sub	sp, #8
 80022c4:	af00      	add	r7, sp, #0
 80022c6:	6078      	str	r0, [r7, #4]
  if ((ticks - 1UL) > SysTick_LOAD_RELOAD_Msk)
 80022c8:	687b      	ldr	r3, [r7, #4]
 80022ca:	3b01      	subs	r3, #1
 80022cc:	f1b3 7f80 	cmp.w	r3, #16777216	; 0x1000000
 80022d0:	d301      	bcc.n	80022d6 <SysTick_Config+0x16>
  {
    return (1UL);                                                   /* Reload value impossible */
 80022d2:	2301      	movs	r3, #1
 80022d4:	e00f      	b.n	80022f6 <SysTick_Config+0x36>
  }

  SysTick->LOAD  = (uint32_t)(ticks - 1UL);                         /* set reload register */
 80022d6:	4a0a      	ldr	r2, [pc, #40]	; (8002300 <SysTick_Config+0x40>)
 80022d8:	687b      	ldr	r3, [r7, #4]
 80022da:	3b01      	subs	r3, #1
 80022dc:	6053      	str	r3, [r2, #4]
  NVIC_SetPriority (SysTick_IRQn, (1UL << __NVIC_PRIO_BITS) - 1UL); /* set Priority for Systick Interrupt */
 80022de:	210f      	movs	r1, #15
 80022e0:	f04f 30ff 	mov.w	r0, #4294967295
 80022e4:	f7ff ff8e 	bl	8002204 <__NVIC_SetPriority>
  SysTick->VAL   = 0UL;                                             /* Load the SysTick Counter Value */
 80022e8:	4b05      	ldr	r3, [pc, #20]	; (8002300 <SysTick_Config+0x40>)
 80022ea:	2200      	movs	r2, #0
 80022ec:	609a      	str	r2, [r3, #8]
  SysTick->CTRL  = SysTick_CTRL_CLKSOURCE_Msk |
 80022ee:	4b04      	ldr	r3, [pc, #16]	; (8002300 <SysTick_Config+0x40>)
 80022f0:	2207      	movs	r2, #7
 80022f2:	601a      	str	r2, [r3, #0]
                   SysTick_CTRL_TICKINT_Msk   |
                   SysTick_CTRL_ENABLE_Msk;                         /* Enable SysTick IRQ and SysTick Timer */
  return (0UL);                                                     /* Function successful */
 80022f4:	2300      	movs	r3, #0
}
 80022f6:	4618      	mov	r0, r3
 80022f8:	3708      	adds	r7, #8
 80022fa:	46bd      	mov	sp, r7
 80022fc:	bd80      	pop	{r7, pc}
 80022fe:	bf00      	nop
 8002300:	e000e010 	.word	0xe000e010

08002304 <HAL_NVIC_SetPriorityGrouping>:
  * @note   When the NVIC_PriorityGroup_0 is selected, IRQ preemption is no more possible. 
  *         The pending IRQ priority will be managed only by the subpriority. 
  * @retval None
  */
void HAL_NVIC_SetPriorityGrouping(uint32_t PriorityGroup)
{
 8002304:	b580      	push	{r7, lr}
 8002306:	b082      	sub	sp, #8
 8002308:	af00      	add	r7, sp, #0
 800230a:	6078      	str	r0, [r7, #4]
  /* Check the parameters */
  assert_param(IS_NVIC_PRIORITY_GROUP(PriorityGroup));
  
  /* Set the PRIGROUP[10:8] bits according to the PriorityGroup parameter value */
  NVIC_SetPriorityGrouping(PriorityGroup);
 800230c:	6878      	ldr	r0, [r7, #4]
 800230e:	f7ff ff29 	bl	8002164 <__NVIC_SetPriorityGrouping>
}
 8002312:	bf00      	nop
 8002314:	3708      	adds	r7, #8
 8002316:	46bd      	mov	sp, r7
 8002318:	bd80      	pop	{r7, pc}

0800231a <HAL_NVIC_SetPriority>:
  *         This parameter can be a value between 0 and 15
  *         A lower priority value indicates a higher priority.          
  * @retval None
  */
void HAL_NVIC_SetPriority(IRQn_Type IRQn, uint32_t PreemptPriority, uint32_t SubPriority)
{ 
 800231a:	b580      	push	{r7, lr}
 800231c:	b086      	sub	sp, #24
 800231e:	af00      	add	r7, sp, #0
 8002320:	4603      	mov	r3, r0
 8002322:	60b9      	str	r1, [r7, #8]
 8002324:	607a      	str	r2, [r7, #4]
 8002326:	73fb      	strb	r3, [r7, #15]
  uint32_t prioritygroup = 0x00U;
 8002328:	2300      	movs	r3, #0
 800232a:	617b      	str	r3, [r7, #20]
  
  /* Check the parameters */
  assert_param(IS_NVIC_SUB_PRIORITY(SubPriority));
  assert_param(IS_NVIC_PREEMPTION_PRIORITY(PreemptPriority));
  
  prioritygroup = NVIC_GetPriorityGrouping();
 800232c:	f7ff ff3e 	bl	80021ac <__NVIC_GetPriorityGrouping>
 8002330:	6178      	str	r0, [r7, #20]
  
  NVIC_SetPriority(IRQn, NVIC_EncodePriority(prioritygroup, PreemptPriority, SubPriority));
 8002332:	687a      	ldr	r2, [r7, #4]
 8002334:	68b9      	ldr	r1, [r7, #8]
 8002336:	6978      	ldr	r0, [r7, #20]
 8002338:	f7ff ff8e 	bl	8002258 <NVIC_EncodePriority>
 800233c:	4602      	mov	r2, r0
 800233e:	f997 300f 	ldrsb.w	r3, [r7, #15]
 8002342:	4611      	mov	r1, r2
 8002344:	4618      	mov	r0, r3
 8002346:	f7ff ff5d 	bl	8002204 <__NVIC_SetPriority>
}
 800234a:	bf00      	nop
 800234c:	3718      	adds	r7, #24
 800234e:	46bd      	mov	sp, r7
 8002350:	bd80      	pop	{r7, pc}

08002352 <HAL_NVIC_EnableIRQ>:
  *         This parameter can be an enumerator of IRQn_Type enumeration
  *         (For the complete STM32 Devices IRQ Channels list, please refer to the appropriate CMSIS device file (stm32f4xxxx.h))
  * @retval None
  */
void HAL_NVIC_EnableIRQ(IRQn_Type IRQn)
{
 8002352:	b580      	push	{r7, lr}
 8002354:	b082      	sub	sp, #8
 8002356:	af00      	add	r7, sp, #0
 8002358:	4603      	mov	r3, r0
 800235a:	71fb      	strb	r3, [r7, #7]
  /* Check the parameters */
  assert_param(IS_NVIC_DEVICE_IRQ(IRQn));
  
  /* Enable interrupt */
  NVIC_EnableIRQ(IRQn);
 800235c:	f997 3007 	ldrsb.w	r3, [r7, #7]
 8002360:	4618      	mov	r0, r3
 8002362:	f7ff ff31 	bl	80021c8 <__NVIC_EnableIRQ>
}
 8002366:	bf00      	nop
 8002368:	3708      	adds	r7, #8
 800236a:	46bd      	mov	sp, r7
 800236c:	bd80      	pop	{r7, pc}

0800236e <HAL_SYSTICK_Config>:
  * @param  TicksNumb Specifies the ticks Number of ticks between two interrupts.
  * @retval status:  - 0  Function succeeded.
  *                  - 1  Function failed.
  */
uint32_t HAL_SYSTICK_Config(uint32_t TicksNumb)
{
 800236e:	b580      	push	{r7, lr}
 8002370:	b082      	sub	sp, #8
 8002372:	af00      	add	r7, sp, #0
 8002374:	6078      	str	r0, [r7, #4]
   return SysTick_Config(TicksNumb);
 8002376:	6878      	ldr	r0, [r7, #4]
 8002378:	f7ff ffa2 	bl	80022c0 <SysTick_Config>
 800237c:	4603      	mov	r3, r0
}
 800237e:	4618      	mov	r0, r3
 8002380:	3708      	adds	r7, #8
 8002382:	46bd      	mov	sp, r7
 8002384:	bd80      	pop	{r7, pc}
	...

08002388 <HAL_DMA_Init>:
  * @param  hdma Pointer to a DMA_HandleTypeDef structure that contains
  *               the configuration information for the specified DMA Stream.  
  * @retval HAL status
  */
HAL_StatusTypeDef HAL_DMA_Init(DMA_HandleTypeDef *hdma)
{
 8002388:	b580      	push	{r7, lr}
 800238a:	b086      	sub	sp, #24
 800238c:	af00      	add	r7, sp, #0
 800238e:	6078      	str	r0, [r7, #4]
  uint32_t tmp = 0U;
 8002390:	2300      	movs	r3, #0
 8002392:	617b      	str	r3, [r7, #20]
  uint32_t tickstart = HAL_GetTick();
 8002394:	f7ff fabe 	bl	8001914 <HAL_GetTick>
 8002398:	6138      	str	r0, [r7, #16]
  DMA_Base_Registers *regs;

  /* Check the DMA peripheral state */
  if(hdma == NULL)
 800239a:	687b      	ldr	r3, [r7, #4]
 800239c:	2b00      	cmp	r3, #0
 800239e:	d101      	bne.n	80023a4 <HAL_DMA_Init+0x1c>
  {
    return HAL_ERROR;
 80023a0:	2301      	movs	r3, #1
 80023a2:	e099      	b.n	80024d8 <HAL_DMA_Init+0x150>
    assert_param(IS_DMA_MEMORY_BURST(hdma->Init.MemBurst));
    assert_param(IS_DMA_PERIPHERAL_BURST(hdma->Init.PeriphBurst));
  }
  
  /* Allocate lock resource */
  __HAL_UNLOCK(hdma);
 80023a4:	687b      	ldr	r3, [r7, #4]
 80023a6:	2200      	movs	r2, #0
 80023a8:	f883 2034 	strb.w	r2, [r3, #52]	; 0x34

  /* Change DMA peripheral state */
  hdma->State = HAL_DMA_STATE_BUSY;
 80023ac:	687b      	ldr	r3, [r7, #4]
 80023ae:	2202      	movs	r2, #2
 80023b0:	f883 2035 	strb.w	r2, [r3, #53]	; 0x35
  
  /* Disable the peripheral */
  __HAL_DMA_DISABLE(hdma);
 80023b4:	687b      	ldr	r3, [r7, #4]
 80023b6:	681b      	ldr	r3, [r3, #0]
 80023b8:	681a      	ldr	r2, [r3, #0]
 80023ba:	687b      	ldr	r3, [r7, #4]
 80023bc:	681b      	ldr	r3, [r3, #0]
 80023be:	f022 0201 	bic.w	r2, r2, #1
 80023c2:	601a      	str	r2, [r3, #0]
  
  /* Check if the DMA Stream is effectively disabled */
  while((hdma->Instance->CR & DMA_SxCR_EN) != RESET)
 80023c4:	e00f      	b.n	80023e6 <HAL_DMA_Init+0x5e>
  {
    /* Check for the Timeout */
    if((HAL_GetTick() - tickstart ) > HAL_TIMEOUT_DMA_ABORT)
 80023c6:	f7ff faa5 	bl	8001914 <HAL_GetTick>
 80023ca:	4602      	mov	r2, r0
 80023cc:	693b      	ldr	r3, [r7, #16]
 80023ce:	1ad3      	subs	r3, r2, r3
 80023d0:	2b05      	cmp	r3, #5
 80023d2:	d908      	bls.n	80023e6 <HAL_DMA_Init+0x5e>
    {
      /* Update error code */
      hdma->ErrorCode = HAL_DMA_ERROR_TIMEOUT;
 80023d4:	687b      	ldr	r3, [r7, #4]
 80023d6:	2220      	movs	r2, #32
 80023d8:	655a      	str	r2, [r3, #84]	; 0x54
      
      /* Change the DMA state */
      hdma->State = HAL_DMA_STATE_TIMEOUT;
 80023da:	687b      	ldr	r3, [r7, #4]
 80023dc:	2203      	movs	r2, #3
 80023de:	f883 2035 	strb.w	r2, [r3, #53]	; 0x35
      
      return HAL_TIMEOUT;
 80023e2:	2303      	movs	r3, #3
 80023e4:	e078      	b.n	80024d8 <HAL_DMA_Init+0x150>
  while((hdma->Instance->CR & DMA_SxCR_EN) != RESET)
 80023e6:	687b      	ldr	r3, [r7, #4]
 80023e8:	681b      	ldr	r3, [r3, #0]
 80023ea:	681b      	ldr	r3, [r3, #0]
 80023ec:	f003 0301 	and.w	r3, r3, #1
 80023f0:	2b00      	cmp	r3, #0
 80023f2:	d1e8      	bne.n	80023c6 <HAL_DMA_Init+0x3e>
    }
  }
  
  /* Get the CR register value */
  tmp = hdma->Instance->CR;
 80023f4:	687b      	ldr	r3, [r7, #4]
 80023f6:	681b      	ldr	r3, [r3, #0]
 80023f8:	681b      	ldr	r3, [r3, #0]
 80023fa:	617b      	str	r3, [r7, #20]

  /* Clear CHSEL, MBURST, PBURST, PL, MSIZE, PSIZE, MINC, PINC, CIRC, DIR, CT and DBM bits */
  tmp &= ((uint32_t)~(DMA_SxCR_CHSEL | DMA_SxCR_MBURST | DMA_SxCR_PBURST | \
 80023fc:	697a      	ldr	r2, [r7, #20]
 80023fe:	4b38      	ldr	r3, [pc, #224]	; (80024e0 <HAL_DMA_Init+0x158>)
 8002400:	4013      	ands	r3, r2
 8002402:	617b      	str	r3, [r7, #20]
                      DMA_SxCR_PL    | DMA_SxCR_MSIZE  | DMA_SxCR_PSIZE  | \
                      DMA_SxCR_MINC  | DMA_SxCR_PINC   | DMA_SxCR_CIRC   | \
                      DMA_SxCR_DIR   | DMA_SxCR_CT     | DMA_SxCR_DBM));

  /* Prepare the DMA Stream configuration */
  tmp |=  hdma->Init.Channel             | hdma->Init.Direction        |
 8002404:	687b      	ldr	r3, [r7, #4]
 8002406:	685a      	ldr	r2, [r3, #4]
 8002408:	687b      	ldr	r3, [r7, #4]
 800240a:	689b      	ldr	r3, [r3, #8]
 800240c:	431a      	orrs	r2, r3
          hdma->Init.PeriphInc           | hdma->Init.MemInc           |
 800240e:	687b      	ldr	r3, [r7, #4]
 8002410:	68db      	ldr	r3, [r3, #12]
  tmp |=  hdma->Init.Channel             | hdma->Init.Direction        |
 8002412:	431a      	orrs	r2, r3
          hdma->Init.PeriphInc           | hdma->Init.MemInc           |
 8002414:	687b      	ldr	r3, [r7, #4]
 8002416:	691b      	ldr	r3, [r3, #16]
 8002418:	431a      	orrs	r2, r3
          hdma->Init.PeriphDataAlignment | hdma->Init.MemDataAlignment |
 800241a:	687b      	ldr	r3, [r7, #4]
 800241c:	695b      	ldr	r3, [r3, #20]
          hdma->Init.PeriphInc           | hdma->Init.MemInc           |
 800241e:	431a      	orrs	r2, r3
          hdma->Init.PeriphDataAlignment | hdma->Init.MemDataAlignment |
 8002420:	687b      	ldr	r3, [r7, #4]
 8002422:	699b      	ldr	r3, [r3, #24]
 8002424:	431a      	orrs	r2, r3
          hdma->Init.Mode                | hdma->Init.Priority;
 8002426:	687b      	ldr	r3, [r7, #4]
 8002428:	69db      	ldr	r3, [r3, #28]
          hdma->Init.PeriphDataAlignment | hdma->Init.MemDataAlignment |
 800242a:	431a      	orrs	r2, r3
          hdma->Init.Mode                | hdma->Init.Priority;
 800242c:	687b      	ldr	r3, [r7, #4]
 800242e:	6a1b      	ldr	r3, [r3, #32]
 8002430:	4313      	orrs	r3, r2
  tmp |=  hdma->Init.Channel             | hdma->Init.Direction        |
 8002432:	697a      	ldr	r2, [r7, #20]
 8002434:	4313      	orrs	r3, r2
 8002436:	617b      	str	r3, [r7, #20]

  /* the Memory burst and peripheral burst are not used when the FIFO is disabled */
  if(hdma->Init.FIFOMode == DMA_FIFOMODE_ENABLE)
 8002438:	687b      	ldr	r3, [r7, #4]
 800243a:	6a5b      	ldr	r3, [r3, #36]	; 0x24
 800243c:	2b04      	cmp	r3, #4
 800243e:	d107      	bne.n	8002450 <HAL_DMA_Init+0xc8>
  {
    /* Get memory burst and peripheral burst */
    tmp |=  hdma->Init.MemBurst | hdma->Init.PeriphBurst;
 8002440:	687b      	ldr	r3, [r7, #4]
 8002442:	6ada      	ldr	r2, [r3, #44]	; 0x2c
 8002444:	687b      	ldr	r3, [r7, #4]
 8002446:	6b1b      	ldr	r3, [r3, #48]	; 0x30
 8002448:	4313      	orrs	r3, r2
 800244a:	697a      	ldr	r2, [r7, #20]
 800244c:	4313      	orrs	r3, r2
 800244e:	617b      	str	r3, [r7, #20]
  }
  
  /* Write to DMA Stream CR register */
  hdma->Instance->CR = tmp;  
 8002450:	687b      	ldr	r3, [r7, #4]
 8002452:	681b      	ldr	r3, [r3, #0]
 8002454:	697a      	ldr	r2, [r7, #20]
 8002456:	601a      	str	r2, [r3, #0]

  /* Get the FCR register value */
  tmp = hdma->Instance->FCR;
 8002458:	687b      	ldr	r3, [r7, #4]
 800245a:	681b      	ldr	r3, [r3, #0]
 800245c:	695b      	ldr	r3, [r3, #20]
 800245e:	617b      	str	r3, [r7, #20]

  /* Clear Direct mode and FIFO threshold bits */
  tmp &= (uint32_t)~(DMA_SxFCR_DMDIS | DMA_SxFCR_FTH);
 8002460:	697b      	ldr	r3, [r7, #20]
 8002462:	f023 0307 	bic.w	r3, r3, #7
 8002466:	617b      	str	r3, [r7, #20]

  /* Prepare the DMA Stream FIFO configuration */
  tmp |= hdma->Init.FIFOMode;
 8002468:	687b      	ldr	r3, [r7, #4]
 800246a:	6a5b      	ldr	r3, [r3, #36]	; 0x24
 800246c:	697a      	ldr	r2, [r7, #20]
 800246e:	4313      	orrs	r3, r2
 8002470:	617b      	str	r3, [r7, #20]

  /* The FIFO threshold is not used when the FIFO mode is disabled */
  if(hdma->Init.FIFOMode == DMA_FIFOMODE_ENABLE)
 8002472:	687b      	ldr	r3, [r7, #4]
 8002474:	6a5b      	ldr	r3, [r3, #36]	; 0x24
 8002476:	2b04      	cmp	r3, #4
 8002478:	d117      	bne.n	80024aa <HAL_DMA_Init+0x122>
  {
    /* Get the FIFO threshold */
    tmp |= hdma->Init.FIFOThreshold;
 800247a:	687b      	ldr	r3, [r7, #4]
 800247c:	6a9b      	ldr	r3, [r3, #40]	; 0x28
 800247e:	697a      	ldr	r2, [r7, #20]
 8002480:	4313      	orrs	r3, r2
 8002482:	617b      	str	r3, [r7, #20]
    
    /* Check compatibility between FIFO threshold level and size of the memory burst */
    /* for INCR4, INCR8, INCR16 bursts */
    if (hdma->Init.MemBurst != DMA_MBURST_SINGLE)
 8002484:	687b      	ldr	r3, [r7, #4]
 8002486:	6adb      	ldr	r3, [r3, #44]	; 0x2c
 8002488:	2b00      	cmp	r3, #0
 800248a:	d00e      	beq.n	80024aa <HAL_DMA_Init+0x122>
    {
      if (DMA_CheckFifoParam(hdma) != HAL_OK)
 800248c:	6878      	ldr	r0, [r7, #4]
 800248e:	f000 fa6f 	bl	8002970 <DMA_CheckFifoParam>
 8002492:	4603      	mov	r3, r0
 8002494:	2b00      	cmp	r3, #0
 8002496:	d008      	beq.n	80024aa <HAL_DMA_Init+0x122>
      {
        /* Update error code */
        hdma->ErrorCode = HAL_DMA_ERROR_PARAM;
 8002498:	687b      	ldr	r3, [r7, #4]
 800249a:	2240      	movs	r2, #64	; 0x40
 800249c:	655a      	str	r2, [r3, #84]	; 0x54
        
        /* Change the DMA state */
        hdma->State = HAL_DMA_STATE_READY;
 800249e:	687b      	ldr	r3, [r7, #4]
 80024a0:	2201      	movs	r2, #1
 80024a2:	f883 2035 	strb.w	r2, [r3, #53]	; 0x35
        
        return HAL_ERROR; 
 80024a6:	2301      	movs	r3, #1
 80024a8:	e016      	b.n	80024d8 <HAL_DMA_Init+0x150>
      }
    }
  }
  
  /* Write to DMA Stream FCR */
  hdma->Instance->FCR = tmp;
 80024aa:	687b      	ldr	r3, [r7, #4]
 80024ac:	681b      	ldr	r3, [r3, #0]
 80024ae:	697a      	ldr	r2, [r7, #20]
 80024b0:	615a      	str	r2, [r3, #20]

  /* Initialize StreamBaseAddress and StreamIndex parameters to be used to calculate
     DMA steam Base Address needed by HAL_DMA_IRQHandler() and HAL_DMA_PollForTransfer() */
  regs = (DMA_Base_Registers *)DMA_CalcBaseAndBitshift(hdma);
 80024b2:	6878      	ldr	r0, [r7, #4]
 80024b4:	f000 fa26 	bl	8002904 <DMA_CalcBaseAndBitshift>
 80024b8:	4603      	mov	r3, r0
 80024ba:	60fb      	str	r3, [r7, #12]
  
  /* Clear all interrupt flags */
  regs->IFCR = 0x3FU << hdma->StreamIndex;
 80024bc:	687b      	ldr	r3, [r7, #4]
 80024be:	6ddb      	ldr	r3, [r3, #92]	; 0x5c
 80024c0:	223f      	movs	r2, #63	; 0x3f
 80024c2:	409a      	lsls	r2, r3
 80024c4:	68fb      	ldr	r3, [r7, #12]
 80024c6:	609a      	str	r2, [r3, #8]

  /* Initialize the error code */
  hdma->ErrorCode = HAL_DMA_ERROR_NONE;
 80024c8:	687b      	ldr	r3, [r7, #4]
 80024ca:	2200      	movs	r2, #0
 80024cc:	655a      	str	r2, [r3, #84]	; 0x54
                                                                                     
  /* Initialize the DMA state */
  hdma->State = HAL_DMA_STATE_READY;
 80024ce:	687b      	ldr	r3, [r7, #4]
 80024d0:	2201      	movs	r2, #1
 80024d2:	f883 2035 	strb.w	r2, [r3, #53]	; 0x35

  return HAL_OK;
 80024d6:	2300      	movs	r3, #0
}
 80024d8:	4618      	mov	r0, r3
 80024da:	3718      	adds	r7, #24
 80024dc:	46bd      	mov	sp, r7
 80024de:	bd80      	pop	{r7, pc}
 80024e0:	f010803f 	.word	0xf010803f

080024e4 <HAL_DMA_Start_IT>:
  * @param  DstAddress The destination memory Buffer address
  * @param  DataLength The length of data to be transferred from source to destination
  * @retval HAL status
  */
HAL_StatusTypeDef HAL_DMA_Start_IT(DMA_HandleTypeDef *hdma, uint32_t SrcAddress, uint32_t DstAddress, uint32_t DataLength)
{
 80024e4:	b580      	push	{r7, lr}
 80024e6:	b086      	sub	sp, #24
 80024e8:	af00      	add	r7, sp, #0
 80024ea:	60f8      	str	r0, [r7, #12]
 80024ec:	60b9      	str	r1, [r7, #8]
 80024ee:	607a      	str	r2, [r7, #4]
 80024f0:	603b      	str	r3, [r7, #0]
  HAL_StatusTypeDef status = HAL_OK;
 80024f2:	2300      	movs	r3, #0
 80024f4:	75fb      	strb	r3, [r7, #23]

  /* calculate DMA base and stream number */
  DMA_Base_Registers *regs = (DMA_Base_Registers *)hdma->StreamBaseAddress;
 80024f6:	68fb      	ldr	r3, [r7, #12]
 80024f8:	6d9b      	ldr	r3, [r3, #88]	; 0x58
 80024fa:	613b      	str	r3, [r7, #16]
  
  /* Check the parameters */
  assert_param(IS_DMA_BUFFER_SIZE(DataLength));
 
  /* Process locked */
  __HAL_LOCK(hdma);
 80024fc:	68fb      	ldr	r3, [r7, #12]
 80024fe:	f893 3034 	ldrb.w	r3, [r3, #52]	; 0x34
 8002502:	2b01      	cmp	r3, #1
 8002504:	d101      	bne.n	800250a <HAL_DMA_Start_IT+0x26>
 8002506:	2302      	movs	r3, #2
 8002508:	e040      	b.n	800258c <HAL_DMA_Start_IT+0xa8>
 800250a:	68fb      	ldr	r3, [r7, #12]
 800250c:	2201      	movs	r2, #1
 800250e:	f883 2034 	strb.w	r2, [r3, #52]	; 0x34
  
  if(HAL_DMA_STATE_READY == hdma->State)
 8002512:	68fb      	ldr	r3, [r7, #12]
 8002514:	f893 3035 	ldrb.w	r3, [r3, #53]	; 0x35
 8002518:	b2db      	uxtb	r3, r3
 800251a:	2b01      	cmp	r3, #1
 800251c:	d12f      	bne.n	800257e <HAL_DMA_Start_IT+0x9a>
  {
    /* Change DMA peripheral state */
    hdma->State = HAL_DMA_STATE_BUSY;
 800251e:	68fb      	ldr	r3, [r7, #12]
 8002520:	2202      	movs	r2, #2
 8002522:	f883 2035 	strb.w	r2, [r3, #53]	; 0x35
    
    /* Initialize the error code */
    hdma->ErrorCode = HAL_DMA_ERROR_NONE;
 8002526:	68fb      	ldr	r3, [r7, #12]
 8002528:	2200      	movs	r2, #0
 800252a:	655a      	str	r2, [r3, #84]	; 0x54
    
    /* Configure the source, destination address and the data length */
    DMA_SetConfig(hdma, SrcAddress, DstAddress, DataLength);
 800252c:	683b      	ldr	r3, [r7, #0]
 800252e:	687a      	ldr	r2, [r7, #4]
 8002530:	68b9      	ldr	r1, [r7, #8]
 8002532:	68f8      	ldr	r0, [r7, #12]
 8002534:	f000 f9b8 	bl	80028a8 <DMA_SetConfig>
    
    /* Clear all interrupt flags at correct offset within the register */
    regs->IFCR = 0x3FU << hdma->StreamIndex;
 8002538:	68fb      	ldr	r3, [r7, #12]
 800253a:	6ddb      	ldr	r3, [r3, #92]	; 0x5c
 800253c:	223f      	movs	r2, #63	; 0x3f
 800253e:	409a      	lsls	r2, r3
 8002540:	693b      	ldr	r3, [r7, #16]
 8002542:	609a      	str	r2, [r3, #8]
    
    /* Enable Common interrupts*/
    hdma->Instance->CR  |= DMA_IT_TC | DMA_IT_TE | DMA_IT_DME;
 8002544:	68fb      	ldr	r3, [r7, #12]
 8002546:	681b      	ldr	r3, [r3, #0]
 8002548:	681a      	ldr	r2, [r3, #0]
 800254a:	68fb      	ldr	r3, [r7, #12]
 800254c:	681b      	ldr	r3, [r3, #0]
 800254e:	f042 0216 	orr.w	r2, r2, #22
 8002552:	601a      	str	r2, [r3, #0]
    
    if(hdma->XferHalfCpltCallback != NULL)
 8002554:	68fb      	ldr	r3, [r7, #12]
 8002556:	6c1b      	ldr	r3, [r3, #64]	; 0x40
 8002558:	2b00      	cmp	r3, #0
 800255a:	d007      	beq.n	800256c <HAL_DMA_Start_IT+0x88>
    {
      hdma->Instance->CR  |= DMA_IT_HT;
 800255c:	68fb      	ldr	r3, [r7, #12]
 800255e:	681b      	ldr	r3, [r3, #0]
 8002560:	681a      	ldr	r2, [r3, #0]
 8002562:	68fb      	ldr	r3, [r7, #12]
 8002564:	681b      	ldr	r3, [r3, #0]
 8002566:	f042 0208 	orr.w	r2, r2, #8
 800256a:	601a      	str	r2, [r3, #0]
    }
    
    /* Enable the Peripheral */
    __HAL_DMA_ENABLE(hdma);
 800256c:	68fb      	ldr	r3, [r7, #12]
 800256e:	681b      	ldr	r3, [r3, #0]
 8002570:	681a      	ldr	r2, [r3, #0]
 8002572:	68fb      	ldr	r3, [r7, #12]
 8002574:	681b      	ldr	r3, [r3, #0]
 8002576:	f042 0201 	orr.w	r2, r2, #1
 800257a:	601a      	str	r2, [r3, #0]
 800257c:	e005      	b.n	800258a <HAL_DMA_Start_IT+0xa6>
  }
  else
  {
    /* Process unlocked */
    __HAL_UNLOCK(hdma);	  
 800257e:	68fb      	ldr	r3, [r7, #12]
 8002580:	2200      	movs	r2, #0
 8002582:	f883 2034 	strb.w	r2, [r3, #52]	; 0x34
    
    /* Return error status */
    status = HAL_BUSY;
 8002586:	2302      	movs	r3, #2
 8002588:	75fb      	strb	r3, [r7, #23]
  }
  
  return status;
 800258a:	7dfb      	ldrb	r3, [r7, #23]
}
 800258c:	4618      	mov	r0, r3
 800258e:	3718      	adds	r7, #24
 8002590:	46bd      	mov	sp, r7
 8002592:	bd80      	pop	{r7, pc}

08002594 <HAL_DMA_IRQHandler>:
  * @param  hdma pointer to a DMA_HandleTypeDef structure that contains
  *               the configuration information for the specified DMA Stream.  
  * @retval None
  */
void HAL_DMA_IRQHandler(DMA_HandleTypeDef *hdma)
{
 8002594:	b580      	push	{r7, lr}
 8002596:	b086      	sub	sp, #24
 8002598:	af00      	add	r7, sp, #0
 800259a:	6078      	str	r0, [r7, #4]
  uint32_t tmpisr;
  __IO uint32_t count = 0U;
 800259c:	2300      	movs	r3, #0
 800259e:	60bb      	str	r3, [r7, #8]
  uint32_t timeout = SystemCoreClock / 9600U;
 80025a0:	4b92      	ldr	r3, [pc, #584]	; (80027ec <HAL_DMA_IRQHandler+0x258>)
 80025a2:	681b      	ldr	r3, [r3, #0]
 80025a4:	4a92      	ldr	r2, [pc, #584]	; (80027f0 <HAL_DMA_IRQHandler+0x25c>)
 80025a6:	fba2 2303 	umull	r2, r3, r2, r3
 80025aa:	0a9b      	lsrs	r3, r3, #10
 80025ac:	617b      	str	r3, [r7, #20]

  /* calculate DMA base and stream number */
  DMA_Base_Registers *regs = (DMA_Base_Registers *)hdma->StreamBaseAddress;
 80025ae:	687b      	ldr	r3, [r7, #4]
 80025b0:	6d9b      	ldr	r3, [r3, #88]	; 0x58
 80025b2:	613b      	str	r3, [r7, #16]

  tmpisr = regs->ISR;
 80025b4:	693b      	ldr	r3, [r7, #16]
 80025b6:	681b      	ldr	r3, [r3, #0]
 80025b8:	60fb      	str	r3, [r7, #12]

  /* Transfer Error Interrupt management ***************************************/
  if ((tmpisr & (DMA_FLAG_TEIF0_4 << hdma->StreamIndex)) != RESET)
 80025ba:	687b      	ldr	r3, [r7, #4]
 80025bc:	6ddb      	ldr	r3, [r3, #92]	; 0x5c
 80025be:	2208      	movs	r2, #8
 80025c0:	409a      	lsls	r2, r3
 80025c2:	68fb      	ldr	r3, [r7, #12]
 80025c4:	4013      	ands	r3, r2
 80025c6:	2b00      	cmp	r3, #0
 80025c8:	d01a      	beq.n	8002600 <HAL_DMA_IRQHandler+0x6c>
  {
    if(__HAL_DMA_GET_IT_SOURCE(hdma, DMA_IT_TE) != RESET)
 80025ca:	687b      	ldr	r3, [r7, #4]
 80025cc:	681b      	ldr	r3, [r3, #0]
 80025ce:	681b      	ldr	r3, [r3, #0]
 80025d0:	f003 0304 	and.w	r3, r3, #4
 80025d4:	2b00      	cmp	r3, #0
 80025d6:	d013      	beq.n	8002600 <HAL_DMA_IRQHandler+0x6c>
    {
      /* Disable the transfer error interrupt */
      hdma->Instance->CR  &= ~(DMA_IT_TE);
 80025d8:	687b      	ldr	r3, [r7, #4]
 80025da:	681b      	ldr	r3, [r3, #0]
 80025dc:	681a      	ldr	r2, [r3, #0]
 80025de:	687b      	ldr	r3, [r7, #4]
 80025e0:	681b      	ldr	r3, [r3, #0]
 80025e2:	f022 0204 	bic.w	r2, r2, #4
 80025e6:	601a      	str	r2, [r3, #0]
      
      /* Clear the transfer error flag */
      regs->IFCR = DMA_FLAG_TEIF0_4 << hdma->StreamIndex;
 80025e8:	687b      	ldr	r3, [r7, #4]
 80025ea:	6ddb      	ldr	r3, [r3, #92]	; 0x5c
 80025ec:	2208      	movs	r2, #8
 80025ee:	409a      	lsls	r2, r3
 80025f0:	693b      	ldr	r3, [r7, #16]
 80025f2:	609a      	str	r2, [r3, #8]
      
      /* Update error code */
      hdma->ErrorCode |= HAL_DMA_ERROR_TE;
 80025f4:	687b      	ldr	r3, [r7, #4]
 80025f6:	6d5b      	ldr	r3, [r3, #84]	; 0x54
 80025f8:	f043 0201 	orr.w	r2, r3, #1
 80025fc:	687b      	ldr	r3, [r7, #4]
 80025fe:	655a      	str	r2, [r3, #84]	; 0x54
    }
  }
  /* FIFO Error Interrupt management ******************************************/
  if ((tmpisr & (DMA_FLAG_FEIF0_4 << hdma->StreamIndex)) != RESET)
 8002600:	687b      	ldr	r3, [r7, #4]
 8002602:	6ddb      	ldr	r3, [r3, #92]	; 0x5c
 8002604:	2201      	movs	r2, #1
 8002606:	409a      	lsls	r2, r3
 8002608:	68fb      	ldr	r3, [r7, #12]
 800260a:	4013      	ands	r3, r2
 800260c:	2b00      	cmp	r3, #0
 800260e:	d012      	beq.n	8002636 <HAL_DMA_IRQHandler+0xa2>
  {
    if(__HAL_DMA_GET_IT_SOURCE(hdma, DMA_IT_FE) != RESET)
 8002610:	687b      	ldr	r3, [r7, #4]
 8002612:	681b      	ldr	r3, [r3, #0]
 8002614:	695b      	ldr	r3, [r3, #20]
 8002616:	f003 0380 	and.w	r3, r3, #128	; 0x80
 800261a:	2b00      	cmp	r3, #0
 800261c:	d00b      	beq.n	8002636 <HAL_DMA_IRQHandler+0xa2>
    {
      /* Clear the FIFO error flag */
      regs->IFCR = DMA_FLAG_FEIF0_4 << hdma->StreamIndex;
 800261e:	687b      	ldr	r3, [r7, #4]
 8002620:	6ddb      	ldr	r3, [r3, #92]	; 0x5c
 8002622:	2201      	movs	r2, #1
 8002624:	409a      	lsls	r2, r3
 8002626:	693b      	ldr	r3, [r7, #16]
 8002628:	609a      	str	r2, [r3, #8]

      /* Update error code */
      hdma->ErrorCode |= HAL_DMA_ERROR_FE;
 800262a:	687b      	ldr	r3, [r7, #4]
 800262c:	6d5b      	ldr	r3, [r3, #84]	; 0x54
 800262e:	f043 0202 	orr.w	r2, r3, #2
 8002632:	687b      	ldr	r3, [r7, #4]
 8002634:	655a      	str	r2, [r3, #84]	; 0x54
    }
  }
  /* Direct Mode Error Interrupt management ***********************************/
  if ((tmpisr & (DMA_FLAG_DMEIF0_4 << hdma->StreamIndex)) != RESET)
 8002636:	687b      	ldr	r3, [r7, #4]
 8002638:	6ddb      	ldr	r3, [r3, #92]	; 0x5c
 800263a:	2204      	movs	r2, #4
 800263c:	409a      	lsls	r2, r3
 800263e:	68fb      	ldr	r3, [r7, #12]
 8002640:	4013      	ands	r3, r2
 8002642:	2b00      	cmp	r3, #0
 8002644:	d012      	beq.n	800266c <HAL_DMA_IRQHandler+0xd8>
  {
    if(__HAL_DMA_GET_IT_SOURCE(hdma, DMA_IT_DME) != RESET)
 8002646:	687b      	ldr	r3, [r7, #4]
 8002648:	681b      	ldr	r3, [r3, #0]
 800264a:	681b      	ldr	r3, [r3, #0]
 800264c:	f003 0302 	and.w	r3, r3, #2
 8002650:	2b00      	cmp	r3, #0
 8002652:	d00b      	beq.n	800266c <HAL_DMA_IRQHandler+0xd8>
    {
      /* Clear the direct mode error flag */
      regs->IFCR = DMA_FLAG_DMEIF0_4 << hdma->StreamIndex;
 8002654:	687b      	ldr	r3, [r7, #4]
 8002656:	6ddb      	ldr	r3, [r3, #92]	; 0x5c
 8002658:	2204      	movs	r2, #4
 800265a:	409a      	lsls	r2, r3
 800265c:	693b      	ldr	r3, [r7, #16]
 800265e:	609a      	str	r2, [r3, #8]

      /* Update error code */
      hdma->ErrorCode |= HAL_DMA_ERROR_DME;
 8002660:	687b      	ldr	r3, [r7, #4]
 8002662:	6d5b      	ldr	r3, [r3, #84]	; 0x54
 8002664:	f043 0204 	orr.w	r2, r3, #4
 8002668:	687b      	ldr	r3, [r7, #4]
 800266a:	655a      	str	r2, [r3, #84]	; 0x54
    }
  }
  /* Half Transfer Complete Interrupt management ******************************/
  if ((tmpisr & (DMA_FLAG_HTIF0_4 << hdma->StreamIndex)) != RESET)
 800266c:	687b      	ldr	r3, [r7, #4]
 800266e:	6ddb      	ldr	r3, [r3, #92]	; 0x5c
 8002670:	2210      	movs	r2, #16
 8002672:	409a      	lsls	r2, r3
 8002674:	68fb      	ldr	r3, [r7, #12]
 8002676:	4013      	ands	r3, r2
 8002678:	2b00      	cmp	r3, #0
 800267a:	d043      	beq.n	8002704 <HAL_DMA_IRQHandler+0x170>
  {
    if(__HAL_DMA_GET_IT_SOURCE(hdma, DMA_IT_HT) != RESET)
 800267c:	687b      	ldr	r3, [r7, #4]
 800267e:	681b      	ldr	r3, [r3, #0]
 8002680:	681b      	ldr	r3, [r3, #0]
 8002682:	f003 0308 	and.w	r3, r3, #8
 8002686:	2b00      	cmp	r3, #0
 8002688:	d03c      	beq.n	8002704 <HAL_DMA_IRQHandler+0x170>
    {
      /* Clear the half transfer complete flag */
      regs->IFCR = DMA_FLAG_HTIF0_4 << hdma->StreamIndex;
 800268a:	687b      	ldr	r3, [r7, #4]
 800268c:	6ddb      	ldr	r3, [r3, #92]	; 0x5c
 800268e:	2210      	movs	r2, #16
 8002690:	409a      	lsls	r2, r3
 8002692:	693b      	ldr	r3, [r7, #16]
 8002694:	609a      	str	r2, [r3, #8]
      
      /* Multi_Buffering mode enabled */
      if(((hdma->Instance->CR) & (uint32_t)(DMA_SxCR_DBM)) != RESET)
 8002696:	687b      	ldr	r3, [r7, #4]
 8002698:	681b      	ldr	r3, [r3, #0]
 800269a:	681b      	ldr	r3, [r3, #0]
 800269c:	f403 2380 	and.w	r3, r3, #262144	; 0x40000
 80026a0:	2b00      	cmp	r3, #0
 80026a2:	d018      	beq.n	80026d6 <HAL_DMA_IRQHandler+0x142>
      {
        /* Current memory buffer used is Memory 0 */
        if((hdma->Instance->CR & DMA_SxCR_CT) == RESET)
 80026a4:	687b      	ldr	r3, [r7, #4]
 80026a6:	681b      	ldr	r3, [r3, #0]
 80026a8:	681b      	ldr	r3, [r3, #0]
 80026aa:	f403 2300 	and.w	r3, r3, #524288	; 0x80000
 80026ae:	2b00      	cmp	r3, #0
 80026b0:	d108      	bne.n	80026c4 <HAL_DMA_IRQHandler+0x130>
        {
          if(hdma->XferHalfCpltCallback != NULL)
 80026b2:	687b      	ldr	r3, [r7, #4]
 80026b4:	6c1b      	ldr	r3, [r3, #64]	; 0x40
 80026b6:	2b00      	cmp	r3, #0
 80026b8:	d024      	beq.n	8002704 <HAL_DMA_IRQHandler+0x170>
          {
            /* Half transfer callback */
            hdma->XferHalfCpltCallback(hdma);
 80026ba:	687b      	ldr	r3, [r7, #4]
 80026bc:	6c1b      	ldr	r3, [r3, #64]	; 0x40
 80026be:	6878      	ldr	r0, [r7, #4]
 80026c0:	4798      	blx	r3
 80026c2:	e01f      	b.n	8002704 <HAL_DMA_IRQHandler+0x170>
          }
        }
        /* Current memory buffer used is Memory 1 */
        else
        {
          if(hdma->XferM1HalfCpltCallback != NULL)
 80026c4:	687b      	ldr	r3, [r7, #4]
 80026c6:	6c9b      	ldr	r3, [r3, #72]	; 0x48
 80026c8:	2b00      	cmp	r3, #0
 80026ca:	d01b      	beq.n	8002704 <HAL_DMA_IRQHandler+0x170>
          {
            /* Half transfer callback */
            hdma->XferM1HalfCpltCallback(hdma);
 80026cc:	687b      	ldr	r3, [r7, #4]
 80026ce:	6c9b      	ldr	r3, [r3, #72]	; 0x48
 80026d0:	6878      	ldr	r0, [r7, #4]
 80026d2:	4798      	blx	r3
 80026d4:	e016      	b.n	8002704 <HAL_DMA_IRQHandler+0x170>
        }
      }
      else
      {
        /* Disable the half transfer interrupt if the DMA mode is not CIRCULAR */
        if((hdma->Instance->CR & DMA_SxCR_CIRC) == RESET)
 80026d6:	687b      	ldr	r3, [r7, #4]
 80026d8:	681b      	ldr	r3, [r3, #0]
 80026da:	681b      	ldr	r3, [r3, #0]
 80026dc:	f403 7380 	and.w	r3, r3, #256	; 0x100
 80026e0:	2b00      	cmp	r3, #0
 80026e2:	d107      	bne.n	80026f4 <HAL_DMA_IRQHandler+0x160>
        {
          /* Disable the half transfer interrupt */
          hdma->Instance->CR  &= ~(DMA_IT_HT);
 80026e4:	687b      	ldr	r3, [r7, #4]
 80026e6:	681b      	ldr	r3, [r3, #0]
 80026e8:	681a      	ldr	r2, [r3, #0]
 80026ea:	687b      	ldr	r3, [r7, #4]
 80026ec:	681b      	ldr	r3, [r3, #0]
 80026ee:	f022 0208 	bic.w	r2, r2, #8
 80026f2:	601a      	str	r2, [r3, #0]
        }
        
        if(hdma->XferHalfCpltCallback != NULL)
 80026f4:	687b      	ldr	r3, [r7, #4]
 80026f6:	6c1b      	ldr	r3, [r3, #64]	; 0x40
 80026f8:	2b00      	cmp	r3, #0
 80026fa:	d003      	beq.n	8002704 <HAL_DMA_IRQHandler+0x170>
        {
          /* Half transfer callback */
          hdma->XferHalfCpltCallback(hdma);
 80026fc:	687b      	ldr	r3, [r7, #4]
 80026fe:	6c1b      	ldr	r3, [r3, #64]	; 0x40
 8002700:	6878      	ldr	r0, [r7, #4]
 8002702:	4798      	blx	r3
        }
      }
    }
  }
  /* Transfer Complete Interrupt management ***********************************/
  if ((tmpisr & (DMA_FLAG_TCIF0_4 << hdma->StreamIndex)) != RESET)
 8002704:	687b      	ldr	r3, [r7, #4]
 8002706:	6ddb      	ldr	r3, [r3, #92]	; 0x5c
 8002708:	2220      	movs	r2, #32
 800270a:	409a      	lsls	r2, r3
 800270c:	68fb      	ldr	r3, [r7, #12]
 800270e:	4013      	ands	r3, r2
 8002710:	2b00      	cmp	r3, #0
 8002712:	f000 808e 	beq.w	8002832 <HAL_DMA_IRQHandler+0x29e>
  {
    if(__HAL_DMA_GET_IT_SOURCE(hdma, DMA_IT_TC) != RESET)
 8002716:	687b      	ldr	r3, [r7, #4]
 8002718:	681b      	ldr	r3, [r3, #0]
 800271a:	681b      	ldr	r3, [r3, #0]
 800271c:	f003 0310 	and.w	r3, r3, #16
 8002720:	2b00      	cmp	r3, #0
 8002722:	f000 8086 	beq.w	8002832 <HAL_DMA_IRQHandler+0x29e>
    {
      /* Clear the transfer complete flag */
      regs->IFCR = DMA_FLAG_TCIF0_4 << hdma->StreamIndex;
 8002726:	687b      	ldr	r3, [r7, #4]
 8002728:	6ddb      	ldr	r3, [r3, #92]	; 0x5c
 800272a:	2220      	movs	r2, #32
 800272c:	409a      	lsls	r2, r3
 800272e:	693b      	ldr	r3, [r7, #16]
 8002730:	609a      	str	r2, [r3, #8]
      
      if(HAL_DMA_STATE_ABORT == hdma->State)
 8002732:	687b      	ldr	r3, [r7, #4]
 8002734:	f893 3035 	ldrb.w	r3, [r3, #53]	; 0x35
 8002738:	b2db      	uxtb	r3, r3
 800273a:	2b05      	cmp	r3, #5
 800273c:	d136      	bne.n	80027ac <HAL_DMA_IRQHandler+0x218>
      {
        /* Disable all the transfer interrupts */
        hdma->Instance->CR  &= ~(DMA_IT_TC | DMA_IT_TE | DMA_IT_DME);
 800273e:	687b      	ldr	r3, [r7, #4]
 8002740:	681b      	ldr	r3, [r3, #0]
 8002742:	681a      	ldr	r2, [r3, #0]
 8002744:	687b      	ldr	r3, [r7, #4]
 8002746:	681b      	ldr	r3, [r3, #0]
 8002748:	f022 0216 	bic.w	r2, r2, #22
 800274c:	601a      	str	r2, [r3, #0]
        hdma->Instance->FCR &= ~(DMA_IT_FE);
 800274e:	687b      	ldr	r3, [r7, #4]
 8002750:	681b      	ldr	r3, [r3, #0]
 8002752:	695a      	ldr	r2, [r3, #20]
 8002754:	687b      	ldr	r3, [r7, #4]
 8002756:	681b      	ldr	r3, [r3, #0]
 8002758:	f022 0280 	bic.w	r2, r2, #128	; 0x80
 800275c:	615a      	str	r2, [r3, #20]
        
        if((hdma->XferHalfCpltCallback != NULL) || (hdma->XferM1HalfCpltCallback != NULL))
 800275e:	687b      	ldr	r3, [r7, #4]
 8002760:	6c1b      	ldr	r3, [r3, #64]	; 0x40
 8002762:	2b00      	cmp	r3, #0
 8002764:	d103      	bne.n	800276e <HAL_DMA_IRQHandler+0x1da>
 8002766:	687b      	ldr	r3, [r7, #4]
 8002768:	6c9b      	ldr	r3, [r3, #72]	; 0x48
 800276a:	2b00      	cmp	r3, #0
 800276c:	d007      	beq.n	800277e <HAL_DMA_IRQHandler+0x1ea>
        {
          hdma->Instance->CR  &= ~(DMA_IT_HT);
 800276e:	687b      	ldr	r3, [r7, #4]
 8002770:	681b      	ldr	r3, [r3, #0]
 8002772:	681a      	ldr	r2, [r3, #0]
 8002774:	687b      	ldr	r3, [r7, #4]
 8002776:	681b      	ldr	r3, [r3, #0]
 8002778:	f022 0208 	bic.w	r2, r2, #8
 800277c:	601a      	str	r2, [r3, #0]
        }

        /* Clear all interrupt flags at correct offset within the register */
        regs->IFCR = 0x3FU << hdma->StreamIndex;
 800277e:	687b      	ldr	r3, [r7, #4]
 8002780:	6ddb      	ldr	r3, [r3, #92]	; 0x5c
 8002782:	223f      	movs	r2, #63	; 0x3f
 8002784:	409a      	lsls	r2, r3
 8002786:	693b      	ldr	r3, [r7, #16]
 8002788:	609a      	str	r2, [r3, #8]

        /* Process Unlocked */
        __HAL_UNLOCK(hdma);
 800278a:	687b      	ldr	r3, [r7, #4]
 800278c:	2200      	movs	r2, #0
 800278e:	f883 2034 	strb.w	r2, [r3, #52]	; 0x34

        /* Change the DMA state */
        hdma->State = HAL_DMA_STATE_READY;
 8002792:	687b      	ldr	r3, [r7, #4]
 8002794:	2201      	movs	r2, #1
 8002796:	f883 2035 	strb.w	r2, [r3, #53]	; 0x35

        if(hdma->XferAbortCallback != NULL)
 800279a:	687b      	ldr	r3, [r7, #4]
 800279c:	6d1b      	ldr	r3, [r3, #80]	; 0x50
 800279e:	2b00      	cmp	r3, #0
 80027a0:	d07d      	beq.n	800289e <HAL_DMA_IRQHandler+0x30a>
        {
          hdma->XferAbortCallback(hdma);
 80027a2:	687b      	ldr	r3, [r7, #4]
 80027a4:	6d1b      	ldr	r3, [r3, #80]	; 0x50
 80027a6:	6878      	ldr	r0, [r7, #4]
 80027a8:	4798      	blx	r3
        }
        return;
 80027aa:	e078      	b.n	800289e <HAL_DMA_IRQHandler+0x30a>
      }

      if(((hdma->Instance->CR) & (uint32_t)(DMA_SxCR_DBM)) != RESET)
 80027ac:	687b      	ldr	r3, [r7, #4]
 80027ae:	681b      	ldr	r3, [r3, #0]
 80027b0:	681b      	ldr	r3, [r3, #0]
 80027b2:	f403 2380 	and.w	r3, r3, #262144	; 0x40000
 80027b6:	2b00      	cmp	r3, #0
 80027b8:	d01c      	beq.n	80027f4 <HAL_DMA_IRQHandler+0x260>
      {
        /* Current memory buffer used is Memory 0 */
        if((hdma->Instance->CR & DMA_SxCR_CT) == RESET)
 80027ba:	687b      	ldr	r3, [r7, #4]
 80027bc:	681b      	ldr	r3, [r3, #0]
 80027be:	681b      	ldr	r3, [r3, #0]
 80027c0:	f403 2300 	and.w	r3, r3, #524288	; 0x80000
 80027c4:	2b00      	cmp	r3, #0
 80027c6:	d108      	bne.n	80027da <HAL_DMA_IRQHandler+0x246>
        {
          if(hdma->XferM1CpltCallback != NULL)
 80027c8:	687b      	ldr	r3, [r7, #4]
 80027ca:	6c5b      	ldr	r3, [r3, #68]	; 0x44
 80027cc:	2b00      	cmp	r3, #0
 80027ce:	d030      	beq.n	8002832 <HAL_DMA_IRQHandler+0x29e>
          {
            /* Transfer complete Callback for memory1 */
            hdma->XferM1CpltCallback(hdma);
 80027d0:	687b      	ldr	r3, [r7, #4]
 80027d2:	6c5b      	ldr	r3, [r3, #68]	; 0x44
 80027d4:	6878      	ldr	r0, [r7, #4]
 80027d6:	4798      	blx	r3
 80027d8:	e02b      	b.n	8002832 <HAL_DMA_IRQHandler+0x29e>
          }
        }
        /* Current memory buffer used is Memory 1 */
        else
        {
          if(hdma->XferCpltCallback != NULL)
 80027da:	687b      	ldr	r3, [r7, #4]
 80027dc:	6bdb      	ldr	r3, [r3, #60]	; 0x3c
 80027de:	2b00      	cmp	r3, #0
 80027e0:	d027      	beq.n	8002832 <HAL_DMA_IRQHandler+0x29e>
          {
            /* Transfer complete Callback for memory0 */
            hdma->XferCpltCallback(hdma);
 80027e2:	687b      	ldr	r3, [r7, #4]
 80027e4:	6bdb      	ldr	r3, [r3, #60]	; 0x3c
 80027e6:	6878      	ldr	r0, [r7, #4]
 80027e8:	4798      	blx	r3
 80027ea:	e022      	b.n	8002832 <HAL_DMA_IRQHandler+0x29e>
 80027ec:	20000000 	.word	0x20000000
 80027f0:	1b4e81b5 	.word	0x1b4e81b5
        }
      }
      /* Disable the transfer complete interrupt if the DMA mode is not CIRCULAR */
      else
      {
        if((hdma->Instance->CR & DMA_SxCR_CIRC) == RESET)
 80027f4:	687b      	ldr	r3, [r7, #4]
 80027f6:	681b      	ldr	r3, [r3, #0]
 80027f8:	681b      	ldr	r3, [r3, #0]
 80027fa:	f403 7380 	and.w	r3, r3, #256	; 0x100
 80027fe:	2b00      	cmp	r3, #0
 8002800:	d10f      	bne.n	8002822 <HAL_DMA_IRQHandler+0x28e>
        {
          /* Disable the transfer complete interrupt */
          hdma->Instance->CR  &= ~(DMA_IT_TC);
 8002802:	687b      	ldr	r3, [r7, #4]
 8002804:	681b      	ldr	r3, [r3, #0]
 8002806:	681a      	ldr	r2, [r3, #0]
 8002808:	687b      	ldr	r3, [r7, #4]
 800280a:	681b      	ldr	r3, [r3, #0]
 800280c:	f022 0210 	bic.w	r2, r2, #16
 8002810:	601a      	str	r2, [r3, #0]

          /* Process Unlocked */
          __HAL_UNLOCK(hdma);
 8002812:	687b      	ldr	r3, [r7, #4]
 8002814:	2200      	movs	r2, #0
 8002816:	f883 2034 	strb.w	r2, [r3, #52]	; 0x34

          /* Change the DMA state */
          hdma->State = HAL_DMA_STATE_READY;
 800281a:	687b      	ldr	r3, [r7, #4]
 800281c:	2201      	movs	r2, #1
 800281e:	f883 2035 	strb.w	r2, [r3, #53]	; 0x35
        }

        if(hdma->XferCpltCallback != NULL)
 8002822:	687b      	ldr	r3, [r7, #4]
 8002824:	6bdb      	ldr	r3, [r3, #60]	; 0x3c
 8002826:	2b00      	cmp	r3, #0
 8002828:	d003      	beq.n	8002832 <HAL_DMA_IRQHandler+0x29e>
        {
          /* Transfer complete callback */
          hdma->XferCpltCallback(hdma);
 800282a:	687b      	ldr	r3, [r7, #4]
 800282c:	6bdb      	ldr	r3, [r3, #60]	; 0x3c
 800282e:	6878      	ldr	r0, [r7, #4]
 8002830:	4798      	blx	r3
      }
    }
  }
  
  /* manage error case */
  if(hdma->ErrorCode != HAL_DMA_ERROR_NONE)
 8002832:	687b      	ldr	r3, [r7, #4]
 8002834:	6d5b      	ldr	r3, [r3, #84]	; 0x54
 8002836:	2b00      	cmp	r3, #0
 8002838:	d032      	beq.n	80028a0 <HAL_DMA_IRQHandler+0x30c>
  {
    if((hdma->ErrorCode & HAL_DMA_ERROR_TE) != RESET)
 800283a:	687b      	ldr	r3, [r7, #4]
 800283c:	6d5b      	ldr	r3, [r3, #84]	; 0x54
 800283e:	f003 0301 	and.w	r3, r3, #1
 8002842:	2b00      	cmp	r3, #0
 8002844:	d022      	beq.n	800288c <HAL_DMA_IRQHandler+0x2f8>
    {
      hdma->State = HAL_DMA_STATE_ABORT;
 8002846:	687b      	ldr	r3, [r7, #4]
 8002848:	2205      	movs	r2, #5
 800284a:	f883 2035 	strb.w	r2, [r3, #53]	; 0x35

      /* Disable the stream */
      __HAL_DMA_DISABLE(hdma);
 800284e:	687b      	ldr	r3, [r7, #4]
 8002850:	681b      	ldr	r3, [r3, #0]
 8002852:	681a      	ldr	r2, [r3, #0]
 8002854:	687b      	ldr	r3, [r7, #4]
 8002856:	681b      	ldr	r3, [r3, #0]
 8002858:	f022 0201 	bic.w	r2, r2, #1
 800285c:	601a      	str	r2, [r3, #0]

      do
      {
        if (++count > timeout)
 800285e:	68bb      	ldr	r3, [r7, #8]
 8002860:	3301      	adds	r3, #1
 8002862:	60bb      	str	r3, [r7, #8]
 8002864:	697a      	ldr	r2, [r7, #20]
 8002866:	429a      	cmp	r2, r3
 8002868:	d307      	bcc.n	800287a <HAL_DMA_IRQHandler+0x2e6>
        {
          break;
        }
      }
      while((hdma->Instance->CR & DMA_SxCR_EN) != RESET);
 800286a:	687b      	ldr	r3, [r7, #4]
 800286c:	681b      	ldr	r3, [r3, #0]
 800286e:	681b      	ldr	r3, [r3, #0]
 8002870:	f003 0301 	and.w	r3, r3, #1
 8002874:	2b00      	cmp	r3, #0
 8002876:	d1f2      	bne.n	800285e <HAL_DMA_IRQHandler+0x2ca>
 8002878:	e000      	b.n	800287c <HAL_DMA_IRQHandler+0x2e8>
          break;
 800287a:	bf00      	nop

      /* Process Unlocked */
      __HAL_UNLOCK(hdma);
 800287c:	687b      	ldr	r3, [r7, #4]
 800287e:	2200      	movs	r2, #0
 8002880:	f883 2034 	strb.w	r2, [r3, #52]	; 0x34

      /* Change the DMA state */
      hdma->State = HAL_DMA_STATE_READY;
 8002884:	687b      	ldr	r3, [r7, #4]
 8002886:	2201      	movs	r2, #1
 8002888:	f883 2035 	strb.w	r2, [r3, #53]	; 0x35
    }

    if(hdma->XferErrorCallback != NULL)
 800288c:	687b      	ldr	r3, [r7, #4]
 800288e:	6cdb      	ldr	r3, [r3, #76]	; 0x4c
 8002890:	2b00      	cmp	r3, #0
 8002892:	d005      	beq.n	80028a0 <HAL_DMA_IRQHandler+0x30c>
    {
      /* Transfer error callback */
      hdma->XferErrorCallback(hdma);
 8002894:	687b      	ldr	r3, [r7, #4]
 8002896:	6cdb      	ldr	r3, [r3, #76]	; 0x4c
 8002898:	6878      	ldr	r0, [r7, #4]
 800289a:	4798      	blx	r3
 800289c:	e000      	b.n	80028a0 <HAL_DMA_IRQHandler+0x30c>
        return;
 800289e:	bf00      	nop
    }
  }
}
 80028a0:	3718      	adds	r7, #24
 80028a2:	46bd      	mov	sp, r7
 80028a4:	bd80      	pop	{r7, pc}
 80028a6:	bf00      	nop

080028a8 <DMA_SetConfig>:
  * @param  DstAddress The destination memory Buffer address
  * @param  DataLength The length of data to be transferred from source to destination
  * @retval HAL status
  */
static void DMA_SetConfig(DMA_HandleTypeDef *hdma, uint32_t SrcAddress, uint32_t DstAddress, uint32_t DataLength)
{
 80028a8:	b480      	push	{r7}
 80028aa:	b085      	sub	sp, #20
 80028ac:	af00      	add	r7, sp, #0
 80028ae:	60f8      	str	r0, [r7, #12]
 80028b0:	60b9      	str	r1, [r7, #8]
 80028b2:	607a      	str	r2, [r7, #4]
 80028b4:	603b      	str	r3, [r7, #0]
  /* Clear DBM bit */
  hdma->Instance->CR &= (uint32_t)(~DMA_SxCR_DBM);
 80028b6:	68fb      	ldr	r3, [r7, #12]
 80028b8:	681b      	ldr	r3, [r3, #0]
 80028ba:	681a      	ldr	r2, [r3, #0]
 80028bc:	68fb      	ldr	r3, [r7, #12]
 80028be:	681b      	ldr	r3, [r3, #0]
 80028c0:	f422 2280 	bic.w	r2, r2, #262144	; 0x40000
 80028c4:	601a      	str	r2, [r3, #0]

  /* Configure DMA Stream data length */
  hdma->Instance->NDTR = DataLength;
 80028c6:	68fb      	ldr	r3, [r7, #12]
 80028c8:	681b      	ldr	r3, [r3, #0]
 80028ca:	683a      	ldr	r2, [r7, #0]
 80028cc:	605a      	str	r2, [r3, #4]

  /* Memory to Peripheral */
  if((hdma->Init.Direction) == DMA_MEMORY_TO_PERIPH)
 80028ce:	68fb      	ldr	r3, [r7, #12]
 80028d0:	689b      	ldr	r3, [r3, #8]
 80028d2:	2b40      	cmp	r3, #64	; 0x40
 80028d4:	d108      	bne.n	80028e8 <DMA_SetConfig+0x40>
  {
    /* Configure DMA Stream destination address */
    hdma->Instance->PAR = DstAddress;
 80028d6:	68fb      	ldr	r3, [r7, #12]
 80028d8:	681b      	ldr	r3, [r3, #0]
 80028da:	687a      	ldr	r2, [r7, #4]
 80028dc:	609a      	str	r2, [r3, #8]

    /* Configure DMA Stream source address */
    hdma->Instance->M0AR = SrcAddress;
 80028de:	68fb      	ldr	r3, [r7, #12]
 80028e0:	681b      	ldr	r3, [r3, #0]
 80028e2:	68ba      	ldr	r2, [r7, #8]
 80028e4:	60da      	str	r2, [r3, #12]
    hdma->Instance->PAR = SrcAddress;

    /* Configure DMA Stream destination address */
    hdma->Instance->M0AR = DstAddress;
  }
}
 80028e6:	e007      	b.n	80028f8 <DMA_SetConfig+0x50>
    hdma->Instance->PAR = SrcAddress;
 80028e8:	68fb      	ldr	r3, [r7, #12]
 80028ea:	681b      	ldr	r3, [r3, #0]
 80028ec:	68ba      	ldr	r2, [r7, #8]
 80028ee:	609a      	str	r2, [r3, #8]
    hdma->Instance->M0AR = DstAddress;
 80028f0:	68fb      	ldr	r3, [r7, #12]
 80028f2:	681b      	ldr	r3, [r3, #0]
 80028f4:	687a      	ldr	r2, [r7, #4]
 80028f6:	60da      	str	r2, [r3, #12]
}
 80028f8:	bf00      	nop
 80028fa:	3714      	adds	r7, #20
 80028fc:	46bd      	mov	sp, r7
 80028fe:	f85d 7b04 	ldr.w	r7, [sp], #4
 8002902:	4770      	bx	lr

08002904 <DMA_CalcBaseAndBitshift>:
  * @param  hdma       pointer to a DMA_HandleTypeDef structure that contains
  *                     the configuration information for the specified DMA Stream. 
  * @retval Stream base address
  */
static uint32_t DMA_CalcBaseAndBitshift(DMA_HandleTypeDef *hdma)
{
 8002904:	b480      	push	{r7}
 8002906:	b085      	sub	sp, #20
 8002908:	af00      	add	r7, sp, #0
 800290a:	6078      	str	r0, [r7, #4]
  uint32_t stream_number = (((uint32_t)hdma->Instance & 0xFFU) - 16U) / 24U;
 800290c:	687b      	ldr	r3, [r7, #4]
 800290e:	681b      	ldr	r3, [r3, #0]
 8002910:	b2db      	uxtb	r3, r3
 8002912:	3b10      	subs	r3, #16
 8002914:	4a14      	ldr	r2, [pc, #80]	; (8002968 <DMA_CalcBaseAndBitshift+0x64>)
 8002916:	fba2 2303 	umull	r2, r3, r2, r3
 800291a:	091b      	lsrs	r3, r3, #4
 800291c:	60fb      	str	r3, [r7, #12]
  
  /* lookup table for necessary bitshift of flags within status registers */
  static const uint8_t flagBitshiftOffset[8U] = {0U, 6U, 16U, 22U, 0U, 6U, 16U, 22U};
  hdma->StreamIndex = flagBitshiftOffset[stream_number];
 800291e:	4a13      	ldr	r2, [pc, #76]	; (800296c <DMA_CalcBaseAndBitshift+0x68>)
 8002920:	68fb      	ldr	r3, [r7, #12]
 8002922:	4413      	add	r3, r2
 8002924:	781b      	ldrb	r3, [r3, #0]
 8002926:	461a      	mov	r2, r3
 8002928:	687b      	ldr	r3, [r7, #4]
 800292a:	65da      	str	r2, [r3, #92]	; 0x5c
  
  if (stream_number > 3U)
 800292c:	68fb      	ldr	r3, [r7, #12]
 800292e:	2b03      	cmp	r3, #3
 8002930:	d909      	bls.n	8002946 <DMA_CalcBaseAndBitshift+0x42>
  {
    /* return pointer to HISR and HIFCR */
    hdma->StreamBaseAddress = (((uint32_t)hdma->Instance & (uint32_t)(~0x3FFU)) + 4U);
 8002932:	687b      	ldr	r3, [r7, #4]
 8002934:	681b      	ldr	r3, [r3, #0]
 8002936:	f423 737f 	bic.w	r3, r3, #1020	; 0x3fc
 800293a:	f023 0303 	bic.w	r3, r3, #3
 800293e:	1d1a      	adds	r2, r3, #4
 8002940:	687b      	ldr	r3, [r7, #4]
 8002942:	659a      	str	r2, [r3, #88]	; 0x58
 8002944:	e007      	b.n	8002956 <DMA_CalcBaseAndBitshift+0x52>
  }
  else
  {
    /* return pointer to LISR and LIFCR */
    hdma->StreamBaseAddress = ((uint32_t)hdma->Instance & (uint32_t)(~0x3FFU));
 8002946:	687b      	ldr	r3, [r7, #4]
 8002948:	681b      	ldr	r3, [r3, #0]
 800294a:	f423 737f 	bic.w	r3, r3, #1020	; 0x3fc
 800294e:	f023 0303 	bic.w	r3, r3, #3
 8002952:	687a      	ldr	r2, [r7, #4]
 8002954:	6593      	str	r3, [r2, #88]	; 0x58
  }
  
  return hdma->StreamBaseAddress;
 8002956:	687b      	ldr	r3, [r7, #4]
 8002958:	6d9b      	ldr	r3, [r3, #88]	; 0x58
}
 800295a:	4618      	mov	r0, r3
 800295c:	3714      	adds	r7, #20
 800295e:	46bd      	mov	sp, r7
 8002960:	f85d 7b04 	ldr.w	r7, [sp], #4
 8002964:	4770      	bx	lr
 8002966:	bf00      	nop
 8002968:	aaaaaaab 	.word	0xaaaaaaab
 800296c:	08006324 	.word	0x08006324

08002970 <DMA_CheckFifoParam>:
  * @param  hdma       pointer to a DMA_HandleTypeDef structure that contains
  *                     the configuration information for the specified DMA Stream. 
  * @retval HAL status
  */
static HAL_StatusTypeDef DMA_CheckFifoParam(DMA_HandleTypeDef *hdma)
{
 8002970:	b480      	push	{r7}
 8002972:	b085      	sub	sp, #20
 8002974:	af00      	add	r7, sp, #0
 8002976:	6078      	str	r0, [r7, #4]
  HAL_StatusTypeDef status = HAL_OK;
 8002978:	2300      	movs	r3, #0
 800297a:	73fb      	strb	r3, [r7, #15]
  uint32_t tmp = hdma->Init.FIFOThreshold;
 800297c:	687b      	ldr	r3, [r7, #4]
 800297e:	6a9b      	ldr	r3, [r3, #40]	; 0x28
 8002980:	60bb      	str	r3, [r7, #8]
  
  /* Memory Data size equal to Byte */
  if(hdma->Init.MemDataAlignment == DMA_MDATAALIGN_BYTE)
 8002982:	687b      	ldr	r3, [r7, #4]
 8002984:	699b      	ldr	r3, [r3, #24]
 8002986:	2b00      	cmp	r3, #0
 8002988:	d11f      	bne.n	80029ca <DMA_CheckFifoParam+0x5a>
  {
    switch (tmp)
 800298a:	68bb      	ldr	r3, [r7, #8]
 800298c:	2b03      	cmp	r3, #3
 800298e:	d855      	bhi.n	8002a3c <DMA_CheckFifoParam+0xcc>
 8002990:	a201      	add	r2, pc, #4	; (adr r2, 8002998 <DMA_CheckFifoParam+0x28>)
 8002992:	f852 f023 	ldr.w	pc, [r2, r3, lsl #2]
 8002996:	bf00      	nop
 8002998:	080029a9 	.word	0x080029a9
 800299c:	080029bb 	.word	0x080029bb
 80029a0:	080029a9 	.word	0x080029a9
 80029a4:	08002a3d 	.word	0x08002a3d
    {
    case DMA_FIFO_THRESHOLD_1QUARTERFULL:
    case DMA_FIFO_THRESHOLD_3QUARTERSFULL:
      if ((hdma->Init.MemBurst & DMA_SxCR_MBURST_1) == DMA_SxCR_MBURST_1)
 80029a8:	687b      	ldr	r3, [r7, #4]
 80029aa:	6adb      	ldr	r3, [r3, #44]	; 0x2c
 80029ac:	f003 7380 	and.w	r3, r3, #16777216	; 0x1000000
 80029b0:	2b00      	cmp	r3, #0
 80029b2:	d045      	beq.n	8002a40 <DMA_CheckFifoParam+0xd0>
      {
        status = HAL_ERROR;
 80029b4:	2301      	movs	r3, #1
 80029b6:	73fb      	strb	r3, [r7, #15]
      }
      break;
 80029b8:	e042      	b.n	8002a40 <DMA_CheckFifoParam+0xd0>
    case DMA_FIFO_THRESHOLD_HALFFULL:
      if (hdma->Init.MemBurst == DMA_MBURST_INC16)
 80029ba:	687b      	ldr	r3, [r7, #4]
 80029bc:	6adb      	ldr	r3, [r3, #44]	; 0x2c
 80029be:	f1b3 7fc0 	cmp.w	r3, #25165824	; 0x1800000
 80029c2:	d13f      	bne.n	8002a44 <DMA_CheckFifoParam+0xd4>
      {
        status = HAL_ERROR;
 80029c4:	2301      	movs	r3, #1
 80029c6:	73fb      	strb	r3, [r7, #15]
      }
      break;
 80029c8:	e03c      	b.n	8002a44 <DMA_CheckFifoParam+0xd4>
      break;
    }
  }
  
  /* Memory Data size equal to Half-Word */
  else if (hdma->Init.MemDataAlignment == DMA_MDATAALIGN_HALFWORD)
 80029ca:	687b      	ldr	r3, [r7, #4]
 80029cc:	699b      	ldr	r3, [r3, #24]
 80029ce:	f5b3 5f00 	cmp.w	r3, #8192	; 0x2000
 80029d2:	d121      	bne.n	8002a18 <DMA_CheckFifoParam+0xa8>
  {
    switch (tmp)
 80029d4:	68bb      	ldr	r3, [r7, #8]
 80029d6:	2b03      	cmp	r3, #3
 80029d8:	d836      	bhi.n	8002a48 <DMA_CheckFifoParam+0xd8>
 80029da:	a201      	add	r2, pc, #4	; (adr r2, 80029e0 <DMA_CheckFifoParam+0x70>)
 80029dc:	f852 f023 	ldr.w	pc, [r2, r3, lsl #2]
 80029e0:	080029f1 	.word	0x080029f1
 80029e4:	080029f7 	.word	0x080029f7
 80029e8:	080029f1 	.word	0x080029f1
 80029ec:	08002a09 	.word	0x08002a09
    {
    case DMA_FIFO_THRESHOLD_1QUARTERFULL:
    case DMA_FIFO_THRESHOLD_3QUARTERSFULL:
      status = HAL_ERROR;
 80029f0:	2301      	movs	r3, #1
 80029f2:	73fb      	strb	r3, [r7, #15]
      break;
 80029f4:	e02f      	b.n	8002a56 <DMA_CheckFifoParam+0xe6>
    case DMA_FIFO_THRESHOLD_HALFFULL:
      if ((hdma->Init.MemBurst & DMA_SxCR_MBURST_1) == DMA_SxCR_MBURST_1)
 80029f6:	687b      	ldr	r3, [r7, #4]
 80029f8:	6adb      	ldr	r3, [r3, #44]	; 0x2c
 80029fa:	f003 7380 	and.w	r3, r3, #16777216	; 0x1000000
 80029fe:	2b00      	cmp	r3, #0
 8002a00:	d024      	beq.n	8002a4c <DMA_CheckFifoParam+0xdc>
      {
        status = HAL_ERROR;
 8002a02:	2301      	movs	r3, #1
 8002a04:	73fb      	strb	r3, [r7, #15]
      }
      break;
 8002a06:	e021      	b.n	8002a4c <DMA_CheckFifoParam+0xdc>
    case DMA_FIFO_THRESHOLD_FULL:
      if (hdma->Init.MemBurst == DMA_MBURST_INC16)
 8002a08:	687b      	ldr	r3, [r7, #4]
 8002a0a:	6adb      	ldr	r3, [r3, #44]	; 0x2c
 8002a0c:	f1b3 7fc0 	cmp.w	r3, #25165824	; 0x1800000
 8002a10:	d11e      	bne.n	8002a50 <DMA_CheckFifoParam+0xe0>
      {
        status = HAL_ERROR;
 8002a12:	2301      	movs	r3, #1
 8002a14:	73fb      	strb	r3, [r7, #15]
      }
      break;   
 8002a16:	e01b      	b.n	8002a50 <DMA_CheckFifoParam+0xe0>
  }
  
  /* Memory Data size equal to Word */
  else
  {
    switch (tmp)
 8002a18:	68bb      	ldr	r3, [r7, #8]
 8002a1a:	2b02      	cmp	r3, #2
 8002a1c:	d902      	bls.n	8002a24 <DMA_CheckFifoParam+0xb4>
 8002a1e:	2b03      	cmp	r3, #3
 8002a20:	d003      	beq.n	8002a2a <DMA_CheckFifoParam+0xba>
      {
        status = HAL_ERROR;
      }
      break;
    default:
      break;
 8002a22:	e018      	b.n	8002a56 <DMA_CheckFifoParam+0xe6>
      status = HAL_ERROR;
 8002a24:	2301      	movs	r3, #1
 8002a26:	73fb      	strb	r3, [r7, #15]
      break;
 8002a28:	e015      	b.n	8002a56 <DMA_CheckFifoParam+0xe6>
      if ((hdma->Init.MemBurst & DMA_SxCR_MBURST_1) == DMA_SxCR_MBURST_1)
 8002a2a:	687b      	ldr	r3, [r7, #4]
 8002a2c:	6adb      	ldr	r3, [r3, #44]	; 0x2c
 8002a2e:	f003 7380 	and.w	r3, r3, #16777216	; 0x1000000
 8002a32:	2b00      	cmp	r3, #0
 8002a34:	d00e      	beq.n	8002a54 <DMA_CheckFifoParam+0xe4>
        status = HAL_ERROR;
 8002a36:	2301      	movs	r3, #1
 8002a38:	73fb      	strb	r3, [r7, #15]
      break;
 8002a3a:	e00b      	b.n	8002a54 <DMA_CheckFifoParam+0xe4>
      break;
 8002a3c:	bf00      	nop
 8002a3e:	e00a      	b.n	8002a56 <DMA_CheckFifoParam+0xe6>
      break;
 8002a40:	bf00      	nop
 8002a42:	e008      	b.n	8002a56 <DMA_CheckFifoParam+0xe6>
      break;
 8002a44:	bf00      	nop
 8002a46:	e006      	b.n	8002a56 <DMA_CheckFifoParam+0xe6>
      break;
 8002a48:	bf00      	nop
 8002a4a:	e004      	b.n	8002a56 <DMA_CheckFifoParam+0xe6>
      break;
 8002a4c:	bf00      	nop
 8002a4e:	e002      	b.n	8002a56 <DMA_CheckFifoParam+0xe6>
      break;   
 8002a50:	bf00      	nop
 8002a52:	e000      	b.n	8002a56 <DMA_CheckFifoParam+0xe6>
      break;
 8002a54:	bf00      	nop
    }
  } 
  
  return status; 
 8002a56:	7bfb      	ldrb	r3, [r7, #15]
}
 8002a58:	4618      	mov	r0, r3
 8002a5a:	3714      	adds	r7, #20
 8002a5c:	46bd      	mov	sp, r7
 8002a5e:	f85d 7b04 	ldr.w	r7, [sp], #4
 8002a62:	4770      	bx	lr

08002a64 <HAL_GPIO_Init>:
  * @param  GPIO_Init pointer to a GPIO_InitTypeDef structure that contains
  *         the configuration information for the specified GPIO peripheral.
  * @retval None
  */
void HAL_GPIO_Init(GPIO_TypeDef  *GPIOx, GPIO_InitTypeDef *GPIO_Init)
{
 8002a64:	b480      	push	{r7}
 8002a66:	b089      	sub	sp, #36	; 0x24
 8002a68:	af00      	add	r7, sp, #0
 8002a6a:	6078      	str	r0, [r7, #4]
 8002a6c:	6039      	str	r1, [r7, #0]
  uint32_t position;
  uint32_t ioposition = 0x00U;
 8002a6e:	2300      	movs	r3, #0
 8002a70:	617b      	str	r3, [r7, #20]
  uint32_t iocurrent = 0x00U;
 8002a72:	2300      	movs	r3, #0
 8002a74:	613b      	str	r3, [r7, #16]
  uint32_t temp = 0x00U;
 8002a76:	2300      	movs	r3, #0
 8002a78:	61bb      	str	r3, [r7, #24]
  assert_param(IS_GPIO_PIN(GPIO_Init->Pin));
  assert_param(IS_GPIO_MODE(GPIO_Init->Mode));
  assert_param(IS_GPIO_PULL(GPIO_Init->Pull));

  /* Configure the port pins */
  for(position = 0U; position < GPIO_NUMBER; position++)
 8002a7a:	2300      	movs	r3, #0
 8002a7c:	61fb      	str	r3, [r7, #28]
 8002a7e:	e165      	b.n	8002d4c <HAL_GPIO_Init+0x2e8>
  {
    /* Get the IO position */
    ioposition = 0x01U << position;
 8002a80:	2201      	movs	r2, #1
 8002a82:	69fb      	ldr	r3, [r7, #28]
 8002a84:	fa02 f303 	lsl.w	r3, r2, r3
 8002a88:	617b      	str	r3, [r7, #20]
    /* Get the current IO position */
    iocurrent = (uint32_t)(GPIO_Init->Pin) & ioposition;
 8002a8a:	683b      	ldr	r3, [r7, #0]
 8002a8c:	681b      	ldr	r3, [r3, #0]
 8002a8e:	697a      	ldr	r2, [r7, #20]
 8002a90:	4013      	ands	r3, r2
 8002a92:	613b      	str	r3, [r7, #16]

    if(iocurrent == ioposition)
 8002a94:	693a      	ldr	r2, [r7, #16]
 8002a96:	697b      	ldr	r3, [r7, #20]
 8002a98:	429a      	cmp	r2, r3
 8002a9a:	f040 8154 	bne.w	8002d46 <HAL_GPIO_Init+0x2e2>
    {
      /*--------------------- GPIO Mode Configuration ------------------------*/
      /* In case of Output or Alternate function mode selection */
      if((GPIO_Init->Mode == GPIO_MODE_OUTPUT_PP) || (GPIO_Init->Mode == GPIO_MODE_AF_PP) ||
 8002a9e:	683b      	ldr	r3, [r7, #0]
 8002aa0:	685b      	ldr	r3, [r3, #4]
 8002aa2:	2b01      	cmp	r3, #1
 8002aa4:	d00b      	beq.n	8002abe <HAL_GPIO_Init+0x5a>
 8002aa6:	683b      	ldr	r3, [r7, #0]
 8002aa8:	685b      	ldr	r3, [r3, #4]
 8002aaa:	2b02      	cmp	r3, #2
 8002aac:	d007      	beq.n	8002abe <HAL_GPIO_Init+0x5a>
         (GPIO_Init->Mode == GPIO_MODE_OUTPUT_OD) || (GPIO_Init->Mode == GPIO_MODE_AF_OD))
 8002aae:	683b      	ldr	r3, [r7, #0]
 8002ab0:	685b      	ldr	r3, [r3, #4]
      if((GPIO_Init->Mode == GPIO_MODE_OUTPUT_PP) || (GPIO_Init->Mode == GPIO_MODE_AF_PP) ||
 8002ab2:	2b11      	cmp	r3, #17
 8002ab4:	d003      	beq.n	8002abe <HAL_GPIO_Init+0x5a>
         (GPIO_Init->Mode == GPIO_MODE_OUTPUT_OD) || (GPIO_Init->Mode == GPIO_MODE_AF_OD))
 8002ab6:	683b      	ldr	r3, [r7, #0]
 8002ab8:	685b      	ldr	r3, [r3, #4]
 8002aba:	2b12      	cmp	r3, #18
 8002abc:	d130      	bne.n	8002b20 <HAL_GPIO_Init+0xbc>
      {
        /* Check the Speed parameter */
        assert_param(IS_GPIO_SPEED(GPIO_Init->Speed));
        /* Configure the IO Speed */
        temp = GPIOx->OSPEEDR; 
 8002abe:	687b      	ldr	r3, [r7, #4]
 8002ac0:	689b      	ldr	r3, [r3, #8]
 8002ac2:	61bb      	str	r3, [r7, #24]
        temp &= ~(GPIO_OSPEEDER_OSPEEDR0 << (position * 2U));
 8002ac4:	69fb      	ldr	r3, [r7, #28]
 8002ac6:	005b      	lsls	r3, r3, #1
 8002ac8:	2203      	movs	r2, #3
 8002aca:	fa02 f303 	lsl.w	r3, r2, r3
 8002ace:	43db      	mvns	r3, r3
 8002ad0:	69ba      	ldr	r2, [r7, #24]
 8002ad2:	4013      	ands	r3, r2
 8002ad4:	61bb      	str	r3, [r7, #24]
        temp |= (GPIO_Init->Speed << (position * 2U));
 8002ad6:	683b      	ldr	r3, [r7, #0]
 8002ad8:	68da      	ldr	r2, [r3, #12]
 8002ada:	69fb      	ldr	r3, [r7, #28]
 8002adc:	005b      	lsls	r3, r3, #1
 8002ade:	fa02 f303 	lsl.w	r3, r2, r3
 8002ae2:	69ba      	ldr	r2, [r7, #24]
 8002ae4:	4313      	orrs	r3, r2
 8002ae6:	61bb      	str	r3, [r7, #24]
        GPIOx->OSPEEDR = temp;
 8002ae8:	687b      	ldr	r3, [r7, #4]
 8002aea:	69ba      	ldr	r2, [r7, #24]
 8002aec:	609a      	str	r2, [r3, #8]

        /* Configure the IO Output Type */
        temp = GPIOx->OTYPER;
 8002aee:	687b      	ldr	r3, [r7, #4]
 8002af0:	685b      	ldr	r3, [r3, #4]
 8002af2:	61bb      	str	r3, [r7, #24]
        temp &= ~(GPIO_OTYPER_OT_0 << position) ;
 8002af4:	2201      	movs	r2, #1
 8002af6:	69fb      	ldr	r3, [r7, #28]
 8002af8:	fa02 f303 	lsl.w	r3, r2, r3
 8002afc:	43db      	mvns	r3, r3
 8002afe:	69ba      	ldr	r2, [r7, #24]
 8002b00:	4013      	ands	r3, r2
 8002b02:	61bb      	str	r3, [r7, #24]
        temp |= (((GPIO_Init->Mode & GPIO_OUTPUT_TYPE) >> 4U) << position);
 8002b04:	683b      	ldr	r3, [r7, #0]
 8002b06:	685b      	ldr	r3, [r3, #4]
 8002b08:	091b      	lsrs	r3, r3, #4
 8002b0a:	f003 0201 	and.w	r2, r3, #1
 8002b0e:	69fb      	ldr	r3, [r7, #28]
 8002b10:	fa02 f303 	lsl.w	r3, r2, r3
 8002b14:	69ba      	ldr	r2, [r7, #24]
 8002b16:	4313      	orrs	r3, r2
 8002b18:	61bb      	str	r3, [r7, #24]
        GPIOx->OTYPER = temp;
 8002b1a:	687b      	ldr	r3, [r7, #4]
 8002b1c:	69ba      	ldr	r2, [r7, #24]
 8002b1e:	605a      	str	r2, [r3, #4]
       }

      /* Activate the Pull-up or Pull down resistor for the current IO */
      temp = GPIOx->PUPDR;
 8002b20:	687b      	ldr	r3, [r7, #4]
 8002b22:	68db      	ldr	r3, [r3, #12]
 8002b24:	61bb      	str	r3, [r7, #24]
      temp &= ~(GPIO_PUPDR_PUPDR0 << (position * 2U));
 8002b26:	69fb      	ldr	r3, [r7, #28]
 8002b28:	005b      	lsls	r3, r3, #1
 8002b2a:	2203      	movs	r2, #3
 8002b2c:	fa02 f303 	lsl.w	r3, r2, r3
 8002b30:	43db      	mvns	r3, r3
 8002b32:	69ba      	ldr	r2, [r7, #24]
 8002b34:	4013      	ands	r3, r2
 8002b36:	61bb      	str	r3, [r7, #24]
      temp |= ((GPIO_Init->Pull) << (position * 2U));
 8002b38:	683b      	ldr	r3, [r7, #0]
 8002b3a:	689a      	ldr	r2, [r3, #8]
 8002b3c:	69fb      	ldr	r3, [r7, #28]
 8002b3e:	005b      	lsls	r3, r3, #1
 8002b40:	fa02 f303 	lsl.w	r3, r2, r3
 8002b44:	69ba      	ldr	r2, [r7, #24]
 8002b46:	4313      	orrs	r3, r2
 8002b48:	61bb      	str	r3, [r7, #24]
      GPIOx->PUPDR = temp;
 8002b4a:	687b      	ldr	r3, [r7, #4]
 8002b4c:	69ba      	ldr	r2, [r7, #24]
 8002b4e:	60da      	str	r2, [r3, #12]

      /* In case of Alternate function mode selection */
      if((GPIO_Init->Mode == GPIO_MODE_AF_PP) || (GPIO_Init->Mode == GPIO_MODE_AF_OD))
 8002b50:	683b      	ldr	r3, [r7, #0]
 8002b52:	685b      	ldr	r3, [r3, #4]
 8002b54:	2b02      	cmp	r3, #2
 8002b56:	d003      	beq.n	8002b60 <HAL_GPIO_Init+0xfc>
 8002b58:	683b      	ldr	r3, [r7, #0]
 8002b5a:	685b      	ldr	r3, [r3, #4]
 8002b5c:	2b12      	cmp	r3, #18
 8002b5e:	d123      	bne.n	8002ba8 <HAL_GPIO_Init+0x144>
      {
        /* Check the Alternate function parameter */
        assert_param(IS_GPIO_AF(GPIO_Init->Alternate));
        /* Configure Alternate function mapped with the current IO */
        temp = GPIOx->AFR[position >> 3U];
 8002b60:	69fb      	ldr	r3, [r7, #28]
 8002b62:	08da      	lsrs	r2, r3, #3
 8002b64:	687b      	ldr	r3, [r7, #4]
 8002b66:	3208      	adds	r2, #8
 8002b68:	f853 3022 	ldr.w	r3, [r3, r2, lsl #2]
 8002b6c:	61bb      	str	r3, [r7, #24]
        temp &= ~(0xFU << ((uint32_t)(position & 0x07U) * 4U)) ;
 8002b6e:	69fb      	ldr	r3, [r7, #28]
 8002b70:	f003 0307 	and.w	r3, r3, #7
 8002b74:	009b      	lsls	r3, r3, #2
 8002b76:	220f      	movs	r2, #15
 8002b78:	fa02 f303 	lsl.w	r3, r2, r3
 8002b7c:	43db      	mvns	r3, r3
 8002b7e:	69ba      	ldr	r2, [r7, #24]
 8002b80:	4013      	ands	r3, r2
 8002b82:	61bb      	str	r3, [r7, #24]
        temp |= ((uint32_t)(GPIO_Init->Alternate) << (((uint32_t)position & 0x07U) * 4U));
 8002b84:	683b      	ldr	r3, [r7, #0]
 8002b86:	691a      	ldr	r2, [r3, #16]
 8002b88:	69fb      	ldr	r3, [r7, #28]
 8002b8a:	f003 0307 	and.w	r3, r3, #7
 8002b8e:	009b      	lsls	r3, r3, #2
 8002b90:	fa02 f303 	lsl.w	r3, r2, r3
 8002b94:	69ba      	ldr	r2, [r7, #24]
 8002b96:	4313      	orrs	r3, r2
 8002b98:	61bb      	str	r3, [r7, #24]
        GPIOx->AFR[position >> 3U] = temp;
 8002b9a:	69fb      	ldr	r3, [r7, #28]
 8002b9c:	08da      	lsrs	r2, r3, #3
 8002b9e:	687b      	ldr	r3, [r7, #4]
 8002ba0:	3208      	adds	r2, #8
 8002ba2:	69b9      	ldr	r1, [r7, #24]
 8002ba4:	f843 1022 	str.w	r1, [r3, r2, lsl #2]
      }

      /* Configure IO Direction mode (Input, Output, Alternate or Analog) */
      temp = GPIOx->MODER;
 8002ba8:	687b      	ldr	r3, [r7, #4]
 8002baa:	681b      	ldr	r3, [r3, #0]
 8002bac:	61bb      	str	r3, [r7, #24]
      temp &= ~(GPIO_MODER_MODER0 << (position * 2U));
 8002bae:	69fb      	ldr	r3, [r7, #28]
 8002bb0:	005b      	lsls	r3, r3, #1
 8002bb2:	2203      	movs	r2, #3
 8002bb4:	fa02 f303 	lsl.w	r3, r2, r3
 8002bb8:	43db      	mvns	r3, r3
 8002bba:	69ba      	ldr	r2, [r7, #24]
 8002bbc:	4013      	ands	r3, r2
 8002bbe:	61bb      	str	r3, [r7, #24]
      temp |= ((GPIO_Init->Mode & GPIO_MODE) << (position * 2U));
 8002bc0:	683b      	ldr	r3, [r7, #0]
 8002bc2:	685b      	ldr	r3, [r3, #4]
 8002bc4:	f003 0203 	and.w	r2, r3, #3
 8002bc8:	69fb      	ldr	r3, [r7, #28]
 8002bca:	005b      	lsls	r3, r3, #1
 8002bcc:	fa02 f303 	lsl.w	r3, r2, r3
 8002bd0:	69ba      	ldr	r2, [r7, #24]
 8002bd2:	4313      	orrs	r3, r2
 8002bd4:	61bb      	str	r3, [r7, #24]
      GPIOx->MODER = temp;
 8002bd6:	687b      	ldr	r3, [r7, #4]
 8002bd8:	69ba      	ldr	r2, [r7, #24]
 8002bda:	601a      	str	r2, [r3, #0]

      /*--------------------- EXTI Mode Configuration ------------------------*/
      /* Configure the External Interrupt or event for the current IO */
      if((GPIO_Init->Mode & EXTI_MODE) == EXTI_MODE)
 8002bdc:	683b      	ldr	r3, [r7, #0]
 8002bde:	685b      	ldr	r3, [r3, #4]
 8002be0:	f003 5380 	and.w	r3, r3, #268435456	; 0x10000000
 8002be4:	2b00      	cmp	r3, #0
 8002be6:	f000 80ae 	beq.w	8002d46 <HAL_GPIO_Init+0x2e2>
      {
        /* Enable SYSCFG Clock */
        __HAL_RCC_SYSCFG_CLK_ENABLE();
 8002bea:	2300      	movs	r3, #0
 8002bec:	60fb      	str	r3, [r7, #12]
 8002bee:	4b5c      	ldr	r3, [pc, #368]	; (8002d60 <HAL_GPIO_Init+0x2fc>)
 8002bf0:	6c5b      	ldr	r3, [r3, #68]	; 0x44
 8002bf2:	4a5b      	ldr	r2, [pc, #364]	; (8002d60 <HAL_GPIO_Init+0x2fc>)
 8002bf4:	f443 4380 	orr.w	r3, r3, #16384	; 0x4000
 8002bf8:	6453      	str	r3, [r2, #68]	; 0x44
 8002bfa:	4b59      	ldr	r3, [pc, #356]	; (8002d60 <HAL_GPIO_Init+0x2fc>)
 8002bfc:	6c5b      	ldr	r3, [r3, #68]	; 0x44
 8002bfe:	f403 4380 	and.w	r3, r3, #16384	; 0x4000
 8002c02:	60fb      	str	r3, [r7, #12]
 8002c04:	68fb      	ldr	r3, [r7, #12]

        temp = SYSCFG->EXTICR[position >> 2U];
 8002c06:	4a57      	ldr	r2, [pc, #348]	; (8002d64 <HAL_GPIO_Init+0x300>)
 8002c08:	69fb      	ldr	r3, [r7, #28]
 8002c0a:	089b      	lsrs	r3, r3, #2
 8002c0c:	3302      	adds	r3, #2
 8002c0e:	f852 3023 	ldr.w	r3, [r2, r3, lsl #2]
 8002c12:	61bb      	str	r3, [r7, #24]
        temp &= ~(0x0FU << (4U * (position & 0x03U)));
 8002c14:	69fb      	ldr	r3, [r7, #28]
 8002c16:	f003 0303 	and.w	r3, r3, #3
 8002c1a:	009b      	lsls	r3, r3, #2
 8002c1c:	220f      	movs	r2, #15
 8002c1e:	fa02 f303 	lsl.w	r3, r2, r3
 8002c22:	43db      	mvns	r3, r3
 8002c24:	69ba      	ldr	r2, [r7, #24]
 8002c26:	4013      	ands	r3, r2
 8002c28:	61bb      	str	r3, [r7, #24]
        temp |= ((uint32_t)(GPIO_GET_INDEX(GPIOx)) << (4U * (position & 0x03U)));
 8002c2a:	687b      	ldr	r3, [r7, #4]
 8002c2c:	4a4e      	ldr	r2, [pc, #312]	; (8002d68 <HAL_GPIO_Init+0x304>)
 8002c2e:	4293      	cmp	r3, r2
 8002c30:	d025      	beq.n	8002c7e <HAL_GPIO_Init+0x21a>
 8002c32:	687b      	ldr	r3, [r7, #4]
 8002c34:	4a4d      	ldr	r2, [pc, #308]	; (8002d6c <HAL_GPIO_Init+0x308>)
 8002c36:	4293      	cmp	r3, r2
 8002c38:	d01f      	beq.n	8002c7a <HAL_GPIO_Init+0x216>
 8002c3a:	687b      	ldr	r3, [r7, #4]
 8002c3c:	4a4c      	ldr	r2, [pc, #304]	; (8002d70 <HAL_GPIO_Init+0x30c>)
 8002c3e:	4293      	cmp	r3, r2
 8002c40:	d019      	beq.n	8002c76 <HAL_GPIO_Init+0x212>
 8002c42:	687b      	ldr	r3, [r7, #4]
 8002c44:	4a4b      	ldr	r2, [pc, #300]	; (8002d74 <HAL_GPIO_Init+0x310>)
 8002c46:	4293      	cmp	r3, r2
 8002c48:	d013      	beq.n	8002c72 <HAL_GPIO_Init+0x20e>
 8002c4a:	687b      	ldr	r3, [r7, #4]
 8002c4c:	4a4a      	ldr	r2, [pc, #296]	; (8002d78 <HAL_GPIO_Init+0x314>)
 8002c4e:	4293      	cmp	r3, r2
 8002c50:	d00d      	beq.n	8002c6e <HAL_GPIO_Init+0x20a>
 8002c52:	687b      	ldr	r3, [r7, #4]
 8002c54:	4a49      	ldr	r2, [pc, #292]	; (8002d7c <HAL_GPIO_Init+0x318>)
 8002c56:	4293      	cmp	r3, r2
 8002c58:	d007      	beq.n	8002c6a <HAL_GPIO_Init+0x206>
 8002c5a:	687b      	ldr	r3, [r7, #4]
 8002c5c:	4a48      	ldr	r2, [pc, #288]	; (8002d80 <HAL_GPIO_Init+0x31c>)
 8002c5e:	4293      	cmp	r3, r2
 8002c60:	d101      	bne.n	8002c66 <HAL_GPIO_Init+0x202>
 8002c62:	2306      	movs	r3, #6
 8002c64:	e00c      	b.n	8002c80 <HAL_GPIO_Init+0x21c>
 8002c66:	2307      	movs	r3, #7
 8002c68:	e00a      	b.n	8002c80 <HAL_GPIO_Init+0x21c>
 8002c6a:	2305      	movs	r3, #5
 8002c6c:	e008      	b.n	8002c80 <HAL_GPIO_Init+0x21c>
 8002c6e:	2304      	movs	r3, #4
 8002c70:	e006      	b.n	8002c80 <HAL_GPIO_Init+0x21c>
 8002c72:	2303      	movs	r3, #3
 8002c74:	e004      	b.n	8002c80 <HAL_GPIO_Init+0x21c>
 8002c76:	2302      	movs	r3, #2
 8002c78:	e002      	b.n	8002c80 <HAL_GPIO_Init+0x21c>
 8002c7a:	2301      	movs	r3, #1
 8002c7c:	e000      	b.n	8002c80 <HAL_GPIO_Init+0x21c>
 8002c7e:	2300      	movs	r3, #0
 8002c80:	69fa      	ldr	r2, [r7, #28]
 8002c82:	f002 0203 	and.w	r2, r2, #3
 8002c86:	0092      	lsls	r2, r2, #2
 8002c88:	4093      	lsls	r3, r2
 8002c8a:	69ba      	ldr	r2, [r7, #24]
 8002c8c:	4313      	orrs	r3, r2
 8002c8e:	61bb      	str	r3, [r7, #24]
        SYSCFG->EXTICR[position >> 2U] = temp;
 8002c90:	4934      	ldr	r1, [pc, #208]	; (8002d64 <HAL_GPIO_Init+0x300>)
 8002c92:	69fb      	ldr	r3, [r7, #28]
 8002c94:	089b      	lsrs	r3, r3, #2
 8002c96:	3302      	adds	r3, #2
 8002c98:	69ba      	ldr	r2, [r7, #24]
 8002c9a:	f841 2023 	str.w	r2, [r1, r3, lsl #2]

        /* Clear EXTI line configuration */
        temp = EXTI->IMR;
 8002c9e:	4b39      	ldr	r3, [pc, #228]	; (8002d84 <HAL_GPIO_Init+0x320>)
 8002ca0:	681b      	ldr	r3, [r3, #0]
 8002ca2:	61bb      	str	r3, [r7, #24]
        temp &= ~((uint32_t)iocurrent);
 8002ca4:	693b      	ldr	r3, [r7, #16]
 8002ca6:	43db      	mvns	r3, r3
 8002ca8:	69ba      	ldr	r2, [r7, #24]
 8002caa:	4013      	ands	r3, r2
 8002cac:	61bb      	str	r3, [r7, #24]
        if((GPIO_Init->Mode & GPIO_MODE_IT) == GPIO_MODE_IT)
 8002cae:	683b      	ldr	r3, [r7, #0]
 8002cb0:	685b      	ldr	r3, [r3, #4]
 8002cb2:	f403 3380 	and.w	r3, r3, #65536	; 0x10000
 8002cb6:	2b00      	cmp	r3, #0
 8002cb8:	d003      	beq.n	8002cc2 <HAL_GPIO_Init+0x25e>
        {
          temp |= iocurrent;
 8002cba:	69ba      	ldr	r2, [r7, #24]
 8002cbc:	693b      	ldr	r3, [r7, #16]
 8002cbe:	4313      	orrs	r3, r2
 8002cc0:	61bb      	str	r3, [r7, #24]
        }
        EXTI->IMR = temp;
 8002cc2:	4a30      	ldr	r2, [pc, #192]	; (8002d84 <HAL_GPIO_Init+0x320>)
 8002cc4:	69bb      	ldr	r3, [r7, #24]
 8002cc6:	6013      	str	r3, [r2, #0]

        temp = EXTI->EMR;
 8002cc8:	4b2e      	ldr	r3, [pc, #184]	; (8002d84 <HAL_GPIO_Init+0x320>)
 8002cca:	685b      	ldr	r3, [r3, #4]
 8002ccc:	61bb      	str	r3, [r7, #24]
        temp &= ~((uint32_t)iocurrent);
 8002cce:	693b      	ldr	r3, [r7, #16]
 8002cd0:	43db      	mvns	r3, r3
 8002cd2:	69ba      	ldr	r2, [r7, #24]
 8002cd4:	4013      	ands	r3, r2
 8002cd6:	61bb      	str	r3, [r7, #24]
        if((GPIO_Init->Mode & GPIO_MODE_EVT) == GPIO_MODE_EVT)
 8002cd8:	683b      	ldr	r3, [r7, #0]
 8002cda:	685b      	ldr	r3, [r3, #4]
 8002cdc:	f403 3300 	and.w	r3, r3, #131072	; 0x20000
 8002ce0:	2b00      	cmp	r3, #0
 8002ce2:	d003      	beq.n	8002cec <HAL_GPIO_Init+0x288>
        {
          temp |= iocurrent;
 8002ce4:	69ba      	ldr	r2, [r7, #24]
 8002ce6:	693b      	ldr	r3, [r7, #16]
 8002ce8:	4313      	orrs	r3, r2
 8002cea:	61bb      	str	r3, [r7, #24]
        }
        EXTI->EMR = temp;
 8002cec:	4a25      	ldr	r2, [pc, #148]	; (8002d84 <HAL_GPIO_Init+0x320>)
 8002cee:	69bb      	ldr	r3, [r7, #24]
 8002cf0:	6053      	str	r3, [r2, #4]

        /* Clear Rising Falling edge configuration */
        temp = EXTI->RTSR;
 8002cf2:	4b24      	ldr	r3, [pc, #144]	; (8002d84 <HAL_GPIO_Init+0x320>)
 8002cf4:	689b      	ldr	r3, [r3, #8]
 8002cf6:	61bb      	str	r3, [r7, #24]
        temp &= ~((uint32_t)iocurrent);
 8002cf8:	693b      	ldr	r3, [r7, #16]
 8002cfa:	43db      	mvns	r3, r3
 8002cfc:	69ba      	ldr	r2, [r7, #24]
 8002cfe:	4013      	ands	r3, r2
 8002d00:	61bb      	str	r3, [r7, #24]
        if((GPIO_Init->Mode & RISING_EDGE) == RISING_EDGE)
 8002d02:	683b      	ldr	r3, [r7, #0]
 8002d04:	685b      	ldr	r3, [r3, #4]
 8002d06:	f403 1380 	and.w	r3, r3, #1048576	; 0x100000
 8002d0a:	2b00      	cmp	r3, #0
 8002d0c:	d003      	beq.n	8002d16 <HAL_GPIO_Init+0x2b2>
        {
          temp |= iocurrent;
 8002d0e:	69ba      	ldr	r2, [r7, #24]
 8002d10:	693b      	ldr	r3, [r7, #16]
 8002d12:	4313      	orrs	r3, r2
 8002d14:	61bb      	str	r3, [r7, #24]
        }
        EXTI->RTSR = temp;
 8002d16:	4a1b      	ldr	r2, [pc, #108]	; (8002d84 <HAL_GPIO_Init+0x320>)
 8002d18:	69bb      	ldr	r3, [r7, #24]
 8002d1a:	6093      	str	r3, [r2, #8]

        temp = EXTI->FTSR;
 8002d1c:	4b19      	ldr	r3, [pc, #100]	; (8002d84 <HAL_GPIO_Init+0x320>)
 8002d1e:	68db      	ldr	r3, [r3, #12]
 8002d20:	61bb      	str	r3, [r7, #24]
        temp &= ~((uint32_t)iocurrent);
 8002d22:	693b      	ldr	r3, [r7, #16]
 8002d24:	43db      	mvns	r3, r3
 8002d26:	69ba      	ldr	r2, [r7, #24]
 8002d28:	4013      	ands	r3, r2
 8002d2a:	61bb      	str	r3, [r7, #24]
        if((GPIO_Init->Mode & FALLING_EDGE) == FALLING_EDGE)
 8002d2c:	683b      	ldr	r3, [r7, #0]
 8002d2e:	685b      	ldr	r3, [r3, #4]
 8002d30:	f403 1300 	and.w	r3, r3, #2097152	; 0x200000
 8002d34:	2b00      	cmp	r3, #0
 8002d36:	d003      	beq.n	8002d40 <HAL_GPIO_Init+0x2dc>
        {
          temp |= iocurrent;
 8002d38:	69ba      	ldr	r2, [r7, #24]
 8002d3a:	693b      	ldr	r3, [r7, #16]
 8002d3c:	4313      	orrs	r3, r2
 8002d3e:	61bb      	str	r3, [r7, #24]
        }
        EXTI->FTSR = temp;
 8002d40:	4a10      	ldr	r2, [pc, #64]	; (8002d84 <HAL_GPIO_Init+0x320>)
 8002d42:	69bb      	ldr	r3, [r7, #24]
 8002d44:	60d3      	str	r3, [r2, #12]
  for(position = 0U; position < GPIO_NUMBER; position++)
 8002d46:	69fb      	ldr	r3, [r7, #28]
 8002d48:	3301      	adds	r3, #1
 8002d4a:	61fb      	str	r3, [r7, #28]
 8002d4c:	69fb      	ldr	r3, [r7, #28]
 8002d4e:	2b0f      	cmp	r3, #15
 8002d50:	f67f ae96 	bls.w	8002a80 <HAL_GPIO_Init+0x1c>
      }
    }
  }
}
 8002d54:	bf00      	nop
 8002d56:	3724      	adds	r7, #36	; 0x24
 8002d58:	46bd      	mov	sp, r7
 8002d5a:	f85d 7b04 	ldr.w	r7, [sp], #4
 8002d5e:	4770      	bx	lr
 8002d60:	40023800 	.word	0x40023800
 8002d64:	40013800 	.word	0x40013800
 8002d68:	40020000 	.word	0x40020000
 8002d6c:	40020400 	.word	0x40020400
 8002d70:	40020800 	.word	0x40020800
 8002d74:	40020c00 	.word	0x40020c00
 8002d78:	40021000 	.word	0x40021000
 8002d7c:	40021400 	.word	0x40021400
 8002d80:	40021800 	.word	0x40021800
 8002d84:	40013c00 	.word	0x40013c00

08002d88 <HAL_GPIO_WritePin>:
  *            @arg GPIO_PIN_RESET: to clear the port pin
  *            @arg GPIO_PIN_SET: to set the port pin
  * @retval None
  */
void HAL_GPIO_WritePin(GPIO_TypeDef* GPIOx, uint16_t GPIO_Pin, GPIO_PinState PinState)
{
 8002d88:	b480      	push	{r7}
 8002d8a:	b083      	sub	sp, #12
 8002d8c:	af00      	add	r7, sp, #0
 8002d8e:	6078      	str	r0, [r7, #4]
 8002d90:	460b      	mov	r3, r1
 8002d92:	807b      	strh	r3, [r7, #2]
 8002d94:	4613      	mov	r3, r2
 8002d96:	707b      	strb	r3, [r7, #1]
  /* Check the parameters */
  assert_param(IS_GPIO_PIN(GPIO_Pin));
  assert_param(IS_GPIO_PIN_ACTION(PinState));

  if(PinState != GPIO_PIN_RESET)
 8002d98:	787b      	ldrb	r3, [r7, #1]
 8002d9a:	2b00      	cmp	r3, #0
 8002d9c:	d003      	beq.n	8002da6 <HAL_GPIO_WritePin+0x1e>
  {
    GPIOx->BSRR = GPIO_Pin;
 8002d9e:	887a      	ldrh	r2, [r7, #2]
 8002da0:	687b      	ldr	r3, [r7, #4]
 8002da2:	619a      	str	r2, [r3, #24]
  }
  else
  {
    GPIOx->BSRR = (uint32_t)GPIO_Pin << 16U;
  }
}
 8002da4:	e003      	b.n	8002dae <HAL_GPIO_WritePin+0x26>
    GPIOx->BSRR = (uint32_t)GPIO_Pin << 16U;
 8002da6:	887b      	ldrh	r3, [r7, #2]
 8002da8:	041a      	lsls	r2, r3, #16
 8002daa:	687b      	ldr	r3, [r7, #4]
 8002dac:	619a      	str	r2, [r3, #24]
}
 8002dae:	bf00      	nop
 8002db0:	370c      	adds	r7, #12
 8002db2:	46bd      	mov	sp, r7
 8002db4:	f85d 7b04 	ldr.w	r7, [sp], #4
 8002db8:	4770      	bx	lr

08002dba <HAL_GPIO_TogglePin>:
  *                      x can be (A..I) to select the GPIO peripheral for STM32F40XX and STM32F427X devices.
  * @param  GPIO_Pin Specifies the pins to be toggled.
  * @retval None
  */
void HAL_GPIO_TogglePin(GPIO_TypeDef* GPIOx, uint16_t GPIO_Pin)
{
 8002dba:	b480      	push	{r7}
 8002dbc:	b083      	sub	sp, #12
 8002dbe:	af00      	add	r7, sp, #0
 8002dc0:	6078      	str	r0, [r7, #4]
 8002dc2:	460b      	mov	r3, r1
 8002dc4:	807b      	strh	r3, [r7, #2]
  /* Check the parameters */
  assert_param(IS_GPIO_PIN(GPIO_Pin));

  if ((GPIOx->ODR & GPIO_Pin) == GPIO_Pin)
 8002dc6:	687b      	ldr	r3, [r7, #4]
 8002dc8:	695a      	ldr	r2, [r3, #20]
 8002dca:	887b      	ldrh	r3, [r7, #2]
 8002dcc:	401a      	ands	r2, r3
 8002dce:	887b      	ldrh	r3, [r7, #2]
 8002dd0:	429a      	cmp	r2, r3
 8002dd2:	d104      	bne.n	8002dde <HAL_GPIO_TogglePin+0x24>
  {
    GPIOx->BSRR = (uint32_t)GPIO_Pin << GPIO_NUMBER;
 8002dd4:	887b      	ldrh	r3, [r7, #2]
 8002dd6:	041a      	lsls	r2, r3, #16
 8002dd8:	687b      	ldr	r3, [r7, #4]
 8002dda:	619a      	str	r2, [r3, #24]
  }
  else
  {
    GPIOx->BSRR = GPIO_Pin;
  }
}
 8002ddc:	e002      	b.n	8002de4 <HAL_GPIO_TogglePin+0x2a>
    GPIOx->BSRR = GPIO_Pin;
 8002dde:	887a      	ldrh	r2, [r7, #2]
 8002de0:	687b      	ldr	r3, [r7, #4]
 8002de2:	619a      	str	r2, [r3, #24]
}
 8002de4:	bf00      	nop
 8002de6:	370c      	adds	r7, #12
 8002de8:	46bd      	mov	sp, r7
 8002dea:	f85d 7b04 	ldr.w	r7, [sp], #4
 8002dee:	4770      	bx	lr

08002df0 <HAL_PWREx_EnableOverDrive>:
  *         During the Over-drive switch activation, no peripheral clocks should be enabled.   
  *         The peripheral clocks must be enabled once the Over-drive mode is activated.   
  * @retval HAL status
  */
HAL_StatusTypeDef HAL_PWREx_EnableOverDrive(void)
{
 8002df0:	b580      	push	{r7, lr}
 8002df2:	b082      	sub	sp, #8
 8002df4:	af00      	add	r7, sp, #0
  uint32_t tickstart = 0U;
 8002df6:	2300      	movs	r3, #0
 8002df8:	607b      	str	r3, [r7, #4]

  __HAL_RCC_PWR_CLK_ENABLE();
 8002dfa:	2300      	movs	r3, #0
 8002dfc:	603b      	str	r3, [r7, #0]
 8002dfe:	4b20      	ldr	r3, [pc, #128]	; (8002e80 <HAL_PWREx_EnableOverDrive+0x90>)
 8002e00:	6c1b      	ldr	r3, [r3, #64]	; 0x40
 8002e02:	4a1f      	ldr	r2, [pc, #124]	; (8002e80 <HAL_PWREx_EnableOverDrive+0x90>)
 8002e04:	f043 5380 	orr.w	r3, r3, #268435456	; 0x10000000
 8002e08:	6413      	str	r3, [r2, #64]	; 0x40
 8002e0a:	4b1d      	ldr	r3, [pc, #116]	; (8002e80 <HAL_PWREx_EnableOverDrive+0x90>)
 8002e0c:	6c1b      	ldr	r3, [r3, #64]	; 0x40
 8002e0e:	f003 5380 	and.w	r3, r3, #268435456	; 0x10000000
 8002e12:	603b      	str	r3, [r7, #0]
 8002e14:	683b      	ldr	r3, [r7, #0]
  
  /* Enable the Over-drive to extend the clock frequency to 180 Mhz */
  __HAL_PWR_OVERDRIVE_ENABLE();
 8002e16:	4b1b      	ldr	r3, [pc, #108]	; (8002e84 <HAL_PWREx_EnableOverDrive+0x94>)
 8002e18:	2201      	movs	r2, #1
 8002e1a:	601a      	str	r2, [r3, #0]

  /* Get tick */
  tickstart = HAL_GetTick();
 8002e1c:	f7fe fd7a 	bl	8001914 <HAL_GetTick>
 8002e20:	6078      	str	r0, [r7, #4]

  while(!__HAL_PWR_GET_FLAG(PWR_FLAG_ODRDY))
 8002e22:	e009      	b.n	8002e38 <HAL_PWREx_EnableOverDrive+0x48>
  {
    if((HAL_GetTick() - tickstart) > PWR_OVERDRIVE_TIMEOUT_VALUE)
 8002e24:	f7fe fd76 	bl	8001914 <HAL_GetTick>
 8002e28:	4602      	mov	r2, r0
 8002e2a:	687b      	ldr	r3, [r7, #4]
 8002e2c:	1ad3      	subs	r3, r2, r3
 8002e2e:	f5b3 7f7a 	cmp.w	r3, #1000	; 0x3e8
 8002e32:	d901      	bls.n	8002e38 <HAL_PWREx_EnableOverDrive+0x48>
    {
      return HAL_TIMEOUT;
 8002e34:	2303      	movs	r3, #3
 8002e36:	e01f      	b.n	8002e78 <HAL_PWREx_EnableOverDrive+0x88>
  while(!__HAL_PWR_GET_FLAG(PWR_FLAG_ODRDY))
 8002e38:	4b13      	ldr	r3, [pc, #76]	; (8002e88 <HAL_PWREx_EnableOverDrive+0x98>)
 8002e3a:	685b      	ldr	r3, [r3, #4]
 8002e3c:	f403 3380 	and.w	r3, r3, #65536	; 0x10000
 8002e40:	f5b3 3f80 	cmp.w	r3, #65536	; 0x10000
 8002e44:	d1ee      	bne.n	8002e24 <HAL_PWREx_EnableOverDrive+0x34>
    }
  }
  
  /* Enable the Over-drive switch */
  __HAL_PWR_OVERDRIVESWITCHING_ENABLE();
 8002e46:	4b11      	ldr	r3, [pc, #68]	; (8002e8c <HAL_PWREx_EnableOverDrive+0x9c>)
 8002e48:	2201      	movs	r2, #1
 8002e4a:	601a      	str	r2, [r3, #0]

  /* Get tick */
  tickstart = HAL_GetTick();
 8002e4c:	f7fe fd62 	bl	8001914 <HAL_GetTick>
 8002e50:	6078      	str	r0, [r7, #4]

  while(!__HAL_PWR_GET_FLAG(PWR_FLAG_ODSWRDY))
 8002e52:	e009      	b.n	8002e68 <HAL_PWREx_EnableOverDrive+0x78>
  {
    if((HAL_GetTick() - tickstart ) > PWR_OVERDRIVE_TIMEOUT_VALUE)
 8002e54:	f7fe fd5e 	bl	8001914 <HAL_GetTick>
 8002e58:	4602      	mov	r2, r0
 8002e5a:	687b      	ldr	r3, [r7, #4]
 8002e5c:	1ad3      	subs	r3, r2, r3
 8002e5e:	f5b3 7f7a 	cmp.w	r3, #1000	; 0x3e8
 8002e62:	d901      	bls.n	8002e68 <HAL_PWREx_EnableOverDrive+0x78>
    {
      return HAL_TIMEOUT;
 8002e64:	2303      	movs	r3, #3
 8002e66:	e007      	b.n	8002e78 <HAL_PWREx_EnableOverDrive+0x88>
  while(!__HAL_PWR_GET_FLAG(PWR_FLAG_ODSWRDY))
 8002e68:	4b07      	ldr	r3, [pc, #28]	; (8002e88 <HAL_PWREx_EnableOverDrive+0x98>)
 8002e6a:	685b      	ldr	r3, [r3, #4]
 8002e6c:	f403 3300 	and.w	r3, r3, #131072	; 0x20000
 8002e70:	f5b3 3f00 	cmp.w	r3, #131072	; 0x20000
 8002e74:	d1ee      	bne.n	8002e54 <HAL_PWREx_EnableOverDrive+0x64>
    }
  } 
  return HAL_OK;
 8002e76:	2300      	movs	r3, #0
}
 8002e78:	4618      	mov	r0, r3
 8002e7a:	3708      	adds	r7, #8
 8002e7c:	46bd      	mov	sp, r7
 8002e7e:	bd80      	pop	{r7, pc}
 8002e80:	40023800 	.word	0x40023800
 8002e84:	420e0040 	.word	0x420e0040
 8002e88:	40007000 	.word	0x40007000
 8002e8c:	420e0044 	.word	0x420e0044

08002e90 <HAL_RCC_ClockConfig>:
  *         HPRE[3:0] bits to ensure that HCLK not exceed the maximum allowed frequency
  *         (for more details refer to section above "Initialization/de-initialization functions")
  * @retval None
  */
HAL_StatusTypeDef HAL_RCC_ClockConfig(RCC_ClkInitTypeDef  *RCC_ClkInitStruct, uint32_t FLatency)
{
 8002e90:	b580      	push	{r7, lr}
 8002e92:	b084      	sub	sp, #16
 8002e94:	af00      	add	r7, sp, #0
 8002e96:	6078      	str	r0, [r7, #4]
 8002e98:	6039      	str	r1, [r7, #0]
  uint32_t tickstart;

  /* Check Null pointer */
  if(RCC_ClkInitStruct == NULL)
 8002e9a:	687b      	ldr	r3, [r7, #4]
 8002e9c:	2b00      	cmp	r3, #0
 8002e9e:	d101      	bne.n	8002ea4 <HAL_RCC_ClockConfig+0x14>
  {
    return HAL_ERROR;
 8002ea0:	2301      	movs	r3, #1
 8002ea2:	e0cc      	b.n	800303e <HAL_RCC_ClockConfig+0x1ae>
  /* To correctly read data from FLASH memory, the number of wait states (LATENCY)
    must be correctly programmed according to the frequency of the CPU clock
    (HCLK) and the supply voltage of the device. */

  /* Increasing the number of wait states because of higher CPU frequency */
  if(FLatency > __HAL_FLASH_GET_LATENCY())
 8002ea4:	4b68      	ldr	r3, [pc, #416]	; (8003048 <HAL_RCC_ClockConfig+0x1b8>)
 8002ea6:	681b      	ldr	r3, [r3, #0]
 8002ea8:	f003 030f 	and.w	r3, r3, #15
 8002eac:	683a      	ldr	r2, [r7, #0]
 8002eae:	429a      	cmp	r2, r3
 8002eb0:	d90c      	bls.n	8002ecc <HAL_RCC_ClockConfig+0x3c>
  {
    /* Program the new number of wait states to the LATENCY bits in the FLASH_ACR register */
    __HAL_FLASH_SET_LATENCY(FLatency);
 8002eb2:	4b65      	ldr	r3, [pc, #404]	; (8003048 <HAL_RCC_ClockConfig+0x1b8>)
 8002eb4:	683a      	ldr	r2, [r7, #0]
 8002eb6:	b2d2      	uxtb	r2, r2
 8002eb8:	701a      	strb	r2, [r3, #0]

    /* Check that the new number of wait states is taken into account to access the Flash
    memory by reading the FLASH_ACR register */
    if(__HAL_FLASH_GET_LATENCY() != FLatency)
 8002eba:	4b63      	ldr	r3, [pc, #396]	; (8003048 <HAL_RCC_ClockConfig+0x1b8>)
 8002ebc:	681b      	ldr	r3, [r3, #0]
 8002ebe:	f003 030f 	and.w	r3, r3, #15
 8002ec2:	683a      	ldr	r2, [r7, #0]
 8002ec4:	429a      	cmp	r2, r3
 8002ec6:	d001      	beq.n	8002ecc <HAL_RCC_ClockConfig+0x3c>
    {
      return HAL_ERROR;
 8002ec8:	2301      	movs	r3, #1
 8002eca:	e0b8      	b.n	800303e <HAL_RCC_ClockConfig+0x1ae>
    }
  }

  /*-------------------------- HCLK Configuration --------------------------*/
  if(((RCC_ClkInitStruct->ClockType) & RCC_CLOCKTYPE_HCLK) == RCC_CLOCKTYPE_HCLK)
 8002ecc:	687b      	ldr	r3, [r7, #4]
 8002ece:	681b      	ldr	r3, [r3, #0]
 8002ed0:	f003 0302 	and.w	r3, r3, #2
 8002ed4:	2b00      	cmp	r3, #0
 8002ed6:	d020      	beq.n	8002f1a <HAL_RCC_ClockConfig+0x8a>
  {
    /* Set the highest APBx dividers in order to ensure that we do not go through
       a non-spec phase whatever we decrease or increase HCLK. */
    if(((RCC_ClkInitStruct->ClockType) & RCC_CLOCKTYPE_PCLK1) == RCC_CLOCKTYPE_PCLK1)
 8002ed8:	687b      	ldr	r3, [r7, #4]
 8002eda:	681b      	ldr	r3, [r3, #0]
 8002edc:	f003 0304 	and.w	r3, r3, #4
 8002ee0:	2b00      	cmp	r3, #0
 8002ee2:	d005      	beq.n	8002ef0 <HAL_RCC_ClockConfig+0x60>
    {
      MODIFY_REG(RCC->CFGR, RCC_CFGR_PPRE1, RCC_HCLK_DIV16);
 8002ee4:	4b59      	ldr	r3, [pc, #356]	; (800304c <HAL_RCC_ClockConfig+0x1bc>)
 8002ee6:	689b      	ldr	r3, [r3, #8]
 8002ee8:	4a58      	ldr	r2, [pc, #352]	; (800304c <HAL_RCC_ClockConfig+0x1bc>)
 8002eea:	f443 53e0 	orr.w	r3, r3, #7168	; 0x1c00
 8002eee:	6093      	str	r3, [r2, #8]
    }

    if(((RCC_ClkInitStruct->ClockType) & RCC_CLOCKTYPE_PCLK2) == RCC_CLOCKTYPE_PCLK2)
 8002ef0:	687b      	ldr	r3, [r7, #4]
 8002ef2:	681b      	ldr	r3, [r3, #0]
 8002ef4:	f003 0308 	and.w	r3, r3, #8
 8002ef8:	2b00      	cmp	r3, #0
 8002efa:	d005      	beq.n	8002f08 <HAL_RCC_ClockConfig+0x78>
    {
      MODIFY_REG(RCC->CFGR, RCC_CFGR_PPRE2, (RCC_HCLK_DIV16 << 3));
 8002efc:	4b53      	ldr	r3, [pc, #332]	; (800304c <HAL_RCC_ClockConfig+0x1bc>)
 8002efe:	689b      	ldr	r3, [r3, #8]
 8002f00:	4a52      	ldr	r2, [pc, #328]	; (800304c <HAL_RCC_ClockConfig+0x1bc>)
 8002f02:	f443 4360 	orr.w	r3, r3, #57344	; 0xe000
 8002f06:	6093      	str	r3, [r2, #8]
    }

    assert_param(IS_RCC_HCLK(RCC_ClkInitStruct->AHBCLKDivider));
    MODIFY_REG(RCC->CFGR, RCC_CFGR_HPRE, RCC_ClkInitStruct->AHBCLKDivider);
 8002f08:	4b50      	ldr	r3, [pc, #320]	; (800304c <HAL_RCC_ClockConfig+0x1bc>)
 8002f0a:	689b      	ldr	r3, [r3, #8]
 8002f0c:	f023 02f0 	bic.w	r2, r3, #240	; 0xf0
 8002f10:	687b      	ldr	r3, [r7, #4]
 8002f12:	689b      	ldr	r3, [r3, #8]
 8002f14:	494d      	ldr	r1, [pc, #308]	; (800304c <HAL_RCC_ClockConfig+0x1bc>)
 8002f16:	4313      	orrs	r3, r2
 8002f18:	608b      	str	r3, [r1, #8]
  }

  /*------------------------- SYSCLK Configuration ---------------------------*/
  if(((RCC_ClkInitStruct->ClockType) & RCC_CLOCKTYPE_SYSCLK) == RCC_CLOCKTYPE_SYSCLK)
 8002f1a:	687b      	ldr	r3, [r7, #4]
 8002f1c:	681b      	ldr	r3, [r3, #0]
 8002f1e:	f003 0301 	and.w	r3, r3, #1
 8002f22:	2b00      	cmp	r3, #0
 8002f24:	d044      	beq.n	8002fb0 <HAL_RCC_ClockConfig+0x120>
  {
    assert_param(IS_RCC_SYSCLKSOURCE(RCC_ClkInitStruct->SYSCLKSource));

    /* HSE is selected as System Clock Source */
    if(RCC_ClkInitStruct->SYSCLKSource == RCC_SYSCLKSOURCE_HSE)
 8002f26:	687b      	ldr	r3, [r7, #4]
 8002f28:	685b      	ldr	r3, [r3, #4]
 8002f2a:	2b01      	cmp	r3, #1
 8002f2c:	d107      	bne.n	8002f3e <HAL_RCC_ClockConfig+0xae>
    {
      /* Check the HSE ready flag */
      if(__HAL_RCC_GET_FLAG(RCC_FLAG_HSERDY) == RESET)
 8002f2e:	4b47      	ldr	r3, [pc, #284]	; (800304c <HAL_RCC_ClockConfig+0x1bc>)
 8002f30:	681b      	ldr	r3, [r3, #0]
 8002f32:	f403 3300 	and.w	r3, r3, #131072	; 0x20000
 8002f36:	2b00      	cmp	r3, #0
 8002f38:	d119      	bne.n	8002f6e <HAL_RCC_ClockConfig+0xde>
      {
        return HAL_ERROR;
 8002f3a:	2301      	movs	r3, #1
 8002f3c:	e07f      	b.n	800303e <HAL_RCC_ClockConfig+0x1ae>
      }
    }
    /* PLL is selected as System Clock Source */
    else if((RCC_ClkInitStruct->SYSCLKSource == RCC_SYSCLKSOURCE_PLLCLK)   ||
 8002f3e:	687b      	ldr	r3, [r7, #4]
 8002f40:	685b      	ldr	r3, [r3, #4]
 8002f42:	2b02      	cmp	r3, #2
 8002f44:	d003      	beq.n	8002f4e <HAL_RCC_ClockConfig+0xbe>
            (RCC_ClkInitStruct->SYSCLKSource == RCC_SYSCLKSOURCE_PLLRCLK))
 8002f46:	687b      	ldr	r3, [r7, #4]
 8002f48:	685b      	ldr	r3, [r3, #4]
    else if((RCC_ClkInitStruct->SYSCLKSource == RCC_SYSCLKSOURCE_PLLCLK)   ||
 8002f4a:	2b03      	cmp	r3, #3
 8002f4c:	d107      	bne.n	8002f5e <HAL_RCC_ClockConfig+0xce>
    {
      /* Check the PLL ready flag */
      if(__HAL_RCC_GET_FLAG(RCC_FLAG_PLLRDY) == RESET)
 8002f4e:	4b3f      	ldr	r3, [pc, #252]	; (800304c <HAL_RCC_ClockConfig+0x1bc>)
 8002f50:	681b      	ldr	r3, [r3, #0]
 8002f52:	f003 7300 	and.w	r3, r3, #33554432	; 0x2000000
 8002f56:	2b00      	cmp	r3, #0
 8002f58:	d109      	bne.n	8002f6e <HAL_RCC_ClockConfig+0xde>
      {
        return HAL_ERROR;
 8002f5a:	2301      	movs	r3, #1
 8002f5c:	e06f      	b.n	800303e <HAL_RCC_ClockConfig+0x1ae>
    }
    /* HSI is selected as System Clock Source */
    else
    {
      /* Check the HSI ready flag */
      if(__HAL_RCC_GET_FLAG(RCC_FLAG_HSIRDY) == RESET)
 8002f5e:	4b3b      	ldr	r3, [pc, #236]	; (800304c <HAL_RCC_ClockConfig+0x1bc>)
 8002f60:	681b      	ldr	r3, [r3, #0]
 8002f62:	f003 0302 	and.w	r3, r3, #2
 8002f66:	2b00      	cmp	r3, #0
 8002f68:	d101      	bne.n	8002f6e <HAL_RCC_ClockConfig+0xde>
      {
        return HAL_ERROR;
 8002f6a:	2301      	movs	r3, #1
 8002f6c:	e067      	b.n	800303e <HAL_RCC_ClockConfig+0x1ae>
      }
    }

    __HAL_RCC_SYSCLK_CONFIG(RCC_ClkInitStruct->SYSCLKSource);
 8002f6e:	4b37      	ldr	r3, [pc, #220]	; (800304c <HAL_RCC_ClockConfig+0x1bc>)
 8002f70:	689b      	ldr	r3, [r3, #8]
 8002f72:	f023 0203 	bic.w	r2, r3, #3
 8002f76:	687b      	ldr	r3, [r7, #4]
 8002f78:	685b      	ldr	r3, [r3, #4]
 8002f7a:	4934      	ldr	r1, [pc, #208]	; (800304c <HAL_RCC_ClockConfig+0x1bc>)
 8002f7c:	4313      	orrs	r3, r2
 8002f7e:	608b      	str	r3, [r1, #8]

    /* Get Start Tick */
    tickstart = HAL_GetTick();
 8002f80:	f7fe fcc8 	bl	8001914 <HAL_GetTick>
 8002f84:	60f8      	str	r0, [r7, #12]

    while (__HAL_RCC_GET_SYSCLK_SOURCE() != (RCC_ClkInitStruct->SYSCLKSource << RCC_CFGR_SWS_Pos))
 8002f86:	e00a      	b.n	8002f9e <HAL_RCC_ClockConfig+0x10e>
    {
      if ((HAL_GetTick() - tickstart) > CLOCKSWITCH_TIMEOUT_VALUE)
 8002f88:	f7fe fcc4 	bl	8001914 <HAL_GetTick>
 8002f8c:	4602      	mov	r2, r0
 8002f8e:	68fb      	ldr	r3, [r7, #12]
 8002f90:	1ad3      	subs	r3, r2, r3
 8002f92:	f241 3288 	movw	r2, #5000	; 0x1388
 8002f96:	4293      	cmp	r3, r2
 8002f98:	d901      	bls.n	8002f9e <HAL_RCC_ClockConfig+0x10e>
      {
        return HAL_TIMEOUT;
 8002f9a:	2303      	movs	r3, #3
 8002f9c:	e04f      	b.n	800303e <HAL_RCC_ClockConfig+0x1ae>
    while (__HAL_RCC_GET_SYSCLK_SOURCE() != (RCC_ClkInitStruct->SYSCLKSource << RCC_CFGR_SWS_Pos))
 8002f9e:	4b2b      	ldr	r3, [pc, #172]	; (800304c <HAL_RCC_ClockConfig+0x1bc>)
 8002fa0:	689b      	ldr	r3, [r3, #8]
 8002fa2:	f003 020c 	and.w	r2, r3, #12
 8002fa6:	687b      	ldr	r3, [r7, #4]
 8002fa8:	685b      	ldr	r3, [r3, #4]
 8002faa:	009b      	lsls	r3, r3, #2
 8002fac:	429a      	cmp	r2, r3
 8002fae:	d1eb      	bne.n	8002f88 <HAL_RCC_ClockConfig+0xf8>
      }
    }
  }

  /* Decreasing the number of wait states because of lower CPU frequency */
  if(FLatency < __HAL_FLASH_GET_LATENCY())
 8002fb0:	4b25      	ldr	r3, [pc, #148]	; (8003048 <HAL_RCC_ClockConfig+0x1b8>)
 8002fb2:	681b      	ldr	r3, [r3, #0]
 8002fb4:	f003 030f 	and.w	r3, r3, #15
 8002fb8:	683a      	ldr	r2, [r7, #0]
 8002fba:	429a      	cmp	r2, r3
 8002fbc:	d20c      	bcs.n	8002fd8 <HAL_RCC_ClockConfig+0x148>
  {
     /* Program the new number of wait states to the LATENCY bits in the FLASH_ACR register */
    __HAL_FLASH_SET_LATENCY(FLatency);
 8002fbe:	4b22      	ldr	r3, [pc, #136]	; (8003048 <HAL_RCC_ClockConfig+0x1b8>)
 8002fc0:	683a      	ldr	r2, [r7, #0]
 8002fc2:	b2d2      	uxtb	r2, r2
 8002fc4:	701a      	strb	r2, [r3, #0]

    /* Check that the new number of wait states is taken into account to access the Flash
    memory by reading the FLASH_ACR register */
    if(__HAL_FLASH_GET_LATENCY() != FLatency)
 8002fc6:	4b20      	ldr	r3, [pc, #128]	; (8003048 <HAL_RCC_ClockConfig+0x1b8>)
 8002fc8:	681b      	ldr	r3, [r3, #0]
 8002fca:	f003 030f 	and.w	r3, r3, #15
 8002fce:	683a      	ldr	r2, [r7, #0]
 8002fd0:	429a      	cmp	r2, r3
 8002fd2:	d001      	beq.n	8002fd8 <HAL_RCC_ClockConfig+0x148>
    {
      return HAL_ERROR;
 8002fd4:	2301      	movs	r3, #1
 8002fd6:	e032      	b.n	800303e <HAL_RCC_ClockConfig+0x1ae>
    }
  }

  /*-------------------------- PCLK1 Configuration ---------------------------*/
  if(((RCC_ClkInitStruct->ClockType) & RCC_CLOCKTYPE_PCLK1) == RCC_CLOCKTYPE_PCLK1)
 8002fd8:	687b      	ldr	r3, [r7, #4]
 8002fda:	681b      	ldr	r3, [r3, #0]
 8002fdc:	f003 0304 	and.w	r3, r3, #4
 8002fe0:	2b00      	cmp	r3, #0
 8002fe2:	d008      	beq.n	8002ff6 <HAL_RCC_ClockConfig+0x166>
  {
    assert_param(IS_RCC_PCLK(RCC_ClkInitStruct->APB1CLKDivider));
    MODIFY_REG(RCC->CFGR, RCC_CFGR_PPRE1, RCC_ClkInitStruct->APB1CLKDivider);
 8002fe4:	4b19      	ldr	r3, [pc, #100]	; (800304c <HAL_RCC_ClockConfig+0x1bc>)
 8002fe6:	689b      	ldr	r3, [r3, #8]
 8002fe8:	f423 52e0 	bic.w	r2, r3, #7168	; 0x1c00
 8002fec:	687b      	ldr	r3, [r7, #4]
 8002fee:	68db      	ldr	r3, [r3, #12]
 8002ff0:	4916      	ldr	r1, [pc, #88]	; (800304c <HAL_RCC_ClockConfig+0x1bc>)
 8002ff2:	4313      	orrs	r3, r2
 8002ff4:	608b      	str	r3, [r1, #8]
  }

  /*-------------------------- PCLK2 Configuration ---------------------------*/
  if(((RCC_ClkInitStruct->ClockType) & RCC_CLOCKTYPE_PCLK2) == RCC_CLOCKTYPE_PCLK2)
 8002ff6:	687b      	ldr	r3, [r7, #4]
 8002ff8:	681b      	ldr	r3, [r3, #0]
 8002ffa:	f003 0308 	and.w	r3, r3, #8
 8002ffe:	2b00      	cmp	r3, #0
 8003000:	d009      	beq.n	8003016 <HAL_RCC_ClockConfig+0x186>
  {
    assert_param(IS_RCC_PCLK(RCC_ClkInitStruct->APB2CLKDivider));
    MODIFY_REG(RCC->CFGR, RCC_CFGR_PPRE2, ((RCC_ClkInitStruct->APB2CLKDivider) << 3U));
 8003002:	4b12      	ldr	r3, [pc, #72]	; (800304c <HAL_RCC_ClockConfig+0x1bc>)
 8003004:	689b      	ldr	r3, [r3, #8]
 8003006:	f423 4260 	bic.w	r2, r3, #57344	; 0xe000
 800300a:	687b      	ldr	r3, [r7, #4]
 800300c:	691b      	ldr	r3, [r3, #16]
 800300e:	00db      	lsls	r3, r3, #3
 8003010:	490e      	ldr	r1, [pc, #56]	; (800304c <HAL_RCC_ClockConfig+0x1bc>)
 8003012:	4313      	orrs	r3, r2
 8003014:	608b      	str	r3, [r1, #8]
  }

  /* Update the SystemCoreClock global variable */
  SystemCoreClock = HAL_RCC_GetSysClockFreq() >> AHBPrescTable[(RCC->CFGR & RCC_CFGR_HPRE)>> RCC_CFGR_HPRE_Pos];
 8003016:	f000 f855 	bl	80030c4 <HAL_RCC_GetSysClockFreq>
 800301a:	4601      	mov	r1, r0
 800301c:	4b0b      	ldr	r3, [pc, #44]	; (800304c <HAL_RCC_ClockConfig+0x1bc>)
 800301e:	689b      	ldr	r3, [r3, #8]
 8003020:	091b      	lsrs	r3, r3, #4
 8003022:	f003 030f 	and.w	r3, r3, #15
 8003026:	4a0a      	ldr	r2, [pc, #40]	; (8003050 <HAL_RCC_ClockConfig+0x1c0>)
 8003028:	5cd3      	ldrb	r3, [r2, r3]
 800302a:	fa21 f303 	lsr.w	r3, r1, r3
 800302e:	4a09      	ldr	r2, [pc, #36]	; (8003054 <HAL_RCC_ClockConfig+0x1c4>)
 8003030:	6013      	str	r3, [r2, #0]

  /* Configure the source of time base considering new system clocks settings */
  HAL_InitTick (uwTickPrio);
 8003032:	4b09      	ldr	r3, [pc, #36]	; (8003058 <HAL_RCC_ClockConfig+0x1c8>)
 8003034:	681b      	ldr	r3, [r3, #0]
 8003036:	4618      	mov	r0, r3
 8003038:	f7fe fc28 	bl	800188c <HAL_InitTick>

  return HAL_OK;
 800303c:	2300      	movs	r3, #0
}
 800303e:	4618      	mov	r0, r3
 8003040:	3710      	adds	r7, #16
 8003042:	46bd      	mov	sp, r7
 8003044:	bd80      	pop	{r7, pc}
 8003046:	bf00      	nop
 8003048:	40023c00 	.word	0x40023c00
 800304c:	40023800 	.word	0x40023800
 8003050:	0800630c 	.word	0x0800630c
 8003054:	20000000 	.word	0x20000000
 8003058:	20000004 	.word	0x20000004

0800305c <HAL_RCC_GetHCLKFreq>:
  * @note   The SystemCoreClock CMSIS variable is used to store System Clock Frequency
  *         and updated within this function
  * @retval HCLK frequency
  */
uint32_t HAL_RCC_GetHCLKFreq(void)
{
 800305c:	b480      	push	{r7}
 800305e:	af00      	add	r7, sp, #0
  return SystemCoreClock;
 8003060:	4b03      	ldr	r3, [pc, #12]	; (8003070 <HAL_RCC_GetHCLKFreq+0x14>)
 8003062:	681b      	ldr	r3, [r3, #0]
}
 8003064:	4618      	mov	r0, r3
 8003066:	46bd      	mov	sp, r7
 8003068:	f85d 7b04 	ldr.w	r7, [sp], #4
 800306c:	4770      	bx	lr
 800306e:	bf00      	nop
 8003070:	20000000 	.word	0x20000000

08003074 <HAL_RCC_GetPCLK1Freq>:
  * @note   Each time PCLK1 changes, this function must be called to update the
  *         right PCLK1 value. Otherwise, any configuration based on this function will be incorrect.
  * @retval PCLK1 frequency
  */
uint32_t HAL_RCC_GetPCLK1Freq(void)
{
 8003074:	b580      	push	{r7, lr}
 8003076:	af00      	add	r7, sp, #0
  /* Get HCLK source and Compute PCLK1 frequency ---------------------------*/
  return (HAL_RCC_GetHCLKFreq() >> APBPrescTable[(RCC->CFGR & RCC_CFGR_PPRE1)>> RCC_CFGR_PPRE1_Pos]);
 8003078:	f7ff fff0 	bl	800305c <HAL_RCC_GetHCLKFreq>
 800307c:	4601      	mov	r1, r0
 800307e:	4b05      	ldr	r3, [pc, #20]	; (8003094 <HAL_RCC_GetPCLK1Freq+0x20>)
 8003080:	689b      	ldr	r3, [r3, #8]
 8003082:	0a9b      	lsrs	r3, r3, #10
 8003084:	f003 0307 	and.w	r3, r3, #7
 8003088:	4a03      	ldr	r2, [pc, #12]	; (8003098 <HAL_RCC_GetPCLK1Freq+0x24>)
 800308a:	5cd3      	ldrb	r3, [r2, r3]
 800308c:	fa21 f303 	lsr.w	r3, r1, r3
}
 8003090:	4618      	mov	r0, r3
 8003092:	bd80      	pop	{r7, pc}
 8003094:	40023800 	.word	0x40023800
 8003098:	0800631c 	.word	0x0800631c

0800309c <HAL_RCC_GetPCLK2Freq>:
  * @note   Each time PCLK2 changes, this function must be called to update the
  *         right PCLK2 value. Otherwise, any configuration based on this function will be incorrect.
  * @retval PCLK2 frequency
  */
uint32_t HAL_RCC_GetPCLK2Freq(void)
{
 800309c:	b580      	push	{r7, lr}
 800309e:	af00      	add	r7, sp, #0
  /* Get HCLK source and Compute PCLK2 frequency ---------------------------*/
  return (HAL_RCC_GetHCLKFreq()>> APBPrescTable[(RCC->CFGR & RCC_CFGR_PPRE2)>> RCC_CFGR_PPRE2_Pos]);
 80030a0:	f7ff ffdc 	bl	800305c <HAL_RCC_GetHCLKFreq>
 80030a4:	4601      	mov	r1, r0
 80030a6:	4b05      	ldr	r3, [pc, #20]	; (80030bc <HAL_RCC_GetPCLK2Freq+0x20>)
 80030a8:	689b      	ldr	r3, [r3, #8]
 80030aa:	0b5b      	lsrs	r3, r3, #13
 80030ac:	f003 0307 	and.w	r3, r3, #7
 80030b0:	4a03      	ldr	r2, [pc, #12]	; (80030c0 <HAL_RCC_GetPCLK2Freq+0x24>)
 80030b2:	5cd3      	ldrb	r3, [r2, r3]
 80030b4:	fa21 f303 	lsr.w	r3, r1, r3
}
 80030b8:	4618      	mov	r0, r3
 80030ba:	bd80      	pop	{r7, pc}
 80030bc:	40023800 	.word	0x40023800
 80030c0:	0800631c 	.word	0x0800631c

080030c4 <HAL_RCC_GetSysClockFreq>:
  *
  *
  * @retval SYSCLK frequency
  */
uint32_t HAL_RCC_GetSysClockFreq(void)
{
 80030c4:	b5f0      	push	{r4, r5, r6, r7, lr}
 80030c6:	b087      	sub	sp, #28
 80030c8:	af00      	add	r7, sp, #0
  uint32_t pllm = 0U;
 80030ca:	2300      	movs	r3, #0
 80030cc:	60fb      	str	r3, [r7, #12]
  uint32_t pllvco = 0U;
 80030ce:	2300      	movs	r3, #0
 80030d0:	617b      	str	r3, [r7, #20]
  uint32_t pllp = 0U;
 80030d2:	2300      	movs	r3, #0
 80030d4:	60bb      	str	r3, [r7, #8]
  uint32_t pllr = 0U;
 80030d6:	2300      	movs	r3, #0
 80030d8:	607b      	str	r3, [r7, #4]
  uint32_t sysclockfreq = 0U;
 80030da:	2300      	movs	r3, #0
 80030dc:	613b      	str	r3, [r7, #16]

  /* Get SYSCLK source -------------------------------------------------------*/
  switch (RCC->CFGR & RCC_CFGR_SWS)
 80030de:	4bc6      	ldr	r3, [pc, #792]	; (80033f8 <HAL_RCC_GetSysClockFreq+0x334>)
 80030e0:	689b      	ldr	r3, [r3, #8]
 80030e2:	f003 030c 	and.w	r3, r3, #12
 80030e6:	2b0c      	cmp	r3, #12
 80030e8:	f200 817e 	bhi.w	80033e8 <HAL_RCC_GetSysClockFreq+0x324>
 80030ec:	a201      	add	r2, pc, #4	; (adr r2, 80030f4 <HAL_RCC_GetSysClockFreq+0x30>)
 80030ee:	f852 f023 	ldr.w	pc, [r2, r3, lsl #2]
 80030f2:	bf00      	nop
 80030f4:	08003129 	.word	0x08003129
 80030f8:	080033e9 	.word	0x080033e9
 80030fc:	080033e9 	.word	0x080033e9
 8003100:	080033e9 	.word	0x080033e9
 8003104:	0800312f 	.word	0x0800312f
 8003108:	080033e9 	.word	0x080033e9
 800310c:	080033e9 	.word	0x080033e9
 8003110:	080033e9 	.word	0x080033e9
 8003114:	08003135 	.word	0x08003135
 8003118:	080033e9 	.word	0x080033e9
 800311c:	080033e9 	.word	0x080033e9
 8003120:	080033e9 	.word	0x080033e9
 8003124:	08003291 	.word	0x08003291
  {
    case RCC_CFGR_SWS_HSI:  /* HSI used as system clock source */
    {
      sysclockfreq = HSI_VALUE;
 8003128:	4bb4      	ldr	r3, [pc, #720]	; (80033fc <HAL_RCC_GetSysClockFreq+0x338>)
 800312a:	613b      	str	r3, [r7, #16]
       break;
 800312c:	e15f      	b.n	80033ee <HAL_RCC_GetSysClockFreq+0x32a>
    }
    case RCC_CFGR_SWS_HSE:  /* HSE used as system clock  source */
    {
      sysclockfreq = HSE_VALUE;
 800312e:	4bb4      	ldr	r3, [pc, #720]	; (8003400 <HAL_RCC_GetSysClockFreq+0x33c>)
 8003130:	613b      	str	r3, [r7, #16]
      break;
 8003132:	e15c      	b.n	80033ee <HAL_RCC_GetSysClockFreq+0x32a>
    }
    case RCC_CFGR_SWS_PLL:  /* PLL/PLLP used as system clock  source */
    {
      /* PLL_VCO = (HSE_VALUE or HSI_VALUE / PLLM) * PLLN
      SYSCLK = PLL_VCO / PLLP */
      pllm = RCC->PLLCFGR & RCC_PLLCFGR_PLLM;
 8003134:	4bb0      	ldr	r3, [pc, #704]	; (80033f8 <HAL_RCC_GetSysClockFreq+0x334>)
 8003136:	685b      	ldr	r3, [r3, #4]
 8003138:	f003 033f 	and.w	r3, r3, #63	; 0x3f
 800313c:	60fb      	str	r3, [r7, #12]
      if(__HAL_RCC_GET_PLL_OSCSOURCE() != RCC_PLLSOURCE_HSI)
 800313e:	4bae      	ldr	r3, [pc, #696]	; (80033f8 <HAL_RCC_GetSysClockFreq+0x334>)
 8003140:	685b      	ldr	r3, [r3, #4]
 8003142:	f403 0380 	and.w	r3, r3, #4194304	; 0x400000
 8003146:	2b00      	cmp	r3, #0
 8003148:	d04a      	beq.n	80031e0 <HAL_RCC_GetSysClockFreq+0x11c>
      {
        /* HSE used as PLL clock source */
        pllvco = (uint32_t) ((((uint64_t) HSE_VALUE * ((uint64_t) ((RCC->PLLCFGR & RCC_PLLCFGR_PLLN) >> RCC_PLLCFGR_PLLN_Pos)))) / (uint64_t)pllm);
 800314a:	4bab      	ldr	r3, [pc, #684]	; (80033f8 <HAL_RCC_GetSysClockFreq+0x334>)
 800314c:	685b      	ldr	r3, [r3, #4]
 800314e:	099b      	lsrs	r3, r3, #6
 8003150:	f04f 0400 	mov.w	r4, #0
 8003154:	f240 11ff 	movw	r1, #511	; 0x1ff
 8003158:	f04f 0200 	mov.w	r2, #0
 800315c:	ea03 0501 	and.w	r5, r3, r1
 8003160:	ea04 0602 	and.w	r6, r4, r2
 8003164:	4629      	mov	r1, r5
 8003166:	4632      	mov	r2, r6
 8003168:	f04f 0300 	mov.w	r3, #0
 800316c:	f04f 0400 	mov.w	r4, #0
 8003170:	0154      	lsls	r4, r2, #5
 8003172:	ea44 64d1 	orr.w	r4, r4, r1, lsr #27
 8003176:	014b      	lsls	r3, r1, #5
 8003178:	4619      	mov	r1, r3
 800317a:	4622      	mov	r2, r4
 800317c:	1b49      	subs	r1, r1, r5
 800317e:	eb62 0206 	sbc.w	r2, r2, r6
 8003182:	f04f 0300 	mov.w	r3, #0
 8003186:	f04f 0400 	mov.w	r4, #0
 800318a:	0194      	lsls	r4, r2, #6
 800318c:	ea44 6491 	orr.w	r4, r4, r1, lsr #26
 8003190:	018b      	lsls	r3, r1, #6
 8003192:	1a5b      	subs	r3, r3, r1
 8003194:	eb64 0402 	sbc.w	r4, r4, r2
 8003198:	f04f 0100 	mov.w	r1, #0
 800319c:	f04f 0200 	mov.w	r2, #0
 80031a0:	00e2      	lsls	r2, r4, #3
 80031a2:	ea42 7253 	orr.w	r2, r2, r3, lsr #29
 80031a6:	00d9      	lsls	r1, r3, #3
 80031a8:	460b      	mov	r3, r1
 80031aa:	4614      	mov	r4, r2
 80031ac:	195b      	adds	r3, r3, r5
 80031ae:	eb44 0406 	adc.w	r4, r4, r6
 80031b2:	f04f 0100 	mov.w	r1, #0
 80031b6:	f04f 0200 	mov.w	r2, #0
 80031ba:	0262      	lsls	r2, r4, #9
 80031bc:	ea42 52d3 	orr.w	r2, r2, r3, lsr #23
 80031c0:	0259      	lsls	r1, r3, #9
 80031c2:	460b      	mov	r3, r1
 80031c4:	4614      	mov	r4, r2
 80031c6:	4618      	mov	r0, r3
 80031c8:	4621      	mov	r1, r4
 80031ca:	68fb      	ldr	r3, [r7, #12]
 80031cc:	f04f 0400 	mov.w	r4, #0
 80031d0:	461a      	mov	r2, r3
 80031d2:	4623      	mov	r3, r4
 80031d4:	f7fd fd58 	bl	8000c88 <__aeabi_uldivmod>
 80031d8:	4603      	mov	r3, r0
 80031da:	460c      	mov	r4, r1
 80031dc:	617b      	str	r3, [r7, #20]
 80031de:	e049      	b.n	8003274 <HAL_RCC_GetSysClockFreq+0x1b0>
      }
      else
      {
        /* HSI used as PLL clock source */
        pllvco = (uint32_t) ((((uint64_t) HSI_VALUE * ((uint64_t) ((RCC->PLLCFGR & RCC_PLLCFGR_PLLN) >> RCC_PLLCFGR_PLLN_Pos)))) / (uint64_t)pllm);
 80031e0:	4b85      	ldr	r3, [pc, #532]	; (80033f8 <HAL_RCC_GetSysClockFreq+0x334>)
 80031e2:	685b      	ldr	r3, [r3, #4]
 80031e4:	099b      	lsrs	r3, r3, #6
 80031e6:	f04f 0400 	mov.w	r4, #0
 80031ea:	f240 11ff 	movw	r1, #511	; 0x1ff
 80031ee:	f04f 0200 	mov.w	r2, #0
 80031f2:	ea03 0501 	and.w	r5, r3, r1
 80031f6:	ea04 0602 	and.w	r6, r4, r2
 80031fa:	4629      	mov	r1, r5
 80031fc:	4632      	mov	r2, r6
 80031fe:	f04f 0300 	mov.w	r3, #0
 8003202:	f04f 0400 	mov.w	r4, #0
 8003206:	0154      	lsls	r4, r2, #5
 8003208:	ea44 64d1 	orr.w	r4, r4, r1, lsr #27
 800320c:	014b      	lsls	r3, r1, #5
 800320e:	4619      	mov	r1, r3
 8003210:	4622      	mov	r2, r4
 8003212:	1b49      	subs	r1, r1, r5
 8003214:	eb62 0206 	sbc.w	r2, r2, r6
 8003218:	f04f 0300 	mov.w	r3, #0
 800321c:	f04f 0400 	mov.w	r4, #0
 8003220:	0194      	lsls	r4, r2, #6
 8003222:	ea44 6491 	orr.w	r4, r4, r1, lsr #26
 8003226:	018b      	lsls	r3, r1, #6
 8003228:	1a5b      	subs	r3, r3, r1
 800322a:	eb64 0402 	sbc.w	r4, r4, r2
 800322e:	f04f 0100 	mov.w	r1, #0
 8003232:	f04f 0200 	mov.w	r2, #0
 8003236:	00e2      	lsls	r2, r4, #3
 8003238:	ea42 7253 	orr.w	r2, r2, r3, lsr #29
 800323c:	00d9      	lsls	r1, r3, #3
 800323e:	460b      	mov	r3, r1
 8003240:	4614      	mov	r4, r2
 8003242:	195b      	adds	r3, r3, r5
 8003244:	eb44 0406 	adc.w	r4, r4, r6
 8003248:	f04f 0100 	mov.w	r1, #0
 800324c:	f04f 0200 	mov.w	r2, #0
 8003250:	02a2      	lsls	r2, r4, #10
 8003252:	ea42 5293 	orr.w	r2, r2, r3, lsr #22
 8003256:	0299      	lsls	r1, r3, #10
 8003258:	460b      	mov	r3, r1
 800325a:	4614      	mov	r4, r2
 800325c:	4618      	mov	r0, r3
 800325e:	4621      	mov	r1, r4
 8003260:	68fb      	ldr	r3, [r7, #12]
 8003262:	f04f 0400 	mov.w	r4, #0
 8003266:	461a      	mov	r2, r3
 8003268:	4623      	mov	r3, r4
 800326a:	f7fd fd0d 	bl	8000c88 <__aeabi_uldivmod>
 800326e:	4603      	mov	r3, r0
 8003270:	460c      	mov	r4, r1
 8003272:	617b      	str	r3, [r7, #20]
      }
      pllp = ((((RCC->PLLCFGR & RCC_PLLCFGR_PLLP) >> RCC_PLLCFGR_PLLP_Pos) + 1U) *2U);
 8003274:	4b60      	ldr	r3, [pc, #384]	; (80033f8 <HAL_RCC_GetSysClockFreq+0x334>)
 8003276:	685b      	ldr	r3, [r3, #4]
 8003278:	0c1b      	lsrs	r3, r3, #16
 800327a:	f003 0303 	and.w	r3, r3, #3
 800327e:	3301      	adds	r3, #1
 8003280:	005b      	lsls	r3, r3, #1
 8003282:	60bb      	str	r3, [r7, #8]

      sysclockfreq = pllvco/pllp;
 8003284:	697a      	ldr	r2, [r7, #20]
 8003286:	68bb      	ldr	r3, [r7, #8]
 8003288:	fbb2 f3f3 	udiv	r3, r2, r3
 800328c:	613b      	str	r3, [r7, #16]
      break;
 800328e:	e0ae      	b.n	80033ee <HAL_RCC_GetSysClockFreq+0x32a>
    }
    case RCC_CFGR_SWS_PLLR:  /* PLL/PLLR used as system clock  source */
    {
      /* PLL_VCO = (HSE_VALUE or HSI_VALUE / PLLM) * PLLN
      SYSCLK = PLL_VCO / PLLR */
      pllm = RCC->PLLCFGR & RCC_PLLCFGR_PLLM;
 8003290:	4b59      	ldr	r3, [pc, #356]	; (80033f8 <HAL_RCC_GetSysClockFreq+0x334>)
 8003292:	685b      	ldr	r3, [r3, #4]
 8003294:	f003 033f 	and.w	r3, r3, #63	; 0x3f
 8003298:	60fb      	str	r3, [r7, #12]
      if(__HAL_RCC_GET_PLL_OSCSOURCE() != RCC_PLLSOURCE_HSI)
 800329a:	4b57      	ldr	r3, [pc, #348]	; (80033f8 <HAL_RCC_GetSysClockFreq+0x334>)
 800329c:	685b      	ldr	r3, [r3, #4]
 800329e:	f403 0380 	and.w	r3, r3, #4194304	; 0x400000
 80032a2:	2b00      	cmp	r3, #0
 80032a4:	d04a      	beq.n	800333c <HAL_RCC_GetSysClockFreq+0x278>
      {
        /* HSE used as PLL clock source */
        pllvco = (uint32_t) ((((uint64_t) HSE_VALUE * ((uint64_t) ((RCC->PLLCFGR & RCC_PLLCFGR_PLLN) >> RCC_PLLCFGR_PLLN_Pos)))) / (uint64_t)pllm);
 80032a6:	4b54      	ldr	r3, [pc, #336]	; (80033f8 <HAL_RCC_GetSysClockFreq+0x334>)
 80032a8:	685b      	ldr	r3, [r3, #4]
 80032aa:	099b      	lsrs	r3, r3, #6
 80032ac:	f04f 0400 	mov.w	r4, #0
 80032b0:	f240 11ff 	movw	r1, #511	; 0x1ff
 80032b4:	f04f 0200 	mov.w	r2, #0
 80032b8:	ea03 0501 	and.w	r5, r3, r1
 80032bc:	ea04 0602 	and.w	r6, r4, r2
 80032c0:	4629      	mov	r1, r5
 80032c2:	4632      	mov	r2, r6
 80032c4:	f04f 0300 	mov.w	r3, #0
 80032c8:	f04f 0400 	mov.w	r4, #0
 80032cc:	0154      	lsls	r4, r2, #5
 80032ce:	ea44 64d1 	orr.w	r4, r4, r1, lsr #27
 80032d2:	014b      	lsls	r3, r1, #5
 80032d4:	4619      	mov	r1, r3
 80032d6:	4622      	mov	r2, r4
 80032d8:	1b49      	subs	r1, r1, r5
 80032da:	eb62 0206 	sbc.w	r2, r2, r6
 80032de:	f04f 0300 	mov.w	r3, #0
 80032e2:	f04f 0400 	mov.w	r4, #0
 80032e6:	0194      	lsls	r4, r2, #6
 80032e8:	ea44 6491 	orr.w	r4, r4, r1, lsr #26
 80032ec:	018b      	lsls	r3, r1, #6
 80032ee:	1a5b      	subs	r3, r3, r1
 80032f0:	eb64 0402 	sbc.w	r4, r4, r2
 80032f4:	f04f 0100 	mov.w	r1, #0
 80032f8:	f04f 0200 	mov.w	r2, #0
 80032fc:	00e2      	lsls	r2, r4, #3
 80032fe:	ea42 7253 	orr.w	r2, r2, r3, lsr #29
 8003302:	00d9      	lsls	r1, r3, #3
 8003304:	460b      	mov	r3, r1
 8003306:	4614      	mov	r4, r2
 8003308:	195b      	adds	r3, r3, r5
 800330a:	eb44 0406 	adc.w	r4, r4, r6
 800330e:	f04f 0100 	mov.w	r1, #0
 8003312:	f04f 0200 	mov.w	r2, #0
 8003316:	0262      	lsls	r2, r4, #9
 8003318:	ea42 52d3 	orr.w	r2, r2, r3, lsr #23
 800331c:	0259      	lsls	r1, r3, #9
 800331e:	460b      	mov	r3, r1
 8003320:	4614      	mov	r4, r2
 8003322:	4618      	mov	r0, r3
 8003324:	4621      	mov	r1, r4
 8003326:	68fb      	ldr	r3, [r7, #12]
 8003328:	f04f 0400 	mov.w	r4, #0
 800332c:	461a      	mov	r2, r3
 800332e:	4623      	mov	r3, r4
 8003330:	f7fd fcaa 	bl	8000c88 <__aeabi_uldivmod>
 8003334:	4603      	mov	r3, r0
 8003336:	460c      	mov	r4, r1
 8003338:	617b      	str	r3, [r7, #20]
 800333a:	e049      	b.n	80033d0 <HAL_RCC_GetSysClockFreq+0x30c>
      }
      else
      {
        /* HSI used as PLL clock source */
        pllvco = (uint32_t) ((((uint64_t) HSI_VALUE * ((uint64_t) ((RCC->PLLCFGR & RCC_PLLCFGR_PLLN) >> RCC_PLLCFGR_PLLN_Pos)))) / (uint64_t)pllm);
 800333c:	4b2e      	ldr	r3, [pc, #184]	; (80033f8 <HAL_RCC_GetSysClockFreq+0x334>)
 800333e:	685b      	ldr	r3, [r3, #4]
 8003340:	099b      	lsrs	r3, r3, #6
 8003342:	f04f 0400 	mov.w	r4, #0
 8003346:	f240 11ff 	movw	r1, #511	; 0x1ff
 800334a:	f04f 0200 	mov.w	r2, #0
 800334e:	ea03 0501 	and.w	r5, r3, r1
 8003352:	ea04 0602 	and.w	r6, r4, r2
 8003356:	4629      	mov	r1, r5
 8003358:	4632      	mov	r2, r6
 800335a:	f04f 0300 	mov.w	r3, #0
 800335e:	f04f 0400 	mov.w	r4, #0
 8003362:	0154      	lsls	r4, r2, #5
 8003364:	ea44 64d1 	orr.w	r4, r4, r1, lsr #27
 8003368:	014b      	lsls	r3, r1, #5
 800336a:	4619      	mov	r1, r3
 800336c:	4622      	mov	r2, r4
 800336e:	1b49      	subs	r1, r1, r5
 8003370:	eb62 0206 	sbc.w	r2, r2, r6
 8003374:	f04f 0300 	mov.w	r3, #0
 8003378:	f04f 0400 	mov.w	r4, #0
 800337c:	0194      	lsls	r4, r2, #6
 800337e:	ea44 6491 	orr.w	r4, r4, r1, lsr #26
 8003382:	018b      	lsls	r3, r1, #6
 8003384:	1a5b      	subs	r3, r3, r1
 8003386:	eb64 0402 	sbc.w	r4, r4, r2
 800338a:	f04f 0100 	mov.w	r1, #0
 800338e:	f04f 0200 	mov.w	r2, #0
 8003392:	00e2      	lsls	r2, r4, #3
 8003394:	ea42 7253 	orr.w	r2, r2, r3, lsr #29
 8003398:	00d9      	lsls	r1, r3, #3
 800339a:	460b      	mov	r3, r1
 800339c:	4614      	mov	r4, r2
 800339e:	195b      	adds	r3, r3, r5
 80033a0:	eb44 0406 	adc.w	r4, r4, r6
 80033a4:	f04f 0100 	mov.w	r1, #0
 80033a8:	f04f 0200 	mov.w	r2, #0
 80033ac:	02a2      	lsls	r2, r4, #10
 80033ae:	ea42 5293 	orr.w	r2, r2, r3, lsr #22
 80033b2:	0299      	lsls	r1, r3, #10
 80033b4:	460b      	mov	r3, r1
 80033b6:	4614      	mov	r4, r2
 80033b8:	4618      	mov	r0, r3
 80033ba:	4621      	mov	r1, r4
 80033bc:	68fb      	ldr	r3, [r7, #12]
 80033be:	f04f 0400 	mov.w	r4, #0
 80033c2:	461a      	mov	r2, r3
 80033c4:	4623      	mov	r3, r4
 80033c6:	f7fd fc5f 	bl	8000c88 <__aeabi_uldivmod>
 80033ca:	4603      	mov	r3, r0
 80033cc:	460c      	mov	r4, r1
 80033ce:	617b      	str	r3, [r7, #20]
      }
      pllr = ((RCC->PLLCFGR & RCC_PLLCFGR_PLLR) >> RCC_PLLCFGR_PLLR_Pos);
 80033d0:	4b09      	ldr	r3, [pc, #36]	; (80033f8 <HAL_RCC_GetSysClockFreq+0x334>)
 80033d2:	685b      	ldr	r3, [r3, #4]
 80033d4:	0f1b      	lsrs	r3, r3, #28
 80033d6:	f003 0307 	and.w	r3, r3, #7
 80033da:	607b      	str	r3, [r7, #4]

      sysclockfreq = pllvco/pllr;
 80033dc:	697a      	ldr	r2, [r7, #20]
 80033de:	687b      	ldr	r3, [r7, #4]
 80033e0:	fbb2 f3f3 	udiv	r3, r2, r3
 80033e4:	613b      	str	r3, [r7, #16]
      break;
 80033e6:	e002      	b.n	80033ee <HAL_RCC_GetSysClockFreq+0x32a>
    }
    default:
    {
      sysclockfreq = HSI_VALUE;
 80033e8:	4b04      	ldr	r3, [pc, #16]	; (80033fc <HAL_RCC_GetSysClockFreq+0x338>)
 80033ea:	613b      	str	r3, [r7, #16]
      break;
 80033ec:	bf00      	nop
    }
  }
  return sysclockfreq;
 80033ee:	693b      	ldr	r3, [r7, #16]
}
 80033f0:	4618      	mov	r0, r3
 80033f2:	371c      	adds	r7, #28
 80033f4:	46bd      	mov	sp, r7
 80033f6:	bdf0      	pop	{r4, r5, r6, r7, pc}
 80033f8:	40023800 	.word	0x40023800
 80033fc:	00f42400 	.word	0x00f42400
 8003400:	007a1200 	.word	0x007a1200

08003404 <HAL_RCC_OscConfig>:
  * @note   This function add the PLL/PLLR factor management during PLL configuration this feature
  *         is only available in STM32F410xx/STM32F446xx/STM32F469xx/STM32F479xx/STM32F412Zx/STM32F412Vx/STM32F412Rx/STM32F412Cx devices
  * @retval HAL status
  */
HAL_StatusTypeDef HAL_RCC_OscConfig(RCC_OscInitTypeDef  *RCC_OscInitStruct)
{
 8003404:	b580      	push	{r7, lr}
 8003406:	b086      	sub	sp, #24
 8003408:	af00      	add	r7, sp, #0
 800340a:	6078      	str	r0, [r7, #4]
  uint32_t tickstart = 0U;
 800340c:	2300      	movs	r3, #0
 800340e:	613b      	str	r3, [r7, #16]

  /* Check the parameters */
  assert_param(IS_RCC_OSCILLATORTYPE(RCC_OscInitStruct->OscillatorType));
  /*------------------------------- HSE Configuration ------------------------*/
  if(((RCC_OscInitStruct->OscillatorType) & RCC_OSCILLATORTYPE_HSE) == RCC_OSCILLATORTYPE_HSE)
 8003410:	687b      	ldr	r3, [r7, #4]
 8003412:	681b      	ldr	r3, [r3, #0]
 8003414:	f003 0301 	and.w	r3, r3, #1
 8003418:	2b00      	cmp	r3, #0
 800341a:	f000 8083 	beq.w	8003524 <HAL_RCC_OscConfig+0x120>
  {
    /* Check the parameters */
    assert_param(IS_RCC_HSE(RCC_OscInitStruct->HSEState));
    /* When the HSE is used as system clock or clock source for PLL in these cases HSE will not disabled */
#if defined(STM32F446xx)
    if((__HAL_RCC_GET_SYSCLK_SOURCE() == RCC_CFGR_SWS_HSE)                                                                     ||\
 800341e:	4b95      	ldr	r3, [pc, #596]	; (8003674 <HAL_RCC_OscConfig+0x270>)
 8003420:	689b      	ldr	r3, [r3, #8]
 8003422:	f003 030c 	and.w	r3, r3, #12
 8003426:	2b04      	cmp	r3, #4
 8003428:	d019      	beq.n	800345e <HAL_RCC_OscConfig+0x5a>
      ((__HAL_RCC_GET_SYSCLK_SOURCE() == RCC_CFGR_SWS_PLL) && ((RCC->PLLCFGR & RCC_PLLCFGR_PLLSRC) == RCC_PLLCFGR_PLLSRC_HSE)) ||\
 800342a:	4b92      	ldr	r3, [pc, #584]	; (8003674 <HAL_RCC_OscConfig+0x270>)
 800342c:	689b      	ldr	r3, [r3, #8]
 800342e:	f003 030c 	and.w	r3, r3, #12
    if((__HAL_RCC_GET_SYSCLK_SOURCE() == RCC_CFGR_SWS_HSE)                                                                     ||\
 8003432:	2b08      	cmp	r3, #8
 8003434:	d106      	bne.n	8003444 <HAL_RCC_OscConfig+0x40>
      ((__HAL_RCC_GET_SYSCLK_SOURCE() == RCC_CFGR_SWS_PLL) && ((RCC->PLLCFGR & RCC_PLLCFGR_PLLSRC) == RCC_PLLCFGR_PLLSRC_HSE)) ||\
 8003436:	4b8f      	ldr	r3, [pc, #572]	; (8003674 <HAL_RCC_OscConfig+0x270>)
 8003438:	685b      	ldr	r3, [r3, #4]
 800343a:	f403 0380 	and.w	r3, r3, #4194304	; 0x400000
 800343e:	f5b3 0f80 	cmp.w	r3, #4194304	; 0x400000
 8003442:	d00c      	beq.n	800345e <HAL_RCC_OscConfig+0x5a>
      ((__HAL_RCC_GET_SYSCLK_SOURCE() == RCC_CFGR_SWS_PLLR) && ((RCC->PLLCFGR & RCC_PLLCFGR_PLLSRC) == RCC_PLLCFGR_PLLSRC_HSE)))
 8003444:	4b8b      	ldr	r3, [pc, #556]	; (8003674 <HAL_RCC_OscConfig+0x270>)
 8003446:	689b      	ldr	r3, [r3, #8]
 8003448:	f003 030c 	and.w	r3, r3, #12
      ((__HAL_RCC_GET_SYSCLK_SOURCE() == RCC_CFGR_SWS_PLL) && ((RCC->PLLCFGR & RCC_PLLCFGR_PLLSRC) == RCC_PLLCFGR_PLLSRC_HSE)) ||\
 800344c:	2b0c      	cmp	r3, #12
 800344e:	d112      	bne.n	8003476 <HAL_RCC_OscConfig+0x72>
      ((__HAL_RCC_GET_SYSCLK_SOURCE() == RCC_CFGR_SWS_PLLR) && ((RCC->PLLCFGR & RCC_PLLCFGR_PLLSRC) == RCC_PLLCFGR_PLLSRC_HSE)))
 8003450:	4b88      	ldr	r3, [pc, #544]	; (8003674 <HAL_RCC_OscConfig+0x270>)
 8003452:	685b      	ldr	r3, [r3, #4]
 8003454:	f403 0380 	and.w	r3, r3, #4194304	; 0x400000
 8003458:	f5b3 0f80 	cmp.w	r3, #4194304	; 0x400000
 800345c:	d10b      	bne.n	8003476 <HAL_RCC_OscConfig+0x72>
#else
    if((__HAL_RCC_GET_SYSCLK_SOURCE() == RCC_CFGR_SWS_HSE)                                                                     ||\
      ((__HAL_RCC_GET_SYSCLK_SOURCE() == RCC_CFGR_SWS_PLL) && ((RCC->PLLCFGR & RCC_PLLCFGR_PLLSRC) == RCC_PLLCFGR_PLLSRC_HSE)))
#endif /* STM32F446xx */
    {
      if((__HAL_RCC_GET_FLAG(RCC_FLAG_HSERDY) != RESET) && (RCC_OscInitStruct->HSEState == RCC_HSE_OFF))
 800345e:	4b85      	ldr	r3, [pc, #532]	; (8003674 <HAL_RCC_OscConfig+0x270>)
 8003460:	681b      	ldr	r3, [r3, #0]
 8003462:	f403 3300 	and.w	r3, r3, #131072	; 0x20000
 8003466:	2b00      	cmp	r3, #0
 8003468:	d05b      	beq.n	8003522 <HAL_RCC_OscConfig+0x11e>
 800346a:	687b      	ldr	r3, [r7, #4]
 800346c:	685b      	ldr	r3, [r3, #4]
 800346e:	2b00      	cmp	r3, #0
 8003470:	d157      	bne.n	8003522 <HAL_RCC_OscConfig+0x11e>
      {
        return HAL_ERROR;
 8003472:	2301      	movs	r3, #1
 8003474:	e216      	b.n	80038a4 <HAL_RCC_OscConfig+0x4a0>
      }
    }
    else
    {
      /* Set the new HSE configuration ---------------------------------------*/
      __HAL_RCC_HSE_CONFIG(RCC_OscInitStruct->HSEState);
 8003476:	687b      	ldr	r3, [r7, #4]
 8003478:	685b      	ldr	r3, [r3, #4]
 800347a:	f5b3 3f80 	cmp.w	r3, #65536	; 0x10000
 800347e:	d106      	bne.n	800348e <HAL_RCC_OscConfig+0x8a>
 8003480:	4b7c      	ldr	r3, [pc, #496]	; (8003674 <HAL_RCC_OscConfig+0x270>)
 8003482:	681b      	ldr	r3, [r3, #0]
 8003484:	4a7b      	ldr	r2, [pc, #492]	; (8003674 <HAL_RCC_OscConfig+0x270>)
 8003486:	f443 3380 	orr.w	r3, r3, #65536	; 0x10000
 800348a:	6013      	str	r3, [r2, #0]
 800348c:	e01d      	b.n	80034ca <HAL_RCC_OscConfig+0xc6>
 800348e:	687b      	ldr	r3, [r7, #4]
 8003490:	685b      	ldr	r3, [r3, #4]
 8003492:	f5b3 2fa0 	cmp.w	r3, #327680	; 0x50000
 8003496:	d10c      	bne.n	80034b2 <HAL_RCC_OscConfig+0xae>
 8003498:	4b76      	ldr	r3, [pc, #472]	; (8003674 <HAL_RCC_OscConfig+0x270>)
 800349a:	681b      	ldr	r3, [r3, #0]
 800349c:	4a75      	ldr	r2, [pc, #468]	; (8003674 <HAL_RCC_OscConfig+0x270>)
 800349e:	f443 2380 	orr.w	r3, r3, #262144	; 0x40000
 80034a2:	6013      	str	r3, [r2, #0]
 80034a4:	4b73      	ldr	r3, [pc, #460]	; (8003674 <HAL_RCC_OscConfig+0x270>)
 80034a6:	681b      	ldr	r3, [r3, #0]
 80034a8:	4a72      	ldr	r2, [pc, #456]	; (8003674 <HAL_RCC_OscConfig+0x270>)
 80034aa:	f443 3380 	orr.w	r3, r3, #65536	; 0x10000
 80034ae:	6013      	str	r3, [r2, #0]
 80034b0:	e00b      	b.n	80034ca <HAL_RCC_OscConfig+0xc6>
 80034b2:	4b70      	ldr	r3, [pc, #448]	; (8003674 <HAL_RCC_OscConfig+0x270>)
 80034b4:	681b      	ldr	r3, [r3, #0]
 80034b6:	4a6f      	ldr	r2, [pc, #444]	; (8003674 <HAL_RCC_OscConfig+0x270>)
 80034b8:	f423 3380 	bic.w	r3, r3, #65536	; 0x10000
 80034bc:	6013      	str	r3, [r2, #0]
 80034be:	4b6d      	ldr	r3, [pc, #436]	; (8003674 <HAL_RCC_OscConfig+0x270>)
 80034c0:	681b      	ldr	r3, [r3, #0]
 80034c2:	4a6c      	ldr	r2, [pc, #432]	; (8003674 <HAL_RCC_OscConfig+0x270>)
 80034c4:	f423 2380 	bic.w	r3, r3, #262144	; 0x40000
 80034c8:	6013      	str	r3, [r2, #0]

      /* Check the HSE State */
      if((RCC_OscInitStruct->HSEState) != RCC_HSE_OFF)
 80034ca:	687b      	ldr	r3, [r7, #4]
 80034cc:	685b      	ldr	r3, [r3, #4]
 80034ce:	2b00      	cmp	r3, #0
 80034d0:	d013      	beq.n	80034fa <HAL_RCC_OscConfig+0xf6>
      {
        /* Get Start Tick*/
        tickstart = HAL_GetTick();
 80034d2:	f7fe fa1f 	bl	8001914 <HAL_GetTick>
 80034d6:	6138      	str	r0, [r7, #16]

        /* Wait till HSE is ready */
        while(__HAL_RCC_GET_FLAG(RCC_FLAG_HSERDY) == RESET)
 80034d8:	e008      	b.n	80034ec <HAL_RCC_OscConfig+0xe8>
        {
          if((HAL_GetTick() - tickstart ) > HSE_TIMEOUT_VALUE)
 80034da:	f7fe fa1b 	bl	8001914 <HAL_GetTick>
 80034de:	4602      	mov	r2, r0
 80034e0:	693b      	ldr	r3, [r7, #16]
 80034e2:	1ad3      	subs	r3, r2, r3
 80034e4:	2b64      	cmp	r3, #100	; 0x64
 80034e6:	d901      	bls.n	80034ec <HAL_RCC_OscConfig+0xe8>
          {
            return HAL_TIMEOUT;
 80034e8:	2303      	movs	r3, #3
 80034ea:	e1db      	b.n	80038a4 <HAL_RCC_OscConfig+0x4a0>
        while(__HAL_RCC_GET_FLAG(RCC_FLAG_HSERDY) == RESET)
 80034ec:	4b61      	ldr	r3, [pc, #388]	; (8003674 <HAL_RCC_OscConfig+0x270>)
 80034ee:	681b      	ldr	r3, [r3, #0]
 80034f0:	f403 3300 	and.w	r3, r3, #131072	; 0x20000
 80034f4:	2b00      	cmp	r3, #0
 80034f6:	d0f0      	beq.n	80034da <HAL_RCC_OscConfig+0xd6>
 80034f8:	e014      	b.n	8003524 <HAL_RCC_OscConfig+0x120>
        }
      }
      else
      {
        /* Get Start Tick*/
        tickstart = HAL_GetTick();
 80034fa:	f7fe fa0b 	bl	8001914 <HAL_GetTick>
 80034fe:	6138      	str	r0, [r7, #16]

        /* Wait till HSE is bypassed or disabled */
        while(__HAL_RCC_GET_FLAG(RCC_FLAG_HSERDY) != RESET)
 8003500:	e008      	b.n	8003514 <HAL_RCC_OscConfig+0x110>
        {
          if((HAL_GetTick() - tickstart ) > HSE_TIMEOUT_VALUE)
 8003502:	f7fe fa07 	bl	8001914 <HAL_GetTick>
 8003506:	4602      	mov	r2, r0
 8003508:	693b      	ldr	r3, [r7, #16]
 800350a:	1ad3      	subs	r3, r2, r3
 800350c:	2b64      	cmp	r3, #100	; 0x64
 800350e:	d901      	bls.n	8003514 <HAL_RCC_OscConfig+0x110>
          {
            return HAL_TIMEOUT;
 8003510:	2303      	movs	r3, #3
 8003512:	e1c7      	b.n	80038a4 <HAL_RCC_OscConfig+0x4a0>
        while(__HAL_RCC_GET_FLAG(RCC_FLAG_HSERDY) != RESET)
 8003514:	4b57      	ldr	r3, [pc, #348]	; (8003674 <HAL_RCC_OscConfig+0x270>)
 8003516:	681b      	ldr	r3, [r3, #0]
 8003518:	f403 3300 	and.w	r3, r3, #131072	; 0x20000
 800351c:	2b00      	cmp	r3, #0
 800351e:	d1f0      	bne.n	8003502 <HAL_RCC_OscConfig+0xfe>
 8003520:	e000      	b.n	8003524 <HAL_RCC_OscConfig+0x120>
      if((__HAL_RCC_GET_FLAG(RCC_FLAG_HSERDY) != RESET) && (RCC_OscInitStruct->HSEState == RCC_HSE_OFF))
 8003522:	bf00      	nop
        }
      }
    }
  }
  /*----------------------------- HSI Configuration --------------------------*/
  if(((RCC_OscInitStruct->OscillatorType) & RCC_OSCILLATORTYPE_HSI) == RCC_OSCILLATORTYPE_HSI)
 8003524:	687b      	ldr	r3, [r7, #4]
 8003526:	681b      	ldr	r3, [r3, #0]
 8003528:	f003 0302 	and.w	r3, r3, #2
 800352c:	2b00      	cmp	r3, #0
 800352e:	d06f      	beq.n	8003610 <HAL_RCC_OscConfig+0x20c>
    assert_param(IS_RCC_HSI(RCC_OscInitStruct->HSIState));
    assert_param(IS_RCC_CALIBRATION_VALUE(RCC_OscInitStruct->HSICalibrationValue));

    /* Check if HSI is used as system clock or as PLL source when PLL is selected as system clock */
#if defined(STM32F446xx)
    if((__HAL_RCC_GET_SYSCLK_SOURCE() == RCC_CFGR_SWS_HSI)                                                                     ||\
 8003530:	4b50      	ldr	r3, [pc, #320]	; (8003674 <HAL_RCC_OscConfig+0x270>)
 8003532:	689b      	ldr	r3, [r3, #8]
 8003534:	f003 030c 	and.w	r3, r3, #12
 8003538:	2b00      	cmp	r3, #0
 800353a:	d017      	beq.n	800356c <HAL_RCC_OscConfig+0x168>
      ((__HAL_RCC_GET_SYSCLK_SOURCE() == RCC_CFGR_SWS_PLL) && ((RCC->PLLCFGR & RCC_PLLCFGR_PLLSRC) == RCC_PLLCFGR_PLLSRC_HSI)) ||\
 800353c:	4b4d      	ldr	r3, [pc, #308]	; (8003674 <HAL_RCC_OscConfig+0x270>)
 800353e:	689b      	ldr	r3, [r3, #8]
 8003540:	f003 030c 	and.w	r3, r3, #12
    if((__HAL_RCC_GET_SYSCLK_SOURCE() == RCC_CFGR_SWS_HSI)                                                                     ||\
 8003544:	2b08      	cmp	r3, #8
 8003546:	d105      	bne.n	8003554 <HAL_RCC_OscConfig+0x150>
      ((__HAL_RCC_GET_SYSCLK_SOURCE() == RCC_CFGR_SWS_PLL) && ((RCC->PLLCFGR & RCC_PLLCFGR_PLLSRC) == RCC_PLLCFGR_PLLSRC_HSI)) ||\
 8003548:	4b4a      	ldr	r3, [pc, #296]	; (8003674 <HAL_RCC_OscConfig+0x270>)
 800354a:	685b      	ldr	r3, [r3, #4]
 800354c:	f403 0380 	and.w	r3, r3, #4194304	; 0x400000
 8003550:	2b00      	cmp	r3, #0
 8003552:	d00b      	beq.n	800356c <HAL_RCC_OscConfig+0x168>
      ((__HAL_RCC_GET_SYSCLK_SOURCE() == RCC_CFGR_SWS_PLLR) && ((RCC->PLLCFGR & RCC_PLLCFGR_PLLSRC) == RCC_PLLCFGR_PLLSRC_HSI)))
 8003554:	4b47      	ldr	r3, [pc, #284]	; (8003674 <HAL_RCC_OscConfig+0x270>)
 8003556:	689b      	ldr	r3, [r3, #8]
 8003558:	f003 030c 	and.w	r3, r3, #12
      ((__HAL_RCC_GET_SYSCLK_SOURCE() == RCC_CFGR_SWS_PLL) && ((RCC->PLLCFGR & RCC_PLLCFGR_PLLSRC) == RCC_PLLCFGR_PLLSRC_HSI)) ||\
 800355c:	2b0c      	cmp	r3, #12
 800355e:	d11c      	bne.n	800359a <HAL_RCC_OscConfig+0x196>
      ((__HAL_RCC_GET_SYSCLK_SOURCE() == RCC_CFGR_SWS_PLLR) && ((RCC->PLLCFGR & RCC_PLLCFGR_PLLSRC) == RCC_PLLCFGR_PLLSRC_HSI)))
 8003560:	4b44      	ldr	r3, [pc, #272]	; (8003674 <HAL_RCC_OscConfig+0x270>)
 8003562:	685b      	ldr	r3, [r3, #4]
 8003564:	f403 0380 	and.w	r3, r3, #4194304	; 0x400000
 8003568:	2b00      	cmp	r3, #0
 800356a:	d116      	bne.n	800359a <HAL_RCC_OscConfig+0x196>
    if((__HAL_RCC_GET_SYSCLK_SOURCE() == RCC_CFGR_SWS_HSI)                                                                     ||\
      ((__HAL_RCC_GET_SYSCLK_SOURCE() == RCC_CFGR_SWS_PLL) && ((RCC->PLLCFGR & RCC_PLLCFGR_PLLSRC) == RCC_PLLCFGR_PLLSRC_HSI)))
#endif /* STM32F446xx */
    {
      /* When HSI is used as system clock it will not disabled */
      if((__HAL_RCC_GET_FLAG(RCC_FLAG_HSIRDY) != RESET) && (RCC_OscInitStruct->HSIState != RCC_HSI_ON))
 800356c:	4b41      	ldr	r3, [pc, #260]	; (8003674 <HAL_RCC_OscConfig+0x270>)
 800356e:	681b      	ldr	r3, [r3, #0]
 8003570:	f003 0302 	and.w	r3, r3, #2
 8003574:	2b00      	cmp	r3, #0
 8003576:	d005      	beq.n	8003584 <HAL_RCC_OscConfig+0x180>
 8003578:	687b      	ldr	r3, [r7, #4]
 800357a:	68db      	ldr	r3, [r3, #12]
 800357c:	2b01      	cmp	r3, #1
 800357e:	d001      	beq.n	8003584 <HAL_RCC_OscConfig+0x180>
      {
        return HAL_ERROR;
 8003580:	2301      	movs	r3, #1
 8003582:	e18f      	b.n	80038a4 <HAL_RCC_OscConfig+0x4a0>
      }
      /* Otherwise, just the calibration is allowed */
      else
      {
        /* Adjusts the Internal High Speed oscillator (HSI) calibration value.*/
        __HAL_RCC_HSI_CALIBRATIONVALUE_ADJUST(RCC_OscInitStruct->HSICalibrationValue);
 8003584:	4b3b      	ldr	r3, [pc, #236]	; (8003674 <HAL_RCC_OscConfig+0x270>)
 8003586:	681b      	ldr	r3, [r3, #0]
 8003588:	f023 02f8 	bic.w	r2, r3, #248	; 0xf8
 800358c:	687b      	ldr	r3, [r7, #4]
 800358e:	691b      	ldr	r3, [r3, #16]
 8003590:	00db      	lsls	r3, r3, #3
 8003592:	4938      	ldr	r1, [pc, #224]	; (8003674 <HAL_RCC_OscConfig+0x270>)
 8003594:	4313      	orrs	r3, r2
 8003596:	600b      	str	r3, [r1, #0]
      if((__HAL_RCC_GET_FLAG(RCC_FLAG_HSIRDY) != RESET) && (RCC_OscInitStruct->HSIState != RCC_HSI_ON))
 8003598:	e03a      	b.n	8003610 <HAL_RCC_OscConfig+0x20c>
      }
    }
    else
    {
      /* Check the HSI State */
      if((RCC_OscInitStruct->HSIState)!= RCC_HSI_OFF)
 800359a:	687b      	ldr	r3, [r7, #4]
 800359c:	68db      	ldr	r3, [r3, #12]
 800359e:	2b00      	cmp	r3, #0
 80035a0:	d020      	beq.n	80035e4 <HAL_RCC_OscConfig+0x1e0>
      {
        /* Enable the Internal High Speed oscillator (HSI). */
        __HAL_RCC_HSI_ENABLE();
 80035a2:	4b35      	ldr	r3, [pc, #212]	; (8003678 <HAL_RCC_OscConfig+0x274>)
 80035a4:	2201      	movs	r2, #1
 80035a6:	601a      	str	r2, [r3, #0]

        /* Get Start Tick*/
        tickstart = HAL_GetTick();
 80035a8:	f7fe f9b4 	bl	8001914 <HAL_GetTick>
 80035ac:	6138      	str	r0, [r7, #16]

        /* Wait till HSI is ready */
        while(__HAL_RCC_GET_FLAG(RCC_FLAG_HSIRDY) == RESET)
 80035ae:	e008      	b.n	80035c2 <HAL_RCC_OscConfig+0x1be>
        {
          if((HAL_GetTick() - tickstart ) > HSI_TIMEOUT_VALUE)
 80035b0:	f7fe f9b0 	bl	8001914 <HAL_GetTick>
 80035b4:	4602      	mov	r2, r0
 80035b6:	693b      	ldr	r3, [r7, #16]
 80035b8:	1ad3      	subs	r3, r2, r3
 80035ba:	2b02      	cmp	r3, #2
 80035bc:	d901      	bls.n	80035c2 <HAL_RCC_OscConfig+0x1be>
          {
            return HAL_TIMEOUT;
 80035be:	2303      	movs	r3, #3
 80035c0:	e170      	b.n	80038a4 <HAL_RCC_OscConfig+0x4a0>
        while(__HAL_RCC_GET_FLAG(RCC_FLAG_HSIRDY) == RESET)
 80035c2:	4b2c      	ldr	r3, [pc, #176]	; (8003674 <HAL_RCC_OscConfig+0x270>)
 80035c4:	681b      	ldr	r3, [r3, #0]
 80035c6:	f003 0302 	and.w	r3, r3, #2
 80035ca:	2b00      	cmp	r3, #0
 80035cc:	d0f0      	beq.n	80035b0 <HAL_RCC_OscConfig+0x1ac>
          }
        }

        /* Adjusts the Internal High Speed oscillator (HSI) calibration value.*/
        __HAL_RCC_HSI_CALIBRATIONVALUE_ADJUST(RCC_OscInitStruct->HSICalibrationValue);
 80035ce:	4b29      	ldr	r3, [pc, #164]	; (8003674 <HAL_RCC_OscConfig+0x270>)
 80035d0:	681b      	ldr	r3, [r3, #0]
 80035d2:	f023 02f8 	bic.w	r2, r3, #248	; 0xf8
 80035d6:	687b      	ldr	r3, [r7, #4]
 80035d8:	691b      	ldr	r3, [r3, #16]
 80035da:	00db      	lsls	r3, r3, #3
 80035dc:	4925      	ldr	r1, [pc, #148]	; (8003674 <HAL_RCC_OscConfig+0x270>)
 80035de:	4313      	orrs	r3, r2
 80035e0:	600b      	str	r3, [r1, #0]
 80035e2:	e015      	b.n	8003610 <HAL_RCC_OscConfig+0x20c>
      }
      else
      {
        /* Disable the Internal High Speed oscillator (HSI). */
        __HAL_RCC_HSI_DISABLE();
 80035e4:	4b24      	ldr	r3, [pc, #144]	; (8003678 <HAL_RCC_OscConfig+0x274>)
 80035e6:	2200      	movs	r2, #0
 80035e8:	601a      	str	r2, [r3, #0]

        /* Get Start Tick*/
        tickstart = HAL_GetTick();
 80035ea:	f7fe f993 	bl	8001914 <HAL_GetTick>
 80035ee:	6138      	str	r0, [r7, #16]

        /* Wait till HSI is ready */
        while(__HAL_RCC_GET_FLAG(RCC_FLAG_HSIRDY) != RESET)
 80035f0:	e008      	b.n	8003604 <HAL_RCC_OscConfig+0x200>
        {
          if((HAL_GetTick() - tickstart ) > HSI_TIMEOUT_VALUE)
 80035f2:	f7fe f98f 	bl	8001914 <HAL_GetTick>
 80035f6:	4602      	mov	r2, r0
 80035f8:	693b      	ldr	r3, [r7, #16]
 80035fa:	1ad3      	subs	r3, r2, r3
 80035fc:	2b02      	cmp	r3, #2
 80035fe:	d901      	bls.n	8003604 <HAL_RCC_OscConfig+0x200>
          {
            return HAL_TIMEOUT;
 8003600:	2303      	movs	r3, #3
 8003602:	e14f      	b.n	80038a4 <HAL_RCC_OscConfig+0x4a0>
        while(__HAL_RCC_GET_FLAG(RCC_FLAG_HSIRDY) != RESET)
 8003604:	4b1b      	ldr	r3, [pc, #108]	; (8003674 <HAL_RCC_OscConfig+0x270>)
 8003606:	681b      	ldr	r3, [r3, #0]
 8003608:	f003 0302 	and.w	r3, r3, #2
 800360c:	2b00      	cmp	r3, #0
 800360e:	d1f0      	bne.n	80035f2 <HAL_RCC_OscConfig+0x1ee>
        }
      }
    }
  }
  /*------------------------------ LSI Configuration -------------------------*/
  if(((RCC_OscInitStruct->OscillatorType) & RCC_OSCILLATORTYPE_LSI) == RCC_OSCILLATORTYPE_LSI)
 8003610:	687b      	ldr	r3, [r7, #4]
 8003612:	681b      	ldr	r3, [r3, #0]
 8003614:	f003 0308 	and.w	r3, r3, #8
 8003618:	2b00      	cmp	r3, #0
 800361a:	d037      	beq.n	800368c <HAL_RCC_OscConfig+0x288>
  {
    /* Check the parameters */
    assert_param(IS_RCC_LSI(RCC_OscInitStruct->LSIState));

    /* Check the LSI State */
    if((RCC_OscInitStruct->LSIState)!= RCC_LSI_OFF)
 800361c:	687b      	ldr	r3, [r7, #4]
 800361e:	695b      	ldr	r3, [r3, #20]
 8003620:	2b00      	cmp	r3, #0
 8003622:	d016      	beq.n	8003652 <HAL_RCC_OscConfig+0x24e>
    {
      /* Enable the Internal Low Speed oscillator (LSI). */
      __HAL_RCC_LSI_ENABLE();
 8003624:	4b15      	ldr	r3, [pc, #84]	; (800367c <HAL_RCC_OscConfig+0x278>)
 8003626:	2201      	movs	r2, #1
 8003628:	601a      	str	r2, [r3, #0]

      /* Get Start Tick*/
      tickstart = HAL_GetTick();
 800362a:	f7fe f973 	bl	8001914 <HAL_GetTick>
 800362e:	6138      	str	r0, [r7, #16]

      /* Wait till LSI is ready */
      while(__HAL_RCC_GET_FLAG(RCC_FLAG_LSIRDY) == RESET)
 8003630:	e008      	b.n	8003644 <HAL_RCC_OscConfig+0x240>
      {
        if((HAL_GetTick() - tickstart ) > LSI_TIMEOUT_VALUE)
 8003632:	f7fe f96f 	bl	8001914 <HAL_GetTick>
 8003636:	4602      	mov	r2, r0
 8003638:	693b      	ldr	r3, [r7, #16]
 800363a:	1ad3      	subs	r3, r2, r3
 800363c:	2b02      	cmp	r3, #2
 800363e:	d901      	bls.n	8003644 <HAL_RCC_OscConfig+0x240>
        {
          return HAL_TIMEOUT;
 8003640:	2303      	movs	r3, #3
 8003642:	e12f      	b.n	80038a4 <HAL_RCC_OscConfig+0x4a0>
      while(__HAL_RCC_GET_FLAG(RCC_FLAG_LSIRDY) == RESET)
 8003644:	4b0b      	ldr	r3, [pc, #44]	; (8003674 <HAL_RCC_OscConfig+0x270>)
 8003646:	6f5b      	ldr	r3, [r3, #116]	; 0x74
 8003648:	f003 0302 	and.w	r3, r3, #2
 800364c:	2b00      	cmp	r3, #0
 800364e:	d0f0      	beq.n	8003632 <HAL_RCC_OscConfig+0x22e>
 8003650:	e01c      	b.n	800368c <HAL_RCC_OscConfig+0x288>
      }
    }
    else
    {
      /* Disable the Internal Low Speed oscillator (LSI). */
      __HAL_RCC_LSI_DISABLE();
 8003652:	4b0a      	ldr	r3, [pc, #40]	; (800367c <HAL_RCC_OscConfig+0x278>)
 8003654:	2200      	movs	r2, #0
 8003656:	601a      	str	r2, [r3, #0]

      /* Get Start Tick*/
      tickstart = HAL_GetTick();
 8003658:	f7fe f95c 	bl	8001914 <HAL_GetTick>
 800365c:	6138      	str	r0, [r7, #16]

      /* Wait till LSI is ready */
      while(__HAL_RCC_GET_FLAG(RCC_FLAG_LSIRDY) != RESET)
 800365e:	e00f      	b.n	8003680 <HAL_RCC_OscConfig+0x27c>
      {
        if((HAL_GetTick() - tickstart ) > LSI_TIMEOUT_VALUE)
 8003660:	f7fe f958 	bl	8001914 <HAL_GetTick>
 8003664:	4602      	mov	r2, r0
 8003666:	693b      	ldr	r3, [r7, #16]
 8003668:	1ad3      	subs	r3, r2, r3
 800366a:	2b02      	cmp	r3, #2
 800366c:	d908      	bls.n	8003680 <HAL_RCC_OscConfig+0x27c>
        {
          return HAL_TIMEOUT;
 800366e:	2303      	movs	r3, #3
 8003670:	e118      	b.n	80038a4 <HAL_RCC_OscConfig+0x4a0>
 8003672:	bf00      	nop
 8003674:	40023800 	.word	0x40023800
 8003678:	42470000 	.word	0x42470000
 800367c:	42470e80 	.word	0x42470e80
      while(__HAL_RCC_GET_FLAG(RCC_FLAG_LSIRDY) != RESET)
 8003680:	4b8a      	ldr	r3, [pc, #552]	; (80038ac <HAL_RCC_OscConfig+0x4a8>)
 8003682:	6f5b      	ldr	r3, [r3, #116]	; 0x74
 8003684:	f003 0302 	and.w	r3, r3, #2
 8003688:	2b00      	cmp	r3, #0
 800368a:	d1e9      	bne.n	8003660 <HAL_RCC_OscConfig+0x25c>
        }
      }
    }
  }
  /*------------------------------ LSE Configuration -------------------------*/
  if(((RCC_OscInitStruct->OscillatorType) & RCC_OSCILLATORTYPE_LSE) == RCC_OSCILLATORTYPE_LSE)
 800368c:	687b      	ldr	r3, [r7, #4]
 800368e:	681b      	ldr	r3, [r3, #0]
 8003690:	f003 0304 	and.w	r3, r3, #4
 8003694:	2b00      	cmp	r3, #0
 8003696:	f000 8097 	beq.w	80037c8 <HAL_RCC_OscConfig+0x3c4>
  {
    FlagStatus       pwrclkchanged = RESET;
 800369a:	2300      	movs	r3, #0
 800369c:	75fb      	strb	r3, [r7, #23]
    /* Check the parameters */
    assert_param(IS_RCC_LSE(RCC_OscInitStruct->LSEState));

    /* Update LSE configuration in Backup Domain control register    */
    /* Requires to enable write access to Backup Domain of necessary */
    if(__HAL_RCC_PWR_IS_CLK_DISABLED())
 800369e:	4b83      	ldr	r3, [pc, #524]	; (80038ac <HAL_RCC_OscConfig+0x4a8>)
 80036a0:	6c1b      	ldr	r3, [r3, #64]	; 0x40
 80036a2:	f003 5380 	and.w	r3, r3, #268435456	; 0x10000000
 80036a6:	2b00      	cmp	r3, #0
 80036a8:	d10f      	bne.n	80036ca <HAL_RCC_OscConfig+0x2c6>
    {
      __HAL_RCC_PWR_CLK_ENABLE();
 80036aa:	2300      	movs	r3, #0
 80036ac:	60fb      	str	r3, [r7, #12]
 80036ae:	4b7f      	ldr	r3, [pc, #508]	; (80038ac <HAL_RCC_OscConfig+0x4a8>)
 80036b0:	6c1b      	ldr	r3, [r3, #64]	; 0x40
 80036b2:	4a7e      	ldr	r2, [pc, #504]	; (80038ac <HAL_RCC_OscConfig+0x4a8>)
 80036b4:	f043 5380 	orr.w	r3, r3, #268435456	; 0x10000000
 80036b8:	6413      	str	r3, [r2, #64]	; 0x40
 80036ba:	4b7c      	ldr	r3, [pc, #496]	; (80038ac <HAL_RCC_OscConfig+0x4a8>)
 80036bc:	6c1b      	ldr	r3, [r3, #64]	; 0x40
 80036be:	f003 5380 	and.w	r3, r3, #268435456	; 0x10000000
 80036c2:	60fb      	str	r3, [r7, #12]
 80036c4:	68fb      	ldr	r3, [r7, #12]
      pwrclkchanged = SET;
 80036c6:	2301      	movs	r3, #1
 80036c8:	75fb      	strb	r3, [r7, #23]
    }

    if(HAL_IS_BIT_CLR(PWR->CR, PWR_CR_DBP))
 80036ca:	4b79      	ldr	r3, [pc, #484]	; (80038b0 <HAL_RCC_OscConfig+0x4ac>)
 80036cc:	681b      	ldr	r3, [r3, #0]
 80036ce:	f403 7380 	and.w	r3, r3, #256	; 0x100
 80036d2:	2b00      	cmp	r3, #0
 80036d4:	d118      	bne.n	8003708 <HAL_RCC_OscConfig+0x304>
    {
      /* Enable write access to Backup domain */
      SET_BIT(PWR->CR, PWR_CR_DBP);
 80036d6:	4b76      	ldr	r3, [pc, #472]	; (80038b0 <HAL_RCC_OscConfig+0x4ac>)
 80036d8:	681b      	ldr	r3, [r3, #0]
 80036da:	4a75      	ldr	r2, [pc, #468]	; (80038b0 <HAL_RCC_OscConfig+0x4ac>)
 80036dc:	f443 7380 	orr.w	r3, r3, #256	; 0x100
 80036e0:	6013      	str	r3, [r2, #0]

      /* Wait for Backup domain Write protection disable */
      tickstart = HAL_GetTick();
 80036e2:	f7fe f917 	bl	8001914 <HAL_GetTick>
 80036e6:	6138      	str	r0, [r7, #16]

      while(HAL_IS_BIT_CLR(PWR->CR, PWR_CR_DBP))
 80036e8:	e008      	b.n	80036fc <HAL_RCC_OscConfig+0x2f8>
      {
        if((HAL_GetTick() - tickstart) > RCC_DBP_TIMEOUT_VALUE)
 80036ea:	f7fe f913 	bl	8001914 <HAL_GetTick>
 80036ee:	4602      	mov	r2, r0
 80036f0:	693b      	ldr	r3, [r7, #16]
 80036f2:	1ad3      	subs	r3, r2, r3
 80036f4:	2b02      	cmp	r3, #2
 80036f6:	d901      	bls.n	80036fc <HAL_RCC_OscConfig+0x2f8>
        {
          return HAL_TIMEOUT;
 80036f8:	2303      	movs	r3, #3
 80036fa:	e0d3      	b.n	80038a4 <HAL_RCC_OscConfig+0x4a0>
      while(HAL_IS_BIT_CLR(PWR->CR, PWR_CR_DBP))
 80036fc:	4b6c      	ldr	r3, [pc, #432]	; (80038b0 <HAL_RCC_OscConfig+0x4ac>)
 80036fe:	681b      	ldr	r3, [r3, #0]
 8003700:	f403 7380 	and.w	r3, r3, #256	; 0x100
 8003704:	2b00      	cmp	r3, #0
 8003706:	d0f0      	beq.n	80036ea <HAL_RCC_OscConfig+0x2e6>
        }
      }
    }

    /* Set the new LSE configuration -----------------------------------------*/
    __HAL_RCC_LSE_CONFIG(RCC_OscInitStruct->LSEState);
 8003708:	687b      	ldr	r3, [r7, #4]
 800370a:	689b      	ldr	r3, [r3, #8]
 800370c:	2b01      	cmp	r3, #1
 800370e:	d106      	bne.n	800371e <HAL_RCC_OscConfig+0x31a>
 8003710:	4b66      	ldr	r3, [pc, #408]	; (80038ac <HAL_RCC_OscConfig+0x4a8>)
 8003712:	6f1b      	ldr	r3, [r3, #112]	; 0x70
 8003714:	4a65      	ldr	r2, [pc, #404]	; (80038ac <HAL_RCC_OscConfig+0x4a8>)
 8003716:	f043 0301 	orr.w	r3, r3, #1
 800371a:	6713      	str	r3, [r2, #112]	; 0x70
 800371c:	e01c      	b.n	8003758 <HAL_RCC_OscConfig+0x354>
 800371e:	687b      	ldr	r3, [r7, #4]
 8003720:	689b      	ldr	r3, [r3, #8]
 8003722:	2b05      	cmp	r3, #5
 8003724:	d10c      	bne.n	8003740 <HAL_RCC_OscConfig+0x33c>
 8003726:	4b61      	ldr	r3, [pc, #388]	; (80038ac <HAL_RCC_OscConfig+0x4a8>)
 8003728:	6f1b      	ldr	r3, [r3, #112]	; 0x70
 800372a:	4a60      	ldr	r2, [pc, #384]	; (80038ac <HAL_RCC_OscConfig+0x4a8>)
 800372c:	f043 0304 	orr.w	r3, r3, #4
 8003730:	6713      	str	r3, [r2, #112]	; 0x70
 8003732:	4b5e      	ldr	r3, [pc, #376]	; (80038ac <HAL_RCC_OscConfig+0x4a8>)
 8003734:	6f1b      	ldr	r3, [r3, #112]	; 0x70
 8003736:	4a5d      	ldr	r2, [pc, #372]	; (80038ac <HAL_RCC_OscConfig+0x4a8>)
 8003738:	f043 0301 	orr.w	r3, r3, #1
 800373c:	6713      	str	r3, [r2, #112]	; 0x70
 800373e:	e00b      	b.n	8003758 <HAL_RCC_OscConfig+0x354>
 8003740:	4b5a      	ldr	r3, [pc, #360]	; (80038ac <HAL_RCC_OscConfig+0x4a8>)
 8003742:	6f1b      	ldr	r3, [r3, #112]	; 0x70
 8003744:	4a59      	ldr	r2, [pc, #356]	; (80038ac <HAL_RCC_OscConfig+0x4a8>)
 8003746:	f023 0301 	bic.w	r3, r3, #1
 800374a:	6713      	str	r3, [r2, #112]	; 0x70
 800374c:	4b57      	ldr	r3, [pc, #348]	; (80038ac <HAL_RCC_OscConfig+0x4a8>)
 800374e:	6f1b      	ldr	r3, [r3, #112]	; 0x70
 8003750:	4a56      	ldr	r2, [pc, #344]	; (80038ac <HAL_RCC_OscConfig+0x4a8>)
 8003752:	f023 0304 	bic.w	r3, r3, #4
 8003756:	6713      	str	r3, [r2, #112]	; 0x70
    /* Check the LSE State */
    if((RCC_OscInitStruct->LSEState) != RCC_LSE_OFF)
 8003758:	687b      	ldr	r3, [r7, #4]
 800375a:	689b      	ldr	r3, [r3, #8]
 800375c:	2b00      	cmp	r3, #0
 800375e:	d015      	beq.n	800378c <HAL_RCC_OscConfig+0x388>
    {
      /* Get Start Tick*/
      tickstart = HAL_GetTick();
 8003760:	f7fe f8d8 	bl	8001914 <HAL_GetTick>
 8003764:	6138      	str	r0, [r7, #16]

      /* Wait till LSE is ready */
      while(__HAL_RCC_GET_FLAG(RCC_FLAG_LSERDY) == RESET)
 8003766:	e00a      	b.n	800377e <HAL_RCC_OscConfig+0x37a>
      {
        if((HAL_GetTick() - tickstart ) > RCC_LSE_TIMEOUT_VALUE)
 8003768:	f7fe f8d4 	bl	8001914 <HAL_GetTick>
 800376c:	4602      	mov	r2, r0
 800376e:	693b      	ldr	r3, [r7, #16]
 8003770:	1ad3      	subs	r3, r2, r3
 8003772:	f241 3288 	movw	r2, #5000	; 0x1388
 8003776:	4293      	cmp	r3, r2
 8003778:	d901      	bls.n	800377e <HAL_RCC_OscConfig+0x37a>
        {
          return HAL_TIMEOUT;
 800377a:	2303      	movs	r3, #3
 800377c:	e092      	b.n	80038a4 <HAL_RCC_OscConfig+0x4a0>
      while(__HAL_RCC_GET_FLAG(RCC_FLAG_LSERDY) == RESET)
 800377e:	4b4b      	ldr	r3, [pc, #300]	; (80038ac <HAL_RCC_OscConfig+0x4a8>)
 8003780:	6f1b      	ldr	r3, [r3, #112]	; 0x70
 8003782:	f003 0302 	and.w	r3, r3, #2
 8003786:	2b00      	cmp	r3, #0
 8003788:	d0ee      	beq.n	8003768 <HAL_RCC_OscConfig+0x364>
 800378a:	e014      	b.n	80037b6 <HAL_RCC_OscConfig+0x3b2>
      }
    }
    else
    {
      /* Get Start Tick*/
      tickstart = HAL_GetTick();
 800378c:	f7fe f8c2 	bl	8001914 <HAL_GetTick>
 8003790:	6138      	str	r0, [r7, #16]

      /* Wait till LSE is ready */
      while(__HAL_RCC_GET_FLAG(RCC_FLAG_LSERDY) != RESET)
 8003792:	e00a      	b.n	80037aa <HAL_RCC_OscConfig+0x3a6>
      {
        if((HAL_GetTick() - tickstart ) > RCC_LSE_TIMEOUT_VALUE)
 8003794:	f7fe f8be 	bl	8001914 <HAL_GetTick>
 8003798:	4602      	mov	r2, r0
 800379a:	693b      	ldr	r3, [r7, #16]
 800379c:	1ad3      	subs	r3, r2, r3
 800379e:	f241 3288 	movw	r2, #5000	; 0x1388
 80037a2:	4293      	cmp	r3, r2
 80037a4:	d901      	bls.n	80037aa <HAL_RCC_OscConfig+0x3a6>
        {
          return HAL_TIMEOUT;
 80037a6:	2303      	movs	r3, #3
 80037a8:	e07c      	b.n	80038a4 <HAL_RCC_OscConfig+0x4a0>
      while(__HAL_RCC_GET_FLAG(RCC_FLAG_LSERDY) != RESET)
 80037aa:	4b40      	ldr	r3, [pc, #256]	; (80038ac <HAL_RCC_OscConfig+0x4a8>)
 80037ac:	6f1b      	ldr	r3, [r3, #112]	; 0x70
 80037ae:	f003 0302 	and.w	r3, r3, #2
 80037b2:	2b00      	cmp	r3, #0
 80037b4:	d1ee      	bne.n	8003794 <HAL_RCC_OscConfig+0x390>
        }
      }
    }

    /* Restore clock configuration if changed */
    if(pwrclkchanged == SET)
 80037b6:	7dfb      	ldrb	r3, [r7, #23]
 80037b8:	2b01      	cmp	r3, #1
 80037ba:	d105      	bne.n	80037c8 <HAL_RCC_OscConfig+0x3c4>
    {
      __HAL_RCC_PWR_CLK_DISABLE();
 80037bc:	4b3b      	ldr	r3, [pc, #236]	; (80038ac <HAL_RCC_OscConfig+0x4a8>)
 80037be:	6c1b      	ldr	r3, [r3, #64]	; 0x40
 80037c0:	4a3a      	ldr	r2, [pc, #232]	; (80038ac <HAL_RCC_OscConfig+0x4a8>)
 80037c2:	f023 5380 	bic.w	r3, r3, #268435456	; 0x10000000
 80037c6:	6413      	str	r3, [r2, #64]	; 0x40
    }
  }
  /*-------------------------------- PLL Configuration -----------------------*/
  /* Check the parameters */
  assert_param(IS_RCC_PLL(RCC_OscInitStruct->PLL.PLLState));
  if ((RCC_OscInitStruct->PLL.PLLState) != RCC_PLL_NONE)
 80037c8:	687b      	ldr	r3, [r7, #4]
 80037ca:	699b      	ldr	r3, [r3, #24]
 80037cc:	2b00      	cmp	r3, #0
 80037ce:	d068      	beq.n	80038a2 <HAL_RCC_OscConfig+0x49e>
  {
    /* Check if the PLL is used as system clock or not */
    if(__HAL_RCC_GET_SYSCLK_SOURCE() != RCC_CFGR_SWS_PLL)
 80037d0:	4b36      	ldr	r3, [pc, #216]	; (80038ac <HAL_RCC_OscConfig+0x4a8>)
 80037d2:	689b      	ldr	r3, [r3, #8]
 80037d4:	f003 030c 	and.w	r3, r3, #12
 80037d8:	2b08      	cmp	r3, #8
 80037da:	d060      	beq.n	800389e <HAL_RCC_OscConfig+0x49a>
    {
      if((RCC_OscInitStruct->PLL.PLLState) == RCC_PLL_ON)
 80037dc:	687b      	ldr	r3, [r7, #4]
 80037de:	699b      	ldr	r3, [r3, #24]
 80037e0:	2b02      	cmp	r3, #2
 80037e2:	d145      	bne.n	8003870 <HAL_RCC_OscConfig+0x46c>
        assert_param(IS_RCC_PLLP_VALUE(RCC_OscInitStruct->PLL.PLLP));
        assert_param(IS_RCC_PLLQ_VALUE(RCC_OscInitStruct->PLL.PLLQ));
        assert_param(IS_RCC_PLLR_VALUE(RCC_OscInitStruct->PLL.PLLR));

        /* Disable the main PLL. */
        __HAL_RCC_PLL_DISABLE();
 80037e4:	4b33      	ldr	r3, [pc, #204]	; (80038b4 <HAL_RCC_OscConfig+0x4b0>)
 80037e6:	2200      	movs	r2, #0
 80037e8:	601a      	str	r2, [r3, #0]

        /* Get Start Tick*/
        tickstart = HAL_GetTick();
 80037ea:	f7fe f893 	bl	8001914 <HAL_GetTick>
 80037ee:	6138      	str	r0, [r7, #16]

        /* Wait till PLL is ready */
        while(__HAL_RCC_GET_FLAG(RCC_FLAG_PLLRDY) != RESET)
 80037f0:	e008      	b.n	8003804 <HAL_RCC_OscConfig+0x400>
        {
          if((HAL_GetTick() - tickstart ) > PLL_TIMEOUT_VALUE)
 80037f2:	f7fe f88f 	bl	8001914 <HAL_GetTick>
 80037f6:	4602      	mov	r2, r0
 80037f8:	693b      	ldr	r3, [r7, #16]
 80037fa:	1ad3      	subs	r3, r2, r3
 80037fc:	2b02      	cmp	r3, #2
 80037fe:	d901      	bls.n	8003804 <HAL_RCC_OscConfig+0x400>
          {
            return HAL_TIMEOUT;
 8003800:	2303      	movs	r3, #3
 8003802:	e04f      	b.n	80038a4 <HAL_RCC_OscConfig+0x4a0>
        while(__HAL_RCC_GET_FLAG(RCC_FLAG_PLLRDY) != RESET)
 8003804:	4b29      	ldr	r3, [pc, #164]	; (80038ac <HAL_RCC_OscConfig+0x4a8>)
 8003806:	681b      	ldr	r3, [r3, #0]
 8003808:	f003 7300 	and.w	r3, r3, #33554432	; 0x2000000
 800380c:	2b00      	cmp	r3, #0
 800380e:	d1f0      	bne.n	80037f2 <HAL_RCC_OscConfig+0x3ee>
          }
        }

        /* Configure the main PLL clock source, multiplication and division factors. */
        __HAL_RCC_PLL_CONFIG(RCC_OscInitStruct->PLL.PLLSource,
 8003810:	687b      	ldr	r3, [r7, #4]
 8003812:	69da      	ldr	r2, [r3, #28]
 8003814:	687b      	ldr	r3, [r7, #4]
 8003816:	6a1b      	ldr	r3, [r3, #32]
 8003818:	431a      	orrs	r2, r3
 800381a:	687b      	ldr	r3, [r7, #4]
 800381c:	6a5b      	ldr	r3, [r3, #36]	; 0x24
 800381e:	019b      	lsls	r3, r3, #6
 8003820:	431a      	orrs	r2, r3
 8003822:	687b      	ldr	r3, [r7, #4]
 8003824:	6a9b      	ldr	r3, [r3, #40]	; 0x28
 8003826:	085b      	lsrs	r3, r3, #1
 8003828:	3b01      	subs	r3, #1
 800382a:	041b      	lsls	r3, r3, #16
 800382c:	431a      	orrs	r2, r3
 800382e:	687b      	ldr	r3, [r7, #4]
 8003830:	6adb      	ldr	r3, [r3, #44]	; 0x2c
 8003832:	061b      	lsls	r3, r3, #24
 8003834:	431a      	orrs	r2, r3
 8003836:	687b      	ldr	r3, [r7, #4]
 8003838:	6b1b      	ldr	r3, [r3, #48]	; 0x30
 800383a:	071b      	lsls	r3, r3, #28
 800383c:	491b      	ldr	r1, [pc, #108]	; (80038ac <HAL_RCC_OscConfig+0x4a8>)
 800383e:	4313      	orrs	r3, r2
 8003840:	604b      	str	r3, [r1, #4]
                             RCC_OscInitStruct->PLL.PLLP,
                             RCC_OscInitStruct->PLL.PLLQ,
                             RCC_OscInitStruct->PLL.PLLR);

        /* Enable the main PLL. */
        __HAL_RCC_PLL_ENABLE();
 8003842:	4b1c      	ldr	r3, [pc, #112]	; (80038b4 <HAL_RCC_OscConfig+0x4b0>)
 8003844:	2201      	movs	r2, #1
 8003846:	601a      	str	r2, [r3, #0]

        /* Get Start Tick*/
        tickstart = HAL_GetTick();
 8003848:	f7fe f864 	bl	8001914 <HAL_GetTick>
 800384c:	6138      	str	r0, [r7, #16]

        /* Wait till PLL is ready */
        while(__HAL_RCC_GET_FLAG(RCC_FLAG_PLLRDY) == RESET)
 800384e:	e008      	b.n	8003862 <HAL_RCC_OscConfig+0x45e>
        {
          if((HAL_GetTick() - tickstart ) > PLL_TIMEOUT_VALUE)
 8003850:	f7fe f860 	bl	8001914 <HAL_GetTick>
 8003854:	4602      	mov	r2, r0
 8003856:	693b      	ldr	r3, [r7, #16]
 8003858:	1ad3      	subs	r3, r2, r3
 800385a:	2b02      	cmp	r3, #2
 800385c:	d901      	bls.n	8003862 <HAL_RCC_OscConfig+0x45e>
          {
            return HAL_TIMEOUT;
 800385e:	2303      	movs	r3, #3
 8003860:	e020      	b.n	80038a4 <HAL_RCC_OscConfig+0x4a0>
        while(__HAL_RCC_GET_FLAG(RCC_FLAG_PLLRDY) == RESET)
 8003862:	4b12      	ldr	r3, [pc, #72]	; (80038ac <HAL_RCC_OscConfig+0x4a8>)
 8003864:	681b      	ldr	r3, [r3, #0]
 8003866:	f003 7300 	and.w	r3, r3, #33554432	; 0x2000000
 800386a:	2b00      	cmp	r3, #0
 800386c:	d0f0      	beq.n	8003850 <HAL_RCC_OscConfig+0x44c>
 800386e:	e018      	b.n	80038a2 <HAL_RCC_OscConfig+0x49e>
        }
      }
      else
      {
        /* Disable the main PLL. */
        __HAL_RCC_PLL_DISABLE();
 8003870:	4b10      	ldr	r3, [pc, #64]	; (80038b4 <HAL_RCC_OscConfig+0x4b0>)
 8003872:	2200      	movs	r2, #0
 8003874:	601a      	str	r2, [r3, #0]

        /* Get Start Tick*/
        tickstart = HAL_GetTick();
 8003876:	f7fe f84d 	bl	8001914 <HAL_GetTick>
 800387a:	6138      	str	r0, [r7, #16]

        /* Wait till PLL is ready */
        while(__HAL_RCC_GET_FLAG(RCC_FLAG_PLLRDY) != RESET)
 800387c:	e008      	b.n	8003890 <HAL_RCC_OscConfig+0x48c>
        {
          if((HAL_GetTick() - tickstart ) > PLL_TIMEOUT_VALUE)
 800387e:	f7fe f849 	bl	8001914 <HAL_GetTick>
 8003882:	4602      	mov	r2, r0
 8003884:	693b      	ldr	r3, [r7, #16]
 8003886:	1ad3      	subs	r3, r2, r3
 8003888:	2b02      	cmp	r3, #2
 800388a:	d901      	bls.n	8003890 <HAL_RCC_OscConfig+0x48c>
          {
            return HAL_TIMEOUT;
 800388c:	2303      	movs	r3, #3
 800388e:	e009      	b.n	80038a4 <HAL_RCC_OscConfig+0x4a0>
        while(__HAL_RCC_GET_FLAG(RCC_FLAG_PLLRDY) != RESET)
 8003890:	4b06      	ldr	r3, [pc, #24]	; (80038ac <HAL_RCC_OscConfig+0x4a8>)
 8003892:	681b      	ldr	r3, [r3, #0]
 8003894:	f003 7300 	and.w	r3, r3, #33554432	; 0x2000000
 8003898:	2b00      	cmp	r3, #0
 800389a:	d1f0      	bne.n	800387e <HAL_RCC_OscConfig+0x47a>
 800389c:	e001      	b.n	80038a2 <HAL_RCC_OscConfig+0x49e>
        }
      }
    }
    else
    {
      return HAL_ERROR;
 800389e:	2301      	movs	r3, #1
 80038a0:	e000      	b.n	80038a4 <HAL_RCC_OscConfig+0x4a0>
    }
  }
  return HAL_OK;
 80038a2:	2300      	movs	r3, #0
}
 80038a4:	4618      	mov	r0, r3
 80038a6:	3718      	adds	r7, #24
 80038a8:	46bd      	mov	sp, r7
 80038aa:	bd80      	pop	{r7, pc}
 80038ac:	40023800 	.word	0x40023800
 80038b0:	40007000 	.word	0x40007000
 80038b4:	42470060 	.word	0x42470060

080038b8 <HAL_UART_Init>:
  * @param  huart  Pointer to a UART_HandleTypeDef structure that contains
  *                the configuration information for the specified UART module.
  * @retval HAL status
  */
HAL_StatusTypeDef HAL_UART_Init(UART_HandleTypeDef *huart)
{
 80038b8:	b580      	push	{r7, lr}
 80038ba:	b082      	sub	sp, #8
 80038bc:	af00      	add	r7, sp, #0
 80038be:	6078      	str	r0, [r7, #4]
  /* Check the UART handle allocation */
  if (huart == NULL)
 80038c0:	687b      	ldr	r3, [r7, #4]
 80038c2:	2b00      	cmp	r3, #0
 80038c4:	d101      	bne.n	80038ca <HAL_UART_Init+0x12>
  {
    return HAL_ERROR;
 80038c6:	2301      	movs	r3, #1
 80038c8:	e03f      	b.n	800394a <HAL_UART_Init+0x92>
    assert_param(IS_UART_INSTANCE(huart->Instance));
  }
  assert_param(IS_UART_WORD_LENGTH(huart->Init.WordLength));
  assert_param(IS_UART_OVERSAMPLING(huart->Init.OverSampling));

  if (huart->gState == HAL_UART_STATE_RESET)
 80038ca:	687b      	ldr	r3, [r7, #4]
 80038cc:	f893 3039 	ldrb.w	r3, [r3, #57]	; 0x39
 80038d0:	b2db      	uxtb	r3, r3
 80038d2:	2b00      	cmp	r3, #0
 80038d4:	d106      	bne.n	80038e4 <HAL_UART_Init+0x2c>
  {
    /* Allocate lock resource and initialize it */
    huart->Lock = HAL_UNLOCKED;
 80038d6:	687b      	ldr	r3, [r7, #4]
 80038d8:	2200      	movs	r2, #0
 80038da:	f883 2038 	strb.w	r2, [r3, #56]	; 0x38

    /* Init the low level hardware */
    huart->MspInitCallback(huart);
#else
    /* Init the low level hardware : GPIO, CLOCK */
    HAL_UART_MspInit(huart);
 80038de:	6878      	ldr	r0, [r7, #4]
 80038e0:	f7fd fec0 	bl	8001664 <HAL_UART_MspInit>
#endif /* (USE_HAL_UART_REGISTER_CALLBACKS) */
  }

  huart->gState = HAL_UART_STATE_BUSY;
 80038e4:	687b      	ldr	r3, [r7, #4]
 80038e6:	2224      	movs	r2, #36	; 0x24
 80038e8:	f883 2039 	strb.w	r2, [r3, #57]	; 0x39

  /* Disable the peripheral */
  __HAL_UART_DISABLE(huart);
 80038ec:	687b      	ldr	r3, [r7, #4]
 80038ee:	681b      	ldr	r3, [r3, #0]
 80038f0:	68da      	ldr	r2, [r3, #12]
 80038f2:	687b      	ldr	r3, [r7, #4]
 80038f4:	681b      	ldr	r3, [r3, #0]
 80038f6:	f422 5200 	bic.w	r2, r2, #8192	; 0x2000
 80038fa:	60da      	str	r2, [r3, #12]

  /* Set the UART Communication parameters */
  UART_SetConfig(huart);
 80038fc:	6878      	ldr	r0, [r7, #4]
 80038fe:	f000 f90b 	bl	8003b18 <UART_SetConfig>

  /* In asynchronous mode, the following bits must be kept cleared:
     - LINEN and CLKEN bits in the USART_CR2 register,
     - SCEN, HDSEL and IREN  bits in the USART_CR3 register.*/
  CLEAR_BIT(huart->Instance->CR2, (USART_CR2_LINEN | USART_CR2_CLKEN));
 8003902:	687b      	ldr	r3, [r7, #4]
 8003904:	681b      	ldr	r3, [r3, #0]
 8003906:	691a      	ldr	r2, [r3, #16]
 8003908:	687b      	ldr	r3, [r7, #4]
 800390a:	681b      	ldr	r3, [r3, #0]
 800390c:	f422 4290 	bic.w	r2, r2, #18432	; 0x4800
 8003910:	611a      	str	r2, [r3, #16]
  CLEAR_BIT(huart->Instance->CR3, (USART_CR3_SCEN | USART_CR3_HDSEL | USART_CR3_IREN));
 8003912:	687b      	ldr	r3, [r7, #4]
 8003914:	681b      	ldr	r3, [r3, #0]
 8003916:	695a      	ldr	r2, [r3, #20]
 8003918:	687b      	ldr	r3, [r7, #4]
 800391a:	681b      	ldr	r3, [r3, #0]
 800391c:	f022 022a 	bic.w	r2, r2, #42	; 0x2a
 8003920:	615a      	str	r2, [r3, #20]

  /* Enable the peripheral */
  __HAL_UART_ENABLE(huart);
 8003922:	687b      	ldr	r3, [r7, #4]
 8003924:	681b      	ldr	r3, [r3, #0]
 8003926:	68da      	ldr	r2, [r3, #12]
 8003928:	687b      	ldr	r3, [r7, #4]
 800392a:	681b      	ldr	r3, [r3, #0]
 800392c:	f442 5200 	orr.w	r2, r2, #8192	; 0x2000
 8003930:	60da      	str	r2, [r3, #12]

  /* Initialize the UART state */
  huart->ErrorCode = HAL_UART_ERROR_NONE;
 8003932:	687b      	ldr	r3, [r7, #4]
 8003934:	2200      	movs	r2, #0
 8003936:	63da      	str	r2, [r3, #60]	; 0x3c
  huart->gState = HAL_UART_STATE_READY;
 8003938:	687b      	ldr	r3, [r7, #4]
 800393a:	2220      	movs	r2, #32
 800393c:	f883 2039 	strb.w	r2, [r3, #57]	; 0x39
  huart->RxState = HAL_UART_STATE_READY;
 8003940:	687b      	ldr	r3, [r7, #4]
 8003942:	2220      	movs	r2, #32
 8003944:	f883 203a 	strb.w	r2, [r3, #58]	; 0x3a

  return HAL_OK;
 8003948:	2300      	movs	r3, #0
}
 800394a:	4618      	mov	r0, r3
 800394c:	3708      	adds	r7, #8
 800394e:	46bd      	mov	sp, r7
 8003950:	bd80      	pop	{r7, pc}

08003952 <HAL_UART_Transmit>:
  * @param  Size  Amount of data elements (u8 or u16) to be sent
  * @param  Timeout Timeout duration
  * @retval HAL status
  */
HAL_StatusTypeDef HAL_UART_Transmit(UART_HandleTypeDef *huart, uint8_t *pData, uint16_t Size, uint32_t Timeout)
{
 8003952:	b580      	push	{r7, lr}
 8003954:	b088      	sub	sp, #32
 8003956:	af02      	add	r7, sp, #8
 8003958:	60f8      	str	r0, [r7, #12]
 800395a:	60b9      	str	r1, [r7, #8]
 800395c:	603b      	str	r3, [r7, #0]
 800395e:	4613      	mov	r3, r2
 8003960:	80fb      	strh	r3, [r7, #6]
  uint16_t *tmp;
  uint32_t tickstart = 0U;
 8003962:	2300      	movs	r3, #0
 8003964:	617b      	str	r3, [r7, #20]

  /* Check that a Tx process is not already ongoing */
  if (huart->gState == HAL_UART_STATE_READY)
 8003966:	68fb      	ldr	r3, [r7, #12]
 8003968:	f893 3039 	ldrb.w	r3, [r3, #57]	; 0x39
 800396c:	b2db      	uxtb	r3, r3
 800396e:	2b20      	cmp	r3, #32
 8003970:	f040 8083 	bne.w	8003a7a <HAL_UART_Transmit+0x128>
  {
    if ((pData == NULL) || (Size == 0U))
 8003974:	68bb      	ldr	r3, [r7, #8]
 8003976:	2b00      	cmp	r3, #0
 8003978:	d002      	beq.n	8003980 <HAL_UART_Transmit+0x2e>
 800397a:	88fb      	ldrh	r3, [r7, #6]
 800397c:	2b00      	cmp	r3, #0
 800397e:	d101      	bne.n	8003984 <HAL_UART_Transmit+0x32>
    {
      return  HAL_ERROR;
 8003980:	2301      	movs	r3, #1
 8003982:	e07b      	b.n	8003a7c <HAL_UART_Transmit+0x12a>
    }

    /* Process Locked */
    __HAL_LOCK(huart);
 8003984:	68fb      	ldr	r3, [r7, #12]
 8003986:	f893 3038 	ldrb.w	r3, [r3, #56]	; 0x38
 800398a:	2b01      	cmp	r3, #1
 800398c:	d101      	bne.n	8003992 <HAL_UART_Transmit+0x40>
 800398e:	2302      	movs	r3, #2
 8003990:	e074      	b.n	8003a7c <HAL_UART_Transmit+0x12a>
 8003992:	68fb      	ldr	r3, [r7, #12]
 8003994:	2201      	movs	r2, #1
 8003996:	f883 2038 	strb.w	r2, [r3, #56]	; 0x38

    huart->ErrorCode = HAL_UART_ERROR_NONE;
 800399a:	68fb      	ldr	r3, [r7, #12]
 800399c:	2200      	movs	r2, #0
 800399e:	63da      	str	r2, [r3, #60]	; 0x3c
    huart->gState = HAL_UART_STATE_BUSY_TX;
 80039a0:	68fb      	ldr	r3, [r7, #12]
 80039a2:	2221      	movs	r2, #33	; 0x21
 80039a4:	f883 2039 	strb.w	r2, [r3, #57]	; 0x39

    /* Init tickstart for timeout managment */
    tickstart = HAL_GetTick();
 80039a8:	f7fd ffb4 	bl	8001914 <HAL_GetTick>
 80039ac:	6178      	str	r0, [r7, #20]

    huart->TxXferSize = Size;
 80039ae:	68fb      	ldr	r3, [r7, #12]
 80039b0:	88fa      	ldrh	r2, [r7, #6]
 80039b2:	849a      	strh	r2, [r3, #36]	; 0x24
    huart->TxXferCount = Size;
 80039b4:	68fb      	ldr	r3, [r7, #12]
 80039b6:	88fa      	ldrh	r2, [r7, #6]
 80039b8:	84da      	strh	r2, [r3, #38]	; 0x26

    /* Process Unlocked */
    __HAL_UNLOCK(huart);
 80039ba:	68fb      	ldr	r3, [r7, #12]
 80039bc:	2200      	movs	r2, #0
 80039be:	f883 2038 	strb.w	r2, [r3, #56]	; 0x38

    while (huart->TxXferCount > 0U)
 80039c2:	e042      	b.n	8003a4a <HAL_UART_Transmit+0xf8>
    {
      huart->TxXferCount--;
 80039c4:	68fb      	ldr	r3, [r7, #12]
 80039c6:	8cdb      	ldrh	r3, [r3, #38]	; 0x26
 80039c8:	b29b      	uxth	r3, r3
 80039ca:	3b01      	subs	r3, #1
 80039cc:	b29a      	uxth	r2, r3
 80039ce:	68fb      	ldr	r3, [r7, #12]
 80039d0:	84da      	strh	r2, [r3, #38]	; 0x26
      if (huart->Init.WordLength == UART_WORDLENGTH_9B)
 80039d2:	68fb      	ldr	r3, [r7, #12]
 80039d4:	689b      	ldr	r3, [r3, #8]
 80039d6:	f5b3 5f80 	cmp.w	r3, #4096	; 0x1000
 80039da:	d122      	bne.n	8003a22 <HAL_UART_Transmit+0xd0>
      {
        if (UART_WaitOnFlagUntilTimeout(huart, UART_FLAG_TXE, RESET, tickstart, Timeout) != HAL_OK)
 80039dc:	683b      	ldr	r3, [r7, #0]
 80039de:	9300      	str	r3, [sp, #0]
 80039e0:	697b      	ldr	r3, [r7, #20]
 80039e2:	2200      	movs	r2, #0
 80039e4:	2180      	movs	r1, #128	; 0x80
 80039e6:	68f8      	ldr	r0, [r7, #12]
 80039e8:	f000 f84c 	bl	8003a84 <UART_WaitOnFlagUntilTimeout>
 80039ec:	4603      	mov	r3, r0
 80039ee:	2b00      	cmp	r3, #0
 80039f0:	d001      	beq.n	80039f6 <HAL_UART_Transmit+0xa4>
        {
          return HAL_TIMEOUT;
 80039f2:	2303      	movs	r3, #3
 80039f4:	e042      	b.n	8003a7c <HAL_UART_Transmit+0x12a>
        }
        tmp = (uint16_t *) pData;
 80039f6:	68bb      	ldr	r3, [r7, #8]
 80039f8:	613b      	str	r3, [r7, #16]
        huart->Instance->DR = (*tmp & (uint16_t)0x01FF);
 80039fa:	693b      	ldr	r3, [r7, #16]
 80039fc:	881b      	ldrh	r3, [r3, #0]
 80039fe:	461a      	mov	r2, r3
 8003a00:	68fb      	ldr	r3, [r7, #12]
 8003a02:	681b      	ldr	r3, [r3, #0]
 8003a04:	f3c2 0208 	ubfx	r2, r2, #0, #9
 8003a08:	605a      	str	r2, [r3, #4]
        if (huart->Init.Parity == UART_PARITY_NONE)
 8003a0a:	68fb      	ldr	r3, [r7, #12]
 8003a0c:	691b      	ldr	r3, [r3, #16]
 8003a0e:	2b00      	cmp	r3, #0
 8003a10:	d103      	bne.n	8003a1a <HAL_UART_Transmit+0xc8>
        {
          pData += 2U;
 8003a12:	68bb      	ldr	r3, [r7, #8]
 8003a14:	3302      	adds	r3, #2
 8003a16:	60bb      	str	r3, [r7, #8]
 8003a18:	e017      	b.n	8003a4a <HAL_UART_Transmit+0xf8>
        }
        else
        {
          pData += 1U;
 8003a1a:	68bb      	ldr	r3, [r7, #8]
 8003a1c:	3301      	adds	r3, #1
 8003a1e:	60bb      	str	r3, [r7, #8]
 8003a20:	e013      	b.n	8003a4a <HAL_UART_Transmit+0xf8>
        }
      }
      else
      {
        if (UART_WaitOnFlagUntilTimeout(huart, UART_FLAG_TXE, RESET, tickstart, Timeout) != HAL_OK)
 8003a22:	683b      	ldr	r3, [r7, #0]
 8003a24:	9300      	str	r3, [sp, #0]
 8003a26:	697b      	ldr	r3, [r7, #20]
 8003a28:	2200      	movs	r2, #0
 8003a2a:	2180      	movs	r1, #128	; 0x80
 8003a2c:	68f8      	ldr	r0, [r7, #12]
 8003a2e:	f000 f829 	bl	8003a84 <UART_WaitOnFlagUntilTimeout>
 8003a32:	4603      	mov	r3, r0
 8003a34:	2b00      	cmp	r3, #0
 8003a36:	d001      	beq.n	8003a3c <HAL_UART_Transmit+0xea>
        {
          return HAL_TIMEOUT;
 8003a38:	2303      	movs	r3, #3
 8003a3a:	e01f      	b.n	8003a7c <HAL_UART_Transmit+0x12a>
        }
        huart->Instance->DR = (*pData++ & (uint8_t)0xFF);
 8003a3c:	68bb      	ldr	r3, [r7, #8]
 8003a3e:	1c5a      	adds	r2, r3, #1
 8003a40:	60ba      	str	r2, [r7, #8]
 8003a42:	781a      	ldrb	r2, [r3, #0]
 8003a44:	68fb      	ldr	r3, [r7, #12]
 8003a46:	681b      	ldr	r3, [r3, #0]
 8003a48:	605a      	str	r2, [r3, #4]
    while (huart->TxXferCount > 0U)
 8003a4a:	68fb      	ldr	r3, [r7, #12]
 8003a4c:	8cdb      	ldrh	r3, [r3, #38]	; 0x26
 8003a4e:	b29b      	uxth	r3, r3
 8003a50:	2b00      	cmp	r3, #0
 8003a52:	d1b7      	bne.n	80039c4 <HAL_UART_Transmit+0x72>
      }
    }

    if (UART_WaitOnFlagUntilTimeout(huart, UART_FLAG_TC, RESET, tickstart, Timeout) != HAL_OK)
 8003a54:	683b      	ldr	r3, [r7, #0]
 8003a56:	9300      	str	r3, [sp, #0]
 8003a58:	697b      	ldr	r3, [r7, #20]
 8003a5a:	2200      	movs	r2, #0
 8003a5c:	2140      	movs	r1, #64	; 0x40
 8003a5e:	68f8      	ldr	r0, [r7, #12]
 8003a60:	f000 f810 	bl	8003a84 <UART_WaitOnFlagUntilTimeout>
 8003a64:	4603      	mov	r3, r0
 8003a66:	2b00      	cmp	r3, #0
 8003a68:	d001      	beq.n	8003a6e <HAL_UART_Transmit+0x11c>
    {
      return HAL_TIMEOUT;
 8003a6a:	2303      	movs	r3, #3
 8003a6c:	e006      	b.n	8003a7c <HAL_UART_Transmit+0x12a>
    }

    /* At end of Tx process, restore huart->gState to Ready */
    huart->gState = HAL_UART_STATE_READY;
 8003a6e:	68fb      	ldr	r3, [r7, #12]
 8003a70:	2220      	movs	r2, #32
 8003a72:	f883 2039 	strb.w	r2, [r3, #57]	; 0x39

    return HAL_OK;
 8003a76:	2300      	movs	r3, #0
 8003a78:	e000      	b.n	8003a7c <HAL_UART_Transmit+0x12a>
  }
  else
  {
    return HAL_BUSY;
 8003a7a:	2302      	movs	r3, #2
  }
}
 8003a7c:	4618      	mov	r0, r3
 8003a7e:	3718      	adds	r7, #24
 8003a80:	46bd      	mov	sp, r7
 8003a82:	bd80      	pop	{r7, pc}

08003a84 <UART_WaitOnFlagUntilTimeout>:
  * @param  Tickstart Tick start value
  * @param  Timeout Timeout duration
  * @retval HAL status
  */
static HAL_StatusTypeDef UART_WaitOnFlagUntilTimeout(UART_HandleTypeDef *huart, uint32_t Flag, FlagStatus Status, uint32_t Tickstart, uint32_t Timeout)
{
 8003a84:	b580      	push	{r7, lr}
 8003a86:	b084      	sub	sp, #16
 8003a88:	af00      	add	r7, sp, #0
 8003a8a:	60f8      	str	r0, [r7, #12]
 8003a8c:	60b9      	str	r1, [r7, #8]
 8003a8e:	603b      	str	r3, [r7, #0]
 8003a90:	4613      	mov	r3, r2
 8003a92:	71fb      	strb	r3, [r7, #7]
  /* Wait until flag is set */
  while ((__HAL_UART_GET_FLAG(huart, Flag) ? SET : RESET) == Status)
 8003a94:	e02c      	b.n	8003af0 <UART_WaitOnFlagUntilTimeout+0x6c>
  {
    /* Check for the Timeout */
    if (Timeout != HAL_MAX_DELAY)
 8003a96:	69bb      	ldr	r3, [r7, #24]
 8003a98:	f1b3 3fff 	cmp.w	r3, #4294967295
 8003a9c:	d028      	beq.n	8003af0 <UART_WaitOnFlagUntilTimeout+0x6c>
    {
      if ((Timeout == 0U) || ((HAL_GetTick() - Tickstart) > Timeout))
 8003a9e:	69bb      	ldr	r3, [r7, #24]
 8003aa0:	2b00      	cmp	r3, #0
 8003aa2:	d007      	beq.n	8003ab4 <UART_WaitOnFlagUntilTimeout+0x30>
 8003aa4:	f7fd ff36 	bl	8001914 <HAL_GetTick>
 8003aa8:	4602      	mov	r2, r0
 8003aaa:	683b      	ldr	r3, [r7, #0]
 8003aac:	1ad3      	subs	r3, r2, r3
 8003aae:	69ba      	ldr	r2, [r7, #24]
 8003ab0:	429a      	cmp	r2, r3
 8003ab2:	d21d      	bcs.n	8003af0 <UART_WaitOnFlagUntilTimeout+0x6c>
      {
        /* Disable TXE, RXNE, PE and ERR (Frame error, noise error, overrun error) interrupts for the interrupt process */
        CLEAR_BIT(huart->Instance->CR1, (USART_CR1_RXNEIE | USART_CR1_PEIE | USART_CR1_TXEIE));
 8003ab4:	68fb      	ldr	r3, [r7, #12]
 8003ab6:	681b      	ldr	r3, [r3, #0]
 8003ab8:	68da      	ldr	r2, [r3, #12]
 8003aba:	68fb      	ldr	r3, [r7, #12]
 8003abc:	681b      	ldr	r3, [r3, #0]
 8003abe:	f422 72d0 	bic.w	r2, r2, #416	; 0x1a0
 8003ac2:	60da      	str	r2, [r3, #12]
        CLEAR_BIT(huart->Instance->CR3, USART_CR3_EIE);
 8003ac4:	68fb      	ldr	r3, [r7, #12]
 8003ac6:	681b      	ldr	r3, [r3, #0]
 8003ac8:	695a      	ldr	r2, [r3, #20]
 8003aca:	68fb      	ldr	r3, [r7, #12]
 8003acc:	681b      	ldr	r3, [r3, #0]
 8003ace:	f022 0201 	bic.w	r2, r2, #1
 8003ad2:	615a      	str	r2, [r3, #20]

        huart->gState  = HAL_UART_STATE_READY;
 8003ad4:	68fb      	ldr	r3, [r7, #12]
 8003ad6:	2220      	movs	r2, #32
 8003ad8:	f883 2039 	strb.w	r2, [r3, #57]	; 0x39
        huart->RxState = HAL_UART_STATE_READY;
 8003adc:	68fb      	ldr	r3, [r7, #12]
 8003ade:	2220      	movs	r2, #32
 8003ae0:	f883 203a 	strb.w	r2, [r3, #58]	; 0x3a

        /* Process Unlocked */
        __HAL_UNLOCK(huart);
 8003ae4:	68fb      	ldr	r3, [r7, #12]
 8003ae6:	2200      	movs	r2, #0
 8003ae8:	f883 2038 	strb.w	r2, [r3, #56]	; 0x38

        return HAL_TIMEOUT;
 8003aec:	2303      	movs	r3, #3
 8003aee:	e00f      	b.n	8003b10 <UART_WaitOnFlagUntilTimeout+0x8c>
  while ((__HAL_UART_GET_FLAG(huart, Flag) ? SET : RESET) == Status)
 8003af0:	68fb      	ldr	r3, [r7, #12]
 8003af2:	681b      	ldr	r3, [r3, #0]
 8003af4:	681a      	ldr	r2, [r3, #0]
 8003af6:	68bb      	ldr	r3, [r7, #8]
 8003af8:	4013      	ands	r3, r2
 8003afa:	68ba      	ldr	r2, [r7, #8]
 8003afc:	429a      	cmp	r2, r3
 8003afe:	bf0c      	ite	eq
 8003b00:	2301      	moveq	r3, #1
 8003b02:	2300      	movne	r3, #0
 8003b04:	b2db      	uxtb	r3, r3
 8003b06:	461a      	mov	r2, r3
 8003b08:	79fb      	ldrb	r3, [r7, #7]
 8003b0a:	429a      	cmp	r2, r3
 8003b0c:	d0c3      	beq.n	8003a96 <UART_WaitOnFlagUntilTimeout+0x12>
      }
    }
  }
  return HAL_OK;
 8003b0e:	2300      	movs	r3, #0
}
 8003b10:	4618      	mov	r0, r3
 8003b12:	3710      	adds	r7, #16
 8003b14:	46bd      	mov	sp, r7
 8003b16:	bd80      	pop	{r7, pc}

08003b18 <UART_SetConfig>:
  * @param  huart  Pointer to a UART_HandleTypeDef structure that contains
  *                the configuration information for the specified UART module.
  * @retval None
  */
static void UART_SetConfig(UART_HandleTypeDef *huart)
{
 8003b18:	e92d 4ff0 	stmdb	sp!, {r4, r5, r6, r7, r8, r9, sl, fp, lr}
 8003b1c:	b085      	sub	sp, #20
 8003b1e:	af00      	add	r7, sp, #0
 8003b20:	6078      	str	r0, [r7, #4]
  assert_param(IS_UART_MODE(huart->Init.Mode));

  /*-------------------------- USART CR2 Configuration -----------------------*/
  /* Configure the UART Stop Bits: Set STOP[13:12] bits
     according to huart->Init.StopBits value */
  MODIFY_REG(huart->Instance->CR2, USART_CR2_STOP, huart->Init.StopBits);
 8003b22:	687b      	ldr	r3, [r7, #4]
 8003b24:	681b      	ldr	r3, [r3, #0]
 8003b26:	691b      	ldr	r3, [r3, #16]
 8003b28:	f423 5140 	bic.w	r1, r3, #12288	; 0x3000
 8003b2c:	687b      	ldr	r3, [r7, #4]
 8003b2e:	68da      	ldr	r2, [r3, #12]
 8003b30:	687b      	ldr	r3, [r7, #4]
 8003b32:	681b      	ldr	r3, [r3, #0]
 8003b34:	430a      	orrs	r2, r1
 8003b36:	611a      	str	r2, [r3, #16]
     Set the M bits according to huart->Init.WordLength value
     Set PCE and PS bits according to huart->Init.Parity value
     Set TE and RE bits according to huart->Init.Mode value
     Set OVER8 bit according to huart->Init.OverSampling value */

  tmpreg = (uint32_t)huart->Init.WordLength | huart->Init.Parity | huart->Init.Mode | huart->Init.OverSampling;
 8003b38:	687b      	ldr	r3, [r7, #4]
 8003b3a:	689a      	ldr	r2, [r3, #8]
 8003b3c:	687b      	ldr	r3, [r7, #4]
 8003b3e:	691b      	ldr	r3, [r3, #16]
 8003b40:	431a      	orrs	r2, r3
 8003b42:	687b      	ldr	r3, [r7, #4]
 8003b44:	695b      	ldr	r3, [r3, #20]
 8003b46:	431a      	orrs	r2, r3
 8003b48:	687b      	ldr	r3, [r7, #4]
 8003b4a:	69db      	ldr	r3, [r3, #28]
 8003b4c:	4313      	orrs	r3, r2
 8003b4e:	60fb      	str	r3, [r7, #12]
  MODIFY_REG(huart->Instance->CR1,
 8003b50:	687b      	ldr	r3, [r7, #4]
 8003b52:	681b      	ldr	r3, [r3, #0]
 8003b54:	68db      	ldr	r3, [r3, #12]
 8003b56:	f423 4316 	bic.w	r3, r3, #38400	; 0x9600
 8003b5a:	f023 030c 	bic.w	r3, r3, #12
 8003b5e:	687a      	ldr	r2, [r7, #4]
 8003b60:	6812      	ldr	r2, [r2, #0]
 8003b62:	68f9      	ldr	r1, [r7, #12]
 8003b64:	430b      	orrs	r3, r1
 8003b66:	60d3      	str	r3, [r2, #12]
             (uint32_t)(USART_CR1_M | USART_CR1_PCE | USART_CR1_PS | USART_CR1_TE | USART_CR1_RE | USART_CR1_OVER8),
             tmpreg);

  /*-------------------------- USART CR3 Configuration -----------------------*/
  /* Configure the UART HFC: Set CTSE and RTSE bits according to huart->Init.HwFlowCtl value */
  MODIFY_REG(huart->Instance->CR3, (USART_CR3_RTSE | USART_CR3_CTSE), huart->Init.HwFlowCtl);
 8003b68:	687b      	ldr	r3, [r7, #4]
 8003b6a:	681b      	ldr	r3, [r3, #0]
 8003b6c:	695b      	ldr	r3, [r3, #20]
 8003b6e:	f423 7140 	bic.w	r1, r3, #768	; 0x300
 8003b72:	687b      	ldr	r3, [r7, #4]
 8003b74:	699a      	ldr	r2, [r3, #24]
 8003b76:	687b      	ldr	r3, [r7, #4]
 8003b78:	681b      	ldr	r3, [r3, #0]
 8003b7a:	430a      	orrs	r2, r1
 8003b7c:	615a      	str	r2, [r3, #20]

  /* Check the Over Sampling */
  if (huart->Init.OverSampling == UART_OVERSAMPLING_8)
 8003b7e:	687b      	ldr	r3, [r7, #4]
 8003b80:	69db      	ldr	r3, [r3, #28]
 8003b82:	f5b3 4f00 	cmp.w	r3, #32768	; 0x8000
 8003b86:	f040 818b 	bne.w	8003ea0 <UART_SetConfig+0x388>
    {
      pclk = HAL_RCC_GetPCLK2Freq();
      huart->Instance->BRR = UART_BRR_SAMPLING8(pclk, huart->Init.BaudRate);
    }
#elif defined(USART6)
    if ((huart->Instance == USART1) || (huart->Instance == USART6))
 8003b8a:	687b      	ldr	r3, [r7, #4]
 8003b8c:	681b      	ldr	r3, [r3, #0]
 8003b8e:	4ac1      	ldr	r2, [pc, #772]	; (8003e94 <UART_SetConfig+0x37c>)
 8003b90:	4293      	cmp	r3, r2
 8003b92:	d005      	beq.n	8003ba0 <UART_SetConfig+0x88>
 8003b94:	687b      	ldr	r3, [r7, #4]
 8003b96:	681b      	ldr	r3, [r3, #0]
 8003b98:	4abf      	ldr	r2, [pc, #764]	; (8003e98 <UART_SetConfig+0x380>)
 8003b9a:	4293      	cmp	r3, r2
 8003b9c:	f040 80bd 	bne.w	8003d1a <UART_SetConfig+0x202>
    {
      pclk = HAL_RCC_GetPCLK2Freq();
 8003ba0:	f7ff fa7c 	bl	800309c <HAL_RCC_GetPCLK2Freq>
 8003ba4:	60b8      	str	r0, [r7, #8]
      huart->Instance->BRR = UART_BRR_SAMPLING8(pclk, huart->Init.BaudRate);
 8003ba6:	68bb      	ldr	r3, [r7, #8]
 8003ba8:	461d      	mov	r5, r3
 8003baa:	f04f 0600 	mov.w	r6, #0
 8003bae:	46a8      	mov	r8, r5
 8003bb0:	46b1      	mov	r9, r6
 8003bb2:	eb18 0308 	adds.w	r3, r8, r8
 8003bb6:	eb49 0409 	adc.w	r4, r9, r9
 8003bba:	4698      	mov	r8, r3
 8003bbc:	46a1      	mov	r9, r4
 8003bbe:	eb18 0805 	adds.w	r8, r8, r5
 8003bc2:	eb49 0906 	adc.w	r9, r9, r6
 8003bc6:	f04f 0100 	mov.w	r1, #0
 8003bca:	f04f 0200 	mov.w	r2, #0
 8003bce:	ea4f 02c9 	mov.w	r2, r9, lsl #3
 8003bd2:	ea42 7258 	orr.w	r2, r2, r8, lsr #29
 8003bd6:	ea4f 01c8 	mov.w	r1, r8, lsl #3
 8003bda:	4688      	mov	r8, r1
 8003bdc:	4691      	mov	r9, r2
 8003bde:	eb18 0005 	adds.w	r0, r8, r5
 8003be2:	eb49 0106 	adc.w	r1, r9, r6
 8003be6:	687b      	ldr	r3, [r7, #4]
 8003be8:	685b      	ldr	r3, [r3, #4]
 8003bea:	461d      	mov	r5, r3
 8003bec:	f04f 0600 	mov.w	r6, #0
 8003bf0:	196b      	adds	r3, r5, r5
 8003bf2:	eb46 0406 	adc.w	r4, r6, r6
 8003bf6:	461a      	mov	r2, r3
 8003bf8:	4623      	mov	r3, r4
 8003bfa:	f7fd f845 	bl	8000c88 <__aeabi_uldivmod>
 8003bfe:	4603      	mov	r3, r0
 8003c00:	460c      	mov	r4, r1
 8003c02:	461a      	mov	r2, r3
 8003c04:	4ba5      	ldr	r3, [pc, #660]	; (8003e9c <UART_SetConfig+0x384>)
 8003c06:	fba3 2302 	umull	r2, r3, r3, r2
 8003c0a:	095b      	lsrs	r3, r3, #5
 8003c0c:	ea4f 1803 	mov.w	r8, r3, lsl #4
 8003c10:	68bb      	ldr	r3, [r7, #8]
 8003c12:	461d      	mov	r5, r3
 8003c14:	f04f 0600 	mov.w	r6, #0
 8003c18:	46a9      	mov	r9, r5
 8003c1a:	46b2      	mov	sl, r6
 8003c1c:	eb19 0309 	adds.w	r3, r9, r9
 8003c20:	eb4a 040a 	adc.w	r4, sl, sl
 8003c24:	4699      	mov	r9, r3
 8003c26:	46a2      	mov	sl, r4
 8003c28:	eb19 0905 	adds.w	r9, r9, r5
 8003c2c:	eb4a 0a06 	adc.w	sl, sl, r6
 8003c30:	f04f 0100 	mov.w	r1, #0
 8003c34:	f04f 0200 	mov.w	r2, #0
 8003c38:	ea4f 02ca 	mov.w	r2, sl, lsl #3
 8003c3c:	ea42 7259 	orr.w	r2, r2, r9, lsr #29
 8003c40:	ea4f 01c9 	mov.w	r1, r9, lsl #3
 8003c44:	4689      	mov	r9, r1
 8003c46:	4692      	mov	sl, r2
 8003c48:	eb19 0005 	adds.w	r0, r9, r5
 8003c4c:	eb4a 0106 	adc.w	r1, sl, r6
 8003c50:	687b      	ldr	r3, [r7, #4]
 8003c52:	685b      	ldr	r3, [r3, #4]
 8003c54:	461d      	mov	r5, r3
 8003c56:	f04f 0600 	mov.w	r6, #0
 8003c5a:	196b      	adds	r3, r5, r5
 8003c5c:	eb46 0406 	adc.w	r4, r6, r6
 8003c60:	461a      	mov	r2, r3
 8003c62:	4623      	mov	r3, r4
 8003c64:	f7fd f810 	bl	8000c88 <__aeabi_uldivmod>
 8003c68:	4603      	mov	r3, r0
 8003c6a:	460c      	mov	r4, r1
 8003c6c:	461a      	mov	r2, r3
 8003c6e:	4b8b      	ldr	r3, [pc, #556]	; (8003e9c <UART_SetConfig+0x384>)
 8003c70:	fba3 1302 	umull	r1, r3, r3, r2
 8003c74:	095b      	lsrs	r3, r3, #5
 8003c76:	2164      	movs	r1, #100	; 0x64
 8003c78:	fb01 f303 	mul.w	r3, r1, r3
 8003c7c:	1ad3      	subs	r3, r2, r3
 8003c7e:	00db      	lsls	r3, r3, #3
 8003c80:	3332      	adds	r3, #50	; 0x32
 8003c82:	4a86      	ldr	r2, [pc, #536]	; (8003e9c <UART_SetConfig+0x384>)
 8003c84:	fba2 2303 	umull	r2, r3, r2, r3
 8003c88:	095b      	lsrs	r3, r3, #5
 8003c8a:	005b      	lsls	r3, r3, #1
 8003c8c:	f403 73f8 	and.w	r3, r3, #496	; 0x1f0
 8003c90:	4498      	add	r8, r3
 8003c92:	68bb      	ldr	r3, [r7, #8]
 8003c94:	461d      	mov	r5, r3
 8003c96:	f04f 0600 	mov.w	r6, #0
 8003c9a:	46a9      	mov	r9, r5
 8003c9c:	46b2      	mov	sl, r6
 8003c9e:	eb19 0309 	adds.w	r3, r9, r9
 8003ca2:	eb4a 040a 	adc.w	r4, sl, sl
 8003ca6:	4699      	mov	r9, r3
 8003ca8:	46a2      	mov	sl, r4
 8003caa:	eb19 0905 	adds.w	r9, r9, r5
 8003cae:	eb4a 0a06 	adc.w	sl, sl, r6
 8003cb2:	f04f 0100 	mov.w	r1, #0
 8003cb6:	f04f 0200 	mov.w	r2, #0
 8003cba:	ea4f 02ca 	mov.w	r2, sl, lsl #3
 8003cbe:	ea42 7259 	orr.w	r2, r2, r9, lsr #29
 8003cc2:	ea4f 01c9 	mov.w	r1, r9, lsl #3
 8003cc6:	4689      	mov	r9, r1
 8003cc8:	4692      	mov	sl, r2
 8003cca:	eb19 0005 	adds.w	r0, r9, r5
 8003cce:	eb4a 0106 	adc.w	r1, sl, r6
 8003cd2:	687b      	ldr	r3, [r7, #4]
 8003cd4:	685b      	ldr	r3, [r3, #4]
 8003cd6:	461d      	mov	r5, r3
 8003cd8:	f04f 0600 	mov.w	r6, #0
 8003cdc:	196b      	adds	r3, r5, r5
 8003cde:	eb46 0406 	adc.w	r4, r6, r6
 8003ce2:	461a      	mov	r2, r3
 8003ce4:	4623      	mov	r3, r4
 8003ce6:	f7fc ffcf 	bl	8000c88 <__aeabi_uldivmod>
 8003cea:	4603      	mov	r3, r0
 8003cec:	460c      	mov	r4, r1
 8003cee:	461a      	mov	r2, r3
 8003cf0:	4b6a      	ldr	r3, [pc, #424]	; (8003e9c <UART_SetConfig+0x384>)
 8003cf2:	fba3 1302 	umull	r1, r3, r3, r2
 8003cf6:	095b      	lsrs	r3, r3, #5
 8003cf8:	2164      	movs	r1, #100	; 0x64
 8003cfa:	fb01 f303 	mul.w	r3, r1, r3
 8003cfe:	1ad3      	subs	r3, r2, r3
 8003d00:	00db      	lsls	r3, r3, #3
 8003d02:	3332      	adds	r3, #50	; 0x32
 8003d04:	4a65      	ldr	r2, [pc, #404]	; (8003e9c <UART_SetConfig+0x384>)
 8003d06:	fba2 2303 	umull	r2, r3, r2, r3
 8003d0a:	095b      	lsrs	r3, r3, #5
 8003d0c:	f003 0207 	and.w	r2, r3, #7
 8003d10:	687b      	ldr	r3, [r7, #4]
 8003d12:	681b      	ldr	r3, [r3, #0]
 8003d14:	4442      	add	r2, r8
 8003d16:	609a      	str	r2, [r3, #8]
 8003d18:	e26f      	b.n	80041fa <UART_SetConfig+0x6e2>
      huart->Instance->BRR = UART_BRR_SAMPLING8(pclk, huart->Init.BaudRate);
    }
#endif /* USART6 */
    else
    {
      pclk = HAL_RCC_GetPCLK1Freq();
 8003d1a:	f7ff f9ab 	bl	8003074 <HAL_RCC_GetPCLK1Freq>
 8003d1e:	60b8      	str	r0, [r7, #8]
      huart->Instance->BRR = UART_BRR_SAMPLING8(pclk, huart->Init.BaudRate);
 8003d20:	68bb      	ldr	r3, [r7, #8]
 8003d22:	461d      	mov	r5, r3
 8003d24:	f04f 0600 	mov.w	r6, #0
 8003d28:	46a8      	mov	r8, r5
 8003d2a:	46b1      	mov	r9, r6
 8003d2c:	eb18 0308 	adds.w	r3, r8, r8
 8003d30:	eb49 0409 	adc.w	r4, r9, r9
 8003d34:	4698      	mov	r8, r3
 8003d36:	46a1      	mov	r9, r4
 8003d38:	eb18 0805 	adds.w	r8, r8, r5
 8003d3c:	eb49 0906 	adc.w	r9, r9, r6
 8003d40:	f04f 0100 	mov.w	r1, #0
 8003d44:	f04f 0200 	mov.w	r2, #0
 8003d48:	ea4f 02c9 	mov.w	r2, r9, lsl #3
 8003d4c:	ea42 7258 	orr.w	r2, r2, r8, lsr #29
 8003d50:	ea4f 01c8 	mov.w	r1, r8, lsl #3
 8003d54:	4688      	mov	r8, r1
 8003d56:	4691      	mov	r9, r2
 8003d58:	eb18 0005 	adds.w	r0, r8, r5
 8003d5c:	eb49 0106 	adc.w	r1, r9, r6
 8003d60:	687b      	ldr	r3, [r7, #4]
 8003d62:	685b      	ldr	r3, [r3, #4]
 8003d64:	461d      	mov	r5, r3
 8003d66:	f04f 0600 	mov.w	r6, #0
 8003d6a:	196b      	adds	r3, r5, r5
 8003d6c:	eb46 0406 	adc.w	r4, r6, r6
 8003d70:	461a      	mov	r2, r3
 8003d72:	4623      	mov	r3, r4
 8003d74:	f7fc ff88 	bl	8000c88 <__aeabi_uldivmod>
 8003d78:	4603      	mov	r3, r0
 8003d7a:	460c      	mov	r4, r1
 8003d7c:	461a      	mov	r2, r3
 8003d7e:	4b47      	ldr	r3, [pc, #284]	; (8003e9c <UART_SetConfig+0x384>)
 8003d80:	fba3 2302 	umull	r2, r3, r3, r2
 8003d84:	095b      	lsrs	r3, r3, #5
 8003d86:	ea4f 1803 	mov.w	r8, r3, lsl #4
 8003d8a:	68bb      	ldr	r3, [r7, #8]
 8003d8c:	461d      	mov	r5, r3
 8003d8e:	f04f 0600 	mov.w	r6, #0
 8003d92:	46a9      	mov	r9, r5
 8003d94:	46b2      	mov	sl, r6
 8003d96:	eb19 0309 	adds.w	r3, r9, r9
 8003d9a:	eb4a 040a 	adc.w	r4, sl, sl
 8003d9e:	4699      	mov	r9, r3
 8003da0:	46a2      	mov	sl, r4
 8003da2:	eb19 0905 	adds.w	r9, r9, r5
 8003da6:	eb4a 0a06 	adc.w	sl, sl, r6
 8003daa:	f04f 0100 	mov.w	r1, #0
 8003dae:	f04f 0200 	mov.w	r2, #0
 8003db2:	ea4f 02ca 	mov.w	r2, sl, lsl #3
 8003db6:	ea42 7259 	orr.w	r2, r2, r9, lsr #29
 8003dba:	ea4f 01c9 	mov.w	r1, r9, lsl #3
 8003dbe:	4689      	mov	r9, r1
 8003dc0:	4692      	mov	sl, r2
 8003dc2:	eb19 0005 	adds.w	r0, r9, r5
 8003dc6:	eb4a 0106 	adc.w	r1, sl, r6
 8003dca:	687b      	ldr	r3, [r7, #4]
 8003dcc:	685b      	ldr	r3, [r3, #4]
 8003dce:	461d      	mov	r5, r3
 8003dd0:	f04f 0600 	mov.w	r6, #0
 8003dd4:	196b      	adds	r3, r5, r5
 8003dd6:	eb46 0406 	adc.w	r4, r6, r6
 8003dda:	461a      	mov	r2, r3
 8003ddc:	4623      	mov	r3, r4
 8003dde:	f7fc ff53 	bl	8000c88 <__aeabi_uldivmod>
 8003de2:	4603      	mov	r3, r0
 8003de4:	460c      	mov	r4, r1
 8003de6:	461a      	mov	r2, r3
 8003de8:	4b2c      	ldr	r3, [pc, #176]	; (8003e9c <UART_SetConfig+0x384>)
 8003dea:	fba3 1302 	umull	r1, r3, r3, r2
 8003dee:	095b      	lsrs	r3, r3, #5
 8003df0:	2164      	movs	r1, #100	; 0x64
 8003df2:	fb01 f303 	mul.w	r3, r1, r3
 8003df6:	1ad3      	subs	r3, r2, r3
 8003df8:	00db      	lsls	r3, r3, #3
 8003dfa:	3332      	adds	r3, #50	; 0x32
 8003dfc:	4a27      	ldr	r2, [pc, #156]	; (8003e9c <UART_SetConfig+0x384>)
 8003dfe:	fba2 2303 	umull	r2, r3, r2, r3
 8003e02:	095b      	lsrs	r3, r3, #5
 8003e04:	005b      	lsls	r3, r3, #1
 8003e06:	f403 73f8 	and.w	r3, r3, #496	; 0x1f0
 8003e0a:	4498      	add	r8, r3
 8003e0c:	68bb      	ldr	r3, [r7, #8]
 8003e0e:	461d      	mov	r5, r3
 8003e10:	f04f 0600 	mov.w	r6, #0
 8003e14:	46a9      	mov	r9, r5
 8003e16:	46b2      	mov	sl, r6
 8003e18:	eb19 0309 	adds.w	r3, r9, r9
 8003e1c:	eb4a 040a 	adc.w	r4, sl, sl
 8003e20:	4699      	mov	r9, r3
 8003e22:	46a2      	mov	sl, r4
 8003e24:	eb19 0905 	adds.w	r9, r9, r5
 8003e28:	eb4a 0a06 	adc.w	sl, sl, r6
 8003e2c:	f04f 0100 	mov.w	r1, #0
 8003e30:	f04f 0200 	mov.w	r2, #0
 8003e34:	ea4f 02ca 	mov.w	r2, sl, lsl #3
 8003e38:	ea42 7259 	orr.w	r2, r2, r9, lsr #29
 8003e3c:	ea4f 01c9 	mov.w	r1, r9, lsl #3
 8003e40:	4689      	mov	r9, r1
 8003e42:	4692      	mov	sl, r2
 8003e44:	eb19 0005 	adds.w	r0, r9, r5
 8003e48:	eb4a 0106 	adc.w	r1, sl, r6
 8003e4c:	687b      	ldr	r3, [r7, #4]
 8003e4e:	685b      	ldr	r3, [r3, #4]
 8003e50:	461d      	mov	r5, r3
 8003e52:	f04f 0600 	mov.w	r6, #0
 8003e56:	196b      	adds	r3, r5, r5
 8003e58:	eb46 0406 	adc.w	r4, r6, r6
 8003e5c:	461a      	mov	r2, r3
 8003e5e:	4623      	mov	r3, r4
 8003e60:	f7fc ff12 	bl	8000c88 <__aeabi_uldivmod>
 8003e64:	4603      	mov	r3, r0
 8003e66:	460c      	mov	r4, r1
 8003e68:	461a      	mov	r2, r3
 8003e6a:	4b0c      	ldr	r3, [pc, #48]	; (8003e9c <UART_SetConfig+0x384>)
 8003e6c:	fba3 1302 	umull	r1, r3, r3, r2
 8003e70:	095b      	lsrs	r3, r3, #5
 8003e72:	2164      	movs	r1, #100	; 0x64
 8003e74:	fb01 f303 	mul.w	r3, r1, r3
 8003e78:	1ad3      	subs	r3, r2, r3
 8003e7a:	00db      	lsls	r3, r3, #3
 8003e7c:	3332      	adds	r3, #50	; 0x32
 8003e7e:	4a07      	ldr	r2, [pc, #28]	; (8003e9c <UART_SetConfig+0x384>)
 8003e80:	fba2 2303 	umull	r2, r3, r2, r3
 8003e84:	095b      	lsrs	r3, r3, #5
 8003e86:	f003 0207 	and.w	r2, r3, #7
 8003e8a:	687b      	ldr	r3, [r7, #4]
 8003e8c:	681b      	ldr	r3, [r3, #0]
 8003e8e:	4442      	add	r2, r8
 8003e90:	609a      	str	r2, [r3, #8]
    {
      pclk = HAL_RCC_GetPCLK1Freq();
      huart->Instance->BRR = UART_BRR_SAMPLING16(pclk, huart->Init.BaudRate);
    }
  }
}
 8003e92:	e1b2      	b.n	80041fa <UART_SetConfig+0x6e2>
 8003e94:	40011000 	.word	0x40011000
 8003e98:	40011400 	.word	0x40011400
 8003e9c:	51eb851f 	.word	0x51eb851f
    if ((huart->Instance == USART1) || (huart->Instance == USART6))
 8003ea0:	687b      	ldr	r3, [r7, #4]
 8003ea2:	681b      	ldr	r3, [r3, #0]
 8003ea4:	4ad7      	ldr	r2, [pc, #860]	; (8004204 <UART_SetConfig+0x6ec>)
 8003ea6:	4293      	cmp	r3, r2
 8003ea8:	d005      	beq.n	8003eb6 <UART_SetConfig+0x39e>
 8003eaa:	687b      	ldr	r3, [r7, #4]
 8003eac:	681b      	ldr	r3, [r3, #0]
 8003eae:	4ad6      	ldr	r2, [pc, #856]	; (8004208 <UART_SetConfig+0x6f0>)
 8003eb0:	4293      	cmp	r3, r2
 8003eb2:	f040 80d1 	bne.w	8004058 <UART_SetConfig+0x540>
      pclk = HAL_RCC_GetPCLK2Freq();
 8003eb6:	f7ff f8f1 	bl	800309c <HAL_RCC_GetPCLK2Freq>
 8003eba:	60b8      	str	r0, [r7, #8]
      huart->Instance->BRR = UART_BRR_SAMPLING16(pclk, huart->Init.BaudRate);
 8003ebc:	68bb      	ldr	r3, [r7, #8]
 8003ebe:	469a      	mov	sl, r3
 8003ec0:	f04f 0b00 	mov.w	fp, #0
 8003ec4:	46d0      	mov	r8, sl
 8003ec6:	46d9      	mov	r9, fp
 8003ec8:	eb18 0308 	adds.w	r3, r8, r8
 8003ecc:	eb49 0409 	adc.w	r4, r9, r9
 8003ed0:	4698      	mov	r8, r3
 8003ed2:	46a1      	mov	r9, r4
 8003ed4:	eb18 080a 	adds.w	r8, r8, sl
 8003ed8:	eb49 090b 	adc.w	r9, r9, fp
 8003edc:	f04f 0100 	mov.w	r1, #0
 8003ee0:	f04f 0200 	mov.w	r2, #0
 8003ee4:	ea4f 02c9 	mov.w	r2, r9, lsl #3
 8003ee8:	ea42 7258 	orr.w	r2, r2, r8, lsr #29
 8003eec:	ea4f 01c8 	mov.w	r1, r8, lsl #3
 8003ef0:	4688      	mov	r8, r1
 8003ef2:	4691      	mov	r9, r2
 8003ef4:	eb1a 0508 	adds.w	r5, sl, r8
 8003ef8:	eb4b 0609 	adc.w	r6, fp, r9
 8003efc:	687b      	ldr	r3, [r7, #4]
 8003efe:	685b      	ldr	r3, [r3, #4]
 8003f00:	4619      	mov	r1, r3
 8003f02:	f04f 0200 	mov.w	r2, #0
 8003f06:	f04f 0300 	mov.w	r3, #0
 8003f0a:	f04f 0400 	mov.w	r4, #0
 8003f0e:	0094      	lsls	r4, r2, #2
 8003f10:	ea44 7491 	orr.w	r4, r4, r1, lsr #30
 8003f14:	008b      	lsls	r3, r1, #2
 8003f16:	461a      	mov	r2, r3
 8003f18:	4623      	mov	r3, r4
 8003f1a:	4628      	mov	r0, r5
 8003f1c:	4631      	mov	r1, r6
 8003f1e:	f7fc feb3 	bl	8000c88 <__aeabi_uldivmod>
 8003f22:	4603      	mov	r3, r0
 8003f24:	460c      	mov	r4, r1
 8003f26:	461a      	mov	r2, r3
 8003f28:	4bb8      	ldr	r3, [pc, #736]	; (800420c <UART_SetConfig+0x6f4>)
 8003f2a:	fba3 2302 	umull	r2, r3, r3, r2
 8003f2e:	095b      	lsrs	r3, r3, #5
 8003f30:	ea4f 1803 	mov.w	r8, r3, lsl #4
 8003f34:	68bb      	ldr	r3, [r7, #8]
 8003f36:	469b      	mov	fp, r3
 8003f38:	f04f 0c00 	mov.w	ip, #0
 8003f3c:	46d9      	mov	r9, fp
 8003f3e:	46e2      	mov	sl, ip
 8003f40:	eb19 0309 	adds.w	r3, r9, r9
 8003f44:	eb4a 040a 	adc.w	r4, sl, sl
 8003f48:	4699      	mov	r9, r3
 8003f4a:	46a2      	mov	sl, r4
 8003f4c:	eb19 090b 	adds.w	r9, r9, fp
 8003f50:	eb4a 0a0c 	adc.w	sl, sl, ip
 8003f54:	f04f 0100 	mov.w	r1, #0
 8003f58:	f04f 0200 	mov.w	r2, #0
 8003f5c:	ea4f 02ca 	mov.w	r2, sl, lsl #3
 8003f60:	ea42 7259 	orr.w	r2, r2, r9, lsr #29
 8003f64:	ea4f 01c9 	mov.w	r1, r9, lsl #3
 8003f68:	4689      	mov	r9, r1
 8003f6a:	4692      	mov	sl, r2
 8003f6c:	eb1b 0509 	adds.w	r5, fp, r9
 8003f70:	eb4c 060a 	adc.w	r6, ip, sl
 8003f74:	687b      	ldr	r3, [r7, #4]
 8003f76:	685b      	ldr	r3, [r3, #4]
 8003f78:	4619      	mov	r1, r3
 8003f7a:	f04f 0200 	mov.w	r2, #0
 8003f7e:	f04f 0300 	mov.w	r3, #0
 8003f82:	f04f 0400 	mov.w	r4, #0
 8003f86:	0094      	lsls	r4, r2, #2
 8003f88:	ea44 7491 	orr.w	r4, r4, r1, lsr #30
 8003f8c:	008b      	lsls	r3, r1, #2
 8003f8e:	461a      	mov	r2, r3
 8003f90:	4623      	mov	r3, r4
 8003f92:	4628      	mov	r0, r5
 8003f94:	4631      	mov	r1, r6
 8003f96:	f7fc fe77 	bl	8000c88 <__aeabi_uldivmod>
 8003f9a:	4603      	mov	r3, r0
 8003f9c:	460c      	mov	r4, r1
 8003f9e:	461a      	mov	r2, r3
 8003fa0:	4b9a      	ldr	r3, [pc, #616]	; (800420c <UART_SetConfig+0x6f4>)
 8003fa2:	fba3 1302 	umull	r1, r3, r3, r2
 8003fa6:	095b      	lsrs	r3, r3, #5
 8003fa8:	2164      	movs	r1, #100	; 0x64
 8003faa:	fb01 f303 	mul.w	r3, r1, r3
 8003fae:	1ad3      	subs	r3, r2, r3
 8003fb0:	011b      	lsls	r3, r3, #4
 8003fb2:	3332      	adds	r3, #50	; 0x32
 8003fb4:	4a95      	ldr	r2, [pc, #596]	; (800420c <UART_SetConfig+0x6f4>)
 8003fb6:	fba2 2303 	umull	r2, r3, r2, r3
 8003fba:	095b      	lsrs	r3, r3, #5
 8003fbc:	f003 03f0 	and.w	r3, r3, #240	; 0xf0
 8003fc0:	4498      	add	r8, r3
 8003fc2:	68bb      	ldr	r3, [r7, #8]
 8003fc4:	469b      	mov	fp, r3
 8003fc6:	f04f 0c00 	mov.w	ip, #0
 8003fca:	46d9      	mov	r9, fp
 8003fcc:	46e2      	mov	sl, ip
 8003fce:	eb19 0309 	adds.w	r3, r9, r9
 8003fd2:	eb4a 040a 	adc.w	r4, sl, sl
 8003fd6:	4699      	mov	r9, r3
 8003fd8:	46a2      	mov	sl, r4
 8003fda:	eb19 090b 	adds.w	r9, r9, fp
 8003fde:	eb4a 0a0c 	adc.w	sl, sl, ip
 8003fe2:	f04f 0100 	mov.w	r1, #0
 8003fe6:	f04f 0200 	mov.w	r2, #0
 8003fea:	ea4f 02ca 	mov.w	r2, sl, lsl #3
 8003fee:	ea42 7259 	orr.w	r2, r2, r9, lsr #29
 8003ff2:	ea4f 01c9 	mov.w	r1, r9, lsl #3
 8003ff6:	4689      	mov	r9, r1
 8003ff8:	4692      	mov	sl, r2
 8003ffa:	eb1b 0509 	adds.w	r5, fp, r9
 8003ffe:	eb4c 060a 	adc.w	r6, ip, sl
 8004002:	687b      	ldr	r3, [r7, #4]
 8004004:	685b      	ldr	r3, [r3, #4]
 8004006:	4619      	mov	r1, r3
 8004008:	f04f 0200 	mov.w	r2, #0
 800400c:	f04f 0300 	mov.w	r3, #0
 8004010:	f04f 0400 	mov.w	r4, #0
 8004014:	0094      	lsls	r4, r2, #2
 8004016:	ea44 7491 	orr.w	r4, r4, r1, lsr #30
 800401a:	008b      	lsls	r3, r1, #2
 800401c:	461a      	mov	r2, r3
 800401e:	4623      	mov	r3, r4
 8004020:	4628      	mov	r0, r5
 8004022:	4631      	mov	r1, r6
 8004024:	f7fc fe30 	bl	8000c88 <__aeabi_uldivmod>
 8004028:	4603      	mov	r3, r0
 800402a:	460c      	mov	r4, r1
 800402c:	461a      	mov	r2, r3
 800402e:	4b77      	ldr	r3, [pc, #476]	; (800420c <UART_SetConfig+0x6f4>)
 8004030:	fba3 1302 	umull	r1, r3, r3, r2
 8004034:	095b      	lsrs	r3, r3, #5
 8004036:	2164      	movs	r1, #100	; 0x64
 8004038:	fb01 f303 	mul.w	r3, r1, r3
 800403c:	1ad3      	subs	r3, r2, r3
 800403e:	011b      	lsls	r3, r3, #4
 8004040:	3332      	adds	r3, #50	; 0x32
 8004042:	4a72      	ldr	r2, [pc, #456]	; (800420c <UART_SetConfig+0x6f4>)
 8004044:	fba2 2303 	umull	r2, r3, r2, r3
 8004048:	095b      	lsrs	r3, r3, #5
 800404a:	f003 020f 	and.w	r2, r3, #15
 800404e:	687b      	ldr	r3, [r7, #4]
 8004050:	681b      	ldr	r3, [r3, #0]
 8004052:	4442      	add	r2, r8
 8004054:	609a      	str	r2, [r3, #8]
 8004056:	e0d0      	b.n	80041fa <UART_SetConfig+0x6e2>
      pclk = HAL_RCC_GetPCLK1Freq();
 8004058:	f7ff f80c 	bl	8003074 <HAL_RCC_GetPCLK1Freq>
 800405c:	60b8      	str	r0, [r7, #8]
      huart->Instance->BRR = UART_BRR_SAMPLING16(pclk, huart->Init.BaudRate);
 800405e:	68bb      	ldr	r3, [r7, #8]
 8004060:	469a      	mov	sl, r3
 8004062:	f04f 0b00 	mov.w	fp, #0
 8004066:	46d0      	mov	r8, sl
 8004068:	46d9      	mov	r9, fp
 800406a:	eb18 0308 	adds.w	r3, r8, r8
 800406e:	eb49 0409 	adc.w	r4, r9, r9
 8004072:	4698      	mov	r8, r3
 8004074:	46a1      	mov	r9, r4
 8004076:	eb18 080a 	adds.w	r8, r8, sl
 800407a:	eb49 090b 	adc.w	r9, r9, fp
 800407e:	f04f 0100 	mov.w	r1, #0
 8004082:	f04f 0200 	mov.w	r2, #0
 8004086:	ea4f 02c9 	mov.w	r2, r9, lsl #3
 800408a:	ea42 7258 	orr.w	r2, r2, r8, lsr #29
 800408e:	ea4f 01c8 	mov.w	r1, r8, lsl #3
 8004092:	4688      	mov	r8, r1
 8004094:	4691      	mov	r9, r2
 8004096:	eb1a 0508 	adds.w	r5, sl, r8
 800409a:	eb4b 0609 	adc.w	r6, fp, r9
 800409e:	687b      	ldr	r3, [r7, #4]
 80040a0:	685b      	ldr	r3, [r3, #4]
 80040a2:	4619      	mov	r1, r3
 80040a4:	f04f 0200 	mov.w	r2, #0
 80040a8:	f04f 0300 	mov.w	r3, #0
 80040ac:	f04f 0400 	mov.w	r4, #0
 80040b0:	0094      	lsls	r4, r2, #2
 80040b2:	ea44 7491 	orr.w	r4, r4, r1, lsr #30
 80040b6:	008b      	lsls	r3, r1, #2
 80040b8:	461a      	mov	r2, r3
 80040ba:	4623      	mov	r3, r4
 80040bc:	4628      	mov	r0, r5
 80040be:	4631      	mov	r1, r6
 80040c0:	f7fc fde2 	bl	8000c88 <__aeabi_uldivmod>
 80040c4:	4603      	mov	r3, r0
 80040c6:	460c      	mov	r4, r1
 80040c8:	461a      	mov	r2, r3
 80040ca:	4b50      	ldr	r3, [pc, #320]	; (800420c <UART_SetConfig+0x6f4>)
 80040cc:	fba3 2302 	umull	r2, r3, r3, r2
 80040d0:	095b      	lsrs	r3, r3, #5
 80040d2:	ea4f 1803 	mov.w	r8, r3, lsl #4
 80040d6:	68bb      	ldr	r3, [r7, #8]
 80040d8:	469b      	mov	fp, r3
 80040da:	f04f 0c00 	mov.w	ip, #0
 80040de:	46d9      	mov	r9, fp
 80040e0:	46e2      	mov	sl, ip
 80040e2:	eb19 0309 	adds.w	r3, r9, r9
 80040e6:	eb4a 040a 	adc.w	r4, sl, sl
 80040ea:	4699      	mov	r9, r3
 80040ec:	46a2      	mov	sl, r4
 80040ee:	eb19 090b 	adds.w	r9, r9, fp
 80040f2:	eb4a 0a0c 	adc.w	sl, sl, ip
 80040f6:	f04f 0100 	mov.w	r1, #0
 80040fa:	f04f 0200 	mov.w	r2, #0
 80040fe:	ea4f 02ca 	mov.w	r2, sl, lsl #3
 8004102:	ea42 7259 	orr.w	r2, r2, r9, lsr #29
 8004106:	ea4f 01c9 	mov.w	r1, r9, lsl #3
 800410a:	4689      	mov	r9, r1
 800410c:	4692      	mov	sl, r2
 800410e:	eb1b 0509 	adds.w	r5, fp, r9
 8004112:	eb4c 060a 	adc.w	r6, ip, sl
 8004116:	687b      	ldr	r3, [r7, #4]
 8004118:	685b      	ldr	r3, [r3, #4]
 800411a:	4619      	mov	r1, r3
 800411c:	f04f 0200 	mov.w	r2, #0
 8004120:	f04f 0300 	mov.w	r3, #0
 8004124:	f04f 0400 	mov.w	r4, #0
 8004128:	0094      	lsls	r4, r2, #2
 800412a:	ea44 7491 	orr.w	r4, r4, r1, lsr #30
 800412e:	008b      	lsls	r3, r1, #2
 8004130:	461a      	mov	r2, r3
 8004132:	4623      	mov	r3, r4
 8004134:	4628      	mov	r0, r5
 8004136:	4631      	mov	r1, r6
 8004138:	f7fc fda6 	bl	8000c88 <__aeabi_uldivmod>
 800413c:	4603      	mov	r3, r0
 800413e:	460c      	mov	r4, r1
 8004140:	461a      	mov	r2, r3
 8004142:	4b32      	ldr	r3, [pc, #200]	; (800420c <UART_SetConfig+0x6f4>)
 8004144:	fba3 1302 	umull	r1, r3, r3, r2
 8004148:	095b      	lsrs	r3, r3, #5
 800414a:	2164      	movs	r1, #100	; 0x64
 800414c:	fb01 f303 	mul.w	r3, r1, r3
 8004150:	1ad3      	subs	r3, r2, r3
 8004152:	011b      	lsls	r3, r3, #4
 8004154:	3332      	adds	r3, #50	; 0x32
 8004156:	4a2d      	ldr	r2, [pc, #180]	; (800420c <UART_SetConfig+0x6f4>)
 8004158:	fba2 2303 	umull	r2, r3, r2, r3
 800415c:	095b      	lsrs	r3, r3, #5
 800415e:	f003 03f0 	and.w	r3, r3, #240	; 0xf0
 8004162:	4498      	add	r8, r3
 8004164:	68bb      	ldr	r3, [r7, #8]
 8004166:	469b      	mov	fp, r3
 8004168:	f04f 0c00 	mov.w	ip, #0
 800416c:	46d9      	mov	r9, fp
 800416e:	46e2      	mov	sl, ip
 8004170:	eb19 0309 	adds.w	r3, r9, r9
 8004174:	eb4a 040a 	adc.w	r4, sl, sl
 8004178:	4699      	mov	r9, r3
 800417a:	46a2      	mov	sl, r4
 800417c:	eb19 090b 	adds.w	r9, r9, fp
 8004180:	eb4a 0a0c 	adc.w	sl, sl, ip
 8004184:	f04f 0100 	mov.w	r1, #0
 8004188:	f04f 0200 	mov.w	r2, #0
 800418c:	ea4f 02ca 	mov.w	r2, sl, lsl #3
 8004190:	ea42 7259 	orr.w	r2, r2, r9, lsr #29
 8004194:	ea4f 01c9 	mov.w	r1, r9, lsl #3
 8004198:	4689      	mov	r9, r1
 800419a:	4692      	mov	sl, r2
 800419c:	eb1b 0509 	adds.w	r5, fp, r9
 80041a0:	eb4c 060a 	adc.w	r6, ip, sl
 80041a4:	687b      	ldr	r3, [r7, #4]
 80041a6:	685b      	ldr	r3, [r3, #4]
 80041a8:	4619      	mov	r1, r3
 80041aa:	f04f 0200 	mov.w	r2, #0
 80041ae:	f04f 0300 	mov.w	r3, #0
 80041b2:	f04f 0400 	mov.w	r4, #0
 80041b6:	0094      	lsls	r4, r2, #2
 80041b8:	ea44 7491 	orr.w	r4, r4, r1, lsr #30
 80041bc:	008b      	lsls	r3, r1, #2
 80041be:	461a      	mov	r2, r3
 80041c0:	4623      	mov	r3, r4
 80041c2:	4628      	mov	r0, r5
 80041c4:	4631      	mov	r1, r6
 80041c6:	f7fc fd5f 	bl	8000c88 <__aeabi_uldivmod>
 80041ca:	4603      	mov	r3, r0
 80041cc:	460c      	mov	r4, r1
 80041ce:	461a      	mov	r2, r3
 80041d0:	4b0e      	ldr	r3, [pc, #56]	; (800420c <UART_SetConfig+0x6f4>)
 80041d2:	fba3 1302 	umull	r1, r3, r3, r2
 80041d6:	095b      	lsrs	r3, r3, #5
 80041d8:	2164      	movs	r1, #100	; 0x64
 80041da:	fb01 f303 	mul.w	r3, r1, r3
 80041de:	1ad3      	subs	r3, r2, r3
 80041e0:	011b      	lsls	r3, r3, #4
 80041e2:	3332      	adds	r3, #50	; 0x32
 80041e4:	4a09      	ldr	r2, [pc, #36]	; (800420c <UART_SetConfig+0x6f4>)
 80041e6:	fba2 2303 	umull	r2, r3, r2, r3
 80041ea:	095b      	lsrs	r3, r3, #5
 80041ec:	f003 020f 	and.w	r2, r3, #15
 80041f0:	687b      	ldr	r3, [r7, #4]
 80041f2:	681b      	ldr	r3, [r3, #0]
 80041f4:	4442      	add	r2, r8
 80041f6:	609a      	str	r2, [r3, #8]
}
 80041f8:	e7ff      	b.n	80041fa <UART_SetConfig+0x6e2>
 80041fa:	bf00      	nop
 80041fc:	3714      	adds	r7, #20
 80041fe:	46bd      	mov	sp, r7
 8004200:	e8bd 8ff0 	ldmia.w	sp!, {r4, r5, r6, r7, r8, r9, sl, fp, pc}
 8004204:	40011000 	.word	0x40011000
 8004208:	40011400 	.word	0x40011400
 800420c:	51eb851f 	.word	0x51eb851f

08004210 <__errno>:
 8004210:	4b01      	ldr	r3, [pc, #4]	; (8004218 <__errno+0x8>)
 8004212:	6818      	ldr	r0, [r3, #0]
 8004214:	4770      	bx	lr
 8004216:	bf00      	nop
 8004218:	2000000c 	.word	0x2000000c

0800421c <__libc_init_array>:
 800421c:	b570      	push	{r4, r5, r6, lr}
 800421e:	4e0d      	ldr	r6, [pc, #52]	; (8004254 <__libc_init_array+0x38>)
 8004220:	4c0d      	ldr	r4, [pc, #52]	; (8004258 <__libc_init_array+0x3c>)
 8004222:	1ba4      	subs	r4, r4, r6
 8004224:	10a4      	asrs	r4, r4, #2
 8004226:	2500      	movs	r5, #0
 8004228:	42a5      	cmp	r5, r4
 800422a:	d109      	bne.n	8004240 <__libc_init_array+0x24>
 800422c:	4e0b      	ldr	r6, [pc, #44]	; (800425c <__libc_init_array+0x40>)
 800422e:	4c0c      	ldr	r4, [pc, #48]	; (8004260 <__libc_init_array+0x44>)
 8004230:	f002 f85e 	bl	80062f0 <_init>
 8004234:	1ba4      	subs	r4, r4, r6
 8004236:	10a4      	asrs	r4, r4, #2
 8004238:	2500      	movs	r5, #0
 800423a:	42a5      	cmp	r5, r4
 800423c:	d105      	bne.n	800424a <__libc_init_array+0x2e>
 800423e:	bd70      	pop	{r4, r5, r6, pc}
 8004240:	f856 3025 	ldr.w	r3, [r6, r5, lsl #2]
 8004244:	4798      	blx	r3
 8004246:	3501      	adds	r5, #1
 8004248:	e7ee      	b.n	8004228 <__libc_init_array+0xc>
 800424a:	f856 3025 	ldr.w	r3, [r6, r5, lsl #2]
 800424e:	4798      	blx	r3
 8004250:	3501      	adds	r5, #1
 8004252:	e7f2      	b.n	800423a <__libc_init_array+0x1e>
 8004254:	08006590 	.word	0x08006590
 8004258:	08006590 	.word	0x08006590
 800425c:	08006590 	.word	0x08006590
 8004260:	08006594 	.word	0x08006594

08004264 <memset>:
 8004264:	4402      	add	r2, r0
 8004266:	4603      	mov	r3, r0
 8004268:	4293      	cmp	r3, r2
 800426a:	d100      	bne.n	800426e <memset+0xa>
 800426c:	4770      	bx	lr
 800426e:	f803 1b01 	strb.w	r1, [r3], #1
 8004272:	e7f9      	b.n	8004268 <memset+0x4>

08004274 <__cvt>:
 8004274:	e92d 47ff 	stmdb	sp!, {r0, r1, r2, r3, r4, r5, r6, r7, r8, r9, sl, lr}
 8004278:	ec55 4b10 	vmov	r4, r5, d0
 800427c:	9f0d      	ldr	r7, [sp, #52]	; 0x34
 800427e:	f8dd a030 	ldr.w	sl, [sp, #48]	; 0x30
 8004282:	2d00      	cmp	r5, #0
 8004284:	460e      	mov	r6, r1
 8004286:	4691      	mov	r9, r2
 8004288:	4619      	mov	r1, r3
 800428a:	bfb8      	it	lt
 800428c:	4622      	movlt	r2, r4
 800428e:	462b      	mov	r3, r5
 8004290:	f027 0720 	bic.w	r7, r7, #32
 8004294:	bfbb      	ittet	lt
 8004296:	f105 4300 	addlt.w	r3, r5, #2147483648	; 0x80000000
 800429a:	461d      	movlt	r5, r3
 800429c:	2300      	movge	r3, #0
 800429e:	232d      	movlt	r3, #45	; 0x2d
 80042a0:	bfb8      	it	lt
 80042a2:	4614      	movlt	r4, r2
 80042a4:	2f46      	cmp	r7, #70	; 0x46
 80042a6:	700b      	strb	r3, [r1, #0]
 80042a8:	d004      	beq.n	80042b4 <__cvt+0x40>
 80042aa:	2f45      	cmp	r7, #69	; 0x45
 80042ac:	d100      	bne.n	80042b0 <__cvt+0x3c>
 80042ae:	3601      	adds	r6, #1
 80042b0:	2102      	movs	r1, #2
 80042b2:	e000      	b.n	80042b6 <__cvt+0x42>
 80042b4:	2103      	movs	r1, #3
 80042b6:	ab03      	add	r3, sp, #12
 80042b8:	9301      	str	r3, [sp, #4]
 80042ba:	ab02      	add	r3, sp, #8
 80042bc:	9300      	str	r3, [sp, #0]
 80042be:	4632      	mov	r2, r6
 80042c0:	4653      	mov	r3, sl
 80042c2:	ec45 4b10 	vmov	d0, r4, r5
 80042c6:	f000 fcdf 	bl	8004c88 <_dtoa_r>
 80042ca:	2f47      	cmp	r7, #71	; 0x47
 80042cc:	4680      	mov	r8, r0
 80042ce:	d102      	bne.n	80042d6 <__cvt+0x62>
 80042d0:	f019 0f01 	tst.w	r9, #1
 80042d4:	d026      	beq.n	8004324 <__cvt+0xb0>
 80042d6:	2f46      	cmp	r7, #70	; 0x46
 80042d8:	eb08 0906 	add.w	r9, r8, r6
 80042dc:	d111      	bne.n	8004302 <__cvt+0x8e>
 80042de:	f898 3000 	ldrb.w	r3, [r8]
 80042e2:	2b30      	cmp	r3, #48	; 0x30
 80042e4:	d10a      	bne.n	80042fc <__cvt+0x88>
 80042e6:	2200      	movs	r2, #0
 80042e8:	2300      	movs	r3, #0
 80042ea:	4620      	mov	r0, r4
 80042ec:	4629      	mov	r1, r5
 80042ee:	f7fc fc0b 	bl	8000b08 <__aeabi_dcmpeq>
 80042f2:	b918      	cbnz	r0, 80042fc <__cvt+0x88>
 80042f4:	f1c6 0601 	rsb	r6, r6, #1
 80042f8:	f8ca 6000 	str.w	r6, [sl]
 80042fc:	f8da 3000 	ldr.w	r3, [sl]
 8004300:	4499      	add	r9, r3
 8004302:	2200      	movs	r2, #0
 8004304:	2300      	movs	r3, #0
 8004306:	4620      	mov	r0, r4
 8004308:	4629      	mov	r1, r5
 800430a:	f7fc fbfd 	bl	8000b08 <__aeabi_dcmpeq>
 800430e:	b938      	cbnz	r0, 8004320 <__cvt+0xac>
 8004310:	2230      	movs	r2, #48	; 0x30
 8004312:	9b03      	ldr	r3, [sp, #12]
 8004314:	454b      	cmp	r3, r9
 8004316:	d205      	bcs.n	8004324 <__cvt+0xb0>
 8004318:	1c59      	adds	r1, r3, #1
 800431a:	9103      	str	r1, [sp, #12]
 800431c:	701a      	strb	r2, [r3, #0]
 800431e:	e7f8      	b.n	8004312 <__cvt+0x9e>
 8004320:	f8cd 900c 	str.w	r9, [sp, #12]
 8004324:	9b03      	ldr	r3, [sp, #12]
 8004326:	9a0e      	ldr	r2, [sp, #56]	; 0x38
 8004328:	eba3 0308 	sub.w	r3, r3, r8
 800432c:	4640      	mov	r0, r8
 800432e:	6013      	str	r3, [r2, #0]
 8004330:	b004      	add	sp, #16
 8004332:	e8bd 87f0 	ldmia.w	sp!, {r4, r5, r6, r7, r8, r9, sl, pc}

08004336 <__exponent>:
 8004336:	b5f7      	push	{r0, r1, r2, r4, r5, r6, r7, lr}
 8004338:	2900      	cmp	r1, #0
 800433a:	4604      	mov	r4, r0
 800433c:	bfba      	itte	lt
 800433e:	4249      	neglt	r1, r1
 8004340:	232d      	movlt	r3, #45	; 0x2d
 8004342:	232b      	movge	r3, #43	; 0x2b
 8004344:	2909      	cmp	r1, #9
 8004346:	f804 2b02 	strb.w	r2, [r4], #2
 800434a:	7043      	strb	r3, [r0, #1]
 800434c:	dd20      	ble.n	8004390 <__exponent+0x5a>
 800434e:	f10d 0307 	add.w	r3, sp, #7
 8004352:	461f      	mov	r7, r3
 8004354:	260a      	movs	r6, #10
 8004356:	fb91 f5f6 	sdiv	r5, r1, r6
 800435a:	fb06 1115 	mls	r1, r6, r5, r1
 800435e:	3130      	adds	r1, #48	; 0x30
 8004360:	2d09      	cmp	r5, #9
 8004362:	f803 1c01 	strb.w	r1, [r3, #-1]
 8004366:	f103 32ff 	add.w	r2, r3, #4294967295
 800436a:	4629      	mov	r1, r5
 800436c:	dc09      	bgt.n	8004382 <__exponent+0x4c>
 800436e:	3130      	adds	r1, #48	; 0x30
 8004370:	3b02      	subs	r3, #2
 8004372:	f802 1c01 	strb.w	r1, [r2, #-1]
 8004376:	42bb      	cmp	r3, r7
 8004378:	4622      	mov	r2, r4
 800437a:	d304      	bcc.n	8004386 <__exponent+0x50>
 800437c:	1a10      	subs	r0, r2, r0
 800437e:	b003      	add	sp, #12
 8004380:	bdf0      	pop	{r4, r5, r6, r7, pc}
 8004382:	4613      	mov	r3, r2
 8004384:	e7e7      	b.n	8004356 <__exponent+0x20>
 8004386:	f813 2b01 	ldrb.w	r2, [r3], #1
 800438a:	f804 2b01 	strb.w	r2, [r4], #1
 800438e:	e7f2      	b.n	8004376 <__exponent+0x40>
 8004390:	2330      	movs	r3, #48	; 0x30
 8004392:	4419      	add	r1, r3
 8004394:	7083      	strb	r3, [r0, #2]
 8004396:	1d02      	adds	r2, r0, #4
 8004398:	70c1      	strb	r1, [r0, #3]
 800439a:	e7ef      	b.n	800437c <__exponent+0x46>

0800439c <_printf_float>:
 800439c:	e92d 4ff0 	stmdb	sp!, {r4, r5, r6, r7, r8, r9, sl, fp, lr}
 80043a0:	b08d      	sub	sp, #52	; 0x34
 80043a2:	460c      	mov	r4, r1
 80043a4:	f8dd 8058 	ldr.w	r8, [sp, #88]	; 0x58
 80043a8:	4616      	mov	r6, r2
 80043aa:	461f      	mov	r7, r3
 80043ac:	4605      	mov	r5, r0
 80043ae:	f001 fa23 	bl	80057f8 <_localeconv_r>
 80043b2:	6803      	ldr	r3, [r0, #0]
 80043b4:	9304      	str	r3, [sp, #16]
 80043b6:	4618      	mov	r0, r3
 80043b8:	f7fb ff2a 	bl	8000210 <strlen>
 80043bc:	2300      	movs	r3, #0
 80043be:	930a      	str	r3, [sp, #40]	; 0x28
 80043c0:	f8d8 3000 	ldr.w	r3, [r8]
 80043c4:	9005      	str	r0, [sp, #20]
 80043c6:	3307      	adds	r3, #7
 80043c8:	f023 0307 	bic.w	r3, r3, #7
 80043cc:	f103 0208 	add.w	r2, r3, #8
 80043d0:	f894 a018 	ldrb.w	sl, [r4, #24]
 80043d4:	f8d4 b000 	ldr.w	fp, [r4]
 80043d8:	f8c8 2000 	str.w	r2, [r8]
 80043dc:	e9d3 2300 	ldrd	r2, r3, [r3]
 80043e0:	e9c4 2312 	strd	r2, r3, [r4, #72]	; 0x48
 80043e4:	e9d4 8912 	ldrd	r8, r9, [r4, #72]	; 0x48
 80043e8:	f029 4300 	bic.w	r3, r9, #2147483648	; 0x80000000
 80043ec:	9307      	str	r3, [sp, #28]
 80043ee:	f8cd 8018 	str.w	r8, [sp, #24]
 80043f2:	f04f 32ff 	mov.w	r2, #4294967295
 80043f6:	4ba7      	ldr	r3, [pc, #668]	; (8004694 <_printf_float+0x2f8>)
 80043f8:	e9dd 0106 	ldrd	r0, r1, [sp, #24]
 80043fc:	f7fc fbb6 	bl	8000b6c <__aeabi_dcmpun>
 8004400:	bb70      	cbnz	r0, 8004460 <_printf_float+0xc4>
 8004402:	f04f 32ff 	mov.w	r2, #4294967295
 8004406:	4ba3      	ldr	r3, [pc, #652]	; (8004694 <_printf_float+0x2f8>)
 8004408:	e9dd 0106 	ldrd	r0, r1, [sp, #24]
 800440c:	f7fc fb90 	bl	8000b30 <__aeabi_dcmple>
 8004410:	bb30      	cbnz	r0, 8004460 <_printf_float+0xc4>
 8004412:	2200      	movs	r2, #0
 8004414:	2300      	movs	r3, #0
 8004416:	4640      	mov	r0, r8
 8004418:	4649      	mov	r1, r9
 800441a:	f7fc fb7f 	bl	8000b1c <__aeabi_dcmplt>
 800441e:	b110      	cbz	r0, 8004426 <_printf_float+0x8a>
 8004420:	232d      	movs	r3, #45	; 0x2d
 8004422:	f884 3043 	strb.w	r3, [r4, #67]	; 0x43
 8004426:	4a9c      	ldr	r2, [pc, #624]	; (8004698 <_printf_float+0x2fc>)
 8004428:	4b9c      	ldr	r3, [pc, #624]	; (800469c <_printf_float+0x300>)
 800442a:	f1ba 0f47 	cmp.w	sl, #71	; 0x47
 800442e:	bf8c      	ite	hi
 8004430:	4690      	movhi	r8, r2
 8004432:	4698      	movls	r8, r3
 8004434:	2303      	movs	r3, #3
 8004436:	f02b 0204 	bic.w	r2, fp, #4
 800443a:	6123      	str	r3, [r4, #16]
 800443c:	6022      	str	r2, [r4, #0]
 800443e:	f04f 0900 	mov.w	r9, #0
 8004442:	9700      	str	r7, [sp, #0]
 8004444:	4633      	mov	r3, r6
 8004446:	aa0b      	add	r2, sp, #44	; 0x2c
 8004448:	4621      	mov	r1, r4
 800444a:	4628      	mov	r0, r5
 800444c:	f000 f9e6 	bl	800481c <_printf_common>
 8004450:	3001      	adds	r0, #1
 8004452:	f040 808d 	bne.w	8004570 <_printf_float+0x1d4>
 8004456:	f04f 30ff 	mov.w	r0, #4294967295
 800445a:	b00d      	add	sp, #52	; 0x34
 800445c:	e8bd 8ff0 	ldmia.w	sp!, {r4, r5, r6, r7, r8, r9, sl, fp, pc}
 8004460:	4642      	mov	r2, r8
 8004462:	464b      	mov	r3, r9
 8004464:	4640      	mov	r0, r8
 8004466:	4649      	mov	r1, r9
 8004468:	f7fc fb80 	bl	8000b6c <__aeabi_dcmpun>
 800446c:	b110      	cbz	r0, 8004474 <_printf_float+0xd8>
 800446e:	4a8c      	ldr	r2, [pc, #560]	; (80046a0 <_printf_float+0x304>)
 8004470:	4b8c      	ldr	r3, [pc, #560]	; (80046a4 <_printf_float+0x308>)
 8004472:	e7da      	b.n	800442a <_printf_float+0x8e>
 8004474:	6861      	ldr	r1, [r4, #4]
 8004476:	1c4b      	adds	r3, r1, #1
 8004478:	f44b 6280 	orr.w	r2, fp, #1024	; 0x400
 800447c:	a80a      	add	r0, sp, #40	; 0x28
 800447e:	d13e      	bne.n	80044fe <_printf_float+0x162>
 8004480:	2306      	movs	r3, #6
 8004482:	6063      	str	r3, [r4, #4]
 8004484:	2300      	movs	r3, #0
 8004486:	e9cd 0302 	strd	r0, r3, [sp, #8]
 800448a:	ab09      	add	r3, sp, #36	; 0x24
 800448c:	9300      	str	r3, [sp, #0]
 800448e:	ec49 8b10 	vmov	d0, r8, r9
 8004492:	f10d 0323 	add.w	r3, sp, #35	; 0x23
 8004496:	6022      	str	r2, [r4, #0]
 8004498:	f8cd a004 	str.w	sl, [sp, #4]
 800449c:	6861      	ldr	r1, [r4, #4]
 800449e:	4628      	mov	r0, r5
 80044a0:	f7ff fee8 	bl	8004274 <__cvt>
 80044a4:	f00a 03df 	and.w	r3, sl, #223	; 0xdf
 80044a8:	2b47      	cmp	r3, #71	; 0x47
 80044aa:	4680      	mov	r8, r0
 80044ac:	d109      	bne.n	80044c2 <_printf_float+0x126>
 80044ae:	9b09      	ldr	r3, [sp, #36]	; 0x24
 80044b0:	1cd8      	adds	r0, r3, #3
 80044b2:	db02      	blt.n	80044ba <_printf_float+0x11e>
 80044b4:	6862      	ldr	r2, [r4, #4]
 80044b6:	4293      	cmp	r3, r2
 80044b8:	dd47      	ble.n	800454a <_printf_float+0x1ae>
 80044ba:	f1aa 0a02 	sub.w	sl, sl, #2
 80044be:	fa5f fa8a 	uxtb.w	sl, sl
 80044c2:	f1ba 0f65 	cmp.w	sl, #101	; 0x65
 80044c6:	9909      	ldr	r1, [sp, #36]	; 0x24
 80044c8:	d824      	bhi.n	8004514 <_printf_float+0x178>
 80044ca:	3901      	subs	r1, #1
 80044cc:	4652      	mov	r2, sl
 80044ce:	f104 0050 	add.w	r0, r4, #80	; 0x50
 80044d2:	9109      	str	r1, [sp, #36]	; 0x24
 80044d4:	f7ff ff2f 	bl	8004336 <__exponent>
 80044d8:	9a0a      	ldr	r2, [sp, #40]	; 0x28
 80044da:	1813      	adds	r3, r2, r0
 80044dc:	2a01      	cmp	r2, #1
 80044de:	4681      	mov	r9, r0
 80044e0:	6123      	str	r3, [r4, #16]
 80044e2:	dc02      	bgt.n	80044ea <_printf_float+0x14e>
 80044e4:	6822      	ldr	r2, [r4, #0]
 80044e6:	07d1      	lsls	r1, r2, #31
 80044e8:	d501      	bpl.n	80044ee <_printf_float+0x152>
 80044ea:	3301      	adds	r3, #1
 80044ec:	6123      	str	r3, [r4, #16]
 80044ee:	f89d 3023 	ldrb.w	r3, [sp, #35]	; 0x23
 80044f2:	2b00      	cmp	r3, #0
 80044f4:	d0a5      	beq.n	8004442 <_printf_float+0xa6>
 80044f6:	232d      	movs	r3, #45	; 0x2d
 80044f8:	f884 3043 	strb.w	r3, [r4, #67]	; 0x43
 80044fc:	e7a1      	b.n	8004442 <_printf_float+0xa6>
 80044fe:	f1ba 0f67 	cmp.w	sl, #103	; 0x67
 8004502:	f000 8177 	beq.w	80047f4 <_printf_float+0x458>
 8004506:	f1ba 0f47 	cmp.w	sl, #71	; 0x47
 800450a:	d1bb      	bne.n	8004484 <_printf_float+0xe8>
 800450c:	2900      	cmp	r1, #0
 800450e:	d1b9      	bne.n	8004484 <_printf_float+0xe8>
 8004510:	2301      	movs	r3, #1
 8004512:	e7b6      	b.n	8004482 <_printf_float+0xe6>
 8004514:	f1ba 0f66 	cmp.w	sl, #102	; 0x66
 8004518:	d119      	bne.n	800454e <_printf_float+0x1b2>
 800451a:	2900      	cmp	r1, #0
 800451c:	6863      	ldr	r3, [r4, #4]
 800451e:	dd0c      	ble.n	800453a <_printf_float+0x19e>
 8004520:	6121      	str	r1, [r4, #16]
 8004522:	b913      	cbnz	r3, 800452a <_printf_float+0x18e>
 8004524:	6822      	ldr	r2, [r4, #0]
 8004526:	07d2      	lsls	r2, r2, #31
 8004528:	d502      	bpl.n	8004530 <_printf_float+0x194>
 800452a:	3301      	adds	r3, #1
 800452c:	440b      	add	r3, r1
 800452e:	6123      	str	r3, [r4, #16]
 8004530:	9b09      	ldr	r3, [sp, #36]	; 0x24
 8004532:	65a3      	str	r3, [r4, #88]	; 0x58
 8004534:	f04f 0900 	mov.w	r9, #0
 8004538:	e7d9      	b.n	80044ee <_printf_float+0x152>
 800453a:	b913      	cbnz	r3, 8004542 <_printf_float+0x1a6>
 800453c:	6822      	ldr	r2, [r4, #0]
 800453e:	07d0      	lsls	r0, r2, #31
 8004540:	d501      	bpl.n	8004546 <_printf_float+0x1aa>
 8004542:	3302      	adds	r3, #2
 8004544:	e7f3      	b.n	800452e <_printf_float+0x192>
 8004546:	2301      	movs	r3, #1
 8004548:	e7f1      	b.n	800452e <_printf_float+0x192>
 800454a:	f04f 0a67 	mov.w	sl, #103	; 0x67
 800454e:	e9dd 3209 	ldrd	r3, r2, [sp, #36]	; 0x24
 8004552:	4293      	cmp	r3, r2
 8004554:	db05      	blt.n	8004562 <_printf_float+0x1c6>
 8004556:	6822      	ldr	r2, [r4, #0]
 8004558:	6123      	str	r3, [r4, #16]
 800455a:	07d1      	lsls	r1, r2, #31
 800455c:	d5e8      	bpl.n	8004530 <_printf_float+0x194>
 800455e:	3301      	adds	r3, #1
 8004560:	e7e5      	b.n	800452e <_printf_float+0x192>
 8004562:	2b00      	cmp	r3, #0
 8004564:	bfd4      	ite	le
 8004566:	f1c3 0302 	rsble	r3, r3, #2
 800456a:	2301      	movgt	r3, #1
 800456c:	4413      	add	r3, r2
 800456e:	e7de      	b.n	800452e <_printf_float+0x192>
 8004570:	6823      	ldr	r3, [r4, #0]
 8004572:	055a      	lsls	r2, r3, #21
 8004574:	d407      	bmi.n	8004586 <_printf_float+0x1ea>
 8004576:	6923      	ldr	r3, [r4, #16]
 8004578:	4642      	mov	r2, r8
 800457a:	4631      	mov	r1, r6
 800457c:	4628      	mov	r0, r5
 800457e:	47b8      	blx	r7
 8004580:	3001      	adds	r0, #1
 8004582:	d12b      	bne.n	80045dc <_printf_float+0x240>
 8004584:	e767      	b.n	8004456 <_printf_float+0xba>
 8004586:	f1ba 0f65 	cmp.w	sl, #101	; 0x65
 800458a:	f240 80dc 	bls.w	8004746 <_printf_float+0x3aa>
 800458e:	2200      	movs	r2, #0
 8004590:	2300      	movs	r3, #0
 8004592:	e9d4 0112 	ldrd	r0, r1, [r4, #72]	; 0x48
 8004596:	f7fc fab7 	bl	8000b08 <__aeabi_dcmpeq>
 800459a:	2800      	cmp	r0, #0
 800459c:	d033      	beq.n	8004606 <_printf_float+0x26a>
 800459e:	2301      	movs	r3, #1
 80045a0:	4a41      	ldr	r2, [pc, #260]	; (80046a8 <_printf_float+0x30c>)
 80045a2:	4631      	mov	r1, r6
 80045a4:	4628      	mov	r0, r5
 80045a6:	47b8      	blx	r7
 80045a8:	3001      	adds	r0, #1
 80045aa:	f43f af54 	beq.w	8004456 <_printf_float+0xba>
 80045ae:	e9dd 2309 	ldrd	r2, r3, [sp, #36]	; 0x24
 80045b2:	429a      	cmp	r2, r3
 80045b4:	db02      	blt.n	80045bc <_printf_float+0x220>
 80045b6:	6823      	ldr	r3, [r4, #0]
 80045b8:	07d8      	lsls	r0, r3, #31
 80045ba:	d50f      	bpl.n	80045dc <_printf_float+0x240>
 80045bc:	e9dd 2304 	ldrd	r2, r3, [sp, #16]
 80045c0:	4631      	mov	r1, r6
 80045c2:	4628      	mov	r0, r5
 80045c4:	47b8      	blx	r7
 80045c6:	3001      	adds	r0, #1
 80045c8:	f43f af45 	beq.w	8004456 <_printf_float+0xba>
 80045cc:	f04f 0800 	mov.w	r8, #0
 80045d0:	f104 091a 	add.w	r9, r4, #26
 80045d4:	9b0a      	ldr	r3, [sp, #40]	; 0x28
 80045d6:	3b01      	subs	r3, #1
 80045d8:	4543      	cmp	r3, r8
 80045da:	dc09      	bgt.n	80045f0 <_printf_float+0x254>
 80045dc:	6823      	ldr	r3, [r4, #0]
 80045de:	079b      	lsls	r3, r3, #30
 80045e0:	f100 8103 	bmi.w	80047ea <_printf_float+0x44e>
 80045e4:	68e0      	ldr	r0, [r4, #12]
 80045e6:	9b0b      	ldr	r3, [sp, #44]	; 0x2c
 80045e8:	4298      	cmp	r0, r3
 80045ea:	bfb8      	it	lt
 80045ec:	4618      	movlt	r0, r3
 80045ee:	e734      	b.n	800445a <_printf_float+0xbe>
 80045f0:	2301      	movs	r3, #1
 80045f2:	464a      	mov	r2, r9
 80045f4:	4631      	mov	r1, r6
 80045f6:	4628      	mov	r0, r5
 80045f8:	47b8      	blx	r7
 80045fa:	3001      	adds	r0, #1
 80045fc:	f43f af2b 	beq.w	8004456 <_printf_float+0xba>
 8004600:	f108 0801 	add.w	r8, r8, #1
 8004604:	e7e6      	b.n	80045d4 <_printf_float+0x238>
 8004606:	9b09      	ldr	r3, [sp, #36]	; 0x24
 8004608:	2b00      	cmp	r3, #0
 800460a:	dc2b      	bgt.n	8004664 <_printf_float+0x2c8>
 800460c:	2301      	movs	r3, #1
 800460e:	4a26      	ldr	r2, [pc, #152]	; (80046a8 <_printf_float+0x30c>)
 8004610:	4631      	mov	r1, r6
 8004612:	4628      	mov	r0, r5
 8004614:	47b8      	blx	r7
 8004616:	3001      	adds	r0, #1
 8004618:	f43f af1d 	beq.w	8004456 <_printf_float+0xba>
 800461c:	9b09      	ldr	r3, [sp, #36]	; 0x24
 800461e:	b923      	cbnz	r3, 800462a <_printf_float+0x28e>
 8004620:	9b0a      	ldr	r3, [sp, #40]	; 0x28
 8004622:	b913      	cbnz	r3, 800462a <_printf_float+0x28e>
 8004624:	6823      	ldr	r3, [r4, #0]
 8004626:	07d9      	lsls	r1, r3, #31
 8004628:	d5d8      	bpl.n	80045dc <_printf_float+0x240>
 800462a:	e9dd 2304 	ldrd	r2, r3, [sp, #16]
 800462e:	4631      	mov	r1, r6
 8004630:	4628      	mov	r0, r5
 8004632:	47b8      	blx	r7
 8004634:	3001      	adds	r0, #1
 8004636:	f43f af0e 	beq.w	8004456 <_printf_float+0xba>
 800463a:	f04f 0900 	mov.w	r9, #0
 800463e:	f104 0a1a 	add.w	sl, r4, #26
 8004642:	9b09      	ldr	r3, [sp, #36]	; 0x24
 8004644:	425b      	negs	r3, r3
 8004646:	454b      	cmp	r3, r9
 8004648:	dc01      	bgt.n	800464e <_printf_float+0x2b2>
 800464a:	9b0a      	ldr	r3, [sp, #40]	; 0x28
 800464c:	e794      	b.n	8004578 <_printf_float+0x1dc>
 800464e:	2301      	movs	r3, #1
 8004650:	4652      	mov	r2, sl
 8004652:	4631      	mov	r1, r6
 8004654:	4628      	mov	r0, r5
 8004656:	47b8      	blx	r7
 8004658:	3001      	adds	r0, #1
 800465a:	f43f aefc 	beq.w	8004456 <_printf_float+0xba>
 800465e:	f109 0901 	add.w	r9, r9, #1
 8004662:	e7ee      	b.n	8004642 <_printf_float+0x2a6>
 8004664:	9a0a      	ldr	r2, [sp, #40]	; 0x28
 8004666:	6da3      	ldr	r3, [r4, #88]	; 0x58
 8004668:	429a      	cmp	r2, r3
 800466a:	bfa8      	it	ge
 800466c:	461a      	movge	r2, r3
 800466e:	2a00      	cmp	r2, #0
 8004670:	4691      	mov	r9, r2
 8004672:	dd07      	ble.n	8004684 <_printf_float+0x2e8>
 8004674:	4613      	mov	r3, r2
 8004676:	4631      	mov	r1, r6
 8004678:	4642      	mov	r2, r8
 800467a:	4628      	mov	r0, r5
 800467c:	47b8      	blx	r7
 800467e:	3001      	adds	r0, #1
 8004680:	f43f aee9 	beq.w	8004456 <_printf_float+0xba>
 8004684:	f104 031a 	add.w	r3, r4, #26
 8004688:	f04f 0b00 	mov.w	fp, #0
 800468c:	ea29 79e9 	bic.w	r9, r9, r9, asr #31
 8004690:	9306      	str	r3, [sp, #24]
 8004692:	e015      	b.n	80046c0 <_printf_float+0x324>
 8004694:	7fefffff 	.word	0x7fefffff
 8004698:	08006330 	.word	0x08006330
 800469c:	0800632c 	.word	0x0800632c
 80046a0:	08006338 	.word	0x08006338
 80046a4:	08006334 	.word	0x08006334
 80046a8:	0800633c 	.word	0x0800633c
 80046ac:	2301      	movs	r3, #1
 80046ae:	9a06      	ldr	r2, [sp, #24]
 80046b0:	4631      	mov	r1, r6
 80046b2:	4628      	mov	r0, r5
 80046b4:	47b8      	blx	r7
 80046b6:	3001      	adds	r0, #1
 80046b8:	f43f aecd 	beq.w	8004456 <_printf_float+0xba>
 80046bc:	f10b 0b01 	add.w	fp, fp, #1
 80046c0:	f8d4 a058 	ldr.w	sl, [r4, #88]	; 0x58
 80046c4:	ebaa 0309 	sub.w	r3, sl, r9
 80046c8:	455b      	cmp	r3, fp
 80046ca:	dcef      	bgt.n	80046ac <_printf_float+0x310>
 80046cc:	e9dd 2309 	ldrd	r2, r3, [sp, #36]	; 0x24
 80046d0:	429a      	cmp	r2, r3
 80046d2:	44d0      	add	r8, sl
 80046d4:	db15      	blt.n	8004702 <_printf_float+0x366>
 80046d6:	6823      	ldr	r3, [r4, #0]
 80046d8:	07da      	lsls	r2, r3, #31
 80046da:	d412      	bmi.n	8004702 <_printf_float+0x366>
 80046dc:	9b0a      	ldr	r3, [sp, #40]	; 0x28
 80046de:	9909      	ldr	r1, [sp, #36]	; 0x24
 80046e0:	eba3 020a 	sub.w	r2, r3, sl
 80046e4:	eba3 0a01 	sub.w	sl, r3, r1
 80046e8:	4592      	cmp	sl, r2
 80046ea:	bfa8      	it	ge
 80046ec:	4692      	movge	sl, r2
 80046ee:	f1ba 0f00 	cmp.w	sl, #0
 80046f2:	dc0e      	bgt.n	8004712 <_printf_float+0x376>
 80046f4:	f04f 0800 	mov.w	r8, #0
 80046f8:	ea2a 7aea 	bic.w	sl, sl, sl, asr #31
 80046fc:	f104 091a 	add.w	r9, r4, #26
 8004700:	e019      	b.n	8004736 <_printf_float+0x39a>
 8004702:	e9dd 2304 	ldrd	r2, r3, [sp, #16]
 8004706:	4631      	mov	r1, r6
 8004708:	4628      	mov	r0, r5
 800470a:	47b8      	blx	r7
 800470c:	3001      	adds	r0, #1
 800470e:	d1e5      	bne.n	80046dc <_printf_float+0x340>
 8004710:	e6a1      	b.n	8004456 <_printf_float+0xba>
 8004712:	4653      	mov	r3, sl
 8004714:	4642      	mov	r2, r8
 8004716:	4631      	mov	r1, r6
 8004718:	4628      	mov	r0, r5
 800471a:	47b8      	blx	r7
 800471c:	3001      	adds	r0, #1
 800471e:	d1e9      	bne.n	80046f4 <_printf_float+0x358>
 8004720:	e699      	b.n	8004456 <_printf_float+0xba>
 8004722:	2301      	movs	r3, #1
 8004724:	464a      	mov	r2, r9
 8004726:	4631      	mov	r1, r6
 8004728:	4628      	mov	r0, r5
 800472a:	47b8      	blx	r7
 800472c:	3001      	adds	r0, #1
 800472e:	f43f ae92 	beq.w	8004456 <_printf_float+0xba>
 8004732:	f108 0801 	add.w	r8, r8, #1
 8004736:	e9dd 2309 	ldrd	r2, r3, [sp, #36]	; 0x24
 800473a:	1a9b      	subs	r3, r3, r2
 800473c:	eba3 030a 	sub.w	r3, r3, sl
 8004740:	4543      	cmp	r3, r8
 8004742:	dcee      	bgt.n	8004722 <_printf_float+0x386>
 8004744:	e74a      	b.n	80045dc <_printf_float+0x240>
 8004746:	9a0a      	ldr	r2, [sp, #40]	; 0x28
 8004748:	2a01      	cmp	r2, #1
 800474a:	dc01      	bgt.n	8004750 <_printf_float+0x3b4>
 800474c:	07db      	lsls	r3, r3, #31
 800474e:	d53a      	bpl.n	80047c6 <_printf_float+0x42a>
 8004750:	2301      	movs	r3, #1
 8004752:	4642      	mov	r2, r8
 8004754:	4631      	mov	r1, r6
 8004756:	4628      	mov	r0, r5
 8004758:	47b8      	blx	r7
 800475a:	3001      	adds	r0, #1
 800475c:	f43f ae7b 	beq.w	8004456 <_printf_float+0xba>
 8004760:	e9dd 2304 	ldrd	r2, r3, [sp, #16]
 8004764:	4631      	mov	r1, r6
 8004766:	4628      	mov	r0, r5
 8004768:	47b8      	blx	r7
 800476a:	3001      	adds	r0, #1
 800476c:	f108 0801 	add.w	r8, r8, #1
 8004770:	f43f ae71 	beq.w	8004456 <_printf_float+0xba>
 8004774:	9b0a      	ldr	r3, [sp, #40]	; 0x28
 8004776:	2200      	movs	r2, #0
 8004778:	f103 3aff 	add.w	sl, r3, #4294967295
 800477c:	e9d4 0112 	ldrd	r0, r1, [r4, #72]	; 0x48
 8004780:	2300      	movs	r3, #0
 8004782:	f7fc f9c1 	bl	8000b08 <__aeabi_dcmpeq>
 8004786:	b9c8      	cbnz	r0, 80047bc <_printf_float+0x420>
 8004788:	4653      	mov	r3, sl
 800478a:	4642      	mov	r2, r8
 800478c:	4631      	mov	r1, r6
 800478e:	4628      	mov	r0, r5
 8004790:	47b8      	blx	r7
 8004792:	3001      	adds	r0, #1
 8004794:	d10e      	bne.n	80047b4 <_printf_float+0x418>
 8004796:	e65e      	b.n	8004456 <_printf_float+0xba>
 8004798:	2301      	movs	r3, #1
 800479a:	4652      	mov	r2, sl
 800479c:	4631      	mov	r1, r6
 800479e:	4628      	mov	r0, r5
 80047a0:	47b8      	blx	r7
 80047a2:	3001      	adds	r0, #1
 80047a4:	f43f ae57 	beq.w	8004456 <_printf_float+0xba>
 80047a8:	f108 0801 	add.w	r8, r8, #1
 80047ac:	9b0a      	ldr	r3, [sp, #40]	; 0x28
 80047ae:	3b01      	subs	r3, #1
 80047b0:	4543      	cmp	r3, r8
 80047b2:	dcf1      	bgt.n	8004798 <_printf_float+0x3fc>
 80047b4:	464b      	mov	r3, r9
 80047b6:	f104 0250 	add.w	r2, r4, #80	; 0x50
 80047ba:	e6de      	b.n	800457a <_printf_float+0x1de>
 80047bc:	f04f 0800 	mov.w	r8, #0
 80047c0:	f104 0a1a 	add.w	sl, r4, #26
 80047c4:	e7f2      	b.n	80047ac <_printf_float+0x410>
 80047c6:	2301      	movs	r3, #1
 80047c8:	e7df      	b.n	800478a <_printf_float+0x3ee>
 80047ca:	2301      	movs	r3, #1
 80047cc:	464a      	mov	r2, r9
 80047ce:	4631      	mov	r1, r6
 80047d0:	4628      	mov	r0, r5
 80047d2:	47b8      	blx	r7
 80047d4:	3001      	adds	r0, #1
 80047d6:	f43f ae3e 	beq.w	8004456 <_printf_float+0xba>
 80047da:	f108 0801 	add.w	r8, r8, #1
 80047de:	68e3      	ldr	r3, [r4, #12]
 80047e0:	9a0b      	ldr	r2, [sp, #44]	; 0x2c
 80047e2:	1a9b      	subs	r3, r3, r2
 80047e4:	4543      	cmp	r3, r8
 80047e6:	dcf0      	bgt.n	80047ca <_printf_float+0x42e>
 80047e8:	e6fc      	b.n	80045e4 <_printf_float+0x248>
 80047ea:	f04f 0800 	mov.w	r8, #0
 80047ee:	f104 0919 	add.w	r9, r4, #25
 80047f2:	e7f4      	b.n	80047de <_printf_float+0x442>
 80047f4:	2900      	cmp	r1, #0
 80047f6:	f43f ae8b 	beq.w	8004510 <_printf_float+0x174>
 80047fa:	2300      	movs	r3, #0
 80047fc:	e9cd 0302 	strd	r0, r3, [sp, #8]
 8004800:	ab09      	add	r3, sp, #36	; 0x24
 8004802:	9300      	str	r3, [sp, #0]
 8004804:	ec49 8b10 	vmov	d0, r8, r9
 8004808:	6022      	str	r2, [r4, #0]
 800480a:	f8cd a004 	str.w	sl, [sp, #4]
 800480e:	f10d 0323 	add.w	r3, sp, #35	; 0x23
 8004812:	4628      	mov	r0, r5
 8004814:	f7ff fd2e 	bl	8004274 <__cvt>
 8004818:	4680      	mov	r8, r0
 800481a:	e648      	b.n	80044ae <_printf_float+0x112>

0800481c <_printf_common>:
 800481c:	e92d 47f0 	stmdb	sp!, {r4, r5, r6, r7, r8, r9, sl, lr}
 8004820:	4691      	mov	r9, r2
 8004822:	461f      	mov	r7, r3
 8004824:	688a      	ldr	r2, [r1, #8]
 8004826:	690b      	ldr	r3, [r1, #16]
 8004828:	f8dd 8020 	ldr.w	r8, [sp, #32]
 800482c:	4293      	cmp	r3, r2
 800482e:	bfb8      	it	lt
 8004830:	4613      	movlt	r3, r2
 8004832:	f8c9 3000 	str.w	r3, [r9]
 8004836:	f891 2043 	ldrb.w	r2, [r1, #67]	; 0x43
 800483a:	4606      	mov	r6, r0
 800483c:	460c      	mov	r4, r1
 800483e:	b112      	cbz	r2, 8004846 <_printf_common+0x2a>
 8004840:	3301      	adds	r3, #1
 8004842:	f8c9 3000 	str.w	r3, [r9]
 8004846:	6823      	ldr	r3, [r4, #0]
 8004848:	0699      	lsls	r1, r3, #26
 800484a:	bf42      	ittt	mi
 800484c:	f8d9 3000 	ldrmi.w	r3, [r9]
 8004850:	3302      	addmi	r3, #2
 8004852:	f8c9 3000 	strmi.w	r3, [r9]
 8004856:	6825      	ldr	r5, [r4, #0]
 8004858:	f015 0506 	ands.w	r5, r5, #6
 800485c:	d107      	bne.n	800486e <_printf_common+0x52>
 800485e:	f104 0a19 	add.w	sl, r4, #25
 8004862:	68e3      	ldr	r3, [r4, #12]
 8004864:	f8d9 2000 	ldr.w	r2, [r9]
 8004868:	1a9b      	subs	r3, r3, r2
 800486a:	42ab      	cmp	r3, r5
 800486c:	dc28      	bgt.n	80048c0 <_printf_common+0xa4>
 800486e:	f894 3043 	ldrb.w	r3, [r4, #67]	; 0x43
 8004872:	6822      	ldr	r2, [r4, #0]
 8004874:	3300      	adds	r3, #0
 8004876:	bf18      	it	ne
 8004878:	2301      	movne	r3, #1
 800487a:	0692      	lsls	r2, r2, #26
 800487c:	d42d      	bmi.n	80048da <_printf_common+0xbe>
 800487e:	f104 0243 	add.w	r2, r4, #67	; 0x43
 8004882:	4639      	mov	r1, r7
 8004884:	4630      	mov	r0, r6
 8004886:	47c0      	blx	r8
 8004888:	3001      	adds	r0, #1
 800488a:	d020      	beq.n	80048ce <_printf_common+0xb2>
 800488c:	6823      	ldr	r3, [r4, #0]
 800488e:	68e5      	ldr	r5, [r4, #12]
 8004890:	f8d9 2000 	ldr.w	r2, [r9]
 8004894:	f003 0306 	and.w	r3, r3, #6
 8004898:	2b04      	cmp	r3, #4
 800489a:	bf08      	it	eq
 800489c:	1aad      	subeq	r5, r5, r2
 800489e:	68a3      	ldr	r3, [r4, #8]
 80048a0:	6922      	ldr	r2, [r4, #16]
 80048a2:	bf0c      	ite	eq
 80048a4:	ea25 75e5 	biceq.w	r5, r5, r5, asr #31
 80048a8:	2500      	movne	r5, #0
 80048aa:	4293      	cmp	r3, r2
 80048ac:	bfc4      	itt	gt
 80048ae:	1a9b      	subgt	r3, r3, r2
 80048b0:	18ed      	addgt	r5, r5, r3
 80048b2:	f04f 0900 	mov.w	r9, #0
 80048b6:	341a      	adds	r4, #26
 80048b8:	454d      	cmp	r5, r9
 80048ba:	d11a      	bne.n	80048f2 <_printf_common+0xd6>
 80048bc:	2000      	movs	r0, #0
 80048be:	e008      	b.n	80048d2 <_printf_common+0xb6>
 80048c0:	2301      	movs	r3, #1
 80048c2:	4652      	mov	r2, sl
 80048c4:	4639      	mov	r1, r7
 80048c6:	4630      	mov	r0, r6
 80048c8:	47c0      	blx	r8
 80048ca:	3001      	adds	r0, #1
 80048cc:	d103      	bne.n	80048d6 <_printf_common+0xba>
 80048ce:	f04f 30ff 	mov.w	r0, #4294967295
 80048d2:	e8bd 87f0 	ldmia.w	sp!, {r4, r5, r6, r7, r8, r9, sl, pc}
 80048d6:	3501      	adds	r5, #1
 80048d8:	e7c3      	b.n	8004862 <_printf_common+0x46>
 80048da:	18e1      	adds	r1, r4, r3
 80048dc:	1c5a      	adds	r2, r3, #1
 80048de:	2030      	movs	r0, #48	; 0x30
 80048e0:	f881 0043 	strb.w	r0, [r1, #67]	; 0x43
 80048e4:	4422      	add	r2, r4
 80048e6:	f894 1045 	ldrb.w	r1, [r4, #69]	; 0x45
 80048ea:	f882 1043 	strb.w	r1, [r2, #67]	; 0x43
 80048ee:	3302      	adds	r3, #2
 80048f0:	e7c5      	b.n	800487e <_printf_common+0x62>
 80048f2:	2301      	movs	r3, #1
 80048f4:	4622      	mov	r2, r4
 80048f6:	4639      	mov	r1, r7
 80048f8:	4630      	mov	r0, r6
 80048fa:	47c0      	blx	r8
 80048fc:	3001      	adds	r0, #1
 80048fe:	d0e6      	beq.n	80048ce <_printf_common+0xb2>
 8004900:	f109 0901 	add.w	r9, r9, #1
 8004904:	e7d8      	b.n	80048b8 <_printf_common+0x9c>
	...

08004908 <_printf_i>:
 8004908:	e92d 43f0 	stmdb	sp!, {r4, r5, r6, r7, r8, r9, lr}
 800490c:	f101 0c43 	add.w	ip, r1, #67	; 0x43
 8004910:	460c      	mov	r4, r1
 8004912:	7e09      	ldrb	r1, [r1, #24]
 8004914:	b085      	sub	sp, #20
 8004916:	296e      	cmp	r1, #110	; 0x6e
 8004918:	4617      	mov	r7, r2
 800491a:	4606      	mov	r6, r0
 800491c:	4698      	mov	r8, r3
 800491e:	9a0c      	ldr	r2, [sp, #48]	; 0x30
 8004920:	f000 80b3 	beq.w	8004a8a <_printf_i+0x182>
 8004924:	d822      	bhi.n	800496c <_printf_i+0x64>
 8004926:	2963      	cmp	r1, #99	; 0x63
 8004928:	d036      	beq.n	8004998 <_printf_i+0x90>
 800492a:	d80a      	bhi.n	8004942 <_printf_i+0x3a>
 800492c:	2900      	cmp	r1, #0
 800492e:	f000 80b9 	beq.w	8004aa4 <_printf_i+0x19c>
 8004932:	2958      	cmp	r1, #88	; 0x58
 8004934:	f000 8083 	beq.w	8004a3e <_printf_i+0x136>
 8004938:	f104 0542 	add.w	r5, r4, #66	; 0x42
 800493c:	f884 1042 	strb.w	r1, [r4, #66]	; 0x42
 8004940:	e032      	b.n	80049a8 <_printf_i+0xa0>
 8004942:	2964      	cmp	r1, #100	; 0x64
 8004944:	d001      	beq.n	800494a <_printf_i+0x42>
 8004946:	2969      	cmp	r1, #105	; 0x69
 8004948:	d1f6      	bne.n	8004938 <_printf_i+0x30>
 800494a:	6820      	ldr	r0, [r4, #0]
 800494c:	6813      	ldr	r3, [r2, #0]
 800494e:	0605      	lsls	r5, r0, #24
 8004950:	f103 0104 	add.w	r1, r3, #4
 8004954:	d52a      	bpl.n	80049ac <_printf_i+0xa4>
 8004956:	681b      	ldr	r3, [r3, #0]
 8004958:	6011      	str	r1, [r2, #0]
 800495a:	2b00      	cmp	r3, #0
 800495c:	da03      	bge.n	8004966 <_printf_i+0x5e>
 800495e:	222d      	movs	r2, #45	; 0x2d
 8004960:	425b      	negs	r3, r3
 8004962:	f884 2043 	strb.w	r2, [r4, #67]	; 0x43
 8004966:	486f      	ldr	r0, [pc, #444]	; (8004b24 <_printf_i+0x21c>)
 8004968:	220a      	movs	r2, #10
 800496a:	e039      	b.n	80049e0 <_printf_i+0xd8>
 800496c:	2973      	cmp	r1, #115	; 0x73
 800496e:	f000 809d 	beq.w	8004aac <_printf_i+0x1a4>
 8004972:	d808      	bhi.n	8004986 <_printf_i+0x7e>
 8004974:	296f      	cmp	r1, #111	; 0x6f
 8004976:	d020      	beq.n	80049ba <_printf_i+0xb2>
 8004978:	2970      	cmp	r1, #112	; 0x70
 800497a:	d1dd      	bne.n	8004938 <_printf_i+0x30>
 800497c:	6823      	ldr	r3, [r4, #0]
 800497e:	f043 0320 	orr.w	r3, r3, #32
 8004982:	6023      	str	r3, [r4, #0]
 8004984:	e003      	b.n	800498e <_printf_i+0x86>
 8004986:	2975      	cmp	r1, #117	; 0x75
 8004988:	d017      	beq.n	80049ba <_printf_i+0xb2>
 800498a:	2978      	cmp	r1, #120	; 0x78
 800498c:	d1d4      	bne.n	8004938 <_printf_i+0x30>
 800498e:	2378      	movs	r3, #120	; 0x78
 8004990:	f884 3045 	strb.w	r3, [r4, #69]	; 0x45
 8004994:	4864      	ldr	r0, [pc, #400]	; (8004b28 <_printf_i+0x220>)
 8004996:	e055      	b.n	8004a44 <_printf_i+0x13c>
 8004998:	6813      	ldr	r3, [r2, #0]
 800499a:	1d19      	adds	r1, r3, #4
 800499c:	681b      	ldr	r3, [r3, #0]
 800499e:	6011      	str	r1, [r2, #0]
 80049a0:	f104 0542 	add.w	r5, r4, #66	; 0x42
 80049a4:	f884 3042 	strb.w	r3, [r4, #66]	; 0x42
 80049a8:	2301      	movs	r3, #1
 80049aa:	e08c      	b.n	8004ac6 <_printf_i+0x1be>
 80049ac:	681b      	ldr	r3, [r3, #0]
 80049ae:	6011      	str	r1, [r2, #0]
 80049b0:	f010 0f40 	tst.w	r0, #64	; 0x40
 80049b4:	bf18      	it	ne
 80049b6:	b21b      	sxthne	r3, r3
 80049b8:	e7cf      	b.n	800495a <_printf_i+0x52>
 80049ba:	6813      	ldr	r3, [r2, #0]
 80049bc:	6825      	ldr	r5, [r4, #0]
 80049be:	1d18      	adds	r0, r3, #4
 80049c0:	6010      	str	r0, [r2, #0]
 80049c2:	0628      	lsls	r0, r5, #24
 80049c4:	d501      	bpl.n	80049ca <_printf_i+0xc2>
 80049c6:	681b      	ldr	r3, [r3, #0]
 80049c8:	e002      	b.n	80049d0 <_printf_i+0xc8>
 80049ca:	0668      	lsls	r0, r5, #25
 80049cc:	d5fb      	bpl.n	80049c6 <_printf_i+0xbe>
 80049ce:	881b      	ldrh	r3, [r3, #0]
 80049d0:	4854      	ldr	r0, [pc, #336]	; (8004b24 <_printf_i+0x21c>)
 80049d2:	296f      	cmp	r1, #111	; 0x6f
 80049d4:	bf14      	ite	ne
 80049d6:	220a      	movne	r2, #10
 80049d8:	2208      	moveq	r2, #8
 80049da:	2100      	movs	r1, #0
 80049dc:	f884 1043 	strb.w	r1, [r4, #67]	; 0x43
 80049e0:	6865      	ldr	r5, [r4, #4]
 80049e2:	60a5      	str	r5, [r4, #8]
 80049e4:	2d00      	cmp	r5, #0
 80049e6:	f2c0 8095 	blt.w	8004b14 <_printf_i+0x20c>
 80049ea:	6821      	ldr	r1, [r4, #0]
 80049ec:	f021 0104 	bic.w	r1, r1, #4
 80049f0:	6021      	str	r1, [r4, #0]
 80049f2:	2b00      	cmp	r3, #0
 80049f4:	d13d      	bne.n	8004a72 <_printf_i+0x16a>
 80049f6:	2d00      	cmp	r5, #0
 80049f8:	f040 808e 	bne.w	8004b18 <_printf_i+0x210>
 80049fc:	4665      	mov	r5, ip
 80049fe:	2a08      	cmp	r2, #8
 8004a00:	d10b      	bne.n	8004a1a <_printf_i+0x112>
 8004a02:	6823      	ldr	r3, [r4, #0]
 8004a04:	07db      	lsls	r3, r3, #31
 8004a06:	d508      	bpl.n	8004a1a <_printf_i+0x112>
 8004a08:	6923      	ldr	r3, [r4, #16]
 8004a0a:	6862      	ldr	r2, [r4, #4]
 8004a0c:	429a      	cmp	r2, r3
 8004a0e:	bfde      	ittt	le
 8004a10:	2330      	movle	r3, #48	; 0x30
 8004a12:	f805 3c01 	strble.w	r3, [r5, #-1]
 8004a16:	f105 35ff 	addle.w	r5, r5, #4294967295
 8004a1a:	ebac 0305 	sub.w	r3, ip, r5
 8004a1e:	6123      	str	r3, [r4, #16]
 8004a20:	f8cd 8000 	str.w	r8, [sp]
 8004a24:	463b      	mov	r3, r7
 8004a26:	aa03      	add	r2, sp, #12
 8004a28:	4621      	mov	r1, r4
 8004a2a:	4630      	mov	r0, r6
 8004a2c:	f7ff fef6 	bl	800481c <_printf_common>
 8004a30:	3001      	adds	r0, #1
 8004a32:	d14d      	bne.n	8004ad0 <_printf_i+0x1c8>
 8004a34:	f04f 30ff 	mov.w	r0, #4294967295
 8004a38:	b005      	add	sp, #20
 8004a3a:	e8bd 83f0 	ldmia.w	sp!, {r4, r5, r6, r7, r8, r9, pc}
 8004a3e:	4839      	ldr	r0, [pc, #228]	; (8004b24 <_printf_i+0x21c>)
 8004a40:	f884 1045 	strb.w	r1, [r4, #69]	; 0x45
 8004a44:	6813      	ldr	r3, [r2, #0]
 8004a46:	6821      	ldr	r1, [r4, #0]
 8004a48:	1d1d      	adds	r5, r3, #4
 8004a4a:	681b      	ldr	r3, [r3, #0]
 8004a4c:	6015      	str	r5, [r2, #0]
 8004a4e:	060a      	lsls	r2, r1, #24
 8004a50:	d50b      	bpl.n	8004a6a <_printf_i+0x162>
 8004a52:	07ca      	lsls	r2, r1, #31
 8004a54:	bf44      	itt	mi
 8004a56:	f041 0120 	orrmi.w	r1, r1, #32
 8004a5a:	6021      	strmi	r1, [r4, #0]
 8004a5c:	b91b      	cbnz	r3, 8004a66 <_printf_i+0x15e>
 8004a5e:	6822      	ldr	r2, [r4, #0]
 8004a60:	f022 0220 	bic.w	r2, r2, #32
 8004a64:	6022      	str	r2, [r4, #0]
 8004a66:	2210      	movs	r2, #16
 8004a68:	e7b7      	b.n	80049da <_printf_i+0xd2>
 8004a6a:	064d      	lsls	r5, r1, #25
 8004a6c:	bf48      	it	mi
 8004a6e:	b29b      	uxthmi	r3, r3
 8004a70:	e7ef      	b.n	8004a52 <_printf_i+0x14a>
 8004a72:	4665      	mov	r5, ip
 8004a74:	fbb3 f1f2 	udiv	r1, r3, r2
 8004a78:	fb02 3311 	mls	r3, r2, r1, r3
 8004a7c:	5cc3      	ldrb	r3, [r0, r3]
 8004a7e:	f805 3d01 	strb.w	r3, [r5, #-1]!
 8004a82:	460b      	mov	r3, r1
 8004a84:	2900      	cmp	r1, #0
 8004a86:	d1f5      	bne.n	8004a74 <_printf_i+0x16c>
 8004a88:	e7b9      	b.n	80049fe <_printf_i+0xf6>
 8004a8a:	6813      	ldr	r3, [r2, #0]
 8004a8c:	6825      	ldr	r5, [r4, #0]
 8004a8e:	6961      	ldr	r1, [r4, #20]
 8004a90:	1d18      	adds	r0, r3, #4
 8004a92:	6010      	str	r0, [r2, #0]
 8004a94:	0628      	lsls	r0, r5, #24
 8004a96:	681b      	ldr	r3, [r3, #0]
 8004a98:	d501      	bpl.n	8004a9e <_printf_i+0x196>
 8004a9a:	6019      	str	r1, [r3, #0]
 8004a9c:	e002      	b.n	8004aa4 <_printf_i+0x19c>
 8004a9e:	066a      	lsls	r2, r5, #25
 8004aa0:	d5fb      	bpl.n	8004a9a <_printf_i+0x192>
 8004aa2:	8019      	strh	r1, [r3, #0]
 8004aa4:	2300      	movs	r3, #0
 8004aa6:	6123      	str	r3, [r4, #16]
 8004aa8:	4665      	mov	r5, ip
 8004aaa:	e7b9      	b.n	8004a20 <_printf_i+0x118>
 8004aac:	6813      	ldr	r3, [r2, #0]
 8004aae:	1d19      	adds	r1, r3, #4
 8004ab0:	6011      	str	r1, [r2, #0]
 8004ab2:	681d      	ldr	r5, [r3, #0]
 8004ab4:	6862      	ldr	r2, [r4, #4]
 8004ab6:	2100      	movs	r1, #0
 8004ab8:	4628      	mov	r0, r5
 8004aba:	f7fb fbb1 	bl	8000220 <memchr>
 8004abe:	b108      	cbz	r0, 8004ac4 <_printf_i+0x1bc>
 8004ac0:	1b40      	subs	r0, r0, r5
 8004ac2:	6060      	str	r0, [r4, #4]
 8004ac4:	6863      	ldr	r3, [r4, #4]
 8004ac6:	6123      	str	r3, [r4, #16]
 8004ac8:	2300      	movs	r3, #0
 8004aca:	f884 3043 	strb.w	r3, [r4, #67]	; 0x43
 8004ace:	e7a7      	b.n	8004a20 <_printf_i+0x118>
 8004ad0:	6923      	ldr	r3, [r4, #16]
 8004ad2:	462a      	mov	r2, r5
 8004ad4:	4639      	mov	r1, r7
 8004ad6:	4630      	mov	r0, r6
 8004ad8:	47c0      	blx	r8
 8004ada:	3001      	adds	r0, #1
 8004adc:	d0aa      	beq.n	8004a34 <_printf_i+0x12c>
 8004ade:	6823      	ldr	r3, [r4, #0]
 8004ae0:	079b      	lsls	r3, r3, #30
 8004ae2:	d413      	bmi.n	8004b0c <_printf_i+0x204>
 8004ae4:	68e0      	ldr	r0, [r4, #12]
 8004ae6:	9b03      	ldr	r3, [sp, #12]
 8004ae8:	4298      	cmp	r0, r3
 8004aea:	bfb8      	it	lt
 8004aec:	4618      	movlt	r0, r3
 8004aee:	e7a3      	b.n	8004a38 <_printf_i+0x130>
 8004af0:	2301      	movs	r3, #1
 8004af2:	464a      	mov	r2, r9
 8004af4:	4639      	mov	r1, r7
 8004af6:	4630      	mov	r0, r6
 8004af8:	47c0      	blx	r8
 8004afa:	3001      	adds	r0, #1
 8004afc:	d09a      	beq.n	8004a34 <_printf_i+0x12c>
 8004afe:	3501      	adds	r5, #1
 8004b00:	68e3      	ldr	r3, [r4, #12]
 8004b02:	9a03      	ldr	r2, [sp, #12]
 8004b04:	1a9b      	subs	r3, r3, r2
 8004b06:	42ab      	cmp	r3, r5
 8004b08:	dcf2      	bgt.n	8004af0 <_printf_i+0x1e8>
 8004b0a:	e7eb      	b.n	8004ae4 <_printf_i+0x1dc>
 8004b0c:	2500      	movs	r5, #0
 8004b0e:	f104 0919 	add.w	r9, r4, #25
 8004b12:	e7f5      	b.n	8004b00 <_printf_i+0x1f8>
 8004b14:	2b00      	cmp	r3, #0
 8004b16:	d1ac      	bne.n	8004a72 <_printf_i+0x16a>
 8004b18:	7803      	ldrb	r3, [r0, #0]
 8004b1a:	f884 3042 	strb.w	r3, [r4, #66]	; 0x42
 8004b1e:	f104 0542 	add.w	r5, r4, #66	; 0x42
 8004b22:	e76c      	b.n	80049fe <_printf_i+0xf6>
 8004b24:	0800633e 	.word	0x0800633e
 8004b28:	0800634f 	.word	0x0800634f

08004b2c <siprintf>:
 8004b2c:	b40e      	push	{r1, r2, r3}
 8004b2e:	b500      	push	{lr}
 8004b30:	b09c      	sub	sp, #112	; 0x70
 8004b32:	ab1d      	add	r3, sp, #116	; 0x74
 8004b34:	9002      	str	r0, [sp, #8]
 8004b36:	9006      	str	r0, [sp, #24]
 8004b38:	f06f 4100 	mvn.w	r1, #2147483648	; 0x80000000
 8004b3c:	4809      	ldr	r0, [pc, #36]	; (8004b64 <siprintf+0x38>)
 8004b3e:	9107      	str	r1, [sp, #28]
 8004b40:	9104      	str	r1, [sp, #16]
 8004b42:	4909      	ldr	r1, [pc, #36]	; (8004b68 <siprintf+0x3c>)
 8004b44:	f853 2b04 	ldr.w	r2, [r3], #4
 8004b48:	9105      	str	r1, [sp, #20]
 8004b4a:	6800      	ldr	r0, [r0, #0]
 8004b4c:	9301      	str	r3, [sp, #4]
 8004b4e:	a902      	add	r1, sp, #8
 8004b50:	f001 fa5e 	bl	8006010 <_svfiprintf_r>
 8004b54:	9b02      	ldr	r3, [sp, #8]
 8004b56:	2200      	movs	r2, #0
 8004b58:	701a      	strb	r2, [r3, #0]
 8004b5a:	b01c      	add	sp, #112	; 0x70
 8004b5c:	f85d eb04 	ldr.w	lr, [sp], #4
 8004b60:	b003      	add	sp, #12
 8004b62:	4770      	bx	lr
 8004b64:	2000000c 	.word	0x2000000c
 8004b68:	ffff0208 	.word	0xffff0208

08004b6c <quorem>:
 8004b6c:	e92d 4ff7 	stmdb	sp!, {r0, r1, r2, r4, r5, r6, r7, r8, r9, sl, fp, lr}
 8004b70:	6903      	ldr	r3, [r0, #16]
 8004b72:	690c      	ldr	r4, [r1, #16]
 8004b74:	42a3      	cmp	r3, r4
 8004b76:	4680      	mov	r8, r0
 8004b78:	f2c0 8082 	blt.w	8004c80 <quorem+0x114>
 8004b7c:	3c01      	subs	r4, #1
 8004b7e:	f101 0714 	add.w	r7, r1, #20
 8004b82:	ea4f 0c84 	mov.w	ip, r4, lsl #2
 8004b86:	f100 0614 	add.w	r6, r0, #20
 8004b8a:	f857 5024 	ldr.w	r5, [r7, r4, lsl #2]
 8004b8e:	f856 0024 	ldr.w	r0, [r6, r4, lsl #2]
 8004b92:	eb06 030c 	add.w	r3, r6, ip
 8004b96:	3501      	adds	r5, #1
 8004b98:	eb07 090c 	add.w	r9, r7, ip
 8004b9c:	9301      	str	r3, [sp, #4]
 8004b9e:	fbb0 f5f5 	udiv	r5, r0, r5
 8004ba2:	b395      	cbz	r5, 8004c0a <quorem+0x9e>
 8004ba4:	f04f 0a00 	mov.w	sl, #0
 8004ba8:	4638      	mov	r0, r7
 8004baa:	46b6      	mov	lr, r6
 8004bac:	46d3      	mov	fp, sl
 8004bae:	f850 2b04 	ldr.w	r2, [r0], #4
 8004bb2:	b293      	uxth	r3, r2
 8004bb4:	fb05 a303 	mla	r3, r5, r3, sl
 8004bb8:	ea4f 4a13 	mov.w	sl, r3, lsr #16
 8004bbc:	b29b      	uxth	r3, r3
 8004bbe:	ebab 0303 	sub.w	r3, fp, r3
 8004bc2:	0c12      	lsrs	r2, r2, #16
 8004bc4:	f8de b000 	ldr.w	fp, [lr]
 8004bc8:	fb05 a202 	mla	r2, r5, r2, sl
 8004bcc:	fa13 f38b 	uxtah	r3, r3, fp
 8004bd0:	ea4f 4a12 	mov.w	sl, r2, lsr #16
 8004bd4:	fa1f fb82 	uxth.w	fp, r2
 8004bd8:	f8de 2000 	ldr.w	r2, [lr]
 8004bdc:	ebcb 4212 	rsb	r2, fp, r2, lsr #16
 8004be0:	eb02 4223 	add.w	r2, r2, r3, asr #16
 8004be4:	b29b      	uxth	r3, r3
 8004be6:	ea43 4302 	orr.w	r3, r3, r2, lsl #16
 8004bea:	4581      	cmp	r9, r0
 8004bec:	ea4f 4b22 	mov.w	fp, r2, asr #16
 8004bf0:	f84e 3b04 	str.w	r3, [lr], #4
 8004bf4:	d2db      	bcs.n	8004bae <quorem+0x42>
 8004bf6:	f856 300c 	ldr.w	r3, [r6, ip]
 8004bfa:	b933      	cbnz	r3, 8004c0a <quorem+0x9e>
 8004bfc:	9b01      	ldr	r3, [sp, #4]
 8004bfe:	3b04      	subs	r3, #4
 8004c00:	429e      	cmp	r6, r3
 8004c02:	461a      	mov	r2, r3
 8004c04:	d330      	bcc.n	8004c68 <quorem+0xfc>
 8004c06:	f8c8 4010 	str.w	r4, [r8, #16]
 8004c0a:	4640      	mov	r0, r8
 8004c0c:	f001 f82a 	bl	8005c64 <__mcmp>
 8004c10:	2800      	cmp	r0, #0
 8004c12:	db25      	blt.n	8004c60 <quorem+0xf4>
 8004c14:	3501      	adds	r5, #1
 8004c16:	4630      	mov	r0, r6
 8004c18:	f04f 0c00 	mov.w	ip, #0
 8004c1c:	f857 2b04 	ldr.w	r2, [r7], #4
 8004c20:	f8d0 e000 	ldr.w	lr, [r0]
 8004c24:	b293      	uxth	r3, r2
 8004c26:	ebac 0303 	sub.w	r3, ip, r3
 8004c2a:	0c12      	lsrs	r2, r2, #16
 8004c2c:	fa13 f38e 	uxtah	r3, r3, lr
 8004c30:	ebc2 421e 	rsb	r2, r2, lr, lsr #16
 8004c34:	eb02 4223 	add.w	r2, r2, r3, asr #16
 8004c38:	b29b      	uxth	r3, r3
 8004c3a:	ea43 4302 	orr.w	r3, r3, r2, lsl #16
 8004c3e:	45b9      	cmp	r9, r7
 8004c40:	ea4f 4c22 	mov.w	ip, r2, asr #16
 8004c44:	f840 3b04 	str.w	r3, [r0], #4
 8004c48:	d2e8      	bcs.n	8004c1c <quorem+0xb0>
 8004c4a:	f856 2024 	ldr.w	r2, [r6, r4, lsl #2]
 8004c4e:	eb06 0384 	add.w	r3, r6, r4, lsl #2
 8004c52:	b92a      	cbnz	r2, 8004c60 <quorem+0xf4>
 8004c54:	3b04      	subs	r3, #4
 8004c56:	429e      	cmp	r6, r3
 8004c58:	461a      	mov	r2, r3
 8004c5a:	d30b      	bcc.n	8004c74 <quorem+0x108>
 8004c5c:	f8c8 4010 	str.w	r4, [r8, #16]
 8004c60:	4628      	mov	r0, r5
 8004c62:	b003      	add	sp, #12
 8004c64:	e8bd 8ff0 	ldmia.w	sp!, {r4, r5, r6, r7, r8, r9, sl, fp, pc}
 8004c68:	6812      	ldr	r2, [r2, #0]
 8004c6a:	3b04      	subs	r3, #4
 8004c6c:	2a00      	cmp	r2, #0
 8004c6e:	d1ca      	bne.n	8004c06 <quorem+0x9a>
 8004c70:	3c01      	subs	r4, #1
 8004c72:	e7c5      	b.n	8004c00 <quorem+0x94>
 8004c74:	6812      	ldr	r2, [r2, #0]
 8004c76:	3b04      	subs	r3, #4
 8004c78:	2a00      	cmp	r2, #0
 8004c7a:	d1ef      	bne.n	8004c5c <quorem+0xf0>
 8004c7c:	3c01      	subs	r4, #1
 8004c7e:	e7ea      	b.n	8004c56 <quorem+0xea>
 8004c80:	2000      	movs	r0, #0
 8004c82:	e7ee      	b.n	8004c62 <quorem+0xf6>
 8004c84:	0000      	movs	r0, r0
	...

08004c88 <_dtoa_r>:
 8004c88:	e92d 4ff0 	stmdb	sp!, {r4, r5, r6, r7, r8, r9, sl, fp, lr}
 8004c8c:	ec57 6b10 	vmov	r6, r7, d0
 8004c90:	b097      	sub	sp, #92	; 0x5c
 8004c92:	6a45      	ldr	r5, [r0, #36]	; 0x24
 8004c94:	9106      	str	r1, [sp, #24]
 8004c96:	4604      	mov	r4, r0
 8004c98:	920b      	str	r2, [sp, #44]	; 0x2c
 8004c9a:	9312      	str	r3, [sp, #72]	; 0x48
 8004c9c:	f8dd 8080 	ldr.w	r8, [sp, #128]	; 0x80
 8004ca0:	e9cd 6700 	strd	r6, r7, [sp]
 8004ca4:	b93d      	cbnz	r5, 8004cb6 <_dtoa_r+0x2e>
 8004ca6:	2010      	movs	r0, #16
 8004ca8:	f000 fdb4 	bl	8005814 <malloc>
 8004cac:	6260      	str	r0, [r4, #36]	; 0x24
 8004cae:	e9c0 5501 	strd	r5, r5, [r0, #4]
 8004cb2:	6005      	str	r5, [r0, #0]
 8004cb4:	60c5      	str	r5, [r0, #12]
 8004cb6:	6a63      	ldr	r3, [r4, #36]	; 0x24
 8004cb8:	6819      	ldr	r1, [r3, #0]
 8004cba:	b151      	cbz	r1, 8004cd2 <_dtoa_r+0x4a>
 8004cbc:	685a      	ldr	r2, [r3, #4]
 8004cbe:	604a      	str	r2, [r1, #4]
 8004cc0:	2301      	movs	r3, #1
 8004cc2:	4093      	lsls	r3, r2
 8004cc4:	608b      	str	r3, [r1, #8]
 8004cc6:	4620      	mov	r0, r4
 8004cc8:	f000 fdeb 	bl	80058a2 <_Bfree>
 8004ccc:	6a63      	ldr	r3, [r4, #36]	; 0x24
 8004cce:	2200      	movs	r2, #0
 8004cd0:	601a      	str	r2, [r3, #0]
 8004cd2:	1e3b      	subs	r3, r7, #0
 8004cd4:	bfbb      	ittet	lt
 8004cd6:	f023 4300 	biclt.w	r3, r3, #2147483648	; 0x80000000
 8004cda:	9301      	strlt	r3, [sp, #4]
 8004cdc:	2300      	movge	r3, #0
 8004cde:	2201      	movlt	r2, #1
 8004ce0:	bfac      	ite	ge
 8004ce2:	f8c8 3000 	strge.w	r3, [r8]
 8004ce6:	f8c8 2000 	strlt.w	r2, [r8]
 8004cea:	4baf      	ldr	r3, [pc, #700]	; (8004fa8 <_dtoa_r+0x320>)
 8004cec:	f8dd 8004 	ldr.w	r8, [sp, #4]
 8004cf0:	ea33 0308 	bics.w	r3, r3, r8
 8004cf4:	d114      	bne.n	8004d20 <_dtoa_r+0x98>
 8004cf6:	9a12      	ldr	r2, [sp, #72]	; 0x48
 8004cf8:	f242 730f 	movw	r3, #9999	; 0x270f
 8004cfc:	6013      	str	r3, [r2, #0]
 8004cfe:	9b00      	ldr	r3, [sp, #0]
 8004d00:	b923      	cbnz	r3, 8004d0c <_dtoa_r+0x84>
 8004d02:	f3c8 0013 	ubfx	r0, r8, #0, #20
 8004d06:	2800      	cmp	r0, #0
 8004d08:	f000 8542 	beq.w	8005790 <_dtoa_r+0xb08>
 8004d0c:	9b21      	ldr	r3, [sp, #132]	; 0x84
 8004d0e:	f8df b2ac 	ldr.w	fp, [pc, #684]	; 8004fbc <_dtoa_r+0x334>
 8004d12:	2b00      	cmp	r3, #0
 8004d14:	f000 8544 	beq.w	80057a0 <_dtoa_r+0xb18>
 8004d18:	f10b 0303 	add.w	r3, fp, #3
 8004d1c:	f000 bd3e 	b.w	800579c <_dtoa_r+0xb14>
 8004d20:	e9dd 6700 	ldrd	r6, r7, [sp]
 8004d24:	2200      	movs	r2, #0
 8004d26:	2300      	movs	r3, #0
 8004d28:	4630      	mov	r0, r6
 8004d2a:	4639      	mov	r1, r7
 8004d2c:	f7fb feec 	bl	8000b08 <__aeabi_dcmpeq>
 8004d30:	4681      	mov	r9, r0
 8004d32:	b168      	cbz	r0, 8004d50 <_dtoa_r+0xc8>
 8004d34:	9a12      	ldr	r2, [sp, #72]	; 0x48
 8004d36:	2301      	movs	r3, #1
 8004d38:	6013      	str	r3, [r2, #0]
 8004d3a:	9b21      	ldr	r3, [sp, #132]	; 0x84
 8004d3c:	2b00      	cmp	r3, #0
 8004d3e:	f000 8524 	beq.w	800578a <_dtoa_r+0xb02>
 8004d42:	4b9a      	ldr	r3, [pc, #616]	; (8004fac <_dtoa_r+0x324>)
 8004d44:	9a21      	ldr	r2, [sp, #132]	; 0x84
 8004d46:	f103 3bff 	add.w	fp, r3, #4294967295
 8004d4a:	6013      	str	r3, [r2, #0]
 8004d4c:	f000 bd28 	b.w	80057a0 <_dtoa_r+0xb18>
 8004d50:	aa14      	add	r2, sp, #80	; 0x50
 8004d52:	a915      	add	r1, sp, #84	; 0x54
 8004d54:	ec47 6b10 	vmov	d0, r6, r7
 8004d58:	4620      	mov	r0, r4
 8004d5a:	f000 fffa 	bl	8005d52 <__d2b>
 8004d5e:	f3c8 550a 	ubfx	r5, r8, #20, #11
 8004d62:	9004      	str	r0, [sp, #16]
 8004d64:	2d00      	cmp	r5, #0
 8004d66:	d07c      	beq.n	8004e62 <_dtoa_r+0x1da>
 8004d68:	f3c7 0313 	ubfx	r3, r7, #0, #20
 8004d6c:	f043 5b7f 	orr.w	fp, r3, #1069547520	; 0x3fc00000
 8004d70:	46b2      	mov	sl, r6
 8004d72:	f44b 1b40 	orr.w	fp, fp, #3145728	; 0x300000
 8004d76:	f2a5 35ff 	subw	r5, r5, #1023	; 0x3ff
 8004d7a:	f8cd 904c 	str.w	r9, [sp, #76]	; 0x4c
 8004d7e:	2200      	movs	r2, #0
 8004d80:	4b8b      	ldr	r3, [pc, #556]	; (8004fb0 <_dtoa_r+0x328>)
 8004d82:	4650      	mov	r0, sl
 8004d84:	4659      	mov	r1, fp
 8004d86:	f7fb fa9f 	bl	80002c8 <__aeabi_dsub>
 8004d8a:	a381      	add	r3, pc, #516	; (adr r3, 8004f90 <_dtoa_r+0x308>)
 8004d8c:	e9d3 2300 	ldrd	r2, r3, [r3]
 8004d90:	f7fb fc52 	bl	8000638 <__aeabi_dmul>
 8004d94:	a380      	add	r3, pc, #512	; (adr r3, 8004f98 <_dtoa_r+0x310>)
 8004d96:	e9d3 2300 	ldrd	r2, r3, [r3]
 8004d9a:	f7fb fa97 	bl	80002cc <__adddf3>
 8004d9e:	4606      	mov	r6, r0
 8004da0:	4628      	mov	r0, r5
 8004da2:	460f      	mov	r7, r1
 8004da4:	f7fb fbde 	bl	8000564 <__aeabi_i2d>
 8004da8:	a37d      	add	r3, pc, #500	; (adr r3, 8004fa0 <_dtoa_r+0x318>)
 8004daa:	e9d3 2300 	ldrd	r2, r3, [r3]
 8004dae:	f7fb fc43 	bl	8000638 <__aeabi_dmul>
 8004db2:	4602      	mov	r2, r0
 8004db4:	460b      	mov	r3, r1
 8004db6:	4630      	mov	r0, r6
 8004db8:	4639      	mov	r1, r7
 8004dba:	f7fb fa87 	bl	80002cc <__adddf3>
 8004dbe:	4606      	mov	r6, r0
 8004dc0:	460f      	mov	r7, r1
 8004dc2:	f7fb fee9 	bl	8000b98 <__aeabi_d2iz>
 8004dc6:	2200      	movs	r2, #0
 8004dc8:	4682      	mov	sl, r0
 8004dca:	2300      	movs	r3, #0
 8004dcc:	4630      	mov	r0, r6
 8004dce:	4639      	mov	r1, r7
 8004dd0:	f7fb fea4 	bl	8000b1c <__aeabi_dcmplt>
 8004dd4:	b148      	cbz	r0, 8004dea <_dtoa_r+0x162>
 8004dd6:	4650      	mov	r0, sl
 8004dd8:	f7fb fbc4 	bl	8000564 <__aeabi_i2d>
 8004ddc:	4632      	mov	r2, r6
 8004dde:	463b      	mov	r3, r7
 8004de0:	f7fb fe92 	bl	8000b08 <__aeabi_dcmpeq>
 8004de4:	b908      	cbnz	r0, 8004dea <_dtoa_r+0x162>
 8004de6:	f10a 3aff 	add.w	sl, sl, #4294967295
 8004dea:	f1ba 0f16 	cmp.w	sl, #22
 8004dee:	d859      	bhi.n	8004ea4 <_dtoa_r+0x21c>
 8004df0:	4970      	ldr	r1, [pc, #448]	; (8004fb4 <_dtoa_r+0x32c>)
 8004df2:	eb01 01ca 	add.w	r1, r1, sl, lsl #3
 8004df6:	e9dd 2300 	ldrd	r2, r3, [sp]
 8004dfa:	e9d1 0100 	ldrd	r0, r1, [r1]
 8004dfe:	f7fb feab 	bl	8000b58 <__aeabi_dcmpgt>
 8004e02:	2800      	cmp	r0, #0
 8004e04:	d050      	beq.n	8004ea8 <_dtoa_r+0x220>
 8004e06:	f10a 3aff 	add.w	sl, sl, #4294967295
 8004e0a:	2300      	movs	r3, #0
 8004e0c:	930f      	str	r3, [sp, #60]	; 0x3c
 8004e0e:	9b14      	ldr	r3, [sp, #80]	; 0x50
 8004e10:	1b5d      	subs	r5, r3, r5
 8004e12:	f1b5 0801 	subs.w	r8, r5, #1
 8004e16:	bf49      	itett	mi
 8004e18:	f1c5 0301 	rsbmi	r3, r5, #1
 8004e1c:	2300      	movpl	r3, #0
 8004e1e:	9305      	strmi	r3, [sp, #20]
 8004e20:	f04f 0800 	movmi.w	r8, #0
 8004e24:	bf58      	it	pl
 8004e26:	9305      	strpl	r3, [sp, #20]
 8004e28:	f1ba 0f00 	cmp.w	sl, #0
 8004e2c:	db3e      	blt.n	8004eac <_dtoa_r+0x224>
 8004e2e:	2300      	movs	r3, #0
 8004e30:	44d0      	add	r8, sl
 8004e32:	f8cd a038 	str.w	sl, [sp, #56]	; 0x38
 8004e36:	9307      	str	r3, [sp, #28]
 8004e38:	9b06      	ldr	r3, [sp, #24]
 8004e3a:	2b09      	cmp	r3, #9
 8004e3c:	f200 8090 	bhi.w	8004f60 <_dtoa_r+0x2d8>
 8004e40:	2b05      	cmp	r3, #5
 8004e42:	bfc4      	itt	gt
 8004e44:	3b04      	subgt	r3, #4
 8004e46:	9306      	strgt	r3, [sp, #24]
 8004e48:	9b06      	ldr	r3, [sp, #24]
 8004e4a:	f1a3 0302 	sub.w	r3, r3, #2
 8004e4e:	bfcc      	ite	gt
 8004e50:	2500      	movgt	r5, #0
 8004e52:	2501      	movle	r5, #1
 8004e54:	2b03      	cmp	r3, #3
 8004e56:	f200 808f 	bhi.w	8004f78 <_dtoa_r+0x2f0>
 8004e5a:	e8df f003 	tbb	[pc, r3]
 8004e5e:	7f7d      	.short	0x7f7d
 8004e60:	7131      	.short	0x7131
 8004e62:	e9dd 5314 	ldrd	r5, r3, [sp, #80]	; 0x50
 8004e66:	441d      	add	r5, r3
 8004e68:	f205 4032 	addw	r0, r5, #1074	; 0x432
 8004e6c:	2820      	cmp	r0, #32
 8004e6e:	dd13      	ble.n	8004e98 <_dtoa_r+0x210>
 8004e70:	f1c0 0040 	rsb	r0, r0, #64	; 0x40
 8004e74:	9b00      	ldr	r3, [sp, #0]
 8004e76:	fa08 f800 	lsl.w	r8, r8, r0
 8004e7a:	f205 4012 	addw	r0, r5, #1042	; 0x412
 8004e7e:	fa23 f000 	lsr.w	r0, r3, r0
 8004e82:	ea48 0000 	orr.w	r0, r8, r0
 8004e86:	f7fb fb5d 	bl	8000544 <__aeabi_ui2d>
 8004e8a:	2301      	movs	r3, #1
 8004e8c:	4682      	mov	sl, r0
 8004e8e:	f1a1 7bf8 	sub.w	fp, r1, #32505856	; 0x1f00000
 8004e92:	3d01      	subs	r5, #1
 8004e94:	9313      	str	r3, [sp, #76]	; 0x4c
 8004e96:	e772      	b.n	8004d7e <_dtoa_r+0xf6>
 8004e98:	9b00      	ldr	r3, [sp, #0]
 8004e9a:	f1c0 0020 	rsb	r0, r0, #32
 8004e9e:	fa03 f000 	lsl.w	r0, r3, r0
 8004ea2:	e7f0      	b.n	8004e86 <_dtoa_r+0x1fe>
 8004ea4:	2301      	movs	r3, #1
 8004ea6:	e7b1      	b.n	8004e0c <_dtoa_r+0x184>
 8004ea8:	900f      	str	r0, [sp, #60]	; 0x3c
 8004eaa:	e7b0      	b.n	8004e0e <_dtoa_r+0x186>
 8004eac:	9b05      	ldr	r3, [sp, #20]
 8004eae:	eba3 030a 	sub.w	r3, r3, sl
 8004eb2:	9305      	str	r3, [sp, #20]
 8004eb4:	f1ca 0300 	rsb	r3, sl, #0
 8004eb8:	9307      	str	r3, [sp, #28]
 8004eba:	2300      	movs	r3, #0
 8004ebc:	930e      	str	r3, [sp, #56]	; 0x38
 8004ebe:	e7bb      	b.n	8004e38 <_dtoa_r+0x1b0>
 8004ec0:	2301      	movs	r3, #1
 8004ec2:	930a      	str	r3, [sp, #40]	; 0x28
 8004ec4:	9b0b      	ldr	r3, [sp, #44]	; 0x2c
 8004ec6:	2b00      	cmp	r3, #0
 8004ec8:	dd59      	ble.n	8004f7e <_dtoa_r+0x2f6>
 8004eca:	9302      	str	r3, [sp, #8]
 8004ecc:	4699      	mov	r9, r3
 8004ece:	6a66      	ldr	r6, [r4, #36]	; 0x24
 8004ed0:	2200      	movs	r2, #0
 8004ed2:	6072      	str	r2, [r6, #4]
 8004ed4:	2204      	movs	r2, #4
 8004ed6:	f102 0014 	add.w	r0, r2, #20
 8004eda:	4298      	cmp	r0, r3
 8004edc:	6871      	ldr	r1, [r6, #4]
 8004ede:	d953      	bls.n	8004f88 <_dtoa_r+0x300>
 8004ee0:	4620      	mov	r0, r4
 8004ee2:	f000 fcaa 	bl	800583a <_Balloc>
 8004ee6:	6a63      	ldr	r3, [r4, #36]	; 0x24
 8004ee8:	6030      	str	r0, [r6, #0]
 8004eea:	f1b9 0f0e 	cmp.w	r9, #14
 8004eee:	f8d3 b000 	ldr.w	fp, [r3]
 8004ef2:	f200 80e6 	bhi.w	80050c2 <_dtoa_r+0x43a>
 8004ef6:	2d00      	cmp	r5, #0
 8004ef8:	f000 80e3 	beq.w	80050c2 <_dtoa_r+0x43a>
 8004efc:	ed9d 7b00 	vldr	d7, [sp]
 8004f00:	f1ba 0f00 	cmp.w	sl, #0
 8004f04:	ed8d 7b10 	vstr	d7, [sp, #64]	; 0x40
 8004f08:	dd74      	ble.n	8004ff4 <_dtoa_r+0x36c>
 8004f0a:	4a2a      	ldr	r2, [pc, #168]	; (8004fb4 <_dtoa_r+0x32c>)
 8004f0c:	f00a 030f 	and.w	r3, sl, #15
 8004f10:	eb02 03c3 	add.w	r3, r2, r3, lsl #3
 8004f14:	ed93 7b00 	vldr	d7, [r3]
 8004f18:	ea4f 162a 	mov.w	r6, sl, asr #4
 8004f1c:	06f0      	lsls	r0, r6, #27
 8004f1e:	ed8d 7b08 	vstr	d7, [sp, #32]
 8004f22:	d565      	bpl.n	8004ff0 <_dtoa_r+0x368>
 8004f24:	4b24      	ldr	r3, [pc, #144]	; (8004fb8 <_dtoa_r+0x330>)
 8004f26:	e9dd 0110 	ldrd	r0, r1, [sp, #64]	; 0x40
 8004f2a:	e9d3 2308 	ldrd	r2, r3, [r3, #32]
 8004f2e:	f7fb fcad 	bl	800088c <__aeabi_ddiv>
 8004f32:	e9cd 0100 	strd	r0, r1, [sp]
 8004f36:	f006 060f 	and.w	r6, r6, #15
 8004f3a:	2503      	movs	r5, #3
 8004f3c:	4f1e      	ldr	r7, [pc, #120]	; (8004fb8 <_dtoa_r+0x330>)
 8004f3e:	e04c      	b.n	8004fda <_dtoa_r+0x352>
 8004f40:	2301      	movs	r3, #1
 8004f42:	930a      	str	r3, [sp, #40]	; 0x28
 8004f44:	9b0b      	ldr	r3, [sp, #44]	; 0x2c
 8004f46:	4453      	add	r3, sl
 8004f48:	f103 0901 	add.w	r9, r3, #1
 8004f4c:	9302      	str	r3, [sp, #8]
 8004f4e:	464b      	mov	r3, r9
 8004f50:	2b01      	cmp	r3, #1
 8004f52:	bfb8      	it	lt
 8004f54:	2301      	movlt	r3, #1
 8004f56:	e7ba      	b.n	8004ece <_dtoa_r+0x246>
 8004f58:	2300      	movs	r3, #0
 8004f5a:	e7b2      	b.n	8004ec2 <_dtoa_r+0x23a>
 8004f5c:	2300      	movs	r3, #0
 8004f5e:	e7f0      	b.n	8004f42 <_dtoa_r+0x2ba>
 8004f60:	2501      	movs	r5, #1
 8004f62:	2300      	movs	r3, #0
 8004f64:	9306      	str	r3, [sp, #24]
 8004f66:	950a      	str	r5, [sp, #40]	; 0x28
 8004f68:	f04f 33ff 	mov.w	r3, #4294967295
 8004f6c:	9302      	str	r3, [sp, #8]
 8004f6e:	4699      	mov	r9, r3
 8004f70:	2200      	movs	r2, #0
 8004f72:	2312      	movs	r3, #18
 8004f74:	920b      	str	r2, [sp, #44]	; 0x2c
 8004f76:	e7aa      	b.n	8004ece <_dtoa_r+0x246>
 8004f78:	2301      	movs	r3, #1
 8004f7a:	930a      	str	r3, [sp, #40]	; 0x28
 8004f7c:	e7f4      	b.n	8004f68 <_dtoa_r+0x2e0>
 8004f7e:	2301      	movs	r3, #1
 8004f80:	9302      	str	r3, [sp, #8]
 8004f82:	4699      	mov	r9, r3
 8004f84:	461a      	mov	r2, r3
 8004f86:	e7f5      	b.n	8004f74 <_dtoa_r+0x2ec>
 8004f88:	3101      	adds	r1, #1
 8004f8a:	6071      	str	r1, [r6, #4]
 8004f8c:	0052      	lsls	r2, r2, #1
 8004f8e:	e7a2      	b.n	8004ed6 <_dtoa_r+0x24e>
 8004f90:	636f4361 	.word	0x636f4361
 8004f94:	3fd287a7 	.word	0x3fd287a7
 8004f98:	8b60c8b3 	.word	0x8b60c8b3
 8004f9c:	3fc68a28 	.word	0x3fc68a28
 8004fa0:	509f79fb 	.word	0x509f79fb
 8004fa4:	3fd34413 	.word	0x3fd34413
 8004fa8:	7ff00000 	.word	0x7ff00000
 8004fac:	0800633d 	.word	0x0800633d
 8004fb0:	3ff80000 	.word	0x3ff80000
 8004fb4:	08006398 	.word	0x08006398
 8004fb8:	08006370 	.word	0x08006370
 8004fbc:	08006369 	.word	0x08006369
 8004fc0:	07f1      	lsls	r1, r6, #31
 8004fc2:	d508      	bpl.n	8004fd6 <_dtoa_r+0x34e>
 8004fc4:	e9dd 0108 	ldrd	r0, r1, [sp, #32]
 8004fc8:	e9d7 2300 	ldrd	r2, r3, [r7]
 8004fcc:	f7fb fb34 	bl	8000638 <__aeabi_dmul>
 8004fd0:	e9cd 0108 	strd	r0, r1, [sp, #32]
 8004fd4:	3501      	adds	r5, #1
 8004fd6:	1076      	asrs	r6, r6, #1
 8004fd8:	3708      	adds	r7, #8
 8004fda:	2e00      	cmp	r6, #0
 8004fdc:	d1f0      	bne.n	8004fc0 <_dtoa_r+0x338>
 8004fde:	e9dd 2308 	ldrd	r2, r3, [sp, #32]
 8004fe2:	e9dd 0100 	ldrd	r0, r1, [sp]
 8004fe6:	f7fb fc51 	bl	800088c <__aeabi_ddiv>
 8004fea:	e9cd 0100 	strd	r0, r1, [sp]
 8004fee:	e01a      	b.n	8005026 <_dtoa_r+0x39e>
 8004ff0:	2502      	movs	r5, #2
 8004ff2:	e7a3      	b.n	8004f3c <_dtoa_r+0x2b4>
 8004ff4:	f000 80a0 	beq.w	8005138 <_dtoa_r+0x4b0>
 8004ff8:	f1ca 0600 	rsb	r6, sl, #0
 8004ffc:	4b9f      	ldr	r3, [pc, #636]	; (800527c <_dtoa_r+0x5f4>)
 8004ffe:	4fa0      	ldr	r7, [pc, #640]	; (8005280 <_dtoa_r+0x5f8>)
 8005000:	f006 020f 	and.w	r2, r6, #15
 8005004:	eb03 03c2 	add.w	r3, r3, r2, lsl #3
 8005008:	e9d3 2300 	ldrd	r2, r3, [r3]
 800500c:	e9dd 0110 	ldrd	r0, r1, [sp, #64]	; 0x40
 8005010:	f7fb fb12 	bl	8000638 <__aeabi_dmul>
 8005014:	e9cd 0100 	strd	r0, r1, [sp]
 8005018:	1136      	asrs	r6, r6, #4
 800501a:	2300      	movs	r3, #0
 800501c:	2502      	movs	r5, #2
 800501e:	2e00      	cmp	r6, #0
 8005020:	d17f      	bne.n	8005122 <_dtoa_r+0x49a>
 8005022:	2b00      	cmp	r3, #0
 8005024:	d1e1      	bne.n	8004fea <_dtoa_r+0x362>
 8005026:	9b0f      	ldr	r3, [sp, #60]	; 0x3c
 8005028:	2b00      	cmp	r3, #0
 800502a:	f000 8087 	beq.w	800513c <_dtoa_r+0x4b4>
 800502e:	e9dd 6700 	ldrd	r6, r7, [sp]
 8005032:	2200      	movs	r2, #0
 8005034:	4b93      	ldr	r3, [pc, #588]	; (8005284 <_dtoa_r+0x5fc>)
 8005036:	4630      	mov	r0, r6
 8005038:	4639      	mov	r1, r7
 800503a:	f7fb fd6f 	bl	8000b1c <__aeabi_dcmplt>
 800503e:	2800      	cmp	r0, #0
 8005040:	d07c      	beq.n	800513c <_dtoa_r+0x4b4>
 8005042:	f1b9 0f00 	cmp.w	r9, #0
 8005046:	d079      	beq.n	800513c <_dtoa_r+0x4b4>
 8005048:	9b02      	ldr	r3, [sp, #8]
 800504a:	2b00      	cmp	r3, #0
 800504c:	dd35      	ble.n	80050ba <_dtoa_r+0x432>
 800504e:	f10a 33ff 	add.w	r3, sl, #4294967295
 8005052:	9308      	str	r3, [sp, #32]
 8005054:	4639      	mov	r1, r7
 8005056:	2200      	movs	r2, #0
 8005058:	4b8b      	ldr	r3, [pc, #556]	; (8005288 <_dtoa_r+0x600>)
 800505a:	4630      	mov	r0, r6
 800505c:	f7fb faec 	bl	8000638 <__aeabi_dmul>
 8005060:	e9cd 0100 	strd	r0, r1, [sp]
 8005064:	9f02      	ldr	r7, [sp, #8]
 8005066:	3501      	adds	r5, #1
 8005068:	4628      	mov	r0, r5
 800506a:	f7fb fa7b 	bl	8000564 <__aeabi_i2d>
 800506e:	e9dd 2300 	ldrd	r2, r3, [sp]
 8005072:	f7fb fae1 	bl	8000638 <__aeabi_dmul>
 8005076:	2200      	movs	r2, #0
 8005078:	4b84      	ldr	r3, [pc, #528]	; (800528c <_dtoa_r+0x604>)
 800507a:	f7fb f927 	bl	80002cc <__adddf3>
 800507e:	4605      	mov	r5, r0
 8005080:	f1a1 7650 	sub.w	r6, r1, #54525952	; 0x3400000
 8005084:	2f00      	cmp	r7, #0
 8005086:	d15d      	bne.n	8005144 <_dtoa_r+0x4bc>
 8005088:	2200      	movs	r2, #0
 800508a:	4b81      	ldr	r3, [pc, #516]	; (8005290 <_dtoa_r+0x608>)
 800508c:	e9dd 0100 	ldrd	r0, r1, [sp]
 8005090:	f7fb f91a 	bl	80002c8 <__aeabi_dsub>
 8005094:	462a      	mov	r2, r5
 8005096:	4633      	mov	r3, r6
 8005098:	e9cd 0100 	strd	r0, r1, [sp]
 800509c:	f7fb fd5c 	bl	8000b58 <__aeabi_dcmpgt>
 80050a0:	2800      	cmp	r0, #0
 80050a2:	f040 8288 	bne.w	80055b6 <_dtoa_r+0x92e>
 80050a6:	462a      	mov	r2, r5
 80050a8:	f106 4300 	add.w	r3, r6, #2147483648	; 0x80000000
 80050ac:	e9dd 0100 	ldrd	r0, r1, [sp]
 80050b0:	f7fb fd34 	bl	8000b1c <__aeabi_dcmplt>
 80050b4:	2800      	cmp	r0, #0
 80050b6:	f040 827c 	bne.w	80055b2 <_dtoa_r+0x92a>
 80050ba:	e9dd 2310 	ldrd	r2, r3, [sp, #64]	; 0x40
 80050be:	e9cd 2300 	strd	r2, r3, [sp]
 80050c2:	9b15      	ldr	r3, [sp, #84]	; 0x54
 80050c4:	2b00      	cmp	r3, #0
 80050c6:	f2c0 8150 	blt.w	800536a <_dtoa_r+0x6e2>
 80050ca:	f1ba 0f0e 	cmp.w	sl, #14
 80050ce:	f300 814c 	bgt.w	800536a <_dtoa_r+0x6e2>
 80050d2:	4b6a      	ldr	r3, [pc, #424]	; (800527c <_dtoa_r+0x5f4>)
 80050d4:	eb03 03ca 	add.w	r3, r3, sl, lsl #3
 80050d8:	ed93 7b00 	vldr	d7, [r3]
 80050dc:	9b0b      	ldr	r3, [sp, #44]	; 0x2c
 80050de:	2b00      	cmp	r3, #0
 80050e0:	ed8d 7b02 	vstr	d7, [sp, #8]
 80050e4:	f280 80d8 	bge.w	8005298 <_dtoa_r+0x610>
 80050e8:	f1b9 0f00 	cmp.w	r9, #0
 80050ec:	f300 80d4 	bgt.w	8005298 <_dtoa_r+0x610>
 80050f0:	f040 825e 	bne.w	80055b0 <_dtoa_r+0x928>
 80050f4:	2200      	movs	r2, #0
 80050f6:	4b66      	ldr	r3, [pc, #408]	; (8005290 <_dtoa_r+0x608>)
 80050f8:	ec51 0b17 	vmov	r0, r1, d7
 80050fc:	f7fb fa9c 	bl	8000638 <__aeabi_dmul>
 8005100:	e9dd 2300 	ldrd	r2, r3, [sp]
 8005104:	f7fb fd1e 	bl	8000b44 <__aeabi_dcmpge>
 8005108:	464f      	mov	r7, r9
 800510a:	464e      	mov	r6, r9
 800510c:	2800      	cmp	r0, #0
 800510e:	f040 8234 	bne.w	800557a <_dtoa_r+0x8f2>
 8005112:	2331      	movs	r3, #49	; 0x31
 8005114:	f10b 0501 	add.w	r5, fp, #1
 8005118:	f88b 3000 	strb.w	r3, [fp]
 800511c:	f10a 0a01 	add.w	sl, sl, #1
 8005120:	e22f      	b.n	8005582 <_dtoa_r+0x8fa>
 8005122:	07f2      	lsls	r2, r6, #31
 8005124:	d505      	bpl.n	8005132 <_dtoa_r+0x4aa>
 8005126:	e9d7 2300 	ldrd	r2, r3, [r7]
 800512a:	f7fb fa85 	bl	8000638 <__aeabi_dmul>
 800512e:	3501      	adds	r5, #1
 8005130:	2301      	movs	r3, #1
 8005132:	1076      	asrs	r6, r6, #1
 8005134:	3708      	adds	r7, #8
 8005136:	e772      	b.n	800501e <_dtoa_r+0x396>
 8005138:	2502      	movs	r5, #2
 800513a:	e774      	b.n	8005026 <_dtoa_r+0x39e>
 800513c:	f8cd a020 	str.w	sl, [sp, #32]
 8005140:	464f      	mov	r7, r9
 8005142:	e791      	b.n	8005068 <_dtoa_r+0x3e0>
 8005144:	4b4d      	ldr	r3, [pc, #308]	; (800527c <_dtoa_r+0x5f4>)
 8005146:	eb03 03c7 	add.w	r3, r3, r7, lsl #3
 800514a:	e953 0102 	ldrd	r0, r1, [r3, #-8]
 800514e:	9b0a      	ldr	r3, [sp, #40]	; 0x28
 8005150:	2b00      	cmp	r3, #0
 8005152:	d047      	beq.n	80051e4 <_dtoa_r+0x55c>
 8005154:	4602      	mov	r2, r0
 8005156:	460b      	mov	r3, r1
 8005158:	2000      	movs	r0, #0
 800515a:	494e      	ldr	r1, [pc, #312]	; (8005294 <_dtoa_r+0x60c>)
 800515c:	f7fb fb96 	bl	800088c <__aeabi_ddiv>
 8005160:	462a      	mov	r2, r5
 8005162:	4633      	mov	r3, r6
 8005164:	f7fb f8b0 	bl	80002c8 <__aeabi_dsub>
 8005168:	e9cd 010c 	strd	r0, r1, [sp, #48]	; 0x30
 800516c:	465d      	mov	r5, fp
 800516e:	e9dd 0100 	ldrd	r0, r1, [sp]
 8005172:	f7fb fd11 	bl	8000b98 <__aeabi_d2iz>
 8005176:	4606      	mov	r6, r0
 8005178:	f7fb f9f4 	bl	8000564 <__aeabi_i2d>
 800517c:	4602      	mov	r2, r0
 800517e:	460b      	mov	r3, r1
 8005180:	e9dd 0100 	ldrd	r0, r1, [sp]
 8005184:	f7fb f8a0 	bl	80002c8 <__aeabi_dsub>
 8005188:	3630      	adds	r6, #48	; 0x30
 800518a:	f805 6b01 	strb.w	r6, [r5], #1
 800518e:	e9dd 230c 	ldrd	r2, r3, [sp, #48]	; 0x30
 8005192:	e9cd 0100 	strd	r0, r1, [sp]
 8005196:	f7fb fcc1 	bl	8000b1c <__aeabi_dcmplt>
 800519a:	2800      	cmp	r0, #0
 800519c:	d163      	bne.n	8005266 <_dtoa_r+0x5de>
 800519e:	e9dd 2300 	ldrd	r2, r3, [sp]
 80051a2:	2000      	movs	r0, #0
 80051a4:	4937      	ldr	r1, [pc, #220]	; (8005284 <_dtoa_r+0x5fc>)
 80051a6:	f7fb f88f 	bl	80002c8 <__aeabi_dsub>
 80051aa:	e9dd 230c 	ldrd	r2, r3, [sp, #48]	; 0x30
 80051ae:	f7fb fcb5 	bl	8000b1c <__aeabi_dcmplt>
 80051b2:	2800      	cmp	r0, #0
 80051b4:	f040 80b7 	bne.w	8005326 <_dtoa_r+0x69e>
 80051b8:	eba5 030b 	sub.w	r3, r5, fp
 80051bc:	429f      	cmp	r7, r3
 80051be:	f77f af7c 	ble.w	80050ba <_dtoa_r+0x432>
 80051c2:	2200      	movs	r2, #0
 80051c4:	4b30      	ldr	r3, [pc, #192]	; (8005288 <_dtoa_r+0x600>)
 80051c6:	e9dd 010c 	ldrd	r0, r1, [sp, #48]	; 0x30
 80051ca:	f7fb fa35 	bl	8000638 <__aeabi_dmul>
 80051ce:	2200      	movs	r2, #0
 80051d0:	e9cd 010c 	strd	r0, r1, [sp, #48]	; 0x30
 80051d4:	4b2c      	ldr	r3, [pc, #176]	; (8005288 <_dtoa_r+0x600>)
 80051d6:	e9dd 0100 	ldrd	r0, r1, [sp]
 80051da:	f7fb fa2d 	bl	8000638 <__aeabi_dmul>
 80051de:	e9cd 0100 	strd	r0, r1, [sp]
 80051e2:	e7c4      	b.n	800516e <_dtoa_r+0x4e6>
 80051e4:	462a      	mov	r2, r5
 80051e6:	4633      	mov	r3, r6
 80051e8:	f7fb fa26 	bl	8000638 <__aeabi_dmul>
 80051ec:	e9cd 010c 	strd	r0, r1, [sp, #48]	; 0x30
 80051f0:	eb0b 0507 	add.w	r5, fp, r7
 80051f4:	465e      	mov	r6, fp
 80051f6:	e9dd 0100 	ldrd	r0, r1, [sp]
 80051fa:	f7fb fccd 	bl	8000b98 <__aeabi_d2iz>
 80051fe:	4607      	mov	r7, r0
 8005200:	f7fb f9b0 	bl	8000564 <__aeabi_i2d>
 8005204:	3730      	adds	r7, #48	; 0x30
 8005206:	4602      	mov	r2, r0
 8005208:	460b      	mov	r3, r1
 800520a:	e9dd 0100 	ldrd	r0, r1, [sp]
 800520e:	f7fb f85b 	bl	80002c8 <__aeabi_dsub>
 8005212:	f806 7b01 	strb.w	r7, [r6], #1
 8005216:	42ae      	cmp	r6, r5
 8005218:	e9cd 0100 	strd	r0, r1, [sp]
 800521c:	f04f 0200 	mov.w	r2, #0
 8005220:	d126      	bne.n	8005270 <_dtoa_r+0x5e8>
 8005222:	4b1c      	ldr	r3, [pc, #112]	; (8005294 <_dtoa_r+0x60c>)
 8005224:	e9dd 010c 	ldrd	r0, r1, [sp, #48]	; 0x30
 8005228:	f7fb f850 	bl	80002cc <__adddf3>
 800522c:	4602      	mov	r2, r0
 800522e:	460b      	mov	r3, r1
 8005230:	e9dd 0100 	ldrd	r0, r1, [sp]
 8005234:	f7fb fc90 	bl	8000b58 <__aeabi_dcmpgt>
 8005238:	2800      	cmp	r0, #0
 800523a:	d174      	bne.n	8005326 <_dtoa_r+0x69e>
 800523c:	e9dd 230c 	ldrd	r2, r3, [sp, #48]	; 0x30
 8005240:	2000      	movs	r0, #0
 8005242:	4914      	ldr	r1, [pc, #80]	; (8005294 <_dtoa_r+0x60c>)
 8005244:	f7fb f840 	bl	80002c8 <__aeabi_dsub>
 8005248:	4602      	mov	r2, r0
 800524a:	460b      	mov	r3, r1
 800524c:	e9dd 0100 	ldrd	r0, r1, [sp]
 8005250:	f7fb fc64 	bl	8000b1c <__aeabi_dcmplt>
 8005254:	2800      	cmp	r0, #0
 8005256:	f43f af30 	beq.w	80050ba <_dtoa_r+0x432>
 800525a:	f815 3c01 	ldrb.w	r3, [r5, #-1]
 800525e:	2b30      	cmp	r3, #48	; 0x30
 8005260:	f105 32ff 	add.w	r2, r5, #4294967295
 8005264:	d002      	beq.n	800526c <_dtoa_r+0x5e4>
 8005266:	f8dd a020 	ldr.w	sl, [sp, #32]
 800526a:	e04a      	b.n	8005302 <_dtoa_r+0x67a>
 800526c:	4615      	mov	r5, r2
 800526e:	e7f4      	b.n	800525a <_dtoa_r+0x5d2>
 8005270:	4b05      	ldr	r3, [pc, #20]	; (8005288 <_dtoa_r+0x600>)
 8005272:	f7fb f9e1 	bl	8000638 <__aeabi_dmul>
 8005276:	e9cd 0100 	strd	r0, r1, [sp]
 800527a:	e7bc      	b.n	80051f6 <_dtoa_r+0x56e>
 800527c:	08006398 	.word	0x08006398
 8005280:	08006370 	.word	0x08006370
 8005284:	3ff00000 	.word	0x3ff00000
 8005288:	40240000 	.word	0x40240000
 800528c:	401c0000 	.word	0x401c0000
 8005290:	40140000 	.word	0x40140000
 8005294:	3fe00000 	.word	0x3fe00000
 8005298:	e9dd 6700 	ldrd	r6, r7, [sp]
 800529c:	465d      	mov	r5, fp
 800529e:	e9dd 2302 	ldrd	r2, r3, [sp, #8]
 80052a2:	4630      	mov	r0, r6
 80052a4:	4639      	mov	r1, r7
 80052a6:	f7fb faf1 	bl	800088c <__aeabi_ddiv>
 80052aa:	f7fb fc75 	bl	8000b98 <__aeabi_d2iz>
 80052ae:	4680      	mov	r8, r0
 80052b0:	f7fb f958 	bl	8000564 <__aeabi_i2d>
 80052b4:	e9dd 2302 	ldrd	r2, r3, [sp, #8]
 80052b8:	f7fb f9be 	bl	8000638 <__aeabi_dmul>
 80052bc:	4602      	mov	r2, r0
 80052be:	460b      	mov	r3, r1
 80052c0:	4630      	mov	r0, r6
 80052c2:	4639      	mov	r1, r7
 80052c4:	f108 0630 	add.w	r6, r8, #48	; 0x30
 80052c8:	f7fa fffe 	bl	80002c8 <__aeabi_dsub>
 80052cc:	f805 6b01 	strb.w	r6, [r5], #1
 80052d0:	eba5 060b 	sub.w	r6, r5, fp
 80052d4:	45b1      	cmp	r9, r6
 80052d6:	4602      	mov	r2, r0
 80052d8:	460b      	mov	r3, r1
 80052da:	d139      	bne.n	8005350 <_dtoa_r+0x6c8>
 80052dc:	f7fa fff6 	bl	80002cc <__adddf3>
 80052e0:	e9dd 2302 	ldrd	r2, r3, [sp, #8]
 80052e4:	4606      	mov	r6, r0
 80052e6:	460f      	mov	r7, r1
 80052e8:	f7fb fc36 	bl	8000b58 <__aeabi_dcmpgt>
 80052ec:	b9c8      	cbnz	r0, 8005322 <_dtoa_r+0x69a>
 80052ee:	e9dd 2302 	ldrd	r2, r3, [sp, #8]
 80052f2:	4630      	mov	r0, r6
 80052f4:	4639      	mov	r1, r7
 80052f6:	f7fb fc07 	bl	8000b08 <__aeabi_dcmpeq>
 80052fa:	b110      	cbz	r0, 8005302 <_dtoa_r+0x67a>
 80052fc:	f018 0f01 	tst.w	r8, #1
 8005300:	d10f      	bne.n	8005322 <_dtoa_r+0x69a>
 8005302:	9904      	ldr	r1, [sp, #16]
 8005304:	4620      	mov	r0, r4
 8005306:	f000 facc 	bl	80058a2 <_Bfree>
 800530a:	2300      	movs	r3, #0
 800530c:	9a12      	ldr	r2, [sp, #72]	; 0x48
 800530e:	702b      	strb	r3, [r5, #0]
 8005310:	f10a 0301 	add.w	r3, sl, #1
 8005314:	6013      	str	r3, [r2, #0]
 8005316:	9b21      	ldr	r3, [sp, #132]	; 0x84
 8005318:	2b00      	cmp	r3, #0
 800531a:	f000 8241 	beq.w	80057a0 <_dtoa_r+0xb18>
 800531e:	601d      	str	r5, [r3, #0]
 8005320:	e23e      	b.n	80057a0 <_dtoa_r+0xb18>
 8005322:	f8cd a020 	str.w	sl, [sp, #32]
 8005326:	f815 2c01 	ldrb.w	r2, [r5, #-1]
 800532a:	2a39      	cmp	r2, #57	; 0x39
 800532c:	f105 33ff 	add.w	r3, r5, #4294967295
 8005330:	d108      	bne.n	8005344 <_dtoa_r+0x6bc>
 8005332:	459b      	cmp	fp, r3
 8005334:	d10a      	bne.n	800534c <_dtoa_r+0x6c4>
 8005336:	9b08      	ldr	r3, [sp, #32]
 8005338:	3301      	adds	r3, #1
 800533a:	9308      	str	r3, [sp, #32]
 800533c:	2330      	movs	r3, #48	; 0x30
 800533e:	f88b 3000 	strb.w	r3, [fp]
 8005342:	465b      	mov	r3, fp
 8005344:	781a      	ldrb	r2, [r3, #0]
 8005346:	3201      	adds	r2, #1
 8005348:	701a      	strb	r2, [r3, #0]
 800534a:	e78c      	b.n	8005266 <_dtoa_r+0x5de>
 800534c:	461d      	mov	r5, r3
 800534e:	e7ea      	b.n	8005326 <_dtoa_r+0x69e>
 8005350:	2200      	movs	r2, #0
 8005352:	4b9b      	ldr	r3, [pc, #620]	; (80055c0 <_dtoa_r+0x938>)
 8005354:	f7fb f970 	bl	8000638 <__aeabi_dmul>
 8005358:	2200      	movs	r2, #0
 800535a:	2300      	movs	r3, #0
 800535c:	4606      	mov	r6, r0
 800535e:	460f      	mov	r7, r1
 8005360:	f7fb fbd2 	bl	8000b08 <__aeabi_dcmpeq>
 8005364:	2800      	cmp	r0, #0
 8005366:	d09a      	beq.n	800529e <_dtoa_r+0x616>
 8005368:	e7cb      	b.n	8005302 <_dtoa_r+0x67a>
 800536a:	9a0a      	ldr	r2, [sp, #40]	; 0x28
 800536c:	2a00      	cmp	r2, #0
 800536e:	f000 808b 	beq.w	8005488 <_dtoa_r+0x800>
 8005372:	9a06      	ldr	r2, [sp, #24]
 8005374:	2a01      	cmp	r2, #1
 8005376:	dc6e      	bgt.n	8005456 <_dtoa_r+0x7ce>
 8005378:	9a13      	ldr	r2, [sp, #76]	; 0x4c
 800537a:	2a00      	cmp	r2, #0
 800537c:	d067      	beq.n	800544e <_dtoa_r+0x7c6>
 800537e:	f203 4333 	addw	r3, r3, #1075	; 0x433
 8005382:	9f07      	ldr	r7, [sp, #28]
 8005384:	9d05      	ldr	r5, [sp, #20]
 8005386:	9a05      	ldr	r2, [sp, #20]
 8005388:	2101      	movs	r1, #1
 800538a:	441a      	add	r2, r3
 800538c:	4620      	mov	r0, r4
 800538e:	9205      	str	r2, [sp, #20]
 8005390:	4498      	add	r8, r3
 8005392:	f000 fb26 	bl	80059e2 <__i2b>
 8005396:	4606      	mov	r6, r0
 8005398:	2d00      	cmp	r5, #0
 800539a:	dd0c      	ble.n	80053b6 <_dtoa_r+0x72e>
 800539c:	f1b8 0f00 	cmp.w	r8, #0
 80053a0:	dd09      	ble.n	80053b6 <_dtoa_r+0x72e>
 80053a2:	4545      	cmp	r5, r8
 80053a4:	9a05      	ldr	r2, [sp, #20]
 80053a6:	462b      	mov	r3, r5
 80053a8:	bfa8      	it	ge
 80053aa:	4643      	movge	r3, r8
 80053ac:	1ad2      	subs	r2, r2, r3
 80053ae:	9205      	str	r2, [sp, #20]
 80053b0:	1aed      	subs	r5, r5, r3
 80053b2:	eba8 0803 	sub.w	r8, r8, r3
 80053b6:	9b07      	ldr	r3, [sp, #28]
 80053b8:	b1eb      	cbz	r3, 80053f6 <_dtoa_r+0x76e>
 80053ba:	9b0a      	ldr	r3, [sp, #40]	; 0x28
 80053bc:	2b00      	cmp	r3, #0
 80053be:	d067      	beq.n	8005490 <_dtoa_r+0x808>
 80053c0:	b18f      	cbz	r7, 80053e6 <_dtoa_r+0x75e>
 80053c2:	4631      	mov	r1, r6
 80053c4:	463a      	mov	r2, r7
 80053c6:	4620      	mov	r0, r4
 80053c8:	f000 fbaa 	bl	8005b20 <__pow5mult>
 80053cc:	9a04      	ldr	r2, [sp, #16]
 80053ce:	4601      	mov	r1, r0
 80053d0:	4606      	mov	r6, r0
 80053d2:	4620      	mov	r0, r4
 80053d4:	f000 fb0e 	bl	80059f4 <__multiply>
 80053d8:	9904      	ldr	r1, [sp, #16]
 80053da:	9008      	str	r0, [sp, #32]
 80053dc:	4620      	mov	r0, r4
 80053de:	f000 fa60 	bl	80058a2 <_Bfree>
 80053e2:	9b08      	ldr	r3, [sp, #32]
 80053e4:	9304      	str	r3, [sp, #16]
 80053e6:	9b07      	ldr	r3, [sp, #28]
 80053e8:	1bda      	subs	r2, r3, r7
 80053ea:	d004      	beq.n	80053f6 <_dtoa_r+0x76e>
 80053ec:	9904      	ldr	r1, [sp, #16]
 80053ee:	4620      	mov	r0, r4
 80053f0:	f000 fb96 	bl	8005b20 <__pow5mult>
 80053f4:	9004      	str	r0, [sp, #16]
 80053f6:	2101      	movs	r1, #1
 80053f8:	4620      	mov	r0, r4
 80053fa:	f000 faf2 	bl	80059e2 <__i2b>
 80053fe:	9b0e      	ldr	r3, [sp, #56]	; 0x38
 8005400:	4607      	mov	r7, r0
 8005402:	2b00      	cmp	r3, #0
 8005404:	f000 81d0 	beq.w	80057a8 <_dtoa_r+0xb20>
 8005408:	461a      	mov	r2, r3
 800540a:	4601      	mov	r1, r0
 800540c:	4620      	mov	r0, r4
 800540e:	f000 fb87 	bl	8005b20 <__pow5mult>
 8005412:	9b06      	ldr	r3, [sp, #24]
 8005414:	2b01      	cmp	r3, #1
 8005416:	4607      	mov	r7, r0
 8005418:	dc40      	bgt.n	800549c <_dtoa_r+0x814>
 800541a:	9b00      	ldr	r3, [sp, #0]
 800541c:	2b00      	cmp	r3, #0
 800541e:	d139      	bne.n	8005494 <_dtoa_r+0x80c>
 8005420:	9b01      	ldr	r3, [sp, #4]
 8005422:	f3c3 0313 	ubfx	r3, r3, #0, #20
 8005426:	2b00      	cmp	r3, #0
 8005428:	d136      	bne.n	8005498 <_dtoa_r+0x810>
 800542a:	9b01      	ldr	r3, [sp, #4]
 800542c:	f023 4300 	bic.w	r3, r3, #2147483648	; 0x80000000
 8005430:	0d1b      	lsrs	r3, r3, #20
 8005432:	051b      	lsls	r3, r3, #20
 8005434:	b12b      	cbz	r3, 8005442 <_dtoa_r+0x7ba>
 8005436:	9b05      	ldr	r3, [sp, #20]
 8005438:	3301      	adds	r3, #1
 800543a:	9305      	str	r3, [sp, #20]
 800543c:	f108 0801 	add.w	r8, r8, #1
 8005440:	2301      	movs	r3, #1
 8005442:	9307      	str	r3, [sp, #28]
 8005444:	9b0e      	ldr	r3, [sp, #56]	; 0x38
 8005446:	2b00      	cmp	r3, #0
 8005448:	d12a      	bne.n	80054a0 <_dtoa_r+0x818>
 800544a:	2001      	movs	r0, #1
 800544c:	e030      	b.n	80054b0 <_dtoa_r+0x828>
 800544e:	9b14      	ldr	r3, [sp, #80]	; 0x50
 8005450:	f1c3 0336 	rsb	r3, r3, #54	; 0x36
 8005454:	e795      	b.n	8005382 <_dtoa_r+0x6fa>
 8005456:	9b07      	ldr	r3, [sp, #28]
 8005458:	f109 37ff 	add.w	r7, r9, #4294967295
 800545c:	42bb      	cmp	r3, r7
 800545e:	bfbf      	itttt	lt
 8005460:	9b07      	ldrlt	r3, [sp, #28]
 8005462:	9707      	strlt	r7, [sp, #28]
 8005464:	1afa      	sublt	r2, r7, r3
 8005466:	9b0e      	ldrlt	r3, [sp, #56]	; 0x38
 8005468:	bfbb      	ittet	lt
 800546a:	189b      	addlt	r3, r3, r2
 800546c:	930e      	strlt	r3, [sp, #56]	; 0x38
 800546e:	1bdf      	subge	r7, r3, r7
 8005470:	2700      	movlt	r7, #0
 8005472:	f1b9 0f00 	cmp.w	r9, #0
 8005476:	bfb5      	itete	lt
 8005478:	9b05      	ldrlt	r3, [sp, #20]
 800547a:	9d05      	ldrge	r5, [sp, #20]
 800547c:	eba3 0509 	sublt.w	r5, r3, r9
 8005480:	464b      	movge	r3, r9
 8005482:	bfb8      	it	lt
 8005484:	2300      	movlt	r3, #0
 8005486:	e77e      	b.n	8005386 <_dtoa_r+0x6fe>
 8005488:	9f07      	ldr	r7, [sp, #28]
 800548a:	9d05      	ldr	r5, [sp, #20]
 800548c:	9e0a      	ldr	r6, [sp, #40]	; 0x28
 800548e:	e783      	b.n	8005398 <_dtoa_r+0x710>
 8005490:	9a07      	ldr	r2, [sp, #28]
 8005492:	e7ab      	b.n	80053ec <_dtoa_r+0x764>
 8005494:	2300      	movs	r3, #0
 8005496:	e7d4      	b.n	8005442 <_dtoa_r+0x7ba>
 8005498:	9b00      	ldr	r3, [sp, #0]
 800549a:	e7d2      	b.n	8005442 <_dtoa_r+0x7ba>
 800549c:	2300      	movs	r3, #0
 800549e:	9307      	str	r3, [sp, #28]
 80054a0:	693b      	ldr	r3, [r7, #16]
 80054a2:	eb07 0383 	add.w	r3, r7, r3, lsl #2
 80054a6:	6918      	ldr	r0, [r3, #16]
 80054a8:	f000 fa4d 	bl	8005946 <__hi0bits>
 80054ac:	f1c0 0020 	rsb	r0, r0, #32
 80054b0:	4440      	add	r0, r8
 80054b2:	f010 001f 	ands.w	r0, r0, #31
 80054b6:	d047      	beq.n	8005548 <_dtoa_r+0x8c0>
 80054b8:	f1c0 0320 	rsb	r3, r0, #32
 80054bc:	2b04      	cmp	r3, #4
 80054be:	dd3b      	ble.n	8005538 <_dtoa_r+0x8b0>
 80054c0:	9b05      	ldr	r3, [sp, #20]
 80054c2:	f1c0 001c 	rsb	r0, r0, #28
 80054c6:	4403      	add	r3, r0
 80054c8:	9305      	str	r3, [sp, #20]
 80054ca:	4405      	add	r5, r0
 80054cc:	4480      	add	r8, r0
 80054ce:	9b05      	ldr	r3, [sp, #20]
 80054d0:	2b00      	cmp	r3, #0
 80054d2:	dd05      	ble.n	80054e0 <_dtoa_r+0x858>
 80054d4:	461a      	mov	r2, r3
 80054d6:	9904      	ldr	r1, [sp, #16]
 80054d8:	4620      	mov	r0, r4
 80054da:	f000 fb6f 	bl	8005bbc <__lshift>
 80054de:	9004      	str	r0, [sp, #16]
 80054e0:	f1b8 0f00 	cmp.w	r8, #0
 80054e4:	dd05      	ble.n	80054f2 <_dtoa_r+0x86a>
 80054e6:	4639      	mov	r1, r7
 80054e8:	4642      	mov	r2, r8
 80054ea:	4620      	mov	r0, r4
 80054ec:	f000 fb66 	bl	8005bbc <__lshift>
 80054f0:	4607      	mov	r7, r0
 80054f2:	9b0f      	ldr	r3, [sp, #60]	; 0x3c
 80054f4:	b353      	cbz	r3, 800554c <_dtoa_r+0x8c4>
 80054f6:	4639      	mov	r1, r7
 80054f8:	9804      	ldr	r0, [sp, #16]
 80054fa:	f000 fbb3 	bl	8005c64 <__mcmp>
 80054fe:	2800      	cmp	r0, #0
 8005500:	da24      	bge.n	800554c <_dtoa_r+0x8c4>
 8005502:	2300      	movs	r3, #0
 8005504:	220a      	movs	r2, #10
 8005506:	9904      	ldr	r1, [sp, #16]
 8005508:	4620      	mov	r0, r4
 800550a:	f000 f9e1 	bl	80058d0 <__multadd>
 800550e:	9b0a      	ldr	r3, [sp, #40]	; 0x28
 8005510:	9004      	str	r0, [sp, #16]
 8005512:	f10a 3aff 	add.w	sl, sl, #4294967295
 8005516:	2b00      	cmp	r3, #0
 8005518:	f000 814d 	beq.w	80057b6 <_dtoa_r+0xb2e>
 800551c:	2300      	movs	r3, #0
 800551e:	4631      	mov	r1, r6
 8005520:	220a      	movs	r2, #10
 8005522:	4620      	mov	r0, r4
 8005524:	f000 f9d4 	bl	80058d0 <__multadd>
 8005528:	9b02      	ldr	r3, [sp, #8]
 800552a:	2b00      	cmp	r3, #0
 800552c:	4606      	mov	r6, r0
 800552e:	dc4f      	bgt.n	80055d0 <_dtoa_r+0x948>
 8005530:	9b06      	ldr	r3, [sp, #24]
 8005532:	2b02      	cmp	r3, #2
 8005534:	dd4c      	ble.n	80055d0 <_dtoa_r+0x948>
 8005536:	e011      	b.n	800555c <_dtoa_r+0x8d4>
 8005538:	d0c9      	beq.n	80054ce <_dtoa_r+0x846>
 800553a:	9a05      	ldr	r2, [sp, #20]
 800553c:	331c      	adds	r3, #28
 800553e:	441a      	add	r2, r3
 8005540:	9205      	str	r2, [sp, #20]
 8005542:	441d      	add	r5, r3
 8005544:	4498      	add	r8, r3
 8005546:	e7c2      	b.n	80054ce <_dtoa_r+0x846>
 8005548:	4603      	mov	r3, r0
 800554a:	e7f6      	b.n	800553a <_dtoa_r+0x8b2>
 800554c:	f1b9 0f00 	cmp.w	r9, #0
 8005550:	dc38      	bgt.n	80055c4 <_dtoa_r+0x93c>
 8005552:	9b06      	ldr	r3, [sp, #24]
 8005554:	2b02      	cmp	r3, #2
 8005556:	dd35      	ble.n	80055c4 <_dtoa_r+0x93c>
 8005558:	f8cd 9008 	str.w	r9, [sp, #8]
 800555c:	9b02      	ldr	r3, [sp, #8]
 800555e:	b963      	cbnz	r3, 800557a <_dtoa_r+0x8f2>
 8005560:	4639      	mov	r1, r7
 8005562:	2205      	movs	r2, #5
 8005564:	4620      	mov	r0, r4
 8005566:	f000 f9b3 	bl	80058d0 <__multadd>
 800556a:	4601      	mov	r1, r0
 800556c:	4607      	mov	r7, r0
 800556e:	9804      	ldr	r0, [sp, #16]
 8005570:	f000 fb78 	bl	8005c64 <__mcmp>
 8005574:	2800      	cmp	r0, #0
 8005576:	f73f adcc 	bgt.w	8005112 <_dtoa_r+0x48a>
 800557a:	9b0b      	ldr	r3, [sp, #44]	; 0x2c
 800557c:	465d      	mov	r5, fp
 800557e:	ea6f 0a03 	mvn.w	sl, r3
 8005582:	f04f 0900 	mov.w	r9, #0
 8005586:	4639      	mov	r1, r7
 8005588:	4620      	mov	r0, r4
 800558a:	f000 f98a 	bl	80058a2 <_Bfree>
 800558e:	2e00      	cmp	r6, #0
 8005590:	f43f aeb7 	beq.w	8005302 <_dtoa_r+0x67a>
 8005594:	f1b9 0f00 	cmp.w	r9, #0
 8005598:	d005      	beq.n	80055a6 <_dtoa_r+0x91e>
 800559a:	45b1      	cmp	r9, r6
 800559c:	d003      	beq.n	80055a6 <_dtoa_r+0x91e>
 800559e:	4649      	mov	r1, r9
 80055a0:	4620      	mov	r0, r4
 80055a2:	f000 f97e 	bl	80058a2 <_Bfree>
 80055a6:	4631      	mov	r1, r6
 80055a8:	4620      	mov	r0, r4
 80055aa:	f000 f97a 	bl	80058a2 <_Bfree>
 80055ae:	e6a8      	b.n	8005302 <_dtoa_r+0x67a>
 80055b0:	2700      	movs	r7, #0
 80055b2:	463e      	mov	r6, r7
 80055b4:	e7e1      	b.n	800557a <_dtoa_r+0x8f2>
 80055b6:	f8dd a020 	ldr.w	sl, [sp, #32]
 80055ba:	463e      	mov	r6, r7
 80055bc:	e5a9      	b.n	8005112 <_dtoa_r+0x48a>
 80055be:	bf00      	nop
 80055c0:	40240000 	.word	0x40240000
 80055c4:	9b0a      	ldr	r3, [sp, #40]	; 0x28
 80055c6:	f8cd 9008 	str.w	r9, [sp, #8]
 80055ca:	2b00      	cmp	r3, #0
 80055cc:	f000 80fa 	beq.w	80057c4 <_dtoa_r+0xb3c>
 80055d0:	2d00      	cmp	r5, #0
 80055d2:	dd05      	ble.n	80055e0 <_dtoa_r+0x958>
 80055d4:	4631      	mov	r1, r6
 80055d6:	462a      	mov	r2, r5
 80055d8:	4620      	mov	r0, r4
 80055da:	f000 faef 	bl	8005bbc <__lshift>
 80055de:	4606      	mov	r6, r0
 80055e0:	9b07      	ldr	r3, [sp, #28]
 80055e2:	2b00      	cmp	r3, #0
 80055e4:	d04c      	beq.n	8005680 <_dtoa_r+0x9f8>
 80055e6:	6871      	ldr	r1, [r6, #4]
 80055e8:	4620      	mov	r0, r4
 80055ea:	f000 f926 	bl	800583a <_Balloc>
 80055ee:	6932      	ldr	r2, [r6, #16]
 80055f0:	3202      	adds	r2, #2
 80055f2:	4605      	mov	r5, r0
 80055f4:	0092      	lsls	r2, r2, #2
 80055f6:	f106 010c 	add.w	r1, r6, #12
 80055fa:	300c      	adds	r0, #12
 80055fc:	f000 f912 	bl	8005824 <memcpy>
 8005600:	2201      	movs	r2, #1
 8005602:	4629      	mov	r1, r5
 8005604:	4620      	mov	r0, r4
 8005606:	f000 fad9 	bl	8005bbc <__lshift>
 800560a:	9b00      	ldr	r3, [sp, #0]
 800560c:	f8cd b014 	str.w	fp, [sp, #20]
 8005610:	f003 0301 	and.w	r3, r3, #1
 8005614:	46b1      	mov	r9, r6
 8005616:	9307      	str	r3, [sp, #28]
 8005618:	4606      	mov	r6, r0
 800561a:	4639      	mov	r1, r7
 800561c:	9804      	ldr	r0, [sp, #16]
 800561e:	f7ff faa5 	bl	8004b6c <quorem>
 8005622:	4649      	mov	r1, r9
 8005624:	4605      	mov	r5, r0
 8005626:	f100 0830 	add.w	r8, r0, #48	; 0x30
 800562a:	9804      	ldr	r0, [sp, #16]
 800562c:	f000 fb1a 	bl	8005c64 <__mcmp>
 8005630:	4632      	mov	r2, r6
 8005632:	9000      	str	r0, [sp, #0]
 8005634:	4639      	mov	r1, r7
 8005636:	4620      	mov	r0, r4
 8005638:	f000 fb2e 	bl	8005c98 <__mdiff>
 800563c:	68c3      	ldr	r3, [r0, #12]
 800563e:	4602      	mov	r2, r0
 8005640:	bb03      	cbnz	r3, 8005684 <_dtoa_r+0x9fc>
 8005642:	4601      	mov	r1, r0
 8005644:	9008      	str	r0, [sp, #32]
 8005646:	9804      	ldr	r0, [sp, #16]
 8005648:	f000 fb0c 	bl	8005c64 <__mcmp>
 800564c:	9a08      	ldr	r2, [sp, #32]
 800564e:	4603      	mov	r3, r0
 8005650:	4611      	mov	r1, r2
 8005652:	4620      	mov	r0, r4
 8005654:	9308      	str	r3, [sp, #32]
 8005656:	f000 f924 	bl	80058a2 <_Bfree>
 800565a:	9b08      	ldr	r3, [sp, #32]
 800565c:	b9a3      	cbnz	r3, 8005688 <_dtoa_r+0xa00>
 800565e:	9a06      	ldr	r2, [sp, #24]
 8005660:	b992      	cbnz	r2, 8005688 <_dtoa_r+0xa00>
 8005662:	9a07      	ldr	r2, [sp, #28]
 8005664:	b982      	cbnz	r2, 8005688 <_dtoa_r+0xa00>
 8005666:	f1b8 0f39 	cmp.w	r8, #57	; 0x39
 800566a:	d029      	beq.n	80056c0 <_dtoa_r+0xa38>
 800566c:	9b00      	ldr	r3, [sp, #0]
 800566e:	2b00      	cmp	r3, #0
 8005670:	dd01      	ble.n	8005676 <_dtoa_r+0x9ee>
 8005672:	f105 0831 	add.w	r8, r5, #49	; 0x31
 8005676:	9b05      	ldr	r3, [sp, #20]
 8005678:	1c5d      	adds	r5, r3, #1
 800567a:	f883 8000 	strb.w	r8, [r3]
 800567e:	e782      	b.n	8005586 <_dtoa_r+0x8fe>
 8005680:	4630      	mov	r0, r6
 8005682:	e7c2      	b.n	800560a <_dtoa_r+0x982>
 8005684:	2301      	movs	r3, #1
 8005686:	e7e3      	b.n	8005650 <_dtoa_r+0x9c8>
 8005688:	9a00      	ldr	r2, [sp, #0]
 800568a:	2a00      	cmp	r2, #0
 800568c:	db04      	blt.n	8005698 <_dtoa_r+0xa10>
 800568e:	d125      	bne.n	80056dc <_dtoa_r+0xa54>
 8005690:	9a06      	ldr	r2, [sp, #24]
 8005692:	bb1a      	cbnz	r2, 80056dc <_dtoa_r+0xa54>
 8005694:	9a07      	ldr	r2, [sp, #28]
 8005696:	bb0a      	cbnz	r2, 80056dc <_dtoa_r+0xa54>
 8005698:	2b00      	cmp	r3, #0
 800569a:	ddec      	ble.n	8005676 <_dtoa_r+0x9ee>
 800569c:	2201      	movs	r2, #1
 800569e:	9904      	ldr	r1, [sp, #16]
 80056a0:	4620      	mov	r0, r4
 80056a2:	f000 fa8b 	bl	8005bbc <__lshift>
 80056a6:	4639      	mov	r1, r7
 80056a8:	9004      	str	r0, [sp, #16]
 80056aa:	f000 fadb 	bl	8005c64 <__mcmp>
 80056ae:	2800      	cmp	r0, #0
 80056b0:	dc03      	bgt.n	80056ba <_dtoa_r+0xa32>
 80056b2:	d1e0      	bne.n	8005676 <_dtoa_r+0x9ee>
 80056b4:	f018 0f01 	tst.w	r8, #1
 80056b8:	d0dd      	beq.n	8005676 <_dtoa_r+0x9ee>
 80056ba:	f1b8 0f39 	cmp.w	r8, #57	; 0x39
 80056be:	d1d8      	bne.n	8005672 <_dtoa_r+0x9ea>
 80056c0:	9b05      	ldr	r3, [sp, #20]
 80056c2:	9a05      	ldr	r2, [sp, #20]
 80056c4:	1c5d      	adds	r5, r3, #1
 80056c6:	2339      	movs	r3, #57	; 0x39
 80056c8:	7013      	strb	r3, [r2, #0]
 80056ca:	f815 3c01 	ldrb.w	r3, [r5, #-1]
 80056ce:	2b39      	cmp	r3, #57	; 0x39
 80056d0:	f105 32ff 	add.w	r2, r5, #4294967295
 80056d4:	d04f      	beq.n	8005776 <_dtoa_r+0xaee>
 80056d6:	3301      	adds	r3, #1
 80056d8:	7013      	strb	r3, [r2, #0]
 80056da:	e754      	b.n	8005586 <_dtoa_r+0x8fe>
 80056dc:	9a05      	ldr	r2, [sp, #20]
 80056de:	2b00      	cmp	r3, #0
 80056e0:	f102 0501 	add.w	r5, r2, #1
 80056e4:	dd06      	ble.n	80056f4 <_dtoa_r+0xa6c>
 80056e6:	f1b8 0f39 	cmp.w	r8, #57	; 0x39
 80056ea:	d0e9      	beq.n	80056c0 <_dtoa_r+0xa38>
 80056ec:	f108 0801 	add.w	r8, r8, #1
 80056f0:	9b05      	ldr	r3, [sp, #20]
 80056f2:	e7c2      	b.n	800567a <_dtoa_r+0x9f2>
 80056f4:	9a02      	ldr	r2, [sp, #8]
 80056f6:	f805 8c01 	strb.w	r8, [r5, #-1]
 80056fa:	eba5 030b 	sub.w	r3, r5, fp
 80056fe:	4293      	cmp	r3, r2
 8005700:	d021      	beq.n	8005746 <_dtoa_r+0xabe>
 8005702:	2300      	movs	r3, #0
 8005704:	220a      	movs	r2, #10
 8005706:	9904      	ldr	r1, [sp, #16]
 8005708:	4620      	mov	r0, r4
 800570a:	f000 f8e1 	bl	80058d0 <__multadd>
 800570e:	45b1      	cmp	r9, r6
 8005710:	9004      	str	r0, [sp, #16]
 8005712:	f04f 0300 	mov.w	r3, #0
 8005716:	f04f 020a 	mov.w	r2, #10
 800571a:	4649      	mov	r1, r9
 800571c:	4620      	mov	r0, r4
 800571e:	d105      	bne.n	800572c <_dtoa_r+0xaa4>
 8005720:	f000 f8d6 	bl	80058d0 <__multadd>
 8005724:	4681      	mov	r9, r0
 8005726:	4606      	mov	r6, r0
 8005728:	9505      	str	r5, [sp, #20]
 800572a:	e776      	b.n	800561a <_dtoa_r+0x992>
 800572c:	f000 f8d0 	bl	80058d0 <__multadd>
 8005730:	4631      	mov	r1, r6
 8005732:	4681      	mov	r9, r0
 8005734:	2300      	movs	r3, #0
 8005736:	220a      	movs	r2, #10
 8005738:	4620      	mov	r0, r4
 800573a:	f000 f8c9 	bl	80058d0 <__multadd>
 800573e:	4606      	mov	r6, r0
 8005740:	e7f2      	b.n	8005728 <_dtoa_r+0xaa0>
 8005742:	f04f 0900 	mov.w	r9, #0
 8005746:	2201      	movs	r2, #1
 8005748:	9904      	ldr	r1, [sp, #16]
 800574a:	4620      	mov	r0, r4
 800574c:	f000 fa36 	bl	8005bbc <__lshift>
 8005750:	4639      	mov	r1, r7
 8005752:	9004      	str	r0, [sp, #16]
 8005754:	f000 fa86 	bl	8005c64 <__mcmp>
 8005758:	2800      	cmp	r0, #0
 800575a:	dcb6      	bgt.n	80056ca <_dtoa_r+0xa42>
 800575c:	d102      	bne.n	8005764 <_dtoa_r+0xadc>
 800575e:	f018 0f01 	tst.w	r8, #1
 8005762:	d1b2      	bne.n	80056ca <_dtoa_r+0xa42>
 8005764:	f815 3c01 	ldrb.w	r3, [r5, #-1]
 8005768:	2b30      	cmp	r3, #48	; 0x30
 800576a:	f105 32ff 	add.w	r2, r5, #4294967295
 800576e:	f47f af0a 	bne.w	8005586 <_dtoa_r+0x8fe>
 8005772:	4615      	mov	r5, r2
 8005774:	e7f6      	b.n	8005764 <_dtoa_r+0xadc>
 8005776:	4593      	cmp	fp, r2
 8005778:	d105      	bne.n	8005786 <_dtoa_r+0xafe>
 800577a:	2331      	movs	r3, #49	; 0x31
 800577c:	f10a 0a01 	add.w	sl, sl, #1
 8005780:	f88b 3000 	strb.w	r3, [fp]
 8005784:	e6ff      	b.n	8005586 <_dtoa_r+0x8fe>
 8005786:	4615      	mov	r5, r2
 8005788:	e79f      	b.n	80056ca <_dtoa_r+0xa42>
 800578a:	f8df b064 	ldr.w	fp, [pc, #100]	; 80057f0 <_dtoa_r+0xb68>
 800578e:	e007      	b.n	80057a0 <_dtoa_r+0xb18>
 8005790:	9b21      	ldr	r3, [sp, #132]	; 0x84
 8005792:	f8df b060 	ldr.w	fp, [pc, #96]	; 80057f4 <_dtoa_r+0xb6c>
 8005796:	b11b      	cbz	r3, 80057a0 <_dtoa_r+0xb18>
 8005798:	f10b 0308 	add.w	r3, fp, #8
 800579c:	9a21      	ldr	r2, [sp, #132]	; 0x84
 800579e:	6013      	str	r3, [r2, #0]
 80057a0:	4658      	mov	r0, fp
 80057a2:	b017      	add	sp, #92	; 0x5c
 80057a4:	e8bd 8ff0 	ldmia.w	sp!, {r4, r5, r6, r7, r8, r9, sl, fp, pc}
 80057a8:	9b06      	ldr	r3, [sp, #24]
 80057aa:	2b01      	cmp	r3, #1
 80057ac:	f77f ae35 	ble.w	800541a <_dtoa_r+0x792>
 80057b0:	9b0e      	ldr	r3, [sp, #56]	; 0x38
 80057b2:	9307      	str	r3, [sp, #28]
 80057b4:	e649      	b.n	800544a <_dtoa_r+0x7c2>
 80057b6:	9b02      	ldr	r3, [sp, #8]
 80057b8:	2b00      	cmp	r3, #0
 80057ba:	dc03      	bgt.n	80057c4 <_dtoa_r+0xb3c>
 80057bc:	9b06      	ldr	r3, [sp, #24]
 80057be:	2b02      	cmp	r3, #2
 80057c0:	f73f aecc 	bgt.w	800555c <_dtoa_r+0x8d4>
 80057c4:	465d      	mov	r5, fp
 80057c6:	4639      	mov	r1, r7
 80057c8:	9804      	ldr	r0, [sp, #16]
 80057ca:	f7ff f9cf 	bl	8004b6c <quorem>
 80057ce:	f100 0830 	add.w	r8, r0, #48	; 0x30
 80057d2:	f805 8b01 	strb.w	r8, [r5], #1
 80057d6:	9a02      	ldr	r2, [sp, #8]
 80057d8:	eba5 030b 	sub.w	r3, r5, fp
 80057dc:	429a      	cmp	r2, r3
 80057de:	ddb0      	ble.n	8005742 <_dtoa_r+0xaba>
 80057e0:	2300      	movs	r3, #0
 80057e2:	220a      	movs	r2, #10
 80057e4:	9904      	ldr	r1, [sp, #16]
 80057e6:	4620      	mov	r0, r4
 80057e8:	f000 f872 	bl	80058d0 <__multadd>
 80057ec:	9004      	str	r0, [sp, #16]
 80057ee:	e7ea      	b.n	80057c6 <_dtoa_r+0xb3e>
 80057f0:	0800633c 	.word	0x0800633c
 80057f4:	08006360 	.word	0x08006360

080057f8 <_localeconv_r>:
 80057f8:	4b04      	ldr	r3, [pc, #16]	; (800580c <_localeconv_r+0x14>)
 80057fa:	681b      	ldr	r3, [r3, #0]
 80057fc:	6a18      	ldr	r0, [r3, #32]
 80057fe:	4b04      	ldr	r3, [pc, #16]	; (8005810 <_localeconv_r+0x18>)
 8005800:	2800      	cmp	r0, #0
 8005802:	bf08      	it	eq
 8005804:	4618      	moveq	r0, r3
 8005806:	30f0      	adds	r0, #240	; 0xf0
 8005808:	4770      	bx	lr
 800580a:	bf00      	nop
 800580c:	2000000c 	.word	0x2000000c
 8005810:	20000070 	.word	0x20000070

08005814 <malloc>:
 8005814:	4b02      	ldr	r3, [pc, #8]	; (8005820 <malloc+0xc>)
 8005816:	4601      	mov	r1, r0
 8005818:	6818      	ldr	r0, [r3, #0]
 800581a:	f000 bb45 	b.w	8005ea8 <_malloc_r>
 800581e:	bf00      	nop
 8005820:	2000000c 	.word	0x2000000c

08005824 <memcpy>:
 8005824:	b510      	push	{r4, lr}
 8005826:	1e43      	subs	r3, r0, #1
 8005828:	440a      	add	r2, r1
 800582a:	4291      	cmp	r1, r2
 800582c:	d100      	bne.n	8005830 <memcpy+0xc>
 800582e:	bd10      	pop	{r4, pc}
 8005830:	f811 4b01 	ldrb.w	r4, [r1], #1
 8005834:	f803 4f01 	strb.w	r4, [r3, #1]!
 8005838:	e7f7      	b.n	800582a <memcpy+0x6>

0800583a <_Balloc>:
 800583a:	b570      	push	{r4, r5, r6, lr}
 800583c:	6a45      	ldr	r5, [r0, #36]	; 0x24
 800583e:	4604      	mov	r4, r0
 8005840:	460e      	mov	r6, r1
 8005842:	b93d      	cbnz	r5, 8005854 <_Balloc+0x1a>
 8005844:	2010      	movs	r0, #16
 8005846:	f7ff ffe5 	bl	8005814 <malloc>
 800584a:	6260      	str	r0, [r4, #36]	; 0x24
 800584c:	e9c0 5501 	strd	r5, r5, [r0, #4]
 8005850:	6005      	str	r5, [r0, #0]
 8005852:	60c5      	str	r5, [r0, #12]
 8005854:	6a65      	ldr	r5, [r4, #36]	; 0x24
 8005856:	68eb      	ldr	r3, [r5, #12]
 8005858:	b183      	cbz	r3, 800587c <_Balloc+0x42>
 800585a:	6a63      	ldr	r3, [r4, #36]	; 0x24
 800585c:	68db      	ldr	r3, [r3, #12]
 800585e:	f853 0026 	ldr.w	r0, [r3, r6, lsl #2]
 8005862:	b9b8      	cbnz	r0, 8005894 <_Balloc+0x5a>
 8005864:	2101      	movs	r1, #1
 8005866:	fa01 f506 	lsl.w	r5, r1, r6
 800586a:	1d6a      	adds	r2, r5, #5
 800586c:	0092      	lsls	r2, r2, #2
 800586e:	4620      	mov	r0, r4
 8005870:	f000 fabe 	bl	8005df0 <_calloc_r>
 8005874:	b160      	cbz	r0, 8005890 <_Balloc+0x56>
 8005876:	e9c0 6501 	strd	r6, r5, [r0, #4]
 800587a:	e00e      	b.n	800589a <_Balloc+0x60>
 800587c:	2221      	movs	r2, #33	; 0x21
 800587e:	2104      	movs	r1, #4
 8005880:	4620      	mov	r0, r4
 8005882:	f000 fab5 	bl	8005df0 <_calloc_r>
 8005886:	6a63      	ldr	r3, [r4, #36]	; 0x24
 8005888:	60e8      	str	r0, [r5, #12]
 800588a:	68db      	ldr	r3, [r3, #12]
 800588c:	2b00      	cmp	r3, #0
 800588e:	d1e4      	bne.n	800585a <_Balloc+0x20>
 8005890:	2000      	movs	r0, #0
 8005892:	bd70      	pop	{r4, r5, r6, pc}
 8005894:	6802      	ldr	r2, [r0, #0]
 8005896:	f843 2026 	str.w	r2, [r3, r6, lsl #2]
 800589a:	2300      	movs	r3, #0
 800589c:	e9c0 3303 	strd	r3, r3, [r0, #12]
 80058a0:	e7f7      	b.n	8005892 <_Balloc+0x58>

080058a2 <_Bfree>:
 80058a2:	b570      	push	{r4, r5, r6, lr}
 80058a4:	6a44      	ldr	r4, [r0, #36]	; 0x24
 80058a6:	4606      	mov	r6, r0
 80058a8:	460d      	mov	r5, r1
 80058aa:	b93c      	cbnz	r4, 80058bc <_Bfree+0x1a>
 80058ac:	2010      	movs	r0, #16
 80058ae:	f7ff ffb1 	bl	8005814 <malloc>
 80058b2:	6270      	str	r0, [r6, #36]	; 0x24
 80058b4:	e9c0 4401 	strd	r4, r4, [r0, #4]
 80058b8:	6004      	str	r4, [r0, #0]
 80058ba:	60c4      	str	r4, [r0, #12]
 80058bc:	b13d      	cbz	r5, 80058ce <_Bfree+0x2c>
 80058be:	6a73      	ldr	r3, [r6, #36]	; 0x24
 80058c0:	686a      	ldr	r2, [r5, #4]
 80058c2:	68db      	ldr	r3, [r3, #12]
 80058c4:	f853 1022 	ldr.w	r1, [r3, r2, lsl #2]
 80058c8:	6029      	str	r1, [r5, #0]
 80058ca:	f843 5022 	str.w	r5, [r3, r2, lsl #2]
 80058ce:	bd70      	pop	{r4, r5, r6, pc}

080058d0 <__multadd>:
 80058d0:	e92d 41f0 	stmdb	sp!, {r4, r5, r6, r7, r8, lr}
 80058d4:	690d      	ldr	r5, [r1, #16]
 80058d6:	461f      	mov	r7, r3
 80058d8:	4606      	mov	r6, r0
 80058da:	460c      	mov	r4, r1
 80058dc:	f101 0c14 	add.w	ip, r1, #20
 80058e0:	2300      	movs	r3, #0
 80058e2:	f8dc 0000 	ldr.w	r0, [ip]
 80058e6:	b281      	uxth	r1, r0
 80058e8:	fb02 7101 	mla	r1, r2, r1, r7
 80058ec:	0c0f      	lsrs	r7, r1, #16
 80058ee:	0c00      	lsrs	r0, r0, #16
 80058f0:	fb02 7000 	mla	r0, r2, r0, r7
 80058f4:	b289      	uxth	r1, r1
 80058f6:	3301      	adds	r3, #1
 80058f8:	eb01 4100 	add.w	r1, r1, r0, lsl #16
 80058fc:	429d      	cmp	r5, r3
 80058fe:	ea4f 4710 	mov.w	r7, r0, lsr #16
 8005902:	f84c 1b04 	str.w	r1, [ip], #4
 8005906:	dcec      	bgt.n	80058e2 <__multadd+0x12>
 8005908:	b1d7      	cbz	r7, 8005940 <__multadd+0x70>
 800590a:	68a3      	ldr	r3, [r4, #8]
 800590c:	42ab      	cmp	r3, r5
 800590e:	dc12      	bgt.n	8005936 <__multadd+0x66>
 8005910:	6861      	ldr	r1, [r4, #4]
 8005912:	4630      	mov	r0, r6
 8005914:	3101      	adds	r1, #1
 8005916:	f7ff ff90 	bl	800583a <_Balloc>
 800591a:	6922      	ldr	r2, [r4, #16]
 800591c:	3202      	adds	r2, #2
 800591e:	f104 010c 	add.w	r1, r4, #12
 8005922:	4680      	mov	r8, r0
 8005924:	0092      	lsls	r2, r2, #2
 8005926:	300c      	adds	r0, #12
 8005928:	f7ff ff7c 	bl	8005824 <memcpy>
 800592c:	4621      	mov	r1, r4
 800592e:	4630      	mov	r0, r6
 8005930:	f7ff ffb7 	bl	80058a2 <_Bfree>
 8005934:	4644      	mov	r4, r8
 8005936:	eb04 0385 	add.w	r3, r4, r5, lsl #2
 800593a:	3501      	adds	r5, #1
 800593c:	615f      	str	r7, [r3, #20]
 800593e:	6125      	str	r5, [r4, #16]
 8005940:	4620      	mov	r0, r4
 8005942:	e8bd 81f0 	ldmia.w	sp!, {r4, r5, r6, r7, r8, pc}

08005946 <__hi0bits>:
 8005946:	0c02      	lsrs	r2, r0, #16
 8005948:	0412      	lsls	r2, r2, #16
 800594a:	4603      	mov	r3, r0
 800594c:	b9b2      	cbnz	r2, 800597c <__hi0bits+0x36>
 800594e:	0403      	lsls	r3, r0, #16
 8005950:	2010      	movs	r0, #16
 8005952:	f013 4f7f 	tst.w	r3, #4278190080	; 0xff000000
 8005956:	bf04      	itt	eq
 8005958:	021b      	lsleq	r3, r3, #8
 800595a:	3008      	addeq	r0, #8
 800595c:	f013 4f70 	tst.w	r3, #4026531840	; 0xf0000000
 8005960:	bf04      	itt	eq
 8005962:	011b      	lsleq	r3, r3, #4
 8005964:	3004      	addeq	r0, #4
 8005966:	f013 4f40 	tst.w	r3, #3221225472	; 0xc0000000
 800596a:	bf04      	itt	eq
 800596c:	009b      	lsleq	r3, r3, #2
 800596e:	3002      	addeq	r0, #2
 8005970:	2b00      	cmp	r3, #0
 8005972:	db06      	blt.n	8005982 <__hi0bits+0x3c>
 8005974:	005b      	lsls	r3, r3, #1
 8005976:	d503      	bpl.n	8005980 <__hi0bits+0x3a>
 8005978:	3001      	adds	r0, #1
 800597a:	4770      	bx	lr
 800597c:	2000      	movs	r0, #0
 800597e:	e7e8      	b.n	8005952 <__hi0bits+0xc>
 8005980:	2020      	movs	r0, #32
 8005982:	4770      	bx	lr

08005984 <__lo0bits>:
 8005984:	6803      	ldr	r3, [r0, #0]
 8005986:	f013 0207 	ands.w	r2, r3, #7
 800598a:	4601      	mov	r1, r0
 800598c:	d00b      	beq.n	80059a6 <__lo0bits+0x22>
 800598e:	07da      	lsls	r2, r3, #31
 8005990:	d423      	bmi.n	80059da <__lo0bits+0x56>
 8005992:	0798      	lsls	r0, r3, #30
 8005994:	bf49      	itett	mi
 8005996:	085b      	lsrmi	r3, r3, #1
 8005998:	089b      	lsrpl	r3, r3, #2
 800599a:	2001      	movmi	r0, #1
 800599c:	600b      	strmi	r3, [r1, #0]
 800599e:	bf5c      	itt	pl
 80059a0:	600b      	strpl	r3, [r1, #0]
 80059a2:	2002      	movpl	r0, #2
 80059a4:	4770      	bx	lr
 80059a6:	b298      	uxth	r0, r3
 80059a8:	b9a8      	cbnz	r0, 80059d6 <__lo0bits+0x52>
 80059aa:	0c1b      	lsrs	r3, r3, #16
 80059ac:	2010      	movs	r0, #16
 80059ae:	f013 0fff 	tst.w	r3, #255	; 0xff
 80059b2:	bf04      	itt	eq
 80059b4:	0a1b      	lsreq	r3, r3, #8
 80059b6:	3008      	addeq	r0, #8
 80059b8:	071a      	lsls	r2, r3, #28
 80059ba:	bf04      	itt	eq
 80059bc:	091b      	lsreq	r3, r3, #4
 80059be:	3004      	addeq	r0, #4
 80059c0:	079a      	lsls	r2, r3, #30
 80059c2:	bf04      	itt	eq
 80059c4:	089b      	lsreq	r3, r3, #2
 80059c6:	3002      	addeq	r0, #2
 80059c8:	07da      	lsls	r2, r3, #31
 80059ca:	d402      	bmi.n	80059d2 <__lo0bits+0x4e>
 80059cc:	085b      	lsrs	r3, r3, #1
 80059ce:	d006      	beq.n	80059de <__lo0bits+0x5a>
 80059d0:	3001      	adds	r0, #1
 80059d2:	600b      	str	r3, [r1, #0]
 80059d4:	4770      	bx	lr
 80059d6:	4610      	mov	r0, r2
 80059d8:	e7e9      	b.n	80059ae <__lo0bits+0x2a>
 80059da:	2000      	movs	r0, #0
 80059dc:	4770      	bx	lr
 80059de:	2020      	movs	r0, #32
 80059e0:	4770      	bx	lr

080059e2 <__i2b>:
 80059e2:	b510      	push	{r4, lr}
 80059e4:	460c      	mov	r4, r1
 80059e6:	2101      	movs	r1, #1
 80059e8:	f7ff ff27 	bl	800583a <_Balloc>
 80059ec:	2201      	movs	r2, #1
 80059ee:	6144      	str	r4, [r0, #20]
 80059f0:	6102      	str	r2, [r0, #16]
 80059f2:	bd10      	pop	{r4, pc}

080059f4 <__multiply>:
 80059f4:	e92d 4ff7 	stmdb	sp!, {r0, r1, r2, r4, r5, r6, r7, r8, r9, sl, fp, lr}
 80059f8:	4614      	mov	r4, r2
 80059fa:	690a      	ldr	r2, [r1, #16]
 80059fc:	6923      	ldr	r3, [r4, #16]
 80059fe:	429a      	cmp	r2, r3
 8005a00:	bfb8      	it	lt
 8005a02:	460b      	movlt	r3, r1
 8005a04:	4688      	mov	r8, r1
 8005a06:	bfbc      	itt	lt
 8005a08:	46a0      	movlt	r8, r4
 8005a0a:	461c      	movlt	r4, r3
 8005a0c:	f8d8 7010 	ldr.w	r7, [r8, #16]
 8005a10:	f8d4 9010 	ldr.w	r9, [r4, #16]
 8005a14:	f8d8 3008 	ldr.w	r3, [r8, #8]
 8005a18:	f8d8 1004 	ldr.w	r1, [r8, #4]
 8005a1c:	eb07 0609 	add.w	r6, r7, r9
 8005a20:	42b3      	cmp	r3, r6
 8005a22:	bfb8      	it	lt
 8005a24:	3101      	addlt	r1, #1
 8005a26:	f7ff ff08 	bl	800583a <_Balloc>
 8005a2a:	f100 0514 	add.w	r5, r0, #20
 8005a2e:	eb05 0e86 	add.w	lr, r5, r6, lsl #2
 8005a32:	462b      	mov	r3, r5
 8005a34:	2200      	movs	r2, #0
 8005a36:	4573      	cmp	r3, lr
 8005a38:	d316      	bcc.n	8005a68 <__multiply+0x74>
 8005a3a:	f104 0214 	add.w	r2, r4, #20
 8005a3e:	f108 0114 	add.w	r1, r8, #20
 8005a42:	eb02 0389 	add.w	r3, r2, r9, lsl #2
 8005a46:	eb01 0787 	add.w	r7, r1, r7, lsl #2
 8005a4a:	9300      	str	r3, [sp, #0]
 8005a4c:	9b00      	ldr	r3, [sp, #0]
 8005a4e:	9201      	str	r2, [sp, #4]
 8005a50:	4293      	cmp	r3, r2
 8005a52:	d80c      	bhi.n	8005a6e <__multiply+0x7a>
 8005a54:	2e00      	cmp	r6, #0
 8005a56:	dd03      	ble.n	8005a60 <__multiply+0x6c>
 8005a58:	f85e 3d04 	ldr.w	r3, [lr, #-4]!
 8005a5c:	2b00      	cmp	r3, #0
 8005a5e:	d05d      	beq.n	8005b1c <__multiply+0x128>
 8005a60:	6106      	str	r6, [r0, #16]
 8005a62:	b003      	add	sp, #12
 8005a64:	e8bd 8ff0 	ldmia.w	sp!, {r4, r5, r6, r7, r8, r9, sl, fp, pc}
 8005a68:	f843 2b04 	str.w	r2, [r3], #4
 8005a6c:	e7e3      	b.n	8005a36 <__multiply+0x42>
 8005a6e:	f8b2 b000 	ldrh.w	fp, [r2]
 8005a72:	f1bb 0f00 	cmp.w	fp, #0
 8005a76:	d023      	beq.n	8005ac0 <__multiply+0xcc>
 8005a78:	4689      	mov	r9, r1
 8005a7a:	46ac      	mov	ip, r5
 8005a7c:	f04f 0800 	mov.w	r8, #0
 8005a80:	f859 4b04 	ldr.w	r4, [r9], #4
 8005a84:	f8dc a000 	ldr.w	sl, [ip]
 8005a88:	b2a3      	uxth	r3, r4
 8005a8a:	fa1f fa8a 	uxth.w	sl, sl
 8005a8e:	fb0b a303 	mla	r3, fp, r3, sl
 8005a92:	ea4f 4a14 	mov.w	sl, r4, lsr #16
 8005a96:	f8dc 4000 	ldr.w	r4, [ip]
 8005a9a:	4443      	add	r3, r8
 8005a9c:	ea4f 4814 	mov.w	r8, r4, lsr #16
 8005aa0:	fb0b 840a 	mla	r4, fp, sl, r8
 8005aa4:	eb04 4413 	add.w	r4, r4, r3, lsr #16
 8005aa8:	46e2      	mov	sl, ip
 8005aaa:	b29b      	uxth	r3, r3
 8005aac:	ea43 4304 	orr.w	r3, r3, r4, lsl #16
 8005ab0:	454f      	cmp	r7, r9
 8005ab2:	ea4f 4814 	mov.w	r8, r4, lsr #16
 8005ab6:	f84a 3b04 	str.w	r3, [sl], #4
 8005aba:	d82b      	bhi.n	8005b14 <__multiply+0x120>
 8005abc:	f8cc 8004 	str.w	r8, [ip, #4]
 8005ac0:	9b01      	ldr	r3, [sp, #4]
 8005ac2:	f8b3 a002 	ldrh.w	sl, [r3, #2]
 8005ac6:	3204      	adds	r2, #4
 8005ac8:	f1ba 0f00 	cmp.w	sl, #0
 8005acc:	d020      	beq.n	8005b10 <__multiply+0x11c>
 8005ace:	682b      	ldr	r3, [r5, #0]
 8005ad0:	4689      	mov	r9, r1
 8005ad2:	46a8      	mov	r8, r5
 8005ad4:	f04f 0b00 	mov.w	fp, #0
 8005ad8:	f8b9 c000 	ldrh.w	ip, [r9]
 8005adc:	f8b8 4002 	ldrh.w	r4, [r8, #2]
 8005ae0:	fb0a 440c 	mla	r4, sl, ip, r4
 8005ae4:	445c      	add	r4, fp
 8005ae6:	46c4      	mov	ip, r8
 8005ae8:	b29b      	uxth	r3, r3
 8005aea:	ea43 4304 	orr.w	r3, r3, r4, lsl #16
 8005aee:	f84c 3b04 	str.w	r3, [ip], #4
 8005af2:	f859 3b04 	ldr.w	r3, [r9], #4
 8005af6:	f8b8 b004 	ldrh.w	fp, [r8, #4]
 8005afa:	0c1b      	lsrs	r3, r3, #16
 8005afc:	fb0a b303 	mla	r3, sl, r3, fp
 8005b00:	eb03 4314 	add.w	r3, r3, r4, lsr #16
 8005b04:	454f      	cmp	r7, r9
 8005b06:	ea4f 4b13 	mov.w	fp, r3, lsr #16
 8005b0a:	d805      	bhi.n	8005b18 <__multiply+0x124>
 8005b0c:	f8c8 3004 	str.w	r3, [r8, #4]
 8005b10:	3504      	adds	r5, #4
 8005b12:	e79b      	b.n	8005a4c <__multiply+0x58>
 8005b14:	46d4      	mov	ip, sl
 8005b16:	e7b3      	b.n	8005a80 <__multiply+0x8c>
 8005b18:	46e0      	mov	r8, ip
 8005b1a:	e7dd      	b.n	8005ad8 <__multiply+0xe4>
 8005b1c:	3e01      	subs	r6, #1
 8005b1e:	e799      	b.n	8005a54 <__multiply+0x60>

08005b20 <__pow5mult>:
 8005b20:	e92d 43f8 	stmdb	sp!, {r3, r4, r5, r6, r7, r8, r9, lr}
 8005b24:	4615      	mov	r5, r2
 8005b26:	f012 0203 	ands.w	r2, r2, #3
 8005b2a:	4606      	mov	r6, r0
 8005b2c:	460f      	mov	r7, r1
 8005b2e:	d007      	beq.n	8005b40 <__pow5mult+0x20>
 8005b30:	3a01      	subs	r2, #1
 8005b32:	4c21      	ldr	r4, [pc, #132]	; (8005bb8 <__pow5mult+0x98>)
 8005b34:	2300      	movs	r3, #0
 8005b36:	f854 2022 	ldr.w	r2, [r4, r2, lsl #2]
 8005b3a:	f7ff fec9 	bl	80058d0 <__multadd>
 8005b3e:	4607      	mov	r7, r0
 8005b40:	10ad      	asrs	r5, r5, #2
 8005b42:	d035      	beq.n	8005bb0 <__pow5mult+0x90>
 8005b44:	6a74      	ldr	r4, [r6, #36]	; 0x24
 8005b46:	b93c      	cbnz	r4, 8005b58 <__pow5mult+0x38>
 8005b48:	2010      	movs	r0, #16
 8005b4a:	f7ff fe63 	bl	8005814 <malloc>
 8005b4e:	6270      	str	r0, [r6, #36]	; 0x24
 8005b50:	e9c0 4401 	strd	r4, r4, [r0, #4]
 8005b54:	6004      	str	r4, [r0, #0]
 8005b56:	60c4      	str	r4, [r0, #12]
 8005b58:	f8d6 8024 	ldr.w	r8, [r6, #36]	; 0x24
 8005b5c:	f8d8 4008 	ldr.w	r4, [r8, #8]
 8005b60:	b94c      	cbnz	r4, 8005b76 <__pow5mult+0x56>
 8005b62:	f240 2171 	movw	r1, #625	; 0x271
 8005b66:	4630      	mov	r0, r6
 8005b68:	f7ff ff3b 	bl	80059e2 <__i2b>
 8005b6c:	2300      	movs	r3, #0
 8005b6e:	f8c8 0008 	str.w	r0, [r8, #8]
 8005b72:	4604      	mov	r4, r0
 8005b74:	6003      	str	r3, [r0, #0]
 8005b76:	f04f 0800 	mov.w	r8, #0
 8005b7a:	07eb      	lsls	r3, r5, #31
 8005b7c:	d50a      	bpl.n	8005b94 <__pow5mult+0x74>
 8005b7e:	4639      	mov	r1, r7
 8005b80:	4622      	mov	r2, r4
 8005b82:	4630      	mov	r0, r6
 8005b84:	f7ff ff36 	bl	80059f4 <__multiply>
 8005b88:	4639      	mov	r1, r7
 8005b8a:	4681      	mov	r9, r0
 8005b8c:	4630      	mov	r0, r6
 8005b8e:	f7ff fe88 	bl	80058a2 <_Bfree>
 8005b92:	464f      	mov	r7, r9
 8005b94:	106d      	asrs	r5, r5, #1
 8005b96:	d00b      	beq.n	8005bb0 <__pow5mult+0x90>
 8005b98:	6820      	ldr	r0, [r4, #0]
 8005b9a:	b938      	cbnz	r0, 8005bac <__pow5mult+0x8c>
 8005b9c:	4622      	mov	r2, r4
 8005b9e:	4621      	mov	r1, r4
 8005ba0:	4630      	mov	r0, r6
 8005ba2:	f7ff ff27 	bl	80059f4 <__multiply>
 8005ba6:	6020      	str	r0, [r4, #0]
 8005ba8:	f8c0 8000 	str.w	r8, [r0]
 8005bac:	4604      	mov	r4, r0
 8005bae:	e7e4      	b.n	8005b7a <__pow5mult+0x5a>
 8005bb0:	4638      	mov	r0, r7
 8005bb2:	e8bd 83f8 	ldmia.w	sp!, {r3, r4, r5, r6, r7, r8, r9, pc}
 8005bb6:	bf00      	nop
 8005bb8:	08006460 	.word	0x08006460

08005bbc <__lshift>:
 8005bbc:	e92d 47f0 	stmdb	sp!, {r4, r5, r6, r7, r8, r9, sl, lr}
 8005bc0:	460c      	mov	r4, r1
 8005bc2:	ea4f 1a62 	mov.w	sl, r2, asr #5
 8005bc6:	6923      	ldr	r3, [r4, #16]
 8005bc8:	6849      	ldr	r1, [r1, #4]
 8005bca:	eb0a 0903 	add.w	r9, sl, r3
 8005bce:	68a3      	ldr	r3, [r4, #8]
 8005bd0:	4607      	mov	r7, r0
 8005bd2:	4616      	mov	r6, r2
 8005bd4:	f109 0501 	add.w	r5, r9, #1
 8005bd8:	42ab      	cmp	r3, r5
 8005bda:	db32      	blt.n	8005c42 <__lshift+0x86>
 8005bdc:	4638      	mov	r0, r7
 8005bde:	f7ff fe2c 	bl	800583a <_Balloc>
 8005be2:	2300      	movs	r3, #0
 8005be4:	4680      	mov	r8, r0
 8005be6:	f100 0114 	add.w	r1, r0, #20
 8005bea:	461a      	mov	r2, r3
 8005bec:	4553      	cmp	r3, sl
 8005bee:	db2b      	blt.n	8005c48 <__lshift+0x8c>
 8005bf0:	6920      	ldr	r0, [r4, #16]
 8005bf2:	ea2a 7aea 	bic.w	sl, sl, sl, asr #31
 8005bf6:	f104 0314 	add.w	r3, r4, #20
 8005bfa:	f016 021f 	ands.w	r2, r6, #31
 8005bfe:	eb01 018a 	add.w	r1, r1, sl, lsl #2
 8005c02:	eb03 0c80 	add.w	ip, r3, r0, lsl #2
 8005c06:	d025      	beq.n	8005c54 <__lshift+0x98>
 8005c08:	f1c2 0e20 	rsb	lr, r2, #32
 8005c0c:	2000      	movs	r0, #0
 8005c0e:	681e      	ldr	r6, [r3, #0]
 8005c10:	468a      	mov	sl, r1
 8005c12:	4096      	lsls	r6, r2
 8005c14:	4330      	orrs	r0, r6
 8005c16:	f84a 0b04 	str.w	r0, [sl], #4
 8005c1a:	f853 0b04 	ldr.w	r0, [r3], #4
 8005c1e:	459c      	cmp	ip, r3
 8005c20:	fa20 f00e 	lsr.w	r0, r0, lr
 8005c24:	d814      	bhi.n	8005c50 <__lshift+0x94>
 8005c26:	6048      	str	r0, [r1, #4]
 8005c28:	b108      	cbz	r0, 8005c2e <__lshift+0x72>
 8005c2a:	f109 0502 	add.w	r5, r9, #2
 8005c2e:	3d01      	subs	r5, #1
 8005c30:	4638      	mov	r0, r7
 8005c32:	f8c8 5010 	str.w	r5, [r8, #16]
 8005c36:	4621      	mov	r1, r4
 8005c38:	f7ff fe33 	bl	80058a2 <_Bfree>
 8005c3c:	4640      	mov	r0, r8
 8005c3e:	e8bd 87f0 	ldmia.w	sp!, {r4, r5, r6, r7, r8, r9, sl, pc}
 8005c42:	3101      	adds	r1, #1
 8005c44:	005b      	lsls	r3, r3, #1
 8005c46:	e7c7      	b.n	8005bd8 <__lshift+0x1c>
 8005c48:	f841 2023 	str.w	r2, [r1, r3, lsl #2]
 8005c4c:	3301      	adds	r3, #1
 8005c4e:	e7cd      	b.n	8005bec <__lshift+0x30>
 8005c50:	4651      	mov	r1, sl
 8005c52:	e7dc      	b.n	8005c0e <__lshift+0x52>
 8005c54:	3904      	subs	r1, #4
 8005c56:	f853 2b04 	ldr.w	r2, [r3], #4
 8005c5a:	f841 2f04 	str.w	r2, [r1, #4]!
 8005c5e:	459c      	cmp	ip, r3
 8005c60:	d8f9      	bhi.n	8005c56 <__lshift+0x9a>
 8005c62:	e7e4      	b.n	8005c2e <__lshift+0x72>

08005c64 <__mcmp>:
 8005c64:	6903      	ldr	r3, [r0, #16]
 8005c66:	690a      	ldr	r2, [r1, #16]
 8005c68:	1a9b      	subs	r3, r3, r2
 8005c6a:	b530      	push	{r4, r5, lr}
 8005c6c:	d10c      	bne.n	8005c88 <__mcmp+0x24>
 8005c6e:	0092      	lsls	r2, r2, #2
 8005c70:	3014      	adds	r0, #20
 8005c72:	3114      	adds	r1, #20
 8005c74:	1884      	adds	r4, r0, r2
 8005c76:	4411      	add	r1, r2
 8005c78:	f854 5d04 	ldr.w	r5, [r4, #-4]!
 8005c7c:	f851 2d04 	ldr.w	r2, [r1, #-4]!
 8005c80:	4295      	cmp	r5, r2
 8005c82:	d003      	beq.n	8005c8c <__mcmp+0x28>
 8005c84:	d305      	bcc.n	8005c92 <__mcmp+0x2e>
 8005c86:	2301      	movs	r3, #1
 8005c88:	4618      	mov	r0, r3
 8005c8a:	bd30      	pop	{r4, r5, pc}
 8005c8c:	42a0      	cmp	r0, r4
 8005c8e:	d3f3      	bcc.n	8005c78 <__mcmp+0x14>
 8005c90:	e7fa      	b.n	8005c88 <__mcmp+0x24>
 8005c92:	f04f 33ff 	mov.w	r3, #4294967295
 8005c96:	e7f7      	b.n	8005c88 <__mcmp+0x24>

08005c98 <__mdiff>:
 8005c98:	e92d 47f0 	stmdb	sp!, {r4, r5, r6, r7, r8, r9, sl, lr}
 8005c9c:	460d      	mov	r5, r1
 8005c9e:	4607      	mov	r7, r0
 8005ca0:	4611      	mov	r1, r2
 8005ca2:	4628      	mov	r0, r5
 8005ca4:	4614      	mov	r4, r2
 8005ca6:	f7ff ffdd 	bl	8005c64 <__mcmp>
 8005caa:	1e06      	subs	r6, r0, #0
 8005cac:	d108      	bne.n	8005cc0 <__mdiff+0x28>
 8005cae:	4631      	mov	r1, r6
 8005cb0:	4638      	mov	r0, r7
 8005cb2:	f7ff fdc2 	bl	800583a <_Balloc>
 8005cb6:	2301      	movs	r3, #1
 8005cb8:	e9c0 3604 	strd	r3, r6, [r0, #16]
 8005cbc:	e8bd 87f0 	ldmia.w	sp!, {r4, r5, r6, r7, r8, r9, sl, pc}
 8005cc0:	bfa4      	itt	ge
 8005cc2:	4623      	movge	r3, r4
 8005cc4:	462c      	movge	r4, r5
 8005cc6:	4638      	mov	r0, r7
 8005cc8:	6861      	ldr	r1, [r4, #4]
 8005cca:	bfa6      	itte	ge
 8005ccc:	461d      	movge	r5, r3
 8005cce:	2600      	movge	r6, #0
 8005cd0:	2601      	movlt	r6, #1
 8005cd2:	f7ff fdb2 	bl	800583a <_Balloc>
 8005cd6:	692b      	ldr	r3, [r5, #16]
 8005cd8:	60c6      	str	r6, [r0, #12]
 8005cda:	6926      	ldr	r6, [r4, #16]
 8005cdc:	f105 0914 	add.w	r9, r5, #20
 8005ce0:	f104 0214 	add.w	r2, r4, #20
 8005ce4:	eb02 0786 	add.w	r7, r2, r6, lsl #2
 8005ce8:	eb09 0883 	add.w	r8, r9, r3, lsl #2
 8005cec:	f100 0514 	add.w	r5, r0, #20
 8005cf0:	f04f 0e00 	mov.w	lr, #0
 8005cf4:	f852 ab04 	ldr.w	sl, [r2], #4
 8005cf8:	f859 4b04 	ldr.w	r4, [r9], #4
 8005cfc:	fa1e f18a 	uxtah	r1, lr, sl
 8005d00:	b2a3      	uxth	r3, r4
 8005d02:	1ac9      	subs	r1, r1, r3
 8005d04:	0c23      	lsrs	r3, r4, #16
 8005d06:	ebc3 431a 	rsb	r3, r3, sl, lsr #16
 8005d0a:	eb03 4321 	add.w	r3, r3, r1, asr #16
 8005d0e:	b289      	uxth	r1, r1
 8005d10:	ea4f 4e23 	mov.w	lr, r3, asr #16
 8005d14:	45c8      	cmp	r8, r9
 8005d16:	ea41 4303 	orr.w	r3, r1, r3, lsl #16
 8005d1a:	4694      	mov	ip, r2
 8005d1c:	f845 3b04 	str.w	r3, [r5], #4
 8005d20:	d8e8      	bhi.n	8005cf4 <__mdiff+0x5c>
 8005d22:	45bc      	cmp	ip, r7
 8005d24:	d304      	bcc.n	8005d30 <__mdiff+0x98>
 8005d26:	f855 3d04 	ldr.w	r3, [r5, #-4]!
 8005d2a:	b183      	cbz	r3, 8005d4e <__mdiff+0xb6>
 8005d2c:	6106      	str	r6, [r0, #16]
 8005d2e:	e7c5      	b.n	8005cbc <__mdiff+0x24>
 8005d30:	f85c 1b04 	ldr.w	r1, [ip], #4
 8005d34:	fa1e f381 	uxtah	r3, lr, r1
 8005d38:	141a      	asrs	r2, r3, #16
 8005d3a:	eb02 4211 	add.w	r2, r2, r1, lsr #16
 8005d3e:	b29b      	uxth	r3, r3
 8005d40:	ea43 4302 	orr.w	r3, r3, r2, lsl #16
 8005d44:	ea4f 4e22 	mov.w	lr, r2, asr #16
 8005d48:	f845 3b04 	str.w	r3, [r5], #4
 8005d4c:	e7e9      	b.n	8005d22 <__mdiff+0x8a>
 8005d4e:	3e01      	subs	r6, #1
 8005d50:	e7e9      	b.n	8005d26 <__mdiff+0x8e>

08005d52 <__d2b>:
 8005d52:	e92d 43f7 	stmdb	sp!, {r0, r1, r2, r4, r5, r6, r7, r8, r9, lr}
 8005d56:	460e      	mov	r6, r1
 8005d58:	2101      	movs	r1, #1
 8005d5a:	ec59 8b10 	vmov	r8, r9, d0
 8005d5e:	4615      	mov	r5, r2
 8005d60:	f7ff fd6b 	bl	800583a <_Balloc>
 8005d64:	f3c9 540a 	ubfx	r4, r9, #20, #11
 8005d68:	4607      	mov	r7, r0
 8005d6a:	f3c9 0313 	ubfx	r3, r9, #0, #20
 8005d6e:	bb34      	cbnz	r4, 8005dbe <__d2b+0x6c>
 8005d70:	9301      	str	r3, [sp, #4]
 8005d72:	f1b8 0300 	subs.w	r3, r8, #0
 8005d76:	d027      	beq.n	8005dc8 <__d2b+0x76>
 8005d78:	a802      	add	r0, sp, #8
 8005d7a:	f840 3d08 	str.w	r3, [r0, #-8]!
 8005d7e:	f7ff fe01 	bl	8005984 <__lo0bits>
 8005d82:	9900      	ldr	r1, [sp, #0]
 8005d84:	b1f0      	cbz	r0, 8005dc4 <__d2b+0x72>
 8005d86:	9a01      	ldr	r2, [sp, #4]
 8005d88:	f1c0 0320 	rsb	r3, r0, #32
 8005d8c:	fa02 f303 	lsl.w	r3, r2, r3
 8005d90:	430b      	orrs	r3, r1
 8005d92:	40c2      	lsrs	r2, r0
 8005d94:	617b      	str	r3, [r7, #20]
 8005d96:	9201      	str	r2, [sp, #4]
 8005d98:	9b01      	ldr	r3, [sp, #4]
 8005d9a:	61bb      	str	r3, [r7, #24]
 8005d9c:	2b00      	cmp	r3, #0
 8005d9e:	bf14      	ite	ne
 8005da0:	2102      	movne	r1, #2
 8005da2:	2101      	moveq	r1, #1
 8005da4:	6139      	str	r1, [r7, #16]
 8005da6:	b1c4      	cbz	r4, 8005dda <__d2b+0x88>
 8005da8:	f2a4 4433 	subw	r4, r4, #1075	; 0x433
 8005dac:	4404      	add	r4, r0
 8005dae:	6034      	str	r4, [r6, #0]
 8005db0:	f1c0 0035 	rsb	r0, r0, #53	; 0x35
 8005db4:	6028      	str	r0, [r5, #0]
 8005db6:	4638      	mov	r0, r7
 8005db8:	b003      	add	sp, #12
 8005dba:	e8bd 83f0 	ldmia.w	sp!, {r4, r5, r6, r7, r8, r9, pc}
 8005dbe:	f443 1380 	orr.w	r3, r3, #1048576	; 0x100000
 8005dc2:	e7d5      	b.n	8005d70 <__d2b+0x1e>
 8005dc4:	6179      	str	r1, [r7, #20]
 8005dc6:	e7e7      	b.n	8005d98 <__d2b+0x46>
 8005dc8:	a801      	add	r0, sp, #4
 8005dca:	f7ff fddb 	bl	8005984 <__lo0bits>
 8005dce:	9b01      	ldr	r3, [sp, #4]
 8005dd0:	617b      	str	r3, [r7, #20]
 8005dd2:	2101      	movs	r1, #1
 8005dd4:	6139      	str	r1, [r7, #16]
 8005dd6:	3020      	adds	r0, #32
 8005dd8:	e7e5      	b.n	8005da6 <__d2b+0x54>
 8005dda:	eb07 0381 	add.w	r3, r7, r1, lsl #2
 8005dde:	f2a0 4032 	subw	r0, r0, #1074	; 0x432
 8005de2:	6030      	str	r0, [r6, #0]
 8005de4:	6918      	ldr	r0, [r3, #16]
 8005de6:	f7ff fdae 	bl	8005946 <__hi0bits>
 8005dea:	ebc0 1041 	rsb	r0, r0, r1, lsl #5
 8005dee:	e7e1      	b.n	8005db4 <__d2b+0x62>

08005df0 <_calloc_r>:
 8005df0:	b538      	push	{r3, r4, r5, lr}
 8005df2:	fb02 f401 	mul.w	r4, r2, r1
 8005df6:	4621      	mov	r1, r4
 8005df8:	f000 f856 	bl	8005ea8 <_malloc_r>
 8005dfc:	4605      	mov	r5, r0
 8005dfe:	b118      	cbz	r0, 8005e08 <_calloc_r+0x18>
 8005e00:	4622      	mov	r2, r4
 8005e02:	2100      	movs	r1, #0
 8005e04:	f7fe fa2e 	bl	8004264 <memset>
 8005e08:	4628      	mov	r0, r5
 8005e0a:	bd38      	pop	{r3, r4, r5, pc}

08005e0c <_free_r>:
 8005e0c:	b538      	push	{r3, r4, r5, lr}
 8005e0e:	4605      	mov	r5, r0
 8005e10:	2900      	cmp	r1, #0
 8005e12:	d045      	beq.n	8005ea0 <_free_r+0x94>
 8005e14:	f851 3c04 	ldr.w	r3, [r1, #-4]
 8005e18:	1f0c      	subs	r4, r1, #4
 8005e1a:	2b00      	cmp	r3, #0
 8005e1c:	bfb8      	it	lt
 8005e1e:	18e4      	addlt	r4, r4, r3
 8005e20:	f000 fa29 	bl	8006276 <__malloc_lock>
 8005e24:	4a1f      	ldr	r2, [pc, #124]	; (8005ea4 <_free_r+0x98>)
 8005e26:	6813      	ldr	r3, [r2, #0]
 8005e28:	4610      	mov	r0, r2
 8005e2a:	b933      	cbnz	r3, 8005e3a <_free_r+0x2e>
 8005e2c:	6063      	str	r3, [r4, #4]
 8005e2e:	6014      	str	r4, [r2, #0]
 8005e30:	4628      	mov	r0, r5
 8005e32:	e8bd 4038 	ldmia.w	sp!, {r3, r4, r5, lr}
 8005e36:	f000 ba1f 	b.w	8006278 <__malloc_unlock>
 8005e3a:	42a3      	cmp	r3, r4
 8005e3c:	d90c      	bls.n	8005e58 <_free_r+0x4c>
 8005e3e:	6821      	ldr	r1, [r4, #0]
 8005e40:	1862      	adds	r2, r4, r1
 8005e42:	4293      	cmp	r3, r2
 8005e44:	bf04      	itt	eq
 8005e46:	681a      	ldreq	r2, [r3, #0]
 8005e48:	685b      	ldreq	r3, [r3, #4]
 8005e4a:	6063      	str	r3, [r4, #4]
 8005e4c:	bf04      	itt	eq
 8005e4e:	1852      	addeq	r2, r2, r1
 8005e50:	6022      	streq	r2, [r4, #0]
 8005e52:	6004      	str	r4, [r0, #0]
 8005e54:	e7ec      	b.n	8005e30 <_free_r+0x24>
 8005e56:	4613      	mov	r3, r2
 8005e58:	685a      	ldr	r2, [r3, #4]
 8005e5a:	b10a      	cbz	r2, 8005e60 <_free_r+0x54>
 8005e5c:	42a2      	cmp	r2, r4
 8005e5e:	d9fa      	bls.n	8005e56 <_free_r+0x4a>
 8005e60:	6819      	ldr	r1, [r3, #0]
 8005e62:	1858      	adds	r0, r3, r1
 8005e64:	42a0      	cmp	r0, r4
 8005e66:	d10b      	bne.n	8005e80 <_free_r+0x74>
 8005e68:	6820      	ldr	r0, [r4, #0]
 8005e6a:	4401      	add	r1, r0
 8005e6c:	1858      	adds	r0, r3, r1
 8005e6e:	4282      	cmp	r2, r0
 8005e70:	6019      	str	r1, [r3, #0]
 8005e72:	d1dd      	bne.n	8005e30 <_free_r+0x24>
 8005e74:	6810      	ldr	r0, [r2, #0]
 8005e76:	6852      	ldr	r2, [r2, #4]
 8005e78:	605a      	str	r2, [r3, #4]
 8005e7a:	4401      	add	r1, r0
 8005e7c:	6019      	str	r1, [r3, #0]
 8005e7e:	e7d7      	b.n	8005e30 <_free_r+0x24>
 8005e80:	d902      	bls.n	8005e88 <_free_r+0x7c>
 8005e82:	230c      	movs	r3, #12
 8005e84:	602b      	str	r3, [r5, #0]
 8005e86:	e7d3      	b.n	8005e30 <_free_r+0x24>
 8005e88:	6820      	ldr	r0, [r4, #0]
 8005e8a:	1821      	adds	r1, r4, r0
 8005e8c:	428a      	cmp	r2, r1
 8005e8e:	bf04      	itt	eq
 8005e90:	6811      	ldreq	r1, [r2, #0]
 8005e92:	6852      	ldreq	r2, [r2, #4]
 8005e94:	6062      	str	r2, [r4, #4]
 8005e96:	bf04      	itt	eq
 8005e98:	1809      	addeq	r1, r1, r0
 8005e9a:	6021      	streq	r1, [r4, #0]
 8005e9c:	605c      	str	r4, [r3, #4]
 8005e9e:	e7c7      	b.n	8005e30 <_free_r+0x24>
 8005ea0:	bd38      	pop	{r3, r4, r5, pc}
 8005ea2:	bf00      	nop
 8005ea4:	20000208 	.word	0x20000208

08005ea8 <_malloc_r>:
 8005ea8:	b570      	push	{r4, r5, r6, lr}
 8005eaa:	1ccd      	adds	r5, r1, #3
 8005eac:	f025 0503 	bic.w	r5, r5, #3
 8005eb0:	3508      	adds	r5, #8
 8005eb2:	2d0c      	cmp	r5, #12
 8005eb4:	bf38      	it	cc
 8005eb6:	250c      	movcc	r5, #12
 8005eb8:	2d00      	cmp	r5, #0
 8005eba:	4606      	mov	r6, r0
 8005ebc:	db01      	blt.n	8005ec2 <_malloc_r+0x1a>
 8005ebe:	42a9      	cmp	r1, r5
 8005ec0:	d903      	bls.n	8005eca <_malloc_r+0x22>
 8005ec2:	230c      	movs	r3, #12
 8005ec4:	6033      	str	r3, [r6, #0]
 8005ec6:	2000      	movs	r0, #0
 8005ec8:	bd70      	pop	{r4, r5, r6, pc}
 8005eca:	f000 f9d4 	bl	8006276 <__malloc_lock>
 8005ece:	4a21      	ldr	r2, [pc, #132]	; (8005f54 <_malloc_r+0xac>)
 8005ed0:	6814      	ldr	r4, [r2, #0]
 8005ed2:	4621      	mov	r1, r4
 8005ed4:	b991      	cbnz	r1, 8005efc <_malloc_r+0x54>
 8005ed6:	4c20      	ldr	r4, [pc, #128]	; (8005f58 <_malloc_r+0xb0>)
 8005ed8:	6823      	ldr	r3, [r4, #0]
 8005eda:	b91b      	cbnz	r3, 8005ee4 <_malloc_r+0x3c>
 8005edc:	4630      	mov	r0, r6
 8005ede:	f000 f98f 	bl	8006200 <_sbrk_r>
 8005ee2:	6020      	str	r0, [r4, #0]
 8005ee4:	4629      	mov	r1, r5
 8005ee6:	4630      	mov	r0, r6
 8005ee8:	f000 f98a 	bl	8006200 <_sbrk_r>
 8005eec:	1c43      	adds	r3, r0, #1
 8005eee:	d124      	bne.n	8005f3a <_malloc_r+0x92>
 8005ef0:	230c      	movs	r3, #12
 8005ef2:	6033      	str	r3, [r6, #0]
 8005ef4:	4630      	mov	r0, r6
 8005ef6:	f000 f9bf 	bl	8006278 <__malloc_unlock>
 8005efa:	e7e4      	b.n	8005ec6 <_malloc_r+0x1e>
 8005efc:	680b      	ldr	r3, [r1, #0]
 8005efe:	1b5b      	subs	r3, r3, r5
 8005f00:	d418      	bmi.n	8005f34 <_malloc_r+0x8c>
 8005f02:	2b0b      	cmp	r3, #11
 8005f04:	d90f      	bls.n	8005f26 <_malloc_r+0x7e>
 8005f06:	600b      	str	r3, [r1, #0]
 8005f08:	50cd      	str	r5, [r1, r3]
 8005f0a:	18cc      	adds	r4, r1, r3
 8005f0c:	4630      	mov	r0, r6
 8005f0e:	f000 f9b3 	bl	8006278 <__malloc_unlock>
 8005f12:	f104 000b 	add.w	r0, r4, #11
 8005f16:	1d23      	adds	r3, r4, #4
 8005f18:	f020 0007 	bic.w	r0, r0, #7
 8005f1c:	1ac3      	subs	r3, r0, r3
 8005f1e:	d0d3      	beq.n	8005ec8 <_malloc_r+0x20>
 8005f20:	425a      	negs	r2, r3
 8005f22:	50e2      	str	r2, [r4, r3]
 8005f24:	e7d0      	b.n	8005ec8 <_malloc_r+0x20>
 8005f26:	428c      	cmp	r4, r1
 8005f28:	684b      	ldr	r3, [r1, #4]
 8005f2a:	bf16      	itet	ne
 8005f2c:	6063      	strne	r3, [r4, #4]
 8005f2e:	6013      	streq	r3, [r2, #0]
 8005f30:	460c      	movne	r4, r1
 8005f32:	e7eb      	b.n	8005f0c <_malloc_r+0x64>
 8005f34:	460c      	mov	r4, r1
 8005f36:	6849      	ldr	r1, [r1, #4]
 8005f38:	e7cc      	b.n	8005ed4 <_malloc_r+0x2c>
 8005f3a:	1cc4      	adds	r4, r0, #3
 8005f3c:	f024 0403 	bic.w	r4, r4, #3
 8005f40:	42a0      	cmp	r0, r4
 8005f42:	d005      	beq.n	8005f50 <_malloc_r+0xa8>
 8005f44:	1a21      	subs	r1, r4, r0
 8005f46:	4630      	mov	r0, r6
 8005f48:	f000 f95a 	bl	8006200 <_sbrk_r>
 8005f4c:	3001      	adds	r0, #1
 8005f4e:	d0cf      	beq.n	8005ef0 <_malloc_r+0x48>
 8005f50:	6025      	str	r5, [r4, #0]
 8005f52:	e7db      	b.n	8005f0c <_malloc_r+0x64>
 8005f54:	20000208 	.word	0x20000208
 8005f58:	2000020c 	.word	0x2000020c

08005f5c <__ssputs_r>:
 8005f5c:	e92d 47f0 	stmdb	sp!, {r4, r5, r6, r7, r8, r9, sl, lr}
 8005f60:	688e      	ldr	r6, [r1, #8]
 8005f62:	429e      	cmp	r6, r3
 8005f64:	4682      	mov	sl, r0
 8005f66:	460c      	mov	r4, r1
 8005f68:	4690      	mov	r8, r2
 8005f6a:	4699      	mov	r9, r3
 8005f6c:	d837      	bhi.n	8005fde <__ssputs_r+0x82>
 8005f6e:	898a      	ldrh	r2, [r1, #12]
 8005f70:	f412 6f90 	tst.w	r2, #1152	; 0x480
 8005f74:	d031      	beq.n	8005fda <__ssputs_r+0x7e>
 8005f76:	6825      	ldr	r5, [r4, #0]
 8005f78:	6909      	ldr	r1, [r1, #16]
 8005f7a:	1a6f      	subs	r7, r5, r1
 8005f7c:	6965      	ldr	r5, [r4, #20]
 8005f7e:	2302      	movs	r3, #2
 8005f80:	eb05 0545 	add.w	r5, r5, r5, lsl #1
 8005f84:	fb95 f5f3 	sdiv	r5, r5, r3
 8005f88:	f109 0301 	add.w	r3, r9, #1
 8005f8c:	443b      	add	r3, r7
 8005f8e:	429d      	cmp	r5, r3
 8005f90:	bf38      	it	cc
 8005f92:	461d      	movcc	r5, r3
 8005f94:	0553      	lsls	r3, r2, #21
 8005f96:	d530      	bpl.n	8005ffa <__ssputs_r+0x9e>
 8005f98:	4629      	mov	r1, r5
 8005f9a:	f7ff ff85 	bl	8005ea8 <_malloc_r>
 8005f9e:	4606      	mov	r6, r0
 8005fa0:	b950      	cbnz	r0, 8005fb8 <__ssputs_r+0x5c>
 8005fa2:	230c      	movs	r3, #12
 8005fa4:	f8ca 3000 	str.w	r3, [sl]
 8005fa8:	89a3      	ldrh	r3, [r4, #12]
 8005faa:	f043 0340 	orr.w	r3, r3, #64	; 0x40
 8005fae:	81a3      	strh	r3, [r4, #12]
 8005fb0:	f04f 30ff 	mov.w	r0, #4294967295
 8005fb4:	e8bd 87f0 	ldmia.w	sp!, {r4, r5, r6, r7, r8, r9, sl, pc}
 8005fb8:	463a      	mov	r2, r7
 8005fba:	6921      	ldr	r1, [r4, #16]
 8005fbc:	f7ff fc32 	bl	8005824 <memcpy>
 8005fc0:	89a3      	ldrh	r3, [r4, #12]
 8005fc2:	f423 6390 	bic.w	r3, r3, #1152	; 0x480
 8005fc6:	f043 0380 	orr.w	r3, r3, #128	; 0x80
 8005fca:	81a3      	strh	r3, [r4, #12]
 8005fcc:	6126      	str	r6, [r4, #16]
 8005fce:	6165      	str	r5, [r4, #20]
 8005fd0:	443e      	add	r6, r7
 8005fd2:	1bed      	subs	r5, r5, r7
 8005fd4:	6026      	str	r6, [r4, #0]
 8005fd6:	60a5      	str	r5, [r4, #8]
 8005fd8:	464e      	mov	r6, r9
 8005fda:	454e      	cmp	r6, r9
 8005fdc:	d900      	bls.n	8005fe0 <__ssputs_r+0x84>
 8005fde:	464e      	mov	r6, r9
 8005fe0:	4632      	mov	r2, r6
 8005fe2:	4641      	mov	r1, r8
 8005fe4:	6820      	ldr	r0, [r4, #0]
 8005fe6:	f000 f92d 	bl	8006244 <memmove>
 8005fea:	68a3      	ldr	r3, [r4, #8]
 8005fec:	1b9b      	subs	r3, r3, r6
 8005fee:	60a3      	str	r3, [r4, #8]
 8005ff0:	6823      	ldr	r3, [r4, #0]
 8005ff2:	441e      	add	r6, r3
 8005ff4:	6026      	str	r6, [r4, #0]
 8005ff6:	2000      	movs	r0, #0
 8005ff8:	e7dc      	b.n	8005fb4 <__ssputs_r+0x58>
 8005ffa:	462a      	mov	r2, r5
 8005ffc:	f000 f93d 	bl	800627a <_realloc_r>
 8006000:	4606      	mov	r6, r0
 8006002:	2800      	cmp	r0, #0
 8006004:	d1e2      	bne.n	8005fcc <__ssputs_r+0x70>
 8006006:	6921      	ldr	r1, [r4, #16]
 8006008:	4650      	mov	r0, sl
 800600a:	f7ff feff 	bl	8005e0c <_free_r>
 800600e:	e7c8      	b.n	8005fa2 <__ssputs_r+0x46>

08006010 <_svfiprintf_r>:
 8006010:	e92d 4ff0 	stmdb	sp!, {r4, r5, r6, r7, r8, r9, sl, fp, lr}
 8006014:	461d      	mov	r5, r3
 8006016:	898b      	ldrh	r3, [r1, #12]
 8006018:	061f      	lsls	r7, r3, #24
 800601a:	b09d      	sub	sp, #116	; 0x74
 800601c:	4680      	mov	r8, r0
 800601e:	460c      	mov	r4, r1
 8006020:	4616      	mov	r6, r2
 8006022:	d50f      	bpl.n	8006044 <_svfiprintf_r+0x34>
 8006024:	690b      	ldr	r3, [r1, #16]
 8006026:	b96b      	cbnz	r3, 8006044 <_svfiprintf_r+0x34>
 8006028:	2140      	movs	r1, #64	; 0x40
 800602a:	f7ff ff3d 	bl	8005ea8 <_malloc_r>
 800602e:	6020      	str	r0, [r4, #0]
 8006030:	6120      	str	r0, [r4, #16]
 8006032:	b928      	cbnz	r0, 8006040 <_svfiprintf_r+0x30>
 8006034:	230c      	movs	r3, #12
 8006036:	f8c8 3000 	str.w	r3, [r8]
 800603a:	f04f 30ff 	mov.w	r0, #4294967295
 800603e:	e0c8      	b.n	80061d2 <_svfiprintf_r+0x1c2>
 8006040:	2340      	movs	r3, #64	; 0x40
 8006042:	6163      	str	r3, [r4, #20]
 8006044:	2300      	movs	r3, #0
 8006046:	9309      	str	r3, [sp, #36]	; 0x24
 8006048:	2320      	movs	r3, #32
 800604a:	f88d 3029 	strb.w	r3, [sp, #41]	; 0x29
 800604e:	2330      	movs	r3, #48	; 0x30
 8006050:	f88d 302a 	strb.w	r3, [sp, #42]	; 0x2a
 8006054:	9503      	str	r5, [sp, #12]
 8006056:	f04f 0b01 	mov.w	fp, #1
 800605a:	4637      	mov	r7, r6
 800605c:	463d      	mov	r5, r7
 800605e:	f815 3b01 	ldrb.w	r3, [r5], #1
 8006062:	b10b      	cbz	r3, 8006068 <_svfiprintf_r+0x58>
 8006064:	2b25      	cmp	r3, #37	; 0x25
 8006066:	d13e      	bne.n	80060e6 <_svfiprintf_r+0xd6>
 8006068:	ebb7 0a06 	subs.w	sl, r7, r6
 800606c:	d00b      	beq.n	8006086 <_svfiprintf_r+0x76>
 800606e:	4653      	mov	r3, sl
 8006070:	4632      	mov	r2, r6
 8006072:	4621      	mov	r1, r4
 8006074:	4640      	mov	r0, r8
 8006076:	f7ff ff71 	bl	8005f5c <__ssputs_r>
 800607a:	3001      	adds	r0, #1
 800607c:	f000 80a4 	beq.w	80061c8 <_svfiprintf_r+0x1b8>
 8006080:	9b09      	ldr	r3, [sp, #36]	; 0x24
 8006082:	4453      	add	r3, sl
 8006084:	9309      	str	r3, [sp, #36]	; 0x24
 8006086:	783b      	ldrb	r3, [r7, #0]
 8006088:	2b00      	cmp	r3, #0
 800608a:	f000 809d 	beq.w	80061c8 <_svfiprintf_r+0x1b8>
 800608e:	2300      	movs	r3, #0
 8006090:	f04f 32ff 	mov.w	r2, #4294967295
 8006094:	e9cd 2305 	strd	r2, r3, [sp, #20]
 8006098:	9304      	str	r3, [sp, #16]
 800609a:	9307      	str	r3, [sp, #28]
 800609c:	f88d 3053 	strb.w	r3, [sp, #83]	; 0x53
 80060a0:	931a      	str	r3, [sp, #104]	; 0x68
 80060a2:	462f      	mov	r7, r5
 80060a4:	2205      	movs	r2, #5
 80060a6:	f817 1b01 	ldrb.w	r1, [r7], #1
 80060aa:	4850      	ldr	r0, [pc, #320]	; (80061ec <_svfiprintf_r+0x1dc>)
 80060ac:	f7fa f8b8 	bl	8000220 <memchr>
 80060b0:	9b04      	ldr	r3, [sp, #16]
 80060b2:	b9d0      	cbnz	r0, 80060ea <_svfiprintf_r+0xda>
 80060b4:	06d9      	lsls	r1, r3, #27
 80060b6:	bf44      	itt	mi
 80060b8:	2220      	movmi	r2, #32
 80060ba:	f88d 2053 	strbmi.w	r2, [sp, #83]	; 0x53
 80060be:	071a      	lsls	r2, r3, #28
 80060c0:	bf44      	itt	mi
 80060c2:	222b      	movmi	r2, #43	; 0x2b
 80060c4:	f88d 2053 	strbmi.w	r2, [sp, #83]	; 0x53
 80060c8:	782a      	ldrb	r2, [r5, #0]
 80060ca:	2a2a      	cmp	r2, #42	; 0x2a
 80060cc:	d015      	beq.n	80060fa <_svfiprintf_r+0xea>
 80060ce:	9a07      	ldr	r2, [sp, #28]
 80060d0:	462f      	mov	r7, r5
 80060d2:	2000      	movs	r0, #0
 80060d4:	250a      	movs	r5, #10
 80060d6:	4639      	mov	r1, r7
 80060d8:	f811 3b01 	ldrb.w	r3, [r1], #1
 80060dc:	3b30      	subs	r3, #48	; 0x30
 80060de:	2b09      	cmp	r3, #9
 80060e0:	d94d      	bls.n	800617e <_svfiprintf_r+0x16e>
 80060e2:	b1b8      	cbz	r0, 8006114 <_svfiprintf_r+0x104>
 80060e4:	e00f      	b.n	8006106 <_svfiprintf_r+0xf6>
 80060e6:	462f      	mov	r7, r5
 80060e8:	e7b8      	b.n	800605c <_svfiprintf_r+0x4c>
 80060ea:	4a40      	ldr	r2, [pc, #256]	; (80061ec <_svfiprintf_r+0x1dc>)
 80060ec:	1a80      	subs	r0, r0, r2
 80060ee:	fa0b f000 	lsl.w	r0, fp, r0
 80060f2:	4318      	orrs	r0, r3
 80060f4:	9004      	str	r0, [sp, #16]
 80060f6:	463d      	mov	r5, r7
 80060f8:	e7d3      	b.n	80060a2 <_svfiprintf_r+0x92>
 80060fa:	9a03      	ldr	r2, [sp, #12]
 80060fc:	1d11      	adds	r1, r2, #4
 80060fe:	6812      	ldr	r2, [r2, #0]
 8006100:	9103      	str	r1, [sp, #12]
 8006102:	2a00      	cmp	r2, #0
 8006104:	db01      	blt.n	800610a <_svfiprintf_r+0xfa>
 8006106:	9207      	str	r2, [sp, #28]
 8006108:	e004      	b.n	8006114 <_svfiprintf_r+0x104>
 800610a:	4252      	negs	r2, r2
 800610c:	f043 0302 	orr.w	r3, r3, #2
 8006110:	9207      	str	r2, [sp, #28]
 8006112:	9304      	str	r3, [sp, #16]
 8006114:	783b      	ldrb	r3, [r7, #0]
 8006116:	2b2e      	cmp	r3, #46	; 0x2e
 8006118:	d10c      	bne.n	8006134 <_svfiprintf_r+0x124>
 800611a:	787b      	ldrb	r3, [r7, #1]
 800611c:	2b2a      	cmp	r3, #42	; 0x2a
 800611e:	d133      	bne.n	8006188 <_svfiprintf_r+0x178>
 8006120:	9b03      	ldr	r3, [sp, #12]
 8006122:	1d1a      	adds	r2, r3, #4
 8006124:	681b      	ldr	r3, [r3, #0]
 8006126:	9203      	str	r2, [sp, #12]
 8006128:	2b00      	cmp	r3, #0
 800612a:	bfb8      	it	lt
 800612c:	f04f 33ff 	movlt.w	r3, #4294967295
 8006130:	3702      	adds	r7, #2
 8006132:	9305      	str	r3, [sp, #20]
 8006134:	4d2e      	ldr	r5, [pc, #184]	; (80061f0 <_svfiprintf_r+0x1e0>)
 8006136:	7839      	ldrb	r1, [r7, #0]
 8006138:	2203      	movs	r2, #3
 800613a:	4628      	mov	r0, r5
 800613c:	f7fa f870 	bl	8000220 <memchr>
 8006140:	b138      	cbz	r0, 8006152 <_svfiprintf_r+0x142>
 8006142:	2340      	movs	r3, #64	; 0x40
 8006144:	1b40      	subs	r0, r0, r5
 8006146:	fa03 f000 	lsl.w	r0, r3, r0
 800614a:	9b04      	ldr	r3, [sp, #16]
 800614c:	4303      	orrs	r3, r0
 800614e:	3701      	adds	r7, #1
 8006150:	9304      	str	r3, [sp, #16]
 8006152:	7839      	ldrb	r1, [r7, #0]
 8006154:	4827      	ldr	r0, [pc, #156]	; (80061f4 <_svfiprintf_r+0x1e4>)
 8006156:	f88d 1028 	strb.w	r1, [sp, #40]	; 0x28
 800615a:	2206      	movs	r2, #6
 800615c:	1c7e      	adds	r6, r7, #1
 800615e:	f7fa f85f 	bl	8000220 <memchr>
 8006162:	2800      	cmp	r0, #0
 8006164:	d038      	beq.n	80061d8 <_svfiprintf_r+0x1c8>
 8006166:	4b24      	ldr	r3, [pc, #144]	; (80061f8 <_svfiprintf_r+0x1e8>)
 8006168:	bb13      	cbnz	r3, 80061b0 <_svfiprintf_r+0x1a0>
 800616a:	9b03      	ldr	r3, [sp, #12]
 800616c:	3307      	adds	r3, #7
 800616e:	f023 0307 	bic.w	r3, r3, #7
 8006172:	3308      	adds	r3, #8
 8006174:	9303      	str	r3, [sp, #12]
 8006176:	9b09      	ldr	r3, [sp, #36]	; 0x24
 8006178:	444b      	add	r3, r9
 800617a:	9309      	str	r3, [sp, #36]	; 0x24
 800617c:	e76d      	b.n	800605a <_svfiprintf_r+0x4a>
 800617e:	fb05 3202 	mla	r2, r5, r2, r3
 8006182:	2001      	movs	r0, #1
 8006184:	460f      	mov	r7, r1
 8006186:	e7a6      	b.n	80060d6 <_svfiprintf_r+0xc6>
 8006188:	2300      	movs	r3, #0
 800618a:	3701      	adds	r7, #1
 800618c:	9305      	str	r3, [sp, #20]
 800618e:	4619      	mov	r1, r3
 8006190:	250a      	movs	r5, #10
 8006192:	4638      	mov	r0, r7
 8006194:	f810 2b01 	ldrb.w	r2, [r0], #1
 8006198:	3a30      	subs	r2, #48	; 0x30
 800619a:	2a09      	cmp	r2, #9
 800619c:	d903      	bls.n	80061a6 <_svfiprintf_r+0x196>
 800619e:	2b00      	cmp	r3, #0
 80061a0:	d0c8      	beq.n	8006134 <_svfiprintf_r+0x124>
 80061a2:	9105      	str	r1, [sp, #20]
 80061a4:	e7c6      	b.n	8006134 <_svfiprintf_r+0x124>
 80061a6:	fb05 2101 	mla	r1, r5, r1, r2
 80061aa:	2301      	movs	r3, #1
 80061ac:	4607      	mov	r7, r0
 80061ae:	e7f0      	b.n	8006192 <_svfiprintf_r+0x182>
 80061b0:	ab03      	add	r3, sp, #12
 80061b2:	9300      	str	r3, [sp, #0]
 80061b4:	4622      	mov	r2, r4
 80061b6:	4b11      	ldr	r3, [pc, #68]	; (80061fc <_svfiprintf_r+0x1ec>)
 80061b8:	a904      	add	r1, sp, #16
 80061ba:	4640      	mov	r0, r8
 80061bc:	f7fe f8ee 	bl	800439c <_printf_float>
 80061c0:	f1b0 3fff 	cmp.w	r0, #4294967295
 80061c4:	4681      	mov	r9, r0
 80061c6:	d1d6      	bne.n	8006176 <_svfiprintf_r+0x166>
 80061c8:	89a3      	ldrh	r3, [r4, #12]
 80061ca:	065b      	lsls	r3, r3, #25
 80061cc:	f53f af35 	bmi.w	800603a <_svfiprintf_r+0x2a>
 80061d0:	9809      	ldr	r0, [sp, #36]	; 0x24
 80061d2:	b01d      	add	sp, #116	; 0x74
 80061d4:	e8bd 8ff0 	ldmia.w	sp!, {r4, r5, r6, r7, r8, r9, sl, fp, pc}
 80061d8:	ab03      	add	r3, sp, #12
 80061da:	9300      	str	r3, [sp, #0]
 80061dc:	4622      	mov	r2, r4
 80061de:	4b07      	ldr	r3, [pc, #28]	; (80061fc <_svfiprintf_r+0x1ec>)
 80061e0:	a904      	add	r1, sp, #16
 80061e2:	4640      	mov	r0, r8
 80061e4:	f7fe fb90 	bl	8004908 <_printf_i>
 80061e8:	e7ea      	b.n	80061c0 <_svfiprintf_r+0x1b0>
 80061ea:	bf00      	nop
 80061ec:	0800646c 	.word	0x0800646c
 80061f0:	08006472 	.word	0x08006472
 80061f4:	08006476 	.word	0x08006476
 80061f8:	0800439d 	.word	0x0800439d
 80061fc:	08005f5d 	.word	0x08005f5d

08006200 <_sbrk_r>:
 8006200:	b538      	push	{r3, r4, r5, lr}
 8006202:	4c06      	ldr	r4, [pc, #24]	; (800621c <_sbrk_r+0x1c>)
 8006204:	2300      	movs	r3, #0
 8006206:	4605      	mov	r5, r0
 8006208:	4608      	mov	r0, r1
 800620a:	6023      	str	r3, [r4, #0]
 800620c:	f7fb faa6 	bl	800175c <_sbrk>
 8006210:	1c43      	adds	r3, r0, #1
 8006212:	d102      	bne.n	800621a <_sbrk_r+0x1a>
 8006214:	6823      	ldr	r3, [r4, #0]
 8006216:	b103      	cbz	r3, 800621a <_sbrk_r+0x1a>
 8006218:	602b      	str	r3, [r5, #0]
 800621a:	bd38      	pop	{r3, r4, r5, pc}
 800621c:	2000cacc 	.word	0x2000cacc

08006220 <__ascii_mbtowc>:
 8006220:	b082      	sub	sp, #8
 8006222:	b901      	cbnz	r1, 8006226 <__ascii_mbtowc+0x6>
 8006224:	a901      	add	r1, sp, #4
 8006226:	b142      	cbz	r2, 800623a <__ascii_mbtowc+0x1a>
 8006228:	b14b      	cbz	r3, 800623e <__ascii_mbtowc+0x1e>
 800622a:	7813      	ldrb	r3, [r2, #0]
 800622c:	600b      	str	r3, [r1, #0]
 800622e:	7812      	ldrb	r2, [r2, #0]
 8006230:	1c10      	adds	r0, r2, #0
 8006232:	bf18      	it	ne
 8006234:	2001      	movne	r0, #1
 8006236:	b002      	add	sp, #8
 8006238:	4770      	bx	lr
 800623a:	4610      	mov	r0, r2
 800623c:	e7fb      	b.n	8006236 <__ascii_mbtowc+0x16>
 800623e:	f06f 0001 	mvn.w	r0, #1
 8006242:	e7f8      	b.n	8006236 <__ascii_mbtowc+0x16>

08006244 <memmove>:
 8006244:	4288      	cmp	r0, r1
 8006246:	b510      	push	{r4, lr}
 8006248:	eb01 0302 	add.w	r3, r1, r2
 800624c:	d807      	bhi.n	800625e <memmove+0x1a>
 800624e:	1e42      	subs	r2, r0, #1
 8006250:	4299      	cmp	r1, r3
 8006252:	d00a      	beq.n	800626a <memmove+0x26>
 8006254:	f811 4b01 	ldrb.w	r4, [r1], #1
 8006258:	f802 4f01 	strb.w	r4, [r2, #1]!
 800625c:	e7f8      	b.n	8006250 <memmove+0xc>
 800625e:	4283      	cmp	r3, r0
 8006260:	d9f5      	bls.n	800624e <memmove+0xa>
 8006262:	1881      	adds	r1, r0, r2
 8006264:	1ad2      	subs	r2, r2, r3
 8006266:	42d3      	cmn	r3, r2
 8006268:	d100      	bne.n	800626c <memmove+0x28>
 800626a:	bd10      	pop	{r4, pc}
 800626c:	f813 4d01 	ldrb.w	r4, [r3, #-1]!
 8006270:	f801 4d01 	strb.w	r4, [r1, #-1]!
 8006274:	e7f7      	b.n	8006266 <memmove+0x22>

08006276 <__malloc_lock>:
 8006276:	4770      	bx	lr

08006278 <__malloc_unlock>:
 8006278:	4770      	bx	lr

0800627a <_realloc_r>:
 800627a:	b5f8      	push	{r3, r4, r5, r6, r7, lr}
 800627c:	4607      	mov	r7, r0
 800627e:	4614      	mov	r4, r2
 8006280:	460e      	mov	r6, r1
 8006282:	b921      	cbnz	r1, 800628e <_realloc_r+0x14>
 8006284:	4611      	mov	r1, r2
 8006286:	e8bd 40f8 	ldmia.w	sp!, {r3, r4, r5, r6, r7, lr}
 800628a:	f7ff be0d 	b.w	8005ea8 <_malloc_r>
 800628e:	b922      	cbnz	r2, 800629a <_realloc_r+0x20>
 8006290:	f7ff fdbc 	bl	8005e0c <_free_r>
 8006294:	4625      	mov	r5, r4
 8006296:	4628      	mov	r0, r5
 8006298:	bdf8      	pop	{r3, r4, r5, r6, r7, pc}
 800629a:	f000 f821 	bl	80062e0 <_malloc_usable_size_r>
 800629e:	42a0      	cmp	r0, r4
 80062a0:	d20f      	bcs.n	80062c2 <_realloc_r+0x48>
 80062a2:	4621      	mov	r1, r4
 80062a4:	4638      	mov	r0, r7
 80062a6:	f7ff fdff 	bl	8005ea8 <_malloc_r>
 80062aa:	4605      	mov	r5, r0
 80062ac:	2800      	cmp	r0, #0
 80062ae:	d0f2      	beq.n	8006296 <_realloc_r+0x1c>
 80062b0:	4631      	mov	r1, r6
 80062b2:	4622      	mov	r2, r4
 80062b4:	f7ff fab6 	bl	8005824 <memcpy>
 80062b8:	4631      	mov	r1, r6
 80062ba:	4638      	mov	r0, r7
 80062bc:	f7ff fda6 	bl	8005e0c <_free_r>
 80062c0:	e7e9      	b.n	8006296 <_realloc_r+0x1c>
 80062c2:	4635      	mov	r5, r6
 80062c4:	e7e7      	b.n	8006296 <_realloc_r+0x1c>

080062c6 <__ascii_wctomb>:
 80062c6:	b149      	cbz	r1, 80062dc <__ascii_wctomb+0x16>
 80062c8:	2aff      	cmp	r2, #255	; 0xff
 80062ca:	bf85      	ittet	hi
 80062cc:	238a      	movhi	r3, #138	; 0x8a
 80062ce:	6003      	strhi	r3, [r0, #0]
 80062d0:	700a      	strbls	r2, [r1, #0]
 80062d2:	f04f 30ff 	movhi.w	r0, #4294967295
 80062d6:	bf98      	it	ls
 80062d8:	2001      	movls	r0, #1
 80062da:	4770      	bx	lr
 80062dc:	4608      	mov	r0, r1
 80062de:	4770      	bx	lr

080062e0 <_malloc_usable_size_r>:
 80062e0:	f851 3c04 	ldr.w	r3, [r1, #-4]
 80062e4:	1f18      	subs	r0, r3, #4
 80062e6:	2b00      	cmp	r3, #0
 80062e8:	bfbc      	itt	lt
 80062ea:	580b      	ldrlt	r3, [r1, r0]
 80062ec:	18c0      	addlt	r0, r0, r3
 80062ee:	4770      	bx	lr

080062f0 <_init>:
 80062f0:	b5f8      	push	{r3, r4, r5, r6, r7, lr}
 80062f2:	bf00      	nop
 80062f4:	bcf8      	pop	{r3, r4, r5, r6, r7}
 80062f6:	bc08      	pop	{r3}
 80062f8:	469e      	mov	lr, r3
 80062fa:	4770      	bx	lr

080062fc <_fini>:
 80062fc:	b5f8      	push	{r3, r4, r5, r6, r7, lr}
 80062fe:	bf00      	nop
 8006300:	bcf8      	pop	{r3, r4, r5, r6, r7}
 8006302:	bc08      	pop	{r3}
 8006304:	469e      	mov	lr, r3
 8006306:	4770      	bx	lr
