
Laser_ADC_F446.elf:     file format elf32-littlearm

Sections:
Idx Name          Size      VMA       LMA       File off  Algn
  0 .isr_vector   000001c4  08000000  08000000  00010000  2**0
                  CONTENTS, ALLOC, LOAD, READONLY, DATA
  1 .text         00006030  080001d0  080001d0  000101d0  2**4
                  CONTENTS, ALLOC, LOAD, READONLY, CODE
  2 .rodata       00000280  08006200  08006200  00016200  2**3
                  CONTENTS, ALLOC, LOAD, READONLY, DATA
  3 .ARM.extab    00000000  08006480  08006480  000201dc  2**0
                  CONTENTS
  4 .ARM          00000008  08006480  08006480  00016480  2**2
                  CONTENTS, ALLOC, LOAD, READONLY, DATA
  5 .preinit_array 00000000  08006488  08006488  000201dc  2**0
                  CONTENTS, ALLOC, LOAD, DATA
  6 .init_array   00000004  08006488  08006488  00016488  2**2
                  CONTENTS, ALLOC, LOAD, DATA
  7 .fini_array   00000004  0800648c  0800648c  0001648c  2**2
                  CONTENTS, ALLOC, LOAD, DATA
  8 .data         000001dc  20000000  08006490  00020000  2**2
                  CONTENTS, ALLOC, LOAD, DATA
  9 .bss          0000c120  200001dc  0800666c  000201dc  2**2
                  ALLOC
 10 ._user_heap_stack 00000604  2000c2fc  0800666c  0002c2fc  2**0
                  ALLOC
 11 .ARM.attributes 00000030  00000000  00000000  000201dc  2**0
                  CONTENTS, READONLY
 12 .debug_info   00009ce9  00000000  00000000  0002020c  2**0
                  CONTENTS, READONLY, DEBUGGING
 13 .debug_abbrev 00001b11  00000000  00000000  00029ef5  2**0
                  CONTENTS, READONLY, DEBUGGING
 14 .debug_aranges 00000878  00000000  00000000  0002ba08  2**3
                  CONTENTS, READONLY, DEBUGGING
 15 .debug_ranges 00000790  00000000  00000000  0002c280  2**3
                  CONTENTS, READONLY, DEBUGGING
 16 .debug_macro  00021c27  00000000  00000000  0002ca10  2**0
                  CONTENTS, READONLY, DEBUGGING
 17 .debug_line   00008834  00000000  00000000  0004e637  2**0
                  CONTENTS, READONLY, DEBUGGING
 18 .debug_str    000ccf02  00000000  00000000  00056e6b  2**0
                  CONTENTS, READONLY, DEBUGGING
 19 .comment      0000007b  00000000  00000000  00123d6d  2**0
                  CONTENTS, READONLY
 20 .debug_frame  00002b70  00000000  00000000  00123de8  2**2
                  CONTENTS, READONLY, DEBUGGING

Disassembly of section .text:

080001d0 <__do_global_dtors_aux>:
 80001d0:	b510      	push	{r4, lr}
 80001d2:	4c05      	ldr	r4, [pc, #20]	; (80001e8 <__do_global_dtors_aux+0x18>)
 80001d4:	7823      	ldrb	r3, [r4, #0]
 80001d6:	b933      	cbnz	r3, 80001e6 <__do_global_dtors_aux+0x16>
 80001d8:	4b04      	ldr	r3, [pc, #16]	; (80001ec <__do_global_dtors_aux+0x1c>)
 80001da:	b113      	cbz	r3, 80001e2 <__do_global_dtors_aux+0x12>
 80001dc:	4804      	ldr	r0, [pc, #16]	; (80001f0 <__do_global_dtors_aux+0x20>)
 80001de:	f3af 8000 	nop.w
 80001e2:	2301      	movs	r3, #1
 80001e4:	7023      	strb	r3, [r4, #0]
 80001e6:	bd10      	pop	{r4, pc}
 80001e8:	200001dc 	.word	0x200001dc
 80001ec:	00000000 	.word	0x00000000
 80001f0:	080061e8 	.word	0x080061e8

080001f4 <frame_dummy>:
 80001f4:	b508      	push	{r3, lr}
 80001f6:	4b03      	ldr	r3, [pc, #12]	; (8000204 <frame_dummy+0x10>)
 80001f8:	b11b      	cbz	r3, 8000202 <frame_dummy+0xe>
 80001fa:	4903      	ldr	r1, [pc, #12]	; (8000208 <frame_dummy+0x14>)
 80001fc:	4803      	ldr	r0, [pc, #12]	; (800020c <frame_dummy+0x18>)
 80001fe:	f3af 8000 	nop.w
 8000202:	bd08      	pop	{r3, pc}
 8000204:	00000000 	.word	0x00000000
 8000208:	200001e0 	.word	0x200001e0
 800020c:	080061e8 	.word	0x080061e8

08000210 <strlen>:
 8000210:	4603      	mov	r3, r0
 8000212:	f813 2b01 	ldrb.w	r2, [r3], #1
 8000216:	2a00      	cmp	r2, #0
 8000218:	d1fb      	bne.n	8000212 <strlen+0x2>
 800021a:	1a18      	subs	r0, r3, r0
 800021c:	3801      	subs	r0, #1
 800021e:	4770      	bx	lr

08000220 <memchr>:
 8000220:	f001 01ff 	and.w	r1, r1, #255	; 0xff
 8000224:	2a10      	cmp	r2, #16
 8000226:	db2b      	blt.n	8000280 <memchr+0x60>
 8000228:	f010 0f07 	tst.w	r0, #7
 800022c:	d008      	beq.n	8000240 <memchr+0x20>
 800022e:	f810 3b01 	ldrb.w	r3, [r0], #1
 8000232:	3a01      	subs	r2, #1
 8000234:	428b      	cmp	r3, r1
 8000236:	d02d      	beq.n	8000294 <memchr+0x74>
 8000238:	f010 0f07 	tst.w	r0, #7
 800023c:	b342      	cbz	r2, 8000290 <memchr+0x70>
 800023e:	d1f6      	bne.n	800022e <memchr+0xe>
 8000240:	b4f0      	push	{r4, r5, r6, r7}
 8000242:	ea41 2101 	orr.w	r1, r1, r1, lsl #8
 8000246:	ea41 4101 	orr.w	r1, r1, r1, lsl #16
 800024a:	f022 0407 	bic.w	r4, r2, #7
 800024e:	f07f 0700 	mvns.w	r7, #0
 8000252:	2300      	movs	r3, #0
 8000254:	e8f0 5602 	ldrd	r5, r6, [r0], #8
 8000258:	3c08      	subs	r4, #8
 800025a:	ea85 0501 	eor.w	r5, r5, r1
 800025e:	ea86 0601 	eor.w	r6, r6, r1
 8000262:	fa85 f547 	uadd8	r5, r5, r7
 8000266:	faa3 f587 	sel	r5, r3, r7
 800026a:	fa86 f647 	uadd8	r6, r6, r7
 800026e:	faa5 f687 	sel	r6, r5, r7
 8000272:	b98e      	cbnz	r6, 8000298 <memchr+0x78>
 8000274:	d1ee      	bne.n	8000254 <memchr+0x34>
 8000276:	bcf0      	pop	{r4, r5, r6, r7}
 8000278:	f001 01ff 	and.w	r1, r1, #255	; 0xff
 800027c:	f002 0207 	and.w	r2, r2, #7
 8000280:	b132      	cbz	r2, 8000290 <memchr+0x70>
 8000282:	f810 3b01 	ldrb.w	r3, [r0], #1
 8000286:	3a01      	subs	r2, #1
 8000288:	ea83 0301 	eor.w	r3, r3, r1
 800028c:	b113      	cbz	r3, 8000294 <memchr+0x74>
 800028e:	d1f8      	bne.n	8000282 <memchr+0x62>
 8000290:	2000      	movs	r0, #0
 8000292:	4770      	bx	lr
 8000294:	3801      	subs	r0, #1
 8000296:	4770      	bx	lr
 8000298:	2d00      	cmp	r5, #0
 800029a:	bf06      	itte	eq
 800029c:	4635      	moveq	r5, r6
 800029e:	3803      	subeq	r0, #3
 80002a0:	3807      	subne	r0, #7
 80002a2:	f015 0f01 	tst.w	r5, #1
 80002a6:	d107      	bne.n	80002b8 <memchr+0x98>
 80002a8:	3001      	adds	r0, #1
 80002aa:	f415 7f80 	tst.w	r5, #256	; 0x100
 80002ae:	bf02      	ittt	eq
 80002b0:	3001      	addeq	r0, #1
 80002b2:	f415 3fc0 	tsteq.w	r5, #98304	; 0x18000
 80002b6:	3001      	addeq	r0, #1
 80002b8:	bcf0      	pop	{r4, r5, r6, r7}
 80002ba:	3801      	subs	r0, #1
 80002bc:	4770      	bx	lr
 80002be:	bf00      	nop

080002c0 <__aeabi_drsub>:
 80002c0:	f081 4100 	eor.w	r1, r1, #2147483648	; 0x80000000
 80002c4:	e002      	b.n	80002cc <__adddf3>
 80002c6:	bf00      	nop

080002c8 <__aeabi_dsub>:
 80002c8:	f083 4300 	eor.w	r3, r3, #2147483648	; 0x80000000

080002cc <__adddf3>:
 80002cc:	b530      	push	{r4, r5, lr}
 80002ce:	ea4f 0441 	mov.w	r4, r1, lsl #1
 80002d2:	ea4f 0543 	mov.w	r5, r3, lsl #1
 80002d6:	ea94 0f05 	teq	r4, r5
 80002da:	bf08      	it	eq
 80002dc:	ea90 0f02 	teqeq	r0, r2
 80002e0:	bf1f      	itttt	ne
 80002e2:	ea54 0c00 	orrsne.w	ip, r4, r0
 80002e6:	ea55 0c02 	orrsne.w	ip, r5, r2
 80002ea:	ea7f 5c64 	mvnsne.w	ip, r4, asr #21
 80002ee:	ea7f 5c65 	mvnsne.w	ip, r5, asr #21
 80002f2:	f000 80e2 	beq.w	80004ba <__adddf3+0x1ee>
 80002f6:	ea4f 5454 	mov.w	r4, r4, lsr #21
 80002fa:	ebd4 5555 	rsbs	r5, r4, r5, lsr #21
 80002fe:	bfb8      	it	lt
 8000300:	426d      	neglt	r5, r5
 8000302:	dd0c      	ble.n	800031e <__adddf3+0x52>
 8000304:	442c      	add	r4, r5
 8000306:	ea80 0202 	eor.w	r2, r0, r2
 800030a:	ea81 0303 	eor.w	r3, r1, r3
 800030e:	ea82 0000 	eor.w	r0, r2, r0
 8000312:	ea83 0101 	eor.w	r1, r3, r1
 8000316:	ea80 0202 	eor.w	r2, r0, r2
 800031a:	ea81 0303 	eor.w	r3, r1, r3
 800031e:	2d36      	cmp	r5, #54	; 0x36
 8000320:	bf88      	it	hi
 8000322:	bd30      	pophi	{r4, r5, pc}
 8000324:	f011 4f00 	tst.w	r1, #2147483648	; 0x80000000
 8000328:	ea4f 3101 	mov.w	r1, r1, lsl #12
 800032c:	f44f 1c80 	mov.w	ip, #1048576	; 0x100000
 8000330:	ea4c 3111 	orr.w	r1, ip, r1, lsr #12
 8000334:	d002      	beq.n	800033c <__adddf3+0x70>
 8000336:	4240      	negs	r0, r0
 8000338:	eb61 0141 	sbc.w	r1, r1, r1, lsl #1
 800033c:	f013 4f00 	tst.w	r3, #2147483648	; 0x80000000
 8000340:	ea4f 3303 	mov.w	r3, r3, lsl #12
 8000344:	ea4c 3313 	orr.w	r3, ip, r3, lsr #12
 8000348:	d002      	beq.n	8000350 <__adddf3+0x84>
 800034a:	4252      	negs	r2, r2
 800034c:	eb63 0343 	sbc.w	r3, r3, r3, lsl #1
 8000350:	ea94 0f05 	teq	r4, r5
 8000354:	f000 80a7 	beq.w	80004a6 <__adddf3+0x1da>
 8000358:	f1a4 0401 	sub.w	r4, r4, #1
 800035c:	f1d5 0e20 	rsbs	lr, r5, #32
 8000360:	db0d      	blt.n	800037e <__adddf3+0xb2>
 8000362:	fa02 fc0e 	lsl.w	ip, r2, lr
 8000366:	fa22 f205 	lsr.w	r2, r2, r5
 800036a:	1880      	adds	r0, r0, r2
 800036c:	f141 0100 	adc.w	r1, r1, #0
 8000370:	fa03 f20e 	lsl.w	r2, r3, lr
 8000374:	1880      	adds	r0, r0, r2
 8000376:	fa43 f305 	asr.w	r3, r3, r5
 800037a:	4159      	adcs	r1, r3
 800037c:	e00e      	b.n	800039c <__adddf3+0xd0>
 800037e:	f1a5 0520 	sub.w	r5, r5, #32
 8000382:	f10e 0e20 	add.w	lr, lr, #32
 8000386:	2a01      	cmp	r2, #1
 8000388:	fa03 fc0e 	lsl.w	ip, r3, lr
 800038c:	bf28      	it	cs
 800038e:	f04c 0c02 	orrcs.w	ip, ip, #2
 8000392:	fa43 f305 	asr.w	r3, r3, r5
 8000396:	18c0      	adds	r0, r0, r3
 8000398:	eb51 71e3 	adcs.w	r1, r1, r3, asr #31
 800039c:	f001 4500 	and.w	r5, r1, #2147483648	; 0x80000000
 80003a0:	d507      	bpl.n	80003b2 <__adddf3+0xe6>
 80003a2:	f04f 0e00 	mov.w	lr, #0
 80003a6:	f1dc 0c00 	rsbs	ip, ip, #0
 80003aa:	eb7e 0000 	sbcs.w	r0, lr, r0
 80003ae:	eb6e 0101 	sbc.w	r1, lr, r1
 80003b2:	f5b1 1f80 	cmp.w	r1, #1048576	; 0x100000
 80003b6:	d31b      	bcc.n	80003f0 <__adddf3+0x124>
 80003b8:	f5b1 1f00 	cmp.w	r1, #2097152	; 0x200000
 80003bc:	d30c      	bcc.n	80003d8 <__adddf3+0x10c>
 80003be:	0849      	lsrs	r1, r1, #1
 80003c0:	ea5f 0030 	movs.w	r0, r0, rrx
 80003c4:	ea4f 0c3c 	mov.w	ip, ip, rrx
 80003c8:	f104 0401 	add.w	r4, r4, #1
 80003cc:	ea4f 5244 	mov.w	r2, r4, lsl #21
 80003d0:	f512 0f80 	cmn.w	r2, #4194304	; 0x400000
 80003d4:	f080 809a 	bcs.w	800050c <__adddf3+0x240>
 80003d8:	f1bc 4f00 	cmp.w	ip, #2147483648	; 0x80000000
 80003dc:	bf08      	it	eq
 80003de:	ea5f 0c50 	movseq.w	ip, r0, lsr #1
 80003e2:	f150 0000 	adcs.w	r0, r0, #0
 80003e6:	eb41 5104 	adc.w	r1, r1, r4, lsl #20
 80003ea:	ea41 0105 	orr.w	r1, r1, r5
 80003ee:	bd30      	pop	{r4, r5, pc}
 80003f0:	ea5f 0c4c 	movs.w	ip, ip, lsl #1
 80003f4:	4140      	adcs	r0, r0
 80003f6:	eb41 0101 	adc.w	r1, r1, r1
 80003fa:	f411 1f80 	tst.w	r1, #1048576	; 0x100000
 80003fe:	f1a4 0401 	sub.w	r4, r4, #1
 8000402:	d1e9      	bne.n	80003d8 <__adddf3+0x10c>
 8000404:	f091 0f00 	teq	r1, #0
 8000408:	bf04      	itt	eq
 800040a:	4601      	moveq	r1, r0
 800040c:	2000      	moveq	r0, #0
 800040e:	fab1 f381 	clz	r3, r1
 8000412:	bf08      	it	eq
 8000414:	3320      	addeq	r3, #32
 8000416:	f1a3 030b 	sub.w	r3, r3, #11
 800041a:	f1b3 0220 	subs.w	r2, r3, #32
 800041e:	da0c      	bge.n	800043a <__adddf3+0x16e>
 8000420:	320c      	adds	r2, #12
 8000422:	dd08      	ble.n	8000436 <__adddf3+0x16a>
 8000424:	f102 0c14 	add.w	ip, r2, #20
 8000428:	f1c2 020c 	rsb	r2, r2, #12
 800042c:	fa01 f00c 	lsl.w	r0, r1, ip
 8000430:	fa21 f102 	lsr.w	r1, r1, r2
 8000434:	e00c      	b.n	8000450 <__adddf3+0x184>
 8000436:	f102 0214 	add.w	r2, r2, #20
 800043a:	bfd8      	it	le
 800043c:	f1c2 0c20 	rsble	ip, r2, #32
 8000440:	fa01 f102 	lsl.w	r1, r1, r2
 8000444:	fa20 fc0c 	lsr.w	ip, r0, ip
 8000448:	bfdc      	itt	le
 800044a:	ea41 010c 	orrle.w	r1, r1, ip
 800044e:	4090      	lslle	r0, r2
 8000450:	1ae4      	subs	r4, r4, r3
 8000452:	bfa2      	ittt	ge
 8000454:	eb01 5104 	addge.w	r1, r1, r4, lsl #20
 8000458:	4329      	orrge	r1, r5
 800045a:	bd30      	popge	{r4, r5, pc}
 800045c:	ea6f 0404 	mvn.w	r4, r4
 8000460:	3c1f      	subs	r4, #31
 8000462:	da1c      	bge.n	800049e <__adddf3+0x1d2>
 8000464:	340c      	adds	r4, #12
 8000466:	dc0e      	bgt.n	8000486 <__adddf3+0x1ba>
 8000468:	f104 0414 	add.w	r4, r4, #20
 800046c:	f1c4 0220 	rsb	r2, r4, #32
 8000470:	fa20 f004 	lsr.w	r0, r0, r4
 8000474:	fa01 f302 	lsl.w	r3, r1, r2
 8000478:	ea40 0003 	orr.w	r0, r0, r3
 800047c:	fa21 f304 	lsr.w	r3, r1, r4
 8000480:	ea45 0103 	orr.w	r1, r5, r3
 8000484:	bd30      	pop	{r4, r5, pc}
 8000486:	f1c4 040c 	rsb	r4, r4, #12
 800048a:	f1c4 0220 	rsb	r2, r4, #32
 800048e:	fa20 f002 	lsr.w	r0, r0, r2
 8000492:	fa01 f304 	lsl.w	r3, r1, r4
 8000496:	ea40 0003 	orr.w	r0, r0, r3
 800049a:	4629      	mov	r1, r5
 800049c:	bd30      	pop	{r4, r5, pc}
 800049e:	fa21 f004 	lsr.w	r0, r1, r4
 80004a2:	4629      	mov	r1, r5
 80004a4:	bd30      	pop	{r4, r5, pc}
 80004a6:	f094 0f00 	teq	r4, #0
 80004aa:	f483 1380 	eor.w	r3, r3, #1048576	; 0x100000
 80004ae:	bf06      	itte	eq
 80004b0:	f481 1180 	eoreq.w	r1, r1, #1048576	; 0x100000
 80004b4:	3401      	addeq	r4, #1
 80004b6:	3d01      	subne	r5, #1
 80004b8:	e74e      	b.n	8000358 <__adddf3+0x8c>
 80004ba:	ea7f 5c64 	mvns.w	ip, r4, asr #21
 80004be:	bf18      	it	ne
 80004c0:	ea7f 5c65 	mvnsne.w	ip, r5, asr #21
 80004c4:	d029      	beq.n	800051a <__adddf3+0x24e>
 80004c6:	ea94 0f05 	teq	r4, r5
 80004ca:	bf08      	it	eq
 80004cc:	ea90 0f02 	teqeq	r0, r2
 80004d0:	d005      	beq.n	80004de <__adddf3+0x212>
 80004d2:	ea54 0c00 	orrs.w	ip, r4, r0
 80004d6:	bf04      	itt	eq
 80004d8:	4619      	moveq	r1, r3
 80004da:	4610      	moveq	r0, r2
 80004dc:	bd30      	pop	{r4, r5, pc}
 80004de:	ea91 0f03 	teq	r1, r3
 80004e2:	bf1e      	ittt	ne
 80004e4:	2100      	movne	r1, #0
 80004e6:	2000      	movne	r0, #0
 80004e8:	bd30      	popne	{r4, r5, pc}
 80004ea:	ea5f 5c54 	movs.w	ip, r4, lsr #21
 80004ee:	d105      	bne.n	80004fc <__adddf3+0x230>
 80004f0:	0040      	lsls	r0, r0, #1
 80004f2:	4149      	adcs	r1, r1
 80004f4:	bf28      	it	cs
 80004f6:	f041 4100 	orrcs.w	r1, r1, #2147483648	; 0x80000000
 80004fa:	bd30      	pop	{r4, r5, pc}
 80004fc:	f514 0480 	adds.w	r4, r4, #4194304	; 0x400000
 8000500:	bf3c      	itt	cc
 8000502:	f501 1180 	addcc.w	r1, r1, #1048576	; 0x100000
 8000506:	bd30      	popcc	{r4, r5, pc}
 8000508:	f001 4500 	and.w	r5, r1, #2147483648	; 0x80000000
 800050c:	f045 41fe 	orr.w	r1, r5, #2130706432	; 0x7f000000
 8000510:	f441 0170 	orr.w	r1, r1, #15728640	; 0xf00000
 8000514:	f04f 0000 	mov.w	r0, #0
 8000518:	bd30      	pop	{r4, r5, pc}
 800051a:	ea7f 5c64 	mvns.w	ip, r4, asr #21
 800051e:	bf1a      	itte	ne
 8000520:	4619      	movne	r1, r3
 8000522:	4610      	movne	r0, r2
 8000524:	ea7f 5c65 	mvnseq.w	ip, r5, asr #21
 8000528:	bf1c      	itt	ne
 800052a:	460b      	movne	r3, r1
 800052c:	4602      	movne	r2, r0
 800052e:	ea50 3401 	orrs.w	r4, r0, r1, lsl #12
 8000532:	bf06      	itte	eq
 8000534:	ea52 3503 	orrseq.w	r5, r2, r3, lsl #12
 8000538:	ea91 0f03 	teqeq	r1, r3
 800053c:	f441 2100 	orrne.w	r1, r1, #524288	; 0x80000
 8000540:	bd30      	pop	{r4, r5, pc}
 8000542:	bf00      	nop

08000544 <__aeabi_ui2d>:
 8000544:	f090 0f00 	teq	r0, #0
 8000548:	bf04      	itt	eq
 800054a:	2100      	moveq	r1, #0
 800054c:	4770      	bxeq	lr
 800054e:	b530      	push	{r4, r5, lr}
 8000550:	f44f 6480 	mov.w	r4, #1024	; 0x400
 8000554:	f104 0432 	add.w	r4, r4, #50	; 0x32
 8000558:	f04f 0500 	mov.w	r5, #0
 800055c:	f04f 0100 	mov.w	r1, #0
 8000560:	e750      	b.n	8000404 <__adddf3+0x138>
 8000562:	bf00      	nop

08000564 <__aeabi_i2d>:
 8000564:	f090 0f00 	teq	r0, #0
 8000568:	bf04      	itt	eq
 800056a:	2100      	moveq	r1, #0
 800056c:	4770      	bxeq	lr
 800056e:	b530      	push	{r4, r5, lr}
 8000570:	f44f 6480 	mov.w	r4, #1024	; 0x400
 8000574:	f104 0432 	add.w	r4, r4, #50	; 0x32
 8000578:	f010 4500 	ands.w	r5, r0, #2147483648	; 0x80000000
 800057c:	bf48      	it	mi
 800057e:	4240      	negmi	r0, r0
 8000580:	f04f 0100 	mov.w	r1, #0
 8000584:	e73e      	b.n	8000404 <__adddf3+0x138>
 8000586:	bf00      	nop

08000588 <__aeabi_f2d>:
 8000588:	0042      	lsls	r2, r0, #1
 800058a:	ea4f 01e2 	mov.w	r1, r2, asr #3
 800058e:	ea4f 0131 	mov.w	r1, r1, rrx
 8000592:	ea4f 7002 	mov.w	r0, r2, lsl #28
 8000596:	bf1f      	itttt	ne
 8000598:	f012 437f 	andsne.w	r3, r2, #4278190080	; 0xff000000
 800059c:	f093 4f7f 	teqne	r3, #4278190080	; 0xff000000
 80005a0:	f081 5160 	eorne.w	r1, r1, #939524096	; 0x38000000
 80005a4:	4770      	bxne	lr
 80005a6:	f032 427f 	bics.w	r2, r2, #4278190080	; 0xff000000
 80005aa:	bf08      	it	eq
 80005ac:	4770      	bxeq	lr
 80005ae:	f093 4f7f 	teq	r3, #4278190080	; 0xff000000
 80005b2:	bf04      	itt	eq
 80005b4:	f441 2100 	orreq.w	r1, r1, #524288	; 0x80000
 80005b8:	4770      	bxeq	lr
 80005ba:	b530      	push	{r4, r5, lr}
 80005bc:	f44f 7460 	mov.w	r4, #896	; 0x380
 80005c0:	f001 4500 	and.w	r5, r1, #2147483648	; 0x80000000
 80005c4:	f021 4100 	bic.w	r1, r1, #2147483648	; 0x80000000
 80005c8:	e71c      	b.n	8000404 <__adddf3+0x138>
 80005ca:	bf00      	nop

080005cc <__aeabi_ul2d>:
 80005cc:	ea50 0201 	orrs.w	r2, r0, r1
 80005d0:	bf08      	it	eq
 80005d2:	4770      	bxeq	lr
 80005d4:	b530      	push	{r4, r5, lr}
 80005d6:	f04f 0500 	mov.w	r5, #0
 80005da:	e00a      	b.n	80005f2 <__aeabi_l2d+0x16>

080005dc <__aeabi_l2d>:
 80005dc:	ea50 0201 	orrs.w	r2, r0, r1
 80005e0:	bf08      	it	eq
 80005e2:	4770      	bxeq	lr
 80005e4:	b530      	push	{r4, r5, lr}
 80005e6:	f011 4500 	ands.w	r5, r1, #2147483648	; 0x80000000
 80005ea:	d502      	bpl.n	80005f2 <__aeabi_l2d+0x16>
 80005ec:	4240      	negs	r0, r0
 80005ee:	eb61 0141 	sbc.w	r1, r1, r1, lsl #1
 80005f2:	f44f 6480 	mov.w	r4, #1024	; 0x400
 80005f6:	f104 0432 	add.w	r4, r4, #50	; 0x32
 80005fa:	ea5f 5c91 	movs.w	ip, r1, lsr #22
 80005fe:	f43f aed8 	beq.w	80003b2 <__adddf3+0xe6>
 8000602:	f04f 0203 	mov.w	r2, #3
 8000606:	ea5f 0cdc 	movs.w	ip, ip, lsr #3
 800060a:	bf18      	it	ne
 800060c:	3203      	addne	r2, #3
 800060e:	ea5f 0cdc 	movs.w	ip, ip, lsr #3
 8000612:	bf18      	it	ne
 8000614:	3203      	addne	r2, #3
 8000616:	eb02 02dc 	add.w	r2, r2, ip, lsr #3
 800061a:	f1c2 0320 	rsb	r3, r2, #32
 800061e:	fa00 fc03 	lsl.w	ip, r0, r3
 8000622:	fa20 f002 	lsr.w	r0, r0, r2
 8000626:	fa01 fe03 	lsl.w	lr, r1, r3
 800062a:	ea40 000e 	orr.w	r0, r0, lr
 800062e:	fa21 f102 	lsr.w	r1, r1, r2
 8000632:	4414      	add	r4, r2
 8000634:	e6bd      	b.n	80003b2 <__adddf3+0xe6>
 8000636:	bf00      	nop

08000638 <__aeabi_dmul>:
 8000638:	b570      	push	{r4, r5, r6, lr}
 800063a:	f04f 0cff 	mov.w	ip, #255	; 0xff
 800063e:	f44c 6ce0 	orr.w	ip, ip, #1792	; 0x700
 8000642:	ea1c 5411 	ands.w	r4, ip, r1, lsr #20
 8000646:	bf1d      	ittte	ne
 8000648:	ea1c 5513 	andsne.w	r5, ip, r3, lsr #20
 800064c:	ea94 0f0c 	teqne	r4, ip
 8000650:	ea95 0f0c 	teqne	r5, ip
 8000654:	f000 f8de 	bleq	8000814 <__aeabi_dmul+0x1dc>
 8000658:	442c      	add	r4, r5
 800065a:	ea81 0603 	eor.w	r6, r1, r3
 800065e:	ea21 514c 	bic.w	r1, r1, ip, lsl #21
 8000662:	ea23 534c 	bic.w	r3, r3, ip, lsl #21
 8000666:	ea50 3501 	orrs.w	r5, r0, r1, lsl #12
 800066a:	bf18      	it	ne
 800066c:	ea52 3503 	orrsne.w	r5, r2, r3, lsl #12
 8000670:	f441 1180 	orr.w	r1, r1, #1048576	; 0x100000
 8000674:	f443 1380 	orr.w	r3, r3, #1048576	; 0x100000
 8000678:	d038      	beq.n	80006ec <__aeabi_dmul+0xb4>
 800067a:	fba0 ce02 	umull	ip, lr, r0, r2
 800067e:	f04f 0500 	mov.w	r5, #0
 8000682:	fbe1 e502 	umlal	lr, r5, r1, r2
 8000686:	f006 4200 	and.w	r2, r6, #2147483648	; 0x80000000
 800068a:	fbe0 e503 	umlal	lr, r5, r0, r3
 800068e:	f04f 0600 	mov.w	r6, #0
 8000692:	fbe1 5603 	umlal	r5, r6, r1, r3
 8000696:	f09c 0f00 	teq	ip, #0
 800069a:	bf18      	it	ne
 800069c:	f04e 0e01 	orrne.w	lr, lr, #1
 80006a0:	f1a4 04ff 	sub.w	r4, r4, #255	; 0xff
 80006a4:	f5b6 7f00 	cmp.w	r6, #512	; 0x200
 80006a8:	f564 7440 	sbc.w	r4, r4, #768	; 0x300
 80006ac:	d204      	bcs.n	80006b8 <__aeabi_dmul+0x80>
 80006ae:	ea5f 0e4e 	movs.w	lr, lr, lsl #1
 80006b2:	416d      	adcs	r5, r5
 80006b4:	eb46 0606 	adc.w	r6, r6, r6
 80006b8:	ea42 21c6 	orr.w	r1, r2, r6, lsl #11
 80006bc:	ea41 5155 	orr.w	r1, r1, r5, lsr #21
 80006c0:	ea4f 20c5 	mov.w	r0, r5, lsl #11
 80006c4:	ea40 505e 	orr.w	r0, r0, lr, lsr #21
 80006c8:	ea4f 2ece 	mov.w	lr, lr, lsl #11
 80006cc:	f1b4 0cfd 	subs.w	ip, r4, #253	; 0xfd
 80006d0:	bf88      	it	hi
 80006d2:	f5bc 6fe0 	cmphi.w	ip, #1792	; 0x700
 80006d6:	d81e      	bhi.n	8000716 <__aeabi_dmul+0xde>
 80006d8:	f1be 4f00 	cmp.w	lr, #2147483648	; 0x80000000
 80006dc:	bf08      	it	eq
 80006de:	ea5f 0e50 	movseq.w	lr, r0, lsr #1
 80006e2:	f150 0000 	adcs.w	r0, r0, #0
 80006e6:	eb41 5104 	adc.w	r1, r1, r4, lsl #20
 80006ea:	bd70      	pop	{r4, r5, r6, pc}
 80006ec:	f006 4600 	and.w	r6, r6, #2147483648	; 0x80000000
 80006f0:	ea46 0101 	orr.w	r1, r6, r1
 80006f4:	ea40 0002 	orr.w	r0, r0, r2
 80006f8:	ea81 0103 	eor.w	r1, r1, r3
 80006fc:	ebb4 045c 	subs.w	r4, r4, ip, lsr #1
 8000700:	bfc2      	ittt	gt
 8000702:	ebd4 050c 	rsbsgt	r5, r4, ip
 8000706:	ea41 5104 	orrgt.w	r1, r1, r4, lsl #20
 800070a:	bd70      	popgt	{r4, r5, r6, pc}
 800070c:	f441 1180 	orr.w	r1, r1, #1048576	; 0x100000
 8000710:	f04f 0e00 	mov.w	lr, #0
 8000714:	3c01      	subs	r4, #1
 8000716:	f300 80ab 	bgt.w	8000870 <__aeabi_dmul+0x238>
 800071a:	f114 0f36 	cmn.w	r4, #54	; 0x36
 800071e:	bfde      	ittt	le
 8000720:	2000      	movle	r0, #0
 8000722:	f001 4100 	andle.w	r1, r1, #2147483648	; 0x80000000
 8000726:	bd70      	pople	{r4, r5, r6, pc}
 8000728:	f1c4 0400 	rsb	r4, r4, #0
 800072c:	3c20      	subs	r4, #32
 800072e:	da35      	bge.n	800079c <__aeabi_dmul+0x164>
 8000730:	340c      	adds	r4, #12
 8000732:	dc1b      	bgt.n	800076c <__aeabi_dmul+0x134>
 8000734:	f104 0414 	add.w	r4, r4, #20
 8000738:	f1c4 0520 	rsb	r5, r4, #32
 800073c:	fa00 f305 	lsl.w	r3, r0, r5
 8000740:	fa20 f004 	lsr.w	r0, r0, r4
 8000744:	fa01 f205 	lsl.w	r2, r1, r5
 8000748:	ea40 0002 	orr.w	r0, r0, r2
 800074c:	f001 4200 	and.w	r2, r1, #2147483648	; 0x80000000
 8000750:	f021 4100 	bic.w	r1, r1, #2147483648	; 0x80000000
 8000754:	eb10 70d3 	adds.w	r0, r0, r3, lsr #31
 8000758:	fa21 f604 	lsr.w	r6, r1, r4
 800075c:	eb42 0106 	adc.w	r1, r2, r6
 8000760:	ea5e 0e43 	orrs.w	lr, lr, r3, lsl #1
 8000764:	bf08      	it	eq
 8000766:	ea20 70d3 	biceq.w	r0, r0, r3, lsr #31
 800076a:	bd70      	pop	{r4, r5, r6, pc}
 800076c:	f1c4 040c 	rsb	r4, r4, #12
 8000770:	f1c4 0520 	rsb	r5, r4, #32
 8000774:	fa00 f304 	lsl.w	r3, r0, r4
 8000778:	fa20 f005 	lsr.w	r0, r0, r5
 800077c:	fa01 f204 	lsl.w	r2, r1, r4
 8000780:	ea40 0002 	orr.w	r0, r0, r2
 8000784:	f001 4100 	and.w	r1, r1, #2147483648	; 0x80000000
 8000788:	eb10 70d3 	adds.w	r0, r0, r3, lsr #31
 800078c:	f141 0100 	adc.w	r1, r1, #0
 8000790:	ea5e 0e43 	orrs.w	lr, lr, r3, lsl #1
 8000794:	bf08      	it	eq
 8000796:	ea20 70d3 	biceq.w	r0, r0, r3, lsr #31
 800079a:	bd70      	pop	{r4, r5, r6, pc}
 800079c:	f1c4 0520 	rsb	r5, r4, #32
 80007a0:	fa00 f205 	lsl.w	r2, r0, r5
 80007a4:	ea4e 0e02 	orr.w	lr, lr, r2
 80007a8:	fa20 f304 	lsr.w	r3, r0, r4
 80007ac:	fa01 f205 	lsl.w	r2, r1, r5
 80007b0:	ea43 0302 	orr.w	r3, r3, r2
 80007b4:	fa21 f004 	lsr.w	r0, r1, r4
 80007b8:	f001 4100 	and.w	r1, r1, #2147483648	; 0x80000000
 80007bc:	fa21 f204 	lsr.w	r2, r1, r4
 80007c0:	ea20 0002 	bic.w	r0, r0, r2
 80007c4:	eb00 70d3 	add.w	r0, r0, r3, lsr #31
 80007c8:	ea5e 0e43 	orrs.w	lr, lr, r3, lsl #1
 80007cc:	bf08      	it	eq
 80007ce:	ea20 70d3 	biceq.w	r0, r0, r3, lsr #31
 80007d2:	bd70      	pop	{r4, r5, r6, pc}
 80007d4:	f094 0f00 	teq	r4, #0
 80007d8:	d10f      	bne.n	80007fa <__aeabi_dmul+0x1c2>
 80007da:	f001 4600 	and.w	r6, r1, #2147483648	; 0x80000000
 80007de:	0040      	lsls	r0, r0, #1
 80007e0:	eb41 0101 	adc.w	r1, r1, r1
 80007e4:	f411 1f80 	tst.w	r1, #1048576	; 0x100000
 80007e8:	bf08      	it	eq
 80007ea:	3c01      	subeq	r4, #1
 80007ec:	d0f7      	beq.n	80007de <__aeabi_dmul+0x1a6>
 80007ee:	ea41 0106 	orr.w	r1, r1, r6
 80007f2:	f095 0f00 	teq	r5, #0
 80007f6:	bf18      	it	ne
 80007f8:	4770      	bxne	lr
 80007fa:	f003 4600 	and.w	r6, r3, #2147483648	; 0x80000000
 80007fe:	0052      	lsls	r2, r2, #1
 8000800:	eb43 0303 	adc.w	r3, r3, r3
 8000804:	f413 1f80 	tst.w	r3, #1048576	; 0x100000
 8000808:	bf08      	it	eq
 800080a:	3d01      	subeq	r5, #1
 800080c:	d0f7      	beq.n	80007fe <__aeabi_dmul+0x1c6>
 800080e:	ea43 0306 	orr.w	r3, r3, r6
 8000812:	4770      	bx	lr
 8000814:	ea94 0f0c 	teq	r4, ip
 8000818:	ea0c 5513 	and.w	r5, ip, r3, lsr #20
 800081c:	bf18      	it	ne
 800081e:	ea95 0f0c 	teqne	r5, ip
 8000822:	d00c      	beq.n	800083e <__aeabi_dmul+0x206>
 8000824:	ea50 0641 	orrs.w	r6, r0, r1, lsl #1
 8000828:	bf18      	it	ne
 800082a:	ea52 0643 	orrsne.w	r6, r2, r3, lsl #1
 800082e:	d1d1      	bne.n	80007d4 <__aeabi_dmul+0x19c>
 8000830:	ea81 0103 	eor.w	r1, r1, r3
 8000834:	f001 4100 	and.w	r1, r1, #2147483648	; 0x80000000
 8000838:	f04f 0000 	mov.w	r0, #0
 800083c:	bd70      	pop	{r4, r5, r6, pc}
 800083e:	ea50 0641 	orrs.w	r6, r0, r1, lsl #1
 8000842:	bf06      	itte	eq
 8000844:	4610      	moveq	r0, r2
 8000846:	4619      	moveq	r1, r3
 8000848:	ea52 0643 	orrsne.w	r6, r2, r3, lsl #1
 800084c:	d019      	beq.n	8000882 <__aeabi_dmul+0x24a>
 800084e:	ea94 0f0c 	teq	r4, ip
 8000852:	d102      	bne.n	800085a <__aeabi_dmul+0x222>
 8000854:	ea50 3601 	orrs.w	r6, r0, r1, lsl #12
 8000858:	d113      	bne.n	8000882 <__aeabi_dmul+0x24a>
 800085a:	ea95 0f0c 	teq	r5, ip
 800085e:	d105      	bne.n	800086c <__aeabi_dmul+0x234>
 8000860:	ea52 3603 	orrs.w	r6, r2, r3, lsl #12
 8000864:	bf1c      	itt	ne
 8000866:	4610      	movne	r0, r2
 8000868:	4619      	movne	r1, r3
 800086a:	d10a      	bne.n	8000882 <__aeabi_dmul+0x24a>
 800086c:	ea81 0103 	eor.w	r1, r1, r3
 8000870:	f001 4100 	and.w	r1, r1, #2147483648	; 0x80000000
 8000874:	f041 41fe 	orr.w	r1, r1, #2130706432	; 0x7f000000
 8000878:	f441 0170 	orr.w	r1, r1, #15728640	; 0xf00000
 800087c:	f04f 0000 	mov.w	r0, #0
 8000880:	bd70      	pop	{r4, r5, r6, pc}
 8000882:	f041 41fe 	orr.w	r1, r1, #2130706432	; 0x7f000000
 8000886:	f441 0178 	orr.w	r1, r1, #16252928	; 0xf80000
 800088a:	bd70      	pop	{r4, r5, r6, pc}

0800088c <__aeabi_ddiv>:
 800088c:	b570      	push	{r4, r5, r6, lr}
 800088e:	f04f 0cff 	mov.w	ip, #255	; 0xff
 8000892:	f44c 6ce0 	orr.w	ip, ip, #1792	; 0x700
 8000896:	ea1c 5411 	ands.w	r4, ip, r1, lsr #20
 800089a:	bf1d      	ittte	ne
 800089c:	ea1c 5513 	andsne.w	r5, ip, r3, lsr #20
 80008a0:	ea94 0f0c 	teqne	r4, ip
 80008a4:	ea95 0f0c 	teqne	r5, ip
 80008a8:	f000 f8a7 	bleq	80009fa <__aeabi_ddiv+0x16e>
 80008ac:	eba4 0405 	sub.w	r4, r4, r5
 80008b0:	ea81 0e03 	eor.w	lr, r1, r3
 80008b4:	ea52 3503 	orrs.w	r5, r2, r3, lsl #12
 80008b8:	ea4f 3101 	mov.w	r1, r1, lsl #12
 80008bc:	f000 8088 	beq.w	80009d0 <__aeabi_ddiv+0x144>
 80008c0:	ea4f 3303 	mov.w	r3, r3, lsl #12
 80008c4:	f04f 5580 	mov.w	r5, #268435456	; 0x10000000
 80008c8:	ea45 1313 	orr.w	r3, r5, r3, lsr #4
 80008cc:	ea43 6312 	orr.w	r3, r3, r2, lsr #24
 80008d0:	ea4f 2202 	mov.w	r2, r2, lsl #8
 80008d4:	ea45 1511 	orr.w	r5, r5, r1, lsr #4
 80008d8:	ea45 6510 	orr.w	r5, r5, r0, lsr #24
 80008dc:	ea4f 2600 	mov.w	r6, r0, lsl #8
 80008e0:	f00e 4100 	and.w	r1, lr, #2147483648	; 0x80000000
 80008e4:	429d      	cmp	r5, r3
 80008e6:	bf08      	it	eq
 80008e8:	4296      	cmpeq	r6, r2
 80008ea:	f144 04fd 	adc.w	r4, r4, #253	; 0xfd
 80008ee:	f504 7440 	add.w	r4, r4, #768	; 0x300
 80008f2:	d202      	bcs.n	80008fa <__aeabi_ddiv+0x6e>
 80008f4:	085b      	lsrs	r3, r3, #1
 80008f6:	ea4f 0232 	mov.w	r2, r2, rrx
 80008fa:	1ab6      	subs	r6, r6, r2
 80008fc:	eb65 0503 	sbc.w	r5, r5, r3
 8000900:	085b      	lsrs	r3, r3, #1
 8000902:	ea4f 0232 	mov.w	r2, r2, rrx
 8000906:	f44f 1080 	mov.w	r0, #1048576	; 0x100000
 800090a:	f44f 2c00 	mov.w	ip, #524288	; 0x80000
 800090e:	ebb6 0e02 	subs.w	lr, r6, r2
 8000912:	eb75 0e03 	sbcs.w	lr, r5, r3
 8000916:	bf22      	ittt	cs
 8000918:	1ab6      	subcs	r6, r6, r2
 800091a:	4675      	movcs	r5, lr
 800091c:	ea40 000c 	orrcs.w	r0, r0, ip
 8000920:	085b      	lsrs	r3, r3, #1
 8000922:	ea4f 0232 	mov.w	r2, r2, rrx
 8000926:	ebb6 0e02 	subs.w	lr, r6, r2
 800092a:	eb75 0e03 	sbcs.w	lr, r5, r3
 800092e:	bf22      	ittt	cs
 8000930:	1ab6      	subcs	r6, r6, r2
 8000932:	4675      	movcs	r5, lr
 8000934:	ea40 005c 	orrcs.w	r0, r0, ip, lsr #1
 8000938:	085b      	lsrs	r3, r3, #1
 800093a:	ea4f 0232 	mov.w	r2, r2, rrx
 800093e:	ebb6 0e02 	subs.w	lr, r6, r2
 8000942:	eb75 0e03 	sbcs.w	lr, r5, r3
 8000946:	bf22      	ittt	cs
 8000948:	1ab6      	subcs	r6, r6, r2
 800094a:	4675      	movcs	r5, lr
 800094c:	ea40 009c 	orrcs.w	r0, r0, ip, lsr #2
 8000950:	085b      	lsrs	r3, r3, #1
 8000952:	ea4f 0232 	mov.w	r2, r2, rrx
 8000956:	ebb6 0e02 	subs.w	lr, r6, r2
 800095a:	eb75 0e03 	sbcs.w	lr, r5, r3
 800095e:	bf22      	ittt	cs
 8000960:	1ab6      	subcs	r6, r6, r2
 8000962:	4675      	movcs	r5, lr
 8000964:	ea40 00dc 	orrcs.w	r0, r0, ip, lsr #3
 8000968:	ea55 0e06 	orrs.w	lr, r5, r6
 800096c:	d018      	beq.n	80009a0 <__aeabi_ddiv+0x114>
 800096e:	ea4f 1505 	mov.w	r5, r5, lsl #4
 8000972:	ea45 7516 	orr.w	r5, r5, r6, lsr #28
 8000976:	ea4f 1606 	mov.w	r6, r6, lsl #4
 800097a:	ea4f 03c3 	mov.w	r3, r3, lsl #3
 800097e:	ea43 7352 	orr.w	r3, r3, r2, lsr #29
 8000982:	ea4f 02c2 	mov.w	r2, r2, lsl #3
 8000986:	ea5f 1c1c 	movs.w	ip, ip, lsr #4
 800098a:	d1c0      	bne.n	800090e <__aeabi_ddiv+0x82>
 800098c:	f411 1f80 	tst.w	r1, #1048576	; 0x100000
 8000990:	d10b      	bne.n	80009aa <__aeabi_ddiv+0x11e>
 8000992:	ea41 0100 	orr.w	r1, r1, r0
 8000996:	f04f 0000 	mov.w	r0, #0
 800099a:	f04f 4c00 	mov.w	ip, #2147483648	; 0x80000000
 800099e:	e7b6      	b.n	800090e <__aeabi_ddiv+0x82>
 80009a0:	f411 1f80 	tst.w	r1, #1048576	; 0x100000
 80009a4:	bf04      	itt	eq
 80009a6:	4301      	orreq	r1, r0
 80009a8:	2000      	moveq	r0, #0
 80009aa:	f1b4 0cfd 	subs.w	ip, r4, #253	; 0xfd
 80009ae:	bf88      	it	hi
 80009b0:	f5bc 6fe0 	cmphi.w	ip, #1792	; 0x700
 80009b4:	f63f aeaf 	bhi.w	8000716 <__aeabi_dmul+0xde>
 80009b8:	ebb5 0c03 	subs.w	ip, r5, r3
 80009bc:	bf04      	itt	eq
 80009be:	ebb6 0c02 	subseq.w	ip, r6, r2
 80009c2:	ea5f 0c50 	movseq.w	ip, r0, lsr #1
 80009c6:	f150 0000 	adcs.w	r0, r0, #0
 80009ca:	eb41 5104 	adc.w	r1, r1, r4, lsl #20
 80009ce:	bd70      	pop	{r4, r5, r6, pc}
 80009d0:	f00e 4e00 	and.w	lr, lr, #2147483648	; 0x80000000
 80009d4:	ea4e 3111 	orr.w	r1, lr, r1, lsr #12
 80009d8:	eb14 045c 	adds.w	r4, r4, ip, lsr #1
 80009dc:	bfc2      	ittt	gt
 80009de:	ebd4 050c 	rsbsgt	r5, r4, ip
 80009e2:	ea41 5104 	orrgt.w	r1, r1, r4, lsl #20
 80009e6:	bd70      	popgt	{r4, r5, r6, pc}
 80009e8:	f441 1180 	orr.w	r1, r1, #1048576	; 0x100000
 80009ec:	f04f 0e00 	mov.w	lr, #0
 80009f0:	3c01      	subs	r4, #1
 80009f2:	e690      	b.n	8000716 <__aeabi_dmul+0xde>
 80009f4:	ea45 0e06 	orr.w	lr, r5, r6
 80009f8:	e68d      	b.n	8000716 <__aeabi_dmul+0xde>
 80009fa:	ea0c 5513 	and.w	r5, ip, r3, lsr #20
 80009fe:	ea94 0f0c 	teq	r4, ip
 8000a02:	bf08      	it	eq
 8000a04:	ea95 0f0c 	teqeq	r5, ip
 8000a08:	f43f af3b 	beq.w	8000882 <__aeabi_dmul+0x24a>
 8000a0c:	ea94 0f0c 	teq	r4, ip
 8000a10:	d10a      	bne.n	8000a28 <__aeabi_ddiv+0x19c>
 8000a12:	ea50 3401 	orrs.w	r4, r0, r1, lsl #12
 8000a16:	f47f af34 	bne.w	8000882 <__aeabi_dmul+0x24a>
 8000a1a:	ea95 0f0c 	teq	r5, ip
 8000a1e:	f47f af25 	bne.w	800086c <__aeabi_dmul+0x234>
 8000a22:	4610      	mov	r0, r2
 8000a24:	4619      	mov	r1, r3
 8000a26:	e72c      	b.n	8000882 <__aeabi_dmul+0x24a>
 8000a28:	ea95 0f0c 	teq	r5, ip
 8000a2c:	d106      	bne.n	8000a3c <__aeabi_ddiv+0x1b0>
 8000a2e:	ea52 3503 	orrs.w	r5, r2, r3, lsl #12
 8000a32:	f43f aefd 	beq.w	8000830 <__aeabi_dmul+0x1f8>
 8000a36:	4610      	mov	r0, r2
 8000a38:	4619      	mov	r1, r3
 8000a3a:	e722      	b.n	8000882 <__aeabi_dmul+0x24a>
 8000a3c:	ea50 0641 	orrs.w	r6, r0, r1, lsl #1
 8000a40:	bf18      	it	ne
 8000a42:	ea52 0643 	orrsne.w	r6, r2, r3, lsl #1
 8000a46:	f47f aec5 	bne.w	80007d4 <__aeabi_dmul+0x19c>
 8000a4a:	ea50 0441 	orrs.w	r4, r0, r1, lsl #1
 8000a4e:	f47f af0d 	bne.w	800086c <__aeabi_dmul+0x234>
 8000a52:	ea52 0543 	orrs.w	r5, r2, r3, lsl #1
 8000a56:	f47f aeeb 	bne.w	8000830 <__aeabi_dmul+0x1f8>
 8000a5a:	e712      	b.n	8000882 <__aeabi_dmul+0x24a>

08000a5c <__gedf2>:
 8000a5c:	f04f 3cff 	mov.w	ip, #4294967295
 8000a60:	e006      	b.n	8000a70 <__cmpdf2+0x4>
 8000a62:	bf00      	nop

08000a64 <__ledf2>:
 8000a64:	f04f 0c01 	mov.w	ip, #1
 8000a68:	e002      	b.n	8000a70 <__cmpdf2+0x4>
 8000a6a:	bf00      	nop

08000a6c <__cmpdf2>:
 8000a6c:	f04f 0c01 	mov.w	ip, #1
 8000a70:	f84d cd04 	str.w	ip, [sp, #-4]!
 8000a74:	ea4f 0c41 	mov.w	ip, r1, lsl #1
 8000a78:	ea7f 5c6c 	mvns.w	ip, ip, asr #21
 8000a7c:	ea4f 0c43 	mov.w	ip, r3, lsl #1
 8000a80:	bf18      	it	ne
 8000a82:	ea7f 5c6c 	mvnsne.w	ip, ip, asr #21
 8000a86:	d01b      	beq.n	8000ac0 <__cmpdf2+0x54>
 8000a88:	b001      	add	sp, #4
 8000a8a:	ea50 0c41 	orrs.w	ip, r0, r1, lsl #1
 8000a8e:	bf0c      	ite	eq
 8000a90:	ea52 0c43 	orrseq.w	ip, r2, r3, lsl #1
 8000a94:	ea91 0f03 	teqne	r1, r3
 8000a98:	bf02      	ittt	eq
 8000a9a:	ea90 0f02 	teqeq	r0, r2
 8000a9e:	2000      	moveq	r0, #0
 8000aa0:	4770      	bxeq	lr
 8000aa2:	f110 0f00 	cmn.w	r0, #0
 8000aa6:	ea91 0f03 	teq	r1, r3
 8000aaa:	bf58      	it	pl
 8000aac:	4299      	cmppl	r1, r3
 8000aae:	bf08      	it	eq
 8000ab0:	4290      	cmpeq	r0, r2
 8000ab2:	bf2c      	ite	cs
 8000ab4:	17d8      	asrcs	r0, r3, #31
 8000ab6:	ea6f 70e3 	mvncc.w	r0, r3, asr #31
 8000aba:	f040 0001 	orr.w	r0, r0, #1
 8000abe:	4770      	bx	lr
 8000ac0:	ea4f 0c41 	mov.w	ip, r1, lsl #1
 8000ac4:	ea7f 5c6c 	mvns.w	ip, ip, asr #21
 8000ac8:	d102      	bne.n	8000ad0 <__cmpdf2+0x64>
 8000aca:	ea50 3c01 	orrs.w	ip, r0, r1, lsl #12
 8000ace:	d107      	bne.n	8000ae0 <__cmpdf2+0x74>
 8000ad0:	ea4f 0c43 	mov.w	ip, r3, lsl #1
 8000ad4:	ea7f 5c6c 	mvns.w	ip, ip, asr #21
 8000ad8:	d1d6      	bne.n	8000a88 <__cmpdf2+0x1c>
 8000ada:	ea52 3c03 	orrs.w	ip, r2, r3, lsl #12
 8000ade:	d0d3      	beq.n	8000a88 <__cmpdf2+0x1c>
 8000ae0:	f85d 0b04 	ldr.w	r0, [sp], #4
 8000ae4:	4770      	bx	lr
 8000ae6:	bf00      	nop

08000ae8 <__aeabi_cdrcmple>:
 8000ae8:	4684      	mov	ip, r0
 8000aea:	4610      	mov	r0, r2
 8000aec:	4662      	mov	r2, ip
 8000aee:	468c      	mov	ip, r1
 8000af0:	4619      	mov	r1, r3
 8000af2:	4663      	mov	r3, ip
 8000af4:	e000      	b.n	8000af8 <__aeabi_cdcmpeq>
 8000af6:	bf00      	nop

08000af8 <__aeabi_cdcmpeq>:
 8000af8:	b501      	push	{r0, lr}
 8000afa:	f7ff ffb7 	bl	8000a6c <__cmpdf2>
 8000afe:	2800      	cmp	r0, #0
 8000b00:	bf48      	it	mi
 8000b02:	f110 0f00 	cmnmi.w	r0, #0
 8000b06:	bd01      	pop	{r0, pc}

08000b08 <__aeabi_dcmpeq>:
 8000b08:	f84d ed08 	str.w	lr, [sp, #-8]!
 8000b0c:	f7ff fff4 	bl	8000af8 <__aeabi_cdcmpeq>
 8000b10:	bf0c      	ite	eq
 8000b12:	2001      	moveq	r0, #1
 8000b14:	2000      	movne	r0, #0
 8000b16:	f85d fb08 	ldr.w	pc, [sp], #8
 8000b1a:	bf00      	nop

08000b1c <__aeabi_dcmplt>:
 8000b1c:	f84d ed08 	str.w	lr, [sp, #-8]!
 8000b20:	f7ff ffea 	bl	8000af8 <__aeabi_cdcmpeq>
 8000b24:	bf34      	ite	cc
 8000b26:	2001      	movcc	r0, #1
 8000b28:	2000      	movcs	r0, #0
 8000b2a:	f85d fb08 	ldr.w	pc, [sp], #8
 8000b2e:	bf00      	nop

08000b30 <__aeabi_dcmple>:
 8000b30:	f84d ed08 	str.w	lr, [sp, #-8]!
 8000b34:	f7ff ffe0 	bl	8000af8 <__aeabi_cdcmpeq>
 8000b38:	bf94      	ite	ls
 8000b3a:	2001      	movls	r0, #1
 8000b3c:	2000      	movhi	r0, #0
 8000b3e:	f85d fb08 	ldr.w	pc, [sp], #8
 8000b42:	bf00      	nop

08000b44 <__aeabi_dcmpge>:
 8000b44:	f84d ed08 	str.w	lr, [sp, #-8]!
 8000b48:	f7ff ffce 	bl	8000ae8 <__aeabi_cdrcmple>
 8000b4c:	bf94      	ite	ls
 8000b4e:	2001      	movls	r0, #1
 8000b50:	2000      	movhi	r0, #0
 8000b52:	f85d fb08 	ldr.w	pc, [sp], #8
 8000b56:	bf00      	nop

08000b58 <__aeabi_dcmpgt>:
 8000b58:	f84d ed08 	str.w	lr, [sp, #-8]!
 8000b5c:	f7ff ffc4 	bl	8000ae8 <__aeabi_cdrcmple>
 8000b60:	bf34      	ite	cc
 8000b62:	2001      	movcc	r0, #1
 8000b64:	2000      	movcs	r0, #0
 8000b66:	f85d fb08 	ldr.w	pc, [sp], #8
 8000b6a:	bf00      	nop

08000b6c <__aeabi_dcmpun>:
 8000b6c:	ea4f 0c41 	mov.w	ip, r1, lsl #1
 8000b70:	ea7f 5c6c 	mvns.w	ip, ip, asr #21
 8000b74:	d102      	bne.n	8000b7c <__aeabi_dcmpun+0x10>
 8000b76:	ea50 3c01 	orrs.w	ip, r0, r1, lsl #12
 8000b7a:	d10a      	bne.n	8000b92 <__aeabi_dcmpun+0x26>
 8000b7c:	ea4f 0c43 	mov.w	ip, r3, lsl #1
 8000b80:	ea7f 5c6c 	mvns.w	ip, ip, asr #21
 8000b84:	d102      	bne.n	8000b8c <__aeabi_dcmpun+0x20>
 8000b86:	ea52 3c03 	orrs.w	ip, r2, r3, lsl #12
 8000b8a:	d102      	bne.n	8000b92 <__aeabi_dcmpun+0x26>
 8000b8c:	f04f 0000 	mov.w	r0, #0
 8000b90:	4770      	bx	lr
 8000b92:	f04f 0001 	mov.w	r0, #1
 8000b96:	4770      	bx	lr

08000b98 <__aeabi_d2iz>:
 8000b98:	ea4f 0241 	mov.w	r2, r1, lsl #1
 8000b9c:	f512 1200 	adds.w	r2, r2, #2097152	; 0x200000
 8000ba0:	d215      	bcs.n	8000bce <__aeabi_d2iz+0x36>
 8000ba2:	d511      	bpl.n	8000bc8 <__aeabi_d2iz+0x30>
 8000ba4:	f46f 7378 	mvn.w	r3, #992	; 0x3e0
 8000ba8:	ebb3 5262 	subs.w	r2, r3, r2, asr #21
 8000bac:	d912      	bls.n	8000bd4 <__aeabi_d2iz+0x3c>
 8000bae:	ea4f 23c1 	mov.w	r3, r1, lsl #11
 8000bb2:	f043 4300 	orr.w	r3, r3, #2147483648	; 0x80000000
 8000bb6:	ea43 5350 	orr.w	r3, r3, r0, lsr #21
 8000bba:	f011 4f00 	tst.w	r1, #2147483648	; 0x80000000
 8000bbe:	fa23 f002 	lsr.w	r0, r3, r2
 8000bc2:	bf18      	it	ne
 8000bc4:	4240      	negne	r0, r0
 8000bc6:	4770      	bx	lr
 8000bc8:	f04f 0000 	mov.w	r0, #0
 8000bcc:	4770      	bx	lr
 8000bce:	ea50 3001 	orrs.w	r0, r0, r1, lsl #12
 8000bd2:	d105      	bne.n	8000be0 <__aeabi_d2iz+0x48>
 8000bd4:	f011 4000 	ands.w	r0, r1, #2147483648	; 0x80000000
 8000bd8:	bf08      	it	eq
 8000bda:	f06f 4000 	mvneq.w	r0, #2147483648	; 0x80000000
 8000bde:	4770      	bx	lr
 8000be0:	f04f 0000 	mov.w	r0, #0
 8000be4:	4770      	bx	lr
 8000be6:	bf00      	nop

08000be8 <__aeabi_d2f>:
 8000be8:	ea4f 0241 	mov.w	r2, r1, lsl #1
 8000bec:	f1b2 43e0 	subs.w	r3, r2, #1879048192	; 0x70000000
 8000bf0:	bf24      	itt	cs
 8000bf2:	f5b3 1c00 	subscs.w	ip, r3, #2097152	; 0x200000
 8000bf6:	f1dc 5cfe 	rsbscs	ip, ip, #532676608	; 0x1fc00000
 8000bfa:	d90d      	bls.n	8000c18 <__aeabi_d2f+0x30>
 8000bfc:	f001 4c00 	and.w	ip, r1, #2147483648	; 0x80000000
 8000c00:	ea4f 02c0 	mov.w	r2, r0, lsl #3
 8000c04:	ea4c 7050 	orr.w	r0, ip, r0, lsr #29
 8000c08:	f1b2 4f00 	cmp.w	r2, #2147483648	; 0x80000000
 8000c0c:	eb40 0083 	adc.w	r0, r0, r3, lsl #2
 8000c10:	bf08      	it	eq
 8000c12:	f020 0001 	biceq.w	r0, r0, #1
 8000c16:	4770      	bx	lr
 8000c18:	f011 4f80 	tst.w	r1, #1073741824	; 0x40000000
 8000c1c:	d121      	bne.n	8000c62 <__aeabi_d2f+0x7a>
 8000c1e:	f113 7238 	adds.w	r2, r3, #48234496	; 0x2e00000
 8000c22:	bfbc      	itt	lt
 8000c24:	f001 4000 	andlt.w	r0, r1, #2147483648	; 0x80000000
 8000c28:	4770      	bxlt	lr
 8000c2a:	f441 1180 	orr.w	r1, r1, #1048576	; 0x100000
 8000c2e:	ea4f 5252 	mov.w	r2, r2, lsr #21
 8000c32:	f1c2 0218 	rsb	r2, r2, #24
 8000c36:	f1c2 0c20 	rsb	ip, r2, #32
 8000c3a:	fa10 f30c 	lsls.w	r3, r0, ip
 8000c3e:	fa20 f002 	lsr.w	r0, r0, r2
 8000c42:	bf18      	it	ne
 8000c44:	f040 0001 	orrne.w	r0, r0, #1
 8000c48:	ea4f 23c1 	mov.w	r3, r1, lsl #11
 8000c4c:	ea4f 23d3 	mov.w	r3, r3, lsr #11
 8000c50:	fa03 fc0c 	lsl.w	ip, r3, ip
 8000c54:	ea40 000c 	orr.w	r0, r0, ip
 8000c58:	fa23 f302 	lsr.w	r3, r3, r2
 8000c5c:	ea4f 0343 	mov.w	r3, r3, lsl #1
 8000c60:	e7cc      	b.n	8000bfc <__aeabi_d2f+0x14>
 8000c62:	ea7f 5362 	mvns.w	r3, r2, asr #21
 8000c66:	d107      	bne.n	8000c78 <__aeabi_d2f+0x90>
 8000c68:	ea50 3301 	orrs.w	r3, r0, r1, lsl #12
 8000c6c:	bf1e      	ittt	ne
 8000c6e:	f04f 40fe 	movne.w	r0, #2130706432	; 0x7f000000
 8000c72:	f440 0040 	orrne.w	r0, r0, #12582912	; 0xc00000
 8000c76:	4770      	bxne	lr
 8000c78:	f001 4000 	and.w	r0, r1, #2147483648	; 0x80000000
 8000c7c:	f040 40fe 	orr.w	r0, r0, #2130706432	; 0x7f000000
 8000c80:	f440 0000 	orr.w	r0, r0, #8388608	; 0x800000
 8000c84:	4770      	bx	lr
 8000c86:	bf00      	nop

08000c88 <__aeabi_uldivmod>:
 8000c88:	b953      	cbnz	r3, 8000ca0 <__aeabi_uldivmod+0x18>
 8000c8a:	b94a      	cbnz	r2, 8000ca0 <__aeabi_uldivmod+0x18>
 8000c8c:	2900      	cmp	r1, #0
 8000c8e:	bf08      	it	eq
 8000c90:	2800      	cmpeq	r0, #0
 8000c92:	bf1c      	itt	ne
 8000c94:	f04f 31ff 	movne.w	r1, #4294967295
 8000c98:	f04f 30ff 	movne.w	r0, #4294967295
 8000c9c:	f000 b972 	b.w	8000f84 <__aeabi_idiv0>
 8000ca0:	f1ad 0c08 	sub.w	ip, sp, #8
 8000ca4:	e96d ce04 	strd	ip, lr, [sp, #-16]!
 8000ca8:	f000 f806 	bl	8000cb8 <__udivmoddi4>
 8000cac:	f8dd e004 	ldr.w	lr, [sp, #4]
 8000cb0:	e9dd 2302 	ldrd	r2, r3, [sp, #8]
 8000cb4:	b004      	add	sp, #16
 8000cb6:	4770      	bx	lr

08000cb8 <__udivmoddi4>:
 8000cb8:	e92d 47f0 	stmdb	sp!, {r4, r5, r6, r7, r8, r9, sl, lr}
 8000cbc:	9e08      	ldr	r6, [sp, #32]
 8000cbe:	4604      	mov	r4, r0
 8000cc0:	4688      	mov	r8, r1
 8000cc2:	2b00      	cmp	r3, #0
 8000cc4:	d14b      	bne.n	8000d5e <__udivmoddi4+0xa6>
 8000cc6:	428a      	cmp	r2, r1
 8000cc8:	4615      	mov	r5, r2
 8000cca:	d967      	bls.n	8000d9c <__udivmoddi4+0xe4>
 8000ccc:	fab2 f282 	clz	r2, r2
 8000cd0:	b14a      	cbz	r2, 8000ce6 <__udivmoddi4+0x2e>
 8000cd2:	f1c2 0720 	rsb	r7, r2, #32
 8000cd6:	fa01 f302 	lsl.w	r3, r1, r2
 8000cda:	fa20 f707 	lsr.w	r7, r0, r7
 8000cde:	4095      	lsls	r5, r2
 8000ce0:	ea47 0803 	orr.w	r8, r7, r3
 8000ce4:	4094      	lsls	r4, r2
 8000ce6:	ea4f 4e15 	mov.w	lr, r5, lsr #16
 8000cea:	0c23      	lsrs	r3, r4, #16
 8000cec:	fbb8 f7fe 	udiv	r7, r8, lr
 8000cf0:	fa1f fc85 	uxth.w	ip, r5
 8000cf4:	fb0e 8817 	mls	r8, lr, r7, r8
 8000cf8:	ea43 4308 	orr.w	r3, r3, r8, lsl #16
 8000cfc:	fb07 f10c 	mul.w	r1, r7, ip
 8000d00:	4299      	cmp	r1, r3
 8000d02:	d909      	bls.n	8000d18 <__udivmoddi4+0x60>
 8000d04:	18eb      	adds	r3, r5, r3
 8000d06:	f107 30ff 	add.w	r0, r7, #4294967295
 8000d0a:	f080 811b 	bcs.w	8000f44 <__udivmoddi4+0x28c>
 8000d0e:	4299      	cmp	r1, r3
 8000d10:	f240 8118 	bls.w	8000f44 <__udivmoddi4+0x28c>
 8000d14:	3f02      	subs	r7, #2
 8000d16:	442b      	add	r3, r5
 8000d18:	1a5b      	subs	r3, r3, r1
 8000d1a:	b2a4      	uxth	r4, r4
 8000d1c:	fbb3 f0fe 	udiv	r0, r3, lr
 8000d20:	fb0e 3310 	mls	r3, lr, r0, r3
 8000d24:	ea44 4403 	orr.w	r4, r4, r3, lsl #16
 8000d28:	fb00 fc0c 	mul.w	ip, r0, ip
 8000d2c:	45a4      	cmp	ip, r4
 8000d2e:	d909      	bls.n	8000d44 <__udivmoddi4+0x8c>
 8000d30:	192c      	adds	r4, r5, r4
 8000d32:	f100 33ff 	add.w	r3, r0, #4294967295
 8000d36:	f080 8107 	bcs.w	8000f48 <__udivmoddi4+0x290>
 8000d3a:	45a4      	cmp	ip, r4
 8000d3c:	f240 8104 	bls.w	8000f48 <__udivmoddi4+0x290>
 8000d40:	3802      	subs	r0, #2
 8000d42:	442c      	add	r4, r5
 8000d44:	ea40 4007 	orr.w	r0, r0, r7, lsl #16
 8000d48:	eba4 040c 	sub.w	r4, r4, ip
 8000d4c:	2700      	movs	r7, #0
 8000d4e:	b11e      	cbz	r6, 8000d58 <__udivmoddi4+0xa0>
 8000d50:	40d4      	lsrs	r4, r2
 8000d52:	2300      	movs	r3, #0
 8000d54:	e9c6 4300 	strd	r4, r3, [r6]
 8000d58:	4639      	mov	r1, r7
 8000d5a:	e8bd 87f0 	ldmia.w	sp!, {r4, r5, r6, r7, r8, r9, sl, pc}
 8000d5e:	428b      	cmp	r3, r1
 8000d60:	d909      	bls.n	8000d76 <__udivmoddi4+0xbe>
 8000d62:	2e00      	cmp	r6, #0
 8000d64:	f000 80eb 	beq.w	8000f3e <__udivmoddi4+0x286>
 8000d68:	2700      	movs	r7, #0
 8000d6a:	e9c6 0100 	strd	r0, r1, [r6]
 8000d6e:	4638      	mov	r0, r7
 8000d70:	4639      	mov	r1, r7
 8000d72:	e8bd 87f0 	ldmia.w	sp!, {r4, r5, r6, r7, r8, r9, sl, pc}
 8000d76:	fab3 f783 	clz	r7, r3
 8000d7a:	2f00      	cmp	r7, #0
 8000d7c:	d147      	bne.n	8000e0e <__udivmoddi4+0x156>
 8000d7e:	428b      	cmp	r3, r1
 8000d80:	d302      	bcc.n	8000d88 <__udivmoddi4+0xd0>
 8000d82:	4282      	cmp	r2, r0
 8000d84:	f200 80fa 	bhi.w	8000f7c <__udivmoddi4+0x2c4>
 8000d88:	1a84      	subs	r4, r0, r2
 8000d8a:	eb61 0303 	sbc.w	r3, r1, r3
 8000d8e:	2001      	movs	r0, #1
 8000d90:	4698      	mov	r8, r3
 8000d92:	2e00      	cmp	r6, #0
 8000d94:	d0e0      	beq.n	8000d58 <__udivmoddi4+0xa0>
 8000d96:	e9c6 4800 	strd	r4, r8, [r6]
 8000d9a:	e7dd      	b.n	8000d58 <__udivmoddi4+0xa0>
 8000d9c:	b902      	cbnz	r2, 8000da0 <__udivmoddi4+0xe8>
 8000d9e:	deff      	udf	#255	; 0xff
 8000da0:	fab2 f282 	clz	r2, r2
 8000da4:	2a00      	cmp	r2, #0
 8000da6:	f040 808f 	bne.w	8000ec8 <__udivmoddi4+0x210>
 8000daa:	1b49      	subs	r1, r1, r5
 8000dac:	ea4f 4e15 	mov.w	lr, r5, lsr #16
 8000db0:	fa1f f885 	uxth.w	r8, r5
 8000db4:	2701      	movs	r7, #1
 8000db6:	fbb1 fcfe 	udiv	ip, r1, lr
 8000dba:	0c23      	lsrs	r3, r4, #16
 8000dbc:	fb0e 111c 	mls	r1, lr, ip, r1
 8000dc0:	ea43 4301 	orr.w	r3, r3, r1, lsl #16
 8000dc4:	fb08 f10c 	mul.w	r1, r8, ip
 8000dc8:	4299      	cmp	r1, r3
 8000dca:	d907      	bls.n	8000ddc <__udivmoddi4+0x124>
 8000dcc:	18eb      	adds	r3, r5, r3
 8000dce:	f10c 30ff 	add.w	r0, ip, #4294967295
 8000dd2:	d202      	bcs.n	8000dda <__udivmoddi4+0x122>
 8000dd4:	4299      	cmp	r1, r3
 8000dd6:	f200 80cd 	bhi.w	8000f74 <__udivmoddi4+0x2bc>
 8000dda:	4684      	mov	ip, r0
 8000ddc:	1a59      	subs	r1, r3, r1
 8000dde:	b2a3      	uxth	r3, r4
 8000de0:	fbb1 f0fe 	udiv	r0, r1, lr
 8000de4:	fb0e 1410 	mls	r4, lr, r0, r1
 8000de8:	ea43 4404 	orr.w	r4, r3, r4, lsl #16
 8000dec:	fb08 f800 	mul.w	r8, r8, r0
 8000df0:	45a0      	cmp	r8, r4
 8000df2:	d907      	bls.n	8000e04 <__udivmoddi4+0x14c>
 8000df4:	192c      	adds	r4, r5, r4
 8000df6:	f100 33ff 	add.w	r3, r0, #4294967295
 8000dfa:	d202      	bcs.n	8000e02 <__udivmoddi4+0x14a>
 8000dfc:	45a0      	cmp	r8, r4
 8000dfe:	f200 80b6 	bhi.w	8000f6e <__udivmoddi4+0x2b6>
 8000e02:	4618      	mov	r0, r3
 8000e04:	eba4 0408 	sub.w	r4, r4, r8
 8000e08:	ea40 400c 	orr.w	r0, r0, ip, lsl #16
 8000e0c:	e79f      	b.n	8000d4e <__udivmoddi4+0x96>
 8000e0e:	f1c7 0c20 	rsb	ip, r7, #32
 8000e12:	40bb      	lsls	r3, r7
 8000e14:	fa22 fe0c 	lsr.w	lr, r2, ip
 8000e18:	ea4e 0e03 	orr.w	lr, lr, r3
 8000e1c:	fa01 f407 	lsl.w	r4, r1, r7
 8000e20:	fa20 f50c 	lsr.w	r5, r0, ip
 8000e24:	fa21 f30c 	lsr.w	r3, r1, ip
 8000e28:	ea4f 481e 	mov.w	r8, lr, lsr #16
 8000e2c:	4325      	orrs	r5, r4
 8000e2e:	fbb3 f9f8 	udiv	r9, r3, r8
 8000e32:	0c2c      	lsrs	r4, r5, #16
 8000e34:	fb08 3319 	mls	r3, r8, r9, r3
 8000e38:	fa1f fa8e 	uxth.w	sl, lr
 8000e3c:	ea44 4303 	orr.w	r3, r4, r3, lsl #16
 8000e40:	fb09 f40a 	mul.w	r4, r9, sl
 8000e44:	429c      	cmp	r4, r3
 8000e46:	fa02 f207 	lsl.w	r2, r2, r7
 8000e4a:	fa00 f107 	lsl.w	r1, r0, r7
 8000e4e:	d90b      	bls.n	8000e68 <__udivmoddi4+0x1b0>
 8000e50:	eb1e 0303 	adds.w	r3, lr, r3
 8000e54:	f109 30ff 	add.w	r0, r9, #4294967295
 8000e58:	f080 8087 	bcs.w	8000f6a <__udivmoddi4+0x2b2>
 8000e5c:	429c      	cmp	r4, r3
 8000e5e:	f240 8084 	bls.w	8000f6a <__udivmoddi4+0x2b2>
 8000e62:	f1a9 0902 	sub.w	r9, r9, #2
 8000e66:	4473      	add	r3, lr
 8000e68:	1b1b      	subs	r3, r3, r4
 8000e6a:	b2ad      	uxth	r5, r5
 8000e6c:	fbb3 f0f8 	udiv	r0, r3, r8
 8000e70:	fb08 3310 	mls	r3, r8, r0, r3
 8000e74:	ea45 4403 	orr.w	r4, r5, r3, lsl #16
 8000e78:	fb00 fa0a 	mul.w	sl, r0, sl
 8000e7c:	45a2      	cmp	sl, r4
 8000e7e:	d908      	bls.n	8000e92 <__udivmoddi4+0x1da>
 8000e80:	eb1e 0404 	adds.w	r4, lr, r4
 8000e84:	f100 33ff 	add.w	r3, r0, #4294967295
 8000e88:	d26b      	bcs.n	8000f62 <__udivmoddi4+0x2aa>
 8000e8a:	45a2      	cmp	sl, r4
 8000e8c:	d969      	bls.n	8000f62 <__udivmoddi4+0x2aa>
 8000e8e:	3802      	subs	r0, #2
 8000e90:	4474      	add	r4, lr
 8000e92:	ea40 4009 	orr.w	r0, r0, r9, lsl #16
 8000e96:	fba0 8902 	umull	r8, r9, r0, r2
 8000e9a:	eba4 040a 	sub.w	r4, r4, sl
 8000e9e:	454c      	cmp	r4, r9
 8000ea0:	46c2      	mov	sl, r8
 8000ea2:	464b      	mov	r3, r9
 8000ea4:	d354      	bcc.n	8000f50 <__udivmoddi4+0x298>
 8000ea6:	d051      	beq.n	8000f4c <__udivmoddi4+0x294>
 8000ea8:	2e00      	cmp	r6, #0
 8000eaa:	d069      	beq.n	8000f80 <__udivmoddi4+0x2c8>
 8000eac:	ebb1 050a 	subs.w	r5, r1, sl
 8000eb0:	eb64 0403 	sbc.w	r4, r4, r3
 8000eb4:	fa04 fc0c 	lsl.w	ip, r4, ip
 8000eb8:	40fd      	lsrs	r5, r7
 8000eba:	40fc      	lsrs	r4, r7
 8000ebc:	ea4c 0505 	orr.w	r5, ip, r5
 8000ec0:	e9c6 5400 	strd	r5, r4, [r6]
 8000ec4:	2700      	movs	r7, #0
 8000ec6:	e747      	b.n	8000d58 <__udivmoddi4+0xa0>
 8000ec8:	f1c2 0320 	rsb	r3, r2, #32
 8000ecc:	fa20 f703 	lsr.w	r7, r0, r3
 8000ed0:	4095      	lsls	r5, r2
 8000ed2:	fa01 f002 	lsl.w	r0, r1, r2
 8000ed6:	fa21 f303 	lsr.w	r3, r1, r3
 8000eda:	ea4f 4e15 	mov.w	lr, r5, lsr #16
 8000ede:	4338      	orrs	r0, r7
 8000ee0:	0c01      	lsrs	r1, r0, #16
 8000ee2:	fbb3 f7fe 	udiv	r7, r3, lr
 8000ee6:	fa1f f885 	uxth.w	r8, r5
 8000eea:	fb0e 3317 	mls	r3, lr, r7, r3
 8000eee:	ea41 4103 	orr.w	r1, r1, r3, lsl #16
 8000ef2:	fb07 f308 	mul.w	r3, r7, r8
 8000ef6:	428b      	cmp	r3, r1
 8000ef8:	fa04 f402 	lsl.w	r4, r4, r2
 8000efc:	d907      	bls.n	8000f0e <__udivmoddi4+0x256>
 8000efe:	1869      	adds	r1, r5, r1
 8000f00:	f107 3cff 	add.w	ip, r7, #4294967295
 8000f04:	d22f      	bcs.n	8000f66 <__udivmoddi4+0x2ae>
 8000f06:	428b      	cmp	r3, r1
 8000f08:	d92d      	bls.n	8000f66 <__udivmoddi4+0x2ae>
 8000f0a:	3f02      	subs	r7, #2
 8000f0c:	4429      	add	r1, r5
 8000f0e:	1acb      	subs	r3, r1, r3
 8000f10:	b281      	uxth	r1, r0
 8000f12:	fbb3 f0fe 	udiv	r0, r3, lr
 8000f16:	fb0e 3310 	mls	r3, lr, r0, r3
 8000f1a:	ea41 4103 	orr.w	r1, r1, r3, lsl #16
 8000f1e:	fb00 f308 	mul.w	r3, r0, r8
 8000f22:	428b      	cmp	r3, r1
 8000f24:	d907      	bls.n	8000f36 <__udivmoddi4+0x27e>
 8000f26:	1869      	adds	r1, r5, r1
 8000f28:	f100 3cff 	add.w	ip, r0, #4294967295
 8000f2c:	d217      	bcs.n	8000f5e <__udivmoddi4+0x2a6>
 8000f2e:	428b      	cmp	r3, r1
 8000f30:	d915      	bls.n	8000f5e <__udivmoddi4+0x2a6>
 8000f32:	3802      	subs	r0, #2
 8000f34:	4429      	add	r1, r5
 8000f36:	1ac9      	subs	r1, r1, r3
 8000f38:	ea40 4707 	orr.w	r7, r0, r7, lsl #16
 8000f3c:	e73b      	b.n	8000db6 <__udivmoddi4+0xfe>
 8000f3e:	4637      	mov	r7, r6
 8000f40:	4630      	mov	r0, r6
 8000f42:	e709      	b.n	8000d58 <__udivmoddi4+0xa0>
 8000f44:	4607      	mov	r7, r0
 8000f46:	e6e7      	b.n	8000d18 <__udivmoddi4+0x60>
 8000f48:	4618      	mov	r0, r3
 8000f4a:	e6fb      	b.n	8000d44 <__udivmoddi4+0x8c>
 8000f4c:	4541      	cmp	r1, r8
 8000f4e:	d2ab      	bcs.n	8000ea8 <__udivmoddi4+0x1f0>
 8000f50:	ebb8 0a02 	subs.w	sl, r8, r2
 8000f54:	eb69 020e 	sbc.w	r2, r9, lr
 8000f58:	3801      	subs	r0, #1
 8000f5a:	4613      	mov	r3, r2
 8000f5c:	e7a4      	b.n	8000ea8 <__udivmoddi4+0x1f0>
 8000f5e:	4660      	mov	r0, ip
 8000f60:	e7e9      	b.n	8000f36 <__udivmoddi4+0x27e>
 8000f62:	4618      	mov	r0, r3
 8000f64:	e795      	b.n	8000e92 <__udivmoddi4+0x1da>
 8000f66:	4667      	mov	r7, ip
 8000f68:	e7d1      	b.n	8000f0e <__udivmoddi4+0x256>
 8000f6a:	4681      	mov	r9, r0
 8000f6c:	e77c      	b.n	8000e68 <__udivmoddi4+0x1b0>
 8000f6e:	3802      	subs	r0, #2
 8000f70:	442c      	add	r4, r5
 8000f72:	e747      	b.n	8000e04 <__udivmoddi4+0x14c>
 8000f74:	f1ac 0c02 	sub.w	ip, ip, #2
 8000f78:	442b      	add	r3, r5
 8000f7a:	e72f      	b.n	8000ddc <__udivmoddi4+0x124>
 8000f7c:	4638      	mov	r0, r7
 8000f7e:	e708      	b.n	8000d92 <__udivmoddi4+0xda>
 8000f80:	4637      	mov	r7, r6
 8000f82:	e6e9      	b.n	8000d58 <__udivmoddi4+0xa0>

08000f84 <__aeabi_idiv0>:
 8000f84:	4770      	bx	lr
 8000f86:	bf00      	nop

08000f88 <main>:
/**
  * @brief  The application entry point.
  * @retval int
  */
int main(void)
{
 8000f88:	b590      	push	{r4, r7, lr}
 8000f8a:	b089      	sub	sp, #36	; 0x24
 8000f8c:	af00      	add	r7, sp, #0
  /* USER CODE END 1 */

  /* MCU Configuration--------------------------------------------------------*/

  /* Reset of all peripherals, Initializes the Flash interface and the Systick. */
  HAL_Init();
 8000f8e:	f000 fbf3 	bl	8001778 <HAL_Init>
  /* USER CODE BEGIN Init */

  /* USER CODE END Init */

  /* Configure the system clock */
  SystemClock_Config();
 8000f92:	f000 f8cb 	bl	800112c <SystemClock_Config>
  /* USER CODE BEGIN SysInit */

  /* USER CODE END SysInit */

  /* Initialize all configured peripherals */
  MX_GPIO_Init();
 8000f96:	f000 f9d7 	bl	8001348 <MX_GPIO_Init>
  MX_DMA_Init();
 8000f9a:	f000 f9b5 	bl	8001308 <MX_DMA_Init>
  MX_USART2_UART_Init();
 8000f9e:	f000 f989 	bl	80012b4 <MX_USART2_UART_Init>
  MX_ADC1_Init();
 8000fa2:	f000 f935 	bl	8001210 <MX_ADC1_Init>
  /* USER CODE BEGIN 2 */
  HAL_GPIO_WritePin(GPIOA, GPIO_PIN_10, GPIO_PIN_SET);
 8000fa6:	2201      	movs	r2, #1
 8000fa8:	f44f 6180 	mov.w	r1, #1024	; 0x400
 8000fac:	4856      	ldr	r0, [pc, #344]	; (8001108 <main+0x180>)
 8000fae:	f001 fe83 	bl	8002cb8 <HAL_GPIO_WritePin>
  HAL_ADC_Start_DMA(&hadc1, (uint32_t*)adc_buf, ADC_BUF_LEN);
 8000fb2:	f44f 5200 	mov.w	r2, #8192	; 0x2000
 8000fb6:	4955      	ldr	r1, [pc, #340]	; (800110c <main+0x184>)
 8000fb8:	4855      	ldr	r0, [pc, #340]	; (8001110 <main+0x188>)
 8000fba:	f000 fcb5 	bl	8001928 <HAL_ADC_Start_DMA>

  /* Infinite loop */
  /* USER CODE BEGIN WHILE */
  while (1)
  {
	if (state == 1) {
 8000fbe:	4b55      	ldr	r3, [pc, #340]	; (8001114 <main+0x18c>)
 8000fc0:	681b      	ldr	r3, [r3, #0]
 8000fc2:	2b01      	cmp	r3, #1
 8000fc4:	d156      	bne.n	8001074 <main+0xec>
		HAL_GPIO_WritePin(GPIOA, GPIO_PIN_10, GPIO_PIN_RESET);
 8000fc6:	2200      	movs	r2, #0
 8000fc8:	f44f 6180 	mov.w	r1, #1024	; 0x400
 8000fcc:	484e      	ldr	r0, [pc, #312]	; (8001108 <main+0x180>)
 8000fce:	f001 fe73 	bl	8002cb8 <HAL_GPIO_WritePin>
		HAL_Delay(500);
 8000fd2:	f44f 70fa 	mov.w	r0, #500	; 0x1f4
 8000fd6:	f000 fc41 	bl	800185c <HAL_Delay>
		for (int j = 0; j < ADC_BUF_LEN; j++) {
 8000fda:	2300      	movs	r3, #0
 8000fdc:	61fb      	str	r3, [r7, #28]
 8000fde:	e029      	b.n	8001034 <main+0xac>
			avgs[j] = (avgs[j] * pass + adc_buf[j]) / (pass + 1);
 8000fe0:	4a4d      	ldr	r2, [pc, #308]	; (8001118 <main+0x190>)
 8000fe2:	69fb      	ldr	r3, [r7, #28]
 8000fe4:	009b      	lsls	r3, r3, #2
 8000fe6:	4413      	add	r3, r2
 8000fe8:	ed93 7a00 	vldr	s14, [r3]
 8000fec:	4b4b      	ldr	r3, [pc, #300]	; (800111c <main+0x194>)
 8000fee:	681b      	ldr	r3, [r3, #0]
 8000ff0:	ee07 3a90 	vmov	s15, r3
 8000ff4:	eef8 7ae7 	vcvt.f32.s32	s15, s15
 8000ff8:	ee27 7a27 	vmul.f32	s14, s14, s15
 8000ffc:	4a43      	ldr	r2, [pc, #268]	; (800110c <main+0x184>)
 8000ffe:	69fb      	ldr	r3, [r7, #28]
 8001000:	f832 3013 	ldrh.w	r3, [r2, r3, lsl #1]
 8001004:	ee07 3a90 	vmov	s15, r3
 8001008:	eef8 7ae7 	vcvt.f32.s32	s15, s15
 800100c:	ee77 6a27 	vadd.f32	s13, s14, s15
 8001010:	4b42      	ldr	r3, [pc, #264]	; (800111c <main+0x194>)
 8001012:	681b      	ldr	r3, [r3, #0]
 8001014:	3301      	adds	r3, #1
 8001016:	ee07 3a90 	vmov	s15, r3
 800101a:	eeb8 7ae7 	vcvt.f32.s32	s14, s15
 800101e:	eec6 7a87 	vdiv.f32	s15, s13, s14
 8001022:	4a3d      	ldr	r2, [pc, #244]	; (8001118 <main+0x190>)
 8001024:	69fb      	ldr	r3, [r7, #28]
 8001026:	009b      	lsls	r3, r3, #2
 8001028:	4413      	add	r3, r2
 800102a:	edc3 7a00 	vstr	s15, [r3]
		for (int j = 0; j < ADC_BUF_LEN; j++) {
 800102e:	69fb      	ldr	r3, [r7, #28]
 8001030:	3301      	adds	r3, #1
 8001032:	61fb      	str	r3, [r7, #28]
 8001034:	69fb      	ldr	r3, [r7, #28]
 8001036:	f5b3 5f00 	cmp.w	r3, #8192	; 0x2000
 800103a:	dbd1      	blt.n	8000fe0 <main+0x58>
		}
		pass += 1;
 800103c:	4b37      	ldr	r3, [pc, #220]	; (800111c <main+0x194>)
 800103e:	681b      	ldr	r3, [r3, #0]
 8001040:	3301      	adds	r3, #1
 8001042:	4a36      	ldr	r2, [pc, #216]	; (800111c <main+0x194>)
 8001044:	6013      	str	r3, [r2, #0]
		if (pass == NUM_PASSES) {
 8001046:	4b35      	ldr	r3, [pc, #212]	; (800111c <main+0x194>)
 8001048:	681b      	ldr	r3, [r3, #0]
 800104a:	2b19      	cmp	r3, #25
 800104c:	d103      	bne.n	8001056 <main+0xce>
			state = 2;
 800104e:	4b31      	ldr	r3, [pc, #196]	; (8001114 <main+0x18c>)
 8001050:	2202      	movs	r2, #2
 8001052:	601a      	str	r2, [r3, #0]
 8001054:	e00e      	b.n	8001074 <main+0xec>
		} else {
			state = 0;
 8001056:	4b2f      	ldr	r3, [pc, #188]	; (8001114 <main+0x18c>)
 8001058:	2200      	movs	r2, #0
 800105a:	601a      	str	r2, [r3, #0]
			HAL_GPIO_WritePin(GPIOA, GPIO_PIN_10, GPIO_PIN_SET);
 800105c:	2201      	movs	r2, #1
 800105e:	f44f 6180 	mov.w	r1, #1024	; 0x400
 8001062:	4829      	ldr	r0, [pc, #164]	; (8001108 <main+0x180>)
 8001064:	f001 fe28 	bl	8002cb8 <HAL_GPIO_WritePin>
			HAL_ADC_Start_DMA(&hadc1, (uint32_t*)adc_buf, ADC_BUF_LEN);
 8001068:	f44f 5200 	mov.w	r2, #8192	; 0x2000
 800106c:	4927      	ldr	r1, [pc, #156]	; (800110c <main+0x184>)
 800106e:	4828      	ldr	r0, [pc, #160]	; (8001110 <main+0x188>)
 8001070:	f000 fc5a 	bl	8001928 <HAL_ADC_Start_DMA>
		}
	}
	if (state == 2) {
 8001074:	4b27      	ldr	r3, [pc, #156]	; (8001114 <main+0x18c>)
 8001076:	681b      	ldr	r3, [r3, #0]
 8001078:	2b02      	cmp	r3, #2
 800107a:	d1a0      	bne.n	8000fbe <main+0x36>
  		float val;
  		for (int j = 0; j < ADC_BUF_LEN; j+=1){
 800107c:	2300      	movs	r3, #0
 800107e:	61bb      	str	r3, [r7, #24]
 8001080:	e037      	b.n	80010f2 <main+0x16a>
  			val = 3.3 * avgs[j] / 4096;
 8001082:	4a25      	ldr	r2, [pc, #148]	; (8001118 <main+0x190>)
 8001084:	69bb      	ldr	r3, [r7, #24]
 8001086:	009b      	lsls	r3, r3, #2
 8001088:	4413      	add	r3, r2
 800108a:	681b      	ldr	r3, [r3, #0]
 800108c:	4618      	mov	r0, r3
 800108e:	f7ff fa7b 	bl	8000588 <__aeabi_f2d>
 8001092:	a31b      	add	r3, pc, #108	; (adr r3, 8001100 <main+0x178>)
 8001094:	e9d3 2300 	ldrd	r2, r3, [r3]
 8001098:	f7ff face 	bl	8000638 <__aeabi_dmul>
 800109c:	4603      	mov	r3, r0
 800109e:	460c      	mov	r4, r1
 80010a0:	4618      	mov	r0, r3
 80010a2:	4621      	mov	r1, r4
 80010a4:	f04f 0200 	mov.w	r2, #0
 80010a8:	4b1d      	ldr	r3, [pc, #116]	; (8001120 <main+0x198>)
 80010aa:	f7ff fbef 	bl	800088c <__aeabi_ddiv>
 80010ae:	4603      	mov	r3, r0
 80010b0:	460c      	mov	r4, r1
 80010b2:	4618      	mov	r0, r3
 80010b4:	4621      	mov	r1, r4
 80010b6:	f7ff fd97 	bl	8000be8 <__aeabi_d2f>
 80010ba:	4603      	mov	r3, r0
 80010bc:	617b      	str	r3, [r7, #20]
  			sprintf(msg, "%f\n", val);
 80010be:	6978      	ldr	r0, [r7, #20]
 80010c0:	f7ff fa62 	bl	8000588 <__aeabi_f2d>
 80010c4:	4603      	mov	r3, r0
 80010c6:	460c      	mov	r4, r1
 80010c8:	1d38      	adds	r0, r7, #4
 80010ca:	461a      	mov	r2, r3
 80010cc:	4623      	mov	r3, r4
 80010ce:	4915      	ldr	r1, [pc, #84]	; (8001124 <main+0x19c>)
 80010d0:	f003 fcaa 	bl	8004a28 <siprintf>
  			HAL_UART_Transmit(&huart2, (uint8_t*)msg, strlen(msg), HAL_MAX_DELAY);
 80010d4:	1d3b      	adds	r3, r7, #4
 80010d6:	4618      	mov	r0, r3
 80010d8:	f7ff f89a 	bl	8000210 <strlen>
 80010dc:	4603      	mov	r3, r0
 80010de:	b29a      	uxth	r2, r3
 80010e0:	1d39      	adds	r1, r7, #4
 80010e2:	f04f 33ff 	mov.w	r3, #4294967295
 80010e6:	4810      	ldr	r0, [pc, #64]	; (8001128 <main+0x1a0>)
 80010e8:	f002 fbb1 	bl	800384e <HAL_UART_Transmit>
  		for (int j = 0; j < ADC_BUF_LEN; j+=1){
 80010ec:	69bb      	ldr	r3, [r7, #24]
 80010ee:	3301      	adds	r3, #1
 80010f0:	61bb      	str	r3, [r7, #24]
 80010f2:	69bb      	ldr	r3, [r7, #24]
 80010f4:	f5b3 5f00 	cmp.w	r3, #8192	; 0x2000
 80010f8:	dbc3      	blt.n	8001082 <main+0xfa>
  		}
  		while(1) {
 80010fa:	e7fe      	b.n	80010fa <main+0x172>
 80010fc:	f3af 8000 	nop.w
 8001100:	66666666 	.word	0x66666666
 8001104:	400a6666 	.word	0x400a6666
 8001108:	40020000 	.word	0x40020000
 800110c:	200082b4 	.word	0x200082b4
 8001110:	2000820c 	.word	0x2000820c
 8001114:	200001f8 	.word	0x200001f8
 8001118:	2000020c 	.word	0x2000020c
 800111c:	200001fc 	.word	0x200001fc
 8001120:	40b00000 	.word	0x40b00000
 8001124:	08006200 	.word	0x08006200
 8001128:	2000c2b4 	.word	0x2000c2b4

0800112c <SystemClock_Config>:
/**
  * @brief System Clock Configuration
  * @retval None
  */
void SystemClock_Config(void)
{
 800112c:	b580      	push	{r7, lr}
 800112e:	b094      	sub	sp, #80	; 0x50
 8001130:	af00      	add	r7, sp, #0
  RCC_OscInitTypeDef RCC_OscInitStruct = {0};
 8001132:	f107 031c 	add.w	r3, r7, #28
 8001136:	2234      	movs	r2, #52	; 0x34
 8001138:	2100      	movs	r1, #0
 800113a:	4618      	mov	r0, r3
 800113c:	f003 f810 	bl	8004160 <memset>
  RCC_ClkInitTypeDef RCC_ClkInitStruct = {0};
 8001140:	f107 0308 	add.w	r3, r7, #8
 8001144:	2200      	movs	r2, #0
 8001146:	601a      	str	r2, [r3, #0]
 8001148:	605a      	str	r2, [r3, #4]
 800114a:	609a      	str	r2, [r3, #8]
 800114c:	60da      	str	r2, [r3, #12]
 800114e:	611a      	str	r2, [r3, #16]

  /** Configure the main internal regulator output voltage
  */
  __HAL_RCC_PWR_CLK_ENABLE();
 8001150:	2300      	movs	r3, #0
 8001152:	607b      	str	r3, [r7, #4]
 8001154:	4b2c      	ldr	r3, [pc, #176]	; (8001208 <SystemClock_Config+0xdc>)
 8001156:	6c1b      	ldr	r3, [r3, #64]	; 0x40
 8001158:	4a2b      	ldr	r2, [pc, #172]	; (8001208 <SystemClock_Config+0xdc>)
 800115a:	f043 5380 	orr.w	r3, r3, #268435456	; 0x10000000
 800115e:	6413      	str	r3, [r2, #64]	; 0x40
 8001160:	4b29      	ldr	r3, [pc, #164]	; (8001208 <SystemClock_Config+0xdc>)
 8001162:	6c1b      	ldr	r3, [r3, #64]	; 0x40
 8001164:	f003 5380 	and.w	r3, r3, #268435456	; 0x10000000
 8001168:	607b      	str	r3, [r7, #4]
 800116a:	687b      	ldr	r3, [r7, #4]
  __HAL_PWR_VOLTAGESCALING_CONFIG(PWR_REGULATOR_VOLTAGE_SCALE1);
 800116c:	2300      	movs	r3, #0
 800116e:	603b      	str	r3, [r7, #0]
 8001170:	4b26      	ldr	r3, [pc, #152]	; (800120c <SystemClock_Config+0xe0>)
 8001172:	681b      	ldr	r3, [r3, #0]
 8001174:	4a25      	ldr	r2, [pc, #148]	; (800120c <SystemClock_Config+0xe0>)
 8001176:	f443 4340 	orr.w	r3, r3, #49152	; 0xc000
 800117a:	6013      	str	r3, [r2, #0]
 800117c:	4b23      	ldr	r3, [pc, #140]	; (800120c <SystemClock_Config+0xe0>)
 800117e:	681b      	ldr	r3, [r3, #0]
 8001180:	f403 4340 	and.w	r3, r3, #49152	; 0xc000
 8001184:	603b      	str	r3, [r7, #0]
 8001186:	683b      	ldr	r3, [r7, #0]
  /** Initializes the RCC Oscillators according to the specified parameters
  * in the RCC_OscInitTypeDef structure.
  */
  RCC_OscInitStruct.OscillatorType = RCC_OSCILLATORTYPE_HSI;
 8001188:	2302      	movs	r3, #2
 800118a:	61fb      	str	r3, [r7, #28]
  RCC_OscInitStruct.HSIState = RCC_HSI_ON;
 800118c:	2301      	movs	r3, #1
 800118e:	62bb      	str	r3, [r7, #40]	; 0x28
  RCC_OscInitStruct.HSICalibrationValue = RCC_HSICALIBRATION_DEFAULT;
 8001190:	2310      	movs	r3, #16
 8001192:	62fb      	str	r3, [r7, #44]	; 0x2c
  RCC_OscInitStruct.PLL.PLLState = RCC_PLL_ON;
 8001194:	2302      	movs	r3, #2
 8001196:	637b      	str	r3, [r7, #52]	; 0x34
  RCC_OscInitStruct.PLL.PLLSource = RCC_PLLSOURCE_HSI;
 8001198:	2300      	movs	r3, #0
 800119a:	63bb      	str	r3, [r7, #56]	; 0x38
  RCC_OscInitStruct.PLL.PLLM = 8;
 800119c:	2308      	movs	r3, #8
 800119e:	63fb      	str	r3, [r7, #60]	; 0x3c
  RCC_OscInitStruct.PLL.PLLN = 180;
 80011a0:	23b4      	movs	r3, #180	; 0xb4
 80011a2:	643b      	str	r3, [r7, #64]	; 0x40
  RCC_OscInitStruct.PLL.PLLP = RCC_PLLP_DIV2;
 80011a4:	2302      	movs	r3, #2
 80011a6:	647b      	str	r3, [r7, #68]	; 0x44
  RCC_OscInitStruct.PLL.PLLQ = 2;
 80011a8:	2302      	movs	r3, #2
 80011aa:	64bb      	str	r3, [r7, #72]	; 0x48
  RCC_OscInitStruct.PLL.PLLR = 2;
 80011ac:	2302      	movs	r3, #2
 80011ae:	64fb      	str	r3, [r7, #76]	; 0x4c
  if (HAL_RCC_OscConfig(&RCC_OscInitStruct) != HAL_OK)
 80011b0:	f107 031c 	add.w	r3, r7, #28
 80011b4:	4618      	mov	r0, r3
 80011b6:	f002 f8a3 	bl	8003300 <HAL_RCC_OscConfig>
 80011ba:	4603      	mov	r3, r0
 80011bc:	2b00      	cmp	r3, #0
 80011be:	d001      	beq.n	80011c4 <SystemClock_Config+0x98>
  {
    Error_Handler();
 80011c0:	f000 f944 	bl	800144c <Error_Handler>
  }
  /** Activate the Over-Drive mode
  */
  if (HAL_PWREx_EnableOverDrive() != HAL_OK)
 80011c4:	f001 fd92 	bl	8002cec <HAL_PWREx_EnableOverDrive>
 80011c8:	4603      	mov	r3, r0
 80011ca:	2b00      	cmp	r3, #0
 80011cc:	d001      	beq.n	80011d2 <SystemClock_Config+0xa6>
  {
    Error_Handler();
 80011ce:	f000 f93d 	bl	800144c <Error_Handler>
  }
  /** Initializes the CPU, AHB and APB buses clocks
  */
  RCC_ClkInitStruct.ClockType = RCC_CLOCKTYPE_HCLK|RCC_CLOCKTYPE_SYSCLK
 80011d2:	230f      	movs	r3, #15
 80011d4:	60bb      	str	r3, [r7, #8]
                              |RCC_CLOCKTYPE_PCLK1|RCC_CLOCKTYPE_PCLK2;
  RCC_ClkInitStruct.SYSCLKSource = RCC_SYSCLKSOURCE_PLLCLK;
 80011d6:	2302      	movs	r3, #2
 80011d8:	60fb      	str	r3, [r7, #12]
  RCC_ClkInitStruct.AHBCLKDivider = RCC_SYSCLK_DIV1;
 80011da:	2300      	movs	r3, #0
 80011dc:	613b      	str	r3, [r7, #16]
  RCC_ClkInitStruct.APB1CLKDivider = RCC_HCLK_DIV4;
 80011de:	f44f 53a0 	mov.w	r3, #5120	; 0x1400
 80011e2:	617b      	str	r3, [r7, #20]
  RCC_ClkInitStruct.APB2CLKDivider = RCC_HCLK_DIV2;
 80011e4:	f44f 5380 	mov.w	r3, #4096	; 0x1000
 80011e8:	61bb      	str	r3, [r7, #24]

  if (HAL_RCC_ClockConfig(&RCC_ClkInitStruct, FLASH_LATENCY_5) != HAL_OK)
 80011ea:	f107 0308 	add.w	r3, r7, #8
 80011ee:	2105      	movs	r1, #5
 80011f0:	4618      	mov	r0, r3
 80011f2:	f001 fdcb 	bl	8002d8c <HAL_RCC_ClockConfig>
 80011f6:	4603      	mov	r3, r0
 80011f8:	2b00      	cmp	r3, #0
 80011fa:	d001      	beq.n	8001200 <SystemClock_Config+0xd4>
  {
    Error_Handler();
 80011fc:	f000 f926 	bl	800144c <Error_Handler>
  }
}
 8001200:	bf00      	nop
 8001202:	3750      	adds	r7, #80	; 0x50
 8001204:	46bd      	mov	sp, r7
 8001206:	bd80      	pop	{r7, pc}
 8001208:	40023800 	.word	0x40023800
 800120c:	40007000 	.word	0x40007000

08001210 <MX_ADC1_Init>:
  * @brief ADC1 Initialization Function
  * @param None
  * @retval None
  */
static void MX_ADC1_Init(void)
{
 8001210:	b580      	push	{r7, lr}
 8001212:	b084      	sub	sp, #16
 8001214:	af00      	add	r7, sp, #0

  /* USER CODE BEGIN ADC1_Init 0 */

  /* USER CODE END ADC1_Init 0 */

  ADC_ChannelConfTypeDef sConfig = {0};
 8001216:	463b      	mov	r3, r7
 8001218:	2200      	movs	r2, #0
 800121a:	601a      	str	r2, [r3, #0]
 800121c:	605a      	str	r2, [r3, #4]
 800121e:	609a      	str	r2, [r3, #8]
 8001220:	60da      	str	r2, [r3, #12]
  /* USER CODE BEGIN ADC1_Init 1 */

  /* USER CODE END ADC1_Init 1 */
  /** Configure the global features of the ADC (Clock, Resolution, Data Alignment and number of conversion)
  */
  hadc1.Instance = ADC1;
 8001222:	4b21      	ldr	r3, [pc, #132]	; (80012a8 <MX_ADC1_Init+0x98>)
 8001224:	4a21      	ldr	r2, [pc, #132]	; (80012ac <MX_ADC1_Init+0x9c>)
 8001226:	601a      	str	r2, [r3, #0]
  hadc1.Init.ClockPrescaler = ADC_CLOCK_SYNC_PCLK_DIV4;
 8001228:	4b1f      	ldr	r3, [pc, #124]	; (80012a8 <MX_ADC1_Init+0x98>)
 800122a:	f44f 3280 	mov.w	r2, #65536	; 0x10000
 800122e:	605a      	str	r2, [r3, #4]
  hadc1.Init.Resolution = ADC_RESOLUTION_12B;
 8001230:	4b1d      	ldr	r3, [pc, #116]	; (80012a8 <MX_ADC1_Init+0x98>)
 8001232:	2200      	movs	r2, #0
 8001234:	609a      	str	r2, [r3, #8]
  hadc1.Init.ScanConvMode = DISABLE;
 8001236:	4b1c      	ldr	r3, [pc, #112]	; (80012a8 <MX_ADC1_Init+0x98>)
 8001238:	2200      	movs	r2, #0
 800123a:	611a      	str	r2, [r3, #16]
  hadc1.Init.ContinuousConvMode = ENABLE;
 800123c:	4b1a      	ldr	r3, [pc, #104]	; (80012a8 <MX_ADC1_Init+0x98>)
 800123e:	2201      	movs	r2, #1
 8001240:	761a      	strb	r2, [r3, #24]
  hadc1.Init.DiscontinuousConvMode = DISABLE;
 8001242:	4b19      	ldr	r3, [pc, #100]	; (80012a8 <MX_ADC1_Init+0x98>)
 8001244:	2200      	movs	r2, #0
 8001246:	f883 2020 	strb.w	r2, [r3, #32]
  hadc1.Init.ExternalTrigConvEdge = ADC_EXTERNALTRIGCONVEDGE_NONE;
 800124a:	4b17      	ldr	r3, [pc, #92]	; (80012a8 <MX_ADC1_Init+0x98>)
 800124c:	2200      	movs	r2, #0
 800124e:	62da      	str	r2, [r3, #44]	; 0x2c
  hadc1.Init.ExternalTrigConv = ADC_SOFTWARE_START;
 8001250:	4b15      	ldr	r3, [pc, #84]	; (80012a8 <MX_ADC1_Init+0x98>)
 8001252:	4a17      	ldr	r2, [pc, #92]	; (80012b0 <MX_ADC1_Init+0xa0>)
 8001254:	629a      	str	r2, [r3, #40]	; 0x28
  hadc1.Init.DataAlign = ADC_DATAALIGN_RIGHT;
 8001256:	4b14      	ldr	r3, [pc, #80]	; (80012a8 <MX_ADC1_Init+0x98>)
 8001258:	2200      	movs	r2, #0
 800125a:	60da      	str	r2, [r3, #12]
  hadc1.Init.NbrOfConversion = 1;
 800125c:	4b12      	ldr	r3, [pc, #72]	; (80012a8 <MX_ADC1_Init+0x98>)
 800125e:	2201      	movs	r2, #1
 8001260:	61da      	str	r2, [r3, #28]
  hadc1.Init.DMAContinuousRequests = ENABLE;
 8001262:	4b11      	ldr	r3, [pc, #68]	; (80012a8 <MX_ADC1_Init+0x98>)
 8001264:	2201      	movs	r2, #1
 8001266:	f883 2030 	strb.w	r2, [r3, #48]	; 0x30
  hadc1.Init.EOCSelection = ADC_EOC_SINGLE_CONV;
 800126a:	4b0f      	ldr	r3, [pc, #60]	; (80012a8 <MX_ADC1_Init+0x98>)
 800126c:	2201      	movs	r2, #1
 800126e:	615a      	str	r2, [r3, #20]
  if (HAL_ADC_Init(&hadc1) != HAL_OK)
 8001270:	480d      	ldr	r0, [pc, #52]	; (80012a8 <MX_ADC1_Init+0x98>)
 8001272:	f000 fb15 	bl	80018a0 <HAL_ADC_Init>
 8001276:	4603      	mov	r3, r0
 8001278:	2b00      	cmp	r3, #0
 800127a:	d001      	beq.n	8001280 <MX_ADC1_Init+0x70>
  {
    Error_Handler();
 800127c:	f000 f8e6 	bl	800144c <Error_Handler>
  }
  /** Configure for the selected ADC regular channel its corresponding rank in the sequencer and its sample time.
  */
  sConfig.Channel = ADC_CHANNEL_0;
 8001280:	2300      	movs	r3, #0
 8001282:	603b      	str	r3, [r7, #0]
  sConfig.Rank = 1;
 8001284:	2301      	movs	r3, #1
 8001286:	607b      	str	r3, [r7, #4]
  sConfig.SamplingTime = ADC_SAMPLETIME_3CYCLES;
 8001288:	2300      	movs	r3, #0
 800128a:	60bb      	str	r3, [r7, #8]
  if (HAL_ADC_ConfigChannel(&hadc1, &sConfig) != HAL_OK)
 800128c:	463b      	mov	r3, r7
 800128e:	4619      	mov	r1, r3
 8001290:	4805      	ldr	r0, [pc, #20]	; (80012a8 <MX_ADC1_Init+0x98>)
 8001292:	f000 fc4f 	bl	8001b34 <HAL_ADC_ConfigChannel>
 8001296:	4603      	mov	r3, r0
 8001298:	2b00      	cmp	r3, #0
 800129a:	d001      	beq.n	80012a0 <MX_ADC1_Init+0x90>
  {
    Error_Handler();
 800129c:	f000 f8d6 	bl	800144c <Error_Handler>
  }
  /* USER CODE BEGIN ADC1_Init 2 */

  /* USER CODE END ADC1_Init 2 */

}
 80012a0:	bf00      	nop
 80012a2:	3710      	adds	r7, #16
 80012a4:	46bd      	mov	sp, r7
 80012a6:	bd80      	pop	{r7, pc}
 80012a8:	2000820c 	.word	0x2000820c
 80012ac:	40012000 	.word	0x40012000
 80012b0:	0f000001 	.word	0x0f000001

080012b4 <MX_USART2_UART_Init>:
  * @brief USART2 Initialization Function
  * @param None
  * @retval None
  */
static void MX_USART2_UART_Init(void)
{
 80012b4:	b580      	push	{r7, lr}
 80012b6:	af00      	add	r7, sp, #0
  /* USER CODE END USART2_Init 0 */

  /* USER CODE BEGIN USART2_Init 1 */

  /* USER CODE END USART2_Init 1 */
  huart2.Instance = USART2;
 80012b8:	4b11      	ldr	r3, [pc, #68]	; (8001300 <MX_USART2_UART_Init+0x4c>)
 80012ba:	4a12      	ldr	r2, [pc, #72]	; (8001304 <MX_USART2_UART_Init+0x50>)
 80012bc:	601a      	str	r2, [r3, #0]
  huart2.Init.BaudRate = 115200;
 80012be:	4b10      	ldr	r3, [pc, #64]	; (8001300 <MX_USART2_UART_Init+0x4c>)
 80012c0:	f44f 32e1 	mov.w	r2, #115200	; 0x1c200
 80012c4:	605a      	str	r2, [r3, #4]
  huart2.Init.WordLength = UART_WORDLENGTH_8B;
 80012c6:	4b0e      	ldr	r3, [pc, #56]	; (8001300 <MX_USART2_UART_Init+0x4c>)
 80012c8:	2200      	movs	r2, #0
 80012ca:	609a      	str	r2, [r3, #8]
  huart2.Init.StopBits = UART_STOPBITS_1;
 80012cc:	4b0c      	ldr	r3, [pc, #48]	; (8001300 <MX_USART2_UART_Init+0x4c>)
 80012ce:	2200      	movs	r2, #0
 80012d0:	60da      	str	r2, [r3, #12]
  huart2.Init.Parity = UART_PARITY_NONE;
 80012d2:	4b0b      	ldr	r3, [pc, #44]	; (8001300 <MX_USART2_UART_Init+0x4c>)
 80012d4:	2200      	movs	r2, #0
 80012d6:	611a      	str	r2, [r3, #16]
  huart2.Init.Mode = UART_MODE_TX_RX;
 80012d8:	4b09      	ldr	r3, [pc, #36]	; (8001300 <MX_USART2_UART_Init+0x4c>)
 80012da:	220c      	movs	r2, #12
 80012dc:	615a      	str	r2, [r3, #20]
  huart2.Init.HwFlowCtl = UART_HWCONTROL_NONE;
 80012de:	4b08      	ldr	r3, [pc, #32]	; (8001300 <MX_USART2_UART_Init+0x4c>)
 80012e0:	2200      	movs	r2, #0
 80012e2:	619a      	str	r2, [r3, #24]
  huart2.Init.OverSampling = UART_OVERSAMPLING_16;
 80012e4:	4b06      	ldr	r3, [pc, #24]	; (8001300 <MX_USART2_UART_Init+0x4c>)
 80012e6:	2200      	movs	r2, #0
 80012e8:	61da      	str	r2, [r3, #28]
  if (HAL_UART_Init(&huart2) != HAL_OK)
 80012ea:	4805      	ldr	r0, [pc, #20]	; (8001300 <MX_USART2_UART_Init+0x4c>)
 80012ec:	f002 fa62 	bl	80037b4 <HAL_UART_Init>
 80012f0:	4603      	mov	r3, r0
 80012f2:	2b00      	cmp	r3, #0
 80012f4:	d001      	beq.n	80012fa <MX_USART2_UART_Init+0x46>
  {
    Error_Handler();
 80012f6:	f000 f8a9 	bl	800144c <Error_Handler>
  }
  /* USER CODE BEGIN USART2_Init 2 */

  /* USER CODE END USART2_Init 2 */

}
 80012fa:	bf00      	nop
 80012fc:	bd80      	pop	{r7, pc}
 80012fe:	bf00      	nop
 8001300:	2000c2b4 	.word	0x2000c2b4
 8001304:	40004400 	.word	0x40004400

08001308 <MX_DMA_Init>:

/**
  * Enable DMA controller clock
  */
static void MX_DMA_Init(void)
{
 8001308:	b580      	push	{r7, lr}
 800130a:	b082      	sub	sp, #8
 800130c:	af00      	add	r7, sp, #0

  /* DMA controller clock enable */
  __HAL_RCC_DMA2_CLK_ENABLE();
 800130e:	2300      	movs	r3, #0
 8001310:	607b      	str	r3, [r7, #4]
 8001312:	4b0c      	ldr	r3, [pc, #48]	; (8001344 <MX_DMA_Init+0x3c>)
 8001314:	6b1b      	ldr	r3, [r3, #48]	; 0x30
 8001316:	4a0b      	ldr	r2, [pc, #44]	; (8001344 <MX_DMA_Init+0x3c>)
 8001318:	f443 0380 	orr.w	r3, r3, #4194304	; 0x400000
 800131c:	6313      	str	r3, [r2, #48]	; 0x30
 800131e:	4b09      	ldr	r3, [pc, #36]	; (8001344 <MX_DMA_Init+0x3c>)
 8001320:	6b1b      	ldr	r3, [r3, #48]	; 0x30
 8001322:	f403 0380 	and.w	r3, r3, #4194304	; 0x400000
 8001326:	607b      	str	r3, [r7, #4]
 8001328:	687b      	ldr	r3, [r7, #4]

  /* DMA interrupt init */
  /* DMA2_Stream0_IRQn interrupt configuration */
  HAL_NVIC_SetPriority(DMA2_Stream0_IRQn, 0, 0);
 800132a:	2200      	movs	r2, #0
 800132c:	2100      	movs	r1, #0
 800132e:	2038      	movs	r0, #56	; 0x38
 8001330:	f000 ff8b 	bl	800224a <HAL_NVIC_SetPriority>
  HAL_NVIC_EnableIRQ(DMA2_Stream0_IRQn);
 8001334:	2038      	movs	r0, #56	; 0x38
 8001336:	f000 ffa4 	bl	8002282 <HAL_NVIC_EnableIRQ>

}
 800133a:	bf00      	nop
 800133c:	3708      	adds	r7, #8
 800133e:	46bd      	mov	sp, r7
 8001340:	bd80      	pop	{r7, pc}
 8001342:	bf00      	nop
 8001344:	40023800 	.word	0x40023800

08001348 <MX_GPIO_Init>:
  * @brief GPIO Initialization Function
  * @param None
  * @retval None
  */
static void MX_GPIO_Init(void)
{
 8001348:	b580      	push	{r7, lr}
 800134a:	b08a      	sub	sp, #40	; 0x28
 800134c:	af00      	add	r7, sp, #0
  GPIO_InitTypeDef GPIO_InitStruct = {0};
 800134e:	f107 0314 	add.w	r3, r7, #20
 8001352:	2200      	movs	r2, #0
 8001354:	601a      	str	r2, [r3, #0]
 8001356:	605a      	str	r2, [r3, #4]
 8001358:	609a      	str	r2, [r3, #8]
 800135a:	60da      	str	r2, [r3, #12]
 800135c:	611a      	str	r2, [r3, #16]

  /* GPIO Ports Clock Enable */
  __HAL_RCC_GPIOC_CLK_ENABLE();
 800135e:	2300      	movs	r3, #0
 8001360:	613b      	str	r3, [r7, #16]
 8001362:	4b2e      	ldr	r3, [pc, #184]	; (800141c <MX_GPIO_Init+0xd4>)
 8001364:	6b1b      	ldr	r3, [r3, #48]	; 0x30
 8001366:	4a2d      	ldr	r2, [pc, #180]	; (800141c <MX_GPIO_Init+0xd4>)
 8001368:	f043 0304 	orr.w	r3, r3, #4
 800136c:	6313      	str	r3, [r2, #48]	; 0x30
 800136e:	4b2b      	ldr	r3, [pc, #172]	; (800141c <MX_GPIO_Init+0xd4>)
 8001370:	6b1b      	ldr	r3, [r3, #48]	; 0x30
 8001372:	f003 0304 	and.w	r3, r3, #4
 8001376:	613b      	str	r3, [r7, #16]
 8001378:	693b      	ldr	r3, [r7, #16]
  __HAL_RCC_GPIOH_CLK_ENABLE();
 800137a:	2300      	movs	r3, #0
 800137c:	60fb      	str	r3, [r7, #12]
 800137e:	4b27      	ldr	r3, [pc, #156]	; (800141c <MX_GPIO_Init+0xd4>)
 8001380:	6b1b      	ldr	r3, [r3, #48]	; 0x30
 8001382:	4a26      	ldr	r2, [pc, #152]	; (800141c <MX_GPIO_Init+0xd4>)
 8001384:	f043 0380 	orr.w	r3, r3, #128	; 0x80
 8001388:	6313      	str	r3, [r2, #48]	; 0x30
 800138a:	4b24      	ldr	r3, [pc, #144]	; (800141c <MX_GPIO_Init+0xd4>)
 800138c:	6b1b      	ldr	r3, [r3, #48]	; 0x30
 800138e:	f003 0380 	and.w	r3, r3, #128	; 0x80
 8001392:	60fb      	str	r3, [r7, #12]
 8001394:	68fb      	ldr	r3, [r7, #12]
  __HAL_RCC_GPIOA_CLK_ENABLE();
 8001396:	2300      	movs	r3, #0
 8001398:	60bb      	str	r3, [r7, #8]
 800139a:	4b20      	ldr	r3, [pc, #128]	; (800141c <MX_GPIO_Init+0xd4>)
 800139c:	6b1b      	ldr	r3, [r3, #48]	; 0x30
 800139e:	4a1f      	ldr	r2, [pc, #124]	; (800141c <MX_GPIO_Init+0xd4>)
 80013a0:	f043 0301 	orr.w	r3, r3, #1
 80013a4:	6313      	str	r3, [r2, #48]	; 0x30
 80013a6:	4b1d      	ldr	r3, [pc, #116]	; (800141c <MX_GPIO_Init+0xd4>)
 80013a8:	6b1b      	ldr	r3, [r3, #48]	; 0x30
 80013aa:	f003 0301 	and.w	r3, r3, #1
 80013ae:	60bb      	str	r3, [r7, #8]
 80013b0:	68bb      	ldr	r3, [r7, #8]
  __HAL_RCC_GPIOB_CLK_ENABLE();
 80013b2:	2300      	movs	r3, #0
 80013b4:	607b      	str	r3, [r7, #4]
 80013b6:	4b19      	ldr	r3, [pc, #100]	; (800141c <MX_GPIO_Init+0xd4>)
 80013b8:	6b1b      	ldr	r3, [r3, #48]	; 0x30
 80013ba:	4a18      	ldr	r2, [pc, #96]	; (800141c <MX_GPIO_Init+0xd4>)
 80013bc:	f043 0302 	orr.w	r3, r3, #2
 80013c0:	6313      	str	r3, [r2, #48]	; 0x30
 80013c2:	4b16      	ldr	r3, [pc, #88]	; (800141c <MX_GPIO_Init+0xd4>)
 80013c4:	6b1b      	ldr	r3, [r3, #48]	; 0x30
 80013c6:	f003 0302 	and.w	r3, r3, #2
 80013ca:	607b      	str	r3, [r7, #4]
 80013cc:	687b      	ldr	r3, [r7, #4]

  /*Configure GPIO pin Output Level */
  HAL_GPIO_WritePin(GPIOA, LD2_Pin|GPIO_PIN_10, GPIO_PIN_RESET);
 80013ce:	2200      	movs	r2, #0
 80013d0:	f44f 6184 	mov.w	r1, #1056	; 0x420
 80013d4:	4812      	ldr	r0, [pc, #72]	; (8001420 <MX_GPIO_Init+0xd8>)
 80013d6:	f001 fc6f 	bl	8002cb8 <HAL_GPIO_WritePin>

  /*Configure GPIO pin : B1_Pin */
  GPIO_InitStruct.Pin = B1_Pin;
 80013da:	f44f 5300 	mov.w	r3, #8192	; 0x2000
 80013de:	617b      	str	r3, [r7, #20]
  GPIO_InitStruct.Mode = GPIO_MODE_IT_FALLING;
 80013e0:	4b10      	ldr	r3, [pc, #64]	; (8001424 <MX_GPIO_Init+0xdc>)
 80013e2:	61bb      	str	r3, [r7, #24]
  GPIO_InitStruct.Pull = GPIO_NOPULL;
 80013e4:	2300      	movs	r3, #0
 80013e6:	61fb      	str	r3, [r7, #28]
  HAL_GPIO_Init(B1_GPIO_Port, &GPIO_InitStruct);
 80013e8:	f107 0314 	add.w	r3, r7, #20
 80013ec:	4619      	mov	r1, r3
 80013ee:	480e      	ldr	r0, [pc, #56]	; (8001428 <MX_GPIO_Init+0xe0>)
 80013f0:	f001 fad0 	bl	8002994 <HAL_GPIO_Init>

  /*Configure GPIO pins : LD2_Pin PA10 */
  GPIO_InitStruct.Pin = LD2_Pin|GPIO_PIN_10;
 80013f4:	f44f 6384 	mov.w	r3, #1056	; 0x420
 80013f8:	617b      	str	r3, [r7, #20]
  GPIO_InitStruct.Mode = GPIO_MODE_OUTPUT_PP;
 80013fa:	2301      	movs	r3, #1
 80013fc:	61bb      	str	r3, [r7, #24]
  GPIO_InitStruct.Pull = GPIO_NOPULL;
 80013fe:	2300      	movs	r3, #0
 8001400:	61fb      	str	r3, [r7, #28]
  GPIO_InitStruct.Speed = GPIO_SPEED_FREQ_LOW;
 8001402:	2300      	movs	r3, #0
 8001404:	623b      	str	r3, [r7, #32]
  HAL_GPIO_Init(GPIOA, &GPIO_InitStruct);
 8001406:	f107 0314 	add.w	r3, r7, #20
 800140a:	4619      	mov	r1, r3
 800140c:	4804      	ldr	r0, [pc, #16]	; (8001420 <MX_GPIO_Init+0xd8>)
 800140e:	f001 fac1 	bl	8002994 <HAL_GPIO_Init>

}
 8001412:	bf00      	nop
 8001414:	3728      	adds	r7, #40	; 0x28
 8001416:	46bd      	mov	sp, r7
 8001418:	bd80      	pop	{r7, pc}
 800141a:	bf00      	nop
 800141c:	40023800 	.word	0x40023800
 8001420:	40020000 	.word	0x40020000
 8001424:	10210000 	.word	0x10210000
 8001428:	40020800 	.word	0x40020800

0800142c <HAL_ADC_ConvCpltCallback>:
/*
void HAL_ADC_ConvHalfCpltCallback(ADC_HandleTypeDef* hadc) {
	HAL_GPIO_WritePin(LD2_GPIO_Port, LD2_Pin, GPIO_PIN_SET);
}
*/
void HAL_ADC_ConvCpltCallback(ADC_HandleTypeDef* hadc) {
 800142c:	b480      	push	{r7}
 800142e:	b083      	sub	sp, #12
 8001430:	af00      	add	r7, sp, #0
 8001432:	6078      	str	r0, [r7, #4]
	//HAL_GPIO_WritePin(LD2_GPIO_Port, LD2_Pin, GPIO_PIN_RESET);
	state = 1;
 8001434:	4b04      	ldr	r3, [pc, #16]	; (8001448 <HAL_ADC_ConvCpltCallback+0x1c>)
 8001436:	2201      	movs	r2, #1
 8001438:	601a      	str	r2, [r3, #0]
}
 800143a:	bf00      	nop
 800143c:	370c      	adds	r7, #12
 800143e:	46bd      	mov	sp, r7
 8001440:	f85d 7b04 	ldr.w	r7, [sp], #4
 8001444:	4770      	bx	lr
 8001446:	bf00      	nop
 8001448:	200001f8 	.word	0x200001f8

0800144c <Error_Handler>:
/**
  * @brief  This function is executed in case of error occurrence.
  * @retval None
  */
void Error_Handler(void)
{
 800144c:	b480      	push	{r7}
 800144e:	af00      	add	r7, sp, #0
  \details Disables IRQ interrupts by setting the I-bit in the CPSR.
           Can only be executed in Privileged modes.
 */
__STATIC_FORCEINLINE void __disable_irq(void)
{
  __ASM volatile ("cpsid i" : : : "memory");
 8001450:	b672      	cpsid	i
  /* USER CODE BEGIN Error_Handler_Debug */
  /* User can add his own implementation to report the HAL error return state */
  __disable_irq();
  while (1)
 8001452:	e7fe      	b.n	8001452 <Error_Handler+0x6>

08001454 <HAL_MspInit>:
/* USER CODE END 0 */
/**
  * Initializes the Global MSP.
  */
void HAL_MspInit(void)
{
 8001454:	b580      	push	{r7, lr}
 8001456:	b082      	sub	sp, #8
 8001458:	af00      	add	r7, sp, #0
  /* USER CODE BEGIN MspInit 0 */

  /* USER CODE END MspInit 0 */

  __HAL_RCC_SYSCFG_CLK_ENABLE();
 800145a:	2300      	movs	r3, #0
 800145c:	607b      	str	r3, [r7, #4]
 800145e:	4b10      	ldr	r3, [pc, #64]	; (80014a0 <HAL_MspInit+0x4c>)
 8001460:	6c5b      	ldr	r3, [r3, #68]	; 0x44
 8001462:	4a0f      	ldr	r2, [pc, #60]	; (80014a0 <HAL_MspInit+0x4c>)
 8001464:	f443 4380 	orr.w	r3, r3, #16384	; 0x4000
 8001468:	6453      	str	r3, [r2, #68]	; 0x44
 800146a:	4b0d      	ldr	r3, [pc, #52]	; (80014a0 <HAL_MspInit+0x4c>)
 800146c:	6c5b      	ldr	r3, [r3, #68]	; 0x44
 800146e:	f403 4380 	and.w	r3, r3, #16384	; 0x4000
 8001472:	607b      	str	r3, [r7, #4]
 8001474:	687b      	ldr	r3, [r7, #4]
  __HAL_RCC_PWR_CLK_ENABLE();
 8001476:	2300      	movs	r3, #0
 8001478:	603b      	str	r3, [r7, #0]
 800147a:	4b09      	ldr	r3, [pc, #36]	; (80014a0 <HAL_MspInit+0x4c>)
 800147c:	6c1b      	ldr	r3, [r3, #64]	; 0x40
 800147e:	4a08      	ldr	r2, [pc, #32]	; (80014a0 <HAL_MspInit+0x4c>)
 8001480:	f043 5380 	orr.w	r3, r3, #268435456	; 0x10000000
 8001484:	6413      	str	r3, [r2, #64]	; 0x40
 8001486:	4b06      	ldr	r3, [pc, #24]	; (80014a0 <HAL_MspInit+0x4c>)
 8001488:	6c1b      	ldr	r3, [r3, #64]	; 0x40
 800148a:	f003 5380 	and.w	r3, r3, #268435456	; 0x10000000
 800148e:	603b      	str	r3, [r7, #0]
 8001490:	683b      	ldr	r3, [r7, #0]

  HAL_NVIC_SetPriorityGrouping(NVIC_PRIORITYGROUP_0);
 8001492:	2007      	movs	r0, #7
 8001494:	f000 fece 	bl	8002234 <HAL_NVIC_SetPriorityGrouping>
  /* System interrupt init*/

  /* USER CODE BEGIN MspInit 1 */

  /* USER CODE END MspInit 1 */
}
 8001498:	bf00      	nop
 800149a:	3708      	adds	r7, #8
 800149c:	46bd      	mov	sp, r7
 800149e:	bd80      	pop	{r7, pc}
 80014a0:	40023800 	.word	0x40023800

080014a4 <HAL_ADC_MspInit>:
* This function configures the hardware resources used in this example
* @param hadc: ADC handle pointer
* @retval None
*/
void HAL_ADC_MspInit(ADC_HandleTypeDef* hadc)
{
 80014a4:	b580      	push	{r7, lr}
 80014a6:	b08a      	sub	sp, #40	; 0x28
 80014a8:	af00      	add	r7, sp, #0
 80014aa:	6078      	str	r0, [r7, #4]
  GPIO_InitTypeDef GPIO_InitStruct = {0};
 80014ac:	f107 0314 	add.w	r3, r7, #20
 80014b0:	2200      	movs	r2, #0
 80014b2:	601a      	str	r2, [r3, #0]
 80014b4:	605a      	str	r2, [r3, #4]
 80014b6:	609a      	str	r2, [r3, #8]
 80014b8:	60da      	str	r2, [r3, #12]
 80014ba:	611a      	str	r2, [r3, #16]
  if(hadc->Instance==ADC1)
 80014bc:	687b      	ldr	r3, [r7, #4]
 80014be:	681b      	ldr	r3, [r3, #0]
 80014c0:	4a2f      	ldr	r2, [pc, #188]	; (8001580 <HAL_ADC_MspInit+0xdc>)
 80014c2:	4293      	cmp	r3, r2
 80014c4:	d157      	bne.n	8001576 <HAL_ADC_MspInit+0xd2>
  {
  /* USER CODE BEGIN ADC1_MspInit 0 */

  /* USER CODE END ADC1_MspInit 0 */
    /* Peripheral clock enable */
    __HAL_RCC_ADC1_CLK_ENABLE();
 80014c6:	2300      	movs	r3, #0
 80014c8:	613b      	str	r3, [r7, #16]
 80014ca:	4b2e      	ldr	r3, [pc, #184]	; (8001584 <HAL_ADC_MspInit+0xe0>)
 80014cc:	6c5b      	ldr	r3, [r3, #68]	; 0x44
 80014ce:	4a2d      	ldr	r2, [pc, #180]	; (8001584 <HAL_ADC_MspInit+0xe0>)
 80014d0:	f443 7380 	orr.w	r3, r3, #256	; 0x100
 80014d4:	6453      	str	r3, [r2, #68]	; 0x44
 80014d6:	4b2b      	ldr	r3, [pc, #172]	; (8001584 <HAL_ADC_MspInit+0xe0>)
 80014d8:	6c5b      	ldr	r3, [r3, #68]	; 0x44
 80014da:	f403 7380 	and.w	r3, r3, #256	; 0x100
 80014de:	613b      	str	r3, [r7, #16]
 80014e0:	693b      	ldr	r3, [r7, #16]

    __HAL_RCC_GPIOA_CLK_ENABLE();
 80014e2:	2300      	movs	r3, #0
 80014e4:	60fb      	str	r3, [r7, #12]
 80014e6:	4b27      	ldr	r3, [pc, #156]	; (8001584 <HAL_ADC_MspInit+0xe0>)
 80014e8:	6b1b      	ldr	r3, [r3, #48]	; 0x30
 80014ea:	4a26      	ldr	r2, [pc, #152]	; (8001584 <HAL_ADC_MspInit+0xe0>)
 80014ec:	f043 0301 	orr.w	r3, r3, #1
 80014f0:	6313      	str	r3, [r2, #48]	; 0x30
 80014f2:	4b24      	ldr	r3, [pc, #144]	; (8001584 <HAL_ADC_MspInit+0xe0>)
 80014f4:	6b1b      	ldr	r3, [r3, #48]	; 0x30
 80014f6:	f003 0301 	and.w	r3, r3, #1
 80014fa:	60fb      	str	r3, [r7, #12]
 80014fc:	68fb      	ldr	r3, [r7, #12]
    /**ADC1 GPIO Configuration
    PA0-WKUP     ------> ADC1_IN0
    */
    GPIO_InitStruct.Pin = GPIO_PIN_0;
 80014fe:	2301      	movs	r3, #1
 8001500:	617b      	str	r3, [r7, #20]
    GPIO_InitStruct.Mode = GPIO_MODE_ANALOG;
 8001502:	2303      	movs	r3, #3
 8001504:	61bb      	str	r3, [r7, #24]
    GPIO_InitStruct.Pull = GPIO_NOPULL;
 8001506:	2300      	movs	r3, #0
 8001508:	61fb      	str	r3, [r7, #28]
    HAL_GPIO_Init(GPIOA, &GPIO_InitStruct);
 800150a:	f107 0314 	add.w	r3, r7, #20
 800150e:	4619      	mov	r1, r3
 8001510:	481d      	ldr	r0, [pc, #116]	; (8001588 <HAL_ADC_MspInit+0xe4>)
 8001512:	f001 fa3f 	bl	8002994 <HAL_GPIO_Init>

    /* ADC1 DMA Init */
    /* ADC1 Init */
    hdma_adc1.Instance = DMA2_Stream0;
 8001516:	4b1d      	ldr	r3, [pc, #116]	; (800158c <HAL_ADC_MspInit+0xe8>)
 8001518:	4a1d      	ldr	r2, [pc, #116]	; (8001590 <HAL_ADC_MspInit+0xec>)
 800151a:	601a      	str	r2, [r3, #0]
    hdma_adc1.Init.Channel = DMA_CHANNEL_0;
 800151c:	4b1b      	ldr	r3, [pc, #108]	; (800158c <HAL_ADC_MspInit+0xe8>)
 800151e:	2200      	movs	r2, #0
 8001520:	605a      	str	r2, [r3, #4]
    hdma_adc1.Init.Direction = DMA_PERIPH_TO_MEMORY;
 8001522:	4b1a      	ldr	r3, [pc, #104]	; (800158c <HAL_ADC_MspInit+0xe8>)
 8001524:	2200      	movs	r2, #0
 8001526:	609a      	str	r2, [r3, #8]
    hdma_adc1.Init.PeriphInc = DMA_PINC_DISABLE;
 8001528:	4b18      	ldr	r3, [pc, #96]	; (800158c <HAL_ADC_MspInit+0xe8>)
 800152a:	2200      	movs	r2, #0
 800152c:	60da      	str	r2, [r3, #12]
    hdma_adc1.Init.MemInc = DMA_MINC_ENABLE;
 800152e:	4b17      	ldr	r3, [pc, #92]	; (800158c <HAL_ADC_MspInit+0xe8>)
 8001530:	f44f 6280 	mov.w	r2, #1024	; 0x400
 8001534:	611a      	str	r2, [r3, #16]
    hdma_adc1.Init.PeriphDataAlignment = DMA_PDATAALIGN_HALFWORD;
 8001536:	4b15      	ldr	r3, [pc, #84]	; (800158c <HAL_ADC_MspInit+0xe8>)
 8001538:	f44f 6200 	mov.w	r2, #2048	; 0x800
 800153c:	615a      	str	r2, [r3, #20]
    hdma_adc1.Init.MemDataAlignment = DMA_MDATAALIGN_HALFWORD;
 800153e:	4b13      	ldr	r3, [pc, #76]	; (800158c <HAL_ADC_MspInit+0xe8>)
 8001540:	f44f 5200 	mov.w	r2, #8192	; 0x2000
 8001544:	619a      	str	r2, [r3, #24]
    hdma_adc1.Init.Mode = DMA_NORMAL;
 8001546:	4b11      	ldr	r3, [pc, #68]	; (800158c <HAL_ADC_MspInit+0xe8>)
 8001548:	2200      	movs	r2, #0
 800154a:	61da      	str	r2, [r3, #28]
    hdma_adc1.Init.Priority = DMA_PRIORITY_VERY_HIGH;
 800154c:	4b0f      	ldr	r3, [pc, #60]	; (800158c <HAL_ADC_MspInit+0xe8>)
 800154e:	f44f 3240 	mov.w	r2, #196608	; 0x30000
 8001552:	621a      	str	r2, [r3, #32]
    hdma_adc1.Init.FIFOMode = DMA_FIFOMODE_DISABLE;
 8001554:	4b0d      	ldr	r3, [pc, #52]	; (800158c <HAL_ADC_MspInit+0xe8>)
 8001556:	2200      	movs	r2, #0
 8001558:	625a      	str	r2, [r3, #36]	; 0x24
    if (HAL_DMA_Init(&hdma_adc1) != HAL_OK)
 800155a:	480c      	ldr	r0, [pc, #48]	; (800158c <HAL_ADC_MspInit+0xe8>)
 800155c:	f000 feac 	bl	80022b8 <HAL_DMA_Init>
 8001560:	4603      	mov	r3, r0
 8001562:	2b00      	cmp	r3, #0
 8001564:	d001      	beq.n	800156a <HAL_ADC_MspInit+0xc6>
    {
      Error_Handler();
 8001566:	f7ff ff71 	bl	800144c <Error_Handler>
    }

    __HAL_LINKDMA(hadc,DMA_Handle,hdma_adc1);
 800156a:	687b      	ldr	r3, [r7, #4]
 800156c:	4a07      	ldr	r2, [pc, #28]	; (800158c <HAL_ADC_MspInit+0xe8>)
 800156e:	639a      	str	r2, [r3, #56]	; 0x38
 8001570:	4a06      	ldr	r2, [pc, #24]	; (800158c <HAL_ADC_MspInit+0xe8>)
 8001572:	687b      	ldr	r3, [r7, #4]
 8001574:	6393      	str	r3, [r2, #56]	; 0x38
  /* USER CODE BEGIN ADC1_MspInit 1 */

  /* USER CODE END ADC1_MspInit 1 */
  }

}
 8001576:	bf00      	nop
 8001578:	3728      	adds	r7, #40	; 0x28
 800157a:	46bd      	mov	sp, r7
 800157c:	bd80      	pop	{r7, pc}
 800157e:	bf00      	nop
 8001580:	40012000 	.word	0x40012000
 8001584:	40023800 	.word	0x40023800
 8001588:	40020000 	.word	0x40020000
 800158c:	20008254 	.word	0x20008254
 8001590:	40026410 	.word	0x40026410

08001594 <HAL_UART_MspInit>:
* This function configures the hardware resources used in this example
* @param huart: UART handle pointer
* @retval None
*/
void HAL_UART_MspInit(UART_HandleTypeDef* huart)
{
 8001594:	b580      	push	{r7, lr}
 8001596:	b08a      	sub	sp, #40	; 0x28
 8001598:	af00      	add	r7, sp, #0
 800159a:	6078      	str	r0, [r7, #4]
  GPIO_InitTypeDef GPIO_InitStruct = {0};
 800159c:	f107 0314 	add.w	r3, r7, #20
 80015a0:	2200      	movs	r2, #0
 80015a2:	601a      	str	r2, [r3, #0]
 80015a4:	605a      	str	r2, [r3, #4]
 80015a6:	609a      	str	r2, [r3, #8]
 80015a8:	60da      	str	r2, [r3, #12]
 80015aa:	611a      	str	r2, [r3, #16]
  if(huart->Instance==USART2)
 80015ac:	687b      	ldr	r3, [r7, #4]
 80015ae:	681b      	ldr	r3, [r3, #0]
 80015b0:	4a19      	ldr	r2, [pc, #100]	; (8001618 <HAL_UART_MspInit+0x84>)
 80015b2:	4293      	cmp	r3, r2
 80015b4:	d12b      	bne.n	800160e <HAL_UART_MspInit+0x7a>
  {
  /* USER CODE BEGIN USART2_MspInit 0 */

  /* USER CODE END USART2_MspInit 0 */
    /* Peripheral clock enable */
    __HAL_RCC_USART2_CLK_ENABLE();
 80015b6:	2300      	movs	r3, #0
 80015b8:	613b      	str	r3, [r7, #16]
 80015ba:	4b18      	ldr	r3, [pc, #96]	; (800161c <HAL_UART_MspInit+0x88>)
 80015bc:	6c1b      	ldr	r3, [r3, #64]	; 0x40
 80015be:	4a17      	ldr	r2, [pc, #92]	; (800161c <HAL_UART_MspInit+0x88>)
 80015c0:	f443 3300 	orr.w	r3, r3, #131072	; 0x20000
 80015c4:	6413      	str	r3, [r2, #64]	; 0x40
 80015c6:	4b15      	ldr	r3, [pc, #84]	; (800161c <HAL_UART_MspInit+0x88>)
 80015c8:	6c1b      	ldr	r3, [r3, #64]	; 0x40
 80015ca:	f403 3300 	and.w	r3, r3, #131072	; 0x20000
 80015ce:	613b      	str	r3, [r7, #16]
 80015d0:	693b      	ldr	r3, [r7, #16]

    __HAL_RCC_GPIOA_CLK_ENABLE();
 80015d2:	2300      	movs	r3, #0
 80015d4:	60fb      	str	r3, [r7, #12]
 80015d6:	4b11      	ldr	r3, [pc, #68]	; (800161c <HAL_UART_MspInit+0x88>)
 80015d8:	6b1b      	ldr	r3, [r3, #48]	; 0x30
 80015da:	4a10      	ldr	r2, [pc, #64]	; (800161c <HAL_UART_MspInit+0x88>)
 80015dc:	f043 0301 	orr.w	r3, r3, #1
 80015e0:	6313      	str	r3, [r2, #48]	; 0x30
 80015e2:	4b0e      	ldr	r3, [pc, #56]	; (800161c <HAL_UART_MspInit+0x88>)
 80015e4:	6b1b      	ldr	r3, [r3, #48]	; 0x30
 80015e6:	f003 0301 	and.w	r3, r3, #1
 80015ea:	60fb      	str	r3, [r7, #12]
 80015ec:	68fb      	ldr	r3, [r7, #12]
    /**USART2 GPIO Configuration
    PA2     ------> USART2_TX
    PA3     ------> USART2_RX
    */
    GPIO_InitStruct.Pin = USART_TX_Pin|USART_RX_Pin;
 80015ee:	230c      	movs	r3, #12
 80015f0:	617b      	str	r3, [r7, #20]
    GPIO_InitStruct.Mode = GPIO_MODE_AF_PP;
 80015f2:	2302      	movs	r3, #2
 80015f4:	61bb      	str	r3, [r7, #24]
    GPIO_InitStruct.Pull = GPIO_NOPULL;
 80015f6:	2300      	movs	r3, #0
 80015f8:	61fb      	str	r3, [r7, #28]
    GPIO_InitStruct.Speed = GPIO_SPEED_FREQ_VERY_HIGH;
 80015fa:	2303      	movs	r3, #3
 80015fc:	623b      	str	r3, [r7, #32]
    GPIO_InitStruct.Alternate = GPIO_AF7_USART2;
 80015fe:	2307      	movs	r3, #7
 8001600:	627b      	str	r3, [r7, #36]	; 0x24
    HAL_GPIO_Init(GPIOA, &GPIO_InitStruct);
 8001602:	f107 0314 	add.w	r3, r7, #20
 8001606:	4619      	mov	r1, r3
 8001608:	4805      	ldr	r0, [pc, #20]	; (8001620 <HAL_UART_MspInit+0x8c>)
 800160a:	f001 f9c3 	bl	8002994 <HAL_GPIO_Init>
  /* USER CODE BEGIN USART2_MspInit 1 */

  /* USER CODE END USART2_MspInit 1 */
  }

}
 800160e:	bf00      	nop
 8001610:	3728      	adds	r7, #40	; 0x28
 8001612:	46bd      	mov	sp, r7
 8001614:	bd80      	pop	{r7, pc}
 8001616:	bf00      	nop
 8001618:	40004400 	.word	0x40004400
 800161c:	40023800 	.word	0x40023800
 8001620:	40020000 	.word	0x40020000

08001624 <NMI_Handler>:
/******************************************************************************/
/**
  * @brief This function handles Non maskable interrupt.
  */
void NMI_Handler(void)
{
 8001624:	b480      	push	{r7}
 8001626:	af00      	add	r7, sp, #0
  /* USER CODE BEGIN NonMaskableInt_IRQn 0 */

  /* USER CODE END NonMaskableInt_IRQn 0 */
  /* USER CODE BEGIN NonMaskableInt_IRQn 1 */
  while (1)
 8001628:	e7fe      	b.n	8001628 <NMI_Handler+0x4>

0800162a <HardFault_Handler>:

/**
  * @brief This function handles Hard fault interrupt.
  */
void HardFault_Handler(void)
{
 800162a:	b480      	push	{r7}
 800162c:	af00      	add	r7, sp, #0
  /* USER CODE BEGIN HardFault_IRQn 0 */

  /* USER CODE END HardFault_IRQn 0 */
  while (1)
 800162e:	e7fe      	b.n	800162e <HardFault_Handler+0x4>

08001630 <MemManage_Handler>:

/**
  * @brief This function handles Memory management fault.
  */
void MemManage_Handler(void)
{
 8001630:	b480      	push	{r7}
 8001632:	af00      	add	r7, sp, #0
  /* USER CODE BEGIN MemoryManagement_IRQn 0 */

  /* USER CODE END MemoryManagement_IRQn 0 */
  while (1)
 8001634:	e7fe      	b.n	8001634 <MemManage_Handler+0x4>

08001636 <BusFault_Handler>:

/**
  * @brief This function handles Pre-fetch fault, memory access fault.
  */
void BusFault_Handler(void)
{
 8001636:	b480      	push	{r7}
 8001638:	af00      	add	r7, sp, #0
  /* USER CODE BEGIN BusFault_IRQn 0 */

  /* USER CODE END BusFault_IRQn 0 */
  while (1)
 800163a:	e7fe      	b.n	800163a <BusFault_Handler+0x4>

0800163c <UsageFault_Handler>:

/**
  * @brief This function handles Undefined instruction or illegal state.
  */
void UsageFault_Handler(void)
{
 800163c:	b480      	push	{r7}
 800163e:	af00      	add	r7, sp, #0
  /* USER CODE BEGIN UsageFault_IRQn 0 */

  /* USER CODE END UsageFault_IRQn 0 */
  while (1)
 8001640:	e7fe      	b.n	8001640 <UsageFault_Handler+0x4>

08001642 <SVC_Handler>:

/**
  * @brief This function handles System service call via SWI instruction.
  */
void SVC_Handler(void)
{
 8001642:	b480      	push	{r7}
 8001644:	af00      	add	r7, sp, #0

  /* USER CODE END SVCall_IRQn 0 */
  /* USER CODE BEGIN SVCall_IRQn 1 */

  /* USER CODE END SVCall_IRQn 1 */
}
 8001646:	bf00      	nop
 8001648:	46bd      	mov	sp, r7
 800164a:	f85d 7b04 	ldr.w	r7, [sp], #4
 800164e:	4770      	bx	lr

08001650 <DebugMon_Handler>:

/**
  * @brief This function handles Debug monitor.
  */
void DebugMon_Handler(void)
{
 8001650:	b480      	push	{r7}
 8001652:	af00      	add	r7, sp, #0

  /* USER CODE END DebugMonitor_IRQn 0 */
  /* USER CODE BEGIN DebugMonitor_IRQn 1 */

  /* USER CODE END DebugMonitor_IRQn 1 */
}
 8001654:	bf00      	nop
 8001656:	46bd      	mov	sp, r7
 8001658:	f85d 7b04 	ldr.w	r7, [sp], #4
 800165c:	4770      	bx	lr

0800165e <PendSV_Handler>:

/**
  * @brief This function handles Pendable request for system service.
  */
void PendSV_Handler(void)
{
 800165e:	b480      	push	{r7}
 8001660:	af00      	add	r7, sp, #0

  /* USER CODE END PendSV_IRQn 0 */
  /* USER CODE BEGIN PendSV_IRQn 1 */

  /* USER CODE END PendSV_IRQn 1 */
}
 8001662:	bf00      	nop
 8001664:	46bd      	mov	sp, r7
 8001666:	f85d 7b04 	ldr.w	r7, [sp], #4
 800166a:	4770      	bx	lr

0800166c <SysTick_Handler>:

/**
  * @brief This function handles System tick timer.
  */
void SysTick_Handler(void)
{
 800166c:	b580      	push	{r7, lr}
 800166e:	af00      	add	r7, sp, #0
  /* USER CODE BEGIN SysTick_IRQn 0 */

  /* USER CODE END SysTick_IRQn 0 */
  HAL_IncTick();
 8001670:	f000 f8d4 	bl	800181c <HAL_IncTick>
  /* USER CODE BEGIN SysTick_IRQn 1 */

  /* USER CODE END SysTick_IRQn 1 */
}
 8001674:	bf00      	nop
 8001676:	bd80      	pop	{r7, pc}

08001678 <DMA2_Stream0_IRQHandler>:

/**
  * @brief This function handles DMA2 stream0 global interrupt.
  */
void DMA2_Stream0_IRQHandler(void)
{
 8001678:	b580      	push	{r7, lr}
 800167a:	af00      	add	r7, sp, #0
  /* USER CODE BEGIN DMA2_Stream0_IRQn 0 */

  /* USER CODE END DMA2_Stream0_IRQn 0 */
  HAL_DMA_IRQHandler(&hdma_adc1);
 800167c:	4802      	ldr	r0, [pc, #8]	; (8001688 <DMA2_Stream0_IRQHandler+0x10>)
 800167e:	f000 ff21 	bl	80024c4 <HAL_DMA_IRQHandler>
  /* USER CODE BEGIN DMA2_Stream0_IRQn 1 */

  /* USER CODE END DMA2_Stream0_IRQn 1 */
}
 8001682:	bf00      	nop
 8001684:	bd80      	pop	{r7, pc}
 8001686:	bf00      	nop
 8001688:	20008254 	.word	0x20008254

0800168c <_sbrk>:
 *
 * @param incr Memory size
 * @return Pointer to allocated memory
 */
void *_sbrk(ptrdiff_t incr)
{
 800168c:	b580      	push	{r7, lr}
 800168e:	b086      	sub	sp, #24
 8001690:	af00      	add	r7, sp, #0
 8001692:	6078      	str	r0, [r7, #4]
  extern uint8_t _end; /* Symbol defined in the linker script */
  extern uint8_t _estack; /* Symbol defined in the linker script */
  extern uint32_t _Min_Stack_Size; /* Symbol defined in the linker script */
  const uint32_t stack_limit = (uint32_t)&_estack - (uint32_t)&_Min_Stack_Size;
 8001694:	4a14      	ldr	r2, [pc, #80]	; (80016e8 <_sbrk+0x5c>)
 8001696:	4b15      	ldr	r3, [pc, #84]	; (80016ec <_sbrk+0x60>)
 8001698:	1ad3      	subs	r3, r2, r3
 800169a:	617b      	str	r3, [r7, #20]
  const uint8_t *max_heap = (uint8_t *)stack_limit;
 800169c:	697b      	ldr	r3, [r7, #20]
 800169e:	613b      	str	r3, [r7, #16]
  uint8_t *prev_heap_end;

  /* Initialize heap end at first call */
  if (NULL == __sbrk_heap_end)
 80016a0:	4b13      	ldr	r3, [pc, #76]	; (80016f0 <_sbrk+0x64>)
 80016a2:	681b      	ldr	r3, [r3, #0]
 80016a4:	2b00      	cmp	r3, #0
 80016a6:	d102      	bne.n	80016ae <_sbrk+0x22>
  {
    __sbrk_heap_end = &_end;
 80016a8:	4b11      	ldr	r3, [pc, #68]	; (80016f0 <_sbrk+0x64>)
 80016aa:	4a12      	ldr	r2, [pc, #72]	; (80016f4 <_sbrk+0x68>)
 80016ac:	601a      	str	r2, [r3, #0]
  }

  /* Protect heap from growing into the reserved MSP stack */
  if (__sbrk_heap_end + incr > max_heap)
 80016ae:	4b10      	ldr	r3, [pc, #64]	; (80016f0 <_sbrk+0x64>)
 80016b0:	681a      	ldr	r2, [r3, #0]
 80016b2:	687b      	ldr	r3, [r7, #4]
 80016b4:	4413      	add	r3, r2
 80016b6:	693a      	ldr	r2, [r7, #16]
 80016b8:	429a      	cmp	r2, r3
 80016ba:	d207      	bcs.n	80016cc <_sbrk+0x40>
  {
    errno = ENOMEM;
 80016bc:	f002 fd26 	bl	800410c <__errno>
 80016c0:	4602      	mov	r2, r0
 80016c2:	230c      	movs	r3, #12
 80016c4:	6013      	str	r3, [r2, #0]
    return (void *)-1;
 80016c6:	f04f 33ff 	mov.w	r3, #4294967295
 80016ca:	e009      	b.n	80016e0 <_sbrk+0x54>
  }

  prev_heap_end = __sbrk_heap_end;
 80016cc:	4b08      	ldr	r3, [pc, #32]	; (80016f0 <_sbrk+0x64>)
 80016ce:	681b      	ldr	r3, [r3, #0]
 80016d0:	60fb      	str	r3, [r7, #12]
  __sbrk_heap_end += incr;
 80016d2:	4b07      	ldr	r3, [pc, #28]	; (80016f0 <_sbrk+0x64>)
 80016d4:	681a      	ldr	r2, [r3, #0]
 80016d6:	687b      	ldr	r3, [r7, #4]
 80016d8:	4413      	add	r3, r2
 80016da:	4a05      	ldr	r2, [pc, #20]	; (80016f0 <_sbrk+0x64>)
 80016dc:	6013      	str	r3, [r2, #0]

  return (void *)prev_heap_end;
 80016de:	68fb      	ldr	r3, [r7, #12]
}
 80016e0:	4618      	mov	r0, r3
 80016e2:	3718      	adds	r7, #24
 80016e4:	46bd      	mov	sp, r7
 80016e6:	bd80      	pop	{r7, pc}
 80016e8:	20020000 	.word	0x20020000
 80016ec:	00000400 	.word	0x00000400
 80016f0:	20000200 	.word	0x20000200
 80016f4:	2000c300 	.word	0x2000c300

080016f8 <SystemInit>:
  *         configuration.
  * @param  None
  * @retval None
  */
void SystemInit(void)
{
 80016f8:	b480      	push	{r7}
 80016fa:	af00      	add	r7, sp, #0
  /* FPU settings ------------------------------------------------------------*/
  #if (__FPU_PRESENT == 1) && (__FPU_USED == 1)
    SCB->CPACR |= ((3UL << 10*2)|(3UL << 11*2));  /* set CP10 and CP11 Full Access */
 80016fc:	4b08      	ldr	r3, [pc, #32]	; (8001720 <SystemInit+0x28>)
 80016fe:	f8d3 3088 	ldr.w	r3, [r3, #136]	; 0x88
 8001702:	4a07      	ldr	r2, [pc, #28]	; (8001720 <SystemInit+0x28>)
 8001704:	f443 0370 	orr.w	r3, r3, #15728640	; 0xf00000
 8001708:	f8c2 3088 	str.w	r3, [r2, #136]	; 0x88

  /* Configure the Vector Table location add offset address ------------------*/
#ifdef VECT_TAB_SRAM
  SCB->VTOR = SRAM_BASE | VECT_TAB_OFFSET; /* Vector Table Relocation in Internal SRAM */
#else
  SCB->VTOR = FLASH_BASE | VECT_TAB_OFFSET; /* Vector Table Relocation in Internal FLASH */
 800170c:	4b04      	ldr	r3, [pc, #16]	; (8001720 <SystemInit+0x28>)
 800170e:	f04f 6200 	mov.w	r2, #134217728	; 0x8000000
 8001712:	609a      	str	r2, [r3, #8]
#endif
}
 8001714:	bf00      	nop
 8001716:	46bd      	mov	sp, r7
 8001718:	f85d 7b04 	ldr.w	r7, [sp], #4
 800171c:	4770      	bx	lr
 800171e:	bf00      	nop
 8001720:	e000ed00 	.word	0xe000ed00

08001724 <Reset_Handler>:

    .section  .text.Reset_Handler
  .weak  Reset_Handler
  .type  Reset_Handler, %function
Reset_Handler:  
  ldr   sp, =_estack      /* set stack pointer */
 8001724:	f8df d034 	ldr.w	sp, [pc, #52]	; 800175c <LoopFillZerobss+0x14>

/* Copy the data segment initializers from flash to SRAM */  
  movs  r1, #0
 8001728:	2100      	movs	r1, #0
  b  LoopCopyDataInit
 800172a:	e003      	b.n	8001734 <LoopCopyDataInit>

0800172c <CopyDataInit>:

CopyDataInit:
  ldr  r3, =_sidata
 800172c:	4b0c      	ldr	r3, [pc, #48]	; (8001760 <LoopFillZerobss+0x18>)
  ldr  r3, [r3, r1]
 800172e:	585b      	ldr	r3, [r3, r1]
  str  r3, [r0, r1]
 8001730:	5043      	str	r3, [r0, r1]
  adds  r1, r1, #4
 8001732:	3104      	adds	r1, #4

08001734 <LoopCopyDataInit>:
    
LoopCopyDataInit:
  ldr  r0, =_sdata
 8001734:	480b      	ldr	r0, [pc, #44]	; (8001764 <LoopFillZerobss+0x1c>)
  ldr  r3, =_edata
 8001736:	4b0c      	ldr	r3, [pc, #48]	; (8001768 <LoopFillZerobss+0x20>)
  adds  r2, r0, r1
 8001738:	1842      	adds	r2, r0, r1
  cmp  r2, r3
 800173a:	429a      	cmp	r2, r3
  bcc  CopyDataInit
 800173c:	d3f6      	bcc.n	800172c <CopyDataInit>
  ldr  r2, =_sbss
 800173e:	4a0b      	ldr	r2, [pc, #44]	; (800176c <LoopFillZerobss+0x24>)
  b  LoopFillZerobss
 8001740:	e002      	b.n	8001748 <LoopFillZerobss>

08001742 <FillZerobss>:
/* Zero fill the bss segment. */  
FillZerobss:
  movs  r3, #0
 8001742:	2300      	movs	r3, #0
  str  r3, [r2], #4
 8001744:	f842 3b04 	str.w	r3, [r2], #4

08001748 <LoopFillZerobss>:
    
LoopFillZerobss:
  ldr  r3, = _ebss
 8001748:	4b09      	ldr	r3, [pc, #36]	; (8001770 <LoopFillZerobss+0x28>)
  cmp  r2, r3
 800174a:	429a      	cmp	r2, r3
  bcc  FillZerobss
 800174c:	d3f9      	bcc.n	8001742 <FillZerobss>

/* Call the clock system intitialization function.*/
  bl  SystemInit   
 800174e:	f7ff ffd3 	bl	80016f8 <SystemInit>
/* Call static constructors */
    bl __libc_init_array
 8001752:	f002 fce1 	bl	8004118 <__libc_init_array>
/* Call the application's entry point.*/
  bl  main
 8001756:	f7ff fc17 	bl	8000f88 <main>
  bx  lr    
 800175a:	4770      	bx	lr
  ldr   sp, =_estack      /* set stack pointer */
 800175c:	20020000 	.word	0x20020000
  ldr  r3, =_sidata
 8001760:	08006490 	.word	0x08006490
  ldr  r0, =_sdata
 8001764:	20000000 	.word	0x20000000
  ldr  r3, =_edata
 8001768:	200001dc 	.word	0x200001dc
  ldr  r2, =_sbss
 800176c:	200001dc 	.word	0x200001dc
  ldr  r3, = _ebss
 8001770:	2000c2fc 	.word	0x2000c2fc

08001774 <ADC_IRQHandler>:
 * @retval None       
*/
    .section  .text.Default_Handler,"ax",%progbits
Default_Handler:
Infinite_Loop:
  b  Infinite_Loop
 8001774:	e7fe      	b.n	8001774 <ADC_IRQHandler>
	...

08001778 <HAL_Init>:
  *         need to ensure that the SysTick time base is always set to 1 millisecond
  *         to have correct HAL operation.
  * @retval HAL status
  */
HAL_StatusTypeDef HAL_Init(void)
{
 8001778:	b580      	push	{r7, lr}
 800177a:	af00      	add	r7, sp, #0
  /* Configure Flash prefetch, Instruction cache, Data cache */ 
#if (INSTRUCTION_CACHE_ENABLE != 0U)
  __HAL_FLASH_INSTRUCTION_CACHE_ENABLE();
 800177c:	4b0e      	ldr	r3, [pc, #56]	; (80017b8 <HAL_Init+0x40>)
 800177e:	681b      	ldr	r3, [r3, #0]
 8001780:	4a0d      	ldr	r2, [pc, #52]	; (80017b8 <HAL_Init+0x40>)
 8001782:	f443 7300 	orr.w	r3, r3, #512	; 0x200
 8001786:	6013      	str	r3, [r2, #0]
#endif /* INSTRUCTION_CACHE_ENABLE */

#if (DATA_CACHE_ENABLE != 0U)
  __HAL_FLASH_DATA_CACHE_ENABLE();
 8001788:	4b0b      	ldr	r3, [pc, #44]	; (80017b8 <HAL_Init+0x40>)
 800178a:	681b      	ldr	r3, [r3, #0]
 800178c:	4a0a      	ldr	r2, [pc, #40]	; (80017b8 <HAL_Init+0x40>)
 800178e:	f443 6380 	orr.w	r3, r3, #1024	; 0x400
 8001792:	6013      	str	r3, [r2, #0]
#endif /* DATA_CACHE_ENABLE */

#if (PREFETCH_ENABLE != 0U)
  __HAL_FLASH_PREFETCH_BUFFER_ENABLE();
 8001794:	4b08      	ldr	r3, [pc, #32]	; (80017b8 <HAL_Init+0x40>)
 8001796:	681b      	ldr	r3, [r3, #0]
 8001798:	4a07      	ldr	r2, [pc, #28]	; (80017b8 <HAL_Init+0x40>)
 800179a:	f443 7380 	orr.w	r3, r3, #256	; 0x100
 800179e:	6013      	str	r3, [r2, #0]
#endif /* PREFETCH_ENABLE */

  /* Set Interrupt Group Priority */
  HAL_NVIC_SetPriorityGrouping(NVIC_PRIORITYGROUP_4);
 80017a0:	2003      	movs	r0, #3
 80017a2:	f000 fd47 	bl	8002234 <HAL_NVIC_SetPriorityGrouping>

  /* Use systick as time base source and configure 1ms tick (default clock after Reset is HSI) */
  HAL_InitTick(TICK_INT_PRIORITY);
 80017a6:	2000      	movs	r0, #0
 80017a8:	f000 f808 	bl	80017bc <HAL_InitTick>

  /* Init the low level hardware */
  HAL_MspInit();
 80017ac:	f7ff fe52 	bl	8001454 <HAL_MspInit>

  /* Return function status */
  return HAL_OK;
 80017b0:	2300      	movs	r3, #0
}
 80017b2:	4618      	mov	r0, r3
 80017b4:	bd80      	pop	{r7, pc}
 80017b6:	bf00      	nop
 80017b8:	40023c00 	.word	0x40023c00

080017bc <HAL_InitTick>:
  *       implementation  in user file.
  * @param TickPriority Tick interrupt priority.
  * @retval HAL status
  */
__weak HAL_StatusTypeDef HAL_InitTick(uint32_t TickPriority)
{
 80017bc:	b580      	push	{r7, lr}
 80017be:	b082      	sub	sp, #8
 80017c0:	af00      	add	r7, sp, #0
 80017c2:	6078      	str	r0, [r7, #4]
  /* Configure the SysTick to have interrupt in 1ms time basis*/
  if (HAL_SYSTICK_Config(SystemCoreClock / (1000U / uwTickFreq)) > 0U)
 80017c4:	4b12      	ldr	r3, [pc, #72]	; (8001810 <HAL_InitTick+0x54>)
 80017c6:	681a      	ldr	r2, [r3, #0]
 80017c8:	4b12      	ldr	r3, [pc, #72]	; (8001814 <HAL_InitTick+0x58>)
 80017ca:	781b      	ldrb	r3, [r3, #0]
 80017cc:	4619      	mov	r1, r3
 80017ce:	f44f 737a 	mov.w	r3, #1000	; 0x3e8
 80017d2:	fbb3 f3f1 	udiv	r3, r3, r1
 80017d6:	fbb2 f3f3 	udiv	r3, r2, r3
 80017da:	4618      	mov	r0, r3
 80017dc:	f000 fd5f 	bl	800229e <HAL_SYSTICK_Config>
 80017e0:	4603      	mov	r3, r0
 80017e2:	2b00      	cmp	r3, #0
 80017e4:	d001      	beq.n	80017ea <HAL_InitTick+0x2e>
  {
    return HAL_ERROR;
 80017e6:	2301      	movs	r3, #1
 80017e8:	e00e      	b.n	8001808 <HAL_InitTick+0x4c>
  }

  /* Configure the SysTick IRQ priority */
  if (TickPriority < (1UL << __NVIC_PRIO_BITS))
 80017ea:	687b      	ldr	r3, [r7, #4]
 80017ec:	2b0f      	cmp	r3, #15
 80017ee:	d80a      	bhi.n	8001806 <HAL_InitTick+0x4a>
  {
    HAL_NVIC_SetPriority(SysTick_IRQn, TickPriority, 0U);
 80017f0:	2200      	movs	r2, #0
 80017f2:	6879      	ldr	r1, [r7, #4]
 80017f4:	f04f 30ff 	mov.w	r0, #4294967295
 80017f8:	f000 fd27 	bl	800224a <HAL_NVIC_SetPriority>
    uwTickPrio = TickPriority;
 80017fc:	4a06      	ldr	r2, [pc, #24]	; (8001818 <HAL_InitTick+0x5c>)
 80017fe:	687b      	ldr	r3, [r7, #4]
 8001800:	6013      	str	r3, [r2, #0]
  {
    return HAL_ERROR;
  }

  /* Return function status */
  return HAL_OK;
 8001802:	2300      	movs	r3, #0
 8001804:	e000      	b.n	8001808 <HAL_InitTick+0x4c>
    return HAL_ERROR;
 8001806:	2301      	movs	r3, #1
}
 8001808:	4618      	mov	r0, r3
 800180a:	3708      	adds	r7, #8
 800180c:	46bd      	mov	sp, r7
 800180e:	bd80      	pop	{r7, pc}
 8001810:	20000000 	.word	0x20000000
 8001814:	20000008 	.word	0x20000008
 8001818:	20000004 	.word	0x20000004

0800181c <HAL_IncTick>:
 * @note This function is declared as __weak to be overwritten in case of other 
  *      implementations in user file.
  * @retval None
  */
__weak void HAL_IncTick(void)
{
 800181c:	b480      	push	{r7}
 800181e:	af00      	add	r7, sp, #0
  uwTick += uwTickFreq;
 8001820:	4b06      	ldr	r3, [pc, #24]	; (800183c <HAL_IncTick+0x20>)
 8001822:	781b      	ldrb	r3, [r3, #0]
 8001824:	461a      	mov	r2, r3
 8001826:	4b06      	ldr	r3, [pc, #24]	; (8001840 <HAL_IncTick+0x24>)
 8001828:	681b      	ldr	r3, [r3, #0]
 800182a:	4413      	add	r3, r2
 800182c:	4a04      	ldr	r2, [pc, #16]	; (8001840 <HAL_IncTick+0x24>)
 800182e:	6013      	str	r3, [r2, #0]
}
 8001830:	bf00      	nop
 8001832:	46bd      	mov	sp, r7
 8001834:	f85d 7b04 	ldr.w	r7, [sp], #4
 8001838:	4770      	bx	lr
 800183a:	bf00      	nop
 800183c:	20000008 	.word	0x20000008
 8001840:	2000c2f4 	.word	0x2000c2f4

08001844 <HAL_GetTick>:
  * @note This function is declared as __weak to be overwritten in case of other 
  *       implementations in user file.
  * @retval tick value
  */
__weak uint32_t HAL_GetTick(void)
{
 8001844:	b480      	push	{r7}
 8001846:	af00      	add	r7, sp, #0
  return uwTick;
 8001848:	4b03      	ldr	r3, [pc, #12]	; (8001858 <HAL_GetTick+0x14>)
 800184a:	681b      	ldr	r3, [r3, #0]
}
 800184c:	4618      	mov	r0, r3
 800184e:	46bd      	mov	sp, r7
 8001850:	f85d 7b04 	ldr.w	r7, [sp], #4
 8001854:	4770      	bx	lr
 8001856:	bf00      	nop
 8001858:	2000c2f4 	.word	0x2000c2f4

0800185c <HAL_Delay>:
  *       implementations in user file.
  * @param Delay specifies the delay time length, in milliseconds.
  * @retval None
  */
__weak void HAL_Delay(uint32_t Delay)
{
 800185c:	b580      	push	{r7, lr}
 800185e:	b084      	sub	sp, #16
 8001860:	af00      	add	r7, sp, #0
 8001862:	6078      	str	r0, [r7, #4]
  uint32_t tickstart = HAL_GetTick();
 8001864:	f7ff ffee 	bl	8001844 <HAL_GetTick>
 8001868:	60b8      	str	r0, [r7, #8]
  uint32_t wait = Delay;
 800186a:	687b      	ldr	r3, [r7, #4]
 800186c:	60fb      	str	r3, [r7, #12]

  /* Add a freq to guarantee minimum wait */
  if (wait < HAL_MAX_DELAY)
 800186e:	68fb      	ldr	r3, [r7, #12]
 8001870:	f1b3 3fff 	cmp.w	r3, #4294967295
 8001874:	d005      	beq.n	8001882 <HAL_Delay+0x26>
  {
    wait += (uint32_t)(uwTickFreq);
 8001876:	4b09      	ldr	r3, [pc, #36]	; (800189c <HAL_Delay+0x40>)
 8001878:	781b      	ldrb	r3, [r3, #0]
 800187a:	461a      	mov	r2, r3
 800187c:	68fb      	ldr	r3, [r7, #12]
 800187e:	4413      	add	r3, r2
 8001880:	60fb      	str	r3, [r7, #12]
  }

  while((HAL_GetTick() - tickstart) < wait)
 8001882:	bf00      	nop
 8001884:	f7ff ffde 	bl	8001844 <HAL_GetTick>
 8001888:	4602      	mov	r2, r0
 800188a:	68bb      	ldr	r3, [r7, #8]
 800188c:	1ad3      	subs	r3, r2, r3
 800188e:	68fa      	ldr	r2, [r7, #12]
 8001890:	429a      	cmp	r2, r3
 8001892:	d8f7      	bhi.n	8001884 <HAL_Delay+0x28>
  {
  }
}
 8001894:	bf00      	nop
 8001896:	3710      	adds	r7, #16
 8001898:	46bd      	mov	sp, r7
 800189a:	bd80      	pop	{r7, pc}
 800189c:	20000008 	.word	0x20000008

080018a0 <HAL_ADC_Init>:
  * @param  hadc pointer to a ADC_HandleTypeDef structure that contains
  *         the configuration information for the specified ADC.  
  * @retval HAL status
  */
HAL_StatusTypeDef HAL_ADC_Init(ADC_HandleTypeDef* hadc)
{
 80018a0:	b580      	push	{r7, lr}
 80018a2:	b084      	sub	sp, #16
 80018a4:	af00      	add	r7, sp, #0
 80018a6:	6078      	str	r0, [r7, #4]
  HAL_StatusTypeDef tmp_hal_status = HAL_OK;
 80018a8:	2300      	movs	r3, #0
 80018aa:	73fb      	strb	r3, [r7, #15]
  
  /* Check ADC handle */
  if(hadc == NULL)
 80018ac:	687b      	ldr	r3, [r7, #4]
 80018ae:	2b00      	cmp	r3, #0
 80018b0:	d101      	bne.n	80018b6 <HAL_ADC_Init+0x16>
  {
    return HAL_ERROR;
 80018b2:	2301      	movs	r3, #1
 80018b4:	e033      	b.n	800191e <HAL_ADC_Init+0x7e>
  if(hadc->Init.ExternalTrigConv != ADC_SOFTWARE_START)
  {
    assert_param(IS_ADC_EXT_TRIG_EDGE(hadc->Init.ExternalTrigConvEdge));
  }
  
  if(hadc->State == HAL_ADC_STATE_RESET)
 80018b6:	687b      	ldr	r3, [r7, #4]
 80018b8:	6c1b      	ldr	r3, [r3, #64]	; 0x40
 80018ba:	2b00      	cmp	r3, #0
 80018bc:	d109      	bne.n	80018d2 <HAL_ADC_Init+0x32>

    /* Init the low level hardware */
    hadc->MspInitCallback(hadc);
#else
    /* Init the low level hardware */
    HAL_ADC_MspInit(hadc);
 80018be:	6878      	ldr	r0, [r7, #4]
 80018c0:	f7ff fdf0 	bl	80014a4 <HAL_ADC_MspInit>
#endif /* USE_HAL_ADC_REGISTER_CALLBACKS */

    /* Initialize ADC error code */
    ADC_CLEAR_ERRORCODE(hadc);
 80018c4:	687b      	ldr	r3, [r7, #4]
 80018c6:	2200      	movs	r2, #0
 80018c8:	645a      	str	r2, [r3, #68]	; 0x44
    
    /* Allocate lock resource and initialize it */
    hadc->Lock = HAL_UNLOCKED;
 80018ca:	687b      	ldr	r3, [r7, #4]
 80018cc:	2200      	movs	r2, #0
 80018ce:	f883 203c 	strb.w	r2, [r3, #60]	; 0x3c
  }
  
  /* Configuration of ADC parameters if previous preliminary actions are      */ 
  /* correctly completed.                                                     */
  if (HAL_IS_BIT_CLR(hadc->State, HAL_ADC_STATE_ERROR_INTERNAL))
 80018d2:	687b      	ldr	r3, [r7, #4]
 80018d4:	6c1b      	ldr	r3, [r3, #64]	; 0x40
 80018d6:	f003 0310 	and.w	r3, r3, #16
 80018da:	2b00      	cmp	r3, #0
 80018dc:	d118      	bne.n	8001910 <HAL_ADC_Init+0x70>
  {
    /* Set ADC state */
    ADC_STATE_CLR_SET(hadc->State,
 80018de:	687b      	ldr	r3, [r7, #4]
 80018e0:	6c1b      	ldr	r3, [r3, #64]	; 0x40
 80018e2:	f423 5388 	bic.w	r3, r3, #4352	; 0x1100
 80018e6:	f023 0302 	bic.w	r3, r3, #2
 80018ea:	f043 0202 	orr.w	r2, r3, #2
 80018ee:	687b      	ldr	r3, [r7, #4]
 80018f0:	641a      	str	r2, [r3, #64]	; 0x40
                      HAL_ADC_STATE_REG_BUSY | HAL_ADC_STATE_INJ_BUSY,
                      HAL_ADC_STATE_BUSY_INTERNAL);
    
    /* Set ADC parameters */
    ADC_Init(hadc);
 80018f2:	6878      	ldr	r0, [r7, #4]
 80018f4:	f000 fa50 	bl	8001d98 <ADC_Init>
    
    /* Set ADC error code to none */
    ADC_CLEAR_ERRORCODE(hadc);
 80018f8:	687b      	ldr	r3, [r7, #4]
 80018fa:	2200      	movs	r2, #0
 80018fc:	645a      	str	r2, [r3, #68]	; 0x44
    
    /* Set the ADC state */
    ADC_STATE_CLR_SET(hadc->State,
 80018fe:	687b      	ldr	r3, [r7, #4]
 8001900:	6c1b      	ldr	r3, [r3, #64]	; 0x40
 8001902:	f023 0303 	bic.w	r3, r3, #3
 8001906:	f043 0201 	orr.w	r2, r3, #1
 800190a:	687b      	ldr	r3, [r7, #4]
 800190c:	641a      	str	r2, [r3, #64]	; 0x40
 800190e:	e001      	b.n	8001914 <HAL_ADC_Init+0x74>
                      HAL_ADC_STATE_BUSY_INTERNAL,
                      HAL_ADC_STATE_READY);
  }
  else
  {
    tmp_hal_status = HAL_ERROR;
 8001910:	2301      	movs	r3, #1
 8001912:	73fb      	strb	r3, [r7, #15]
  }
  
  /* Release Lock */
  __HAL_UNLOCK(hadc);
 8001914:	687b      	ldr	r3, [r7, #4]
 8001916:	2200      	movs	r2, #0
 8001918:	f883 203c 	strb.w	r2, [r3, #60]	; 0x3c

  /* Return function status */
  return tmp_hal_status;
 800191c:	7bfb      	ldrb	r3, [r7, #15]
}
 800191e:	4618      	mov	r0, r3
 8001920:	3710      	adds	r7, #16
 8001922:	46bd      	mov	sp, r7
 8001924:	bd80      	pop	{r7, pc}
	...

08001928 <HAL_ADC_Start_DMA>:
  * @param  pData The destination Buffer address.
  * @param  Length The length of data to be transferred from ADC peripheral to memory.
  * @retval HAL status
  */
HAL_StatusTypeDef HAL_ADC_Start_DMA(ADC_HandleTypeDef* hadc, uint32_t* pData, uint32_t Length)
{
 8001928:	b580      	push	{r7, lr}
 800192a:	b086      	sub	sp, #24
 800192c:	af00      	add	r7, sp, #0
 800192e:	60f8      	str	r0, [r7, #12]
 8001930:	60b9      	str	r1, [r7, #8]
 8001932:	607a      	str	r2, [r7, #4]
  __IO uint32_t counter = 0U;
 8001934:	2300      	movs	r3, #0
 8001936:	613b      	str	r3, [r7, #16]
  /* Check the parameters */
  assert_param(IS_FUNCTIONAL_STATE(hadc->Init.ContinuousConvMode));
  assert_param(IS_ADC_EXT_TRIG_EDGE(hadc->Init.ExternalTrigConvEdge)); 
  
  /* Process locked */
  __HAL_LOCK(hadc);
 8001938:	68fb      	ldr	r3, [r7, #12]
 800193a:	f893 303c 	ldrb.w	r3, [r3, #60]	; 0x3c
 800193e:	2b01      	cmp	r3, #1
 8001940:	d101      	bne.n	8001946 <HAL_ADC_Start_DMA+0x1e>
 8001942:	2302      	movs	r3, #2
 8001944:	e0cc      	b.n	8001ae0 <HAL_ADC_Start_DMA+0x1b8>
 8001946:	68fb      	ldr	r3, [r7, #12]
 8001948:	2201      	movs	r2, #1
 800194a:	f883 203c 	strb.w	r2, [r3, #60]	; 0x3c
  
  /* Enable the ADC peripheral */
  /* Check if ADC peripheral is disabled in order to enable it and wait during 
  Tstab time the ADC's stabilization */
  if((hadc->Instance->CR2 & ADC_CR2_ADON) != ADC_CR2_ADON)
 800194e:	68fb      	ldr	r3, [r7, #12]
 8001950:	681b      	ldr	r3, [r3, #0]
 8001952:	689b      	ldr	r3, [r3, #8]
 8001954:	f003 0301 	and.w	r3, r3, #1
 8001958:	2b01      	cmp	r3, #1
 800195a:	d018      	beq.n	800198e <HAL_ADC_Start_DMA+0x66>
  {  
    /* Enable the Peripheral */
    __HAL_ADC_ENABLE(hadc);
 800195c:	68fb      	ldr	r3, [r7, #12]
 800195e:	681b      	ldr	r3, [r3, #0]
 8001960:	689a      	ldr	r2, [r3, #8]
 8001962:	68fb      	ldr	r3, [r7, #12]
 8001964:	681b      	ldr	r3, [r3, #0]
 8001966:	f042 0201 	orr.w	r2, r2, #1
 800196a:	609a      	str	r2, [r3, #8]
    
    /* Delay for ADC stabilization time */
    /* Compute number of CPU cycles to wait for */
    counter = (ADC_STAB_DELAY_US * (SystemCoreClock / 1000000U));
 800196c:	4b5e      	ldr	r3, [pc, #376]	; (8001ae8 <HAL_ADC_Start_DMA+0x1c0>)
 800196e:	681b      	ldr	r3, [r3, #0]
 8001970:	4a5e      	ldr	r2, [pc, #376]	; (8001aec <HAL_ADC_Start_DMA+0x1c4>)
 8001972:	fba2 2303 	umull	r2, r3, r2, r3
 8001976:	0c9a      	lsrs	r2, r3, #18
 8001978:	4613      	mov	r3, r2
 800197a:	005b      	lsls	r3, r3, #1
 800197c:	4413      	add	r3, r2
 800197e:	613b      	str	r3, [r7, #16]
    while(counter != 0U)
 8001980:	e002      	b.n	8001988 <HAL_ADC_Start_DMA+0x60>
    {
      counter--;
 8001982:	693b      	ldr	r3, [r7, #16]
 8001984:	3b01      	subs	r3, #1
 8001986:	613b      	str	r3, [r7, #16]
    while(counter != 0U)
 8001988:	693b      	ldr	r3, [r7, #16]
 800198a:	2b00      	cmp	r3, #0
 800198c:	d1f9      	bne.n	8001982 <HAL_ADC_Start_DMA+0x5a>
    }
  }
  
  /* Start conversion if ADC is effectively enabled */
  if(HAL_IS_BIT_SET(hadc->Instance->CR2, ADC_CR2_ADON))
 800198e:	68fb      	ldr	r3, [r7, #12]
 8001990:	681b      	ldr	r3, [r3, #0]
 8001992:	689b      	ldr	r3, [r3, #8]
 8001994:	f003 0301 	and.w	r3, r3, #1
 8001998:	2b01      	cmp	r3, #1
 800199a:	f040 80a0 	bne.w	8001ade <HAL_ADC_Start_DMA+0x1b6>
  {
    /* Set ADC state                                                          */
    /* - Clear state bitfield related to regular group conversion results     */
    /* - Set state bitfield related to regular group operation                */
    ADC_STATE_CLR_SET(hadc->State,
 800199e:	68fb      	ldr	r3, [r7, #12]
 80019a0:	6c1b      	ldr	r3, [r3, #64]	; 0x40
 80019a2:	f423 63e0 	bic.w	r3, r3, #1792	; 0x700
 80019a6:	f023 0301 	bic.w	r3, r3, #1
 80019aa:	f443 7280 	orr.w	r2, r3, #256	; 0x100
 80019ae:	68fb      	ldr	r3, [r7, #12]
 80019b0:	641a      	str	r2, [r3, #64]	; 0x40
                      HAL_ADC_STATE_READY | HAL_ADC_STATE_REG_EOC | HAL_ADC_STATE_REG_OVR,
                      HAL_ADC_STATE_REG_BUSY);
    
    /* If conversions on group regular are also triggering group injected,    */
    /* update ADC state.                                                      */
    if (READ_BIT(hadc->Instance->CR1, ADC_CR1_JAUTO) != RESET)
 80019b2:	68fb      	ldr	r3, [r7, #12]
 80019b4:	681b      	ldr	r3, [r3, #0]
 80019b6:	685b      	ldr	r3, [r3, #4]
 80019b8:	f403 6380 	and.w	r3, r3, #1024	; 0x400
 80019bc:	2b00      	cmp	r3, #0
 80019be:	d007      	beq.n	80019d0 <HAL_ADC_Start_DMA+0xa8>
    {
      ADC_STATE_CLR_SET(hadc->State, HAL_ADC_STATE_INJ_EOC, HAL_ADC_STATE_INJ_BUSY);  
 80019c0:	68fb      	ldr	r3, [r7, #12]
 80019c2:	6c1b      	ldr	r3, [r3, #64]	; 0x40
 80019c4:	f423 5340 	bic.w	r3, r3, #12288	; 0x3000
 80019c8:	f443 5280 	orr.w	r2, r3, #4096	; 0x1000
 80019cc:	68fb      	ldr	r3, [r7, #12]
 80019ce:	641a      	str	r2, [r3, #64]	; 0x40
    }
    
    /* State machine update: Check if an injected conversion is ongoing */
    if (HAL_IS_BIT_SET(hadc->State, HAL_ADC_STATE_INJ_BUSY))
 80019d0:	68fb      	ldr	r3, [r7, #12]
 80019d2:	6c1b      	ldr	r3, [r3, #64]	; 0x40
 80019d4:	f403 5380 	and.w	r3, r3, #4096	; 0x1000
 80019d8:	f5b3 5f80 	cmp.w	r3, #4096	; 0x1000
 80019dc:	d106      	bne.n	80019ec <HAL_ADC_Start_DMA+0xc4>
    {
      /* Reset ADC error code fields related to conversions on group regular */
      CLEAR_BIT(hadc->ErrorCode, (HAL_ADC_ERROR_OVR | HAL_ADC_ERROR_DMA));         
 80019de:	68fb      	ldr	r3, [r7, #12]
 80019e0:	6c5b      	ldr	r3, [r3, #68]	; 0x44
 80019e2:	f023 0206 	bic.w	r2, r3, #6
 80019e6:	68fb      	ldr	r3, [r7, #12]
 80019e8:	645a      	str	r2, [r3, #68]	; 0x44
 80019ea:	e002      	b.n	80019f2 <HAL_ADC_Start_DMA+0xca>
    }
    else
    {
      /* Reset ADC all error code fields */
      ADC_CLEAR_ERRORCODE(hadc);
 80019ec:	68fb      	ldr	r3, [r7, #12]
 80019ee:	2200      	movs	r2, #0
 80019f0:	645a      	str	r2, [r3, #68]	; 0x44
    }

    /* Process unlocked */
    /* Unlock before starting ADC conversions: in case of potential           */
    /* interruption, to let the process to ADC IRQ Handler.                   */
    __HAL_UNLOCK(hadc);   
 80019f2:	68fb      	ldr	r3, [r7, #12]
 80019f4:	2200      	movs	r2, #0
 80019f6:	f883 203c 	strb.w	r2, [r3, #60]	; 0x3c

    /* Pointer to the common control register to which is belonging hadc    */
    /* (Depending on STM32F4 product, there may be up to 3 ADCs and 1 common */
    /* control register)                                                    */
    tmpADC_Common = ADC_COMMON_REGISTER(hadc);
 80019fa:	4b3d      	ldr	r3, [pc, #244]	; (8001af0 <HAL_ADC_Start_DMA+0x1c8>)
 80019fc:	617b      	str	r3, [r7, #20]

    /* Set the DMA transfer complete callback */
    hadc->DMA_Handle->XferCpltCallback = ADC_DMAConvCplt;
 80019fe:	68fb      	ldr	r3, [r7, #12]
 8001a00:	6b9b      	ldr	r3, [r3, #56]	; 0x38
 8001a02:	4a3c      	ldr	r2, [pc, #240]	; (8001af4 <HAL_ADC_Start_DMA+0x1cc>)
 8001a04:	63da      	str	r2, [r3, #60]	; 0x3c

    /* Set the DMA half transfer complete callback */
    hadc->DMA_Handle->XferHalfCpltCallback = ADC_DMAHalfConvCplt;
 8001a06:	68fb      	ldr	r3, [r7, #12]
 8001a08:	6b9b      	ldr	r3, [r3, #56]	; 0x38
 8001a0a:	4a3b      	ldr	r2, [pc, #236]	; (8001af8 <HAL_ADC_Start_DMA+0x1d0>)
 8001a0c:	641a      	str	r2, [r3, #64]	; 0x40
    
    /* Set the DMA error callback */
    hadc->DMA_Handle->XferErrorCallback = ADC_DMAError;
 8001a0e:	68fb      	ldr	r3, [r7, #12]
 8001a10:	6b9b      	ldr	r3, [r3, #56]	; 0x38
 8001a12:	4a3a      	ldr	r2, [pc, #232]	; (8001afc <HAL_ADC_Start_DMA+0x1d4>)
 8001a14:	64da      	str	r2, [r3, #76]	; 0x4c
    /* Manage ADC and DMA start: ADC overrun interruption, DMA start, ADC     */
    /* start (in case of SW start):                                           */
    
    /* Clear regular group conversion flag and overrun flag */
    /* (To ensure of no unknown state from potential previous ADC operations) */
    __HAL_ADC_CLEAR_FLAG(hadc, ADC_FLAG_EOC | ADC_FLAG_OVR);
 8001a16:	68fb      	ldr	r3, [r7, #12]
 8001a18:	681b      	ldr	r3, [r3, #0]
 8001a1a:	f06f 0222 	mvn.w	r2, #34	; 0x22
 8001a1e:	601a      	str	r2, [r3, #0]

    /* Enable ADC overrun interrupt */
    __HAL_ADC_ENABLE_IT(hadc, ADC_IT_OVR);
 8001a20:	68fb      	ldr	r3, [r7, #12]
 8001a22:	681b      	ldr	r3, [r3, #0]
 8001a24:	685a      	ldr	r2, [r3, #4]
 8001a26:	68fb      	ldr	r3, [r7, #12]
 8001a28:	681b      	ldr	r3, [r3, #0]
 8001a2a:	f042 6280 	orr.w	r2, r2, #67108864	; 0x4000000
 8001a2e:	605a      	str	r2, [r3, #4]
    
    /* Enable ADC DMA mode */
    hadc->Instance->CR2 |= ADC_CR2_DMA;
 8001a30:	68fb      	ldr	r3, [r7, #12]
 8001a32:	681b      	ldr	r3, [r3, #0]
 8001a34:	689a      	ldr	r2, [r3, #8]
 8001a36:	68fb      	ldr	r3, [r7, #12]
 8001a38:	681b      	ldr	r3, [r3, #0]
 8001a3a:	f442 7280 	orr.w	r2, r2, #256	; 0x100
 8001a3e:	609a      	str	r2, [r3, #8]
    
    /* Start the DMA channel */
    HAL_DMA_Start_IT(hadc->DMA_Handle, (uint32_t)&hadc->Instance->DR, (uint32_t)pData, Length);
 8001a40:	68fb      	ldr	r3, [r7, #12]
 8001a42:	6b98      	ldr	r0, [r3, #56]	; 0x38
 8001a44:	68fb      	ldr	r3, [r7, #12]
 8001a46:	681b      	ldr	r3, [r3, #0]
 8001a48:	334c      	adds	r3, #76	; 0x4c
 8001a4a:	4619      	mov	r1, r3
 8001a4c:	68ba      	ldr	r2, [r7, #8]
 8001a4e:	687b      	ldr	r3, [r7, #4]
 8001a50:	f000 fce0 	bl	8002414 <HAL_DMA_Start_IT>
    
    /* Check if Multimode enabled */
    if(HAL_IS_BIT_CLR(tmpADC_Common->CCR, ADC_CCR_MULTI))
 8001a54:	697b      	ldr	r3, [r7, #20]
 8001a56:	685b      	ldr	r3, [r3, #4]
 8001a58:	f003 031f 	and.w	r3, r3, #31
 8001a5c:	2b00      	cmp	r3, #0
 8001a5e:	d12a      	bne.n	8001ab6 <HAL_ADC_Start_DMA+0x18e>
    {
#if defined(ADC2) && defined(ADC3)
      if((hadc->Instance == ADC1) || ((hadc->Instance == ADC2) && ((ADC->CCR & ADC_CCR_MULTI_Msk) < ADC_CCR_MULTI_0)) \
 8001a60:	68fb      	ldr	r3, [r7, #12]
 8001a62:	681b      	ldr	r3, [r3, #0]
 8001a64:	4a26      	ldr	r2, [pc, #152]	; (8001b00 <HAL_ADC_Start_DMA+0x1d8>)
 8001a66:	4293      	cmp	r3, r2
 8001a68:	d015      	beq.n	8001a96 <HAL_ADC_Start_DMA+0x16e>
 8001a6a:	68fb      	ldr	r3, [r7, #12]
 8001a6c:	681b      	ldr	r3, [r3, #0]
 8001a6e:	4a25      	ldr	r2, [pc, #148]	; (8001b04 <HAL_ADC_Start_DMA+0x1dc>)
 8001a70:	4293      	cmp	r3, r2
 8001a72:	d105      	bne.n	8001a80 <HAL_ADC_Start_DMA+0x158>
 8001a74:	4b1e      	ldr	r3, [pc, #120]	; (8001af0 <HAL_ADC_Start_DMA+0x1c8>)
 8001a76:	685b      	ldr	r3, [r3, #4]
 8001a78:	f003 031f 	and.w	r3, r3, #31
 8001a7c:	2b00      	cmp	r3, #0
 8001a7e:	d00a      	beq.n	8001a96 <HAL_ADC_Start_DMA+0x16e>
                                  || ((hadc->Instance == ADC3) && ((ADC->CCR & ADC_CCR_MULTI_Msk) < ADC_CCR_MULTI_4)))
 8001a80:	68fb      	ldr	r3, [r7, #12]
 8001a82:	681b      	ldr	r3, [r3, #0]
 8001a84:	4a20      	ldr	r2, [pc, #128]	; (8001b08 <HAL_ADC_Start_DMA+0x1e0>)
 8001a86:	4293      	cmp	r3, r2
 8001a88:	d129      	bne.n	8001ade <HAL_ADC_Start_DMA+0x1b6>
 8001a8a:	4b19      	ldr	r3, [pc, #100]	; (8001af0 <HAL_ADC_Start_DMA+0x1c8>)
 8001a8c:	685b      	ldr	r3, [r3, #4]
 8001a8e:	f003 031f 	and.w	r3, r3, #31
 8001a92:	2b0f      	cmp	r3, #15
 8001a94:	d823      	bhi.n	8001ade <HAL_ADC_Start_DMA+0x1b6>
      {
#endif /* ADC2 || ADC3 */
        /* if no external trigger present enable software conversion of regular channels */
        if((hadc->Instance->CR2 & ADC_CR2_EXTEN) == RESET) 
 8001a96:	68fb      	ldr	r3, [r7, #12]
 8001a98:	681b      	ldr	r3, [r3, #0]
 8001a9a:	689b      	ldr	r3, [r3, #8]
 8001a9c:	f003 5340 	and.w	r3, r3, #805306368	; 0x30000000
 8001aa0:	2b00      	cmp	r3, #0
 8001aa2:	d11c      	bne.n	8001ade <HAL_ADC_Start_DMA+0x1b6>
        {
          /* Enable the selected ADC software conversion for regular group */
          hadc->Instance->CR2 |= (uint32_t)ADC_CR2_SWSTART;
 8001aa4:	68fb      	ldr	r3, [r7, #12]
 8001aa6:	681b      	ldr	r3, [r3, #0]
 8001aa8:	689a      	ldr	r2, [r3, #8]
 8001aaa:	68fb      	ldr	r3, [r7, #12]
 8001aac:	681b      	ldr	r3, [r3, #0]
 8001aae:	f042 4280 	orr.w	r2, r2, #1073741824	; 0x40000000
 8001ab2:	609a      	str	r2, [r3, #8]
 8001ab4:	e013      	b.n	8001ade <HAL_ADC_Start_DMA+0x1b6>
#endif /* ADC2 || ADC3 */
    }
    else
    {
      /* if instance of handle correspond to ADC1 and  no external trigger present enable software conversion of regular channels */
      if((hadc->Instance == ADC1) && ((hadc->Instance->CR2 & ADC_CR2_EXTEN) == RESET))
 8001ab6:	68fb      	ldr	r3, [r7, #12]
 8001ab8:	681b      	ldr	r3, [r3, #0]
 8001aba:	4a11      	ldr	r2, [pc, #68]	; (8001b00 <HAL_ADC_Start_DMA+0x1d8>)
 8001abc:	4293      	cmp	r3, r2
 8001abe:	d10e      	bne.n	8001ade <HAL_ADC_Start_DMA+0x1b6>
 8001ac0:	68fb      	ldr	r3, [r7, #12]
 8001ac2:	681b      	ldr	r3, [r3, #0]
 8001ac4:	689b      	ldr	r3, [r3, #8]
 8001ac6:	f003 5340 	and.w	r3, r3, #805306368	; 0x30000000
 8001aca:	2b00      	cmp	r3, #0
 8001acc:	d107      	bne.n	8001ade <HAL_ADC_Start_DMA+0x1b6>
      {
        /* Enable the selected ADC software conversion for regular group */
          hadc->Instance->CR2 |= (uint32_t)ADC_CR2_SWSTART;
 8001ace:	68fb      	ldr	r3, [r7, #12]
 8001ad0:	681b      	ldr	r3, [r3, #0]
 8001ad2:	689a      	ldr	r2, [r3, #8]
 8001ad4:	68fb      	ldr	r3, [r7, #12]
 8001ad6:	681b      	ldr	r3, [r3, #0]
 8001ad8:	f042 4280 	orr.w	r2, r2, #1073741824	; 0x40000000
 8001adc:	609a      	str	r2, [r3, #8]
      }
    }
  }
  
  /* Return function status */
  return HAL_OK;
 8001ade:	2300      	movs	r3, #0
}
 8001ae0:	4618      	mov	r0, r3
 8001ae2:	3718      	adds	r7, #24
 8001ae4:	46bd      	mov	sp, r7
 8001ae6:	bd80      	pop	{r7, pc}
 8001ae8:	20000000 	.word	0x20000000
 8001aec:	431bde83 	.word	0x431bde83
 8001af0:	40012300 	.word	0x40012300
 8001af4:	08001f91 	.word	0x08001f91
 8001af8:	0800204b 	.word	0x0800204b
 8001afc:	08002067 	.word	0x08002067
 8001b00:	40012000 	.word	0x40012000
 8001b04:	40012100 	.word	0x40012100
 8001b08:	40012200 	.word	0x40012200

08001b0c <HAL_ADC_ConvHalfCpltCallback>:
  * @param  hadc pointer to a ADC_HandleTypeDef structure that contains
  *         the configuration information for the specified ADC.
  * @retval None
  */
__weak void HAL_ADC_ConvHalfCpltCallback(ADC_HandleTypeDef* hadc)
{
 8001b0c:	b480      	push	{r7}
 8001b0e:	b083      	sub	sp, #12
 8001b10:	af00      	add	r7, sp, #0
 8001b12:	6078      	str	r0, [r7, #4]
  /* Prevent unused argument(s) compilation warning */
  UNUSED(hadc);
  /* NOTE : This function Should not be modified, when the callback is needed,
            the HAL_ADC_ConvHalfCpltCallback could be implemented in the user file
   */
}
 8001b14:	bf00      	nop
 8001b16:	370c      	adds	r7, #12
 8001b18:	46bd      	mov	sp, r7
 8001b1a:	f85d 7b04 	ldr.w	r7, [sp], #4
 8001b1e:	4770      	bx	lr

08001b20 <HAL_ADC_ErrorCallback>:
  * @param  hadc pointer to a ADC_HandleTypeDef structure that contains
  *         the configuration information for the specified ADC.
  * @retval None
  */
__weak void HAL_ADC_ErrorCallback(ADC_HandleTypeDef *hadc)
{
 8001b20:	b480      	push	{r7}
 8001b22:	b083      	sub	sp, #12
 8001b24:	af00      	add	r7, sp, #0
 8001b26:	6078      	str	r0, [r7, #4]
  /* Prevent unused argument(s) compilation warning */
  UNUSED(hadc);
  /* NOTE : This function Should not be modified, when the callback is needed,
            the HAL_ADC_ErrorCallback could be implemented in the user file
   */
}
 8001b28:	bf00      	nop
 8001b2a:	370c      	adds	r7, #12
 8001b2c:	46bd      	mov	sp, r7
 8001b2e:	f85d 7b04 	ldr.w	r7, [sp], #4
 8001b32:	4770      	bx	lr

08001b34 <HAL_ADC_ConfigChannel>:
  *         the configuration information for the specified ADC.
  * @param  sConfig ADC configuration structure. 
  * @retval HAL status
  */
HAL_StatusTypeDef HAL_ADC_ConfigChannel(ADC_HandleTypeDef* hadc, ADC_ChannelConfTypeDef* sConfig)
{
 8001b34:	b480      	push	{r7}
 8001b36:	b085      	sub	sp, #20
 8001b38:	af00      	add	r7, sp, #0
 8001b3a:	6078      	str	r0, [r7, #4]
 8001b3c:	6039      	str	r1, [r7, #0]
  __IO uint32_t counter = 0U;
 8001b3e:	2300      	movs	r3, #0
 8001b40:	60bb      	str	r3, [r7, #8]
  assert_param(IS_ADC_CHANNEL(sConfig->Channel));
  assert_param(IS_ADC_REGULAR_RANK(sConfig->Rank));
  assert_param(IS_ADC_SAMPLE_TIME(sConfig->SamplingTime));
  
  /* Process locked */
  __HAL_LOCK(hadc);
 8001b42:	687b      	ldr	r3, [r7, #4]
 8001b44:	f893 303c 	ldrb.w	r3, [r3, #60]	; 0x3c
 8001b48:	2b01      	cmp	r3, #1
 8001b4a:	d101      	bne.n	8001b50 <HAL_ADC_ConfigChannel+0x1c>
 8001b4c:	2302      	movs	r3, #2
 8001b4e:	e113      	b.n	8001d78 <HAL_ADC_ConfigChannel+0x244>
 8001b50:	687b      	ldr	r3, [r7, #4]
 8001b52:	2201      	movs	r2, #1
 8001b54:	f883 203c 	strb.w	r2, [r3, #60]	; 0x3c
    
  /* if ADC_Channel_10 ... ADC_Channel_18 is selected */
  if (sConfig->Channel > ADC_CHANNEL_9)
 8001b58:	683b      	ldr	r3, [r7, #0]
 8001b5a:	681b      	ldr	r3, [r3, #0]
 8001b5c:	2b09      	cmp	r3, #9
 8001b5e:	d925      	bls.n	8001bac <HAL_ADC_ConfigChannel+0x78>
  {
    /* Clear the old sample time */
    hadc->Instance->SMPR1 &= ~ADC_SMPR1(ADC_SMPR1_SMP10, sConfig->Channel);
 8001b60:	687b      	ldr	r3, [r7, #4]
 8001b62:	681b      	ldr	r3, [r3, #0]
 8001b64:	68d9      	ldr	r1, [r3, #12]
 8001b66:	683b      	ldr	r3, [r7, #0]
 8001b68:	681b      	ldr	r3, [r3, #0]
 8001b6a:	b29b      	uxth	r3, r3
 8001b6c:	461a      	mov	r2, r3
 8001b6e:	4613      	mov	r3, r2
 8001b70:	005b      	lsls	r3, r3, #1
 8001b72:	4413      	add	r3, r2
 8001b74:	3b1e      	subs	r3, #30
 8001b76:	2207      	movs	r2, #7
 8001b78:	fa02 f303 	lsl.w	r3, r2, r3
 8001b7c:	43da      	mvns	r2, r3
 8001b7e:	687b      	ldr	r3, [r7, #4]
 8001b80:	681b      	ldr	r3, [r3, #0]
 8001b82:	400a      	ands	r2, r1
 8001b84:	60da      	str	r2, [r3, #12]
    
    /* Set the new sample time */
    hadc->Instance->SMPR1 |= ADC_SMPR1(sConfig->SamplingTime, sConfig->Channel);
 8001b86:	687b      	ldr	r3, [r7, #4]
 8001b88:	681b      	ldr	r3, [r3, #0]
 8001b8a:	68d9      	ldr	r1, [r3, #12]
 8001b8c:	683b      	ldr	r3, [r7, #0]
 8001b8e:	689a      	ldr	r2, [r3, #8]
 8001b90:	683b      	ldr	r3, [r7, #0]
 8001b92:	681b      	ldr	r3, [r3, #0]
 8001b94:	b29b      	uxth	r3, r3
 8001b96:	4618      	mov	r0, r3
 8001b98:	4603      	mov	r3, r0
 8001b9a:	005b      	lsls	r3, r3, #1
 8001b9c:	4403      	add	r3, r0
 8001b9e:	3b1e      	subs	r3, #30
 8001ba0:	409a      	lsls	r2, r3
 8001ba2:	687b      	ldr	r3, [r7, #4]
 8001ba4:	681b      	ldr	r3, [r3, #0]
 8001ba6:	430a      	orrs	r2, r1
 8001ba8:	60da      	str	r2, [r3, #12]
 8001baa:	e022      	b.n	8001bf2 <HAL_ADC_ConfigChannel+0xbe>
  }
  else /* ADC_Channel include in ADC_Channel_[0..9] */
  {
    /* Clear the old sample time */
    hadc->Instance->SMPR2 &= ~ADC_SMPR2(ADC_SMPR2_SMP0, sConfig->Channel);
 8001bac:	687b      	ldr	r3, [r7, #4]
 8001bae:	681b      	ldr	r3, [r3, #0]
 8001bb0:	6919      	ldr	r1, [r3, #16]
 8001bb2:	683b      	ldr	r3, [r7, #0]
 8001bb4:	681b      	ldr	r3, [r3, #0]
 8001bb6:	b29b      	uxth	r3, r3
 8001bb8:	461a      	mov	r2, r3
 8001bba:	4613      	mov	r3, r2
 8001bbc:	005b      	lsls	r3, r3, #1
 8001bbe:	4413      	add	r3, r2
 8001bc0:	2207      	movs	r2, #7
 8001bc2:	fa02 f303 	lsl.w	r3, r2, r3
 8001bc6:	43da      	mvns	r2, r3
 8001bc8:	687b      	ldr	r3, [r7, #4]
 8001bca:	681b      	ldr	r3, [r3, #0]
 8001bcc:	400a      	ands	r2, r1
 8001bce:	611a      	str	r2, [r3, #16]
    
    /* Set the new sample time */
    hadc->Instance->SMPR2 |= ADC_SMPR2(sConfig->SamplingTime, sConfig->Channel);
 8001bd0:	687b      	ldr	r3, [r7, #4]
 8001bd2:	681b      	ldr	r3, [r3, #0]
 8001bd4:	6919      	ldr	r1, [r3, #16]
 8001bd6:	683b      	ldr	r3, [r7, #0]
 8001bd8:	689a      	ldr	r2, [r3, #8]
 8001bda:	683b      	ldr	r3, [r7, #0]
 8001bdc:	681b      	ldr	r3, [r3, #0]
 8001bde:	b29b      	uxth	r3, r3
 8001be0:	4618      	mov	r0, r3
 8001be2:	4603      	mov	r3, r0
 8001be4:	005b      	lsls	r3, r3, #1
 8001be6:	4403      	add	r3, r0
 8001be8:	409a      	lsls	r2, r3
 8001bea:	687b      	ldr	r3, [r7, #4]
 8001bec:	681b      	ldr	r3, [r3, #0]
 8001bee:	430a      	orrs	r2, r1
 8001bf0:	611a      	str	r2, [r3, #16]
  }
  
  /* For Rank 1 to 6 */
  if (sConfig->Rank < 7U)
 8001bf2:	683b      	ldr	r3, [r7, #0]
 8001bf4:	685b      	ldr	r3, [r3, #4]
 8001bf6:	2b06      	cmp	r3, #6
 8001bf8:	d824      	bhi.n	8001c44 <HAL_ADC_ConfigChannel+0x110>
  {
    /* Clear the old SQx bits for the selected rank */
    hadc->Instance->SQR3 &= ~ADC_SQR3_RK(ADC_SQR3_SQ1, sConfig->Rank);
 8001bfa:	687b      	ldr	r3, [r7, #4]
 8001bfc:	681b      	ldr	r3, [r3, #0]
 8001bfe:	6b59      	ldr	r1, [r3, #52]	; 0x34
 8001c00:	683b      	ldr	r3, [r7, #0]
 8001c02:	685a      	ldr	r2, [r3, #4]
 8001c04:	4613      	mov	r3, r2
 8001c06:	009b      	lsls	r3, r3, #2
 8001c08:	4413      	add	r3, r2
 8001c0a:	3b05      	subs	r3, #5
 8001c0c:	221f      	movs	r2, #31
 8001c0e:	fa02 f303 	lsl.w	r3, r2, r3
 8001c12:	43da      	mvns	r2, r3
 8001c14:	687b      	ldr	r3, [r7, #4]
 8001c16:	681b      	ldr	r3, [r3, #0]
 8001c18:	400a      	ands	r2, r1
 8001c1a:	635a      	str	r2, [r3, #52]	; 0x34
    
    /* Set the SQx bits for the selected rank */
    hadc->Instance->SQR3 |= ADC_SQR3_RK(sConfig->Channel, sConfig->Rank);
 8001c1c:	687b      	ldr	r3, [r7, #4]
 8001c1e:	681b      	ldr	r3, [r3, #0]
 8001c20:	6b59      	ldr	r1, [r3, #52]	; 0x34
 8001c22:	683b      	ldr	r3, [r7, #0]
 8001c24:	681b      	ldr	r3, [r3, #0]
 8001c26:	b29b      	uxth	r3, r3
 8001c28:	4618      	mov	r0, r3
 8001c2a:	683b      	ldr	r3, [r7, #0]
 8001c2c:	685a      	ldr	r2, [r3, #4]
 8001c2e:	4613      	mov	r3, r2
 8001c30:	009b      	lsls	r3, r3, #2
 8001c32:	4413      	add	r3, r2
 8001c34:	3b05      	subs	r3, #5
 8001c36:	fa00 f203 	lsl.w	r2, r0, r3
 8001c3a:	687b      	ldr	r3, [r7, #4]
 8001c3c:	681b      	ldr	r3, [r3, #0]
 8001c3e:	430a      	orrs	r2, r1
 8001c40:	635a      	str	r2, [r3, #52]	; 0x34
 8001c42:	e04c      	b.n	8001cde <HAL_ADC_ConfigChannel+0x1aa>
  }
  /* For Rank 7 to 12 */
  else if (sConfig->Rank < 13U)
 8001c44:	683b      	ldr	r3, [r7, #0]
 8001c46:	685b      	ldr	r3, [r3, #4]
 8001c48:	2b0c      	cmp	r3, #12
 8001c4a:	d824      	bhi.n	8001c96 <HAL_ADC_ConfigChannel+0x162>
  {
    /* Clear the old SQx bits for the selected rank */
    hadc->Instance->SQR2 &= ~ADC_SQR2_RK(ADC_SQR2_SQ7, sConfig->Rank);
 8001c4c:	687b      	ldr	r3, [r7, #4]
 8001c4e:	681b      	ldr	r3, [r3, #0]
 8001c50:	6b19      	ldr	r1, [r3, #48]	; 0x30
 8001c52:	683b      	ldr	r3, [r7, #0]
 8001c54:	685a      	ldr	r2, [r3, #4]
 8001c56:	4613      	mov	r3, r2
 8001c58:	009b      	lsls	r3, r3, #2
 8001c5a:	4413      	add	r3, r2
 8001c5c:	3b23      	subs	r3, #35	; 0x23
 8001c5e:	221f      	movs	r2, #31
 8001c60:	fa02 f303 	lsl.w	r3, r2, r3
 8001c64:	43da      	mvns	r2, r3
 8001c66:	687b      	ldr	r3, [r7, #4]
 8001c68:	681b      	ldr	r3, [r3, #0]
 8001c6a:	400a      	ands	r2, r1
 8001c6c:	631a      	str	r2, [r3, #48]	; 0x30
    
    /* Set the SQx bits for the selected rank */
    hadc->Instance->SQR2 |= ADC_SQR2_RK(sConfig->Channel, sConfig->Rank);
 8001c6e:	687b      	ldr	r3, [r7, #4]
 8001c70:	681b      	ldr	r3, [r3, #0]
 8001c72:	6b19      	ldr	r1, [r3, #48]	; 0x30
 8001c74:	683b      	ldr	r3, [r7, #0]
 8001c76:	681b      	ldr	r3, [r3, #0]
 8001c78:	b29b      	uxth	r3, r3
 8001c7a:	4618      	mov	r0, r3
 8001c7c:	683b      	ldr	r3, [r7, #0]
 8001c7e:	685a      	ldr	r2, [r3, #4]
 8001c80:	4613      	mov	r3, r2
 8001c82:	009b      	lsls	r3, r3, #2
 8001c84:	4413      	add	r3, r2
 8001c86:	3b23      	subs	r3, #35	; 0x23
 8001c88:	fa00 f203 	lsl.w	r2, r0, r3
 8001c8c:	687b      	ldr	r3, [r7, #4]
 8001c8e:	681b      	ldr	r3, [r3, #0]
 8001c90:	430a      	orrs	r2, r1
 8001c92:	631a      	str	r2, [r3, #48]	; 0x30
 8001c94:	e023      	b.n	8001cde <HAL_ADC_ConfigChannel+0x1aa>
  }
  /* For Rank 13 to 16 */
  else
  {
    /* Clear the old SQx bits for the selected rank */
    hadc->Instance->SQR1 &= ~ADC_SQR1_RK(ADC_SQR1_SQ13, sConfig->Rank);
 8001c96:	687b      	ldr	r3, [r7, #4]
 8001c98:	681b      	ldr	r3, [r3, #0]
 8001c9a:	6ad9      	ldr	r1, [r3, #44]	; 0x2c
 8001c9c:	683b      	ldr	r3, [r7, #0]
 8001c9e:	685a      	ldr	r2, [r3, #4]
 8001ca0:	4613      	mov	r3, r2
 8001ca2:	009b      	lsls	r3, r3, #2
 8001ca4:	4413      	add	r3, r2
 8001ca6:	3b41      	subs	r3, #65	; 0x41
 8001ca8:	221f      	movs	r2, #31
 8001caa:	fa02 f303 	lsl.w	r3, r2, r3
 8001cae:	43da      	mvns	r2, r3
 8001cb0:	687b      	ldr	r3, [r7, #4]
 8001cb2:	681b      	ldr	r3, [r3, #0]
 8001cb4:	400a      	ands	r2, r1
 8001cb6:	62da      	str	r2, [r3, #44]	; 0x2c
    
    /* Set the SQx bits for the selected rank */
    hadc->Instance->SQR1 |= ADC_SQR1_RK(sConfig->Channel, sConfig->Rank);
 8001cb8:	687b      	ldr	r3, [r7, #4]
 8001cba:	681b      	ldr	r3, [r3, #0]
 8001cbc:	6ad9      	ldr	r1, [r3, #44]	; 0x2c
 8001cbe:	683b      	ldr	r3, [r7, #0]
 8001cc0:	681b      	ldr	r3, [r3, #0]
 8001cc2:	b29b      	uxth	r3, r3
 8001cc4:	4618      	mov	r0, r3
 8001cc6:	683b      	ldr	r3, [r7, #0]
 8001cc8:	685a      	ldr	r2, [r3, #4]
 8001cca:	4613      	mov	r3, r2
 8001ccc:	009b      	lsls	r3, r3, #2
 8001cce:	4413      	add	r3, r2
 8001cd0:	3b41      	subs	r3, #65	; 0x41
 8001cd2:	fa00 f203 	lsl.w	r2, r0, r3
 8001cd6:	687b      	ldr	r3, [r7, #4]
 8001cd8:	681b      	ldr	r3, [r3, #0]
 8001cda:	430a      	orrs	r2, r1
 8001cdc:	62da      	str	r2, [r3, #44]	; 0x2c
  }

    /* Pointer to the common control register to which is belonging hadc    */
    /* (Depending on STM32F4 product, there may be up to 3 ADCs and 1 common */
    /* control register)                                                    */
    tmpADC_Common = ADC_COMMON_REGISTER(hadc);
 8001cde:	4b29      	ldr	r3, [pc, #164]	; (8001d84 <HAL_ADC_ConfigChannel+0x250>)
 8001ce0:	60fb      	str	r3, [r7, #12]

  /* if ADC1 Channel_18 is selected for VBAT Channel ennable VBATE */
  if ((hadc->Instance == ADC1) && (sConfig->Channel == ADC_CHANNEL_VBAT))
 8001ce2:	687b      	ldr	r3, [r7, #4]
 8001ce4:	681b      	ldr	r3, [r3, #0]
 8001ce6:	4a28      	ldr	r2, [pc, #160]	; (8001d88 <HAL_ADC_ConfigChannel+0x254>)
 8001ce8:	4293      	cmp	r3, r2
 8001cea:	d10f      	bne.n	8001d0c <HAL_ADC_ConfigChannel+0x1d8>
 8001cec:	683b      	ldr	r3, [r7, #0]
 8001cee:	681b      	ldr	r3, [r3, #0]
 8001cf0:	2b12      	cmp	r3, #18
 8001cf2:	d10b      	bne.n	8001d0c <HAL_ADC_ConfigChannel+0x1d8>
  {
    /* Disable the TEMPSENSOR channel in case of using board with multiplixed ADC_CHANNEL_VBAT & ADC_CHANNEL_TEMPSENSOR*/    
    if ((uint16_t)ADC_CHANNEL_TEMPSENSOR == (uint16_t)ADC_CHANNEL_VBAT)
    {
      tmpADC_Common->CCR &= ~ADC_CCR_TSVREFE;
 8001cf4:	68fb      	ldr	r3, [r7, #12]
 8001cf6:	685b      	ldr	r3, [r3, #4]
 8001cf8:	f423 0200 	bic.w	r2, r3, #8388608	; 0x800000
 8001cfc:	68fb      	ldr	r3, [r7, #12]
 8001cfe:	605a      	str	r2, [r3, #4]
    }
    /* Enable the VBAT channel*/
    tmpADC_Common->CCR |= ADC_CCR_VBATE;
 8001d00:	68fb      	ldr	r3, [r7, #12]
 8001d02:	685b      	ldr	r3, [r3, #4]
 8001d04:	f443 0280 	orr.w	r2, r3, #4194304	; 0x400000
 8001d08:	68fb      	ldr	r3, [r7, #12]
 8001d0a:	605a      	str	r2, [r3, #4]
  }
  
  /* if ADC1 Channel_16 or Channel_18 is selected for Temperature sensor or 
     Channel_17 is selected for VREFINT enable TSVREFE */
  if ((hadc->Instance == ADC1) && ((sConfig->Channel == ADC_CHANNEL_TEMPSENSOR) || (sConfig->Channel == ADC_CHANNEL_VREFINT)))
 8001d0c:	687b      	ldr	r3, [r7, #4]
 8001d0e:	681b      	ldr	r3, [r3, #0]
 8001d10:	4a1d      	ldr	r2, [pc, #116]	; (8001d88 <HAL_ADC_ConfigChannel+0x254>)
 8001d12:	4293      	cmp	r3, r2
 8001d14:	d12b      	bne.n	8001d6e <HAL_ADC_ConfigChannel+0x23a>
 8001d16:	683b      	ldr	r3, [r7, #0]
 8001d18:	681b      	ldr	r3, [r3, #0]
 8001d1a:	4a1c      	ldr	r2, [pc, #112]	; (8001d8c <HAL_ADC_ConfigChannel+0x258>)
 8001d1c:	4293      	cmp	r3, r2
 8001d1e:	d003      	beq.n	8001d28 <HAL_ADC_ConfigChannel+0x1f4>
 8001d20:	683b      	ldr	r3, [r7, #0]
 8001d22:	681b      	ldr	r3, [r3, #0]
 8001d24:	2b11      	cmp	r3, #17
 8001d26:	d122      	bne.n	8001d6e <HAL_ADC_ConfigChannel+0x23a>
  {
    /* Disable the VBAT channel in case of using board with multiplixed ADC_CHANNEL_VBAT & ADC_CHANNEL_TEMPSENSOR*/
    if ((uint16_t)ADC_CHANNEL_TEMPSENSOR == (uint16_t)ADC_CHANNEL_VBAT)
    {
      tmpADC_Common->CCR &= ~ADC_CCR_VBATE;
 8001d28:	68fb      	ldr	r3, [r7, #12]
 8001d2a:	685b      	ldr	r3, [r3, #4]
 8001d2c:	f423 0280 	bic.w	r2, r3, #4194304	; 0x400000
 8001d30:	68fb      	ldr	r3, [r7, #12]
 8001d32:	605a      	str	r2, [r3, #4]
    }
    /* Enable the Temperature sensor and VREFINT channel*/
    tmpADC_Common->CCR |= ADC_CCR_TSVREFE;
 8001d34:	68fb      	ldr	r3, [r7, #12]
 8001d36:	685b      	ldr	r3, [r3, #4]
 8001d38:	f443 0200 	orr.w	r2, r3, #8388608	; 0x800000
 8001d3c:	68fb      	ldr	r3, [r7, #12]
 8001d3e:	605a      	str	r2, [r3, #4]
    
    if((sConfig->Channel == ADC_CHANNEL_TEMPSENSOR))
 8001d40:	683b      	ldr	r3, [r7, #0]
 8001d42:	681b      	ldr	r3, [r3, #0]
 8001d44:	4a11      	ldr	r2, [pc, #68]	; (8001d8c <HAL_ADC_ConfigChannel+0x258>)
 8001d46:	4293      	cmp	r3, r2
 8001d48:	d111      	bne.n	8001d6e <HAL_ADC_ConfigChannel+0x23a>
    {
      /* Delay for temperature sensor stabilization time */
      /* Compute number of CPU cycles to wait for */
      counter = (ADC_TEMPSENSOR_DELAY_US * (SystemCoreClock / 1000000U));
 8001d4a:	4b11      	ldr	r3, [pc, #68]	; (8001d90 <HAL_ADC_ConfigChannel+0x25c>)
 8001d4c:	681b      	ldr	r3, [r3, #0]
 8001d4e:	4a11      	ldr	r2, [pc, #68]	; (8001d94 <HAL_ADC_ConfigChannel+0x260>)
 8001d50:	fba2 2303 	umull	r2, r3, r2, r3
 8001d54:	0c9a      	lsrs	r2, r3, #18
 8001d56:	4613      	mov	r3, r2
 8001d58:	009b      	lsls	r3, r3, #2
 8001d5a:	4413      	add	r3, r2
 8001d5c:	005b      	lsls	r3, r3, #1
 8001d5e:	60bb      	str	r3, [r7, #8]
      while(counter != 0U)
 8001d60:	e002      	b.n	8001d68 <HAL_ADC_ConfigChannel+0x234>
      {
        counter--;
 8001d62:	68bb      	ldr	r3, [r7, #8]
 8001d64:	3b01      	subs	r3, #1
 8001d66:	60bb      	str	r3, [r7, #8]
      while(counter != 0U)
 8001d68:	68bb      	ldr	r3, [r7, #8]
 8001d6a:	2b00      	cmp	r3, #0
 8001d6c:	d1f9      	bne.n	8001d62 <HAL_ADC_ConfigChannel+0x22e>
      }
    }
  }
  
  /* Process unlocked */
  __HAL_UNLOCK(hadc);
 8001d6e:	687b      	ldr	r3, [r7, #4]
 8001d70:	2200      	movs	r2, #0
 8001d72:	f883 203c 	strb.w	r2, [r3, #60]	; 0x3c
  
  /* Return function status */
  return HAL_OK;
 8001d76:	2300      	movs	r3, #0
}
 8001d78:	4618      	mov	r0, r3
 8001d7a:	3714      	adds	r7, #20
 8001d7c:	46bd      	mov	sp, r7
 8001d7e:	f85d 7b04 	ldr.w	r7, [sp], #4
 8001d82:	4770      	bx	lr
 8001d84:	40012300 	.word	0x40012300
 8001d88:	40012000 	.word	0x40012000
 8001d8c:	10000012 	.word	0x10000012
 8001d90:	20000000 	.word	0x20000000
 8001d94:	431bde83 	.word	0x431bde83

08001d98 <ADC_Init>:
  * @param  hadc pointer to a ADC_HandleTypeDef structure that contains
  *         the configuration information for the specified ADC.  
  * @retval None
  */
static void ADC_Init(ADC_HandleTypeDef* hadc)
{
 8001d98:	b480      	push	{r7}
 8001d9a:	b085      	sub	sp, #20
 8001d9c:	af00      	add	r7, sp, #0
 8001d9e:	6078      	str	r0, [r7, #4]
  
  /* Set ADC parameters */
  /* Pointer to the common control register to which is belonging hadc    */
  /* (Depending on STM32F4 product, there may be up to 3 ADCs and 1 common */
  /* control register)                                                    */
  tmpADC_Common = ADC_COMMON_REGISTER(hadc);
 8001da0:	4b79      	ldr	r3, [pc, #484]	; (8001f88 <ADC_Init+0x1f0>)
 8001da2:	60fb      	str	r3, [r7, #12]
  
  /* Set the ADC clock prescaler */
  tmpADC_Common->CCR &= ~(ADC_CCR_ADCPRE);
 8001da4:	68fb      	ldr	r3, [r7, #12]
 8001da6:	685b      	ldr	r3, [r3, #4]
 8001da8:	f423 3240 	bic.w	r2, r3, #196608	; 0x30000
 8001dac:	68fb      	ldr	r3, [r7, #12]
 8001dae:	605a      	str	r2, [r3, #4]
  tmpADC_Common->CCR |=  hadc->Init.ClockPrescaler;
 8001db0:	68fb      	ldr	r3, [r7, #12]
 8001db2:	685a      	ldr	r2, [r3, #4]
 8001db4:	687b      	ldr	r3, [r7, #4]
 8001db6:	685b      	ldr	r3, [r3, #4]
 8001db8:	431a      	orrs	r2, r3
 8001dba:	68fb      	ldr	r3, [r7, #12]
 8001dbc:	605a      	str	r2, [r3, #4]
  
  /* Set ADC scan mode */
  hadc->Instance->CR1 &= ~(ADC_CR1_SCAN);
 8001dbe:	687b      	ldr	r3, [r7, #4]
 8001dc0:	681b      	ldr	r3, [r3, #0]
 8001dc2:	685a      	ldr	r2, [r3, #4]
 8001dc4:	687b      	ldr	r3, [r7, #4]
 8001dc6:	681b      	ldr	r3, [r3, #0]
 8001dc8:	f422 7280 	bic.w	r2, r2, #256	; 0x100
 8001dcc:	605a      	str	r2, [r3, #4]
  hadc->Instance->CR1 |=  ADC_CR1_SCANCONV(hadc->Init.ScanConvMode);
 8001dce:	687b      	ldr	r3, [r7, #4]
 8001dd0:	681b      	ldr	r3, [r3, #0]
 8001dd2:	6859      	ldr	r1, [r3, #4]
 8001dd4:	687b      	ldr	r3, [r7, #4]
 8001dd6:	691b      	ldr	r3, [r3, #16]
 8001dd8:	021a      	lsls	r2, r3, #8
 8001dda:	687b      	ldr	r3, [r7, #4]
 8001ddc:	681b      	ldr	r3, [r3, #0]
 8001dde:	430a      	orrs	r2, r1
 8001de0:	605a      	str	r2, [r3, #4]
  
  /* Set ADC resolution */
  hadc->Instance->CR1 &= ~(ADC_CR1_RES);
 8001de2:	687b      	ldr	r3, [r7, #4]
 8001de4:	681b      	ldr	r3, [r3, #0]
 8001de6:	685a      	ldr	r2, [r3, #4]
 8001de8:	687b      	ldr	r3, [r7, #4]
 8001dea:	681b      	ldr	r3, [r3, #0]
 8001dec:	f022 7240 	bic.w	r2, r2, #50331648	; 0x3000000
 8001df0:	605a      	str	r2, [r3, #4]
  hadc->Instance->CR1 |=  hadc->Init.Resolution;
 8001df2:	687b      	ldr	r3, [r7, #4]
 8001df4:	681b      	ldr	r3, [r3, #0]
 8001df6:	6859      	ldr	r1, [r3, #4]
 8001df8:	687b      	ldr	r3, [r7, #4]
 8001dfa:	689a      	ldr	r2, [r3, #8]
 8001dfc:	687b      	ldr	r3, [r7, #4]
 8001dfe:	681b      	ldr	r3, [r3, #0]
 8001e00:	430a      	orrs	r2, r1
 8001e02:	605a      	str	r2, [r3, #4]
  
  /* Set ADC data alignment */
  hadc->Instance->CR2 &= ~(ADC_CR2_ALIGN);
 8001e04:	687b      	ldr	r3, [r7, #4]
 8001e06:	681b      	ldr	r3, [r3, #0]
 8001e08:	689a      	ldr	r2, [r3, #8]
 8001e0a:	687b      	ldr	r3, [r7, #4]
 8001e0c:	681b      	ldr	r3, [r3, #0]
 8001e0e:	f422 6200 	bic.w	r2, r2, #2048	; 0x800
 8001e12:	609a      	str	r2, [r3, #8]
  hadc->Instance->CR2 |= hadc->Init.DataAlign;
 8001e14:	687b      	ldr	r3, [r7, #4]
 8001e16:	681b      	ldr	r3, [r3, #0]
 8001e18:	6899      	ldr	r1, [r3, #8]
 8001e1a:	687b      	ldr	r3, [r7, #4]
 8001e1c:	68da      	ldr	r2, [r3, #12]
 8001e1e:	687b      	ldr	r3, [r7, #4]
 8001e20:	681b      	ldr	r3, [r3, #0]
 8001e22:	430a      	orrs	r2, r1
 8001e24:	609a      	str	r2, [r3, #8]
  /* Enable external trigger if trigger selection is different of software  */
  /* start.                                                                 */
  /* Note: This configuration keeps the hardware feature of parameter       */
  /*       ExternalTrigConvEdge "trigger edge none" equivalent to           */
  /*       software start.                                                  */
  if(hadc->Init.ExternalTrigConv != ADC_SOFTWARE_START)
 8001e26:	687b      	ldr	r3, [r7, #4]
 8001e28:	6a9b      	ldr	r3, [r3, #40]	; 0x28
 8001e2a:	4a58      	ldr	r2, [pc, #352]	; (8001f8c <ADC_Init+0x1f4>)
 8001e2c:	4293      	cmp	r3, r2
 8001e2e:	d022      	beq.n	8001e76 <ADC_Init+0xde>
  {
    /* Select external trigger to start conversion */
    hadc->Instance->CR2 &= ~(ADC_CR2_EXTSEL);
 8001e30:	687b      	ldr	r3, [r7, #4]
 8001e32:	681b      	ldr	r3, [r3, #0]
 8001e34:	689a      	ldr	r2, [r3, #8]
 8001e36:	687b      	ldr	r3, [r7, #4]
 8001e38:	681b      	ldr	r3, [r3, #0]
 8001e3a:	f022 6270 	bic.w	r2, r2, #251658240	; 0xf000000
 8001e3e:	609a      	str	r2, [r3, #8]
    hadc->Instance->CR2 |= hadc->Init.ExternalTrigConv;
 8001e40:	687b      	ldr	r3, [r7, #4]
 8001e42:	681b      	ldr	r3, [r3, #0]
 8001e44:	6899      	ldr	r1, [r3, #8]
 8001e46:	687b      	ldr	r3, [r7, #4]
 8001e48:	6a9a      	ldr	r2, [r3, #40]	; 0x28
 8001e4a:	687b      	ldr	r3, [r7, #4]
 8001e4c:	681b      	ldr	r3, [r3, #0]
 8001e4e:	430a      	orrs	r2, r1
 8001e50:	609a      	str	r2, [r3, #8]
    
    /* Select external trigger polarity */
    hadc->Instance->CR2 &= ~(ADC_CR2_EXTEN);
 8001e52:	687b      	ldr	r3, [r7, #4]
 8001e54:	681b      	ldr	r3, [r3, #0]
 8001e56:	689a      	ldr	r2, [r3, #8]
 8001e58:	687b      	ldr	r3, [r7, #4]
 8001e5a:	681b      	ldr	r3, [r3, #0]
 8001e5c:	f022 5240 	bic.w	r2, r2, #805306368	; 0x30000000
 8001e60:	609a      	str	r2, [r3, #8]
    hadc->Instance->CR2 |= hadc->Init.ExternalTrigConvEdge;
 8001e62:	687b      	ldr	r3, [r7, #4]
 8001e64:	681b      	ldr	r3, [r3, #0]
 8001e66:	6899      	ldr	r1, [r3, #8]
 8001e68:	687b      	ldr	r3, [r7, #4]
 8001e6a:	6ada      	ldr	r2, [r3, #44]	; 0x2c
 8001e6c:	687b      	ldr	r3, [r7, #4]
 8001e6e:	681b      	ldr	r3, [r3, #0]
 8001e70:	430a      	orrs	r2, r1
 8001e72:	609a      	str	r2, [r3, #8]
 8001e74:	e00f      	b.n	8001e96 <ADC_Init+0xfe>
  }
  else
  {
    /* Reset the external trigger */
    hadc->Instance->CR2 &= ~(ADC_CR2_EXTSEL);
 8001e76:	687b      	ldr	r3, [r7, #4]
 8001e78:	681b      	ldr	r3, [r3, #0]
 8001e7a:	689a      	ldr	r2, [r3, #8]
 8001e7c:	687b      	ldr	r3, [r7, #4]
 8001e7e:	681b      	ldr	r3, [r3, #0]
 8001e80:	f022 6270 	bic.w	r2, r2, #251658240	; 0xf000000
 8001e84:	609a      	str	r2, [r3, #8]
    hadc->Instance->CR2 &= ~(ADC_CR2_EXTEN);
 8001e86:	687b      	ldr	r3, [r7, #4]
 8001e88:	681b      	ldr	r3, [r3, #0]
 8001e8a:	689a      	ldr	r2, [r3, #8]
 8001e8c:	687b      	ldr	r3, [r7, #4]
 8001e8e:	681b      	ldr	r3, [r3, #0]
 8001e90:	f022 5240 	bic.w	r2, r2, #805306368	; 0x30000000
 8001e94:	609a      	str	r2, [r3, #8]
  }
  
  /* Enable or disable ADC continuous conversion mode */
  hadc->Instance->CR2 &= ~(ADC_CR2_CONT);
 8001e96:	687b      	ldr	r3, [r7, #4]
 8001e98:	681b      	ldr	r3, [r3, #0]
 8001e9a:	689a      	ldr	r2, [r3, #8]
 8001e9c:	687b      	ldr	r3, [r7, #4]
 8001e9e:	681b      	ldr	r3, [r3, #0]
 8001ea0:	f022 0202 	bic.w	r2, r2, #2
 8001ea4:	609a      	str	r2, [r3, #8]
  hadc->Instance->CR2 |= ADC_CR2_CONTINUOUS((uint32_t)hadc->Init.ContinuousConvMode);
 8001ea6:	687b      	ldr	r3, [r7, #4]
 8001ea8:	681b      	ldr	r3, [r3, #0]
 8001eaa:	6899      	ldr	r1, [r3, #8]
 8001eac:	687b      	ldr	r3, [r7, #4]
 8001eae:	7e1b      	ldrb	r3, [r3, #24]
 8001eb0:	005a      	lsls	r2, r3, #1
 8001eb2:	687b      	ldr	r3, [r7, #4]
 8001eb4:	681b      	ldr	r3, [r3, #0]
 8001eb6:	430a      	orrs	r2, r1
 8001eb8:	609a      	str	r2, [r3, #8]
  
  if(hadc->Init.DiscontinuousConvMode != DISABLE)
 8001eba:	687b      	ldr	r3, [r7, #4]
 8001ebc:	f893 3020 	ldrb.w	r3, [r3, #32]
 8001ec0:	2b00      	cmp	r3, #0
 8001ec2:	d01b      	beq.n	8001efc <ADC_Init+0x164>
  {
    assert_param(IS_ADC_REGULAR_DISC_NUMBER(hadc->Init.NbrOfDiscConversion));
  
    /* Enable the selected ADC regular discontinuous mode */
    hadc->Instance->CR1 |= (uint32_t)ADC_CR1_DISCEN;
 8001ec4:	687b      	ldr	r3, [r7, #4]
 8001ec6:	681b      	ldr	r3, [r3, #0]
 8001ec8:	685a      	ldr	r2, [r3, #4]
 8001eca:	687b      	ldr	r3, [r7, #4]
 8001ecc:	681b      	ldr	r3, [r3, #0]
 8001ece:	f442 6200 	orr.w	r2, r2, #2048	; 0x800
 8001ed2:	605a      	str	r2, [r3, #4]
    
    /* Set the number of channels to be converted in discontinuous mode */
    hadc->Instance->CR1 &= ~(ADC_CR1_DISCNUM);
 8001ed4:	687b      	ldr	r3, [r7, #4]
 8001ed6:	681b      	ldr	r3, [r3, #0]
 8001ed8:	685a      	ldr	r2, [r3, #4]
 8001eda:	687b      	ldr	r3, [r7, #4]
 8001edc:	681b      	ldr	r3, [r3, #0]
 8001ede:	f422 4260 	bic.w	r2, r2, #57344	; 0xe000
 8001ee2:	605a      	str	r2, [r3, #4]
    hadc->Instance->CR1 |=  ADC_CR1_DISCONTINUOUS(hadc->Init.NbrOfDiscConversion);
 8001ee4:	687b      	ldr	r3, [r7, #4]
 8001ee6:	681b      	ldr	r3, [r3, #0]
 8001ee8:	6859      	ldr	r1, [r3, #4]
 8001eea:	687b      	ldr	r3, [r7, #4]
 8001eec:	6a5b      	ldr	r3, [r3, #36]	; 0x24
 8001eee:	3b01      	subs	r3, #1
 8001ef0:	035a      	lsls	r2, r3, #13
 8001ef2:	687b      	ldr	r3, [r7, #4]
 8001ef4:	681b      	ldr	r3, [r3, #0]
 8001ef6:	430a      	orrs	r2, r1
 8001ef8:	605a      	str	r2, [r3, #4]
 8001efa:	e007      	b.n	8001f0c <ADC_Init+0x174>
  }
  else
  {
    /* Disable the selected ADC regular discontinuous mode */
    hadc->Instance->CR1 &= ~(ADC_CR1_DISCEN);
 8001efc:	687b      	ldr	r3, [r7, #4]
 8001efe:	681b      	ldr	r3, [r3, #0]
 8001f00:	685a      	ldr	r2, [r3, #4]
 8001f02:	687b      	ldr	r3, [r7, #4]
 8001f04:	681b      	ldr	r3, [r3, #0]
 8001f06:	f422 6200 	bic.w	r2, r2, #2048	; 0x800
 8001f0a:	605a      	str	r2, [r3, #4]
  }
  
  /* Set ADC number of conversion */
  hadc->Instance->SQR1 &= ~(ADC_SQR1_L);
 8001f0c:	687b      	ldr	r3, [r7, #4]
 8001f0e:	681b      	ldr	r3, [r3, #0]
 8001f10:	6ada      	ldr	r2, [r3, #44]	; 0x2c
 8001f12:	687b      	ldr	r3, [r7, #4]
 8001f14:	681b      	ldr	r3, [r3, #0]
 8001f16:	f422 0270 	bic.w	r2, r2, #15728640	; 0xf00000
 8001f1a:	62da      	str	r2, [r3, #44]	; 0x2c
  hadc->Instance->SQR1 |=  ADC_SQR1(hadc->Init.NbrOfConversion);
 8001f1c:	687b      	ldr	r3, [r7, #4]
 8001f1e:	681b      	ldr	r3, [r3, #0]
 8001f20:	6ad9      	ldr	r1, [r3, #44]	; 0x2c
 8001f22:	687b      	ldr	r3, [r7, #4]
 8001f24:	69db      	ldr	r3, [r3, #28]
 8001f26:	3b01      	subs	r3, #1
 8001f28:	051a      	lsls	r2, r3, #20
 8001f2a:	687b      	ldr	r3, [r7, #4]
 8001f2c:	681b      	ldr	r3, [r3, #0]
 8001f2e:	430a      	orrs	r2, r1
 8001f30:	62da      	str	r2, [r3, #44]	; 0x2c
  
  /* Enable or disable ADC DMA continuous request */
  hadc->Instance->CR2 &= ~(ADC_CR2_DDS);
 8001f32:	687b      	ldr	r3, [r7, #4]
 8001f34:	681b      	ldr	r3, [r3, #0]
 8001f36:	689a      	ldr	r2, [r3, #8]
 8001f38:	687b      	ldr	r3, [r7, #4]
 8001f3a:	681b      	ldr	r3, [r3, #0]
 8001f3c:	f422 7200 	bic.w	r2, r2, #512	; 0x200
 8001f40:	609a      	str	r2, [r3, #8]
  hadc->Instance->CR2 |= ADC_CR2_DMAContReq((uint32_t)hadc->Init.DMAContinuousRequests);
 8001f42:	687b      	ldr	r3, [r7, #4]
 8001f44:	681b      	ldr	r3, [r3, #0]
 8001f46:	6899      	ldr	r1, [r3, #8]
 8001f48:	687b      	ldr	r3, [r7, #4]
 8001f4a:	f893 3030 	ldrb.w	r3, [r3, #48]	; 0x30
 8001f4e:	025a      	lsls	r2, r3, #9
 8001f50:	687b      	ldr	r3, [r7, #4]
 8001f52:	681b      	ldr	r3, [r3, #0]
 8001f54:	430a      	orrs	r2, r1
 8001f56:	609a      	str	r2, [r3, #8]
  
  /* Enable or disable ADC end of conversion selection */
  hadc->Instance->CR2 &= ~(ADC_CR2_EOCS);
 8001f58:	687b      	ldr	r3, [r7, #4]
 8001f5a:	681b      	ldr	r3, [r3, #0]
 8001f5c:	689a      	ldr	r2, [r3, #8]
 8001f5e:	687b      	ldr	r3, [r7, #4]
 8001f60:	681b      	ldr	r3, [r3, #0]
 8001f62:	f422 6280 	bic.w	r2, r2, #1024	; 0x400
 8001f66:	609a      	str	r2, [r3, #8]
  hadc->Instance->CR2 |= ADC_CR2_EOCSelection(hadc->Init.EOCSelection);
 8001f68:	687b      	ldr	r3, [r7, #4]
 8001f6a:	681b      	ldr	r3, [r3, #0]
 8001f6c:	6899      	ldr	r1, [r3, #8]
 8001f6e:	687b      	ldr	r3, [r7, #4]
 8001f70:	695b      	ldr	r3, [r3, #20]
 8001f72:	029a      	lsls	r2, r3, #10
 8001f74:	687b      	ldr	r3, [r7, #4]
 8001f76:	681b      	ldr	r3, [r3, #0]
 8001f78:	430a      	orrs	r2, r1
 8001f7a:	609a      	str	r2, [r3, #8]
}
 8001f7c:	bf00      	nop
 8001f7e:	3714      	adds	r7, #20
 8001f80:	46bd      	mov	sp, r7
 8001f82:	f85d 7b04 	ldr.w	r7, [sp], #4
 8001f86:	4770      	bx	lr
 8001f88:	40012300 	.word	0x40012300
 8001f8c:	0f000001 	.word	0x0f000001

08001f90 <ADC_DMAConvCplt>:
  * @param  hdma pointer to a DMA_HandleTypeDef structure that contains
  *                the configuration information for the specified DMA module.
  * @retval None
  */
static void ADC_DMAConvCplt(DMA_HandleTypeDef *hdma)   
{
 8001f90:	b580      	push	{r7, lr}
 8001f92:	b084      	sub	sp, #16
 8001f94:	af00      	add	r7, sp, #0
 8001f96:	6078      	str	r0, [r7, #4]
  /* Retrieve ADC handle corresponding to current DMA handle */
  ADC_HandleTypeDef* hadc = ( ADC_HandleTypeDef* )((DMA_HandleTypeDef* )hdma)->Parent;
 8001f98:	687b      	ldr	r3, [r7, #4]
 8001f9a:	6b9b      	ldr	r3, [r3, #56]	; 0x38
 8001f9c:	60fb      	str	r3, [r7, #12]
  
  /* Update state machine on conversion status if not in error state */
  if (HAL_IS_BIT_CLR(hadc->State, HAL_ADC_STATE_ERROR_INTERNAL | HAL_ADC_STATE_ERROR_DMA))
 8001f9e:	68fb      	ldr	r3, [r7, #12]
 8001fa0:	6c1b      	ldr	r3, [r3, #64]	; 0x40
 8001fa2:	f003 0350 	and.w	r3, r3, #80	; 0x50
 8001fa6:	2b00      	cmp	r3, #0
 8001fa8:	d13c      	bne.n	8002024 <ADC_DMAConvCplt+0x94>
  {
    /* Update ADC state machine */
    SET_BIT(hadc->State, HAL_ADC_STATE_REG_EOC);
 8001faa:	68fb      	ldr	r3, [r7, #12]
 8001fac:	6c1b      	ldr	r3, [r3, #64]	; 0x40
 8001fae:	f443 7200 	orr.w	r2, r3, #512	; 0x200
 8001fb2:	68fb      	ldr	r3, [r7, #12]
 8001fb4:	641a      	str	r2, [r3, #64]	; 0x40
    /* by external trigger, continuous mode or scan sequence on going.      */
    /* Note: On STM32F4, there is no independent flag of end of sequence.   */
    /*       The test of scan sequence on going is done either with scan    */
    /*       sequence disabled or with end of conversion flag set to        */
    /*       of end of sequence.                                            */
    if(ADC_IS_SOFTWARE_START_REGULAR(hadc)                   &&
 8001fb6:	68fb      	ldr	r3, [r7, #12]
 8001fb8:	681b      	ldr	r3, [r3, #0]
 8001fba:	689b      	ldr	r3, [r3, #8]
 8001fbc:	f003 5340 	and.w	r3, r3, #805306368	; 0x30000000
 8001fc0:	2b00      	cmp	r3, #0
 8001fc2:	d12b      	bne.n	800201c <ADC_DMAConvCplt+0x8c>
       (hadc->Init.ContinuousConvMode == DISABLE)            &&
 8001fc4:	68fb      	ldr	r3, [r7, #12]
 8001fc6:	7e1b      	ldrb	r3, [r3, #24]
    if(ADC_IS_SOFTWARE_START_REGULAR(hadc)                   &&
 8001fc8:	2b00      	cmp	r3, #0
 8001fca:	d127      	bne.n	800201c <ADC_DMAConvCplt+0x8c>
       (HAL_IS_BIT_CLR(hadc->Instance->SQR1, ADC_SQR1_L) || 
 8001fcc:	68fb      	ldr	r3, [r7, #12]
 8001fce:	681b      	ldr	r3, [r3, #0]
 8001fd0:	6adb      	ldr	r3, [r3, #44]	; 0x2c
 8001fd2:	f403 0370 	and.w	r3, r3, #15728640	; 0xf00000
       (hadc->Init.ContinuousConvMode == DISABLE)            &&
 8001fd6:	2b00      	cmp	r3, #0
 8001fd8:	d006      	beq.n	8001fe8 <ADC_DMAConvCplt+0x58>
        HAL_IS_BIT_CLR(hadc->Instance->CR2, ADC_CR2_EOCS)  )   )
 8001fda:	68fb      	ldr	r3, [r7, #12]
 8001fdc:	681b      	ldr	r3, [r3, #0]
 8001fde:	689b      	ldr	r3, [r3, #8]
 8001fe0:	f403 6380 	and.w	r3, r3, #1024	; 0x400
       (HAL_IS_BIT_CLR(hadc->Instance->SQR1, ADC_SQR1_L) || 
 8001fe4:	2b00      	cmp	r3, #0
 8001fe6:	d119      	bne.n	800201c <ADC_DMAConvCplt+0x8c>
    {
      /* Disable ADC end of single conversion interrupt on group regular */
      /* Note: Overrun interrupt was enabled with EOC interrupt in          */
      /* HAL_ADC_Start_IT(), but is not disabled here because can be used   */
      /* by overrun IRQ process below.                                      */
      __HAL_ADC_DISABLE_IT(hadc, ADC_IT_EOC);
 8001fe8:	68fb      	ldr	r3, [r7, #12]
 8001fea:	681b      	ldr	r3, [r3, #0]
 8001fec:	685a      	ldr	r2, [r3, #4]
 8001fee:	68fb      	ldr	r3, [r7, #12]
 8001ff0:	681b      	ldr	r3, [r3, #0]
 8001ff2:	f022 0220 	bic.w	r2, r2, #32
 8001ff6:	605a      	str	r2, [r3, #4]
      
      /* Set ADC state */
      CLEAR_BIT(hadc->State, HAL_ADC_STATE_REG_BUSY);   
 8001ff8:	68fb      	ldr	r3, [r7, #12]
 8001ffa:	6c1b      	ldr	r3, [r3, #64]	; 0x40
 8001ffc:	f423 7280 	bic.w	r2, r3, #256	; 0x100
 8002000:	68fb      	ldr	r3, [r7, #12]
 8002002:	641a      	str	r2, [r3, #64]	; 0x40
      
      if (HAL_IS_BIT_CLR(hadc->State, HAL_ADC_STATE_INJ_BUSY))
 8002004:	68fb      	ldr	r3, [r7, #12]
 8002006:	6c1b      	ldr	r3, [r3, #64]	; 0x40
 8002008:	f403 5380 	and.w	r3, r3, #4096	; 0x1000
 800200c:	2b00      	cmp	r3, #0
 800200e:	d105      	bne.n	800201c <ADC_DMAConvCplt+0x8c>
      {
        SET_BIT(hadc->State, HAL_ADC_STATE_READY);
 8002010:	68fb      	ldr	r3, [r7, #12]
 8002012:	6c1b      	ldr	r3, [r3, #64]	; 0x40
 8002014:	f043 0201 	orr.w	r2, r3, #1
 8002018:	68fb      	ldr	r3, [r7, #12]
 800201a:	641a      	str	r2, [r3, #64]	; 0x40
    
    /* Conversion complete callback */
#if (USE_HAL_ADC_REGISTER_CALLBACKS == 1)
    hadc->ConvCpltCallback(hadc);
#else
    HAL_ADC_ConvCpltCallback(hadc);
 800201c:	68f8      	ldr	r0, [r7, #12]
 800201e:	f7ff fa05 	bl	800142c <HAL_ADC_ConvCpltCallback>
	{
      /* Call DMA error callback */
      hadc->DMA_Handle->XferErrorCallback(hdma);
    }
  }
}
 8002022:	e00e      	b.n	8002042 <ADC_DMAConvCplt+0xb2>
    if ((hadc->State & HAL_ADC_STATE_ERROR_INTERNAL) != 0UL)
 8002024:	68fb      	ldr	r3, [r7, #12]
 8002026:	6c1b      	ldr	r3, [r3, #64]	; 0x40
 8002028:	f003 0310 	and.w	r3, r3, #16
 800202c:	2b00      	cmp	r3, #0
 800202e:	d003      	beq.n	8002038 <ADC_DMAConvCplt+0xa8>
      HAL_ADC_ErrorCallback(hadc);
 8002030:	68f8      	ldr	r0, [r7, #12]
 8002032:	f7ff fd75 	bl	8001b20 <HAL_ADC_ErrorCallback>
}
 8002036:	e004      	b.n	8002042 <ADC_DMAConvCplt+0xb2>
      hadc->DMA_Handle->XferErrorCallback(hdma);
 8002038:	68fb      	ldr	r3, [r7, #12]
 800203a:	6b9b      	ldr	r3, [r3, #56]	; 0x38
 800203c:	6cdb      	ldr	r3, [r3, #76]	; 0x4c
 800203e:	6878      	ldr	r0, [r7, #4]
 8002040:	4798      	blx	r3
}
 8002042:	bf00      	nop
 8002044:	3710      	adds	r7, #16
 8002046:	46bd      	mov	sp, r7
 8002048:	bd80      	pop	{r7, pc}

0800204a <ADC_DMAHalfConvCplt>:
  * @param  hdma pointer to a DMA_HandleTypeDef structure that contains
  *                the configuration information for the specified DMA module.
  * @retval None
  */
static void ADC_DMAHalfConvCplt(DMA_HandleTypeDef *hdma)   
{
 800204a:	b580      	push	{r7, lr}
 800204c:	b084      	sub	sp, #16
 800204e:	af00      	add	r7, sp, #0
 8002050:	6078      	str	r0, [r7, #4]
  ADC_HandleTypeDef* hadc = ( ADC_HandleTypeDef* )((DMA_HandleTypeDef* )hdma)->Parent;
 8002052:	687b      	ldr	r3, [r7, #4]
 8002054:	6b9b      	ldr	r3, [r3, #56]	; 0x38
 8002056:	60fb      	str	r3, [r7, #12]
   /* Half conversion callback */
#if (USE_HAL_ADC_REGISTER_CALLBACKS == 1)
  hadc->ConvHalfCpltCallback(hadc);
#else
  HAL_ADC_ConvHalfCpltCallback(hadc);
 8002058:	68f8      	ldr	r0, [r7, #12]
 800205a:	f7ff fd57 	bl	8001b0c <HAL_ADC_ConvHalfCpltCallback>
#endif /* USE_HAL_ADC_REGISTER_CALLBACKS */
}
 800205e:	bf00      	nop
 8002060:	3710      	adds	r7, #16
 8002062:	46bd      	mov	sp, r7
 8002064:	bd80      	pop	{r7, pc}

08002066 <ADC_DMAError>:
  * @param  hdma pointer to a DMA_HandleTypeDef structure that contains
  *                the configuration information for the specified DMA module.
  * @retval None
  */
static void ADC_DMAError(DMA_HandleTypeDef *hdma)   
{
 8002066:	b580      	push	{r7, lr}
 8002068:	b084      	sub	sp, #16
 800206a:	af00      	add	r7, sp, #0
 800206c:	6078      	str	r0, [r7, #4]
  ADC_HandleTypeDef* hadc = ( ADC_HandleTypeDef* )((DMA_HandleTypeDef* )hdma)->Parent;
 800206e:	687b      	ldr	r3, [r7, #4]
 8002070:	6b9b      	ldr	r3, [r3, #56]	; 0x38
 8002072:	60fb      	str	r3, [r7, #12]
  hadc->State= HAL_ADC_STATE_ERROR_DMA;
 8002074:	68fb      	ldr	r3, [r7, #12]
 8002076:	2240      	movs	r2, #64	; 0x40
 8002078:	641a      	str	r2, [r3, #64]	; 0x40
  /* Set ADC error code to DMA error */
  hadc->ErrorCode |= HAL_ADC_ERROR_DMA;
 800207a:	68fb      	ldr	r3, [r7, #12]
 800207c:	6c5b      	ldr	r3, [r3, #68]	; 0x44
 800207e:	f043 0204 	orr.w	r2, r3, #4
 8002082:	68fb      	ldr	r3, [r7, #12]
 8002084:	645a      	str	r2, [r3, #68]	; 0x44
   /* Error callback */
#if (USE_HAL_ADC_REGISTER_CALLBACKS == 1)
  hadc->ErrorCallback(hadc);
#else
  HAL_ADC_ErrorCallback(hadc);
 8002086:	68f8      	ldr	r0, [r7, #12]
 8002088:	f7ff fd4a 	bl	8001b20 <HAL_ADC_ErrorCallback>
#endif /* USE_HAL_ADC_REGISTER_CALLBACKS */
}
 800208c:	bf00      	nop
 800208e:	3710      	adds	r7, #16
 8002090:	46bd      	mov	sp, r7
 8002092:	bd80      	pop	{r7, pc}

08002094 <__NVIC_SetPriorityGrouping>:
           In case of a conflict between priority grouping and available
           priority bits (__NVIC_PRIO_BITS), the smallest possible priority group is set.
  \param [in]      PriorityGroup  Priority grouping field.
 */
__STATIC_INLINE void __NVIC_SetPriorityGrouping(uint32_t PriorityGroup)
{
 8002094:	b480      	push	{r7}
 8002096:	b085      	sub	sp, #20
 8002098:	af00      	add	r7, sp, #0
 800209a:	6078      	str	r0, [r7, #4]
  uint32_t reg_value;
  uint32_t PriorityGroupTmp = (PriorityGroup & (uint32_t)0x07UL);             /* only values 0..7 are used          */
 800209c:	687b      	ldr	r3, [r7, #4]
 800209e:	f003 0307 	and.w	r3, r3, #7
 80020a2:	60fb      	str	r3, [r7, #12]

  reg_value  =  SCB->AIRCR;                                                   /* read old register configuration    */
 80020a4:	4b0c      	ldr	r3, [pc, #48]	; (80020d8 <__NVIC_SetPriorityGrouping+0x44>)
 80020a6:	68db      	ldr	r3, [r3, #12]
 80020a8:	60bb      	str	r3, [r7, #8]
  reg_value &= ~((uint32_t)(SCB_AIRCR_VECTKEY_Msk | SCB_AIRCR_PRIGROUP_Msk)); /* clear bits to change               */
 80020aa:	68ba      	ldr	r2, [r7, #8]
 80020ac:	f64f 03ff 	movw	r3, #63743	; 0xf8ff
 80020b0:	4013      	ands	r3, r2
 80020b2:	60bb      	str	r3, [r7, #8]
  reg_value  =  (reg_value                                   |
                ((uint32_t)0x5FAUL << SCB_AIRCR_VECTKEY_Pos) |
                (PriorityGroupTmp << SCB_AIRCR_PRIGROUP_Pos)  );              /* Insert write key and priority group */
 80020b4:	68fb      	ldr	r3, [r7, #12]
 80020b6:	021a      	lsls	r2, r3, #8
                ((uint32_t)0x5FAUL << SCB_AIRCR_VECTKEY_Pos) |
 80020b8:	68bb      	ldr	r3, [r7, #8]
 80020ba:	4313      	orrs	r3, r2
  reg_value  =  (reg_value                                   |
 80020bc:	f043 63bf 	orr.w	r3, r3, #100139008	; 0x5f80000
 80020c0:	f443 3300 	orr.w	r3, r3, #131072	; 0x20000
 80020c4:	60bb      	str	r3, [r7, #8]
  SCB->AIRCR =  reg_value;
 80020c6:	4a04      	ldr	r2, [pc, #16]	; (80020d8 <__NVIC_SetPriorityGrouping+0x44>)
 80020c8:	68bb      	ldr	r3, [r7, #8]
 80020ca:	60d3      	str	r3, [r2, #12]
}
 80020cc:	bf00      	nop
 80020ce:	3714      	adds	r7, #20
 80020d0:	46bd      	mov	sp, r7
 80020d2:	f85d 7b04 	ldr.w	r7, [sp], #4
 80020d6:	4770      	bx	lr
 80020d8:	e000ed00 	.word	0xe000ed00

080020dc <__NVIC_GetPriorityGrouping>:
  \brief   Get Priority Grouping
  \details Reads the priority grouping field from the NVIC Interrupt Controller.
  \return                Priority grouping field (SCB->AIRCR [10:8] PRIGROUP field).
 */
__STATIC_INLINE uint32_t __NVIC_GetPriorityGrouping(void)
{
 80020dc:	b480      	push	{r7}
 80020de:	af00      	add	r7, sp, #0
  return ((uint32_t)((SCB->AIRCR & SCB_AIRCR_PRIGROUP_Msk) >> SCB_AIRCR_PRIGROUP_Pos));
 80020e0:	4b04      	ldr	r3, [pc, #16]	; (80020f4 <__NVIC_GetPriorityGrouping+0x18>)
 80020e2:	68db      	ldr	r3, [r3, #12]
 80020e4:	0a1b      	lsrs	r3, r3, #8
 80020e6:	f003 0307 	and.w	r3, r3, #7
}
 80020ea:	4618      	mov	r0, r3
 80020ec:	46bd      	mov	sp, r7
 80020ee:	f85d 7b04 	ldr.w	r7, [sp], #4
 80020f2:	4770      	bx	lr
 80020f4:	e000ed00 	.word	0xe000ed00

080020f8 <__NVIC_EnableIRQ>:
  \details Enables a device specific interrupt in the NVIC interrupt controller.
  \param [in]      IRQn  Device specific interrupt number.
  \note    IRQn must not be negative.
 */
__STATIC_INLINE void __NVIC_EnableIRQ(IRQn_Type IRQn)
{
 80020f8:	b480      	push	{r7}
 80020fa:	b083      	sub	sp, #12
 80020fc:	af00      	add	r7, sp, #0
 80020fe:	4603      	mov	r3, r0
 8002100:	71fb      	strb	r3, [r7, #7]
  if ((int32_t)(IRQn) >= 0)
 8002102:	f997 3007 	ldrsb.w	r3, [r7, #7]
 8002106:	2b00      	cmp	r3, #0
 8002108:	db0b      	blt.n	8002122 <__NVIC_EnableIRQ+0x2a>
  {
    NVIC->ISER[(((uint32_t)IRQn) >> 5UL)] = (uint32_t)(1UL << (((uint32_t)IRQn) & 0x1FUL));
 800210a:	79fb      	ldrb	r3, [r7, #7]
 800210c:	f003 021f 	and.w	r2, r3, #31
 8002110:	4907      	ldr	r1, [pc, #28]	; (8002130 <__NVIC_EnableIRQ+0x38>)
 8002112:	f997 3007 	ldrsb.w	r3, [r7, #7]
 8002116:	095b      	lsrs	r3, r3, #5
 8002118:	2001      	movs	r0, #1
 800211a:	fa00 f202 	lsl.w	r2, r0, r2
 800211e:	f841 2023 	str.w	r2, [r1, r3, lsl #2]
  }
}
 8002122:	bf00      	nop
 8002124:	370c      	adds	r7, #12
 8002126:	46bd      	mov	sp, r7
 8002128:	f85d 7b04 	ldr.w	r7, [sp], #4
 800212c:	4770      	bx	lr
 800212e:	bf00      	nop
 8002130:	e000e100 	.word	0xe000e100

08002134 <__NVIC_SetPriority>:
  \param [in]      IRQn  Interrupt number.
  \param [in]  priority  Priority to set.
  \note    The priority cannot be set for every processor exception.
 */
__STATIC_INLINE void __NVIC_SetPriority(IRQn_Type IRQn, uint32_t priority)
{
 8002134:	b480      	push	{r7}
 8002136:	b083      	sub	sp, #12
 8002138:	af00      	add	r7, sp, #0
 800213a:	4603      	mov	r3, r0
 800213c:	6039      	str	r1, [r7, #0]
 800213e:	71fb      	strb	r3, [r7, #7]
  if ((int32_t)(IRQn) >= 0)
 8002140:	f997 3007 	ldrsb.w	r3, [r7, #7]
 8002144:	2b00      	cmp	r3, #0
 8002146:	db0a      	blt.n	800215e <__NVIC_SetPriority+0x2a>
  {
    NVIC->IP[((uint32_t)IRQn)]               = (uint8_t)((priority << (8U - __NVIC_PRIO_BITS)) & (uint32_t)0xFFUL);
 8002148:	683b      	ldr	r3, [r7, #0]
 800214a:	b2da      	uxtb	r2, r3
 800214c:	490c      	ldr	r1, [pc, #48]	; (8002180 <__NVIC_SetPriority+0x4c>)
 800214e:	f997 3007 	ldrsb.w	r3, [r7, #7]
 8002152:	0112      	lsls	r2, r2, #4
 8002154:	b2d2      	uxtb	r2, r2
 8002156:	440b      	add	r3, r1
 8002158:	f883 2300 	strb.w	r2, [r3, #768]	; 0x300
  }
  else
  {
    SCB->SHP[(((uint32_t)IRQn) & 0xFUL)-4UL] = (uint8_t)((priority << (8U - __NVIC_PRIO_BITS)) & (uint32_t)0xFFUL);
  }
}
 800215c:	e00a      	b.n	8002174 <__NVIC_SetPriority+0x40>
    SCB->SHP[(((uint32_t)IRQn) & 0xFUL)-4UL] = (uint8_t)((priority << (8U - __NVIC_PRIO_BITS)) & (uint32_t)0xFFUL);
 800215e:	683b      	ldr	r3, [r7, #0]
 8002160:	b2da      	uxtb	r2, r3
 8002162:	4908      	ldr	r1, [pc, #32]	; (8002184 <__NVIC_SetPriority+0x50>)
 8002164:	79fb      	ldrb	r3, [r7, #7]
 8002166:	f003 030f 	and.w	r3, r3, #15
 800216a:	3b04      	subs	r3, #4
 800216c:	0112      	lsls	r2, r2, #4
 800216e:	b2d2      	uxtb	r2, r2
 8002170:	440b      	add	r3, r1
 8002172:	761a      	strb	r2, [r3, #24]
}
 8002174:	bf00      	nop
 8002176:	370c      	adds	r7, #12
 8002178:	46bd      	mov	sp, r7
 800217a:	f85d 7b04 	ldr.w	r7, [sp], #4
 800217e:	4770      	bx	lr
 8002180:	e000e100 	.word	0xe000e100
 8002184:	e000ed00 	.word	0xe000ed00

08002188 <NVIC_EncodePriority>:
  \param [in]   PreemptPriority  Preemptive priority value (starting from 0).
  \param [in]       SubPriority  Subpriority value (starting from 0).
  \return                        Encoded priority. Value can be used in the function \ref NVIC_SetPriority().
 */
__STATIC_INLINE uint32_t NVIC_EncodePriority (uint32_t PriorityGroup, uint32_t PreemptPriority, uint32_t SubPriority)
{
 8002188:	b480      	push	{r7}
 800218a:	b089      	sub	sp, #36	; 0x24
 800218c:	af00      	add	r7, sp, #0
 800218e:	60f8      	str	r0, [r7, #12]
 8002190:	60b9      	str	r1, [r7, #8]
 8002192:	607a      	str	r2, [r7, #4]
  uint32_t PriorityGroupTmp = (PriorityGroup & (uint32_t)0x07UL);   /* only values 0..7 are used          */
 8002194:	68fb      	ldr	r3, [r7, #12]
 8002196:	f003 0307 	and.w	r3, r3, #7
 800219a:	61fb      	str	r3, [r7, #28]
  uint32_t PreemptPriorityBits;
  uint32_t SubPriorityBits;

  PreemptPriorityBits = ((7UL - PriorityGroupTmp) > (uint32_t)(__NVIC_PRIO_BITS)) ? (uint32_t)(__NVIC_PRIO_BITS) : (uint32_t)(7UL - PriorityGroupTmp);
 800219c:	69fb      	ldr	r3, [r7, #28]
 800219e:	f1c3 0307 	rsb	r3, r3, #7
 80021a2:	2b04      	cmp	r3, #4
 80021a4:	bf28      	it	cs
 80021a6:	2304      	movcs	r3, #4
 80021a8:	61bb      	str	r3, [r7, #24]
  SubPriorityBits     = ((PriorityGroupTmp + (uint32_t)(__NVIC_PRIO_BITS)) < (uint32_t)7UL) ? (uint32_t)0UL : (uint32_t)((PriorityGroupTmp - 7UL) + (uint32_t)(__NVIC_PRIO_BITS));
 80021aa:	69fb      	ldr	r3, [r7, #28]
 80021ac:	3304      	adds	r3, #4
 80021ae:	2b06      	cmp	r3, #6
 80021b0:	d902      	bls.n	80021b8 <NVIC_EncodePriority+0x30>
 80021b2:	69fb      	ldr	r3, [r7, #28]
 80021b4:	3b03      	subs	r3, #3
 80021b6:	e000      	b.n	80021ba <NVIC_EncodePriority+0x32>
 80021b8:	2300      	movs	r3, #0
 80021ba:	617b      	str	r3, [r7, #20]

  return (
           ((PreemptPriority & (uint32_t)((1UL << (PreemptPriorityBits)) - 1UL)) << SubPriorityBits) |
 80021bc:	f04f 32ff 	mov.w	r2, #4294967295
 80021c0:	69bb      	ldr	r3, [r7, #24]
 80021c2:	fa02 f303 	lsl.w	r3, r2, r3
 80021c6:	43da      	mvns	r2, r3
 80021c8:	68bb      	ldr	r3, [r7, #8]
 80021ca:	401a      	ands	r2, r3
 80021cc:	697b      	ldr	r3, [r7, #20]
 80021ce:	409a      	lsls	r2, r3
           ((SubPriority     & (uint32_t)((1UL << (SubPriorityBits    )) - 1UL)))
 80021d0:	f04f 31ff 	mov.w	r1, #4294967295
 80021d4:	697b      	ldr	r3, [r7, #20]
 80021d6:	fa01 f303 	lsl.w	r3, r1, r3
 80021da:	43d9      	mvns	r1, r3
 80021dc:	687b      	ldr	r3, [r7, #4]
 80021de:	400b      	ands	r3, r1
           ((PreemptPriority & (uint32_t)((1UL << (PreemptPriorityBits)) - 1UL)) << SubPriorityBits) |
 80021e0:	4313      	orrs	r3, r2
         );
}
 80021e2:	4618      	mov	r0, r3
 80021e4:	3724      	adds	r7, #36	; 0x24
 80021e6:	46bd      	mov	sp, r7
 80021e8:	f85d 7b04 	ldr.w	r7, [sp], #4
 80021ec:	4770      	bx	lr
	...

080021f0 <SysTick_Config>:
  \note    When the variable <b>__Vendor_SysTickConfig</b> is set to 1, then the
           function <b>SysTick_Config</b> is not included. In this case, the file <b><i>device</i>.h</b>
           must contain a vendor-specific implementation of this function.
 */
__STATIC_INLINE uint32_t SysTick_Config(uint32_t ticks)
{
 80021f0:	b580      	push	{r7, lr}
 80021f2:	b082      	sub	sp, #8
 80021f4:	af00      	add	r7, sp, #0
 80021f6:	6078      	str	r0, [r7, #4]
  if ((ticks - 1UL) > SysTick_LOAD_RELOAD_Msk)
 80021f8:	687b      	ldr	r3, [r7, #4]
 80021fa:	3b01      	subs	r3, #1
 80021fc:	f1b3 7f80 	cmp.w	r3, #16777216	; 0x1000000
 8002200:	d301      	bcc.n	8002206 <SysTick_Config+0x16>
  {
    return (1UL);                                                   /* Reload value impossible */
 8002202:	2301      	movs	r3, #1
 8002204:	e00f      	b.n	8002226 <SysTick_Config+0x36>
  }

  SysTick->LOAD  = (uint32_t)(ticks - 1UL);                         /* set reload register */
 8002206:	4a0a      	ldr	r2, [pc, #40]	; (8002230 <SysTick_Config+0x40>)
 8002208:	687b      	ldr	r3, [r7, #4]
 800220a:	3b01      	subs	r3, #1
 800220c:	6053      	str	r3, [r2, #4]
  NVIC_SetPriority (SysTick_IRQn, (1UL << __NVIC_PRIO_BITS) - 1UL); /* set Priority for Systick Interrupt */
 800220e:	210f      	movs	r1, #15
 8002210:	f04f 30ff 	mov.w	r0, #4294967295
 8002214:	f7ff ff8e 	bl	8002134 <__NVIC_SetPriority>
  SysTick->VAL   = 0UL;                                             /* Load the SysTick Counter Value */
 8002218:	4b05      	ldr	r3, [pc, #20]	; (8002230 <SysTick_Config+0x40>)
 800221a:	2200      	movs	r2, #0
 800221c:	609a      	str	r2, [r3, #8]
  SysTick->CTRL  = SysTick_CTRL_CLKSOURCE_Msk |
 800221e:	4b04      	ldr	r3, [pc, #16]	; (8002230 <SysTick_Config+0x40>)
 8002220:	2207      	movs	r2, #7
 8002222:	601a      	str	r2, [r3, #0]
                   SysTick_CTRL_TICKINT_Msk   |
                   SysTick_CTRL_ENABLE_Msk;                         /* Enable SysTick IRQ and SysTick Timer */
  return (0UL);                                                     /* Function successful */
 8002224:	2300      	movs	r3, #0
}
 8002226:	4618      	mov	r0, r3
 8002228:	3708      	adds	r7, #8
 800222a:	46bd      	mov	sp, r7
 800222c:	bd80      	pop	{r7, pc}
 800222e:	bf00      	nop
 8002230:	e000e010 	.word	0xe000e010

08002234 <HAL_NVIC_SetPriorityGrouping>:
  * @note   When the NVIC_PriorityGroup_0 is selected, IRQ preemption is no more possible. 
  *         The pending IRQ priority will be managed only by the subpriority. 
  * @retval None
  */
void HAL_NVIC_SetPriorityGrouping(uint32_t PriorityGroup)
{
 8002234:	b580      	push	{r7, lr}
 8002236:	b082      	sub	sp, #8
 8002238:	af00      	add	r7, sp, #0
 800223a:	6078      	str	r0, [r7, #4]
  /* Check the parameters */
  assert_param(IS_NVIC_PRIORITY_GROUP(PriorityGroup));
  
  /* Set the PRIGROUP[10:8] bits according to the PriorityGroup parameter value */
  NVIC_SetPriorityGrouping(PriorityGroup);
 800223c:	6878      	ldr	r0, [r7, #4]
 800223e:	f7ff ff29 	bl	8002094 <__NVIC_SetPriorityGrouping>
}
 8002242:	bf00      	nop
 8002244:	3708      	adds	r7, #8
 8002246:	46bd      	mov	sp, r7
 8002248:	bd80      	pop	{r7, pc}

0800224a <HAL_NVIC_SetPriority>:
  *         This parameter can be a value between 0 and 15
  *         A lower priority value indicates a higher priority.          
  * @retval None
  */
void HAL_NVIC_SetPriority(IRQn_Type IRQn, uint32_t PreemptPriority, uint32_t SubPriority)
{ 
 800224a:	b580      	push	{r7, lr}
 800224c:	b086      	sub	sp, #24
 800224e:	af00      	add	r7, sp, #0
 8002250:	4603      	mov	r3, r0
 8002252:	60b9      	str	r1, [r7, #8]
 8002254:	607a      	str	r2, [r7, #4]
 8002256:	73fb      	strb	r3, [r7, #15]
  uint32_t prioritygroup = 0x00U;
 8002258:	2300      	movs	r3, #0
 800225a:	617b      	str	r3, [r7, #20]
  
  /* Check the parameters */
  assert_param(IS_NVIC_SUB_PRIORITY(SubPriority));
  assert_param(IS_NVIC_PREEMPTION_PRIORITY(PreemptPriority));
  
  prioritygroup = NVIC_GetPriorityGrouping();
 800225c:	f7ff ff3e 	bl	80020dc <__NVIC_GetPriorityGrouping>
 8002260:	6178      	str	r0, [r7, #20]
  
  NVIC_SetPriority(IRQn, NVIC_EncodePriority(prioritygroup, PreemptPriority, SubPriority));
 8002262:	687a      	ldr	r2, [r7, #4]
 8002264:	68b9      	ldr	r1, [r7, #8]
 8002266:	6978      	ldr	r0, [r7, #20]
 8002268:	f7ff ff8e 	bl	8002188 <NVIC_EncodePriority>
 800226c:	4602      	mov	r2, r0
 800226e:	f997 300f 	ldrsb.w	r3, [r7, #15]
 8002272:	4611      	mov	r1, r2
 8002274:	4618      	mov	r0, r3
 8002276:	f7ff ff5d 	bl	8002134 <__NVIC_SetPriority>
}
 800227a:	bf00      	nop
 800227c:	3718      	adds	r7, #24
 800227e:	46bd      	mov	sp, r7
 8002280:	bd80      	pop	{r7, pc}

08002282 <HAL_NVIC_EnableIRQ>:
  *         This parameter can be an enumerator of IRQn_Type enumeration
  *         (For the complete STM32 Devices IRQ Channels list, please refer to the appropriate CMSIS device file (stm32f4xxxx.h))
  * @retval None
  */
void HAL_NVIC_EnableIRQ(IRQn_Type IRQn)
{
 8002282:	b580      	push	{r7, lr}
 8002284:	b082      	sub	sp, #8
 8002286:	af00      	add	r7, sp, #0
 8002288:	4603      	mov	r3, r0
 800228a:	71fb      	strb	r3, [r7, #7]
  /* Check the parameters */
  assert_param(IS_NVIC_DEVICE_IRQ(IRQn));
  
  /* Enable interrupt */
  NVIC_EnableIRQ(IRQn);
 800228c:	f997 3007 	ldrsb.w	r3, [r7, #7]
 8002290:	4618      	mov	r0, r3
 8002292:	f7ff ff31 	bl	80020f8 <__NVIC_EnableIRQ>
}
 8002296:	bf00      	nop
 8002298:	3708      	adds	r7, #8
 800229a:	46bd      	mov	sp, r7
 800229c:	bd80      	pop	{r7, pc}

0800229e <HAL_SYSTICK_Config>:
  * @param  TicksNumb Specifies the ticks Number of ticks between two interrupts.
  * @retval status:  - 0  Function succeeded.
  *                  - 1  Function failed.
  */
uint32_t HAL_SYSTICK_Config(uint32_t TicksNumb)
{
 800229e:	b580      	push	{r7, lr}
 80022a0:	b082      	sub	sp, #8
 80022a2:	af00      	add	r7, sp, #0
 80022a4:	6078      	str	r0, [r7, #4]
   return SysTick_Config(TicksNumb);
 80022a6:	6878      	ldr	r0, [r7, #4]
 80022a8:	f7ff ffa2 	bl	80021f0 <SysTick_Config>
 80022ac:	4603      	mov	r3, r0
}
 80022ae:	4618      	mov	r0, r3
 80022b0:	3708      	adds	r7, #8
 80022b2:	46bd      	mov	sp, r7
 80022b4:	bd80      	pop	{r7, pc}
	...

080022b8 <HAL_DMA_Init>:
  * @param  hdma Pointer to a DMA_HandleTypeDef structure that contains
  *               the configuration information for the specified DMA Stream.  
  * @retval HAL status
  */
HAL_StatusTypeDef HAL_DMA_Init(DMA_HandleTypeDef *hdma)
{
 80022b8:	b580      	push	{r7, lr}
 80022ba:	b086      	sub	sp, #24
 80022bc:	af00      	add	r7, sp, #0
 80022be:	6078      	str	r0, [r7, #4]
  uint32_t tmp = 0U;
 80022c0:	2300      	movs	r3, #0
 80022c2:	617b      	str	r3, [r7, #20]
  uint32_t tickstart = HAL_GetTick();
 80022c4:	f7ff fabe 	bl	8001844 <HAL_GetTick>
 80022c8:	6138      	str	r0, [r7, #16]
  DMA_Base_Registers *regs;

  /* Check the DMA peripheral state */
  if(hdma == NULL)
 80022ca:	687b      	ldr	r3, [r7, #4]
 80022cc:	2b00      	cmp	r3, #0
 80022ce:	d101      	bne.n	80022d4 <HAL_DMA_Init+0x1c>
  {
    return HAL_ERROR;
 80022d0:	2301      	movs	r3, #1
 80022d2:	e099      	b.n	8002408 <HAL_DMA_Init+0x150>
    assert_param(IS_DMA_MEMORY_BURST(hdma->Init.MemBurst));
    assert_param(IS_DMA_PERIPHERAL_BURST(hdma->Init.PeriphBurst));
  }
  
  /* Allocate lock resource */
  __HAL_UNLOCK(hdma);
 80022d4:	687b      	ldr	r3, [r7, #4]
 80022d6:	2200      	movs	r2, #0
 80022d8:	f883 2034 	strb.w	r2, [r3, #52]	; 0x34

  /* Change DMA peripheral state */
  hdma->State = HAL_DMA_STATE_BUSY;
 80022dc:	687b      	ldr	r3, [r7, #4]
 80022de:	2202      	movs	r2, #2
 80022e0:	f883 2035 	strb.w	r2, [r3, #53]	; 0x35
  
  /* Disable the peripheral */
  __HAL_DMA_DISABLE(hdma);
 80022e4:	687b      	ldr	r3, [r7, #4]
 80022e6:	681b      	ldr	r3, [r3, #0]
 80022e8:	681a      	ldr	r2, [r3, #0]
 80022ea:	687b      	ldr	r3, [r7, #4]
 80022ec:	681b      	ldr	r3, [r3, #0]
 80022ee:	f022 0201 	bic.w	r2, r2, #1
 80022f2:	601a      	str	r2, [r3, #0]
  
  /* Check if the DMA Stream is effectively disabled */
  while((hdma->Instance->CR & DMA_SxCR_EN) != RESET)
 80022f4:	e00f      	b.n	8002316 <HAL_DMA_Init+0x5e>
  {
    /* Check for the Timeout */
    if((HAL_GetTick() - tickstart ) > HAL_TIMEOUT_DMA_ABORT)
 80022f6:	f7ff faa5 	bl	8001844 <HAL_GetTick>
 80022fa:	4602      	mov	r2, r0
 80022fc:	693b      	ldr	r3, [r7, #16]
 80022fe:	1ad3      	subs	r3, r2, r3
 8002300:	2b05      	cmp	r3, #5
 8002302:	d908      	bls.n	8002316 <HAL_DMA_Init+0x5e>
    {
      /* Update error code */
      hdma->ErrorCode = HAL_DMA_ERROR_TIMEOUT;
 8002304:	687b      	ldr	r3, [r7, #4]
 8002306:	2220      	movs	r2, #32
 8002308:	655a      	str	r2, [r3, #84]	; 0x54
      
      /* Change the DMA state */
      hdma->State = HAL_DMA_STATE_TIMEOUT;
 800230a:	687b      	ldr	r3, [r7, #4]
 800230c:	2203      	movs	r2, #3
 800230e:	f883 2035 	strb.w	r2, [r3, #53]	; 0x35
      
      return HAL_TIMEOUT;
 8002312:	2303      	movs	r3, #3
 8002314:	e078      	b.n	8002408 <HAL_DMA_Init+0x150>
  while((hdma->Instance->CR & DMA_SxCR_EN) != RESET)
 8002316:	687b      	ldr	r3, [r7, #4]
 8002318:	681b      	ldr	r3, [r3, #0]
 800231a:	681b      	ldr	r3, [r3, #0]
 800231c:	f003 0301 	and.w	r3, r3, #1
 8002320:	2b00      	cmp	r3, #0
 8002322:	d1e8      	bne.n	80022f6 <HAL_DMA_Init+0x3e>
    }
  }
  
  /* Get the CR register value */
  tmp = hdma->Instance->CR;
 8002324:	687b      	ldr	r3, [r7, #4]
 8002326:	681b      	ldr	r3, [r3, #0]
 8002328:	681b      	ldr	r3, [r3, #0]
 800232a:	617b      	str	r3, [r7, #20]

  /* Clear CHSEL, MBURST, PBURST, PL, MSIZE, PSIZE, MINC, PINC, CIRC, DIR, CT and DBM bits */
  tmp &= ((uint32_t)~(DMA_SxCR_CHSEL | DMA_SxCR_MBURST | DMA_SxCR_PBURST | \
 800232c:	697a      	ldr	r2, [r7, #20]
 800232e:	4b38      	ldr	r3, [pc, #224]	; (8002410 <HAL_DMA_Init+0x158>)
 8002330:	4013      	ands	r3, r2
 8002332:	617b      	str	r3, [r7, #20]
                      DMA_SxCR_PL    | DMA_SxCR_MSIZE  | DMA_SxCR_PSIZE  | \
                      DMA_SxCR_MINC  | DMA_SxCR_PINC   | DMA_SxCR_CIRC   | \
                      DMA_SxCR_DIR   | DMA_SxCR_CT     | DMA_SxCR_DBM));

  /* Prepare the DMA Stream configuration */
  tmp |=  hdma->Init.Channel             | hdma->Init.Direction        |
 8002334:	687b      	ldr	r3, [r7, #4]
 8002336:	685a      	ldr	r2, [r3, #4]
 8002338:	687b      	ldr	r3, [r7, #4]
 800233a:	689b      	ldr	r3, [r3, #8]
 800233c:	431a      	orrs	r2, r3
          hdma->Init.PeriphInc           | hdma->Init.MemInc           |
 800233e:	687b      	ldr	r3, [r7, #4]
 8002340:	68db      	ldr	r3, [r3, #12]
  tmp |=  hdma->Init.Channel             | hdma->Init.Direction        |
 8002342:	431a      	orrs	r2, r3
          hdma->Init.PeriphInc           | hdma->Init.MemInc           |
 8002344:	687b      	ldr	r3, [r7, #4]
 8002346:	691b      	ldr	r3, [r3, #16]
 8002348:	431a      	orrs	r2, r3
          hdma->Init.PeriphDataAlignment | hdma->Init.MemDataAlignment |
 800234a:	687b      	ldr	r3, [r7, #4]
 800234c:	695b      	ldr	r3, [r3, #20]
          hdma->Init.PeriphInc           | hdma->Init.MemInc           |
 800234e:	431a      	orrs	r2, r3
          hdma->Init.PeriphDataAlignment | hdma->Init.MemDataAlignment |
 8002350:	687b      	ldr	r3, [r7, #4]
 8002352:	699b      	ldr	r3, [r3, #24]
 8002354:	431a      	orrs	r2, r3
          hdma->Init.Mode                | hdma->Init.Priority;
 8002356:	687b      	ldr	r3, [r7, #4]
 8002358:	69db      	ldr	r3, [r3, #28]
          hdma->Init.PeriphDataAlignment | hdma->Init.MemDataAlignment |
 800235a:	431a      	orrs	r2, r3
          hdma->Init.Mode                | hdma->Init.Priority;
 800235c:	687b      	ldr	r3, [r7, #4]
 800235e:	6a1b      	ldr	r3, [r3, #32]
 8002360:	4313      	orrs	r3, r2
  tmp |=  hdma->Init.Channel             | hdma->Init.Direction        |
 8002362:	697a      	ldr	r2, [r7, #20]
 8002364:	4313      	orrs	r3, r2
 8002366:	617b      	str	r3, [r7, #20]

  /* the Memory burst and peripheral burst are not used when the FIFO is disabled */
  if(hdma->Init.FIFOMode == DMA_FIFOMODE_ENABLE)
 8002368:	687b      	ldr	r3, [r7, #4]
 800236a:	6a5b      	ldr	r3, [r3, #36]	; 0x24
 800236c:	2b04      	cmp	r3, #4
 800236e:	d107      	bne.n	8002380 <HAL_DMA_Init+0xc8>
  {
    /* Get memory burst and peripheral burst */
    tmp |=  hdma->Init.MemBurst | hdma->Init.PeriphBurst;
 8002370:	687b      	ldr	r3, [r7, #4]
 8002372:	6ada      	ldr	r2, [r3, #44]	; 0x2c
 8002374:	687b      	ldr	r3, [r7, #4]
 8002376:	6b1b      	ldr	r3, [r3, #48]	; 0x30
 8002378:	4313      	orrs	r3, r2
 800237a:	697a      	ldr	r2, [r7, #20]
 800237c:	4313      	orrs	r3, r2
 800237e:	617b      	str	r3, [r7, #20]
  }
  
  /* Write to DMA Stream CR register */
  hdma->Instance->CR = tmp;  
 8002380:	687b      	ldr	r3, [r7, #4]
 8002382:	681b      	ldr	r3, [r3, #0]
 8002384:	697a      	ldr	r2, [r7, #20]
 8002386:	601a      	str	r2, [r3, #0]

  /* Get the FCR register value */
  tmp = hdma->Instance->FCR;
 8002388:	687b      	ldr	r3, [r7, #4]
 800238a:	681b      	ldr	r3, [r3, #0]
 800238c:	695b      	ldr	r3, [r3, #20]
 800238e:	617b      	str	r3, [r7, #20]

  /* Clear Direct mode and FIFO threshold bits */
  tmp &= (uint32_t)~(DMA_SxFCR_DMDIS | DMA_SxFCR_FTH);
 8002390:	697b      	ldr	r3, [r7, #20]
 8002392:	f023 0307 	bic.w	r3, r3, #7
 8002396:	617b      	str	r3, [r7, #20]

  /* Prepare the DMA Stream FIFO configuration */
  tmp |= hdma->Init.FIFOMode;
 8002398:	687b      	ldr	r3, [r7, #4]
 800239a:	6a5b      	ldr	r3, [r3, #36]	; 0x24
 800239c:	697a      	ldr	r2, [r7, #20]
 800239e:	4313      	orrs	r3, r2
 80023a0:	617b      	str	r3, [r7, #20]

  /* The FIFO threshold is not used when the FIFO mode is disabled */
  if(hdma->Init.FIFOMode == DMA_FIFOMODE_ENABLE)
 80023a2:	687b      	ldr	r3, [r7, #4]
 80023a4:	6a5b      	ldr	r3, [r3, #36]	; 0x24
 80023a6:	2b04      	cmp	r3, #4
 80023a8:	d117      	bne.n	80023da <HAL_DMA_Init+0x122>
  {
    /* Get the FIFO threshold */
    tmp |= hdma->Init.FIFOThreshold;
 80023aa:	687b      	ldr	r3, [r7, #4]
 80023ac:	6a9b      	ldr	r3, [r3, #40]	; 0x28
 80023ae:	697a      	ldr	r2, [r7, #20]
 80023b0:	4313      	orrs	r3, r2
 80023b2:	617b      	str	r3, [r7, #20]
    
    /* Check compatibility between FIFO threshold level and size of the memory burst */
    /* for INCR4, INCR8, INCR16 bursts */
    if (hdma->Init.MemBurst != DMA_MBURST_SINGLE)
 80023b4:	687b      	ldr	r3, [r7, #4]
 80023b6:	6adb      	ldr	r3, [r3, #44]	; 0x2c
 80023b8:	2b00      	cmp	r3, #0
 80023ba:	d00e      	beq.n	80023da <HAL_DMA_Init+0x122>
    {
      if (DMA_CheckFifoParam(hdma) != HAL_OK)
 80023bc:	6878      	ldr	r0, [r7, #4]
 80023be:	f000 fa6f 	bl	80028a0 <DMA_CheckFifoParam>
 80023c2:	4603      	mov	r3, r0
 80023c4:	2b00      	cmp	r3, #0
 80023c6:	d008      	beq.n	80023da <HAL_DMA_Init+0x122>
      {
        /* Update error code */
        hdma->ErrorCode = HAL_DMA_ERROR_PARAM;
 80023c8:	687b      	ldr	r3, [r7, #4]
 80023ca:	2240      	movs	r2, #64	; 0x40
 80023cc:	655a      	str	r2, [r3, #84]	; 0x54
        
        /* Change the DMA state */
        hdma->State = HAL_DMA_STATE_READY;
 80023ce:	687b      	ldr	r3, [r7, #4]
 80023d0:	2201      	movs	r2, #1
 80023d2:	f883 2035 	strb.w	r2, [r3, #53]	; 0x35
        
        return HAL_ERROR; 
 80023d6:	2301      	movs	r3, #1
 80023d8:	e016      	b.n	8002408 <HAL_DMA_Init+0x150>
      }
    }
  }
  
  /* Write to DMA Stream FCR */
  hdma->Instance->FCR = tmp;
 80023da:	687b      	ldr	r3, [r7, #4]
 80023dc:	681b      	ldr	r3, [r3, #0]
 80023de:	697a      	ldr	r2, [r7, #20]
 80023e0:	615a      	str	r2, [r3, #20]

  /* Initialize StreamBaseAddress and StreamIndex parameters to be used to calculate
     DMA steam Base Address needed by HAL_DMA_IRQHandler() and HAL_DMA_PollForTransfer() */
  regs = (DMA_Base_Registers *)DMA_CalcBaseAndBitshift(hdma);
 80023e2:	6878      	ldr	r0, [r7, #4]
 80023e4:	f000 fa26 	bl	8002834 <DMA_CalcBaseAndBitshift>
 80023e8:	4603      	mov	r3, r0
 80023ea:	60fb      	str	r3, [r7, #12]
  
  /* Clear all interrupt flags */
  regs->IFCR = 0x3FU << hdma->StreamIndex;
 80023ec:	687b      	ldr	r3, [r7, #4]
 80023ee:	6ddb      	ldr	r3, [r3, #92]	; 0x5c
 80023f0:	223f      	movs	r2, #63	; 0x3f
 80023f2:	409a      	lsls	r2, r3
 80023f4:	68fb      	ldr	r3, [r7, #12]
 80023f6:	609a      	str	r2, [r3, #8]

  /* Initialize the error code */
  hdma->ErrorCode = HAL_DMA_ERROR_NONE;
 80023f8:	687b      	ldr	r3, [r7, #4]
 80023fa:	2200      	movs	r2, #0
 80023fc:	655a      	str	r2, [r3, #84]	; 0x54
                                                                                     
  /* Initialize the DMA state */
  hdma->State = HAL_DMA_STATE_READY;
 80023fe:	687b      	ldr	r3, [r7, #4]
 8002400:	2201      	movs	r2, #1
 8002402:	f883 2035 	strb.w	r2, [r3, #53]	; 0x35

  return HAL_OK;
 8002406:	2300      	movs	r3, #0
}
 8002408:	4618      	mov	r0, r3
 800240a:	3718      	adds	r7, #24
 800240c:	46bd      	mov	sp, r7
 800240e:	bd80      	pop	{r7, pc}
 8002410:	f010803f 	.word	0xf010803f

08002414 <HAL_DMA_Start_IT>:
  * @param  DstAddress The destination memory Buffer address
  * @param  DataLength The length of data to be transferred from source to destination
  * @retval HAL status
  */
HAL_StatusTypeDef HAL_DMA_Start_IT(DMA_HandleTypeDef *hdma, uint32_t SrcAddress, uint32_t DstAddress, uint32_t DataLength)
{
 8002414:	b580      	push	{r7, lr}
 8002416:	b086      	sub	sp, #24
 8002418:	af00      	add	r7, sp, #0
 800241a:	60f8      	str	r0, [r7, #12]
 800241c:	60b9      	str	r1, [r7, #8]
 800241e:	607a      	str	r2, [r7, #4]
 8002420:	603b      	str	r3, [r7, #0]
  HAL_StatusTypeDef status = HAL_OK;
 8002422:	2300      	movs	r3, #0
 8002424:	75fb      	strb	r3, [r7, #23]

  /* calculate DMA base and stream number */
  DMA_Base_Registers *regs = (DMA_Base_Registers *)hdma->StreamBaseAddress;
 8002426:	68fb      	ldr	r3, [r7, #12]
 8002428:	6d9b      	ldr	r3, [r3, #88]	; 0x58
 800242a:	613b      	str	r3, [r7, #16]
  
  /* Check the parameters */
  assert_param(IS_DMA_BUFFER_SIZE(DataLength));
 
  /* Process locked */
  __HAL_LOCK(hdma);
 800242c:	68fb      	ldr	r3, [r7, #12]
 800242e:	f893 3034 	ldrb.w	r3, [r3, #52]	; 0x34
 8002432:	2b01      	cmp	r3, #1
 8002434:	d101      	bne.n	800243a <HAL_DMA_Start_IT+0x26>
 8002436:	2302      	movs	r3, #2
 8002438:	e040      	b.n	80024bc <HAL_DMA_Start_IT+0xa8>
 800243a:	68fb      	ldr	r3, [r7, #12]
 800243c:	2201      	movs	r2, #1
 800243e:	f883 2034 	strb.w	r2, [r3, #52]	; 0x34
  
  if(HAL_DMA_STATE_READY == hdma->State)
 8002442:	68fb      	ldr	r3, [r7, #12]
 8002444:	f893 3035 	ldrb.w	r3, [r3, #53]	; 0x35
 8002448:	b2db      	uxtb	r3, r3
 800244a:	2b01      	cmp	r3, #1
 800244c:	d12f      	bne.n	80024ae <HAL_DMA_Start_IT+0x9a>
  {
    /* Change DMA peripheral state */
    hdma->State = HAL_DMA_STATE_BUSY;
 800244e:	68fb      	ldr	r3, [r7, #12]
 8002450:	2202      	movs	r2, #2
 8002452:	f883 2035 	strb.w	r2, [r3, #53]	; 0x35
    
    /* Initialize the error code */
    hdma->ErrorCode = HAL_DMA_ERROR_NONE;
 8002456:	68fb      	ldr	r3, [r7, #12]
 8002458:	2200      	movs	r2, #0
 800245a:	655a      	str	r2, [r3, #84]	; 0x54
    
    /* Configure the source, destination address and the data length */
    DMA_SetConfig(hdma, SrcAddress, DstAddress, DataLength);
 800245c:	683b      	ldr	r3, [r7, #0]
 800245e:	687a      	ldr	r2, [r7, #4]
 8002460:	68b9      	ldr	r1, [r7, #8]
 8002462:	68f8      	ldr	r0, [r7, #12]
 8002464:	f000 f9b8 	bl	80027d8 <DMA_SetConfig>
    
    /* Clear all interrupt flags at correct offset within the register */
    regs->IFCR = 0x3FU << hdma->StreamIndex;
 8002468:	68fb      	ldr	r3, [r7, #12]
 800246a:	6ddb      	ldr	r3, [r3, #92]	; 0x5c
 800246c:	223f      	movs	r2, #63	; 0x3f
 800246e:	409a      	lsls	r2, r3
 8002470:	693b      	ldr	r3, [r7, #16]
 8002472:	609a      	str	r2, [r3, #8]
    
    /* Enable Common interrupts*/
    hdma->Instance->CR  |= DMA_IT_TC | DMA_IT_TE | DMA_IT_DME;
 8002474:	68fb      	ldr	r3, [r7, #12]
 8002476:	681b      	ldr	r3, [r3, #0]
 8002478:	681a      	ldr	r2, [r3, #0]
 800247a:	68fb      	ldr	r3, [r7, #12]
 800247c:	681b      	ldr	r3, [r3, #0]
 800247e:	f042 0216 	orr.w	r2, r2, #22
 8002482:	601a      	str	r2, [r3, #0]
    
    if(hdma->XferHalfCpltCallback != NULL)
 8002484:	68fb      	ldr	r3, [r7, #12]
 8002486:	6c1b      	ldr	r3, [r3, #64]	; 0x40
 8002488:	2b00      	cmp	r3, #0
 800248a:	d007      	beq.n	800249c <HAL_DMA_Start_IT+0x88>
    {
      hdma->Instance->CR  |= DMA_IT_HT;
 800248c:	68fb      	ldr	r3, [r7, #12]
 800248e:	681b      	ldr	r3, [r3, #0]
 8002490:	681a      	ldr	r2, [r3, #0]
 8002492:	68fb      	ldr	r3, [r7, #12]
 8002494:	681b      	ldr	r3, [r3, #0]
 8002496:	f042 0208 	orr.w	r2, r2, #8
 800249a:	601a      	str	r2, [r3, #0]
    }
    
    /* Enable the Peripheral */
    __HAL_DMA_ENABLE(hdma);
 800249c:	68fb      	ldr	r3, [r7, #12]
 800249e:	681b      	ldr	r3, [r3, #0]
 80024a0:	681a      	ldr	r2, [r3, #0]
 80024a2:	68fb      	ldr	r3, [r7, #12]
 80024a4:	681b      	ldr	r3, [r3, #0]
 80024a6:	f042 0201 	orr.w	r2, r2, #1
 80024aa:	601a      	str	r2, [r3, #0]
 80024ac:	e005      	b.n	80024ba <HAL_DMA_Start_IT+0xa6>
  }
  else
  {
    /* Process unlocked */
    __HAL_UNLOCK(hdma);	  
 80024ae:	68fb      	ldr	r3, [r7, #12]
 80024b0:	2200      	movs	r2, #0
 80024b2:	f883 2034 	strb.w	r2, [r3, #52]	; 0x34
    
    /* Return error status */
    status = HAL_BUSY;
 80024b6:	2302      	movs	r3, #2
 80024b8:	75fb      	strb	r3, [r7, #23]
  }
  
  return status;
 80024ba:	7dfb      	ldrb	r3, [r7, #23]
}
 80024bc:	4618      	mov	r0, r3
 80024be:	3718      	adds	r7, #24
 80024c0:	46bd      	mov	sp, r7
 80024c2:	bd80      	pop	{r7, pc}

080024c4 <HAL_DMA_IRQHandler>:
  * @param  hdma pointer to a DMA_HandleTypeDef structure that contains
  *               the configuration information for the specified DMA Stream.  
  * @retval None
  */
void HAL_DMA_IRQHandler(DMA_HandleTypeDef *hdma)
{
 80024c4:	b580      	push	{r7, lr}
 80024c6:	b086      	sub	sp, #24
 80024c8:	af00      	add	r7, sp, #0
 80024ca:	6078      	str	r0, [r7, #4]
  uint32_t tmpisr;
  __IO uint32_t count = 0U;
 80024cc:	2300      	movs	r3, #0
 80024ce:	60bb      	str	r3, [r7, #8]
  uint32_t timeout = SystemCoreClock / 9600U;
 80024d0:	4b92      	ldr	r3, [pc, #584]	; (800271c <HAL_DMA_IRQHandler+0x258>)
 80024d2:	681b      	ldr	r3, [r3, #0]
 80024d4:	4a92      	ldr	r2, [pc, #584]	; (8002720 <HAL_DMA_IRQHandler+0x25c>)
 80024d6:	fba2 2303 	umull	r2, r3, r2, r3
 80024da:	0a9b      	lsrs	r3, r3, #10
 80024dc:	617b      	str	r3, [r7, #20]

  /* calculate DMA base and stream number */
  DMA_Base_Registers *regs = (DMA_Base_Registers *)hdma->StreamBaseAddress;
 80024de:	687b      	ldr	r3, [r7, #4]
 80024e0:	6d9b      	ldr	r3, [r3, #88]	; 0x58
 80024e2:	613b      	str	r3, [r7, #16]

  tmpisr = regs->ISR;
 80024e4:	693b      	ldr	r3, [r7, #16]
 80024e6:	681b      	ldr	r3, [r3, #0]
 80024e8:	60fb      	str	r3, [r7, #12]

  /* Transfer Error Interrupt management ***************************************/
  if ((tmpisr & (DMA_FLAG_TEIF0_4 << hdma->StreamIndex)) != RESET)
 80024ea:	687b      	ldr	r3, [r7, #4]
 80024ec:	6ddb      	ldr	r3, [r3, #92]	; 0x5c
 80024ee:	2208      	movs	r2, #8
 80024f0:	409a      	lsls	r2, r3
 80024f2:	68fb      	ldr	r3, [r7, #12]
 80024f4:	4013      	ands	r3, r2
 80024f6:	2b00      	cmp	r3, #0
 80024f8:	d01a      	beq.n	8002530 <HAL_DMA_IRQHandler+0x6c>
  {
    if(__HAL_DMA_GET_IT_SOURCE(hdma, DMA_IT_TE) != RESET)
 80024fa:	687b      	ldr	r3, [r7, #4]
 80024fc:	681b      	ldr	r3, [r3, #0]
 80024fe:	681b      	ldr	r3, [r3, #0]
 8002500:	f003 0304 	and.w	r3, r3, #4
 8002504:	2b00      	cmp	r3, #0
 8002506:	d013      	beq.n	8002530 <HAL_DMA_IRQHandler+0x6c>
    {
      /* Disable the transfer error interrupt */
      hdma->Instance->CR  &= ~(DMA_IT_TE);
 8002508:	687b      	ldr	r3, [r7, #4]
 800250a:	681b      	ldr	r3, [r3, #0]
 800250c:	681a      	ldr	r2, [r3, #0]
 800250e:	687b      	ldr	r3, [r7, #4]
 8002510:	681b      	ldr	r3, [r3, #0]
 8002512:	f022 0204 	bic.w	r2, r2, #4
 8002516:	601a      	str	r2, [r3, #0]
      
      /* Clear the transfer error flag */
      regs->IFCR = DMA_FLAG_TEIF0_4 << hdma->StreamIndex;
 8002518:	687b      	ldr	r3, [r7, #4]
 800251a:	6ddb      	ldr	r3, [r3, #92]	; 0x5c
 800251c:	2208      	movs	r2, #8
 800251e:	409a      	lsls	r2, r3
 8002520:	693b      	ldr	r3, [r7, #16]
 8002522:	609a      	str	r2, [r3, #8]
      
      /* Update error code */
      hdma->ErrorCode |= HAL_DMA_ERROR_TE;
 8002524:	687b      	ldr	r3, [r7, #4]
 8002526:	6d5b      	ldr	r3, [r3, #84]	; 0x54
 8002528:	f043 0201 	orr.w	r2, r3, #1
 800252c:	687b      	ldr	r3, [r7, #4]
 800252e:	655a      	str	r2, [r3, #84]	; 0x54
    }
  }
  /* FIFO Error Interrupt management ******************************************/
  if ((tmpisr & (DMA_FLAG_FEIF0_4 << hdma->StreamIndex)) != RESET)
 8002530:	687b      	ldr	r3, [r7, #4]
 8002532:	6ddb      	ldr	r3, [r3, #92]	; 0x5c
 8002534:	2201      	movs	r2, #1
 8002536:	409a      	lsls	r2, r3
 8002538:	68fb      	ldr	r3, [r7, #12]
 800253a:	4013      	ands	r3, r2
 800253c:	2b00      	cmp	r3, #0
 800253e:	d012      	beq.n	8002566 <HAL_DMA_IRQHandler+0xa2>
  {
    if(__HAL_DMA_GET_IT_SOURCE(hdma, DMA_IT_FE) != RESET)
 8002540:	687b      	ldr	r3, [r7, #4]
 8002542:	681b      	ldr	r3, [r3, #0]
 8002544:	695b      	ldr	r3, [r3, #20]
 8002546:	f003 0380 	and.w	r3, r3, #128	; 0x80
 800254a:	2b00      	cmp	r3, #0
 800254c:	d00b      	beq.n	8002566 <HAL_DMA_IRQHandler+0xa2>
    {
      /* Clear the FIFO error flag */
      regs->IFCR = DMA_FLAG_FEIF0_4 << hdma->StreamIndex;
 800254e:	687b      	ldr	r3, [r7, #4]
 8002550:	6ddb      	ldr	r3, [r3, #92]	; 0x5c
 8002552:	2201      	movs	r2, #1
 8002554:	409a      	lsls	r2, r3
 8002556:	693b      	ldr	r3, [r7, #16]
 8002558:	609a      	str	r2, [r3, #8]

      /* Update error code */
      hdma->ErrorCode |= HAL_DMA_ERROR_FE;
 800255a:	687b      	ldr	r3, [r7, #4]
 800255c:	6d5b      	ldr	r3, [r3, #84]	; 0x54
 800255e:	f043 0202 	orr.w	r2, r3, #2
 8002562:	687b      	ldr	r3, [r7, #4]
 8002564:	655a      	str	r2, [r3, #84]	; 0x54
    }
  }
  /* Direct Mode Error Interrupt management ***********************************/
  if ((tmpisr & (DMA_FLAG_DMEIF0_4 << hdma->StreamIndex)) != RESET)
 8002566:	687b      	ldr	r3, [r7, #4]
 8002568:	6ddb      	ldr	r3, [r3, #92]	; 0x5c
 800256a:	2204      	movs	r2, #4
 800256c:	409a      	lsls	r2, r3
 800256e:	68fb      	ldr	r3, [r7, #12]
 8002570:	4013      	ands	r3, r2
 8002572:	2b00      	cmp	r3, #0
 8002574:	d012      	beq.n	800259c <HAL_DMA_IRQHandler+0xd8>
  {
    if(__HAL_DMA_GET_IT_SOURCE(hdma, DMA_IT_DME) != RESET)
 8002576:	687b      	ldr	r3, [r7, #4]
 8002578:	681b      	ldr	r3, [r3, #0]
 800257a:	681b      	ldr	r3, [r3, #0]
 800257c:	f003 0302 	and.w	r3, r3, #2
 8002580:	2b00      	cmp	r3, #0
 8002582:	d00b      	beq.n	800259c <HAL_DMA_IRQHandler+0xd8>
    {
      /* Clear the direct mode error flag */
      regs->IFCR = DMA_FLAG_DMEIF0_4 << hdma->StreamIndex;
 8002584:	687b      	ldr	r3, [r7, #4]
 8002586:	6ddb      	ldr	r3, [r3, #92]	; 0x5c
 8002588:	2204      	movs	r2, #4
 800258a:	409a      	lsls	r2, r3
 800258c:	693b      	ldr	r3, [r7, #16]
 800258e:	609a      	str	r2, [r3, #8]

      /* Update error code */
      hdma->ErrorCode |= HAL_DMA_ERROR_DME;
 8002590:	687b      	ldr	r3, [r7, #4]
 8002592:	6d5b      	ldr	r3, [r3, #84]	; 0x54
 8002594:	f043 0204 	orr.w	r2, r3, #4
 8002598:	687b      	ldr	r3, [r7, #4]
 800259a:	655a      	str	r2, [r3, #84]	; 0x54
    }
  }
  /* Half Transfer Complete Interrupt management ******************************/
  if ((tmpisr & (DMA_FLAG_HTIF0_4 << hdma->StreamIndex)) != RESET)
 800259c:	687b      	ldr	r3, [r7, #4]
 800259e:	6ddb      	ldr	r3, [r3, #92]	; 0x5c
 80025a0:	2210      	movs	r2, #16
 80025a2:	409a      	lsls	r2, r3
 80025a4:	68fb      	ldr	r3, [r7, #12]
 80025a6:	4013      	ands	r3, r2
 80025a8:	2b00      	cmp	r3, #0
 80025aa:	d043      	beq.n	8002634 <HAL_DMA_IRQHandler+0x170>
  {
    if(__HAL_DMA_GET_IT_SOURCE(hdma, DMA_IT_HT) != RESET)
 80025ac:	687b      	ldr	r3, [r7, #4]
 80025ae:	681b      	ldr	r3, [r3, #0]
 80025b0:	681b      	ldr	r3, [r3, #0]
 80025b2:	f003 0308 	and.w	r3, r3, #8
 80025b6:	2b00      	cmp	r3, #0
 80025b8:	d03c      	beq.n	8002634 <HAL_DMA_IRQHandler+0x170>
    {
      /* Clear the half transfer complete flag */
      regs->IFCR = DMA_FLAG_HTIF0_4 << hdma->StreamIndex;
 80025ba:	687b      	ldr	r3, [r7, #4]
 80025bc:	6ddb      	ldr	r3, [r3, #92]	; 0x5c
 80025be:	2210      	movs	r2, #16
 80025c0:	409a      	lsls	r2, r3
 80025c2:	693b      	ldr	r3, [r7, #16]
 80025c4:	609a      	str	r2, [r3, #8]
      
      /* Multi_Buffering mode enabled */
      if(((hdma->Instance->CR) & (uint32_t)(DMA_SxCR_DBM)) != RESET)
 80025c6:	687b      	ldr	r3, [r7, #4]
 80025c8:	681b      	ldr	r3, [r3, #0]
 80025ca:	681b      	ldr	r3, [r3, #0]
 80025cc:	f403 2380 	and.w	r3, r3, #262144	; 0x40000
 80025d0:	2b00      	cmp	r3, #0
 80025d2:	d018      	beq.n	8002606 <HAL_DMA_IRQHandler+0x142>
      {
        /* Current memory buffer used is Memory 0 */
        if((hdma->Instance->CR & DMA_SxCR_CT) == RESET)
 80025d4:	687b      	ldr	r3, [r7, #4]
 80025d6:	681b      	ldr	r3, [r3, #0]
 80025d8:	681b      	ldr	r3, [r3, #0]
 80025da:	f403 2300 	and.w	r3, r3, #524288	; 0x80000
 80025de:	2b00      	cmp	r3, #0
 80025e0:	d108      	bne.n	80025f4 <HAL_DMA_IRQHandler+0x130>
        {
          if(hdma->XferHalfCpltCallback != NULL)
 80025e2:	687b      	ldr	r3, [r7, #4]
 80025e4:	6c1b      	ldr	r3, [r3, #64]	; 0x40
 80025e6:	2b00      	cmp	r3, #0
 80025e8:	d024      	beq.n	8002634 <HAL_DMA_IRQHandler+0x170>
          {
            /* Half transfer callback */
            hdma->XferHalfCpltCallback(hdma);
 80025ea:	687b      	ldr	r3, [r7, #4]
 80025ec:	6c1b      	ldr	r3, [r3, #64]	; 0x40
 80025ee:	6878      	ldr	r0, [r7, #4]
 80025f0:	4798      	blx	r3
 80025f2:	e01f      	b.n	8002634 <HAL_DMA_IRQHandler+0x170>
          }
        }
        /* Current memory buffer used is Memory 1 */
        else
        {
          if(hdma->XferM1HalfCpltCallback != NULL)
 80025f4:	687b      	ldr	r3, [r7, #4]
 80025f6:	6c9b      	ldr	r3, [r3, #72]	; 0x48
 80025f8:	2b00      	cmp	r3, #0
 80025fa:	d01b      	beq.n	8002634 <HAL_DMA_IRQHandler+0x170>
          {
            /* Half transfer callback */
            hdma->XferM1HalfCpltCallback(hdma);
 80025fc:	687b      	ldr	r3, [r7, #4]
 80025fe:	6c9b      	ldr	r3, [r3, #72]	; 0x48
 8002600:	6878      	ldr	r0, [r7, #4]
 8002602:	4798      	blx	r3
 8002604:	e016      	b.n	8002634 <HAL_DMA_IRQHandler+0x170>
        }
      }
      else
      {
        /* Disable the half transfer interrupt if the DMA mode is not CIRCULAR */
        if((hdma->Instance->CR & DMA_SxCR_CIRC) == RESET)
 8002606:	687b      	ldr	r3, [r7, #4]
 8002608:	681b      	ldr	r3, [r3, #0]
 800260a:	681b      	ldr	r3, [r3, #0]
 800260c:	f403 7380 	and.w	r3, r3, #256	; 0x100
 8002610:	2b00      	cmp	r3, #0
 8002612:	d107      	bne.n	8002624 <HAL_DMA_IRQHandler+0x160>
        {
          /* Disable the half transfer interrupt */
          hdma->Instance->CR  &= ~(DMA_IT_HT);
 8002614:	687b      	ldr	r3, [r7, #4]
 8002616:	681b      	ldr	r3, [r3, #0]
 8002618:	681a      	ldr	r2, [r3, #0]
 800261a:	687b      	ldr	r3, [r7, #4]
 800261c:	681b      	ldr	r3, [r3, #0]
 800261e:	f022 0208 	bic.w	r2, r2, #8
 8002622:	601a      	str	r2, [r3, #0]
        }
        
        if(hdma->XferHalfCpltCallback != NULL)
 8002624:	687b      	ldr	r3, [r7, #4]
 8002626:	6c1b      	ldr	r3, [r3, #64]	; 0x40
 8002628:	2b00      	cmp	r3, #0
 800262a:	d003      	beq.n	8002634 <HAL_DMA_IRQHandler+0x170>
        {
          /* Half transfer callback */
          hdma->XferHalfCpltCallback(hdma);
 800262c:	687b      	ldr	r3, [r7, #4]
 800262e:	6c1b      	ldr	r3, [r3, #64]	; 0x40
 8002630:	6878      	ldr	r0, [r7, #4]
 8002632:	4798      	blx	r3
        }
      }
    }
  }
  /* Transfer Complete Interrupt management ***********************************/
  if ((tmpisr & (DMA_FLAG_TCIF0_4 << hdma->StreamIndex)) != RESET)
 8002634:	687b      	ldr	r3, [r7, #4]
 8002636:	6ddb      	ldr	r3, [r3, #92]	; 0x5c
 8002638:	2220      	movs	r2, #32
 800263a:	409a      	lsls	r2, r3
 800263c:	68fb      	ldr	r3, [r7, #12]
 800263e:	4013      	ands	r3, r2
 8002640:	2b00      	cmp	r3, #0
 8002642:	f000 808e 	beq.w	8002762 <HAL_DMA_IRQHandler+0x29e>
  {
    if(__HAL_DMA_GET_IT_SOURCE(hdma, DMA_IT_TC) != RESET)
 8002646:	687b      	ldr	r3, [r7, #4]
 8002648:	681b      	ldr	r3, [r3, #0]
 800264a:	681b      	ldr	r3, [r3, #0]
 800264c:	f003 0310 	and.w	r3, r3, #16
 8002650:	2b00      	cmp	r3, #0
 8002652:	f000 8086 	beq.w	8002762 <HAL_DMA_IRQHandler+0x29e>
    {
      /* Clear the transfer complete flag */
      regs->IFCR = DMA_FLAG_TCIF0_4 << hdma->StreamIndex;
 8002656:	687b      	ldr	r3, [r7, #4]
 8002658:	6ddb      	ldr	r3, [r3, #92]	; 0x5c
 800265a:	2220      	movs	r2, #32
 800265c:	409a      	lsls	r2, r3
 800265e:	693b      	ldr	r3, [r7, #16]
 8002660:	609a      	str	r2, [r3, #8]
      
      if(HAL_DMA_STATE_ABORT == hdma->State)
 8002662:	687b      	ldr	r3, [r7, #4]
 8002664:	f893 3035 	ldrb.w	r3, [r3, #53]	; 0x35
 8002668:	b2db      	uxtb	r3, r3
 800266a:	2b05      	cmp	r3, #5
 800266c:	d136      	bne.n	80026dc <HAL_DMA_IRQHandler+0x218>
      {
        /* Disable all the transfer interrupts */
        hdma->Instance->CR  &= ~(DMA_IT_TC | DMA_IT_TE | DMA_IT_DME);
 800266e:	687b      	ldr	r3, [r7, #4]
 8002670:	681b      	ldr	r3, [r3, #0]
 8002672:	681a      	ldr	r2, [r3, #0]
 8002674:	687b      	ldr	r3, [r7, #4]
 8002676:	681b      	ldr	r3, [r3, #0]
 8002678:	f022 0216 	bic.w	r2, r2, #22
 800267c:	601a      	str	r2, [r3, #0]
        hdma->Instance->FCR &= ~(DMA_IT_FE);
 800267e:	687b      	ldr	r3, [r7, #4]
 8002680:	681b      	ldr	r3, [r3, #0]
 8002682:	695a      	ldr	r2, [r3, #20]
 8002684:	687b      	ldr	r3, [r7, #4]
 8002686:	681b      	ldr	r3, [r3, #0]
 8002688:	f022 0280 	bic.w	r2, r2, #128	; 0x80
 800268c:	615a      	str	r2, [r3, #20]
        
        if((hdma->XferHalfCpltCallback != NULL) || (hdma->XferM1HalfCpltCallback != NULL))
 800268e:	687b      	ldr	r3, [r7, #4]
 8002690:	6c1b      	ldr	r3, [r3, #64]	; 0x40
 8002692:	2b00      	cmp	r3, #0
 8002694:	d103      	bne.n	800269e <HAL_DMA_IRQHandler+0x1da>
 8002696:	687b      	ldr	r3, [r7, #4]
 8002698:	6c9b      	ldr	r3, [r3, #72]	; 0x48
 800269a:	2b00      	cmp	r3, #0
 800269c:	d007      	beq.n	80026ae <HAL_DMA_IRQHandler+0x1ea>
        {
          hdma->Instance->CR  &= ~(DMA_IT_HT);
 800269e:	687b      	ldr	r3, [r7, #4]
 80026a0:	681b      	ldr	r3, [r3, #0]
 80026a2:	681a      	ldr	r2, [r3, #0]
 80026a4:	687b      	ldr	r3, [r7, #4]
 80026a6:	681b      	ldr	r3, [r3, #0]
 80026a8:	f022 0208 	bic.w	r2, r2, #8
 80026ac:	601a      	str	r2, [r3, #0]
        }

        /* Clear all interrupt flags at correct offset within the register */
        regs->IFCR = 0x3FU << hdma->StreamIndex;
 80026ae:	687b      	ldr	r3, [r7, #4]
 80026b0:	6ddb      	ldr	r3, [r3, #92]	; 0x5c
 80026b2:	223f      	movs	r2, #63	; 0x3f
 80026b4:	409a      	lsls	r2, r3
 80026b6:	693b      	ldr	r3, [r7, #16]
 80026b8:	609a      	str	r2, [r3, #8]

        /* Process Unlocked */
        __HAL_UNLOCK(hdma);
 80026ba:	687b      	ldr	r3, [r7, #4]
 80026bc:	2200      	movs	r2, #0
 80026be:	f883 2034 	strb.w	r2, [r3, #52]	; 0x34

        /* Change the DMA state */
        hdma->State = HAL_DMA_STATE_READY;
 80026c2:	687b      	ldr	r3, [r7, #4]
 80026c4:	2201      	movs	r2, #1
 80026c6:	f883 2035 	strb.w	r2, [r3, #53]	; 0x35

        if(hdma->XferAbortCallback != NULL)
 80026ca:	687b      	ldr	r3, [r7, #4]
 80026cc:	6d1b      	ldr	r3, [r3, #80]	; 0x50
 80026ce:	2b00      	cmp	r3, #0
 80026d0:	d07d      	beq.n	80027ce <HAL_DMA_IRQHandler+0x30a>
        {
          hdma->XferAbortCallback(hdma);
 80026d2:	687b      	ldr	r3, [r7, #4]
 80026d4:	6d1b      	ldr	r3, [r3, #80]	; 0x50
 80026d6:	6878      	ldr	r0, [r7, #4]
 80026d8:	4798      	blx	r3
        }
        return;
 80026da:	e078      	b.n	80027ce <HAL_DMA_IRQHandler+0x30a>
      }

      if(((hdma->Instance->CR) & (uint32_t)(DMA_SxCR_DBM)) != RESET)
 80026dc:	687b      	ldr	r3, [r7, #4]
 80026de:	681b      	ldr	r3, [r3, #0]
 80026e0:	681b      	ldr	r3, [r3, #0]
 80026e2:	f403 2380 	and.w	r3, r3, #262144	; 0x40000
 80026e6:	2b00      	cmp	r3, #0
 80026e8:	d01c      	beq.n	8002724 <HAL_DMA_IRQHandler+0x260>
      {
        /* Current memory buffer used is Memory 0 */
        if((hdma->Instance->CR & DMA_SxCR_CT) == RESET)
 80026ea:	687b      	ldr	r3, [r7, #4]
 80026ec:	681b      	ldr	r3, [r3, #0]
 80026ee:	681b      	ldr	r3, [r3, #0]
 80026f0:	f403 2300 	and.w	r3, r3, #524288	; 0x80000
 80026f4:	2b00      	cmp	r3, #0
 80026f6:	d108      	bne.n	800270a <HAL_DMA_IRQHandler+0x246>
        {
          if(hdma->XferM1CpltCallback != NULL)
 80026f8:	687b      	ldr	r3, [r7, #4]
 80026fa:	6c5b      	ldr	r3, [r3, #68]	; 0x44
 80026fc:	2b00      	cmp	r3, #0
 80026fe:	d030      	beq.n	8002762 <HAL_DMA_IRQHandler+0x29e>
          {
            /* Transfer complete Callback for memory1 */
            hdma->XferM1CpltCallback(hdma);
 8002700:	687b      	ldr	r3, [r7, #4]
 8002702:	6c5b      	ldr	r3, [r3, #68]	; 0x44
 8002704:	6878      	ldr	r0, [r7, #4]
 8002706:	4798      	blx	r3
 8002708:	e02b      	b.n	8002762 <HAL_DMA_IRQHandler+0x29e>
          }
        }
        /* Current memory buffer used is Memory 1 */
        else
        {
          if(hdma->XferCpltCallback != NULL)
 800270a:	687b      	ldr	r3, [r7, #4]
 800270c:	6bdb      	ldr	r3, [r3, #60]	; 0x3c
 800270e:	2b00      	cmp	r3, #0
 8002710:	d027      	beq.n	8002762 <HAL_DMA_IRQHandler+0x29e>
          {
            /* Transfer complete Callback for memory0 */
            hdma->XferCpltCallback(hdma);
 8002712:	687b      	ldr	r3, [r7, #4]
 8002714:	6bdb      	ldr	r3, [r3, #60]	; 0x3c
 8002716:	6878      	ldr	r0, [r7, #4]
 8002718:	4798      	blx	r3
 800271a:	e022      	b.n	8002762 <HAL_DMA_IRQHandler+0x29e>
 800271c:	20000000 	.word	0x20000000
 8002720:	1b4e81b5 	.word	0x1b4e81b5
        }
      }
      /* Disable the transfer complete interrupt if the DMA mode is not CIRCULAR */
      else
      {
        if((hdma->Instance->CR & DMA_SxCR_CIRC) == RESET)
 8002724:	687b      	ldr	r3, [r7, #4]
 8002726:	681b      	ldr	r3, [r3, #0]
 8002728:	681b      	ldr	r3, [r3, #0]
 800272a:	f403 7380 	and.w	r3, r3, #256	; 0x100
 800272e:	2b00      	cmp	r3, #0
 8002730:	d10f      	bne.n	8002752 <HAL_DMA_IRQHandler+0x28e>
        {
          /* Disable the transfer complete interrupt */
          hdma->Instance->CR  &= ~(DMA_IT_TC);
 8002732:	687b      	ldr	r3, [r7, #4]
 8002734:	681b      	ldr	r3, [r3, #0]
 8002736:	681a      	ldr	r2, [r3, #0]
 8002738:	687b      	ldr	r3, [r7, #4]
 800273a:	681b      	ldr	r3, [r3, #0]
 800273c:	f022 0210 	bic.w	r2, r2, #16
 8002740:	601a      	str	r2, [r3, #0]

          /* Process Unlocked */
          __HAL_UNLOCK(hdma);
 8002742:	687b      	ldr	r3, [r7, #4]
 8002744:	2200      	movs	r2, #0
 8002746:	f883 2034 	strb.w	r2, [r3, #52]	; 0x34

          /* Change the DMA state */
          hdma->State = HAL_DMA_STATE_READY;
 800274a:	687b      	ldr	r3, [r7, #4]
 800274c:	2201      	movs	r2, #1
 800274e:	f883 2035 	strb.w	r2, [r3, #53]	; 0x35
        }

        if(hdma->XferCpltCallback != NULL)
 8002752:	687b      	ldr	r3, [r7, #4]
 8002754:	6bdb      	ldr	r3, [r3, #60]	; 0x3c
 8002756:	2b00      	cmp	r3, #0
 8002758:	d003      	beq.n	8002762 <HAL_DMA_IRQHandler+0x29e>
        {
          /* Transfer complete callback */
          hdma->XferCpltCallback(hdma);
 800275a:	687b      	ldr	r3, [r7, #4]
 800275c:	6bdb      	ldr	r3, [r3, #60]	; 0x3c
 800275e:	6878      	ldr	r0, [r7, #4]
 8002760:	4798      	blx	r3
      }
    }
  }
  
  /* manage error case */
  if(hdma->ErrorCode != HAL_DMA_ERROR_NONE)
 8002762:	687b      	ldr	r3, [r7, #4]
 8002764:	6d5b      	ldr	r3, [r3, #84]	; 0x54
 8002766:	2b00      	cmp	r3, #0
 8002768:	d032      	beq.n	80027d0 <HAL_DMA_IRQHandler+0x30c>
  {
    if((hdma->ErrorCode & HAL_DMA_ERROR_TE) != RESET)
 800276a:	687b      	ldr	r3, [r7, #4]
 800276c:	6d5b      	ldr	r3, [r3, #84]	; 0x54
 800276e:	f003 0301 	and.w	r3, r3, #1
 8002772:	2b00      	cmp	r3, #0
 8002774:	d022      	beq.n	80027bc <HAL_DMA_IRQHandler+0x2f8>
    {
      hdma->State = HAL_DMA_STATE_ABORT;
 8002776:	687b      	ldr	r3, [r7, #4]
 8002778:	2205      	movs	r2, #5
 800277a:	f883 2035 	strb.w	r2, [r3, #53]	; 0x35

      /* Disable the stream */
      __HAL_DMA_DISABLE(hdma);
 800277e:	687b      	ldr	r3, [r7, #4]
 8002780:	681b      	ldr	r3, [r3, #0]
 8002782:	681a      	ldr	r2, [r3, #0]
 8002784:	687b      	ldr	r3, [r7, #4]
 8002786:	681b      	ldr	r3, [r3, #0]
 8002788:	f022 0201 	bic.w	r2, r2, #1
 800278c:	601a      	str	r2, [r3, #0]

      do
      {
        if (++count > timeout)
 800278e:	68bb      	ldr	r3, [r7, #8]
 8002790:	3301      	adds	r3, #1
 8002792:	60bb      	str	r3, [r7, #8]
 8002794:	697a      	ldr	r2, [r7, #20]
 8002796:	429a      	cmp	r2, r3
 8002798:	d307      	bcc.n	80027aa <HAL_DMA_IRQHandler+0x2e6>
        {
          break;
        }
      }
      while((hdma->Instance->CR & DMA_SxCR_EN) != RESET);
 800279a:	687b      	ldr	r3, [r7, #4]
 800279c:	681b      	ldr	r3, [r3, #0]
 800279e:	681b      	ldr	r3, [r3, #0]
 80027a0:	f003 0301 	and.w	r3, r3, #1
 80027a4:	2b00      	cmp	r3, #0
 80027a6:	d1f2      	bne.n	800278e <HAL_DMA_IRQHandler+0x2ca>
 80027a8:	e000      	b.n	80027ac <HAL_DMA_IRQHandler+0x2e8>
          break;
 80027aa:	bf00      	nop

      /* Process Unlocked */
      __HAL_UNLOCK(hdma);
 80027ac:	687b      	ldr	r3, [r7, #4]
 80027ae:	2200      	movs	r2, #0
 80027b0:	f883 2034 	strb.w	r2, [r3, #52]	; 0x34

      /* Change the DMA state */
      hdma->State = HAL_DMA_STATE_READY;
 80027b4:	687b      	ldr	r3, [r7, #4]
 80027b6:	2201      	movs	r2, #1
 80027b8:	f883 2035 	strb.w	r2, [r3, #53]	; 0x35
    }

    if(hdma->XferErrorCallback != NULL)
 80027bc:	687b      	ldr	r3, [r7, #4]
 80027be:	6cdb      	ldr	r3, [r3, #76]	; 0x4c
 80027c0:	2b00      	cmp	r3, #0
 80027c2:	d005      	beq.n	80027d0 <HAL_DMA_IRQHandler+0x30c>
    {
      /* Transfer error callback */
      hdma->XferErrorCallback(hdma);
 80027c4:	687b      	ldr	r3, [r7, #4]
 80027c6:	6cdb      	ldr	r3, [r3, #76]	; 0x4c
 80027c8:	6878      	ldr	r0, [r7, #4]
 80027ca:	4798      	blx	r3
 80027cc:	e000      	b.n	80027d0 <HAL_DMA_IRQHandler+0x30c>
        return;
 80027ce:	bf00      	nop
    }
  }
}
 80027d0:	3718      	adds	r7, #24
 80027d2:	46bd      	mov	sp, r7
 80027d4:	bd80      	pop	{r7, pc}
 80027d6:	bf00      	nop

080027d8 <DMA_SetConfig>:
  * @param  DstAddress The destination memory Buffer address
  * @param  DataLength The length of data to be transferred from source to destination
  * @retval HAL status
  */
static void DMA_SetConfig(DMA_HandleTypeDef *hdma, uint32_t SrcAddress, uint32_t DstAddress, uint32_t DataLength)
{
 80027d8:	b480      	push	{r7}
 80027da:	b085      	sub	sp, #20
 80027dc:	af00      	add	r7, sp, #0
 80027de:	60f8      	str	r0, [r7, #12]
 80027e0:	60b9      	str	r1, [r7, #8]
 80027e2:	607a      	str	r2, [r7, #4]
 80027e4:	603b      	str	r3, [r7, #0]
  /* Clear DBM bit */
  hdma->Instance->CR &= (uint32_t)(~DMA_SxCR_DBM);
 80027e6:	68fb      	ldr	r3, [r7, #12]
 80027e8:	681b      	ldr	r3, [r3, #0]
 80027ea:	681a      	ldr	r2, [r3, #0]
 80027ec:	68fb      	ldr	r3, [r7, #12]
 80027ee:	681b      	ldr	r3, [r3, #0]
 80027f0:	f422 2280 	bic.w	r2, r2, #262144	; 0x40000
 80027f4:	601a      	str	r2, [r3, #0]

  /* Configure DMA Stream data length */
  hdma->Instance->NDTR = DataLength;
 80027f6:	68fb      	ldr	r3, [r7, #12]
 80027f8:	681b      	ldr	r3, [r3, #0]
 80027fa:	683a      	ldr	r2, [r7, #0]
 80027fc:	605a      	str	r2, [r3, #4]

  /* Memory to Peripheral */
  if((hdma->Init.Direction) == DMA_MEMORY_TO_PERIPH)
 80027fe:	68fb      	ldr	r3, [r7, #12]
 8002800:	689b      	ldr	r3, [r3, #8]
 8002802:	2b40      	cmp	r3, #64	; 0x40
 8002804:	d108      	bne.n	8002818 <DMA_SetConfig+0x40>
  {
    /* Configure DMA Stream destination address */
    hdma->Instance->PAR = DstAddress;
 8002806:	68fb      	ldr	r3, [r7, #12]
 8002808:	681b      	ldr	r3, [r3, #0]
 800280a:	687a      	ldr	r2, [r7, #4]
 800280c:	609a      	str	r2, [r3, #8]

    /* Configure DMA Stream source address */
    hdma->Instance->M0AR = SrcAddress;
 800280e:	68fb      	ldr	r3, [r7, #12]
 8002810:	681b      	ldr	r3, [r3, #0]
 8002812:	68ba      	ldr	r2, [r7, #8]
 8002814:	60da      	str	r2, [r3, #12]
    hdma->Instance->PAR = SrcAddress;

    /* Configure DMA Stream destination address */
    hdma->Instance->M0AR = DstAddress;
  }
}
 8002816:	e007      	b.n	8002828 <DMA_SetConfig+0x50>
    hdma->Instance->PAR = SrcAddress;
 8002818:	68fb      	ldr	r3, [r7, #12]
 800281a:	681b      	ldr	r3, [r3, #0]
 800281c:	68ba      	ldr	r2, [r7, #8]
 800281e:	609a      	str	r2, [r3, #8]
    hdma->Instance->M0AR = DstAddress;
 8002820:	68fb      	ldr	r3, [r7, #12]
 8002822:	681b      	ldr	r3, [r3, #0]
 8002824:	687a      	ldr	r2, [r7, #4]
 8002826:	60da      	str	r2, [r3, #12]
}
 8002828:	bf00      	nop
 800282a:	3714      	adds	r7, #20
 800282c:	46bd      	mov	sp, r7
 800282e:	f85d 7b04 	ldr.w	r7, [sp], #4
 8002832:	4770      	bx	lr

08002834 <DMA_CalcBaseAndBitshift>:
  * @param  hdma       pointer to a DMA_HandleTypeDef structure that contains
  *                     the configuration information for the specified DMA Stream. 
  * @retval Stream base address
  */
static uint32_t DMA_CalcBaseAndBitshift(DMA_HandleTypeDef *hdma)
{
 8002834:	b480      	push	{r7}
 8002836:	b085      	sub	sp, #20
 8002838:	af00      	add	r7, sp, #0
 800283a:	6078      	str	r0, [r7, #4]
  uint32_t stream_number = (((uint32_t)hdma->Instance & 0xFFU) - 16U) / 24U;
 800283c:	687b      	ldr	r3, [r7, #4]
 800283e:	681b      	ldr	r3, [r3, #0]
 8002840:	b2db      	uxtb	r3, r3
 8002842:	3b10      	subs	r3, #16
 8002844:	4a14      	ldr	r2, [pc, #80]	; (8002898 <DMA_CalcBaseAndBitshift+0x64>)
 8002846:	fba2 2303 	umull	r2, r3, r2, r3
 800284a:	091b      	lsrs	r3, r3, #4
 800284c:	60fb      	str	r3, [r7, #12]
  
  /* lookup table for necessary bitshift of flags within status registers */
  static const uint8_t flagBitshiftOffset[8U] = {0U, 6U, 16U, 22U, 0U, 6U, 16U, 22U};
  hdma->StreamIndex = flagBitshiftOffset[stream_number];
 800284e:	4a13      	ldr	r2, [pc, #76]	; (800289c <DMA_CalcBaseAndBitshift+0x68>)
 8002850:	68fb      	ldr	r3, [r7, #12]
 8002852:	4413      	add	r3, r2
 8002854:	781b      	ldrb	r3, [r3, #0]
 8002856:	461a      	mov	r2, r3
 8002858:	687b      	ldr	r3, [r7, #4]
 800285a:	65da      	str	r2, [r3, #92]	; 0x5c
  
  if (stream_number > 3U)
 800285c:	68fb      	ldr	r3, [r7, #12]
 800285e:	2b03      	cmp	r3, #3
 8002860:	d909      	bls.n	8002876 <DMA_CalcBaseAndBitshift+0x42>
  {
    /* return pointer to HISR and HIFCR */
    hdma->StreamBaseAddress = (((uint32_t)hdma->Instance & (uint32_t)(~0x3FFU)) + 4U);
 8002862:	687b      	ldr	r3, [r7, #4]
 8002864:	681b      	ldr	r3, [r3, #0]
 8002866:	f423 737f 	bic.w	r3, r3, #1020	; 0x3fc
 800286a:	f023 0303 	bic.w	r3, r3, #3
 800286e:	1d1a      	adds	r2, r3, #4
 8002870:	687b      	ldr	r3, [r7, #4]
 8002872:	659a      	str	r2, [r3, #88]	; 0x58
 8002874:	e007      	b.n	8002886 <DMA_CalcBaseAndBitshift+0x52>
  }
  else
  {
    /* return pointer to LISR and LIFCR */
    hdma->StreamBaseAddress = ((uint32_t)hdma->Instance & (uint32_t)(~0x3FFU));
 8002876:	687b      	ldr	r3, [r7, #4]
 8002878:	681b      	ldr	r3, [r3, #0]
 800287a:	f423 737f 	bic.w	r3, r3, #1020	; 0x3fc
 800287e:	f023 0303 	bic.w	r3, r3, #3
 8002882:	687a      	ldr	r2, [r7, #4]
 8002884:	6593      	str	r3, [r2, #88]	; 0x58
  }
  
  return hdma->StreamBaseAddress;
 8002886:	687b      	ldr	r3, [r7, #4]
 8002888:	6d9b      	ldr	r3, [r3, #88]	; 0x58
}
 800288a:	4618      	mov	r0, r3
 800288c:	3714      	adds	r7, #20
 800288e:	46bd      	mov	sp, r7
 8002890:	f85d 7b04 	ldr.w	r7, [sp], #4
 8002894:	4770      	bx	lr
 8002896:	bf00      	nop
 8002898:	aaaaaaab 	.word	0xaaaaaaab
 800289c:	0800621c 	.word	0x0800621c

080028a0 <DMA_CheckFifoParam>:
  * @param  hdma       pointer to a DMA_HandleTypeDef structure that contains
  *                     the configuration information for the specified DMA Stream. 
  * @retval HAL status
  */
static HAL_StatusTypeDef DMA_CheckFifoParam(DMA_HandleTypeDef *hdma)
{
 80028a0:	b480      	push	{r7}
 80028a2:	b085      	sub	sp, #20
 80028a4:	af00      	add	r7, sp, #0
 80028a6:	6078      	str	r0, [r7, #4]
  HAL_StatusTypeDef status = HAL_OK;
 80028a8:	2300      	movs	r3, #0
 80028aa:	73fb      	strb	r3, [r7, #15]
  uint32_t tmp = hdma->Init.FIFOThreshold;
 80028ac:	687b      	ldr	r3, [r7, #4]
 80028ae:	6a9b      	ldr	r3, [r3, #40]	; 0x28
 80028b0:	60bb      	str	r3, [r7, #8]
  
  /* Memory Data size equal to Byte */
  if(hdma->Init.MemDataAlignment == DMA_MDATAALIGN_BYTE)
 80028b2:	687b      	ldr	r3, [r7, #4]
 80028b4:	699b      	ldr	r3, [r3, #24]
 80028b6:	2b00      	cmp	r3, #0
 80028b8:	d11f      	bne.n	80028fa <DMA_CheckFifoParam+0x5a>
  {
    switch (tmp)
 80028ba:	68bb      	ldr	r3, [r7, #8]
 80028bc:	2b03      	cmp	r3, #3
 80028be:	d855      	bhi.n	800296c <DMA_CheckFifoParam+0xcc>
 80028c0:	a201      	add	r2, pc, #4	; (adr r2, 80028c8 <DMA_CheckFifoParam+0x28>)
 80028c2:	f852 f023 	ldr.w	pc, [r2, r3, lsl #2]
 80028c6:	bf00      	nop
 80028c8:	080028d9 	.word	0x080028d9
 80028cc:	080028eb 	.word	0x080028eb
 80028d0:	080028d9 	.word	0x080028d9
 80028d4:	0800296d 	.word	0x0800296d
    {
    case DMA_FIFO_THRESHOLD_1QUARTERFULL:
    case DMA_FIFO_THRESHOLD_3QUARTERSFULL:
      if ((hdma->Init.MemBurst & DMA_SxCR_MBURST_1) == DMA_SxCR_MBURST_1)
 80028d8:	687b      	ldr	r3, [r7, #4]
 80028da:	6adb      	ldr	r3, [r3, #44]	; 0x2c
 80028dc:	f003 7380 	and.w	r3, r3, #16777216	; 0x1000000
 80028e0:	2b00      	cmp	r3, #0
 80028e2:	d045      	beq.n	8002970 <DMA_CheckFifoParam+0xd0>
      {
        status = HAL_ERROR;
 80028e4:	2301      	movs	r3, #1
 80028e6:	73fb      	strb	r3, [r7, #15]
      }
      break;
 80028e8:	e042      	b.n	8002970 <DMA_CheckFifoParam+0xd0>
    case DMA_FIFO_THRESHOLD_HALFFULL:
      if (hdma->Init.MemBurst == DMA_MBURST_INC16)
 80028ea:	687b      	ldr	r3, [r7, #4]
 80028ec:	6adb      	ldr	r3, [r3, #44]	; 0x2c
 80028ee:	f1b3 7fc0 	cmp.w	r3, #25165824	; 0x1800000
 80028f2:	d13f      	bne.n	8002974 <DMA_CheckFifoParam+0xd4>
      {
        status = HAL_ERROR;
 80028f4:	2301      	movs	r3, #1
 80028f6:	73fb      	strb	r3, [r7, #15]
      }
      break;
 80028f8:	e03c      	b.n	8002974 <DMA_CheckFifoParam+0xd4>
      break;
    }
  }
  
  /* Memory Data size equal to Half-Word */
  else if (hdma->Init.MemDataAlignment == DMA_MDATAALIGN_HALFWORD)
 80028fa:	687b      	ldr	r3, [r7, #4]
 80028fc:	699b      	ldr	r3, [r3, #24]
 80028fe:	f5b3 5f00 	cmp.w	r3, #8192	; 0x2000
 8002902:	d121      	bne.n	8002948 <DMA_CheckFifoParam+0xa8>
  {
    switch (tmp)
 8002904:	68bb      	ldr	r3, [r7, #8]
 8002906:	2b03      	cmp	r3, #3
 8002908:	d836      	bhi.n	8002978 <DMA_CheckFifoParam+0xd8>
 800290a:	a201      	add	r2, pc, #4	; (adr r2, 8002910 <DMA_CheckFifoParam+0x70>)
 800290c:	f852 f023 	ldr.w	pc, [r2, r3, lsl #2]
 8002910:	08002921 	.word	0x08002921
 8002914:	08002927 	.word	0x08002927
 8002918:	08002921 	.word	0x08002921
 800291c:	08002939 	.word	0x08002939
    {
    case DMA_FIFO_THRESHOLD_1QUARTERFULL:
    case DMA_FIFO_THRESHOLD_3QUARTERSFULL:
      status = HAL_ERROR;
 8002920:	2301      	movs	r3, #1
 8002922:	73fb      	strb	r3, [r7, #15]
      break;
 8002924:	e02f      	b.n	8002986 <DMA_CheckFifoParam+0xe6>
    case DMA_FIFO_THRESHOLD_HALFFULL:
      if ((hdma->Init.MemBurst & DMA_SxCR_MBURST_1) == DMA_SxCR_MBURST_1)
 8002926:	687b      	ldr	r3, [r7, #4]
 8002928:	6adb      	ldr	r3, [r3, #44]	; 0x2c
 800292a:	f003 7380 	and.w	r3, r3, #16777216	; 0x1000000
 800292e:	2b00      	cmp	r3, #0
 8002930:	d024      	beq.n	800297c <DMA_CheckFifoParam+0xdc>
      {
        status = HAL_ERROR;
 8002932:	2301      	movs	r3, #1
 8002934:	73fb      	strb	r3, [r7, #15]
      }
      break;
 8002936:	e021      	b.n	800297c <DMA_CheckFifoParam+0xdc>
    case DMA_FIFO_THRESHOLD_FULL:
      if (hdma->Init.MemBurst == DMA_MBURST_INC16)
 8002938:	687b      	ldr	r3, [r7, #4]
 800293a:	6adb      	ldr	r3, [r3, #44]	; 0x2c
 800293c:	f1b3 7fc0 	cmp.w	r3, #25165824	; 0x1800000
 8002940:	d11e      	bne.n	8002980 <DMA_CheckFifoParam+0xe0>
      {
        status = HAL_ERROR;
 8002942:	2301      	movs	r3, #1
 8002944:	73fb      	strb	r3, [r7, #15]
      }
      break;   
 8002946:	e01b      	b.n	8002980 <DMA_CheckFifoParam+0xe0>
  }
  
  /* Memory Data size equal to Word */
  else
  {
    switch (tmp)
 8002948:	68bb      	ldr	r3, [r7, #8]
 800294a:	2b02      	cmp	r3, #2
 800294c:	d902      	bls.n	8002954 <DMA_CheckFifoParam+0xb4>
 800294e:	2b03      	cmp	r3, #3
 8002950:	d003      	beq.n	800295a <DMA_CheckFifoParam+0xba>
      {
        status = HAL_ERROR;
      }
      break;
    default:
      break;
 8002952:	e018      	b.n	8002986 <DMA_CheckFifoParam+0xe6>
      status = HAL_ERROR;
 8002954:	2301      	movs	r3, #1
 8002956:	73fb      	strb	r3, [r7, #15]
      break;
 8002958:	e015      	b.n	8002986 <DMA_CheckFifoParam+0xe6>
      if ((hdma->Init.MemBurst & DMA_SxCR_MBURST_1) == DMA_SxCR_MBURST_1)
 800295a:	687b      	ldr	r3, [r7, #4]
 800295c:	6adb      	ldr	r3, [r3, #44]	; 0x2c
 800295e:	f003 7380 	and.w	r3, r3, #16777216	; 0x1000000
 8002962:	2b00      	cmp	r3, #0
 8002964:	d00e      	beq.n	8002984 <DMA_CheckFifoParam+0xe4>
        status = HAL_ERROR;
 8002966:	2301      	movs	r3, #1
 8002968:	73fb      	strb	r3, [r7, #15]
      break;
 800296a:	e00b      	b.n	8002984 <DMA_CheckFifoParam+0xe4>
      break;
 800296c:	bf00      	nop
 800296e:	e00a      	b.n	8002986 <DMA_CheckFifoParam+0xe6>
      break;
 8002970:	bf00      	nop
 8002972:	e008      	b.n	8002986 <DMA_CheckFifoParam+0xe6>
      break;
 8002974:	bf00      	nop
 8002976:	e006      	b.n	8002986 <DMA_CheckFifoParam+0xe6>
      break;
 8002978:	bf00      	nop
 800297a:	e004      	b.n	8002986 <DMA_CheckFifoParam+0xe6>
      break;
 800297c:	bf00      	nop
 800297e:	e002      	b.n	8002986 <DMA_CheckFifoParam+0xe6>
      break;   
 8002980:	bf00      	nop
 8002982:	e000      	b.n	8002986 <DMA_CheckFifoParam+0xe6>
      break;
 8002984:	bf00      	nop
    }
  } 
  
  return status; 
 8002986:	7bfb      	ldrb	r3, [r7, #15]
}
 8002988:	4618      	mov	r0, r3
 800298a:	3714      	adds	r7, #20
 800298c:	46bd      	mov	sp, r7
 800298e:	f85d 7b04 	ldr.w	r7, [sp], #4
 8002992:	4770      	bx	lr

08002994 <HAL_GPIO_Init>:
  * @param  GPIO_Init pointer to a GPIO_InitTypeDef structure that contains
  *         the configuration information for the specified GPIO peripheral.
  * @retval None
  */
void HAL_GPIO_Init(GPIO_TypeDef  *GPIOx, GPIO_InitTypeDef *GPIO_Init)
{
 8002994:	b480      	push	{r7}
 8002996:	b089      	sub	sp, #36	; 0x24
 8002998:	af00      	add	r7, sp, #0
 800299a:	6078      	str	r0, [r7, #4]
 800299c:	6039      	str	r1, [r7, #0]
  uint32_t position;
  uint32_t ioposition = 0x00U;
 800299e:	2300      	movs	r3, #0
 80029a0:	617b      	str	r3, [r7, #20]
  uint32_t iocurrent = 0x00U;
 80029a2:	2300      	movs	r3, #0
 80029a4:	613b      	str	r3, [r7, #16]
  uint32_t temp = 0x00U;
 80029a6:	2300      	movs	r3, #0
 80029a8:	61bb      	str	r3, [r7, #24]
  assert_param(IS_GPIO_PIN(GPIO_Init->Pin));
  assert_param(IS_GPIO_MODE(GPIO_Init->Mode));
  assert_param(IS_GPIO_PULL(GPIO_Init->Pull));

  /* Configure the port pins */
  for(position = 0U; position < GPIO_NUMBER; position++)
 80029aa:	2300      	movs	r3, #0
 80029ac:	61fb      	str	r3, [r7, #28]
 80029ae:	e165      	b.n	8002c7c <HAL_GPIO_Init+0x2e8>
  {
    /* Get the IO position */
    ioposition = 0x01U << position;
 80029b0:	2201      	movs	r2, #1
 80029b2:	69fb      	ldr	r3, [r7, #28]
 80029b4:	fa02 f303 	lsl.w	r3, r2, r3
 80029b8:	617b      	str	r3, [r7, #20]
    /* Get the current IO position */
    iocurrent = (uint32_t)(GPIO_Init->Pin) & ioposition;
 80029ba:	683b      	ldr	r3, [r7, #0]
 80029bc:	681b      	ldr	r3, [r3, #0]
 80029be:	697a      	ldr	r2, [r7, #20]
 80029c0:	4013      	ands	r3, r2
 80029c2:	613b      	str	r3, [r7, #16]

    if(iocurrent == ioposition)
 80029c4:	693a      	ldr	r2, [r7, #16]
 80029c6:	697b      	ldr	r3, [r7, #20]
 80029c8:	429a      	cmp	r2, r3
 80029ca:	f040 8154 	bne.w	8002c76 <HAL_GPIO_Init+0x2e2>
    {
      /*--------------------- GPIO Mode Configuration ------------------------*/
      /* In case of Output or Alternate function mode selection */
      if((GPIO_Init->Mode == GPIO_MODE_OUTPUT_PP) || (GPIO_Init->Mode == GPIO_MODE_AF_PP) ||
 80029ce:	683b      	ldr	r3, [r7, #0]
 80029d0:	685b      	ldr	r3, [r3, #4]
 80029d2:	2b01      	cmp	r3, #1
 80029d4:	d00b      	beq.n	80029ee <HAL_GPIO_Init+0x5a>
 80029d6:	683b      	ldr	r3, [r7, #0]
 80029d8:	685b      	ldr	r3, [r3, #4]
 80029da:	2b02      	cmp	r3, #2
 80029dc:	d007      	beq.n	80029ee <HAL_GPIO_Init+0x5a>
         (GPIO_Init->Mode == GPIO_MODE_OUTPUT_OD) || (GPIO_Init->Mode == GPIO_MODE_AF_OD))
 80029de:	683b      	ldr	r3, [r7, #0]
 80029e0:	685b      	ldr	r3, [r3, #4]
      if((GPIO_Init->Mode == GPIO_MODE_OUTPUT_PP) || (GPIO_Init->Mode == GPIO_MODE_AF_PP) ||
 80029e2:	2b11      	cmp	r3, #17
 80029e4:	d003      	beq.n	80029ee <HAL_GPIO_Init+0x5a>
         (GPIO_Init->Mode == GPIO_MODE_OUTPUT_OD) || (GPIO_Init->Mode == GPIO_MODE_AF_OD))
 80029e6:	683b      	ldr	r3, [r7, #0]
 80029e8:	685b      	ldr	r3, [r3, #4]
 80029ea:	2b12      	cmp	r3, #18
 80029ec:	d130      	bne.n	8002a50 <HAL_GPIO_Init+0xbc>
      {
        /* Check the Speed parameter */
        assert_param(IS_GPIO_SPEED(GPIO_Init->Speed));
        /* Configure the IO Speed */
        temp = GPIOx->OSPEEDR; 
 80029ee:	687b      	ldr	r3, [r7, #4]
 80029f0:	689b      	ldr	r3, [r3, #8]
 80029f2:	61bb      	str	r3, [r7, #24]
        temp &= ~(GPIO_OSPEEDER_OSPEEDR0 << (position * 2U));
 80029f4:	69fb      	ldr	r3, [r7, #28]
 80029f6:	005b      	lsls	r3, r3, #1
 80029f8:	2203      	movs	r2, #3
 80029fa:	fa02 f303 	lsl.w	r3, r2, r3
 80029fe:	43db      	mvns	r3, r3
 8002a00:	69ba      	ldr	r2, [r7, #24]
 8002a02:	4013      	ands	r3, r2
 8002a04:	61bb      	str	r3, [r7, #24]
        temp |= (GPIO_Init->Speed << (position * 2U));
 8002a06:	683b      	ldr	r3, [r7, #0]
 8002a08:	68da      	ldr	r2, [r3, #12]
 8002a0a:	69fb      	ldr	r3, [r7, #28]
 8002a0c:	005b      	lsls	r3, r3, #1
 8002a0e:	fa02 f303 	lsl.w	r3, r2, r3
 8002a12:	69ba      	ldr	r2, [r7, #24]
 8002a14:	4313      	orrs	r3, r2
 8002a16:	61bb      	str	r3, [r7, #24]
        GPIOx->OSPEEDR = temp;
 8002a18:	687b      	ldr	r3, [r7, #4]
 8002a1a:	69ba      	ldr	r2, [r7, #24]
 8002a1c:	609a      	str	r2, [r3, #8]

        /* Configure the IO Output Type */
        temp = GPIOx->OTYPER;
 8002a1e:	687b      	ldr	r3, [r7, #4]
 8002a20:	685b      	ldr	r3, [r3, #4]
 8002a22:	61bb      	str	r3, [r7, #24]
        temp &= ~(GPIO_OTYPER_OT_0 << position) ;
 8002a24:	2201      	movs	r2, #1
 8002a26:	69fb      	ldr	r3, [r7, #28]
 8002a28:	fa02 f303 	lsl.w	r3, r2, r3
 8002a2c:	43db      	mvns	r3, r3
 8002a2e:	69ba      	ldr	r2, [r7, #24]
 8002a30:	4013      	ands	r3, r2
 8002a32:	61bb      	str	r3, [r7, #24]
        temp |= (((GPIO_Init->Mode & GPIO_OUTPUT_TYPE) >> 4U) << position);
 8002a34:	683b      	ldr	r3, [r7, #0]
 8002a36:	685b      	ldr	r3, [r3, #4]
 8002a38:	091b      	lsrs	r3, r3, #4
 8002a3a:	f003 0201 	and.w	r2, r3, #1
 8002a3e:	69fb      	ldr	r3, [r7, #28]
 8002a40:	fa02 f303 	lsl.w	r3, r2, r3
 8002a44:	69ba      	ldr	r2, [r7, #24]
 8002a46:	4313      	orrs	r3, r2
 8002a48:	61bb      	str	r3, [r7, #24]
        GPIOx->OTYPER = temp;
 8002a4a:	687b      	ldr	r3, [r7, #4]
 8002a4c:	69ba      	ldr	r2, [r7, #24]
 8002a4e:	605a      	str	r2, [r3, #4]
       }

      /* Activate the Pull-up or Pull down resistor for the current IO */
      temp = GPIOx->PUPDR;
 8002a50:	687b      	ldr	r3, [r7, #4]
 8002a52:	68db      	ldr	r3, [r3, #12]
 8002a54:	61bb      	str	r3, [r7, #24]
      temp &= ~(GPIO_PUPDR_PUPDR0 << (position * 2U));
 8002a56:	69fb      	ldr	r3, [r7, #28]
 8002a58:	005b      	lsls	r3, r3, #1
 8002a5a:	2203      	movs	r2, #3
 8002a5c:	fa02 f303 	lsl.w	r3, r2, r3
 8002a60:	43db      	mvns	r3, r3
 8002a62:	69ba      	ldr	r2, [r7, #24]
 8002a64:	4013      	ands	r3, r2
 8002a66:	61bb      	str	r3, [r7, #24]
      temp |= ((GPIO_Init->Pull) << (position * 2U));
 8002a68:	683b      	ldr	r3, [r7, #0]
 8002a6a:	689a      	ldr	r2, [r3, #8]
 8002a6c:	69fb      	ldr	r3, [r7, #28]
 8002a6e:	005b      	lsls	r3, r3, #1
 8002a70:	fa02 f303 	lsl.w	r3, r2, r3
 8002a74:	69ba      	ldr	r2, [r7, #24]
 8002a76:	4313      	orrs	r3, r2
 8002a78:	61bb      	str	r3, [r7, #24]
      GPIOx->PUPDR = temp;
 8002a7a:	687b      	ldr	r3, [r7, #4]
 8002a7c:	69ba      	ldr	r2, [r7, #24]
 8002a7e:	60da      	str	r2, [r3, #12]

      /* In case of Alternate function mode selection */
      if((GPIO_Init->Mode == GPIO_MODE_AF_PP) || (GPIO_Init->Mode == GPIO_MODE_AF_OD))
 8002a80:	683b      	ldr	r3, [r7, #0]
 8002a82:	685b      	ldr	r3, [r3, #4]
 8002a84:	2b02      	cmp	r3, #2
 8002a86:	d003      	beq.n	8002a90 <HAL_GPIO_Init+0xfc>
 8002a88:	683b      	ldr	r3, [r7, #0]
 8002a8a:	685b      	ldr	r3, [r3, #4]
 8002a8c:	2b12      	cmp	r3, #18
 8002a8e:	d123      	bne.n	8002ad8 <HAL_GPIO_Init+0x144>
      {
        /* Check the Alternate function parameter */
        assert_param(IS_GPIO_AF(GPIO_Init->Alternate));
        /* Configure Alternate function mapped with the current IO */
        temp = GPIOx->AFR[position >> 3U];
 8002a90:	69fb      	ldr	r3, [r7, #28]
 8002a92:	08da      	lsrs	r2, r3, #3
 8002a94:	687b      	ldr	r3, [r7, #4]
 8002a96:	3208      	adds	r2, #8
 8002a98:	f853 3022 	ldr.w	r3, [r3, r2, lsl #2]
 8002a9c:	61bb      	str	r3, [r7, #24]
        temp &= ~(0xFU << ((uint32_t)(position & 0x07U) * 4U)) ;
 8002a9e:	69fb      	ldr	r3, [r7, #28]
 8002aa0:	f003 0307 	and.w	r3, r3, #7
 8002aa4:	009b      	lsls	r3, r3, #2
 8002aa6:	220f      	movs	r2, #15
 8002aa8:	fa02 f303 	lsl.w	r3, r2, r3
 8002aac:	43db      	mvns	r3, r3
 8002aae:	69ba      	ldr	r2, [r7, #24]
 8002ab0:	4013      	ands	r3, r2
 8002ab2:	61bb      	str	r3, [r7, #24]
        temp |= ((uint32_t)(GPIO_Init->Alternate) << (((uint32_t)position & 0x07U) * 4U));
 8002ab4:	683b      	ldr	r3, [r7, #0]
 8002ab6:	691a      	ldr	r2, [r3, #16]
 8002ab8:	69fb      	ldr	r3, [r7, #28]
 8002aba:	f003 0307 	and.w	r3, r3, #7
 8002abe:	009b      	lsls	r3, r3, #2
 8002ac0:	fa02 f303 	lsl.w	r3, r2, r3
 8002ac4:	69ba      	ldr	r2, [r7, #24]
 8002ac6:	4313      	orrs	r3, r2
 8002ac8:	61bb      	str	r3, [r7, #24]
        GPIOx->AFR[position >> 3U] = temp;
 8002aca:	69fb      	ldr	r3, [r7, #28]
 8002acc:	08da      	lsrs	r2, r3, #3
 8002ace:	687b      	ldr	r3, [r7, #4]
 8002ad0:	3208      	adds	r2, #8
 8002ad2:	69b9      	ldr	r1, [r7, #24]
 8002ad4:	f843 1022 	str.w	r1, [r3, r2, lsl #2]
      }

      /* Configure IO Direction mode (Input, Output, Alternate or Analog) */
      temp = GPIOx->MODER;
 8002ad8:	687b      	ldr	r3, [r7, #4]
 8002ada:	681b      	ldr	r3, [r3, #0]
 8002adc:	61bb      	str	r3, [r7, #24]
      temp &= ~(GPIO_MODER_MODER0 << (position * 2U));
 8002ade:	69fb      	ldr	r3, [r7, #28]
 8002ae0:	005b      	lsls	r3, r3, #1
 8002ae2:	2203      	movs	r2, #3
 8002ae4:	fa02 f303 	lsl.w	r3, r2, r3
 8002ae8:	43db      	mvns	r3, r3
 8002aea:	69ba      	ldr	r2, [r7, #24]
 8002aec:	4013      	ands	r3, r2
 8002aee:	61bb      	str	r3, [r7, #24]
      temp |= ((GPIO_Init->Mode & GPIO_MODE) << (position * 2U));
 8002af0:	683b      	ldr	r3, [r7, #0]
 8002af2:	685b      	ldr	r3, [r3, #4]
 8002af4:	f003 0203 	and.w	r2, r3, #3
 8002af8:	69fb      	ldr	r3, [r7, #28]
 8002afa:	005b      	lsls	r3, r3, #1
 8002afc:	fa02 f303 	lsl.w	r3, r2, r3
 8002b00:	69ba      	ldr	r2, [r7, #24]
 8002b02:	4313      	orrs	r3, r2
 8002b04:	61bb      	str	r3, [r7, #24]
      GPIOx->MODER = temp;
 8002b06:	687b      	ldr	r3, [r7, #4]
 8002b08:	69ba      	ldr	r2, [r7, #24]
 8002b0a:	601a      	str	r2, [r3, #0]

      /*--------------------- EXTI Mode Configuration ------------------------*/
      /* Configure the External Interrupt or event for the current IO */
      if((GPIO_Init->Mode & EXTI_MODE) == EXTI_MODE)
 8002b0c:	683b      	ldr	r3, [r7, #0]
 8002b0e:	685b      	ldr	r3, [r3, #4]
 8002b10:	f003 5380 	and.w	r3, r3, #268435456	; 0x10000000
 8002b14:	2b00      	cmp	r3, #0
 8002b16:	f000 80ae 	beq.w	8002c76 <HAL_GPIO_Init+0x2e2>
      {
        /* Enable SYSCFG Clock */
        __HAL_RCC_SYSCFG_CLK_ENABLE();
 8002b1a:	2300      	movs	r3, #0
 8002b1c:	60fb      	str	r3, [r7, #12]
 8002b1e:	4b5c      	ldr	r3, [pc, #368]	; (8002c90 <HAL_GPIO_Init+0x2fc>)
 8002b20:	6c5b      	ldr	r3, [r3, #68]	; 0x44
 8002b22:	4a5b      	ldr	r2, [pc, #364]	; (8002c90 <HAL_GPIO_Init+0x2fc>)
 8002b24:	f443 4380 	orr.w	r3, r3, #16384	; 0x4000
 8002b28:	6453      	str	r3, [r2, #68]	; 0x44
 8002b2a:	4b59      	ldr	r3, [pc, #356]	; (8002c90 <HAL_GPIO_Init+0x2fc>)
 8002b2c:	6c5b      	ldr	r3, [r3, #68]	; 0x44
 8002b2e:	f403 4380 	and.w	r3, r3, #16384	; 0x4000
 8002b32:	60fb      	str	r3, [r7, #12]
 8002b34:	68fb      	ldr	r3, [r7, #12]

        temp = SYSCFG->EXTICR[position >> 2U];
 8002b36:	4a57      	ldr	r2, [pc, #348]	; (8002c94 <HAL_GPIO_Init+0x300>)
 8002b38:	69fb      	ldr	r3, [r7, #28]
 8002b3a:	089b      	lsrs	r3, r3, #2
 8002b3c:	3302      	adds	r3, #2
 8002b3e:	f852 3023 	ldr.w	r3, [r2, r3, lsl #2]
 8002b42:	61bb      	str	r3, [r7, #24]
        temp &= ~(0x0FU << (4U * (position & 0x03U)));
 8002b44:	69fb      	ldr	r3, [r7, #28]
 8002b46:	f003 0303 	and.w	r3, r3, #3
 8002b4a:	009b      	lsls	r3, r3, #2
 8002b4c:	220f      	movs	r2, #15
 8002b4e:	fa02 f303 	lsl.w	r3, r2, r3
 8002b52:	43db      	mvns	r3, r3
 8002b54:	69ba      	ldr	r2, [r7, #24]
 8002b56:	4013      	ands	r3, r2
 8002b58:	61bb      	str	r3, [r7, #24]
        temp |= ((uint32_t)(GPIO_GET_INDEX(GPIOx)) << (4U * (position & 0x03U)));
 8002b5a:	687b      	ldr	r3, [r7, #4]
 8002b5c:	4a4e      	ldr	r2, [pc, #312]	; (8002c98 <HAL_GPIO_Init+0x304>)
 8002b5e:	4293      	cmp	r3, r2
 8002b60:	d025      	beq.n	8002bae <HAL_GPIO_Init+0x21a>
 8002b62:	687b      	ldr	r3, [r7, #4]
 8002b64:	4a4d      	ldr	r2, [pc, #308]	; (8002c9c <HAL_GPIO_Init+0x308>)
 8002b66:	4293      	cmp	r3, r2
 8002b68:	d01f      	beq.n	8002baa <HAL_GPIO_Init+0x216>
 8002b6a:	687b      	ldr	r3, [r7, #4]
 8002b6c:	4a4c      	ldr	r2, [pc, #304]	; (8002ca0 <HAL_GPIO_Init+0x30c>)
 8002b6e:	4293      	cmp	r3, r2
 8002b70:	d019      	beq.n	8002ba6 <HAL_GPIO_Init+0x212>
 8002b72:	687b      	ldr	r3, [r7, #4]
 8002b74:	4a4b      	ldr	r2, [pc, #300]	; (8002ca4 <HAL_GPIO_Init+0x310>)
 8002b76:	4293      	cmp	r3, r2
 8002b78:	d013      	beq.n	8002ba2 <HAL_GPIO_Init+0x20e>
 8002b7a:	687b      	ldr	r3, [r7, #4]
 8002b7c:	4a4a      	ldr	r2, [pc, #296]	; (8002ca8 <HAL_GPIO_Init+0x314>)
 8002b7e:	4293      	cmp	r3, r2
 8002b80:	d00d      	beq.n	8002b9e <HAL_GPIO_Init+0x20a>
 8002b82:	687b      	ldr	r3, [r7, #4]
 8002b84:	4a49      	ldr	r2, [pc, #292]	; (8002cac <HAL_GPIO_Init+0x318>)
 8002b86:	4293      	cmp	r3, r2
 8002b88:	d007      	beq.n	8002b9a <HAL_GPIO_Init+0x206>
 8002b8a:	687b      	ldr	r3, [r7, #4]
 8002b8c:	4a48      	ldr	r2, [pc, #288]	; (8002cb0 <HAL_GPIO_Init+0x31c>)
 8002b8e:	4293      	cmp	r3, r2
 8002b90:	d101      	bne.n	8002b96 <HAL_GPIO_Init+0x202>
 8002b92:	2306      	movs	r3, #6
 8002b94:	e00c      	b.n	8002bb0 <HAL_GPIO_Init+0x21c>
 8002b96:	2307      	movs	r3, #7
 8002b98:	e00a      	b.n	8002bb0 <HAL_GPIO_Init+0x21c>
 8002b9a:	2305      	movs	r3, #5
 8002b9c:	e008      	b.n	8002bb0 <HAL_GPIO_Init+0x21c>
 8002b9e:	2304      	movs	r3, #4
 8002ba0:	e006      	b.n	8002bb0 <HAL_GPIO_Init+0x21c>
 8002ba2:	2303      	movs	r3, #3
 8002ba4:	e004      	b.n	8002bb0 <HAL_GPIO_Init+0x21c>
 8002ba6:	2302      	movs	r3, #2
 8002ba8:	e002      	b.n	8002bb0 <HAL_GPIO_Init+0x21c>
 8002baa:	2301      	movs	r3, #1
 8002bac:	e000      	b.n	8002bb0 <HAL_GPIO_Init+0x21c>
 8002bae:	2300      	movs	r3, #0
 8002bb0:	69fa      	ldr	r2, [r7, #28]
 8002bb2:	f002 0203 	and.w	r2, r2, #3
 8002bb6:	0092      	lsls	r2, r2, #2
 8002bb8:	4093      	lsls	r3, r2
 8002bba:	69ba      	ldr	r2, [r7, #24]
 8002bbc:	4313      	orrs	r3, r2
 8002bbe:	61bb      	str	r3, [r7, #24]
        SYSCFG->EXTICR[position >> 2U] = temp;
 8002bc0:	4934      	ldr	r1, [pc, #208]	; (8002c94 <HAL_GPIO_Init+0x300>)
 8002bc2:	69fb      	ldr	r3, [r7, #28]
 8002bc4:	089b      	lsrs	r3, r3, #2
 8002bc6:	3302      	adds	r3, #2
 8002bc8:	69ba      	ldr	r2, [r7, #24]
 8002bca:	f841 2023 	str.w	r2, [r1, r3, lsl #2]

        /* Clear EXTI line configuration */
        temp = EXTI->IMR;
 8002bce:	4b39      	ldr	r3, [pc, #228]	; (8002cb4 <HAL_GPIO_Init+0x320>)
 8002bd0:	681b      	ldr	r3, [r3, #0]
 8002bd2:	61bb      	str	r3, [r7, #24]
        temp &= ~((uint32_t)iocurrent);
 8002bd4:	693b      	ldr	r3, [r7, #16]
 8002bd6:	43db      	mvns	r3, r3
 8002bd8:	69ba      	ldr	r2, [r7, #24]
 8002bda:	4013      	ands	r3, r2
 8002bdc:	61bb      	str	r3, [r7, #24]
        if((GPIO_Init->Mode & GPIO_MODE_IT) == GPIO_MODE_IT)
 8002bde:	683b      	ldr	r3, [r7, #0]
 8002be0:	685b      	ldr	r3, [r3, #4]
 8002be2:	f403 3380 	and.w	r3, r3, #65536	; 0x10000
 8002be6:	2b00      	cmp	r3, #0
 8002be8:	d003      	beq.n	8002bf2 <HAL_GPIO_Init+0x25e>
        {
          temp |= iocurrent;
 8002bea:	69ba      	ldr	r2, [r7, #24]
 8002bec:	693b      	ldr	r3, [r7, #16]
 8002bee:	4313      	orrs	r3, r2
 8002bf0:	61bb      	str	r3, [r7, #24]
        }
        EXTI->IMR = temp;
 8002bf2:	4a30      	ldr	r2, [pc, #192]	; (8002cb4 <HAL_GPIO_Init+0x320>)
 8002bf4:	69bb      	ldr	r3, [r7, #24]
 8002bf6:	6013      	str	r3, [r2, #0]

        temp = EXTI->EMR;
 8002bf8:	4b2e      	ldr	r3, [pc, #184]	; (8002cb4 <HAL_GPIO_Init+0x320>)
 8002bfa:	685b      	ldr	r3, [r3, #4]
 8002bfc:	61bb      	str	r3, [r7, #24]
        temp &= ~((uint32_t)iocurrent);
 8002bfe:	693b      	ldr	r3, [r7, #16]
 8002c00:	43db      	mvns	r3, r3
 8002c02:	69ba      	ldr	r2, [r7, #24]
 8002c04:	4013      	ands	r3, r2
 8002c06:	61bb      	str	r3, [r7, #24]
        if((GPIO_Init->Mode & GPIO_MODE_EVT) == GPIO_MODE_EVT)
 8002c08:	683b      	ldr	r3, [r7, #0]
 8002c0a:	685b      	ldr	r3, [r3, #4]
 8002c0c:	f403 3300 	and.w	r3, r3, #131072	; 0x20000
 8002c10:	2b00      	cmp	r3, #0
 8002c12:	d003      	beq.n	8002c1c <HAL_GPIO_Init+0x288>
        {
          temp |= iocurrent;
 8002c14:	69ba      	ldr	r2, [r7, #24]
 8002c16:	693b      	ldr	r3, [r7, #16]
 8002c18:	4313      	orrs	r3, r2
 8002c1a:	61bb      	str	r3, [r7, #24]
        }
        EXTI->EMR = temp;
 8002c1c:	4a25      	ldr	r2, [pc, #148]	; (8002cb4 <HAL_GPIO_Init+0x320>)
 8002c1e:	69bb      	ldr	r3, [r7, #24]
 8002c20:	6053      	str	r3, [r2, #4]

        /* Clear Rising Falling edge configuration */
        temp = EXTI->RTSR;
 8002c22:	4b24      	ldr	r3, [pc, #144]	; (8002cb4 <HAL_GPIO_Init+0x320>)
 8002c24:	689b      	ldr	r3, [r3, #8]
 8002c26:	61bb      	str	r3, [r7, #24]
        temp &= ~((uint32_t)iocurrent);
 8002c28:	693b      	ldr	r3, [r7, #16]
 8002c2a:	43db      	mvns	r3, r3
 8002c2c:	69ba      	ldr	r2, [r7, #24]
 8002c2e:	4013      	ands	r3, r2
 8002c30:	61bb      	str	r3, [r7, #24]
        if((GPIO_Init->Mode & RISING_EDGE) == RISING_EDGE)
 8002c32:	683b      	ldr	r3, [r7, #0]
 8002c34:	685b      	ldr	r3, [r3, #4]
 8002c36:	f403 1380 	and.w	r3, r3, #1048576	; 0x100000
 8002c3a:	2b00      	cmp	r3, #0
 8002c3c:	d003      	beq.n	8002c46 <HAL_GPIO_Init+0x2b2>
        {
          temp |= iocurrent;
 8002c3e:	69ba      	ldr	r2, [r7, #24]
 8002c40:	693b      	ldr	r3, [r7, #16]
 8002c42:	4313      	orrs	r3, r2
 8002c44:	61bb      	str	r3, [r7, #24]
        }
        EXTI->RTSR = temp;
 8002c46:	4a1b      	ldr	r2, [pc, #108]	; (8002cb4 <HAL_GPIO_Init+0x320>)
 8002c48:	69bb      	ldr	r3, [r7, #24]
 8002c4a:	6093      	str	r3, [r2, #8]

        temp = EXTI->FTSR;
 8002c4c:	4b19      	ldr	r3, [pc, #100]	; (8002cb4 <HAL_GPIO_Init+0x320>)
 8002c4e:	68db      	ldr	r3, [r3, #12]
 8002c50:	61bb      	str	r3, [r7, #24]
        temp &= ~((uint32_t)iocurrent);
 8002c52:	693b      	ldr	r3, [r7, #16]
 8002c54:	43db      	mvns	r3, r3
 8002c56:	69ba      	ldr	r2, [r7, #24]
 8002c58:	4013      	ands	r3, r2
 8002c5a:	61bb      	str	r3, [r7, #24]
        if((GPIO_Init->Mode & FALLING_EDGE) == FALLING_EDGE)
 8002c5c:	683b      	ldr	r3, [r7, #0]
 8002c5e:	685b      	ldr	r3, [r3, #4]
 8002c60:	f403 1300 	and.w	r3, r3, #2097152	; 0x200000
 8002c64:	2b00      	cmp	r3, #0
 8002c66:	d003      	beq.n	8002c70 <HAL_GPIO_Init+0x2dc>
        {
          temp |= iocurrent;
 8002c68:	69ba      	ldr	r2, [r7, #24]
 8002c6a:	693b      	ldr	r3, [r7, #16]
 8002c6c:	4313      	orrs	r3, r2
 8002c6e:	61bb      	str	r3, [r7, #24]
        }
        EXTI->FTSR = temp;
 8002c70:	4a10      	ldr	r2, [pc, #64]	; (8002cb4 <HAL_GPIO_Init+0x320>)
 8002c72:	69bb      	ldr	r3, [r7, #24]
 8002c74:	60d3      	str	r3, [r2, #12]
  for(position = 0U; position < GPIO_NUMBER; position++)
 8002c76:	69fb      	ldr	r3, [r7, #28]
 8002c78:	3301      	adds	r3, #1
 8002c7a:	61fb      	str	r3, [r7, #28]
 8002c7c:	69fb      	ldr	r3, [r7, #28]
 8002c7e:	2b0f      	cmp	r3, #15
 8002c80:	f67f ae96 	bls.w	80029b0 <HAL_GPIO_Init+0x1c>
      }
    }
  }
}
 8002c84:	bf00      	nop
 8002c86:	3724      	adds	r7, #36	; 0x24
 8002c88:	46bd      	mov	sp, r7
 8002c8a:	f85d 7b04 	ldr.w	r7, [sp], #4
 8002c8e:	4770      	bx	lr
 8002c90:	40023800 	.word	0x40023800
 8002c94:	40013800 	.word	0x40013800
 8002c98:	40020000 	.word	0x40020000
 8002c9c:	40020400 	.word	0x40020400
 8002ca0:	40020800 	.word	0x40020800
 8002ca4:	40020c00 	.word	0x40020c00
 8002ca8:	40021000 	.word	0x40021000
 8002cac:	40021400 	.word	0x40021400
 8002cb0:	40021800 	.word	0x40021800
 8002cb4:	40013c00 	.word	0x40013c00

08002cb8 <HAL_GPIO_WritePin>:
  *            @arg GPIO_PIN_RESET: to clear the port pin
  *            @arg GPIO_PIN_SET: to set the port pin
  * @retval None
  */
void HAL_GPIO_WritePin(GPIO_TypeDef* GPIOx, uint16_t GPIO_Pin, GPIO_PinState PinState)
{
 8002cb8:	b480      	push	{r7}
 8002cba:	b083      	sub	sp, #12
 8002cbc:	af00      	add	r7, sp, #0
 8002cbe:	6078      	str	r0, [r7, #4]
 8002cc0:	460b      	mov	r3, r1
 8002cc2:	807b      	strh	r3, [r7, #2]
 8002cc4:	4613      	mov	r3, r2
 8002cc6:	707b      	strb	r3, [r7, #1]
  /* Check the parameters */
  assert_param(IS_GPIO_PIN(GPIO_Pin));
  assert_param(IS_GPIO_PIN_ACTION(PinState));

  if(PinState != GPIO_PIN_RESET)
 8002cc8:	787b      	ldrb	r3, [r7, #1]
 8002cca:	2b00      	cmp	r3, #0
 8002ccc:	d003      	beq.n	8002cd6 <HAL_GPIO_WritePin+0x1e>
  {
    GPIOx->BSRR = GPIO_Pin;
 8002cce:	887a      	ldrh	r2, [r7, #2]
 8002cd0:	687b      	ldr	r3, [r7, #4]
 8002cd2:	619a      	str	r2, [r3, #24]
  }
  else
  {
    GPIOx->BSRR = (uint32_t)GPIO_Pin << 16U;
  }
}
 8002cd4:	e003      	b.n	8002cde <HAL_GPIO_WritePin+0x26>
    GPIOx->BSRR = (uint32_t)GPIO_Pin << 16U;
 8002cd6:	887b      	ldrh	r3, [r7, #2]
 8002cd8:	041a      	lsls	r2, r3, #16
 8002cda:	687b      	ldr	r3, [r7, #4]
 8002cdc:	619a      	str	r2, [r3, #24]
}
 8002cde:	bf00      	nop
 8002ce0:	370c      	adds	r7, #12
 8002ce2:	46bd      	mov	sp, r7
 8002ce4:	f85d 7b04 	ldr.w	r7, [sp], #4
 8002ce8:	4770      	bx	lr
	...

08002cec <HAL_PWREx_EnableOverDrive>:
  *         During the Over-drive switch activation, no peripheral clocks should be enabled.   
  *         The peripheral clocks must be enabled once the Over-drive mode is activated.   
  * @retval HAL status
  */
HAL_StatusTypeDef HAL_PWREx_EnableOverDrive(void)
{
 8002cec:	b580      	push	{r7, lr}
 8002cee:	b082      	sub	sp, #8
 8002cf0:	af00      	add	r7, sp, #0
  uint32_t tickstart = 0U;
 8002cf2:	2300      	movs	r3, #0
 8002cf4:	607b      	str	r3, [r7, #4]

  __HAL_RCC_PWR_CLK_ENABLE();
 8002cf6:	2300      	movs	r3, #0
 8002cf8:	603b      	str	r3, [r7, #0]
 8002cfa:	4b20      	ldr	r3, [pc, #128]	; (8002d7c <HAL_PWREx_EnableOverDrive+0x90>)
 8002cfc:	6c1b      	ldr	r3, [r3, #64]	; 0x40
 8002cfe:	4a1f      	ldr	r2, [pc, #124]	; (8002d7c <HAL_PWREx_EnableOverDrive+0x90>)
 8002d00:	f043 5380 	orr.w	r3, r3, #268435456	; 0x10000000
 8002d04:	6413      	str	r3, [r2, #64]	; 0x40
 8002d06:	4b1d      	ldr	r3, [pc, #116]	; (8002d7c <HAL_PWREx_EnableOverDrive+0x90>)
 8002d08:	6c1b      	ldr	r3, [r3, #64]	; 0x40
 8002d0a:	f003 5380 	and.w	r3, r3, #268435456	; 0x10000000
 8002d0e:	603b      	str	r3, [r7, #0]
 8002d10:	683b      	ldr	r3, [r7, #0]
  
  /* Enable the Over-drive to extend the clock frequency to 180 Mhz */
  __HAL_PWR_OVERDRIVE_ENABLE();
 8002d12:	4b1b      	ldr	r3, [pc, #108]	; (8002d80 <HAL_PWREx_EnableOverDrive+0x94>)
 8002d14:	2201      	movs	r2, #1
 8002d16:	601a      	str	r2, [r3, #0]

  /* Get tick */
  tickstart = HAL_GetTick();
 8002d18:	f7fe fd94 	bl	8001844 <HAL_GetTick>
 8002d1c:	6078      	str	r0, [r7, #4]

  while(!__HAL_PWR_GET_FLAG(PWR_FLAG_ODRDY))
 8002d1e:	e009      	b.n	8002d34 <HAL_PWREx_EnableOverDrive+0x48>
  {
    if((HAL_GetTick() - tickstart) > PWR_OVERDRIVE_TIMEOUT_VALUE)
 8002d20:	f7fe fd90 	bl	8001844 <HAL_GetTick>
 8002d24:	4602      	mov	r2, r0
 8002d26:	687b      	ldr	r3, [r7, #4]
 8002d28:	1ad3      	subs	r3, r2, r3
 8002d2a:	f5b3 7f7a 	cmp.w	r3, #1000	; 0x3e8
 8002d2e:	d901      	bls.n	8002d34 <HAL_PWREx_EnableOverDrive+0x48>
    {
      return HAL_TIMEOUT;
 8002d30:	2303      	movs	r3, #3
 8002d32:	e01f      	b.n	8002d74 <HAL_PWREx_EnableOverDrive+0x88>
  while(!__HAL_PWR_GET_FLAG(PWR_FLAG_ODRDY))
 8002d34:	4b13      	ldr	r3, [pc, #76]	; (8002d84 <HAL_PWREx_EnableOverDrive+0x98>)
 8002d36:	685b      	ldr	r3, [r3, #4]
 8002d38:	f403 3380 	and.w	r3, r3, #65536	; 0x10000
 8002d3c:	f5b3 3f80 	cmp.w	r3, #65536	; 0x10000
 8002d40:	d1ee      	bne.n	8002d20 <HAL_PWREx_EnableOverDrive+0x34>
    }
  }
  
  /* Enable the Over-drive switch */
  __HAL_PWR_OVERDRIVESWITCHING_ENABLE();
 8002d42:	4b11      	ldr	r3, [pc, #68]	; (8002d88 <HAL_PWREx_EnableOverDrive+0x9c>)
 8002d44:	2201      	movs	r2, #1
 8002d46:	601a      	str	r2, [r3, #0]

  /* Get tick */
  tickstart = HAL_GetTick();
 8002d48:	f7fe fd7c 	bl	8001844 <HAL_GetTick>
 8002d4c:	6078      	str	r0, [r7, #4]

  while(!__HAL_PWR_GET_FLAG(PWR_FLAG_ODSWRDY))
 8002d4e:	e009      	b.n	8002d64 <HAL_PWREx_EnableOverDrive+0x78>
  {
    if((HAL_GetTick() - tickstart ) > PWR_OVERDRIVE_TIMEOUT_VALUE)
 8002d50:	f7fe fd78 	bl	8001844 <HAL_GetTick>
 8002d54:	4602      	mov	r2, r0
 8002d56:	687b      	ldr	r3, [r7, #4]
 8002d58:	1ad3      	subs	r3, r2, r3
 8002d5a:	f5b3 7f7a 	cmp.w	r3, #1000	; 0x3e8
 8002d5e:	d901      	bls.n	8002d64 <HAL_PWREx_EnableOverDrive+0x78>
    {
      return HAL_TIMEOUT;
 8002d60:	2303      	movs	r3, #3
 8002d62:	e007      	b.n	8002d74 <HAL_PWREx_EnableOverDrive+0x88>
  while(!__HAL_PWR_GET_FLAG(PWR_FLAG_ODSWRDY))
 8002d64:	4b07      	ldr	r3, [pc, #28]	; (8002d84 <HAL_PWREx_EnableOverDrive+0x98>)
 8002d66:	685b      	ldr	r3, [r3, #4]
 8002d68:	f403 3300 	and.w	r3, r3, #131072	; 0x20000
 8002d6c:	f5b3 3f00 	cmp.w	r3, #131072	; 0x20000
 8002d70:	d1ee      	bne.n	8002d50 <HAL_PWREx_EnableOverDrive+0x64>
    }
  } 
  return HAL_OK;
 8002d72:	2300      	movs	r3, #0
}
 8002d74:	4618      	mov	r0, r3
 8002d76:	3708      	adds	r7, #8
 8002d78:	46bd      	mov	sp, r7
 8002d7a:	bd80      	pop	{r7, pc}
 8002d7c:	40023800 	.word	0x40023800
 8002d80:	420e0040 	.word	0x420e0040
 8002d84:	40007000 	.word	0x40007000
 8002d88:	420e0044 	.word	0x420e0044

08002d8c <HAL_RCC_ClockConfig>:
  *         HPRE[3:0] bits to ensure that HCLK not exceed the maximum allowed frequency
  *         (for more details refer to section above "Initialization/de-initialization functions")
  * @retval None
  */
HAL_StatusTypeDef HAL_RCC_ClockConfig(RCC_ClkInitTypeDef  *RCC_ClkInitStruct, uint32_t FLatency)
{
 8002d8c:	b580      	push	{r7, lr}
 8002d8e:	b084      	sub	sp, #16
 8002d90:	af00      	add	r7, sp, #0
 8002d92:	6078      	str	r0, [r7, #4]
 8002d94:	6039      	str	r1, [r7, #0]
  uint32_t tickstart;

  /* Check Null pointer */
  if(RCC_ClkInitStruct == NULL)
 8002d96:	687b      	ldr	r3, [r7, #4]
 8002d98:	2b00      	cmp	r3, #0
 8002d9a:	d101      	bne.n	8002da0 <HAL_RCC_ClockConfig+0x14>
  {
    return HAL_ERROR;
 8002d9c:	2301      	movs	r3, #1
 8002d9e:	e0cc      	b.n	8002f3a <HAL_RCC_ClockConfig+0x1ae>
  /* To correctly read data from FLASH memory, the number of wait states (LATENCY)
    must be correctly programmed according to the frequency of the CPU clock
    (HCLK) and the supply voltage of the device. */

  /* Increasing the number of wait states because of higher CPU frequency */
  if(FLatency > __HAL_FLASH_GET_LATENCY())
 8002da0:	4b68      	ldr	r3, [pc, #416]	; (8002f44 <HAL_RCC_ClockConfig+0x1b8>)
 8002da2:	681b      	ldr	r3, [r3, #0]
 8002da4:	f003 030f 	and.w	r3, r3, #15
 8002da8:	683a      	ldr	r2, [r7, #0]
 8002daa:	429a      	cmp	r2, r3
 8002dac:	d90c      	bls.n	8002dc8 <HAL_RCC_ClockConfig+0x3c>
  {
    /* Program the new number of wait states to the LATENCY bits in the FLASH_ACR register */
    __HAL_FLASH_SET_LATENCY(FLatency);
 8002dae:	4b65      	ldr	r3, [pc, #404]	; (8002f44 <HAL_RCC_ClockConfig+0x1b8>)
 8002db0:	683a      	ldr	r2, [r7, #0]
 8002db2:	b2d2      	uxtb	r2, r2
 8002db4:	701a      	strb	r2, [r3, #0]

    /* Check that the new number of wait states is taken into account to access the Flash
    memory by reading the FLASH_ACR register */
    if(__HAL_FLASH_GET_LATENCY() != FLatency)
 8002db6:	4b63      	ldr	r3, [pc, #396]	; (8002f44 <HAL_RCC_ClockConfig+0x1b8>)
 8002db8:	681b      	ldr	r3, [r3, #0]
 8002dba:	f003 030f 	and.w	r3, r3, #15
 8002dbe:	683a      	ldr	r2, [r7, #0]
 8002dc0:	429a      	cmp	r2, r3
 8002dc2:	d001      	beq.n	8002dc8 <HAL_RCC_ClockConfig+0x3c>
    {
      return HAL_ERROR;
 8002dc4:	2301      	movs	r3, #1
 8002dc6:	e0b8      	b.n	8002f3a <HAL_RCC_ClockConfig+0x1ae>
    }
  }

  /*-------------------------- HCLK Configuration --------------------------*/
  if(((RCC_ClkInitStruct->ClockType) & RCC_CLOCKTYPE_HCLK) == RCC_CLOCKTYPE_HCLK)
 8002dc8:	687b      	ldr	r3, [r7, #4]
 8002dca:	681b      	ldr	r3, [r3, #0]
 8002dcc:	f003 0302 	and.w	r3, r3, #2
 8002dd0:	2b00      	cmp	r3, #0
 8002dd2:	d020      	beq.n	8002e16 <HAL_RCC_ClockConfig+0x8a>
  {
    /* Set the highest APBx dividers in order to ensure that we do not go through
       a non-spec phase whatever we decrease or increase HCLK. */
    if(((RCC_ClkInitStruct->ClockType) & RCC_CLOCKTYPE_PCLK1) == RCC_CLOCKTYPE_PCLK1)
 8002dd4:	687b      	ldr	r3, [r7, #4]
 8002dd6:	681b      	ldr	r3, [r3, #0]
 8002dd8:	f003 0304 	and.w	r3, r3, #4
 8002ddc:	2b00      	cmp	r3, #0
 8002dde:	d005      	beq.n	8002dec <HAL_RCC_ClockConfig+0x60>
    {
      MODIFY_REG(RCC->CFGR, RCC_CFGR_PPRE1, RCC_HCLK_DIV16);
 8002de0:	4b59      	ldr	r3, [pc, #356]	; (8002f48 <HAL_RCC_ClockConfig+0x1bc>)
 8002de2:	689b      	ldr	r3, [r3, #8]
 8002de4:	4a58      	ldr	r2, [pc, #352]	; (8002f48 <HAL_RCC_ClockConfig+0x1bc>)
 8002de6:	f443 53e0 	orr.w	r3, r3, #7168	; 0x1c00
 8002dea:	6093      	str	r3, [r2, #8]
    }

    if(((RCC_ClkInitStruct->ClockType) & RCC_CLOCKTYPE_PCLK2) == RCC_CLOCKTYPE_PCLK2)
 8002dec:	687b      	ldr	r3, [r7, #4]
 8002dee:	681b      	ldr	r3, [r3, #0]
 8002df0:	f003 0308 	and.w	r3, r3, #8
 8002df4:	2b00      	cmp	r3, #0
 8002df6:	d005      	beq.n	8002e04 <HAL_RCC_ClockConfig+0x78>
    {
      MODIFY_REG(RCC->CFGR, RCC_CFGR_PPRE2, (RCC_HCLK_DIV16 << 3));
 8002df8:	4b53      	ldr	r3, [pc, #332]	; (8002f48 <HAL_RCC_ClockConfig+0x1bc>)
 8002dfa:	689b      	ldr	r3, [r3, #8]
 8002dfc:	4a52      	ldr	r2, [pc, #328]	; (8002f48 <HAL_RCC_ClockConfig+0x1bc>)
 8002dfe:	f443 4360 	orr.w	r3, r3, #57344	; 0xe000
 8002e02:	6093      	str	r3, [r2, #8]
    }

    assert_param(IS_RCC_HCLK(RCC_ClkInitStruct->AHBCLKDivider));
    MODIFY_REG(RCC->CFGR, RCC_CFGR_HPRE, RCC_ClkInitStruct->AHBCLKDivider);
 8002e04:	4b50      	ldr	r3, [pc, #320]	; (8002f48 <HAL_RCC_ClockConfig+0x1bc>)
 8002e06:	689b      	ldr	r3, [r3, #8]
 8002e08:	f023 02f0 	bic.w	r2, r3, #240	; 0xf0
 8002e0c:	687b      	ldr	r3, [r7, #4]
 8002e0e:	689b      	ldr	r3, [r3, #8]
 8002e10:	494d      	ldr	r1, [pc, #308]	; (8002f48 <HAL_RCC_ClockConfig+0x1bc>)
 8002e12:	4313      	orrs	r3, r2
 8002e14:	608b      	str	r3, [r1, #8]
  }

  /*------------------------- SYSCLK Configuration ---------------------------*/
  if(((RCC_ClkInitStruct->ClockType) & RCC_CLOCKTYPE_SYSCLK) == RCC_CLOCKTYPE_SYSCLK)
 8002e16:	687b      	ldr	r3, [r7, #4]
 8002e18:	681b      	ldr	r3, [r3, #0]
 8002e1a:	f003 0301 	and.w	r3, r3, #1
 8002e1e:	2b00      	cmp	r3, #0
 8002e20:	d044      	beq.n	8002eac <HAL_RCC_ClockConfig+0x120>
  {
    assert_param(IS_RCC_SYSCLKSOURCE(RCC_ClkInitStruct->SYSCLKSource));

    /* HSE is selected as System Clock Source */
    if(RCC_ClkInitStruct->SYSCLKSource == RCC_SYSCLKSOURCE_HSE)
 8002e22:	687b      	ldr	r3, [r7, #4]
 8002e24:	685b      	ldr	r3, [r3, #4]
 8002e26:	2b01      	cmp	r3, #1
 8002e28:	d107      	bne.n	8002e3a <HAL_RCC_ClockConfig+0xae>
    {
      /* Check the HSE ready flag */
      if(__HAL_RCC_GET_FLAG(RCC_FLAG_HSERDY) == RESET)
 8002e2a:	4b47      	ldr	r3, [pc, #284]	; (8002f48 <HAL_RCC_ClockConfig+0x1bc>)
 8002e2c:	681b      	ldr	r3, [r3, #0]
 8002e2e:	f403 3300 	and.w	r3, r3, #131072	; 0x20000
 8002e32:	2b00      	cmp	r3, #0
 8002e34:	d119      	bne.n	8002e6a <HAL_RCC_ClockConfig+0xde>
      {
        return HAL_ERROR;
 8002e36:	2301      	movs	r3, #1
 8002e38:	e07f      	b.n	8002f3a <HAL_RCC_ClockConfig+0x1ae>
      }
    }
    /* PLL is selected as System Clock Source */
    else if((RCC_ClkInitStruct->SYSCLKSource == RCC_SYSCLKSOURCE_PLLCLK)   ||
 8002e3a:	687b      	ldr	r3, [r7, #4]
 8002e3c:	685b      	ldr	r3, [r3, #4]
 8002e3e:	2b02      	cmp	r3, #2
 8002e40:	d003      	beq.n	8002e4a <HAL_RCC_ClockConfig+0xbe>
            (RCC_ClkInitStruct->SYSCLKSource == RCC_SYSCLKSOURCE_PLLRCLK))
 8002e42:	687b      	ldr	r3, [r7, #4]
 8002e44:	685b      	ldr	r3, [r3, #4]
    else if((RCC_ClkInitStruct->SYSCLKSource == RCC_SYSCLKSOURCE_PLLCLK)   ||
 8002e46:	2b03      	cmp	r3, #3
 8002e48:	d107      	bne.n	8002e5a <HAL_RCC_ClockConfig+0xce>
    {
      /* Check the PLL ready flag */
      if(__HAL_RCC_GET_FLAG(RCC_FLAG_PLLRDY) == RESET)
 8002e4a:	4b3f      	ldr	r3, [pc, #252]	; (8002f48 <HAL_RCC_ClockConfig+0x1bc>)
 8002e4c:	681b      	ldr	r3, [r3, #0]
 8002e4e:	f003 7300 	and.w	r3, r3, #33554432	; 0x2000000
 8002e52:	2b00      	cmp	r3, #0
 8002e54:	d109      	bne.n	8002e6a <HAL_RCC_ClockConfig+0xde>
      {
        return HAL_ERROR;
 8002e56:	2301      	movs	r3, #1
 8002e58:	e06f      	b.n	8002f3a <HAL_RCC_ClockConfig+0x1ae>
    }
    /* HSI is selected as System Clock Source */
    else
    {
      /* Check the HSI ready flag */
      if(__HAL_RCC_GET_FLAG(RCC_FLAG_HSIRDY) == RESET)
 8002e5a:	4b3b      	ldr	r3, [pc, #236]	; (8002f48 <HAL_RCC_ClockConfig+0x1bc>)
 8002e5c:	681b      	ldr	r3, [r3, #0]
 8002e5e:	f003 0302 	and.w	r3, r3, #2
 8002e62:	2b00      	cmp	r3, #0
 8002e64:	d101      	bne.n	8002e6a <HAL_RCC_ClockConfig+0xde>
      {
        return HAL_ERROR;
 8002e66:	2301      	movs	r3, #1
 8002e68:	e067      	b.n	8002f3a <HAL_RCC_ClockConfig+0x1ae>
      }
    }

    __HAL_RCC_SYSCLK_CONFIG(RCC_ClkInitStruct->SYSCLKSource);
 8002e6a:	4b37      	ldr	r3, [pc, #220]	; (8002f48 <HAL_RCC_ClockConfig+0x1bc>)
 8002e6c:	689b      	ldr	r3, [r3, #8]
 8002e6e:	f023 0203 	bic.w	r2, r3, #3
 8002e72:	687b      	ldr	r3, [r7, #4]
 8002e74:	685b      	ldr	r3, [r3, #4]
 8002e76:	4934      	ldr	r1, [pc, #208]	; (8002f48 <HAL_RCC_ClockConfig+0x1bc>)
 8002e78:	4313      	orrs	r3, r2
 8002e7a:	608b      	str	r3, [r1, #8]

    /* Get Start Tick */
    tickstart = HAL_GetTick();
 8002e7c:	f7fe fce2 	bl	8001844 <HAL_GetTick>
 8002e80:	60f8      	str	r0, [r7, #12]

    while (__HAL_RCC_GET_SYSCLK_SOURCE() != (RCC_ClkInitStruct->SYSCLKSource << RCC_CFGR_SWS_Pos))
 8002e82:	e00a      	b.n	8002e9a <HAL_RCC_ClockConfig+0x10e>
    {
      if ((HAL_GetTick() - tickstart) > CLOCKSWITCH_TIMEOUT_VALUE)
 8002e84:	f7fe fcde 	bl	8001844 <HAL_GetTick>
 8002e88:	4602      	mov	r2, r0
 8002e8a:	68fb      	ldr	r3, [r7, #12]
 8002e8c:	1ad3      	subs	r3, r2, r3
 8002e8e:	f241 3288 	movw	r2, #5000	; 0x1388
 8002e92:	4293      	cmp	r3, r2
 8002e94:	d901      	bls.n	8002e9a <HAL_RCC_ClockConfig+0x10e>
      {
        return HAL_TIMEOUT;
 8002e96:	2303      	movs	r3, #3
 8002e98:	e04f      	b.n	8002f3a <HAL_RCC_ClockConfig+0x1ae>
    while (__HAL_RCC_GET_SYSCLK_SOURCE() != (RCC_ClkInitStruct->SYSCLKSource << RCC_CFGR_SWS_Pos))
 8002e9a:	4b2b      	ldr	r3, [pc, #172]	; (8002f48 <HAL_RCC_ClockConfig+0x1bc>)
 8002e9c:	689b      	ldr	r3, [r3, #8]
 8002e9e:	f003 020c 	and.w	r2, r3, #12
 8002ea2:	687b      	ldr	r3, [r7, #4]
 8002ea4:	685b      	ldr	r3, [r3, #4]
 8002ea6:	009b      	lsls	r3, r3, #2
 8002ea8:	429a      	cmp	r2, r3
 8002eaa:	d1eb      	bne.n	8002e84 <HAL_RCC_ClockConfig+0xf8>
      }
    }
  }

  /* Decreasing the number of wait states because of lower CPU frequency */
  if(FLatency < __HAL_FLASH_GET_LATENCY())
 8002eac:	4b25      	ldr	r3, [pc, #148]	; (8002f44 <HAL_RCC_ClockConfig+0x1b8>)
 8002eae:	681b      	ldr	r3, [r3, #0]
 8002eb0:	f003 030f 	and.w	r3, r3, #15
 8002eb4:	683a      	ldr	r2, [r7, #0]
 8002eb6:	429a      	cmp	r2, r3
 8002eb8:	d20c      	bcs.n	8002ed4 <HAL_RCC_ClockConfig+0x148>
  {
     /* Program the new number of wait states to the LATENCY bits in the FLASH_ACR register */
    __HAL_FLASH_SET_LATENCY(FLatency);
 8002eba:	4b22      	ldr	r3, [pc, #136]	; (8002f44 <HAL_RCC_ClockConfig+0x1b8>)
 8002ebc:	683a      	ldr	r2, [r7, #0]
 8002ebe:	b2d2      	uxtb	r2, r2
 8002ec0:	701a      	strb	r2, [r3, #0]

    /* Check that the new number of wait states is taken into account to access the Flash
    memory by reading the FLASH_ACR register */
    if(__HAL_FLASH_GET_LATENCY() != FLatency)
 8002ec2:	4b20      	ldr	r3, [pc, #128]	; (8002f44 <HAL_RCC_ClockConfig+0x1b8>)
 8002ec4:	681b      	ldr	r3, [r3, #0]
 8002ec6:	f003 030f 	and.w	r3, r3, #15
 8002eca:	683a      	ldr	r2, [r7, #0]
 8002ecc:	429a      	cmp	r2, r3
 8002ece:	d001      	beq.n	8002ed4 <HAL_RCC_ClockConfig+0x148>
    {
      return HAL_ERROR;
 8002ed0:	2301      	movs	r3, #1
 8002ed2:	e032      	b.n	8002f3a <HAL_RCC_ClockConfig+0x1ae>
    }
  }

  /*-------------------------- PCLK1 Configuration ---------------------------*/
  if(((RCC_ClkInitStruct->ClockType) & RCC_CLOCKTYPE_PCLK1) == RCC_CLOCKTYPE_PCLK1)
 8002ed4:	687b      	ldr	r3, [r7, #4]
 8002ed6:	681b      	ldr	r3, [r3, #0]
 8002ed8:	f003 0304 	and.w	r3, r3, #4
 8002edc:	2b00      	cmp	r3, #0
 8002ede:	d008      	beq.n	8002ef2 <HAL_RCC_ClockConfig+0x166>
  {
    assert_param(IS_RCC_PCLK(RCC_ClkInitStruct->APB1CLKDivider));
    MODIFY_REG(RCC->CFGR, RCC_CFGR_PPRE1, RCC_ClkInitStruct->APB1CLKDivider);
 8002ee0:	4b19      	ldr	r3, [pc, #100]	; (8002f48 <HAL_RCC_ClockConfig+0x1bc>)
 8002ee2:	689b      	ldr	r3, [r3, #8]
 8002ee4:	f423 52e0 	bic.w	r2, r3, #7168	; 0x1c00
 8002ee8:	687b      	ldr	r3, [r7, #4]
 8002eea:	68db      	ldr	r3, [r3, #12]
 8002eec:	4916      	ldr	r1, [pc, #88]	; (8002f48 <HAL_RCC_ClockConfig+0x1bc>)
 8002eee:	4313      	orrs	r3, r2
 8002ef0:	608b      	str	r3, [r1, #8]
  }

  /*-------------------------- PCLK2 Configuration ---------------------------*/
  if(((RCC_ClkInitStruct->ClockType) & RCC_CLOCKTYPE_PCLK2) == RCC_CLOCKTYPE_PCLK2)
 8002ef2:	687b      	ldr	r3, [r7, #4]
 8002ef4:	681b      	ldr	r3, [r3, #0]
 8002ef6:	f003 0308 	and.w	r3, r3, #8
 8002efa:	2b00      	cmp	r3, #0
 8002efc:	d009      	beq.n	8002f12 <HAL_RCC_ClockConfig+0x186>
  {
    assert_param(IS_RCC_PCLK(RCC_ClkInitStruct->APB2CLKDivider));
    MODIFY_REG(RCC->CFGR, RCC_CFGR_PPRE2, ((RCC_ClkInitStruct->APB2CLKDivider) << 3U));
 8002efe:	4b12      	ldr	r3, [pc, #72]	; (8002f48 <HAL_RCC_ClockConfig+0x1bc>)
 8002f00:	689b      	ldr	r3, [r3, #8]
 8002f02:	f423 4260 	bic.w	r2, r3, #57344	; 0xe000
 8002f06:	687b      	ldr	r3, [r7, #4]
 8002f08:	691b      	ldr	r3, [r3, #16]
 8002f0a:	00db      	lsls	r3, r3, #3
 8002f0c:	490e      	ldr	r1, [pc, #56]	; (8002f48 <HAL_RCC_ClockConfig+0x1bc>)
 8002f0e:	4313      	orrs	r3, r2
 8002f10:	608b      	str	r3, [r1, #8]
  }

  /* Update the SystemCoreClock global variable */
  SystemCoreClock = HAL_RCC_GetSysClockFreq() >> AHBPrescTable[(RCC->CFGR & RCC_CFGR_HPRE)>> RCC_CFGR_HPRE_Pos];
 8002f12:	f000 f855 	bl	8002fc0 <HAL_RCC_GetSysClockFreq>
 8002f16:	4601      	mov	r1, r0
 8002f18:	4b0b      	ldr	r3, [pc, #44]	; (8002f48 <HAL_RCC_ClockConfig+0x1bc>)
 8002f1a:	689b      	ldr	r3, [r3, #8]
 8002f1c:	091b      	lsrs	r3, r3, #4
 8002f1e:	f003 030f 	and.w	r3, r3, #15
 8002f22:	4a0a      	ldr	r2, [pc, #40]	; (8002f4c <HAL_RCC_ClockConfig+0x1c0>)
 8002f24:	5cd3      	ldrb	r3, [r2, r3]
 8002f26:	fa21 f303 	lsr.w	r3, r1, r3
 8002f2a:	4a09      	ldr	r2, [pc, #36]	; (8002f50 <HAL_RCC_ClockConfig+0x1c4>)
 8002f2c:	6013      	str	r3, [r2, #0]

  /* Configure the source of time base considering new system clocks settings */
  HAL_InitTick (uwTickPrio);
 8002f2e:	4b09      	ldr	r3, [pc, #36]	; (8002f54 <HAL_RCC_ClockConfig+0x1c8>)
 8002f30:	681b      	ldr	r3, [r3, #0]
 8002f32:	4618      	mov	r0, r3
 8002f34:	f7fe fc42 	bl	80017bc <HAL_InitTick>

  return HAL_OK;
 8002f38:	2300      	movs	r3, #0
}
 8002f3a:	4618      	mov	r0, r3
 8002f3c:	3710      	adds	r7, #16
 8002f3e:	46bd      	mov	sp, r7
 8002f40:	bd80      	pop	{r7, pc}
 8002f42:	bf00      	nop
 8002f44:	40023c00 	.word	0x40023c00
 8002f48:	40023800 	.word	0x40023800
 8002f4c:	08006204 	.word	0x08006204
 8002f50:	20000000 	.word	0x20000000
 8002f54:	20000004 	.word	0x20000004

08002f58 <HAL_RCC_GetHCLKFreq>:
  * @note   The SystemCoreClock CMSIS variable is used to store System Clock Frequency
  *         and updated within this function
  * @retval HCLK frequency
  */
uint32_t HAL_RCC_GetHCLKFreq(void)
{
 8002f58:	b480      	push	{r7}
 8002f5a:	af00      	add	r7, sp, #0
  return SystemCoreClock;
 8002f5c:	4b03      	ldr	r3, [pc, #12]	; (8002f6c <HAL_RCC_GetHCLKFreq+0x14>)
 8002f5e:	681b      	ldr	r3, [r3, #0]
}
 8002f60:	4618      	mov	r0, r3
 8002f62:	46bd      	mov	sp, r7
 8002f64:	f85d 7b04 	ldr.w	r7, [sp], #4
 8002f68:	4770      	bx	lr
 8002f6a:	bf00      	nop
 8002f6c:	20000000 	.word	0x20000000

08002f70 <HAL_RCC_GetPCLK1Freq>:
  * @note   Each time PCLK1 changes, this function must be called to update the
  *         right PCLK1 value. Otherwise, any configuration based on this function will be incorrect.
  * @retval PCLK1 frequency
  */
uint32_t HAL_RCC_GetPCLK1Freq(void)
{
 8002f70:	b580      	push	{r7, lr}
 8002f72:	af00      	add	r7, sp, #0
  /* Get HCLK source and Compute PCLK1 frequency ---------------------------*/
  return (HAL_RCC_GetHCLKFreq() >> APBPrescTable[(RCC->CFGR & RCC_CFGR_PPRE1)>> RCC_CFGR_PPRE1_Pos]);
 8002f74:	f7ff fff0 	bl	8002f58 <HAL_RCC_GetHCLKFreq>
 8002f78:	4601      	mov	r1, r0
 8002f7a:	4b05      	ldr	r3, [pc, #20]	; (8002f90 <HAL_RCC_GetPCLK1Freq+0x20>)
 8002f7c:	689b      	ldr	r3, [r3, #8]
 8002f7e:	0a9b      	lsrs	r3, r3, #10
 8002f80:	f003 0307 	and.w	r3, r3, #7
 8002f84:	4a03      	ldr	r2, [pc, #12]	; (8002f94 <HAL_RCC_GetPCLK1Freq+0x24>)
 8002f86:	5cd3      	ldrb	r3, [r2, r3]
 8002f88:	fa21 f303 	lsr.w	r3, r1, r3
}
 8002f8c:	4618      	mov	r0, r3
 8002f8e:	bd80      	pop	{r7, pc}
 8002f90:	40023800 	.word	0x40023800
 8002f94:	08006214 	.word	0x08006214

08002f98 <HAL_RCC_GetPCLK2Freq>:
  * @note   Each time PCLK2 changes, this function must be called to update the
  *         right PCLK2 value. Otherwise, any configuration based on this function will be incorrect.
  * @retval PCLK2 frequency
  */
uint32_t HAL_RCC_GetPCLK2Freq(void)
{
 8002f98:	b580      	push	{r7, lr}
 8002f9a:	af00      	add	r7, sp, #0
  /* Get HCLK source and Compute PCLK2 frequency ---------------------------*/
  return (HAL_RCC_GetHCLKFreq()>> APBPrescTable[(RCC->CFGR & RCC_CFGR_PPRE2)>> RCC_CFGR_PPRE2_Pos]);
 8002f9c:	f7ff ffdc 	bl	8002f58 <HAL_RCC_GetHCLKFreq>
 8002fa0:	4601      	mov	r1, r0
 8002fa2:	4b05      	ldr	r3, [pc, #20]	; (8002fb8 <HAL_RCC_GetPCLK2Freq+0x20>)
 8002fa4:	689b      	ldr	r3, [r3, #8]
 8002fa6:	0b5b      	lsrs	r3, r3, #13
 8002fa8:	f003 0307 	and.w	r3, r3, #7
 8002fac:	4a03      	ldr	r2, [pc, #12]	; (8002fbc <HAL_RCC_GetPCLK2Freq+0x24>)
 8002fae:	5cd3      	ldrb	r3, [r2, r3]
 8002fb0:	fa21 f303 	lsr.w	r3, r1, r3
}
 8002fb4:	4618      	mov	r0, r3
 8002fb6:	bd80      	pop	{r7, pc}
 8002fb8:	40023800 	.word	0x40023800
 8002fbc:	08006214 	.word	0x08006214

08002fc0 <HAL_RCC_GetSysClockFreq>:
  *
  *
  * @retval SYSCLK frequency
  */
uint32_t HAL_RCC_GetSysClockFreq(void)
{
 8002fc0:	b5f0      	push	{r4, r5, r6, r7, lr}
 8002fc2:	b087      	sub	sp, #28
 8002fc4:	af00      	add	r7, sp, #0
  uint32_t pllm = 0U;
 8002fc6:	2300      	movs	r3, #0
 8002fc8:	60fb      	str	r3, [r7, #12]
  uint32_t pllvco = 0U;
 8002fca:	2300      	movs	r3, #0
 8002fcc:	617b      	str	r3, [r7, #20]
  uint32_t pllp = 0U;
 8002fce:	2300      	movs	r3, #0
 8002fd0:	60bb      	str	r3, [r7, #8]
  uint32_t pllr = 0U;
 8002fd2:	2300      	movs	r3, #0
 8002fd4:	607b      	str	r3, [r7, #4]
  uint32_t sysclockfreq = 0U;
 8002fd6:	2300      	movs	r3, #0
 8002fd8:	613b      	str	r3, [r7, #16]

  /* Get SYSCLK source -------------------------------------------------------*/
  switch (RCC->CFGR & RCC_CFGR_SWS)
 8002fda:	4bc6      	ldr	r3, [pc, #792]	; (80032f4 <HAL_RCC_GetSysClockFreq+0x334>)
 8002fdc:	689b      	ldr	r3, [r3, #8]
 8002fde:	f003 030c 	and.w	r3, r3, #12
 8002fe2:	2b0c      	cmp	r3, #12
 8002fe4:	f200 817e 	bhi.w	80032e4 <HAL_RCC_GetSysClockFreq+0x324>
 8002fe8:	a201      	add	r2, pc, #4	; (adr r2, 8002ff0 <HAL_RCC_GetSysClockFreq+0x30>)
 8002fea:	f852 f023 	ldr.w	pc, [r2, r3, lsl #2]
 8002fee:	bf00      	nop
 8002ff0:	08003025 	.word	0x08003025
 8002ff4:	080032e5 	.word	0x080032e5
 8002ff8:	080032e5 	.word	0x080032e5
 8002ffc:	080032e5 	.word	0x080032e5
 8003000:	0800302b 	.word	0x0800302b
 8003004:	080032e5 	.word	0x080032e5
 8003008:	080032e5 	.word	0x080032e5
 800300c:	080032e5 	.word	0x080032e5
 8003010:	08003031 	.word	0x08003031
 8003014:	080032e5 	.word	0x080032e5
 8003018:	080032e5 	.word	0x080032e5
 800301c:	080032e5 	.word	0x080032e5
 8003020:	0800318d 	.word	0x0800318d
  {
    case RCC_CFGR_SWS_HSI:  /* HSI used as system clock source */
    {
      sysclockfreq = HSI_VALUE;
 8003024:	4bb4      	ldr	r3, [pc, #720]	; (80032f8 <HAL_RCC_GetSysClockFreq+0x338>)
 8003026:	613b      	str	r3, [r7, #16]
       break;
 8003028:	e15f      	b.n	80032ea <HAL_RCC_GetSysClockFreq+0x32a>
    }
    case RCC_CFGR_SWS_HSE:  /* HSE used as system clock  source */
    {
      sysclockfreq = HSE_VALUE;
 800302a:	4bb4      	ldr	r3, [pc, #720]	; (80032fc <HAL_RCC_GetSysClockFreq+0x33c>)
 800302c:	613b      	str	r3, [r7, #16]
      break;
 800302e:	e15c      	b.n	80032ea <HAL_RCC_GetSysClockFreq+0x32a>
    }
    case RCC_CFGR_SWS_PLL:  /* PLL/PLLP used as system clock  source */
    {
      /* PLL_VCO = (HSE_VALUE or HSI_VALUE / PLLM) * PLLN
      SYSCLK = PLL_VCO / PLLP */
      pllm = RCC->PLLCFGR & RCC_PLLCFGR_PLLM;
 8003030:	4bb0      	ldr	r3, [pc, #704]	; (80032f4 <HAL_RCC_GetSysClockFreq+0x334>)
 8003032:	685b      	ldr	r3, [r3, #4]
 8003034:	f003 033f 	and.w	r3, r3, #63	; 0x3f
 8003038:	60fb      	str	r3, [r7, #12]
      if(__HAL_RCC_GET_PLL_OSCSOURCE() != RCC_PLLSOURCE_HSI)
 800303a:	4bae      	ldr	r3, [pc, #696]	; (80032f4 <HAL_RCC_GetSysClockFreq+0x334>)
 800303c:	685b      	ldr	r3, [r3, #4]
 800303e:	f403 0380 	and.w	r3, r3, #4194304	; 0x400000
 8003042:	2b00      	cmp	r3, #0
 8003044:	d04a      	beq.n	80030dc <HAL_RCC_GetSysClockFreq+0x11c>
      {
        /* HSE used as PLL clock source */
        pllvco = (uint32_t) ((((uint64_t) HSE_VALUE * ((uint64_t) ((RCC->PLLCFGR & RCC_PLLCFGR_PLLN) >> RCC_PLLCFGR_PLLN_Pos)))) / (uint64_t)pllm);
 8003046:	4bab      	ldr	r3, [pc, #684]	; (80032f4 <HAL_RCC_GetSysClockFreq+0x334>)
 8003048:	685b      	ldr	r3, [r3, #4]
 800304a:	099b      	lsrs	r3, r3, #6
 800304c:	f04f 0400 	mov.w	r4, #0
 8003050:	f240 11ff 	movw	r1, #511	; 0x1ff
 8003054:	f04f 0200 	mov.w	r2, #0
 8003058:	ea03 0501 	and.w	r5, r3, r1
 800305c:	ea04 0602 	and.w	r6, r4, r2
 8003060:	4629      	mov	r1, r5
 8003062:	4632      	mov	r2, r6
 8003064:	f04f 0300 	mov.w	r3, #0
 8003068:	f04f 0400 	mov.w	r4, #0
 800306c:	0154      	lsls	r4, r2, #5
 800306e:	ea44 64d1 	orr.w	r4, r4, r1, lsr #27
 8003072:	014b      	lsls	r3, r1, #5
 8003074:	4619      	mov	r1, r3
 8003076:	4622      	mov	r2, r4
 8003078:	1b49      	subs	r1, r1, r5
 800307a:	eb62 0206 	sbc.w	r2, r2, r6
 800307e:	f04f 0300 	mov.w	r3, #0
 8003082:	f04f 0400 	mov.w	r4, #0
 8003086:	0194      	lsls	r4, r2, #6
 8003088:	ea44 6491 	orr.w	r4, r4, r1, lsr #26
 800308c:	018b      	lsls	r3, r1, #6
 800308e:	1a5b      	subs	r3, r3, r1
 8003090:	eb64 0402 	sbc.w	r4, r4, r2
 8003094:	f04f 0100 	mov.w	r1, #0
 8003098:	f04f 0200 	mov.w	r2, #0
 800309c:	00e2      	lsls	r2, r4, #3
 800309e:	ea42 7253 	orr.w	r2, r2, r3, lsr #29
 80030a2:	00d9      	lsls	r1, r3, #3
 80030a4:	460b      	mov	r3, r1
 80030a6:	4614      	mov	r4, r2
 80030a8:	195b      	adds	r3, r3, r5
 80030aa:	eb44 0406 	adc.w	r4, r4, r6
 80030ae:	f04f 0100 	mov.w	r1, #0
 80030b2:	f04f 0200 	mov.w	r2, #0
 80030b6:	0262      	lsls	r2, r4, #9
 80030b8:	ea42 52d3 	orr.w	r2, r2, r3, lsr #23
 80030bc:	0259      	lsls	r1, r3, #9
 80030be:	460b      	mov	r3, r1
 80030c0:	4614      	mov	r4, r2
 80030c2:	4618      	mov	r0, r3
 80030c4:	4621      	mov	r1, r4
 80030c6:	68fb      	ldr	r3, [r7, #12]
 80030c8:	f04f 0400 	mov.w	r4, #0
 80030cc:	461a      	mov	r2, r3
 80030ce:	4623      	mov	r3, r4
 80030d0:	f7fd fdda 	bl	8000c88 <__aeabi_uldivmod>
 80030d4:	4603      	mov	r3, r0
 80030d6:	460c      	mov	r4, r1
 80030d8:	617b      	str	r3, [r7, #20]
 80030da:	e049      	b.n	8003170 <HAL_RCC_GetSysClockFreq+0x1b0>
      }
      else
      {
        /* HSI used as PLL clock source */
        pllvco = (uint32_t) ((((uint64_t) HSI_VALUE * ((uint64_t) ((RCC->PLLCFGR & RCC_PLLCFGR_PLLN) >> RCC_PLLCFGR_PLLN_Pos)))) / (uint64_t)pllm);
 80030dc:	4b85      	ldr	r3, [pc, #532]	; (80032f4 <HAL_RCC_GetSysClockFreq+0x334>)
 80030de:	685b      	ldr	r3, [r3, #4]
 80030e0:	099b      	lsrs	r3, r3, #6
 80030e2:	f04f 0400 	mov.w	r4, #0
 80030e6:	f240 11ff 	movw	r1, #511	; 0x1ff
 80030ea:	f04f 0200 	mov.w	r2, #0
 80030ee:	ea03 0501 	and.w	r5, r3, r1
 80030f2:	ea04 0602 	and.w	r6, r4, r2
 80030f6:	4629      	mov	r1, r5
 80030f8:	4632      	mov	r2, r6
 80030fa:	f04f 0300 	mov.w	r3, #0
 80030fe:	f04f 0400 	mov.w	r4, #0
 8003102:	0154      	lsls	r4, r2, #5
 8003104:	ea44 64d1 	orr.w	r4, r4, r1, lsr #27
 8003108:	014b      	lsls	r3, r1, #5
 800310a:	4619      	mov	r1, r3
 800310c:	4622      	mov	r2, r4
 800310e:	1b49      	subs	r1, r1, r5
 8003110:	eb62 0206 	sbc.w	r2, r2, r6
 8003114:	f04f 0300 	mov.w	r3, #0
 8003118:	f04f 0400 	mov.w	r4, #0
 800311c:	0194      	lsls	r4, r2, #6
 800311e:	ea44 6491 	orr.w	r4, r4, r1, lsr #26
 8003122:	018b      	lsls	r3, r1, #6
 8003124:	1a5b      	subs	r3, r3, r1
 8003126:	eb64 0402 	sbc.w	r4, r4, r2
 800312a:	f04f 0100 	mov.w	r1, #0
 800312e:	f04f 0200 	mov.w	r2, #0
 8003132:	00e2      	lsls	r2, r4, #3
 8003134:	ea42 7253 	orr.w	r2, r2, r3, lsr #29
 8003138:	00d9      	lsls	r1, r3, #3
 800313a:	460b      	mov	r3, r1
 800313c:	4614      	mov	r4, r2
 800313e:	195b      	adds	r3, r3, r5
 8003140:	eb44 0406 	adc.w	r4, r4, r6
 8003144:	f04f 0100 	mov.w	r1, #0
 8003148:	f04f 0200 	mov.w	r2, #0
 800314c:	02a2      	lsls	r2, r4, #10
 800314e:	ea42 5293 	orr.w	r2, r2, r3, lsr #22
 8003152:	0299      	lsls	r1, r3, #10
 8003154:	460b      	mov	r3, r1
 8003156:	4614      	mov	r4, r2
 8003158:	4618      	mov	r0, r3
 800315a:	4621      	mov	r1, r4
 800315c:	68fb      	ldr	r3, [r7, #12]
 800315e:	f04f 0400 	mov.w	r4, #0
 8003162:	461a      	mov	r2, r3
 8003164:	4623      	mov	r3, r4
 8003166:	f7fd fd8f 	bl	8000c88 <__aeabi_uldivmod>
 800316a:	4603      	mov	r3, r0
 800316c:	460c      	mov	r4, r1
 800316e:	617b      	str	r3, [r7, #20]
      }
      pllp = ((((RCC->PLLCFGR & RCC_PLLCFGR_PLLP) >> RCC_PLLCFGR_PLLP_Pos) + 1U) *2U);
 8003170:	4b60      	ldr	r3, [pc, #384]	; (80032f4 <HAL_RCC_GetSysClockFreq+0x334>)
 8003172:	685b      	ldr	r3, [r3, #4]
 8003174:	0c1b      	lsrs	r3, r3, #16
 8003176:	f003 0303 	and.w	r3, r3, #3
 800317a:	3301      	adds	r3, #1
 800317c:	005b      	lsls	r3, r3, #1
 800317e:	60bb      	str	r3, [r7, #8]

      sysclockfreq = pllvco/pllp;
 8003180:	697a      	ldr	r2, [r7, #20]
 8003182:	68bb      	ldr	r3, [r7, #8]
 8003184:	fbb2 f3f3 	udiv	r3, r2, r3
 8003188:	613b      	str	r3, [r7, #16]
      break;
 800318a:	e0ae      	b.n	80032ea <HAL_RCC_GetSysClockFreq+0x32a>
    }
    case RCC_CFGR_SWS_PLLR:  /* PLL/PLLR used as system clock  source */
    {
      /* PLL_VCO = (HSE_VALUE or HSI_VALUE / PLLM) * PLLN
      SYSCLK = PLL_VCO / PLLR */
      pllm = RCC->PLLCFGR & RCC_PLLCFGR_PLLM;
 800318c:	4b59      	ldr	r3, [pc, #356]	; (80032f4 <HAL_RCC_GetSysClockFreq+0x334>)
 800318e:	685b      	ldr	r3, [r3, #4]
 8003190:	f003 033f 	and.w	r3, r3, #63	; 0x3f
 8003194:	60fb      	str	r3, [r7, #12]
      if(__HAL_RCC_GET_PLL_OSCSOURCE() != RCC_PLLSOURCE_HSI)
 8003196:	4b57      	ldr	r3, [pc, #348]	; (80032f4 <HAL_RCC_GetSysClockFreq+0x334>)
 8003198:	685b      	ldr	r3, [r3, #4]
 800319a:	f403 0380 	and.w	r3, r3, #4194304	; 0x400000
 800319e:	2b00      	cmp	r3, #0
 80031a0:	d04a      	beq.n	8003238 <HAL_RCC_GetSysClockFreq+0x278>
      {
        /* HSE used as PLL clock source */
        pllvco = (uint32_t) ((((uint64_t) HSE_VALUE * ((uint64_t) ((RCC->PLLCFGR & RCC_PLLCFGR_PLLN) >> RCC_PLLCFGR_PLLN_Pos)))) / (uint64_t)pllm);
 80031a2:	4b54      	ldr	r3, [pc, #336]	; (80032f4 <HAL_RCC_GetSysClockFreq+0x334>)
 80031a4:	685b      	ldr	r3, [r3, #4]
 80031a6:	099b      	lsrs	r3, r3, #6
 80031a8:	f04f 0400 	mov.w	r4, #0
 80031ac:	f240 11ff 	movw	r1, #511	; 0x1ff
 80031b0:	f04f 0200 	mov.w	r2, #0
 80031b4:	ea03 0501 	and.w	r5, r3, r1
 80031b8:	ea04 0602 	and.w	r6, r4, r2
 80031bc:	4629      	mov	r1, r5
 80031be:	4632      	mov	r2, r6
 80031c0:	f04f 0300 	mov.w	r3, #0
 80031c4:	f04f 0400 	mov.w	r4, #0
 80031c8:	0154      	lsls	r4, r2, #5
 80031ca:	ea44 64d1 	orr.w	r4, r4, r1, lsr #27
 80031ce:	014b      	lsls	r3, r1, #5
 80031d0:	4619      	mov	r1, r3
 80031d2:	4622      	mov	r2, r4
 80031d4:	1b49      	subs	r1, r1, r5
 80031d6:	eb62 0206 	sbc.w	r2, r2, r6
 80031da:	f04f 0300 	mov.w	r3, #0
 80031de:	f04f 0400 	mov.w	r4, #0
 80031e2:	0194      	lsls	r4, r2, #6
 80031e4:	ea44 6491 	orr.w	r4, r4, r1, lsr #26
 80031e8:	018b      	lsls	r3, r1, #6
 80031ea:	1a5b      	subs	r3, r3, r1
 80031ec:	eb64 0402 	sbc.w	r4, r4, r2
 80031f0:	f04f 0100 	mov.w	r1, #0
 80031f4:	f04f 0200 	mov.w	r2, #0
 80031f8:	00e2      	lsls	r2, r4, #3
 80031fa:	ea42 7253 	orr.w	r2, r2, r3, lsr #29
 80031fe:	00d9      	lsls	r1, r3, #3
 8003200:	460b      	mov	r3, r1
 8003202:	4614      	mov	r4, r2
 8003204:	195b      	adds	r3, r3, r5
 8003206:	eb44 0406 	adc.w	r4, r4, r6
 800320a:	f04f 0100 	mov.w	r1, #0
 800320e:	f04f 0200 	mov.w	r2, #0
 8003212:	0262      	lsls	r2, r4, #9
 8003214:	ea42 52d3 	orr.w	r2, r2, r3, lsr #23
 8003218:	0259      	lsls	r1, r3, #9
 800321a:	460b      	mov	r3, r1
 800321c:	4614      	mov	r4, r2
 800321e:	4618      	mov	r0, r3
 8003220:	4621      	mov	r1, r4
 8003222:	68fb      	ldr	r3, [r7, #12]
 8003224:	f04f 0400 	mov.w	r4, #0
 8003228:	461a      	mov	r2, r3
 800322a:	4623      	mov	r3, r4
 800322c:	f7fd fd2c 	bl	8000c88 <__aeabi_uldivmod>
 8003230:	4603      	mov	r3, r0
 8003232:	460c      	mov	r4, r1
 8003234:	617b      	str	r3, [r7, #20]
 8003236:	e049      	b.n	80032cc <HAL_RCC_GetSysClockFreq+0x30c>
      }
      else
      {
        /* HSI used as PLL clock source */
        pllvco = (uint32_t) ((((uint64_t) HSI_VALUE * ((uint64_t) ((RCC->PLLCFGR & RCC_PLLCFGR_PLLN) >> RCC_PLLCFGR_PLLN_Pos)))) / (uint64_t)pllm);
 8003238:	4b2e      	ldr	r3, [pc, #184]	; (80032f4 <HAL_RCC_GetSysClockFreq+0x334>)
 800323a:	685b      	ldr	r3, [r3, #4]
 800323c:	099b      	lsrs	r3, r3, #6
 800323e:	f04f 0400 	mov.w	r4, #0
 8003242:	f240 11ff 	movw	r1, #511	; 0x1ff
 8003246:	f04f 0200 	mov.w	r2, #0
 800324a:	ea03 0501 	and.w	r5, r3, r1
 800324e:	ea04 0602 	and.w	r6, r4, r2
 8003252:	4629      	mov	r1, r5
 8003254:	4632      	mov	r2, r6
 8003256:	f04f 0300 	mov.w	r3, #0
 800325a:	f04f 0400 	mov.w	r4, #0
 800325e:	0154      	lsls	r4, r2, #5
 8003260:	ea44 64d1 	orr.w	r4, r4, r1, lsr #27
 8003264:	014b      	lsls	r3, r1, #5
 8003266:	4619      	mov	r1, r3
 8003268:	4622      	mov	r2, r4
 800326a:	1b49      	subs	r1, r1, r5
 800326c:	eb62 0206 	sbc.w	r2, r2, r6
 8003270:	f04f 0300 	mov.w	r3, #0
 8003274:	f04f 0400 	mov.w	r4, #0
 8003278:	0194      	lsls	r4, r2, #6
 800327a:	ea44 6491 	orr.w	r4, r4, r1, lsr #26
 800327e:	018b      	lsls	r3, r1, #6
 8003280:	1a5b      	subs	r3, r3, r1
 8003282:	eb64 0402 	sbc.w	r4, r4, r2
 8003286:	f04f 0100 	mov.w	r1, #0
 800328a:	f04f 0200 	mov.w	r2, #0
 800328e:	00e2      	lsls	r2, r4, #3
 8003290:	ea42 7253 	orr.w	r2, r2, r3, lsr #29
 8003294:	00d9      	lsls	r1, r3, #3
 8003296:	460b      	mov	r3, r1
 8003298:	4614      	mov	r4, r2
 800329a:	195b      	adds	r3, r3, r5
 800329c:	eb44 0406 	adc.w	r4, r4, r6
 80032a0:	f04f 0100 	mov.w	r1, #0
 80032a4:	f04f 0200 	mov.w	r2, #0
 80032a8:	02a2      	lsls	r2, r4, #10
 80032aa:	ea42 5293 	orr.w	r2, r2, r3, lsr #22
 80032ae:	0299      	lsls	r1, r3, #10
 80032b0:	460b      	mov	r3, r1
 80032b2:	4614      	mov	r4, r2
 80032b4:	4618      	mov	r0, r3
 80032b6:	4621      	mov	r1, r4
 80032b8:	68fb      	ldr	r3, [r7, #12]
 80032ba:	f04f 0400 	mov.w	r4, #0
 80032be:	461a      	mov	r2, r3
 80032c0:	4623      	mov	r3, r4
 80032c2:	f7fd fce1 	bl	8000c88 <__aeabi_uldivmod>
 80032c6:	4603      	mov	r3, r0
 80032c8:	460c      	mov	r4, r1
 80032ca:	617b      	str	r3, [r7, #20]
      }
      pllr = ((RCC->PLLCFGR & RCC_PLLCFGR_PLLR) >> RCC_PLLCFGR_PLLR_Pos);
 80032cc:	4b09      	ldr	r3, [pc, #36]	; (80032f4 <HAL_RCC_GetSysClockFreq+0x334>)
 80032ce:	685b      	ldr	r3, [r3, #4]
 80032d0:	0f1b      	lsrs	r3, r3, #28
 80032d2:	f003 0307 	and.w	r3, r3, #7
 80032d6:	607b      	str	r3, [r7, #4]

      sysclockfreq = pllvco/pllr;
 80032d8:	697a      	ldr	r2, [r7, #20]
 80032da:	687b      	ldr	r3, [r7, #4]
 80032dc:	fbb2 f3f3 	udiv	r3, r2, r3
 80032e0:	613b      	str	r3, [r7, #16]
      break;
 80032e2:	e002      	b.n	80032ea <HAL_RCC_GetSysClockFreq+0x32a>
    }
    default:
    {
      sysclockfreq = HSI_VALUE;
 80032e4:	4b04      	ldr	r3, [pc, #16]	; (80032f8 <HAL_RCC_GetSysClockFreq+0x338>)
 80032e6:	613b      	str	r3, [r7, #16]
      break;
 80032e8:	bf00      	nop
    }
  }
  return sysclockfreq;
 80032ea:	693b      	ldr	r3, [r7, #16]
}
 80032ec:	4618      	mov	r0, r3
 80032ee:	371c      	adds	r7, #28
 80032f0:	46bd      	mov	sp, r7
 80032f2:	bdf0      	pop	{r4, r5, r6, r7, pc}
 80032f4:	40023800 	.word	0x40023800
 80032f8:	00f42400 	.word	0x00f42400
 80032fc:	007a1200 	.word	0x007a1200

08003300 <HAL_RCC_OscConfig>:
  * @note   This function add the PLL/PLLR factor management during PLL configuration this feature
  *         is only available in STM32F410xx/STM32F446xx/STM32F469xx/STM32F479xx/STM32F412Zx/STM32F412Vx/STM32F412Rx/STM32F412Cx devices
  * @retval HAL status
  */
HAL_StatusTypeDef HAL_RCC_OscConfig(RCC_OscInitTypeDef  *RCC_OscInitStruct)
{
 8003300:	b580      	push	{r7, lr}
 8003302:	b086      	sub	sp, #24
 8003304:	af00      	add	r7, sp, #0
 8003306:	6078      	str	r0, [r7, #4]
  uint32_t tickstart = 0U;
 8003308:	2300      	movs	r3, #0
 800330a:	613b      	str	r3, [r7, #16]

  /* Check the parameters */
  assert_param(IS_RCC_OSCILLATORTYPE(RCC_OscInitStruct->OscillatorType));
  /*------------------------------- HSE Configuration ------------------------*/
  if(((RCC_OscInitStruct->OscillatorType) & RCC_OSCILLATORTYPE_HSE) == RCC_OSCILLATORTYPE_HSE)
 800330c:	687b      	ldr	r3, [r7, #4]
 800330e:	681b      	ldr	r3, [r3, #0]
 8003310:	f003 0301 	and.w	r3, r3, #1
 8003314:	2b00      	cmp	r3, #0
 8003316:	f000 8083 	beq.w	8003420 <HAL_RCC_OscConfig+0x120>
  {
    /* Check the parameters */
    assert_param(IS_RCC_HSE(RCC_OscInitStruct->HSEState));
    /* When the HSE is used as system clock or clock source for PLL in these cases HSE will not disabled */
#if defined(STM32F446xx)
    if((__HAL_RCC_GET_SYSCLK_SOURCE() == RCC_CFGR_SWS_HSE)                                                                     ||\
 800331a:	4b95      	ldr	r3, [pc, #596]	; (8003570 <HAL_RCC_OscConfig+0x270>)
 800331c:	689b      	ldr	r3, [r3, #8]
 800331e:	f003 030c 	and.w	r3, r3, #12
 8003322:	2b04      	cmp	r3, #4
 8003324:	d019      	beq.n	800335a <HAL_RCC_OscConfig+0x5a>
      ((__HAL_RCC_GET_SYSCLK_SOURCE() == RCC_CFGR_SWS_PLL) && ((RCC->PLLCFGR & RCC_PLLCFGR_PLLSRC) == RCC_PLLCFGR_PLLSRC_HSE)) ||\
 8003326:	4b92      	ldr	r3, [pc, #584]	; (8003570 <HAL_RCC_OscConfig+0x270>)
 8003328:	689b      	ldr	r3, [r3, #8]
 800332a:	f003 030c 	and.w	r3, r3, #12
    if((__HAL_RCC_GET_SYSCLK_SOURCE() == RCC_CFGR_SWS_HSE)                                                                     ||\
 800332e:	2b08      	cmp	r3, #8
 8003330:	d106      	bne.n	8003340 <HAL_RCC_OscConfig+0x40>
      ((__HAL_RCC_GET_SYSCLK_SOURCE() == RCC_CFGR_SWS_PLL) && ((RCC->PLLCFGR & RCC_PLLCFGR_PLLSRC) == RCC_PLLCFGR_PLLSRC_HSE)) ||\
 8003332:	4b8f      	ldr	r3, [pc, #572]	; (8003570 <HAL_RCC_OscConfig+0x270>)
 8003334:	685b      	ldr	r3, [r3, #4]
 8003336:	f403 0380 	and.w	r3, r3, #4194304	; 0x400000
 800333a:	f5b3 0f80 	cmp.w	r3, #4194304	; 0x400000
 800333e:	d00c      	beq.n	800335a <HAL_RCC_OscConfig+0x5a>
      ((__HAL_RCC_GET_SYSCLK_SOURCE() == RCC_CFGR_SWS_PLLR) && ((RCC->PLLCFGR & RCC_PLLCFGR_PLLSRC) == RCC_PLLCFGR_PLLSRC_HSE)))
 8003340:	4b8b      	ldr	r3, [pc, #556]	; (8003570 <HAL_RCC_OscConfig+0x270>)
 8003342:	689b      	ldr	r3, [r3, #8]
 8003344:	f003 030c 	and.w	r3, r3, #12
      ((__HAL_RCC_GET_SYSCLK_SOURCE() == RCC_CFGR_SWS_PLL) && ((RCC->PLLCFGR & RCC_PLLCFGR_PLLSRC) == RCC_PLLCFGR_PLLSRC_HSE)) ||\
 8003348:	2b0c      	cmp	r3, #12
 800334a:	d112      	bne.n	8003372 <HAL_RCC_OscConfig+0x72>
      ((__HAL_RCC_GET_SYSCLK_SOURCE() == RCC_CFGR_SWS_PLLR) && ((RCC->PLLCFGR & RCC_PLLCFGR_PLLSRC) == RCC_PLLCFGR_PLLSRC_HSE)))
 800334c:	4b88      	ldr	r3, [pc, #544]	; (8003570 <HAL_RCC_OscConfig+0x270>)
 800334e:	685b      	ldr	r3, [r3, #4]
 8003350:	f403 0380 	and.w	r3, r3, #4194304	; 0x400000
 8003354:	f5b3 0f80 	cmp.w	r3, #4194304	; 0x400000
 8003358:	d10b      	bne.n	8003372 <HAL_RCC_OscConfig+0x72>
#else
    if((__HAL_RCC_GET_SYSCLK_SOURCE() == RCC_CFGR_SWS_HSE)                                                                     ||\
      ((__HAL_RCC_GET_SYSCLK_SOURCE() == RCC_CFGR_SWS_PLL) && ((RCC->PLLCFGR & RCC_PLLCFGR_PLLSRC) == RCC_PLLCFGR_PLLSRC_HSE)))
#endif /* STM32F446xx */
    {
      if((__HAL_RCC_GET_FLAG(RCC_FLAG_HSERDY) != RESET) && (RCC_OscInitStruct->HSEState == RCC_HSE_OFF))
 800335a:	4b85      	ldr	r3, [pc, #532]	; (8003570 <HAL_RCC_OscConfig+0x270>)
 800335c:	681b      	ldr	r3, [r3, #0]
 800335e:	f403 3300 	and.w	r3, r3, #131072	; 0x20000
 8003362:	2b00      	cmp	r3, #0
 8003364:	d05b      	beq.n	800341e <HAL_RCC_OscConfig+0x11e>
 8003366:	687b      	ldr	r3, [r7, #4]
 8003368:	685b      	ldr	r3, [r3, #4]
 800336a:	2b00      	cmp	r3, #0
 800336c:	d157      	bne.n	800341e <HAL_RCC_OscConfig+0x11e>
      {
        return HAL_ERROR;
 800336e:	2301      	movs	r3, #1
 8003370:	e216      	b.n	80037a0 <HAL_RCC_OscConfig+0x4a0>
      }
    }
    else
    {
      /* Set the new HSE configuration ---------------------------------------*/
      __HAL_RCC_HSE_CONFIG(RCC_OscInitStruct->HSEState);
 8003372:	687b      	ldr	r3, [r7, #4]
 8003374:	685b      	ldr	r3, [r3, #4]
 8003376:	f5b3 3f80 	cmp.w	r3, #65536	; 0x10000
 800337a:	d106      	bne.n	800338a <HAL_RCC_OscConfig+0x8a>
 800337c:	4b7c      	ldr	r3, [pc, #496]	; (8003570 <HAL_RCC_OscConfig+0x270>)
 800337e:	681b      	ldr	r3, [r3, #0]
 8003380:	4a7b      	ldr	r2, [pc, #492]	; (8003570 <HAL_RCC_OscConfig+0x270>)
 8003382:	f443 3380 	orr.w	r3, r3, #65536	; 0x10000
 8003386:	6013      	str	r3, [r2, #0]
 8003388:	e01d      	b.n	80033c6 <HAL_RCC_OscConfig+0xc6>
 800338a:	687b      	ldr	r3, [r7, #4]
 800338c:	685b      	ldr	r3, [r3, #4]
 800338e:	f5b3 2fa0 	cmp.w	r3, #327680	; 0x50000
 8003392:	d10c      	bne.n	80033ae <HAL_RCC_OscConfig+0xae>
 8003394:	4b76      	ldr	r3, [pc, #472]	; (8003570 <HAL_RCC_OscConfig+0x270>)
 8003396:	681b      	ldr	r3, [r3, #0]
 8003398:	4a75      	ldr	r2, [pc, #468]	; (8003570 <HAL_RCC_OscConfig+0x270>)
 800339a:	f443 2380 	orr.w	r3, r3, #262144	; 0x40000
 800339e:	6013      	str	r3, [r2, #0]
 80033a0:	4b73      	ldr	r3, [pc, #460]	; (8003570 <HAL_RCC_OscConfig+0x270>)
 80033a2:	681b      	ldr	r3, [r3, #0]
 80033a4:	4a72      	ldr	r2, [pc, #456]	; (8003570 <HAL_RCC_OscConfig+0x270>)
 80033a6:	f443 3380 	orr.w	r3, r3, #65536	; 0x10000
 80033aa:	6013      	str	r3, [r2, #0]
 80033ac:	e00b      	b.n	80033c6 <HAL_RCC_OscConfig+0xc6>
 80033ae:	4b70      	ldr	r3, [pc, #448]	; (8003570 <HAL_RCC_OscConfig+0x270>)
 80033b0:	681b      	ldr	r3, [r3, #0]
 80033b2:	4a6f      	ldr	r2, [pc, #444]	; (8003570 <HAL_RCC_OscConfig+0x270>)
 80033b4:	f423 3380 	bic.w	r3, r3, #65536	; 0x10000
 80033b8:	6013      	str	r3, [r2, #0]
 80033ba:	4b6d      	ldr	r3, [pc, #436]	; (8003570 <HAL_RCC_OscConfig+0x270>)
 80033bc:	681b      	ldr	r3, [r3, #0]
 80033be:	4a6c      	ldr	r2, [pc, #432]	; (8003570 <HAL_RCC_OscConfig+0x270>)
 80033c0:	f423 2380 	bic.w	r3, r3, #262144	; 0x40000
 80033c4:	6013      	str	r3, [r2, #0]

      /* Check the HSE State */
      if((RCC_OscInitStruct->HSEState) != RCC_HSE_OFF)
 80033c6:	687b      	ldr	r3, [r7, #4]
 80033c8:	685b      	ldr	r3, [r3, #4]
 80033ca:	2b00      	cmp	r3, #0
 80033cc:	d013      	beq.n	80033f6 <HAL_RCC_OscConfig+0xf6>
      {
        /* Get Start Tick*/
        tickstart = HAL_GetTick();
 80033ce:	f7fe fa39 	bl	8001844 <HAL_GetTick>
 80033d2:	6138      	str	r0, [r7, #16]

        /* Wait till HSE is ready */
        while(__HAL_RCC_GET_FLAG(RCC_FLAG_HSERDY) == RESET)
 80033d4:	e008      	b.n	80033e8 <HAL_RCC_OscConfig+0xe8>
        {
          if((HAL_GetTick() - tickstart ) > HSE_TIMEOUT_VALUE)
 80033d6:	f7fe fa35 	bl	8001844 <HAL_GetTick>
 80033da:	4602      	mov	r2, r0
 80033dc:	693b      	ldr	r3, [r7, #16]
 80033de:	1ad3      	subs	r3, r2, r3
 80033e0:	2b64      	cmp	r3, #100	; 0x64
 80033e2:	d901      	bls.n	80033e8 <HAL_RCC_OscConfig+0xe8>
          {
            return HAL_TIMEOUT;
 80033e4:	2303      	movs	r3, #3
 80033e6:	e1db      	b.n	80037a0 <HAL_RCC_OscConfig+0x4a0>
        while(__HAL_RCC_GET_FLAG(RCC_FLAG_HSERDY) == RESET)
 80033e8:	4b61      	ldr	r3, [pc, #388]	; (8003570 <HAL_RCC_OscConfig+0x270>)
 80033ea:	681b      	ldr	r3, [r3, #0]
 80033ec:	f403 3300 	and.w	r3, r3, #131072	; 0x20000
 80033f0:	2b00      	cmp	r3, #0
 80033f2:	d0f0      	beq.n	80033d6 <HAL_RCC_OscConfig+0xd6>
 80033f4:	e014      	b.n	8003420 <HAL_RCC_OscConfig+0x120>
        }
      }
      else
      {
        /* Get Start Tick*/
        tickstart = HAL_GetTick();
 80033f6:	f7fe fa25 	bl	8001844 <HAL_GetTick>
 80033fa:	6138      	str	r0, [r7, #16]

        /* Wait till HSE is bypassed or disabled */
        while(__HAL_RCC_GET_FLAG(RCC_FLAG_HSERDY) != RESET)
 80033fc:	e008      	b.n	8003410 <HAL_RCC_OscConfig+0x110>
        {
          if((HAL_GetTick() - tickstart ) > HSE_TIMEOUT_VALUE)
 80033fe:	f7fe fa21 	bl	8001844 <HAL_GetTick>
 8003402:	4602      	mov	r2, r0
 8003404:	693b      	ldr	r3, [r7, #16]
 8003406:	1ad3      	subs	r3, r2, r3
 8003408:	2b64      	cmp	r3, #100	; 0x64
 800340a:	d901      	bls.n	8003410 <HAL_RCC_OscConfig+0x110>
          {
            return HAL_TIMEOUT;
 800340c:	2303      	movs	r3, #3
 800340e:	e1c7      	b.n	80037a0 <HAL_RCC_OscConfig+0x4a0>
        while(__HAL_RCC_GET_FLAG(RCC_FLAG_HSERDY) != RESET)
 8003410:	4b57      	ldr	r3, [pc, #348]	; (8003570 <HAL_RCC_OscConfig+0x270>)
 8003412:	681b      	ldr	r3, [r3, #0]
 8003414:	f403 3300 	and.w	r3, r3, #131072	; 0x20000
 8003418:	2b00      	cmp	r3, #0
 800341a:	d1f0      	bne.n	80033fe <HAL_RCC_OscConfig+0xfe>
 800341c:	e000      	b.n	8003420 <HAL_RCC_OscConfig+0x120>
      if((__HAL_RCC_GET_FLAG(RCC_FLAG_HSERDY) != RESET) && (RCC_OscInitStruct->HSEState == RCC_HSE_OFF))
 800341e:	bf00      	nop
        }
      }
    }
  }
  /*----------------------------- HSI Configuration --------------------------*/
  if(((RCC_OscInitStruct->OscillatorType) & RCC_OSCILLATORTYPE_HSI) == RCC_OSCILLATORTYPE_HSI)
 8003420:	687b      	ldr	r3, [r7, #4]
 8003422:	681b      	ldr	r3, [r3, #0]
 8003424:	f003 0302 	and.w	r3, r3, #2
 8003428:	2b00      	cmp	r3, #0
 800342a:	d06f      	beq.n	800350c <HAL_RCC_OscConfig+0x20c>
    assert_param(IS_RCC_HSI(RCC_OscInitStruct->HSIState));
    assert_param(IS_RCC_CALIBRATION_VALUE(RCC_OscInitStruct->HSICalibrationValue));

    /* Check if HSI is used as system clock or as PLL source when PLL is selected as system clock */
#if defined(STM32F446xx)
    if((__HAL_RCC_GET_SYSCLK_SOURCE() == RCC_CFGR_SWS_HSI)                                                                     ||\
 800342c:	4b50      	ldr	r3, [pc, #320]	; (8003570 <HAL_RCC_OscConfig+0x270>)
 800342e:	689b      	ldr	r3, [r3, #8]
 8003430:	f003 030c 	and.w	r3, r3, #12
 8003434:	2b00      	cmp	r3, #0
 8003436:	d017      	beq.n	8003468 <HAL_RCC_OscConfig+0x168>
      ((__HAL_RCC_GET_SYSCLK_SOURCE() == RCC_CFGR_SWS_PLL) && ((RCC->PLLCFGR & RCC_PLLCFGR_PLLSRC) == RCC_PLLCFGR_PLLSRC_HSI)) ||\
 8003438:	4b4d      	ldr	r3, [pc, #308]	; (8003570 <HAL_RCC_OscConfig+0x270>)
 800343a:	689b      	ldr	r3, [r3, #8]
 800343c:	f003 030c 	and.w	r3, r3, #12
    if((__HAL_RCC_GET_SYSCLK_SOURCE() == RCC_CFGR_SWS_HSI)                                                                     ||\
 8003440:	2b08      	cmp	r3, #8
 8003442:	d105      	bne.n	8003450 <HAL_RCC_OscConfig+0x150>
      ((__HAL_RCC_GET_SYSCLK_SOURCE() == RCC_CFGR_SWS_PLL) && ((RCC->PLLCFGR & RCC_PLLCFGR_PLLSRC) == RCC_PLLCFGR_PLLSRC_HSI)) ||\
 8003444:	4b4a      	ldr	r3, [pc, #296]	; (8003570 <HAL_RCC_OscConfig+0x270>)
 8003446:	685b      	ldr	r3, [r3, #4]
 8003448:	f403 0380 	and.w	r3, r3, #4194304	; 0x400000
 800344c:	2b00      	cmp	r3, #0
 800344e:	d00b      	beq.n	8003468 <HAL_RCC_OscConfig+0x168>
      ((__HAL_RCC_GET_SYSCLK_SOURCE() == RCC_CFGR_SWS_PLLR) && ((RCC->PLLCFGR & RCC_PLLCFGR_PLLSRC) == RCC_PLLCFGR_PLLSRC_HSI)))
 8003450:	4b47      	ldr	r3, [pc, #284]	; (8003570 <HAL_RCC_OscConfig+0x270>)
 8003452:	689b      	ldr	r3, [r3, #8]
 8003454:	f003 030c 	and.w	r3, r3, #12
      ((__HAL_RCC_GET_SYSCLK_SOURCE() == RCC_CFGR_SWS_PLL) && ((RCC->PLLCFGR & RCC_PLLCFGR_PLLSRC) == RCC_PLLCFGR_PLLSRC_HSI)) ||\
 8003458:	2b0c      	cmp	r3, #12
 800345a:	d11c      	bne.n	8003496 <HAL_RCC_OscConfig+0x196>
      ((__HAL_RCC_GET_SYSCLK_SOURCE() == RCC_CFGR_SWS_PLLR) && ((RCC->PLLCFGR & RCC_PLLCFGR_PLLSRC) == RCC_PLLCFGR_PLLSRC_HSI)))
 800345c:	4b44      	ldr	r3, [pc, #272]	; (8003570 <HAL_RCC_OscConfig+0x270>)
 800345e:	685b      	ldr	r3, [r3, #4]
 8003460:	f403 0380 	and.w	r3, r3, #4194304	; 0x400000
 8003464:	2b00      	cmp	r3, #0
 8003466:	d116      	bne.n	8003496 <HAL_RCC_OscConfig+0x196>
    if((__HAL_RCC_GET_SYSCLK_SOURCE() == RCC_CFGR_SWS_HSI)                                                                     ||\
      ((__HAL_RCC_GET_SYSCLK_SOURCE() == RCC_CFGR_SWS_PLL) && ((RCC->PLLCFGR & RCC_PLLCFGR_PLLSRC) == RCC_PLLCFGR_PLLSRC_HSI)))
#endif /* STM32F446xx */
    {
      /* When HSI is used as system clock it will not disabled */
      if((__HAL_RCC_GET_FLAG(RCC_FLAG_HSIRDY) != RESET) && (RCC_OscInitStruct->HSIState != RCC_HSI_ON))
 8003468:	4b41      	ldr	r3, [pc, #260]	; (8003570 <HAL_RCC_OscConfig+0x270>)
 800346a:	681b      	ldr	r3, [r3, #0]
 800346c:	f003 0302 	and.w	r3, r3, #2
 8003470:	2b00      	cmp	r3, #0
 8003472:	d005      	beq.n	8003480 <HAL_RCC_OscConfig+0x180>
 8003474:	687b      	ldr	r3, [r7, #4]
 8003476:	68db      	ldr	r3, [r3, #12]
 8003478:	2b01      	cmp	r3, #1
 800347a:	d001      	beq.n	8003480 <HAL_RCC_OscConfig+0x180>
      {
        return HAL_ERROR;
 800347c:	2301      	movs	r3, #1
 800347e:	e18f      	b.n	80037a0 <HAL_RCC_OscConfig+0x4a0>
      }
      /* Otherwise, just the calibration is allowed */
      else
      {
        /* Adjusts the Internal High Speed oscillator (HSI) calibration value.*/
        __HAL_RCC_HSI_CALIBRATIONVALUE_ADJUST(RCC_OscInitStruct->HSICalibrationValue);
 8003480:	4b3b      	ldr	r3, [pc, #236]	; (8003570 <HAL_RCC_OscConfig+0x270>)
 8003482:	681b      	ldr	r3, [r3, #0]
 8003484:	f023 02f8 	bic.w	r2, r3, #248	; 0xf8
 8003488:	687b      	ldr	r3, [r7, #4]
 800348a:	691b      	ldr	r3, [r3, #16]
 800348c:	00db      	lsls	r3, r3, #3
 800348e:	4938      	ldr	r1, [pc, #224]	; (8003570 <HAL_RCC_OscConfig+0x270>)
 8003490:	4313      	orrs	r3, r2
 8003492:	600b      	str	r3, [r1, #0]
      if((__HAL_RCC_GET_FLAG(RCC_FLAG_HSIRDY) != RESET) && (RCC_OscInitStruct->HSIState != RCC_HSI_ON))
 8003494:	e03a      	b.n	800350c <HAL_RCC_OscConfig+0x20c>
      }
    }
    else
    {
      /* Check the HSI State */
      if((RCC_OscInitStruct->HSIState)!= RCC_HSI_OFF)
 8003496:	687b      	ldr	r3, [r7, #4]
 8003498:	68db      	ldr	r3, [r3, #12]
 800349a:	2b00      	cmp	r3, #0
 800349c:	d020      	beq.n	80034e0 <HAL_RCC_OscConfig+0x1e0>
      {
        /* Enable the Internal High Speed oscillator (HSI). */
        __HAL_RCC_HSI_ENABLE();
 800349e:	4b35      	ldr	r3, [pc, #212]	; (8003574 <HAL_RCC_OscConfig+0x274>)
 80034a0:	2201      	movs	r2, #1
 80034a2:	601a      	str	r2, [r3, #0]

        /* Get Start Tick*/
        tickstart = HAL_GetTick();
 80034a4:	f7fe f9ce 	bl	8001844 <HAL_GetTick>
 80034a8:	6138      	str	r0, [r7, #16]

        /* Wait till HSI is ready */
        while(__HAL_RCC_GET_FLAG(RCC_FLAG_HSIRDY) == RESET)
 80034aa:	e008      	b.n	80034be <HAL_RCC_OscConfig+0x1be>
        {
          if((HAL_GetTick() - tickstart ) > HSI_TIMEOUT_VALUE)
 80034ac:	f7fe f9ca 	bl	8001844 <HAL_GetTick>
 80034b0:	4602      	mov	r2, r0
 80034b2:	693b      	ldr	r3, [r7, #16]
 80034b4:	1ad3      	subs	r3, r2, r3
 80034b6:	2b02      	cmp	r3, #2
 80034b8:	d901      	bls.n	80034be <HAL_RCC_OscConfig+0x1be>
          {
            return HAL_TIMEOUT;
 80034ba:	2303      	movs	r3, #3
 80034bc:	e170      	b.n	80037a0 <HAL_RCC_OscConfig+0x4a0>
        while(__HAL_RCC_GET_FLAG(RCC_FLAG_HSIRDY) == RESET)
 80034be:	4b2c      	ldr	r3, [pc, #176]	; (8003570 <HAL_RCC_OscConfig+0x270>)
 80034c0:	681b      	ldr	r3, [r3, #0]
 80034c2:	f003 0302 	and.w	r3, r3, #2
 80034c6:	2b00      	cmp	r3, #0
 80034c8:	d0f0      	beq.n	80034ac <HAL_RCC_OscConfig+0x1ac>
          }
        }

        /* Adjusts the Internal High Speed oscillator (HSI) calibration value.*/
        __HAL_RCC_HSI_CALIBRATIONVALUE_ADJUST(RCC_OscInitStruct->HSICalibrationValue);
 80034ca:	4b29      	ldr	r3, [pc, #164]	; (8003570 <HAL_RCC_OscConfig+0x270>)
 80034cc:	681b      	ldr	r3, [r3, #0]
 80034ce:	f023 02f8 	bic.w	r2, r3, #248	; 0xf8
 80034d2:	687b      	ldr	r3, [r7, #4]
 80034d4:	691b      	ldr	r3, [r3, #16]
 80034d6:	00db      	lsls	r3, r3, #3
 80034d8:	4925      	ldr	r1, [pc, #148]	; (8003570 <HAL_RCC_OscConfig+0x270>)
 80034da:	4313      	orrs	r3, r2
 80034dc:	600b      	str	r3, [r1, #0]
 80034de:	e015      	b.n	800350c <HAL_RCC_OscConfig+0x20c>
      }
      else
      {
        /* Disable the Internal High Speed oscillator (HSI). */
        __HAL_RCC_HSI_DISABLE();
 80034e0:	4b24      	ldr	r3, [pc, #144]	; (8003574 <HAL_RCC_OscConfig+0x274>)
 80034e2:	2200      	movs	r2, #0
 80034e4:	601a      	str	r2, [r3, #0]

        /* Get Start Tick*/
        tickstart = HAL_GetTick();
 80034e6:	f7fe f9ad 	bl	8001844 <HAL_GetTick>
 80034ea:	6138      	str	r0, [r7, #16]

        /* Wait till HSI is ready */
        while(__HAL_RCC_GET_FLAG(RCC_FLAG_HSIRDY) != RESET)
 80034ec:	e008      	b.n	8003500 <HAL_RCC_OscConfig+0x200>
        {
          if((HAL_GetTick() - tickstart ) > HSI_TIMEOUT_VALUE)
 80034ee:	f7fe f9a9 	bl	8001844 <HAL_GetTick>
 80034f2:	4602      	mov	r2, r0
 80034f4:	693b      	ldr	r3, [r7, #16]
 80034f6:	1ad3      	subs	r3, r2, r3
 80034f8:	2b02      	cmp	r3, #2
 80034fa:	d901      	bls.n	8003500 <HAL_RCC_OscConfig+0x200>
          {
            return HAL_TIMEOUT;
 80034fc:	2303      	movs	r3, #3
 80034fe:	e14f      	b.n	80037a0 <HAL_RCC_OscConfig+0x4a0>
        while(__HAL_RCC_GET_FLAG(RCC_FLAG_HSIRDY) != RESET)
 8003500:	4b1b      	ldr	r3, [pc, #108]	; (8003570 <HAL_RCC_OscConfig+0x270>)
 8003502:	681b      	ldr	r3, [r3, #0]
 8003504:	f003 0302 	and.w	r3, r3, #2
 8003508:	2b00      	cmp	r3, #0
 800350a:	d1f0      	bne.n	80034ee <HAL_RCC_OscConfig+0x1ee>
        }
      }
    }
  }
  /*------------------------------ LSI Configuration -------------------------*/
  if(((RCC_OscInitStruct->OscillatorType) & RCC_OSCILLATORTYPE_LSI) == RCC_OSCILLATORTYPE_LSI)
 800350c:	687b      	ldr	r3, [r7, #4]
 800350e:	681b      	ldr	r3, [r3, #0]
 8003510:	f003 0308 	and.w	r3, r3, #8
 8003514:	2b00      	cmp	r3, #0
 8003516:	d037      	beq.n	8003588 <HAL_RCC_OscConfig+0x288>
  {
    /* Check the parameters */
    assert_param(IS_RCC_LSI(RCC_OscInitStruct->LSIState));

    /* Check the LSI State */
    if((RCC_OscInitStruct->LSIState)!= RCC_LSI_OFF)
 8003518:	687b      	ldr	r3, [r7, #4]
 800351a:	695b      	ldr	r3, [r3, #20]
 800351c:	2b00      	cmp	r3, #0
 800351e:	d016      	beq.n	800354e <HAL_RCC_OscConfig+0x24e>
    {
      /* Enable the Internal Low Speed oscillator (LSI). */
      __HAL_RCC_LSI_ENABLE();
 8003520:	4b15      	ldr	r3, [pc, #84]	; (8003578 <HAL_RCC_OscConfig+0x278>)
 8003522:	2201      	movs	r2, #1
 8003524:	601a      	str	r2, [r3, #0]

      /* Get Start Tick*/
      tickstart = HAL_GetTick();
 8003526:	f7fe f98d 	bl	8001844 <HAL_GetTick>
 800352a:	6138      	str	r0, [r7, #16]

      /* Wait till LSI is ready */
      while(__HAL_RCC_GET_FLAG(RCC_FLAG_LSIRDY) == RESET)
 800352c:	e008      	b.n	8003540 <HAL_RCC_OscConfig+0x240>
      {
        if((HAL_GetTick() - tickstart ) > LSI_TIMEOUT_VALUE)
 800352e:	f7fe f989 	bl	8001844 <HAL_GetTick>
 8003532:	4602      	mov	r2, r0
 8003534:	693b      	ldr	r3, [r7, #16]
 8003536:	1ad3      	subs	r3, r2, r3
 8003538:	2b02      	cmp	r3, #2
 800353a:	d901      	bls.n	8003540 <HAL_RCC_OscConfig+0x240>
        {
          return HAL_TIMEOUT;
 800353c:	2303      	movs	r3, #3
 800353e:	e12f      	b.n	80037a0 <HAL_RCC_OscConfig+0x4a0>
      while(__HAL_RCC_GET_FLAG(RCC_FLAG_LSIRDY) == RESET)
 8003540:	4b0b      	ldr	r3, [pc, #44]	; (8003570 <HAL_RCC_OscConfig+0x270>)
 8003542:	6f5b      	ldr	r3, [r3, #116]	; 0x74
 8003544:	f003 0302 	and.w	r3, r3, #2
 8003548:	2b00      	cmp	r3, #0
 800354a:	d0f0      	beq.n	800352e <HAL_RCC_OscConfig+0x22e>
 800354c:	e01c      	b.n	8003588 <HAL_RCC_OscConfig+0x288>
      }
    }
    else
    {
      /* Disable the Internal Low Speed oscillator (LSI). */
      __HAL_RCC_LSI_DISABLE();
 800354e:	4b0a      	ldr	r3, [pc, #40]	; (8003578 <HAL_RCC_OscConfig+0x278>)
 8003550:	2200      	movs	r2, #0
 8003552:	601a      	str	r2, [r3, #0]

      /* Get Start Tick*/
      tickstart = HAL_GetTick();
 8003554:	f7fe f976 	bl	8001844 <HAL_GetTick>
 8003558:	6138      	str	r0, [r7, #16]

      /* Wait till LSI is ready */
      while(__HAL_RCC_GET_FLAG(RCC_FLAG_LSIRDY) != RESET)
 800355a:	e00f      	b.n	800357c <HAL_RCC_OscConfig+0x27c>
      {
        if((HAL_GetTick() - tickstart ) > LSI_TIMEOUT_VALUE)
 800355c:	f7fe f972 	bl	8001844 <HAL_GetTick>
 8003560:	4602      	mov	r2, r0
 8003562:	693b      	ldr	r3, [r7, #16]
 8003564:	1ad3      	subs	r3, r2, r3
 8003566:	2b02      	cmp	r3, #2
 8003568:	d908      	bls.n	800357c <HAL_RCC_OscConfig+0x27c>
        {
          return HAL_TIMEOUT;
 800356a:	2303      	movs	r3, #3
 800356c:	e118      	b.n	80037a0 <HAL_RCC_OscConfig+0x4a0>
 800356e:	bf00      	nop
 8003570:	40023800 	.word	0x40023800
 8003574:	42470000 	.word	0x42470000
 8003578:	42470e80 	.word	0x42470e80
      while(__HAL_RCC_GET_FLAG(RCC_FLAG_LSIRDY) != RESET)
 800357c:	4b8a      	ldr	r3, [pc, #552]	; (80037a8 <HAL_RCC_OscConfig+0x4a8>)
 800357e:	6f5b      	ldr	r3, [r3, #116]	; 0x74
 8003580:	f003 0302 	and.w	r3, r3, #2
 8003584:	2b00      	cmp	r3, #0
 8003586:	d1e9      	bne.n	800355c <HAL_RCC_OscConfig+0x25c>
        }
      }
    }
  }
  /*------------------------------ LSE Configuration -------------------------*/
  if(((RCC_OscInitStruct->OscillatorType) & RCC_OSCILLATORTYPE_LSE) == RCC_OSCILLATORTYPE_LSE)
 8003588:	687b      	ldr	r3, [r7, #4]
 800358a:	681b      	ldr	r3, [r3, #0]
 800358c:	f003 0304 	and.w	r3, r3, #4
 8003590:	2b00      	cmp	r3, #0
 8003592:	f000 8097 	beq.w	80036c4 <HAL_RCC_OscConfig+0x3c4>
  {
    FlagStatus       pwrclkchanged = RESET;
 8003596:	2300      	movs	r3, #0
 8003598:	75fb      	strb	r3, [r7, #23]
    /* Check the parameters */
    assert_param(IS_RCC_LSE(RCC_OscInitStruct->LSEState));

    /* Update LSE configuration in Backup Domain control register    */
    /* Requires to enable write access to Backup Domain of necessary */
    if(__HAL_RCC_PWR_IS_CLK_DISABLED())
 800359a:	4b83      	ldr	r3, [pc, #524]	; (80037a8 <HAL_RCC_OscConfig+0x4a8>)
 800359c:	6c1b      	ldr	r3, [r3, #64]	; 0x40
 800359e:	f003 5380 	and.w	r3, r3, #268435456	; 0x10000000
 80035a2:	2b00      	cmp	r3, #0
 80035a4:	d10f      	bne.n	80035c6 <HAL_RCC_OscConfig+0x2c6>
    {
      __HAL_RCC_PWR_CLK_ENABLE();
 80035a6:	2300      	movs	r3, #0
 80035a8:	60fb      	str	r3, [r7, #12]
 80035aa:	4b7f      	ldr	r3, [pc, #508]	; (80037a8 <HAL_RCC_OscConfig+0x4a8>)
 80035ac:	6c1b      	ldr	r3, [r3, #64]	; 0x40
 80035ae:	4a7e      	ldr	r2, [pc, #504]	; (80037a8 <HAL_RCC_OscConfig+0x4a8>)
 80035b0:	f043 5380 	orr.w	r3, r3, #268435456	; 0x10000000
 80035b4:	6413      	str	r3, [r2, #64]	; 0x40
 80035b6:	4b7c      	ldr	r3, [pc, #496]	; (80037a8 <HAL_RCC_OscConfig+0x4a8>)
 80035b8:	6c1b      	ldr	r3, [r3, #64]	; 0x40
 80035ba:	f003 5380 	and.w	r3, r3, #268435456	; 0x10000000
 80035be:	60fb      	str	r3, [r7, #12]
 80035c0:	68fb      	ldr	r3, [r7, #12]
      pwrclkchanged = SET;
 80035c2:	2301      	movs	r3, #1
 80035c4:	75fb      	strb	r3, [r7, #23]
    }

    if(HAL_IS_BIT_CLR(PWR->CR, PWR_CR_DBP))
 80035c6:	4b79      	ldr	r3, [pc, #484]	; (80037ac <HAL_RCC_OscConfig+0x4ac>)
 80035c8:	681b      	ldr	r3, [r3, #0]
 80035ca:	f403 7380 	and.w	r3, r3, #256	; 0x100
 80035ce:	2b00      	cmp	r3, #0
 80035d0:	d118      	bne.n	8003604 <HAL_RCC_OscConfig+0x304>
    {
      /* Enable write access to Backup domain */
      SET_BIT(PWR->CR, PWR_CR_DBP);
 80035d2:	4b76      	ldr	r3, [pc, #472]	; (80037ac <HAL_RCC_OscConfig+0x4ac>)
 80035d4:	681b      	ldr	r3, [r3, #0]
 80035d6:	4a75      	ldr	r2, [pc, #468]	; (80037ac <HAL_RCC_OscConfig+0x4ac>)
 80035d8:	f443 7380 	orr.w	r3, r3, #256	; 0x100
 80035dc:	6013      	str	r3, [r2, #0]

      /* Wait for Backup domain Write protection disable */
      tickstart = HAL_GetTick();
 80035de:	f7fe f931 	bl	8001844 <HAL_GetTick>
 80035e2:	6138      	str	r0, [r7, #16]

      while(HAL_IS_BIT_CLR(PWR->CR, PWR_CR_DBP))
 80035e4:	e008      	b.n	80035f8 <HAL_RCC_OscConfig+0x2f8>
      {
        if((HAL_GetTick() - tickstart) > RCC_DBP_TIMEOUT_VALUE)
 80035e6:	f7fe f92d 	bl	8001844 <HAL_GetTick>
 80035ea:	4602      	mov	r2, r0
 80035ec:	693b      	ldr	r3, [r7, #16]
 80035ee:	1ad3      	subs	r3, r2, r3
 80035f0:	2b02      	cmp	r3, #2
 80035f2:	d901      	bls.n	80035f8 <HAL_RCC_OscConfig+0x2f8>
        {
          return HAL_TIMEOUT;
 80035f4:	2303      	movs	r3, #3
 80035f6:	e0d3      	b.n	80037a0 <HAL_RCC_OscConfig+0x4a0>
      while(HAL_IS_BIT_CLR(PWR->CR, PWR_CR_DBP))
 80035f8:	4b6c      	ldr	r3, [pc, #432]	; (80037ac <HAL_RCC_OscConfig+0x4ac>)
 80035fa:	681b      	ldr	r3, [r3, #0]
 80035fc:	f403 7380 	and.w	r3, r3, #256	; 0x100
 8003600:	2b00      	cmp	r3, #0
 8003602:	d0f0      	beq.n	80035e6 <HAL_RCC_OscConfig+0x2e6>
        }
      }
    }

    /* Set the new LSE configuration -----------------------------------------*/
    __HAL_RCC_LSE_CONFIG(RCC_OscInitStruct->LSEState);
 8003604:	687b      	ldr	r3, [r7, #4]
 8003606:	689b      	ldr	r3, [r3, #8]
 8003608:	2b01      	cmp	r3, #1
 800360a:	d106      	bne.n	800361a <HAL_RCC_OscConfig+0x31a>
 800360c:	4b66      	ldr	r3, [pc, #408]	; (80037a8 <HAL_RCC_OscConfig+0x4a8>)
 800360e:	6f1b      	ldr	r3, [r3, #112]	; 0x70
 8003610:	4a65      	ldr	r2, [pc, #404]	; (80037a8 <HAL_RCC_OscConfig+0x4a8>)
 8003612:	f043 0301 	orr.w	r3, r3, #1
 8003616:	6713      	str	r3, [r2, #112]	; 0x70
 8003618:	e01c      	b.n	8003654 <HAL_RCC_OscConfig+0x354>
 800361a:	687b      	ldr	r3, [r7, #4]
 800361c:	689b      	ldr	r3, [r3, #8]
 800361e:	2b05      	cmp	r3, #5
 8003620:	d10c      	bne.n	800363c <HAL_RCC_OscConfig+0x33c>
 8003622:	4b61      	ldr	r3, [pc, #388]	; (80037a8 <HAL_RCC_OscConfig+0x4a8>)
 8003624:	6f1b      	ldr	r3, [r3, #112]	; 0x70
 8003626:	4a60      	ldr	r2, [pc, #384]	; (80037a8 <HAL_RCC_OscConfig+0x4a8>)
 8003628:	f043 0304 	orr.w	r3, r3, #4
 800362c:	6713      	str	r3, [r2, #112]	; 0x70
 800362e:	4b5e      	ldr	r3, [pc, #376]	; (80037a8 <HAL_RCC_OscConfig+0x4a8>)
 8003630:	6f1b      	ldr	r3, [r3, #112]	; 0x70
 8003632:	4a5d      	ldr	r2, [pc, #372]	; (80037a8 <HAL_RCC_OscConfig+0x4a8>)
 8003634:	f043 0301 	orr.w	r3, r3, #1
 8003638:	6713      	str	r3, [r2, #112]	; 0x70
 800363a:	e00b      	b.n	8003654 <HAL_RCC_OscConfig+0x354>
 800363c:	4b5a      	ldr	r3, [pc, #360]	; (80037a8 <HAL_RCC_OscConfig+0x4a8>)
 800363e:	6f1b      	ldr	r3, [r3, #112]	; 0x70
 8003640:	4a59      	ldr	r2, [pc, #356]	; (80037a8 <HAL_RCC_OscConfig+0x4a8>)
 8003642:	f023 0301 	bic.w	r3, r3, #1
 8003646:	6713      	str	r3, [r2, #112]	; 0x70
 8003648:	4b57      	ldr	r3, [pc, #348]	; (80037a8 <HAL_RCC_OscConfig+0x4a8>)
 800364a:	6f1b      	ldr	r3, [r3, #112]	; 0x70
 800364c:	4a56      	ldr	r2, [pc, #344]	; (80037a8 <HAL_RCC_OscConfig+0x4a8>)
 800364e:	f023 0304 	bic.w	r3, r3, #4
 8003652:	6713      	str	r3, [r2, #112]	; 0x70
    /* Check the LSE State */
    if((RCC_OscInitStruct->LSEState) != RCC_LSE_OFF)
 8003654:	687b      	ldr	r3, [r7, #4]
 8003656:	689b      	ldr	r3, [r3, #8]
 8003658:	2b00      	cmp	r3, #0
 800365a:	d015      	beq.n	8003688 <HAL_RCC_OscConfig+0x388>
    {
      /* Get Start Tick*/
      tickstart = HAL_GetTick();
 800365c:	f7fe f8f2 	bl	8001844 <HAL_GetTick>
 8003660:	6138      	str	r0, [r7, #16]

      /* Wait till LSE is ready */
      while(__HAL_RCC_GET_FLAG(RCC_FLAG_LSERDY) == RESET)
 8003662:	e00a      	b.n	800367a <HAL_RCC_OscConfig+0x37a>
      {
        if((HAL_GetTick() - tickstart ) > RCC_LSE_TIMEOUT_VALUE)
 8003664:	f7fe f8ee 	bl	8001844 <HAL_GetTick>
 8003668:	4602      	mov	r2, r0
 800366a:	693b      	ldr	r3, [r7, #16]
 800366c:	1ad3      	subs	r3, r2, r3
 800366e:	f241 3288 	movw	r2, #5000	; 0x1388
 8003672:	4293      	cmp	r3, r2
 8003674:	d901      	bls.n	800367a <HAL_RCC_OscConfig+0x37a>
        {
          return HAL_TIMEOUT;
 8003676:	2303      	movs	r3, #3
 8003678:	e092      	b.n	80037a0 <HAL_RCC_OscConfig+0x4a0>
      while(__HAL_RCC_GET_FLAG(RCC_FLAG_LSERDY) == RESET)
 800367a:	4b4b      	ldr	r3, [pc, #300]	; (80037a8 <HAL_RCC_OscConfig+0x4a8>)
 800367c:	6f1b      	ldr	r3, [r3, #112]	; 0x70
 800367e:	f003 0302 	and.w	r3, r3, #2
 8003682:	2b00      	cmp	r3, #0
 8003684:	d0ee      	beq.n	8003664 <HAL_RCC_OscConfig+0x364>
 8003686:	e014      	b.n	80036b2 <HAL_RCC_OscConfig+0x3b2>
      }
    }
    else
    {
      /* Get Start Tick*/
      tickstart = HAL_GetTick();
 8003688:	f7fe f8dc 	bl	8001844 <HAL_GetTick>
 800368c:	6138      	str	r0, [r7, #16]

      /* Wait till LSE is ready */
      while(__HAL_RCC_GET_FLAG(RCC_FLAG_LSERDY) != RESET)
 800368e:	e00a      	b.n	80036a6 <HAL_RCC_OscConfig+0x3a6>
      {
        if((HAL_GetTick() - tickstart ) > RCC_LSE_TIMEOUT_VALUE)
 8003690:	f7fe f8d8 	bl	8001844 <HAL_GetTick>
 8003694:	4602      	mov	r2, r0
 8003696:	693b      	ldr	r3, [r7, #16]
 8003698:	1ad3      	subs	r3, r2, r3
 800369a:	f241 3288 	movw	r2, #5000	; 0x1388
 800369e:	4293      	cmp	r3, r2
 80036a0:	d901      	bls.n	80036a6 <HAL_RCC_OscConfig+0x3a6>
        {
          return HAL_TIMEOUT;
 80036a2:	2303      	movs	r3, #3
 80036a4:	e07c      	b.n	80037a0 <HAL_RCC_OscConfig+0x4a0>
      while(__HAL_RCC_GET_FLAG(RCC_FLAG_LSERDY) != RESET)
 80036a6:	4b40      	ldr	r3, [pc, #256]	; (80037a8 <HAL_RCC_OscConfig+0x4a8>)
 80036a8:	6f1b      	ldr	r3, [r3, #112]	; 0x70
 80036aa:	f003 0302 	and.w	r3, r3, #2
 80036ae:	2b00      	cmp	r3, #0
 80036b0:	d1ee      	bne.n	8003690 <HAL_RCC_OscConfig+0x390>
        }
      }
    }

    /* Restore clock configuration if changed */
    if(pwrclkchanged == SET)
 80036b2:	7dfb      	ldrb	r3, [r7, #23]
 80036b4:	2b01      	cmp	r3, #1
 80036b6:	d105      	bne.n	80036c4 <HAL_RCC_OscConfig+0x3c4>
    {
      __HAL_RCC_PWR_CLK_DISABLE();
 80036b8:	4b3b      	ldr	r3, [pc, #236]	; (80037a8 <HAL_RCC_OscConfig+0x4a8>)
 80036ba:	6c1b      	ldr	r3, [r3, #64]	; 0x40
 80036bc:	4a3a      	ldr	r2, [pc, #232]	; (80037a8 <HAL_RCC_OscConfig+0x4a8>)
 80036be:	f023 5380 	bic.w	r3, r3, #268435456	; 0x10000000
 80036c2:	6413      	str	r3, [r2, #64]	; 0x40
    }
  }
  /*-------------------------------- PLL Configuration -----------------------*/
  /* Check the parameters */
  assert_param(IS_RCC_PLL(RCC_OscInitStruct->PLL.PLLState));
  if ((RCC_OscInitStruct->PLL.PLLState) != RCC_PLL_NONE)
 80036c4:	687b      	ldr	r3, [r7, #4]
 80036c6:	699b      	ldr	r3, [r3, #24]
 80036c8:	2b00      	cmp	r3, #0
 80036ca:	d068      	beq.n	800379e <HAL_RCC_OscConfig+0x49e>
  {
    /* Check if the PLL is used as system clock or not */
    if(__HAL_RCC_GET_SYSCLK_SOURCE() != RCC_CFGR_SWS_PLL)
 80036cc:	4b36      	ldr	r3, [pc, #216]	; (80037a8 <HAL_RCC_OscConfig+0x4a8>)
 80036ce:	689b      	ldr	r3, [r3, #8]
 80036d0:	f003 030c 	and.w	r3, r3, #12
 80036d4:	2b08      	cmp	r3, #8
 80036d6:	d060      	beq.n	800379a <HAL_RCC_OscConfig+0x49a>
    {
      if((RCC_OscInitStruct->PLL.PLLState) == RCC_PLL_ON)
 80036d8:	687b      	ldr	r3, [r7, #4]
 80036da:	699b      	ldr	r3, [r3, #24]
 80036dc:	2b02      	cmp	r3, #2
 80036de:	d145      	bne.n	800376c <HAL_RCC_OscConfig+0x46c>
        assert_param(IS_RCC_PLLP_VALUE(RCC_OscInitStruct->PLL.PLLP));
        assert_param(IS_RCC_PLLQ_VALUE(RCC_OscInitStruct->PLL.PLLQ));
        assert_param(IS_RCC_PLLR_VALUE(RCC_OscInitStruct->PLL.PLLR));

        /* Disable the main PLL. */
        __HAL_RCC_PLL_DISABLE();
 80036e0:	4b33      	ldr	r3, [pc, #204]	; (80037b0 <HAL_RCC_OscConfig+0x4b0>)
 80036e2:	2200      	movs	r2, #0
 80036e4:	601a      	str	r2, [r3, #0]

        /* Get Start Tick*/
        tickstart = HAL_GetTick();
 80036e6:	f7fe f8ad 	bl	8001844 <HAL_GetTick>
 80036ea:	6138      	str	r0, [r7, #16]

        /* Wait till PLL is ready */
        while(__HAL_RCC_GET_FLAG(RCC_FLAG_PLLRDY) != RESET)
 80036ec:	e008      	b.n	8003700 <HAL_RCC_OscConfig+0x400>
        {
          if((HAL_GetTick() - tickstart ) > PLL_TIMEOUT_VALUE)
 80036ee:	f7fe f8a9 	bl	8001844 <HAL_GetTick>
 80036f2:	4602      	mov	r2, r0
 80036f4:	693b      	ldr	r3, [r7, #16]
 80036f6:	1ad3      	subs	r3, r2, r3
 80036f8:	2b02      	cmp	r3, #2
 80036fa:	d901      	bls.n	8003700 <HAL_RCC_OscConfig+0x400>
          {
            return HAL_TIMEOUT;
 80036fc:	2303      	movs	r3, #3
 80036fe:	e04f      	b.n	80037a0 <HAL_RCC_OscConfig+0x4a0>
        while(__HAL_RCC_GET_FLAG(RCC_FLAG_PLLRDY) != RESET)
 8003700:	4b29      	ldr	r3, [pc, #164]	; (80037a8 <HAL_RCC_OscConfig+0x4a8>)
 8003702:	681b      	ldr	r3, [r3, #0]
 8003704:	f003 7300 	and.w	r3, r3, #33554432	; 0x2000000
 8003708:	2b00      	cmp	r3, #0
 800370a:	d1f0      	bne.n	80036ee <HAL_RCC_OscConfig+0x3ee>
          }
        }

        /* Configure the main PLL clock source, multiplication and division factors. */
        __HAL_RCC_PLL_CONFIG(RCC_OscInitStruct->PLL.PLLSource,
 800370c:	687b      	ldr	r3, [r7, #4]
 800370e:	69da      	ldr	r2, [r3, #28]
 8003710:	687b      	ldr	r3, [r7, #4]
 8003712:	6a1b      	ldr	r3, [r3, #32]
 8003714:	431a      	orrs	r2, r3
 8003716:	687b      	ldr	r3, [r7, #4]
 8003718:	6a5b      	ldr	r3, [r3, #36]	; 0x24
 800371a:	019b      	lsls	r3, r3, #6
 800371c:	431a      	orrs	r2, r3
 800371e:	687b      	ldr	r3, [r7, #4]
 8003720:	6a9b      	ldr	r3, [r3, #40]	; 0x28
 8003722:	085b      	lsrs	r3, r3, #1
 8003724:	3b01      	subs	r3, #1
 8003726:	041b      	lsls	r3, r3, #16
 8003728:	431a      	orrs	r2, r3
 800372a:	687b      	ldr	r3, [r7, #4]
 800372c:	6adb      	ldr	r3, [r3, #44]	; 0x2c
 800372e:	061b      	lsls	r3, r3, #24
 8003730:	431a      	orrs	r2, r3
 8003732:	687b      	ldr	r3, [r7, #4]
 8003734:	6b1b      	ldr	r3, [r3, #48]	; 0x30
 8003736:	071b      	lsls	r3, r3, #28
 8003738:	491b      	ldr	r1, [pc, #108]	; (80037a8 <HAL_RCC_OscConfig+0x4a8>)
 800373a:	4313      	orrs	r3, r2
 800373c:	604b      	str	r3, [r1, #4]
                             RCC_OscInitStruct->PLL.PLLP,
                             RCC_OscInitStruct->PLL.PLLQ,
                             RCC_OscInitStruct->PLL.PLLR);

        /* Enable the main PLL. */
        __HAL_RCC_PLL_ENABLE();
 800373e:	4b1c      	ldr	r3, [pc, #112]	; (80037b0 <HAL_RCC_OscConfig+0x4b0>)
 8003740:	2201      	movs	r2, #1
 8003742:	601a      	str	r2, [r3, #0]

        /* Get Start Tick*/
        tickstart = HAL_GetTick();
 8003744:	f7fe f87e 	bl	8001844 <HAL_GetTick>
 8003748:	6138      	str	r0, [r7, #16]

        /* Wait till PLL is ready */
        while(__HAL_RCC_GET_FLAG(RCC_FLAG_PLLRDY) == RESET)
 800374a:	e008      	b.n	800375e <HAL_RCC_OscConfig+0x45e>
        {
          if((HAL_GetTick() - tickstart ) > PLL_TIMEOUT_VALUE)
 800374c:	f7fe f87a 	bl	8001844 <HAL_GetTick>
 8003750:	4602      	mov	r2, r0
 8003752:	693b      	ldr	r3, [r7, #16]
 8003754:	1ad3      	subs	r3, r2, r3
 8003756:	2b02      	cmp	r3, #2
 8003758:	d901      	bls.n	800375e <HAL_RCC_OscConfig+0x45e>
          {
            return HAL_TIMEOUT;
 800375a:	2303      	movs	r3, #3
 800375c:	e020      	b.n	80037a0 <HAL_RCC_OscConfig+0x4a0>
        while(__HAL_RCC_GET_FLAG(RCC_FLAG_PLLRDY) == RESET)
 800375e:	4b12      	ldr	r3, [pc, #72]	; (80037a8 <HAL_RCC_OscConfig+0x4a8>)
 8003760:	681b      	ldr	r3, [r3, #0]
 8003762:	f003 7300 	and.w	r3, r3, #33554432	; 0x2000000
 8003766:	2b00      	cmp	r3, #0
 8003768:	d0f0      	beq.n	800374c <HAL_RCC_OscConfig+0x44c>
 800376a:	e018      	b.n	800379e <HAL_RCC_OscConfig+0x49e>
        }
      }
      else
      {
        /* Disable the main PLL. */
        __HAL_RCC_PLL_DISABLE();
 800376c:	4b10      	ldr	r3, [pc, #64]	; (80037b0 <HAL_RCC_OscConfig+0x4b0>)
 800376e:	2200      	movs	r2, #0
 8003770:	601a      	str	r2, [r3, #0]

        /* Get Start Tick*/
        tickstart = HAL_GetTick();
 8003772:	f7fe f867 	bl	8001844 <HAL_GetTick>
 8003776:	6138      	str	r0, [r7, #16]

        /* Wait till PLL is ready */
        while(__HAL_RCC_GET_FLAG(RCC_FLAG_PLLRDY) != RESET)
 8003778:	e008      	b.n	800378c <HAL_RCC_OscConfig+0x48c>
        {
          if((HAL_GetTick() - tickstart ) > PLL_TIMEOUT_VALUE)
 800377a:	f7fe f863 	bl	8001844 <HAL_GetTick>
 800377e:	4602      	mov	r2, r0
 8003780:	693b      	ldr	r3, [r7, #16]
 8003782:	1ad3      	subs	r3, r2, r3
 8003784:	2b02      	cmp	r3, #2
 8003786:	d901      	bls.n	800378c <HAL_RCC_OscConfig+0x48c>
          {
            return HAL_TIMEOUT;
 8003788:	2303      	movs	r3, #3
 800378a:	e009      	b.n	80037a0 <HAL_RCC_OscConfig+0x4a0>
        while(__HAL_RCC_GET_FLAG(RCC_FLAG_PLLRDY) != RESET)
 800378c:	4b06      	ldr	r3, [pc, #24]	; (80037a8 <HAL_RCC_OscConfig+0x4a8>)
 800378e:	681b      	ldr	r3, [r3, #0]
 8003790:	f003 7300 	and.w	r3, r3, #33554432	; 0x2000000
 8003794:	2b00      	cmp	r3, #0
 8003796:	d1f0      	bne.n	800377a <HAL_RCC_OscConfig+0x47a>
 8003798:	e001      	b.n	800379e <HAL_RCC_OscConfig+0x49e>
        }
      }
    }
    else
    {
      return HAL_ERROR;
 800379a:	2301      	movs	r3, #1
 800379c:	e000      	b.n	80037a0 <HAL_RCC_OscConfig+0x4a0>
    }
  }
  return HAL_OK;
 800379e:	2300      	movs	r3, #0
}
 80037a0:	4618      	mov	r0, r3
 80037a2:	3718      	adds	r7, #24
 80037a4:	46bd      	mov	sp, r7
 80037a6:	bd80      	pop	{r7, pc}
 80037a8:	40023800 	.word	0x40023800
 80037ac:	40007000 	.word	0x40007000
 80037b0:	42470060 	.word	0x42470060

080037b4 <HAL_UART_Init>:
  * @param  huart  Pointer to a UART_HandleTypeDef structure that contains
  *                the configuration information for the specified UART module.
  * @retval HAL status
  */
HAL_StatusTypeDef HAL_UART_Init(UART_HandleTypeDef *huart)
{
 80037b4:	b580      	push	{r7, lr}
 80037b6:	b082      	sub	sp, #8
 80037b8:	af00      	add	r7, sp, #0
 80037ba:	6078      	str	r0, [r7, #4]
  /* Check the UART handle allocation */
  if (huart == NULL)
 80037bc:	687b      	ldr	r3, [r7, #4]
 80037be:	2b00      	cmp	r3, #0
 80037c0:	d101      	bne.n	80037c6 <HAL_UART_Init+0x12>
  {
    return HAL_ERROR;
 80037c2:	2301      	movs	r3, #1
 80037c4:	e03f      	b.n	8003846 <HAL_UART_Init+0x92>
    assert_param(IS_UART_INSTANCE(huart->Instance));
  }
  assert_param(IS_UART_WORD_LENGTH(huart->Init.WordLength));
  assert_param(IS_UART_OVERSAMPLING(huart->Init.OverSampling));

  if (huart->gState == HAL_UART_STATE_RESET)
 80037c6:	687b      	ldr	r3, [r7, #4]
 80037c8:	f893 3039 	ldrb.w	r3, [r3, #57]	; 0x39
 80037cc:	b2db      	uxtb	r3, r3
 80037ce:	2b00      	cmp	r3, #0
 80037d0:	d106      	bne.n	80037e0 <HAL_UART_Init+0x2c>
  {
    /* Allocate lock resource and initialize it */
    huart->Lock = HAL_UNLOCKED;
 80037d2:	687b      	ldr	r3, [r7, #4]
 80037d4:	2200      	movs	r2, #0
 80037d6:	f883 2038 	strb.w	r2, [r3, #56]	; 0x38

    /* Init the low level hardware */
    huart->MspInitCallback(huart);
#else
    /* Init the low level hardware : GPIO, CLOCK */
    HAL_UART_MspInit(huart);
 80037da:	6878      	ldr	r0, [r7, #4]
 80037dc:	f7fd feda 	bl	8001594 <HAL_UART_MspInit>
#endif /* (USE_HAL_UART_REGISTER_CALLBACKS) */
  }

  huart->gState = HAL_UART_STATE_BUSY;
 80037e0:	687b      	ldr	r3, [r7, #4]
 80037e2:	2224      	movs	r2, #36	; 0x24
 80037e4:	f883 2039 	strb.w	r2, [r3, #57]	; 0x39

  /* Disable the peripheral */
  __HAL_UART_DISABLE(huart);
 80037e8:	687b      	ldr	r3, [r7, #4]
 80037ea:	681b      	ldr	r3, [r3, #0]
 80037ec:	68da      	ldr	r2, [r3, #12]
 80037ee:	687b      	ldr	r3, [r7, #4]
 80037f0:	681b      	ldr	r3, [r3, #0]
 80037f2:	f422 5200 	bic.w	r2, r2, #8192	; 0x2000
 80037f6:	60da      	str	r2, [r3, #12]

  /* Set the UART Communication parameters */
  UART_SetConfig(huart);
 80037f8:	6878      	ldr	r0, [r7, #4]
 80037fa:	f000 f90b 	bl	8003a14 <UART_SetConfig>

  /* In asynchronous mode, the following bits must be kept cleared:
     - LINEN and CLKEN bits in the USART_CR2 register,
     - SCEN, HDSEL and IREN  bits in the USART_CR3 register.*/
  CLEAR_BIT(huart->Instance->CR2, (USART_CR2_LINEN | USART_CR2_CLKEN));
 80037fe:	687b      	ldr	r3, [r7, #4]
 8003800:	681b      	ldr	r3, [r3, #0]
 8003802:	691a      	ldr	r2, [r3, #16]
 8003804:	687b      	ldr	r3, [r7, #4]
 8003806:	681b      	ldr	r3, [r3, #0]
 8003808:	f422 4290 	bic.w	r2, r2, #18432	; 0x4800
 800380c:	611a      	str	r2, [r3, #16]
  CLEAR_BIT(huart->Instance->CR3, (USART_CR3_SCEN | USART_CR3_HDSEL | USART_CR3_IREN));
 800380e:	687b      	ldr	r3, [r7, #4]
 8003810:	681b      	ldr	r3, [r3, #0]
 8003812:	695a      	ldr	r2, [r3, #20]
 8003814:	687b      	ldr	r3, [r7, #4]
 8003816:	681b      	ldr	r3, [r3, #0]
 8003818:	f022 022a 	bic.w	r2, r2, #42	; 0x2a
 800381c:	615a      	str	r2, [r3, #20]

  /* Enable the peripheral */
  __HAL_UART_ENABLE(huart);
 800381e:	687b      	ldr	r3, [r7, #4]
 8003820:	681b      	ldr	r3, [r3, #0]
 8003822:	68da      	ldr	r2, [r3, #12]
 8003824:	687b      	ldr	r3, [r7, #4]
 8003826:	681b      	ldr	r3, [r3, #0]
 8003828:	f442 5200 	orr.w	r2, r2, #8192	; 0x2000
 800382c:	60da      	str	r2, [r3, #12]

  /* Initialize the UART state */
  huart->ErrorCode = HAL_UART_ERROR_NONE;
 800382e:	687b      	ldr	r3, [r7, #4]
 8003830:	2200      	movs	r2, #0
 8003832:	63da      	str	r2, [r3, #60]	; 0x3c
  huart->gState = HAL_UART_STATE_READY;
 8003834:	687b      	ldr	r3, [r7, #4]
 8003836:	2220      	movs	r2, #32
 8003838:	f883 2039 	strb.w	r2, [r3, #57]	; 0x39
  huart->RxState = HAL_UART_STATE_READY;
 800383c:	687b      	ldr	r3, [r7, #4]
 800383e:	2220      	movs	r2, #32
 8003840:	f883 203a 	strb.w	r2, [r3, #58]	; 0x3a

  return HAL_OK;
 8003844:	2300      	movs	r3, #0
}
 8003846:	4618      	mov	r0, r3
 8003848:	3708      	adds	r7, #8
 800384a:	46bd      	mov	sp, r7
 800384c:	bd80      	pop	{r7, pc}

0800384e <HAL_UART_Transmit>:
  * @param  Size  Amount of data elements (u8 or u16) to be sent
  * @param  Timeout Timeout duration
  * @retval HAL status
  */
HAL_StatusTypeDef HAL_UART_Transmit(UART_HandleTypeDef *huart, uint8_t *pData, uint16_t Size, uint32_t Timeout)
{
 800384e:	b580      	push	{r7, lr}
 8003850:	b088      	sub	sp, #32
 8003852:	af02      	add	r7, sp, #8
 8003854:	60f8      	str	r0, [r7, #12]
 8003856:	60b9      	str	r1, [r7, #8]
 8003858:	603b      	str	r3, [r7, #0]
 800385a:	4613      	mov	r3, r2
 800385c:	80fb      	strh	r3, [r7, #6]
  uint16_t *tmp;
  uint32_t tickstart = 0U;
 800385e:	2300      	movs	r3, #0
 8003860:	617b      	str	r3, [r7, #20]

  /* Check that a Tx process is not already ongoing */
  if (huart->gState == HAL_UART_STATE_READY)
 8003862:	68fb      	ldr	r3, [r7, #12]
 8003864:	f893 3039 	ldrb.w	r3, [r3, #57]	; 0x39
 8003868:	b2db      	uxtb	r3, r3
 800386a:	2b20      	cmp	r3, #32
 800386c:	f040 8083 	bne.w	8003976 <HAL_UART_Transmit+0x128>
  {
    if ((pData == NULL) || (Size == 0U))
 8003870:	68bb      	ldr	r3, [r7, #8]
 8003872:	2b00      	cmp	r3, #0
 8003874:	d002      	beq.n	800387c <HAL_UART_Transmit+0x2e>
 8003876:	88fb      	ldrh	r3, [r7, #6]
 8003878:	2b00      	cmp	r3, #0
 800387a:	d101      	bne.n	8003880 <HAL_UART_Transmit+0x32>
    {
      return  HAL_ERROR;
 800387c:	2301      	movs	r3, #1
 800387e:	e07b      	b.n	8003978 <HAL_UART_Transmit+0x12a>
    }

    /* Process Locked */
    __HAL_LOCK(huart);
 8003880:	68fb      	ldr	r3, [r7, #12]
 8003882:	f893 3038 	ldrb.w	r3, [r3, #56]	; 0x38
 8003886:	2b01      	cmp	r3, #1
 8003888:	d101      	bne.n	800388e <HAL_UART_Transmit+0x40>
 800388a:	2302      	movs	r3, #2
 800388c:	e074      	b.n	8003978 <HAL_UART_Transmit+0x12a>
 800388e:	68fb      	ldr	r3, [r7, #12]
 8003890:	2201      	movs	r2, #1
 8003892:	f883 2038 	strb.w	r2, [r3, #56]	; 0x38

    huart->ErrorCode = HAL_UART_ERROR_NONE;
 8003896:	68fb      	ldr	r3, [r7, #12]
 8003898:	2200      	movs	r2, #0
 800389a:	63da      	str	r2, [r3, #60]	; 0x3c
    huart->gState = HAL_UART_STATE_BUSY_TX;
 800389c:	68fb      	ldr	r3, [r7, #12]
 800389e:	2221      	movs	r2, #33	; 0x21
 80038a0:	f883 2039 	strb.w	r2, [r3, #57]	; 0x39

    /* Init tickstart for timeout managment */
    tickstart = HAL_GetTick();
 80038a4:	f7fd ffce 	bl	8001844 <HAL_GetTick>
 80038a8:	6178      	str	r0, [r7, #20]

    huart->TxXferSize = Size;
 80038aa:	68fb      	ldr	r3, [r7, #12]
 80038ac:	88fa      	ldrh	r2, [r7, #6]
 80038ae:	849a      	strh	r2, [r3, #36]	; 0x24
    huart->TxXferCount = Size;
 80038b0:	68fb      	ldr	r3, [r7, #12]
 80038b2:	88fa      	ldrh	r2, [r7, #6]
 80038b4:	84da      	strh	r2, [r3, #38]	; 0x26

    /* Process Unlocked */
    __HAL_UNLOCK(huart);
 80038b6:	68fb      	ldr	r3, [r7, #12]
 80038b8:	2200      	movs	r2, #0
 80038ba:	f883 2038 	strb.w	r2, [r3, #56]	; 0x38

    while (huart->TxXferCount > 0U)
 80038be:	e042      	b.n	8003946 <HAL_UART_Transmit+0xf8>
    {
      huart->TxXferCount--;
 80038c0:	68fb      	ldr	r3, [r7, #12]
 80038c2:	8cdb      	ldrh	r3, [r3, #38]	; 0x26
 80038c4:	b29b      	uxth	r3, r3
 80038c6:	3b01      	subs	r3, #1
 80038c8:	b29a      	uxth	r2, r3
 80038ca:	68fb      	ldr	r3, [r7, #12]
 80038cc:	84da      	strh	r2, [r3, #38]	; 0x26
      if (huart->Init.WordLength == UART_WORDLENGTH_9B)
 80038ce:	68fb      	ldr	r3, [r7, #12]
 80038d0:	689b      	ldr	r3, [r3, #8]
 80038d2:	f5b3 5f80 	cmp.w	r3, #4096	; 0x1000
 80038d6:	d122      	bne.n	800391e <HAL_UART_Transmit+0xd0>
      {
        if (UART_WaitOnFlagUntilTimeout(huart, UART_FLAG_TXE, RESET, tickstart, Timeout) != HAL_OK)
 80038d8:	683b      	ldr	r3, [r7, #0]
 80038da:	9300      	str	r3, [sp, #0]
 80038dc:	697b      	ldr	r3, [r7, #20]
 80038de:	2200      	movs	r2, #0
 80038e0:	2180      	movs	r1, #128	; 0x80
 80038e2:	68f8      	ldr	r0, [r7, #12]
 80038e4:	f000 f84c 	bl	8003980 <UART_WaitOnFlagUntilTimeout>
 80038e8:	4603      	mov	r3, r0
 80038ea:	2b00      	cmp	r3, #0
 80038ec:	d001      	beq.n	80038f2 <HAL_UART_Transmit+0xa4>
        {
          return HAL_TIMEOUT;
 80038ee:	2303      	movs	r3, #3
 80038f0:	e042      	b.n	8003978 <HAL_UART_Transmit+0x12a>
        }
        tmp = (uint16_t *) pData;
 80038f2:	68bb      	ldr	r3, [r7, #8]
 80038f4:	613b      	str	r3, [r7, #16]
        huart->Instance->DR = (*tmp & (uint16_t)0x01FF);
 80038f6:	693b      	ldr	r3, [r7, #16]
 80038f8:	881b      	ldrh	r3, [r3, #0]
 80038fa:	461a      	mov	r2, r3
 80038fc:	68fb      	ldr	r3, [r7, #12]
 80038fe:	681b      	ldr	r3, [r3, #0]
 8003900:	f3c2 0208 	ubfx	r2, r2, #0, #9
 8003904:	605a      	str	r2, [r3, #4]
        if (huart->Init.Parity == UART_PARITY_NONE)
 8003906:	68fb      	ldr	r3, [r7, #12]
 8003908:	691b      	ldr	r3, [r3, #16]
 800390a:	2b00      	cmp	r3, #0
 800390c:	d103      	bne.n	8003916 <HAL_UART_Transmit+0xc8>
        {
          pData += 2U;
 800390e:	68bb      	ldr	r3, [r7, #8]
 8003910:	3302      	adds	r3, #2
 8003912:	60bb      	str	r3, [r7, #8]
 8003914:	e017      	b.n	8003946 <HAL_UART_Transmit+0xf8>
        }
        else
        {
          pData += 1U;
 8003916:	68bb      	ldr	r3, [r7, #8]
 8003918:	3301      	adds	r3, #1
 800391a:	60bb      	str	r3, [r7, #8]
 800391c:	e013      	b.n	8003946 <HAL_UART_Transmit+0xf8>
        }
      }
      else
      {
        if (UART_WaitOnFlagUntilTimeout(huart, UART_FLAG_TXE, RESET, tickstart, Timeout) != HAL_OK)
 800391e:	683b      	ldr	r3, [r7, #0]
 8003920:	9300      	str	r3, [sp, #0]
 8003922:	697b      	ldr	r3, [r7, #20]
 8003924:	2200      	movs	r2, #0
 8003926:	2180      	movs	r1, #128	; 0x80
 8003928:	68f8      	ldr	r0, [r7, #12]
 800392a:	f000 f829 	bl	8003980 <UART_WaitOnFlagUntilTimeout>
 800392e:	4603      	mov	r3, r0
 8003930:	2b00      	cmp	r3, #0
 8003932:	d001      	beq.n	8003938 <HAL_UART_Transmit+0xea>
        {
          return HAL_TIMEOUT;
 8003934:	2303      	movs	r3, #3
 8003936:	e01f      	b.n	8003978 <HAL_UART_Transmit+0x12a>
        }
        huart->Instance->DR = (*pData++ & (uint8_t)0xFF);
 8003938:	68bb      	ldr	r3, [r7, #8]
 800393a:	1c5a      	adds	r2, r3, #1
 800393c:	60ba      	str	r2, [r7, #8]
 800393e:	781a      	ldrb	r2, [r3, #0]
 8003940:	68fb      	ldr	r3, [r7, #12]
 8003942:	681b      	ldr	r3, [r3, #0]
 8003944:	605a      	str	r2, [r3, #4]
    while (huart->TxXferCount > 0U)
 8003946:	68fb      	ldr	r3, [r7, #12]
 8003948:	8cdb      	ldrh	r3, [r3, #38]	; 0x26
 800394a:	b29b      	uxth	r3, r3
 800394c:	2b00      	cmp	r3, #0
 800394e:	d1b7      	bne.n	80038c0 <HAL_UART_Transmit+0x72>
      }
    }

    if (UART_WaitOnFlagUntilTimeout(huart, UART_FLAG_TC, RESET, tickstart, Timeout) != HAL_OK)
 8003950:	683b      	ldr	r3, [r7, #0]
 8003952:	9300      	str	r3, [sp, #0]
 8003954:	697b      	ldr	r3, [r7, #20]
 8003956:	2200      	movs	r2, #0
 8003958:	2140      	movs	r1, #64	; 0x40
 800395a:	68f8      	ldr	r0, [r7, #12]
 800395c:	f000 f810 	bl	8003980 <UART_WaitOnFlagUntilTimeout>
 8003960:	4603      	mov	r3, r0
 8003962:	2b00      	cmp	r3, #0
 8003964:	d001      	beq.n	800396a <HAL_UART_Transmit+0x11c>
    {
      return HAL_TIMEOUT;
 8003966:	2303      	movs	r3, #3
 8003968:	e006      	b.n	8003978 <HAL_UART_Transmit+0x12a>
    }

    /* At end of Tx process, restore huart->gState to Ready */
    huart->gState = HAL_UART_STATE_READY;
 800396a:	68fb      	ldr	r3, [r7, #12]
 800396c:	2220      	movs	r2, #32
 800396e:	f883 2039 	strb.w	r2, [r3, #57]	; 0x39

    return HAL_OK;
 8003972:	2300      	movs	r3, #0
 8003974:	e000      	b.n	8003978 <HAL_UART_Transmit+0x12a>
  }
  else
  {
    return HAL_BUSY;
 8003976:	2302      	movs	r3, #2
  }
}
 8003978:	4618      	mov	r0, r3
 800397a:	3718      	adds	r7, #24
 800397c:	46bd      	mov	sp, r7
 800397e:	bd80      	pop	{r7, pc}

08003980 <UART_WaitOnFlagUntilTimeout>:
  * @param  Tickstart Tick start value
  * @param  Timeout Timeout duration
  * @retval HAL status
  */
static HAL_StatusTypeDef UART_WaitOnFlagUntilTimeout(UART_HandleTypeDef *huart, uint32_t Flag, FlagStatus Status, uint32_t Tickstart, uint32_t Timeout)
{
 8003980:	b580      	push	{r7, lr}
 8003982:	b084      	sub	sp, #16
 8003984:	af00      	add	r7, sp, #0
 8003986:	60f8      	str	r0, [r7, #12]
 8003988:	60b9      	str	r1, [r7, #8]
 800398a:	603b      	str	r3, [r7, #0]
 800398c:	4613      	mov	r3, r2
 800398e:	71fb      	strb	r3, [r7, #7]
  /* Wait until flag is set */
  while ((__HAL_UART_GET_FLAG(huart, Flag) ? SET : RESET) == Status)
 8003990:	e02c      	b.n	80039ec <UART_WaitOnFlagUntilTimeout+0x6c>
  {
    /* Check for the Timeout */
    if (Timeout != HAL_MAX_DELAY)
 8003992:	69bb      	ldr	r3, [r7, #24]
 8003994:	f1b3 3fff 	cmp.w	r3, #4294967295
 8003998:	d028      	beq.n	80039ec <UART_WaitOnFlagUntilTimeout+0x6c>
    {
      if ((Timeout == 0U) || ((HAL_GetTick() - Tickstart) > Timeout))
 800399a:	69bb      	ldr	r3, [r7, #24]
 800399c:	2b00      	cmp	r3, #0
 800399e:	d007      	beq.n	80039b0 <UART_WaitOnFlagUntilTimeout+0x30>
 80039a0:	f7fd ff50 	bl	8001844 <HAL_GetTick>
 80039a4:	4602      	mov	r2, r0
 80039a6:	683b      	ldr	r3, [r7, #0]
 80039a8:	1ad3      	subs	r3, r2, r3
 80039aa:	69ba      	ldr	r2, [r7, #24]
 80039ac:	429a      	cmp	r2, r3
 80039ae:	d21d      	bcs.n	80039ec <UART_WaitOnFlagUntilTimeout+0x6c>
      {
        /* Disable TXE, RXNE, PE and ERR (Frame error, noise error, overrun error) interrupts for the interrupt process */
        CLEAR_BIT(huart->Instance->CR1, (USART_CR1_RXNEIE | USART_CR1_PEIE | USART_CR1_TXEIE));
 80039b0:	68fb      	ldr	r3, [r7, #12]
 80039b2:	681b      	ldr	r3, [r3, #0]
 80039b4:	68da      	ldr	r2, [r3, #12]
 80039b6:	68fb      	ldr	r3, [r7, #12]
 80039b8:	681b      	ldr	r3, [r3, #0]
 80039ba:	f422 72d0 	bic.w	r2, r2, #416	; 0x1a0
 80039be:	60da      	str	r2, [r3, #12]
        CLEAR_BIT(huart->Instance->CR3, USART_CR3_EIE);
 80039c0:	68fb      	ldr	r3, [r7, #12]
 80039c2:	681b      	ldr	r3, [r3, #0]
 80039c4:	695a      	ldr	r2, [r3, #20]
 80039c6:	68fb      	ldr	r3, [r7, #12]
 80039c8:	681b      	ldr	r3, [r3, #0]
 80039ca:	f022 0201 	bic.w	r2, r2, #1
 80039ce:	615a      	str	r2, [r3, #20]

        huart->gState  = HAL_UART_STATE_READY;
 80039d0:	68fb      	ldr	r3, [r7, #12]
 80039d2:	2220      	movs	r2, #32
 80039d4:	f883 2039 	strb.w	r2, [r3, #57]	; 0x39
        huart->RxState = HAL_UART_STATE_READY;
 80039d8:	68fb      	ldr	r3, [r7, #12]
 80039da:	2220      	movs	r2, #32
 80039dc:	f883 203a 	strb.w	r2, [r3, #58]	; 0x3a

        /* Process Unlocked */
        __HAL_UNLOCK(huart);
 80039e0:	68fb      	ldr	r3, [r7, #12]
 80039e2:	2200      	movs	r2, #0
 80039e4:	f883 2038 	strb.w	r2, [r3, #56]	; 0x38

        return HAL_TIMEOUT;
 80039e8:	2303      	movs	r3, #3
 80039ea:	e00f      	b.n	8003a0c <UART_WaitOnFlagUntilTimeout+0x8c>
  while ((__HAL_UART_GET_FLAG(huart, Flag) ? SET : RESET) == Status)
 80039ec:	68fb      	ldr	r3, [r7, #12]
 80039ee:	681b      	ldr	r3, [r3, #0]
 80039f0:	681a      	ldr	r2, [r3, #0]
 80039f2:	68bb      	ldr	r3, [r7, #8]
 80039f4:	4013      	ands	r3, r2
 80039f6:	68ba      	ldr	r2, [r7, #8]
 80039f8:	429a      	cmp	r2, r3
 80039fa:	bf0c      	ite	eq
 80039fc:	2301      	moveq	r3, #1
 80039fe:	2300      	movne	r3, #0
 8003a00:	b2db      	uxtb	r3, r3
 8003a02:	461a      	mov	r2, r3
 8003a04:	79fb      	ldrb	r3, [r7, #7]
 8003a06:	429a      	cmp	r2, r3
 8003a08:	d0c3      	beq.n	8003992 <UART_WaitOnFlagUntilTimeout+0x12>
      }
    }
  }
  return HAL_OK;
 8003a0a:	2300      	movs	r3, #0
}
 8003a0c:	4618      	mov	r0, r3
 8003a0e:	3710      	adds	r7, #16
 8003a10:	46bd      	mov	sp, r7
 8003a12:	bd80      	pop	{r7, pc}

08003a14 <UART_SetConfig>:
  * @param  huart  Pointer to a UART_HandleTypeDef structure that contains
  *                the configuration information for the specified UART module.
  * @retval None
  */
static void UART_SetConfig(UART_HandleTypeDef *huart)
{
 8003a14:	e92d 4ff0 	stmdb	sp!, {r4, r5, r6, r7, r8, r9, sl, fp, lr}
 8003a18:	b085      	sub	sp, #20
 8003a1a:	af00      	add	r7, sp, #0
 8003a1c:	6078      	str	r0, [r7, #4]
  assert_param(IS_UART_MODE(huart->Init.Mode));

  /*-------------------------- USART CR2 Configuration -----------------------*/
  /* Configure the UART Stop Bits: Set STOP[13:12] bits
     according to huart->Init.StopBits value */
  MODIFY_REG(huart->Instance->CR2, USART_CR2_STOP, huart->Init.StopBits);
 8003a1e:	687b      	ldr	r3, [r7, #4]
 8003a20:	681b      	ldr	r3, [r3, #0]
 8003a22:	691b      	ldr	r3, [r3, #16]
 8003a24:	f423 5140 	bic.w	r1, r3, #12288	; 0x3000
 8003a28:	687b      	ldr	r3, [r7, #4]
 8003a2a:	68da      	ldr	r2, [r3, #12]
 8003a2c:	687b      	ldr	r3, [r7, #4]
 8003a2e:	681b      	ldr	r3, [r3, #0]
 8003a30:	430a      	orrs	r2, r1
 8003a32:	611a      	str	r2, [r3, #16]
     Set the M bits according to huart->Init.WordLength value
     Set PCE and PS bits according to huart->Init.Parity value
     Set TE and RE bits according to huart->Init.Mode value
     Set OVER8 bit according to huart->Init.OverSampling value */

  tmpreg = (uint32_t)huart->Init.WordLength | huart->Init.Parity | huart->Init.Mode | huart->Init.OverSampling;
 8003a34:	687b      	ldr	r3, [r7, #4]
 8003a36:	689a      	ldr	r2, [r3, #8]
 8003a38:	687b      	ldr	r3, [r7, #4]
 8003a3a:	691b      	ldr	r3, [r3, #16]
 8003a3c:	431a      	orrs	r2, r3
 8003a3e:	687b      	ldr	r3, [r7, #4]
 8003a40:	695b      	ldr	r3, [r3, #20]
 8003a42:	431a      	orrs	r2, r3
 8003a44:	687b      	ldr	r3, [r7, #4]
 8003a46:	69db      	ldr	r3, [r3, #28]
 8003a48:	4313      	orrs	r3, r2
 8003a4a:	60fb      	str	r3, [r7, #12]
  MODIFY_REG(huart->Instance->CR1,
 8003a4c:	687b      	ldr	r3, [r7, #4]
 8003a4e:	681b      	ldr	r3, [r3, #0]
 8003a50:	68db      	ldr	r3, [r3, #12]
 8003a52:	f423 4316 	bic.w	r3, r3, #38400	; 0x9600
 8003a56:	f023 030c 	bic.w	r3, r3, #12
 8003a5a:	687a      	ldr	r2, [r7, #4]
 8003a5c:	6812      	ldr	r2, [r2, #0]
 8003a5e:	68f9      	ldr	r1, [r7, #12]
 8003a60:	430b      	orrs	r3, r1
 8003a62:	60d3      	str	r3, [r2, #12]
             (uint32_t)(USART_CR1_M | USART_CR1_PCE | USART_CR1_PS | USART_CR1_TE | USART_CR1_RE | USART_CR1_OVER8),
             tmpreg);

  /*-------------------------- USART CR3 Configuration -----------------------*/
  /* Configure the UART HFC: Set CTSE and RTSE bits according to huart->Init.HwFlowCtl value */
  MODIFY_REG(huart->Instance->CR3, (USART_CR3_RTSE | USART_CR3_CTSE), huart->Init.HwFlowCtl);
 8003a64:	687b      	ldr	r3, [r7, #4]
 8003a66:	681b      	ldr	r3, [r3, #0]
 8003a68:	695b      	ldr	r3, [r3, #20]
 8003a6a:	f423 7140 	bic.w	r1, r3, #768	; 0x300
 8003a6e:	687b      	ldr	r3, [r7, #4]
 8003a70:	699a      	ldr	r2, [r3, #24]
 8003a72:	687b      	ldr	r3, [r7, #4]
 8003a74:	681b      	ldr	r3, [r3, #0]
 8003a76:	430a      	orrs	r2, r1
 8003a78:	615a      	str	r2, [r3, #20]

  /* Check the Over Sampling */
  if (huart->Init.OverSampling == UART_OVERSAMPLING_8)
 8003a7a:	687b      	ldr	r3, [r7, #4]
 8003a7c:	69db      	ldr	r3, [r3, #28]
 8003a7e:	f5b3 4f00 	cmp.w	r3, #32768	; 0x8000
 8003a82:	f040 818b 	bne.w	8003d9c <UART_SetConfig+0x388>
    {
      pclk = HAL_RCC_GetPCLK2Freq();
      huart->Instance->BRR = UART_BRR_SAMPLING8(pclk, huart->Init.BaudRate);
    }
#elif defined(USART6)
    if ((huart->Instance == USART1) || (huart->Instance == USART6))
 8003a86:	687b      	ldr	r3, [r7, #4]
 8003a88:	681b      	ldr	r3, [r3, #0]
 8003a8a:	4ac1      	ldr	r2, [pc, #772]	; (8003d90 <UART_SetConfig+0x37c>)
 8003a8c:	4293      	cmp	r3, r2
 8003a8e:	d005      	beq.n	8003a9c <UART_SetConfig+0x88>
 8003a90:	687b      	ldr	r3, [r7, #4]
 8003a92:	681b      	ldr	r3, [r3, #0]
 8003a94:	4abf      	ldr	r2, [pc, #764]	; (8003d94 <UART_SetConfig+0x380>)
 8003a96:	4293      	cmp	r3, r2
 8003a98:	f040 80bd 	bne.w	8003c16 <UART_SetConfig+0x202>
    {
      pclk = HAL_RCC_GetPCLK2Freq();
 8003a9c:	f7ff fa7c 	bl	8002f98 <HAL_RCC_GetPCLK2Freq>
 8003aa0:	60b8      	str	r0, [r7, #8]
      huart->Instance->BRR = UART_BRR_SAMPLING8(pclk, huart->Init.BaudRate);
 8003aa2:	68bb      	ldr	r3, [r7, #8]
 8003aa4:	461d      	mov	r5, r3
 8003aa6:	f04f 0600 	mov.w	r6, #0
 8003aaa:	46a8      	mov	r8, r5
 8003aac:	46b1      	mov	r9, r6
 8003aae:	eb18 0308 	adds.w	r3, r8, r8
 8003ab2:	eb49 0409 	adc.w	r4, r9, r9
 8003ab6:	4698      	mov	r8, r3
 8003ab8:	46a1      	mov	r9, r4
 8003aba:	eb18 0805 	adds.w	r8, r8, r5
 8003abe:	eb49 0906 	adc.w	r9, r9, r6
 8003ac2:	f04f 0100 	mov.w	r1, #0
 8003ac6:	f04f 0200 	mov.w	r2, #0
 8003aca:	ea4f 02c9 	mov.w	r2, r9, lsl #3
 8003ace:	ea42 7258 	orr.w	r2, r2, r8, lsr #29
 8003ad2:	ea4f 01c8 	mov.w	r1, r8, lsl #3
 8003ad6:	4688      	mov	r8, r1
 8003ad8:	4691      	mov	r9, r2
 8003ada:	eb18 0005 	adds.w	r0, r8, r5
 8003ade:	eb49 0106 	adc.w	r1, r9, r6
 8003ae2:	687b      	ldr	r3, [r7, #4]
 8003ae4:	685b      	ldr	r3, [r3, #4]
 8003ae6:	461d      	mov	r5, r3
 8003ae8:	f04f 0600 	mov.w	r6, #0
 8003aec:	196b      	adds	r3, r5, r5
 8003aee:	eb46 0406 	adc.w	r4, r6, r6
 8003af2:	461a      	mov	r2, r3
 8003af4:	4623      	mov	r3, r4
 8003af6:	f7fd f8c7 	bl	8000c88 <__aeabi_uldivmod>
 8003afa:	4603      	mov	r3, r0
 8003afc:	460c      	mov	r4, r1
 8003afe:	461a      	mov	r2, r3
 8003b00:	4ba5      	ldr	r3, [pc, #660]	; (8003d98 <UART_SetConfig+0x384>)
 8003b02:	fba3 2302 	umull	r2, r3, r3, r2
 8003b06:	095b      	lsrs	r3, r3, #5
 8003b08:	ea4f 1803 	mov.w	r8, r3, lsl #4
 8003b0c:	68bb      	ldr	r3, [r7, #8]
 8003b0e:	461d      	mov	r5, r3
 8003b10:	f04f 0600 	mov.w	r6, #0
 8003b14:	46a9      	mov	r9, r5
 8003b16:	46b2      	mov	sl, r6
 8003b18:	eb19 0309 	adds.w	r3, r9, r9
 8003b1c:	eb4a 040a 	adc.w	r4, sl, sl
 8003b20:	4699      	mov	r9, r3
 8003b22:	46a2      	mov	sl, r4
 8003b24:	eb19 0905 	adds.w	r9, r9, r5
 8003b28:	eb4a 0a06 	adc.w	sl, sl, r6
 8003b2c:	f04f 0100 	mov.w	r1, #0
 8003b30:	f04f 0200 	mov.w	r2, #0
 8003b34:	ea4f 02ca 	mov.w	r2, sl, lsl #3
 8003b38:	ea42 7259 	orr.w	r2, r2, r9, lsr #29
 8003b3c:	ea4f 01c9 	mov.w	r1, r9, lsl #3
 8003b40:	4689      	mov	r9, r1
 8003b42:	4692      	mov	sl, r2
 8003b44:	eb19 0005 	adds.w	r0, r9, r5
 8003b48:	eb4a 0106 	adc.w	r1, sl, r6
 8003b4c:	687b      	ldr	r3, [r7, #4]
 8003b4e:	685b      	ldr	r3, [r3, #4]
 8003b50:	461d      	mov	r5, r3
 8003b52:	f04f 0600 	mov.w	r6, #0
 8003b56:	196b      	adds	r3, r5, r5
 8003b58:	eb46 0406 	adc.w	r4, r6, r6
 8003b5c:	461a      	mov	r2, r3
 8003b5e:	4623      	mov	r3, r4
 8003b60:	f7fd f892 	bl	8000c88 <__aeabi_uldivmod>
 8003b64:	4603      	mov	r3, r0
 8003b66:	460c      	mov	r4, r1
 8003b68:	461a      	mov	r2, r3
 8003b6a:	4b8b      	ldr	r3, [pc, #556]	; (8003d98 <UART_SetConfig+0x384>)
 8003b6c:	fba3 1302 	umull	r1, r3, r3, r2
 8003b70:	095b      	lsrs	r3, r3, #5
 8003b72:	2164      	movs	r1, #100	; 0x64
 8003b74:	fb01 f303 	mul.w	r3, r1, r3
 8003b78:	1ad3      	subs	r3, r2, r3
 8003b7a:	00db      	lsls	r3, r3, #3
 8003b7c:	3332      	adds	r3, #50	; 0x32
 8003b7e:	4a86      	ldr	r2, [pc, #536]	; (8003d98 <UART_SetConfig+0x384>)
 8003b80:	fba2 2303 	umull	r2, r3, r2, r3
 8003b84:	095b      	lsrs	r3, r3, #5
 8003b86:	005b      	lsls	r3, r3, #1
 8003b88:	f403 73f8 	and.w	r3, r3, #496	; 0x1f0
 8003b8c:	4498      	add	r8, r3
 8003b8e:	68bb      	ldr	r3, [r7, #8]
 8003b90:	461d      	mov	r5, r3
 8003b92:	f04f 0600 	mov.w	r6, #0
 8003b96:	46a9      	mov	r9, r5
 8003b98:	46b2      	mov	sl, r6
 8003b9a:	eb19 0309 	adds.w	r3, r9, r9
 8003b9e:	eb4a 040a 	adc.w	r4, sl, sl
 8003ba2:	4699      	mov	r9, r3
 8003ba4:	46a2      	mov	sl, r4
 8003ba6:	eb19 0905 	adds.w	r9, r9, r5
 8003baa:	eb4a 0a06 	adc.w	sl, sl, r6
 8003bae:	f04f 0100 	mov.w	r1, #0
 8003bb2:	f04f 0200 	mov.w	r2, #0
 8003bb6:	ea4f 02ca 	mov.w	r2, sl, lsl #3
 8003bba:	ea42 7259 	orr.w	r2, r2, r9, lsr #29
 8003bbe:	ea4f 01c9 	mov.w	r1, r9, lsl #3
 8003bc2:	4689      	mov	r9, r1
 8003bc4:	4692      	mov	sl, r2
 8003bc6:	eb19 0005 	adds.w	r0, r9, r5
 8003bca:	eb4a 0106 	adc.w	r1, sl, r6
 8003bce:	687b      	ldr	r3, [r7, #4]
 8003bd0:	685b      	ldr	r3, [r3, #4]
 8003bd2:	461d      	mov	r5, r3
 8003bd4:	f04f 0600 	mov.w	r6, #0
 8003bd8:	196b      	adds	r3, r5, r5
 8003bda:	eb46 0406 	adc.w	r4, r6, r6
 8003bde:	461a      	mov	r2, r3
 8003be0:	4623      	mov	r3, r4
 8003be2:	f7fd f851 	bl	8000c88 <__aeabi_uldivmod>
 8003be6:	4603      	mov	r3, r0
 8003be8:	460c      	mov	r4, r1
 8003bea:	461a      	mov	r2, r3
 8003bec:	4b6a      	ldr	r3, [pc, #424]	; (8003d98 <UART_SetConfig+0x384>)
 8003bee:	fba3 1302 	umull	r1, r3, r3, r2
 8003bf2:	095b      	lsrs	r3, r3, #5
 8003bf4:	2164      	movs	r1, #100	; 0x64
 8003bf6:	fb01 f303 	mul.w	r3, r1, r3
 8003bfa:	1ad3      	subs	r3, r2, r3
 8003bfc:	00db      	lsls	r3, r3, #3
 8003bfe:	3332      	adds	r3, #50	; 0x32
 8003c00:	4a65      	ldr	r2, [pc, #404]	; (8003d98 <UART_SetConfig+0x384>)
 8003c02:	fba2 2303 	umull	r2, r3, r2, r3
 8003c06:	095b      	lsrs	r3, r3, #5
 8003c08:	f003 0207 	and.w	r2, r3, #7
 8003c0c:	687b      	ldr	r3, [r7, #4]
 8003c0e:	681b      	ldr	r3, [r3, #0]
 8003c10:	4442      	add	r2, r8
 8003c12:	609a      	str	r2, [r3, #8]
 8003c14:	e26f      	b.n	80040f6 <UART_SetConfig+0x6e2>
      huart->Instance->BRR = UART_BRR_SAMPLING8(pclk, huart->Init.BaudRate);
    }
#endif /* USART6 */
    else
    {
      pclk = HAL_RCC_GetPCLK1Freq();
 8003c16:	f7ff f9ab 	bl	8002f70 <HAL_RCC_GetPCLK1Freq>
 8003c1a:	60b8      	str	r0, [r7, #8]
      huart->Instance->BRR = UART_BRR_SAMPLING8(pclk, huart->Init.BaudRate);
 8003c1c:	68bb      	ldr	r3, [r7, #8]
 8003c1e:	461d      	mov	r5, r3
 8003c20:	f04f 0600 	mov.w	r6, #0
 8003c24:	46a8      	mov	r8, r5
 8003c26:	46b1      	mov	r9, r6
 8003c28:	eb18 0308 	adds.w	r3, r8, r8
 8003c2c:	eb49 0409 	adc.w	r4, r9, r9
 8003c30:	4698      	mov	r8, r3
 8003c32:	46a1      	mov	r9, r4
 8003c34:	eb18 0805 	adds.w	r8, r8, r5
 8003c38:	eb49 0906 	adc.w	r9, r9, r6
 8003c3c:	f04f 0100 	mov.w	r1, #0
 8003c40:	f04f 0200 	mov.w	r2, #0
 8003c44:	ea4f 02c9 	mov.w	r2, r9, lsl #3
 8003c48:	ea42 7258 	orr.w	r2, r2, r8, lsr #29
 8003c4c:	ea4f 01c8 	mov.w	r1, r8, lsl #3
 8003c50:	4688      	mov	r8, r1
 8003c52:	4691      	mov	r9, r2
 8003c54:	eb18 0005 	adds.w	r0, r8, r5
 8003c58:	eb49 0106 	adc.w	r1, r9, r6
 8003c5c:	687b      	ldr	r3, [r7, #4]
 8003c5e:	685b      	ldr	r3, [r3, #4]
 8003c60:	461d      	mov	r5, r3
 8003c62:	f04f 0600 	mov.w	r6, #0
 8003c66:	196b      	adds	r3, r5, r5
 8003c68:	eb46 0406 	adc.w	r4, r6, r6
 8003c6c:	461a      	mov	r2, r3
 8003c6e:	4623      	mov	r3, r4
 8003c70:	f7fd f80a 	bl	8000c88 <__aeabi_uldivmod>
 8003c74:	4603      	mov	r3, r0
 8003c76:	460c      	mov	r4, r1
 8003c78:	461a      	mov	r2, r3
 8003c7a:	4b47      	ldr	r3, [pc, #284]	; (8003d98 <UART_SetConfig+0x384>)
 8003c7c:	fba3 2302 	umull	r2, r3, r3, r2
 8003c80:	095b      	lsrs	r3, r3, #5
 8003c82:	ea4f 1803 	mov.w	r8, r3, lsl #4
 8003c86:	68bb      	ldr	r3, [r7, #8]
 8003c88:	461d      	mov	r5, r3
 8003c8a:	f04f 0600 	mov.w	r6, #0
 8003c8e:	46a9      	mov	r9, r5
 8003c90:	46b2      	mov	sl, r6
 8003c92:	eb19 0309 	adds.w	r3, r9, r9
 8003c96:	eb4a 040a 	adc.w	r4, sl, sl
 8003c9a:	4699      	mov	r9, r3
 8003c9c:	46a2      	mov	sl, r4
 8003c9e:	eb19 0905 	adds.w	r9, r9, r5
 8003ca2:	eb4a 0a06 	adc.w	sl, sl, r6
 8003ca6:	f04f 0100 	mov.w	r1, #0
 8003caa:	f04f 0200 	mov.w	r2, #0
 8003cae:	ea4f 02ca 	mov.w	r2, sl, lsl #3
 8003cb2:	ea42 7259 	orr.w	r2, r2, r9, lsr #29
 8003cb6:	ea4f 01c9 	mov.w	r1, r9, lsl #3
 8003cba:	4689      	mov	r9, r1
 8003cbc:	4692      	mov	sl, r2
 8003cbe:	eb19 0005 	adds.w	r0, r9, r5
 8003cc2:	eb4a 0106 	adc.w	r1, sl, r6
 8003cc6:	687b      	ldr	r3, [r7, #4]
 8003cc8:	685b      	ldr	r3, [r3, #4]
 8003cca:	461d      	mov	r5, r3
 8003ccc:	f04f 0600 	mov.w	r6, #0
 8003cd0:	196b      	adds	r3, r5, r5
 8003cd2:	eb46 0406 	adc.w	r4, r6, r6
 8003cd6:	461a      	mov	r2, r3
 8003cd8:	4623      	mov	r3, r4
 8003cda:	f7fc ffd5 	bl	8000c88 <__aeabi_uldivmod>
 8003cde:	4603      	mov	r3, r0
 8003ce0:	460c      	mov	r4, r1
 8003ce2:	461a      	mov	r2, r3
 8003ce4:	4b2c      	ldr	r3, [pc, #176]	; (8003d98 <UART_SetConfig+0x384>)
 8003ce6:	fba3 1302 	umull	r1, r3, r3, r2
 8003cea:	095b      	lsrs	r3, r3, #5
 8003cec:	2164      	movs	r1, #100	; 0x64
 8003cee:	fb01 f303 	mul.w	r3, r1, r3
 8003cf2:	1ad3      	subs	r3, r2, r3
 8003cf4:	00db      	lsls	r3, r3, #3
 8003cf6:	3332      	adds	r3, #50	; 0x32
 8003cf8:	4a27      	ldr	r2, [pc, #156]	; (8003d98 <UART_SetConfig+0x384>)
 8003cfa:	fba2 2303 	umull	r2, r3, r2, r3
 8003cfe:	095b      	lsrs	r3, r3, #5
 8003d00:	005b      	lsls	r3, r3, #1
 8003d02:	f403 73f8 	and.w	r3, r3, #496	; 0x1f0
 8003d06:	4498      	add	r8, r3
 8003d08:	68bb      	ldr	r3, [r7, #8]
 8003d0a:	461d      	mov	r5, r3
 8003d0c:	f04f 0600 	mov.w	r6, #0
 8003d10:	46a9      	mov	r9, r5
 8003d12:	46b2      	mov	sl, r6
 8003d14:	eb19 0309 	adds.w	r3, r9, r9
 8003d18:	eb4a 040a 	adc.w	r4, sl, sl
 8003d1c:	4699      	mov	r9, r3
 8003d1e:	46a2      	mov	sl, r4
 8003d20:	eb19 0905 	adds.w	r9, r9, r5
 8003d24:	eb4a 0a06 	adc.w	sl, sl, r6
 8003d28:	f04f 0100 	mov.w	r1, #0
 8003d2c:	f04f 0200 	mov.w	r2, #0
 8003d30:	ea4f 02ca 	mov.w	r2, sl, lsl #3
 8003d34:	ea42 7259 	orr.w	r2, r2, r9, lsr #29
 8003d38:	ea4f 01c9 	mov.w	r1, r9, lsl #3
 8003d3c:	4689      	mov	r9, r1
 8003d3e:	4692      	mov	sl, r2
 8003d40:	eb19 0005 	adds.w	r0, r9, r5
 8003d44:	eb4a 0106 	adc.w	r1, sl, r6
 8003d48:	687b      	ldr	r3, [r7, #4]
 8003d4a:	685b      	ldr	r3, [r3, #4]
 8003d4c:	461d      	mov	r5, r3
 8003d4e:	f04f 0600 	mov.w	r6, #0
 8003d52:	196b      	adds	r3, r5, r5
 8003d54:	eb46 0406 	adc.w	r4, r6, r6
 8003d58:	461a      	mov	r2, r3
 8003d5a:	4623      	mov	r3, r4
 8003d5c:	f7fc ff94 	bl	8000c88 <__aeabi_uldivmod>
 8003d60:	4603      	mov	r3, r0
 8003d62:	460c      	mov	r4, r1
 8003d64:	461a      	mov	r2, r3
 8003d66:	4b0c      	ldr	r3, [pc, #48]	; (8003d98 <UART_SetConfig+0x384>)
 8003d68:	fba3 1302 	umull	r1, r3, r3, r2
 8003d6c:	095b      	lsrs	r3, r3, #5
 8003d6e:	2164      	movs	r1, #100	; 0x64
 8003d70:	fb01 f303 	mul.w	r3, r1, r3
 8003d74:	1ad3      	subs	r3, r2, r3
 8003d76:	00db      	lsls	r3, r3, #3
 8003d78:	3332      	adds	r3, #50	; 0x32
 8003d7a:	4a07      	ldr	r2, [pc, #28]	; (8003d98 <UART_SetConfig+0x384>)
 8003d7c:	fba2 2303 	umull	r2, r3, r2, r3
 8003d80:	095b      	lsrs	r3, r3, #5
 8003d82:	f003 0207 	and.w	r2, r3, #7
 8003d86:	687b      	ldr	r3, [r7, #4]
 8003d88:	681b      	ldr	r3, [r3, #0]
 8003d8a:	4442      	add	r2, r8
 8003d8c:	609a      	str	r2, [r3, #8]
    {
      pclk = HAL_RCC_GetPCLK1Freq();
      huart->Instance->BRR = UART_BRR_SAMPLING16(pclk, huart->Init.BaudRate);
    }
  }
}
 8003d8e:	e1b2      	b.n	80040f6 <UART_SetConfig+0x6e2>
 8003d90:	40011000 	.word	0x40011000
 8003d94:	40011400 	.word	0x40011400
 8003d98:	51eb851f 	.word	0x51eb851f
    if ((huart->Instance == USART1) || (huart->Instance == USART6))
 8003d9c:	687b      	ldr	r3, [r7, #4]
 8003d9e:	681b      	ldr	r3, [r3, #0]
 8003da0:	4ad7      	ldr	r2, [pc, #860]	; (8004100 <UART_SetConfig+0x6ec>)
 8003da2:	4293      	cmp	r3, r2
 8003da4:	d005      	beq.n	8003db2 <UART_SetConfig+0x39e>
 8003da6:	687b      	ldr	r3, [r7, #4]
 8003da8:	681b      	ldr	r3, [r3, #0]
 8003daa:	4ad6      	ldr	r2, [pc, #856]	; (8004104 <UART_SetConfig+0x6f0>)
 8003dac:	4293      	cmp	r3, r2
 8003dae:	f040 80d1 	bne.w	8003f54 <UART_SetConfig+0x540>
      pclk = HAL_RCC_GetPCLK2Freq();
 8003db2:	f7ff f8f1 	bl	8002f98 <HAL_RCC_GetPCLK2Freq>
 8003db6:	60b8      	str	r0, [r7, #8]
      huart->Instance->BRR = UART_BRR_SAMPLING16(pclk, huart->Init.BaudRate);
 8003db8:	68bb      	ldr	r3, [r7, #8]
 8003dba:	469a      	mov	sl, r3
 8003dbc:	f04f 0b00 	mov.w	fp, #0
 8003dc0:	46d0      	mov	r8, sl
 8003dc2:	46d9      	mov	r9, fp
 8003dc4:	eb18 0308 	adds.w	r3, r8, r8
 8003dc8:	eb49 0409 	adc.w	r4, r9, r9
 8003dcc:	4698      	mov	r8, r3
 8003dce:	46a1      	mov	r9, r4
 8003dd0:	eb18 080a 	adds.w	r8, r8, sl
 8003dd4:	eb49 090b 	adc.w	r9, r9, fp
 8003dd8:	f04f 0100 	mov.w	r1, #0
 8003ddc:	f04f 0200 	mov.w	r2, #0
 8003de0:	ea4f 02c9 	mov.w	r2, r9, lsl #3
 8003de4:	ea42 7258 	orr.w	r2, r2, r8, lsr #29
 8003de8:	ea4f 01c8 	mov.w	r1, r8, lsl #3
 8003dec:	4688      	mov	r8, r1
 8003dee:	4691      	mov	r9, r2
 8003df0:	eb1a 0508 	adds.w	r5, sl, r8
 8003df4:	eb4b 0609 	adc.w	r6, fp, r9
 8003df8:	687b      	ldr	r3, [r7, #4]
 8003dfa:	685b      	ldr	r3, [r3, #4]
 8003dfc:	4619      	mov	r1, r3
 8003dfe:	f04f 0200 	mov.w	r2, #0
 8003e02:	f04f 0300 	mov.w	r3, #0
 8003e06:	f04f 0400 	mov.w	r4, #0
 8003e0a:	0094      	lsls	r4, r2, #2
 8003e0c:	ea44 7491 	orr.w	r4, r4, r1, lsr #30
 8003e10:	008b      	lsls	r3, r1, #2
 8003e12:	461a      	mov	r2, r3
 8003e14:	4623      	mov	r3, r4
 8003e16:	4628      	mov	r0, r5
 8003e18:	4631      	mov	r1, r6
 8003e1a:	f7fc ff35 	bl	8000c88 <__aeabi_uldivmod>
 8003e1e:	4603      	mov	r3, r0
 8003e20:	460c      	mov	r4, r1
 8003e22:	461a      	mov	r2, r3
 8003e24:	4bb8      	ldr	r3, [pc, #736]	; (8004108 <UART_SetConfig+0x6f4>)
 8003e26:	fba3 2302 	umull	r2, r3, r3, r2
 8003e2a:	095b      	lsrs	r3, r3, #5
 8003e2c:	ea4f 1803 	mov.w	r8, r3, lsl #4
 8003e30:	68bb      	ldr	r3, [r7, #8]
 8003e32:	469b      	mov	fp, r3
 8003e34:	f04f 0c00 	mov.w	ip, #0
 8003e38:	46d9      	mov	r9, fp
 8003e3a:	46e2      	mov	sl, ip
 8003e3c:	eb19 0309 	adds.w	r3, r9, r9
 8003e40:	eb4a 040a 	adc.w	r4, sl, sl
 8003e44:	4699      	mov	r9, r3
 8003e46:	46a2      	mov	sl, r4
 8003e48:	eb19 090b 	adds.w	r9, r9, fp
 8003e4c:	eb4a 0a0c 	adc.w	sl, sl, ip
 8003e50:	f04f 0100 	mov.w	r1, #0
 8003e54:	f04f 0200 	mov.w	r2, #0
 8003e58:	ea4f 02ca 	mov.w	r2, sl, lsl #3
 8003e5c:	ea42 7259 	orr.w	r2, r2, r9, lsr #29
 8003e60:	ea4f 01c9 	mov.w	r1, r9, lsl #3
 8003e64:	4689      	mov	r9, r1
 8003e66:	4692      	mov	sl, r2
 8003e68:	eb1b 0509 	adds.w	r5, fp, r9
 8003e6c:	eb4c 060a 	adc.w	r6, ip, sl
 8003e70:	687b      	ldr	r3, [r7, #4]
 8003e72:	685b      	ldr	r3, [r3, #4]
 8003e74:	4619      	mov	r1, r3
 8003e76:	f04f 0200 	mov.w	r2, #0
 8003e7a:	f04f 0300 	mov.w	r3, #0
 8003e7e:	f04f 0400 	mov.w	r4, #0
 8003e82:	0094      	lsls	r4, r2, #2
 8003e84:	ea44 7491 	orr.w	r4, r4, r1, lsr #30
 8003e88:	008b      	lsls	r3, r1, #2
 8003e8a:	461a      	mov	r2, r3
 8003e8c:	4623      	mov	r3, r4
 8003e8e:	4628      	mov	r0, r5
 8003e90:	4631      	mov	r1, r6
 8003e92:	f7fc fef9 	bl	8000c88 <__aeabi_uldivmod>
 8003e96:	4603      	mov	r3, r0
 8003e98:	460c      	mov	r4, r1
 8003e9a:	461a      	mov	r2, r3
 8003e9c:	4b9a      	ldr	r3, [pc, #616]	; (8004108 <UART_SetConfig+0x6f4>)
 8003e9e:	fba3 1302 	umull	r1, r3, r3, r2
 8003ea2:	095b      	lsrs	r3, r3, #5
 8003ea4:	2164      	movs	r1, #100	; 0x64
 8003ea6:	fb01 f303 	mul.w	r3, r1, r3
 8003eaa:	1ad3      	subs	r3, r2, r3
 8003eac:	011b      	lsls	r3, r3, #4
 8003eae:	3332      	adds	r3, #50	; 0x32
 8003eb0:	4a95      	ldr	r2, [pc, #596]	; (8004108 <UART_SetConfig+0x6f4>)
 8003eb2:	fba2 2303 	umull	r2, r3, r2, r3
 8003eb6:	095b      	lsrs	r3, r3, #5
 8003eb8:	f003 03f0 	and.w	r3, r3, #240	; 0xf0
 8003ebc:	4498      	add	r8, r3
 8003ebe:	68bb      	ldr	r3, [r7, #8]
 8003ec0:	469b      	mov	fp, r3
 8003ec2:	f04f 0c00 	mov.w	ip, #0
 8003ec6:	46d9      	mov	r9, fp
 8003ec8:	46e2      	mov	sl, ip
 8003eca:	eb19 0309 	adds.w	r3, r9, r9
 8003ece:	eb4a 040a 	adc.w	r4, sl, sl
 8003ed2:	4699      	mov	r9, r3
 8003ed4:	46a2      	mov	sl, r4
 8003ed6:	eb19 090b 	adds.w	r9, r9, fp
 8003eda:	eb4a 0a0c 	adc.w	sl, sl, ip
 8003ede:	f04f 0100 	mov.w	r1, #0
 8003ee2:	f04f 0200 	mov.w	r2, #0
 8003ee6:	ea4f 02ca 	mov.w	r2, sl, lsl #3
 8003eea:	ea42 7259 	orr.w	r2, r2, r9, lsr #29
 8003eee:	ea4f 01c9 	mov.w	r1, r9, lsl #3
 8003ef2:	4689      	mov	r9, r1
 8003ef4:	4692      	mov	sl, r2
 8003ef6:	eb1b 0509 	adds.w	r5, fp, r9
 8003efa:	eb4c 060a 	adc.w	r6, ip, sl
 8003efe:	687b      	ldr	r3, [r7, #4]
 8003f00:	685b      	ldr	r3, [r3, #4]
 8003f02:	4619      	mov	r1, r3
 8003f04:	f04f 0200 	mov.w	r2, #0
 8003f08:	f04f 0300 	mov.w	r3, #0
 8003f0c:	f04f 0400 	mov.w	r4, #0
 8003f10:	0094      	lsls	r4, r2, #2
 8003f12:	ea44 7491 	orr.w	r4, r4, r1, lsr #30
 8003f16:	008b      	lsls	r3, r1, #2
 8003f18:	461a      	mov	r2, r3
 8003f1a:	4623      	mov	r3, r4
 8003f1c:	4628      	mov	r0, r5
 8003f1e:	4631      	mov	r1, r6
 8003f20:	f7fc feb2 	bl	8000c88 <__aeabi_uldivmod>
 8003f24:	4603      	mov	r3, r0
 8003f26:	460c      	mov	r4, r1
 8003f28:	461a      	mov	r2, r3
 8003f2a:	4b77      	ldr	r3, [pc, #476]	; (8004108 <UART_SetConfig+0x6f4>)
 8003f2c:	fba3 1302 	umull	r1, r3, r3, r2
 8003f30:	095b      	lsrs	r3, r3, #5
 8003f32:	2164      	movs	r1, #100	; 0x64
 8003f34:	fb01 f303 	mul.w	r3, r1, r3
 8003f38:	1ad3      	subs	r3, r2, r3
 8003f3a:	011b      	lsls	r3, r3, #4
 8003f3c:	3332      	adds	r3, #50	; 0x32
 8003f3e:	4a72      	ldr	r2, [pc, #456]	; (8004108 <UART_SetConfig+0x6f4>)
 8003f40:	fba2 2303 	umull	r2, r3, r2, r3
 8003f44:	095b      	lsrs	r3, r3, #5
 8003f46:	f003 020f 	and.w	r2, r3, #15
 8003f4a:	687b      	ldr	r3, [r7, #4]
 8003f4c:	681b      	ldr	r3, [r3, #0]
 8003f4e:	4442      	add	r2, r8
 8003f50:	609a      	str	r2, [r3, #8]
 8003f52:	e0d0      	b.n	80040f6 <UART_SetConfig+0x6e2>
      pclk = HAL_RCC_GetPCLK1Freq();
 8003f54:	f7ff f80c 	bl	8002f70 <HAL_RCC_GetPCLK1Freq>
 8003f58:	60b8      	str	r0, [r7, #8]
      huart->Instance->BRR = UART_BRR_SAMPLING16(pclk, huart->Init.BaudRate);
 8003f5a:	68bb      	ldr	r3, [r7, #8]
 8003f5c:	469a      	mov	sl, r3
 8003f5e:	f04f 0b00 	mov.w	fp, #0
 8003f62:	46d0      	mov	r8, sl
 8003f64:	46d9      	mov	r9, fp
 8003f66:	eb18 0308 	adds.w	r3, r8, r8
 8003f6a:	eb49 0409 	adc.w	r4, r9, r9
 8003f6e:	4698      	mov	r8, r3
 8003f70:	46a1      	mov	r9, r4
 8003f72:	eb18 080a 	adds.w	r8, r8, sl
 8003f76:	eb49 090b 	adc.w	r9, r9, fp
 8003f7a:	f04f 0100 	mov.w	r1, #0
 8003f7e:	f04f 0200 	mov.w	r2, #0
 8003f82:	ea4f 02c9 	mov.w	r2, r9, lsl #3
 8003f86:	ea42 7258 	orr.w	r2, r2, r8, lsr #29
 8003f8a:	ea4f 01c8 	mov.w	r1, r8, lsl #3
 8003f8e:	4688      	mov	r8, r1
 8003f90:	4691      	mov	r9, r2
 8003f92:	eb1a 0508 	adds.w	r5, sl, r8
 8003f96:	eb4b 0609 	adc.w	r6, fp, r9
 8003f9a:	687b      	ldr	r3, [r7, #4]
 8003f9c:	685b      	ldr	r3, [r3, #4]
 8003f9e:	4619      	mov	r1, r3
 8003fa0:	f04f 0200 	mov.w	r2, #0
 8003fa4:	f04f 0300 	mov.w	r3, #0
 8003fa8:	f04f 0400 	mov.w	r4, #0
 8003fac:	0094      	lsls	r4, r2, #2
 8003fae:	ea44 7491 	orr.w	r4, r4, r1, lsr #30
 8003fb2:	008b      	lsls	r3, r1, #2
 8003fb4:	461a      	mov	r2, r3
 8003fb6:	4623      	mov	r3, r4
 8003fb8:	4628      	mov	r0, r5
 8003fba:	4631      	mov	r1, r6
 8003fbc:	f7fc fe64 	bl	8000c88 <__aeabi_uldivmod>
 8003fc0:	4603      	mov	r3, r0
 8003fc2:	460c      	mov	r4, r1
 8003fc4:	461a      	mov	r2, r3
 8003fc6:	4b50      	ldr	r3, [pc, #320]	; (8004108 <UART_SetConfig+0x6f4>)
 8003fc8:	fba3 2302 	umull	r2, r3, r3, r2
 8003fcc:	095b      	lsrs	r3, r3, #5
 8003fce:	ea4f 1803 	mov.w	r8, r3, lsl #4
 8003fd2:	68bb      	ldr	r3, [r7, #8]
 8003fd4:	469b      	mov	fp, r3
 8003fd6:	f04f 0c00 	mov.w	ip, #0
 8003fda:	46d9      	mov	r9, fp
 8003fdc:	46e2      	mov	sl, ip
 8003fde:	eb19 0309 	adds.w	r3, r9, r9
 8003fe2:	eb4a 040a 	adc.w	r4, sl, sl
 8003fe6:	4699      	mov	r9, r3
 8003fe8:	46a2      	mov	sl, r4
 8003fea:	eb19 090b 	adds.w	r9, r9, fp
 8003fee:	eb4a 0a0c 	adc.w	sl, sl, ip
 8003ff2:	f04f 0100 	mov.w	r1, #0
 8003ff6:	f04f 0200 	mov.w	r2, #0
 8003ffa:	ea4f 02ca 	mov.w	r2, sl, lsl #3
 8003ffe:	ea42 7259 	orr.w	r2, r2, r9, lsr #29
 8004002:	ea4f 01c9 	mov.w	r1, r9, lsl #3
 8004006:	4689      	mov	r9, r1
 8004008:	4692      	mov	sl, r2
 800400a:	eb1b 0509 	adds.w	r5, fp, r9
 800400e:	eb4c 060a 	adc.w	r6, ip, sl
 8004012:	687b      	ldr	r3, [r7, #4]
 8004014:	685b      	ldr	r3, [r3, #4]
 8004016:	4619      	mov	r1, r3
 8004018:	f04f 0200 	mov.w	r2, #0
 800401c:	f04f 0300 	mov.w	r3, #0
 8004020:	f04f 0400 	mov.w	r4, #0
 8004024:	0094      	lsls	r4, r2, #2
 8004026:	ea44 7491 	orr.w	r4, r4, r1, lsr #30
 800402a:	008b      	lsls	r3, r1, #2
 800402c:	461a      	mov	r2, r3
 800402e:	4623      	mov	r3, r4
 8004030:	4628      	mov	r0, r5
 8004032:	4631      	mov	r1, r6
 8004034:	f7fc fe28 	bl	8000c88 <__aeabi_uldivmod>
 8004038:	4603      	mov	r3, r0
 800403a:	460c      	mov	r4, r1
 800403c:	461a      	mov	r2, r3
 800403e:	4b32      	ldr	r3, [pc, #200]	; (8004108 <UART_SetConfig+0x6f4>)
 8004040:	fba3 1302 	umull	r1, r3, r3, r2
 8004044:	095b      	lsrs	r3, r3, #5
 8004046:	2164      	movs	r1, #100	; 0x64
 8004048:	fb01 f303 	mul.w	r3, r1, r3
 800404c:	1ad3      	subs	r3, r2, r3
 800404e:	011b      	lsls	r3, r3, #4
 8004050:	3332      	adds	r3, #50	; 0x32
 8004052:	4a2d      	ldr	r2, [pc, #180]	; (8004108 <UART_SetConfig+0x6f4>)
 8004054:	fba2 2303 	umull	r2, r3, r2, r3
 8004058:	095b      	lsrs	r3, r3, #5
 800405a:	f003 03f0 	and.w	r3, r3, #240	; 0xf0
 800405e:	4498      	add	r8, r3
 8004060:	68bb      	ldr	r3, [r7, #8]
 8004062:	469b      	mov	fp, r3
 8004064:	f04f 0c00 	mov.w	ip, #0
 8004068:	46d9      	mov	r9, fp
 800406a:	46e2      	mov	sl, ip
 800406c:	eb19 0309 	adds.w	r3, r9, r9
 8004070:	eb4a 040a 	adc.w	r4, sl, sl
 8004074:	4699      	mov	r9, r3
 8004076:	46a2      	mov	sl, r4
 8004078:	eb19 090b 	adds.w	r9, r9, fp
 800407c:	eb4a 0a0c 	adc.w	sl, sl, ip
 8004080:	f04f 0100 	mov.w	r1, #0
 8004084:	f04f 0200 	mov.w	r2, #0
 8004088:	ea4f 02ca 	mov.w	r2, sl, lsl #3
 800408c:	ea42 7259 	orr.w	r2, r2, r9, lsr #29
 8004090:	ea4f 01c9 	mov.w	r1, r9, lsl #3
 8004094:	4689      	mov	r9, r1
 8004096:	4692      	mov	sl, r2
 8004098:	eb1b 0509 	adds.w	r5, fp, r9
 800409c:	eb4c 060a 	adc.w	r6, ip, sl
 80040a0:	687b      	ldr	r3, [r7, #4]
 80040a2:	685b      	ldr	r3, [r3, #4]
 80040a4:	4619      	mov	r1, r3
 80040a6:	f04f 0200 	mov.w	r2, #0
 80040aa:	f04f 0300 	mov.w	r3, #0
 80040ae:	f04f 0400 	mov.w	r4, #0
 80040b2:	0094      	lsls	r4, r2, #2
 80040b4:	ea44 7491 	orr.w	r4, r4, r1, lsr #30
 80040b8:	008b      	lsls	r3, r1, #2
 80040ba:	461a      	mov	r2, r3
 80040bc:	4623      	mov	r3, r4
 80040be:	4628      	mov	r0, r5
 80040c0:	4631      	mov	r1, r6
 80040c2:	f7fc fde1 	bl	8000c88 <__aeabi_uldivmod>
 80040c6:	4603      	mov	r3, r0
 80040c8:	460c      	mov	r4, r1
 80040ca:	461a      	mov	r2, r3
 80040cc:	4b0e      	ldr	r3, [pc, #56]	; (8004108 <UART_SetConfig+0x6f4>)
 80040ce:	fba3 1302 	umull	r1, r3, r3, r2
 80040d2:	095b      	lsrs	r3, r3, #5
 80040d4:	2164      	movs	r1, #100	; 0x64
 80040d6:	fb01 f303 	mul.w	r3, r1, r3
 80040da:	1ad3      	subs	r3, r2, r3
 80040dc:	011b      	lsls	r3, r3, #4
 80040de:	3332      	adds	r3, #50	; 0x32
 80040e0:	4a09      	ldr	r2, [pc, #36]	; (8004108 <UART_SetConfig+0x6f4>)
 80040e2:	fba2 2303 	umull	r2, r3, r2, r3
 80040e6:	095b      	lsrs	r3, r3, #5
 80040e8:	f003 020f 	and.w	r2, r3, #15
 80040ec:	687b      	ldr	r3, [r7, #4]
 80040ee:	681b      	ldr	r3, [r3, #0]
 80040f0:	4442      	add	r2, r8
 80040f2:	609a      	str	r2, [r3, #8]
}
 80040f4:	e7ff      	b.n	80040f6 <UART_SetConfig+0x6e2>
 80040f6:	bf00      	nop
 80040f8:	3714      	adds	r7, #20
 80040fa:	46bd      	mov	sp, r7
 80040fc:	e8bd 8ff0 	ldmia.w	sp!, {r4, r5, r6, r7, r8, r9, sl, fp, pc}
 8004100:	40011000 	.word	0x40011000
 8004104:	40011400 	.word	0x40011400
 8004108:	51eb851f 	.word	0x51eb851f

0800410c <__errno>:
 800410c:	4b01      	ldr	r3, [pc, #4]	; (8004114 <__errno+0x8>)
 800410e:	6818      	ldr	r0, [r3, #0]
 8004110:	4770      	bx	lr
 8004112:	bf00      	nop
 8004114:	2000000c 	.word	0x2000000c

08004118 <__libc_init_array>:
 8004118:	b570      	push	{r4, r5, r6, lr}
 800411a:	4e0d      	ldr	r6, [pc, #52]	; (8004150 <__libc_init_array+0x38>)
 800411c:	4c0d      	ldr	r4, [pc, #52]	; (8004154 <__libc_init_array+0x3c>)
 800411e:	1ba4      	subs	r4, r4, r6
 8004120:	10a4      	asrs	r4, r4, #2
 8004122:	2500      	movs	r5, #0
 8004124:	42a5      	cmp	r5, r4
 8004126:	d109      	bne.n	800413c <__libc_init_array+0x24>
 8004128:	4e0b      	ldr	r6, [pc, #44]	; (8004158 <__libc_init_array+0x40>)
 800412a:	4c0c      	ldr	r4, [pc, #48]	; (800415c <__libc_init_array+0x44>)
 800412c:	f002 f85c 	bl	80061e8 <_init>
 8004130:	1ba4      	subs	r4, r4, r6
 8004132:	10a4      	asrs	r4, r4, #2
 8004134:	2500      	movs	r5, #0
 8004136:	42a5      	cmp	r5, r4
 8004138:	d105      	bne.n	8004146 <__libc_init_array+0x2e>
 800413a:	bd70      	pop	{r4, r5, r6, pc}
 800413c:	f856 3025 	ldr.w	r3, [r6, r5, lsl #2]
 8004140:	4798      	blx	r3
 8004142:	3501      	adds	r5, #1
 8004144:	e7ee      	b.n	8004124 <__libc_init_array+0xc>
 8004146:	f856 3025 	ldr.w	r3, [r6, r5, lsl #2]
 800414a:	4798      	blx	r3
 800414c:	3501      	adds	r5, #1
 800414e:	e7f2      	b.n	8004136 <__libc_init_array+0x1e>
 8004150:	08006488 	.word	0x08006488
 8004154:	08006488 	.word	0x08006488
 8004158:	08006488 	.word	0x08006488
 800415c:	0800648c 	.word	0x0800648c

08004160 <memset>:
 8004160:	4402      	add	r2, r0
 8004162:	4603      	mov	r3, r0
 8004164:	4293      	cmp	r3, r2
 8004166:	d100      	bne.n	800416a <memset+0xa>
 8004168:	4770      	bx	lr
 800416a:	f803 1b01 	strb.w	r1, [r3], #1
 800416e:	e7f9      	b.n	8004164 <memset+0x4>

08004170 <__cvt>:
 8004170:	e92d 47ff 	stmdb	sp!, {r0, r1, r2, r3, r4, r5, r6, r7, r8, r9, sl, lr}
 8004174:	ec55 4b10 	vmov	r4, r5, d0
 8004178:	9f0d      	ldr	r7, [sp, #52]	; 0x34
 800417a:	f8dd a030 	ldr.w	sl, [sp, #48]	; 0x30
 800417e:	2d00      	cmp	r5, #0
 8004180:	460e      	mov	r6, r1
 8004182:	4691      	mov	r9, r2
 8004184:	4619      	mov	r1, r3
 8004186:	bfb8      	it	lt
 8004188:	4622      	movlt	r2, r4
 800418a:	462b      	mov	r3, r5
 800418c:	f027 0720 	bic.w	r7, r7, #32
 8004190:	bfbb      	ittet	lt
 8004192:	f105 4300 	addlt.w	r3, r5, #2147483648	; 0x80000000
 8004196:	461d      	movlt	r5, r3
 8004198:	2300      	movge	r3, #0
 800419a:	232d      	movlt	r3, #45	; 0x2d
 800419c:	bfb8      	it	lt
 800419e:	4614      	movlt	r4, r2
 80041a0:	2f46      	cmp	r7, #70	; 0x46
 80041a2:	700b      	strb	r3, [r1, #0]
 80041a4:	d004      	beq.n	80041b0 <__cvt+0x40>
 80041a6:	2f45      	cmp	r7, #69	; 0x45
 80041a8:	d100      	bne.n	80041ac <__cvt+0x3c>
 80041aa:	3601      	adds	r6, #1
 80041ac:	2102      	movs	r1, #2
 80041ae:	e000      	b.n	80041b2 <__cvt+0x42>
 80041b0:	2103      	movs	r1, #3
 80041b2:	ab03      	add	r3, sp, #12
 80041b4:	9301      	str	r3, [sp, #4]
 80041b6:	ab02      	add	r3, sp, #8
 80041b8:	9300      	str	r3, [sp, #0]
 80041ba:	4632      	mov	r2, r6
 80041bc:	4653      	mov	r3, sl
 80041be:	ec45 4b10 	vmov	d0, r4, r5
 80041c2:	f000 fcdd 	bl	8004b80 <_dtoa_r>
 80041c6:	2f47      	cmp	r7, #71	; 0x47
 80041c8:	4680      	mov	r8, r0
 80041ca:	d102      	bne.n	80041d2 <__cvt+0x62>
 80041cc:	f019 0f01 	tst.w	r9, #1
 80041d0:	d026      	beq.n	8004220 <__cvt+0xb0>
 80041d2:	2f46      	cmp	r7, #70	; 0x46
 80041d4:	eb08 0906 	add.w	r9, r8, r6
 80041d8:	d111      	bne.n	80041fe <__cvt+0x8e>
 80041da:	f898 3000 	ldrb.w	r3, [r8]
 80041de:	2b30      	cmp	r3, #48	; 0x30
 80041e0:	d10a      	bne.n	80041f8 <__cvt+0x88>
 80041e2:	2200      	movs	r2, #0
 80041e4:	2300      	movs	r3, #0
 80041e6:	4620      	mov	r0, r4
 80041e8:	4629      	mov	r1, r5
 80041ea:	f7fc fc8d 	bl	8000b08 <__aeabi_dcmpeq>
 80041ee:	b918      	cbnz	r0, 80041f8 <__cvt+0x88>
 80041f0:	f1c6 0601 	rsb	r6, r6, #1
 80041f4:	f8ca 6000 	str.w	r6, [sl]
 80041f8:	f8da 3000 	ldr.w	r3, [sl]
 80041fc:	4499      	add	r9, r3
 80041fe:	2200      	movs	r2, #0
 8004200:	2300      	movs	r3, #0
 8004202:	4620      	mov	r0, r4
 8004204:	4629      	mov	r1, r5
 8004206:	f7fc fc7f 	bl	8000b08 <__aeabi_dcmpeq>
 800420a:	b938      	cbnz	r0, 800421c <__cvt+0xac>
 800420c:	2230      	movs	r2, #48	; 0x30
 800420e:	9b03      	ldr	r3, [sp, #12]
 8004210:	454b      	cmp	r3, r9
 8004212:	d205      	bcs.n	8004220 <__cvt+0xb0>
 8004214:	1c59      	adds	r1, r3, #1
 8004216:	9103      	str	r1, [sp, #12]
 8004218:	701a      	strb	r2, [r3, #0]
 800421a:	e7f8      	b.n	800420e <__cvt+0x9e>
 800421c:	f8cd 900c 	str.w	r9, [sp, #12]
 8004220:	9b03      	ldr	r3, [sp, #12]
 8004222:	9a0e      	ldr	r2, [sp, #56]	; 0x38
 8004224:	eba3 0308 	sub.w	r3, r3, r8
 8004228:	4640      	mov	r0, r8
 800422a:	6013      	str	r3, [r2, #0]
 800422c:	b004      	add	sp, #16
 800422e:	e8bd 87f0 	ldmia.w	sp!, {r4, r5, r6, r7, r8, r9, sl, pc}

08004232 <__exponent>:
 8004232:	b5f7      	push	{r0, r1, r2, r4, r5, r6, r7, lr}
 8004234:	2900      	cmp	r1, #0
 8004236:	4604      	mov	r4, r0
 8004238:	bfba      	itte	lt
 800423a:	4249      	neglt	r1, r1
 800423c:	232d      	movlt	r3, #45	; 0x2d
 800423e:	232b      	movge	r3, #43	; 0x2b
 8004240:	2909      	cmp	r1, #9
 8004242:	f804 2b02 	strb.w	r2, [r4], #2
 8004246:	7043      	strb	r3, [r0, #1]
 8004248:	dd20      	ble.n	800428c <__exponent+0x5a>
 800424a:	f10d 0307 	add.w	r3, sp, #7
 800424e:	461f      	mov	r7, r3
 8004250:	260a      	movs	r6, #10
 8004252:	fb91 f5f6 	sdiv	r5, r1, r6
 8004256:	fb06 1115 	mls	r1, r6, r5, r1
 800425a:	3130      	adds	r1, #48	; 0x30
 800425c:	2d09      	cmp	r5, #9
 800425e:	f803 1c01 	strb.w	r1, [r3, #-1]
 8004262:	f103 32ff 	add.w	r2, r3, #4294967295
 8004266:	4629      	mov	r1, r5
 8004268:	dc09      	bgt.n	800427e <__exponent+0x4c>
 800426a:	3130      	adds	r1, #48	; 0x30
 800426c:	3b02      	subs	r3, #2
 800426e:	f802 1c01 	strb.w	r1, [r2, #-1]
 8004272:	42bb      	cmp	r3, r7
 8004274:	4622      	mov	r2, r4
 8004276:	d304      	bcc.n	8004282 <__exponent+0x50>
 8004278:	1a10      	subs	r0, r2, r0
 800427a:	b003      	add	sp, #12
 800427c:	bdf0      	pop	{r4, r5, r6, r7, pc}
 800427e:	4613      	mov	r3, r2
 8004280:	e7e7      	b.n	8004252 <__exponent+0x20>
 8004282:	f813 2b01 	ldrb.w	r2, [r3], #1
 8004286:	f804 2b01 	strb.w	r2, [r4], #1
 800428a:	e7f2      	b.n	8004272 <__exponent+0x40>
 800428c:	2330      	movs	r3, #48	; 0x30
 800428e:	4419      	add	r1, r3
 8004290:	7083      	strb	r3, [r0, #2]
 8004292:	1d02      	adds	r2, r0, #4
 8004294:	70c1      	strb	r1, [r0, #3]
 8004296:	e7ef      	b.n	8004278 <__exponent+0x46>

08004298 <_printf_float>:
 8004298:	e92d 4ff0 	stmdb	sp!, {r4, r5, r6, r7, r8, r9, sl, fp, lr}
 800429c:	b08d      	sub	sp, #52	; 0x34
 800429e:	460c      	mov	r4, r1
 80042a0:	f8dd 8058 	ldr.w	r8, [sp, #88]	; 0x58
 80042a4:	4616      	mov	r6, r2
 80042a6:	461f      	mov	r7, r3
 80042a8:	4605      	mov	r5, r0
 80042aa:	f001 fa21 	bl	80056f0 <_localeconv_r>
 80042ae:	6803      	ldr	r3, [r0, #0]
 80042b0:	9304      	str	r3, [sp, #16]
 80042b2:	4618      	mov	r0, r3
 80042b4:	f7fb ffac 	bl	8000210 <strlen>
 80042b8:	2300      	movs	r3, #0
 80042ba:	930a      	str	r3, [sp, #40]	; 0x28
 80042bc:	f8d8 3000 	ldr.w	r3, [r8]
 80042c0:	9005      	str	r0, [sp, #20]
 80042c2:	3307      	adds	r3, #7
 80042c4:	f023 0307 	bic.w	r3, r3, #7
 80042c8:	f103 0208 	add.w	r2, r3, #8
 80042cc:	f894 a018 	ldrb.w	sl, [r4, #24]
 80042d0:	f8d4 b000 	ldr.w	fp, [r4]
 80042d4:	f8c8 2000 	str.w	r2, [r8]
 80042d8:	e9d3 2300 	ldrd	r2, r3, [r3]
 80042dc:	e9c4 2312 	strd	r2, r3, [r4, #72]	; 0x48
 80042e0:	e9d4 8912 	ldrd	r8, r9, [r4, #72]	; 0x48
 80042e4:	f029 4300 	bic.w	r3, r9, #2147483648	; 0x80000000
 80042e8:	9307      	str	r3, [sp, #28]
 80042ea:	f8cd 8018 	str.w	r8, [sp, #24]
 80042ee:	f04f 32ff 	mov.w	r2, #4294967295
 80042f2:	4ba7      	ldr	r3, [pc, #668]	; (8004590 <_printf_float+0x2f8>)
 80042f4:	e9dd 0106 	ldrd	r0, r1, [sp, #24]
 80042f8:	f7fc fc38 	bl	8000b6c <__aeabi_dcmpun>
 80042fc:	bb70      	cbnz	r0, 800435c <_printf_float+0xc4>
 80042fe:	f04f 32ff 	mov.w	r2, #4294967295
 8004302:	4ba3      	ldr	r3, [pc, #652]	; (8004590 <_printf_float+0x2f8>)
 8004304:	e9dd 0106 	ldrd	r0, r1, [sp, #24]
 8004308:	f7fc fc12 	bl	8000b30 <__aeabi_dcmple>
 800430c:	bb30      	cbnz	r0, 800435c <_printf_float+0xc4>
 800430e:	2200      	movs	r2, #0
 8004310:	2300      	movs	r3, #0
 8004312:	4640      	mov	r0, r8
 8004314:	4649      	mov	r1, r9
 8004316:	f7fc fc01 	bl	8000b1c <__aeabi_dcmplt>
 800431a:	b110      	cbz	r0, 8004322 <_printf_float+0x8a>
 800431c:	232d      	movs	r3, #45	; 0x2d
 800431e:	f884 3043 	strb.w	r3, [r4, #67]	; 0x43
 8004322:	4a9c      	ldr	r2, [pc, #624]	; (8004594 <_printf_float+0x2fc>)
 8004324:	4b9c      	ldr	r3, [pc, #624]	; (8004598 <_printf_float+0x300>)
 8004326:	f1ba 0f47 	cmp.w	sl, #71	; 0x47
 800432a:	bf8c      	ite	hi
 800432c:	4690      	movhi	r8, r2
 800432e:	4698      	movls	r8, r3
 8004330:	2303      	movs	r3, #3
 8004332:	f02b 0204 	bic.w	r2, fp, #4
 8004336:	6123      	str	r3, [r4, #16]
 8004338:	6022      	str	r2, [r4, #0]
 800433a:	f04f 0900 	mov.w	r9, #0
 800433e:	9700      	str	r7, [sp, #0]
 8004340:	4633      	mov	r3, r6
 8004342:	aa0b      	add	r2, sp, #44	; 0x2c
 8004344:	4621      	mov	r1, r4
 8004346:	4628      	mov	r0, r5
 8004348:	f000 f9e6 	bl	8004718 <_printf_common>
 800434c:	3001      	adds	r0, #1
 800434e:	f040 808d 	bne.w	800446c <_printf_float+0x1d4>
 8004352:	f04f 30ff 	mov.w	r0, #4294967295
 8004356:	b00d      	add	sp, #52	; 0x34
 8004358:	e8bd 8ff0 	ldmia.w	sp!, {r4, r5, r6, r7, r8, r9, sl, fp, pc}
 800435c:	4642      	mov	r2, r8
 800435e:	464b      	mov	r3, r9
 8004360:	4640      	mov	r0, r8
 8004362:	4649      	mov	r1, r9
 8004364:	f7fc fc02 	bl	8000b6c <__aeabi_dcmpun>
 8004368:	b110      	cbz	r0, 8004370 <_printf_float+0xd8>
 800436a:	4a8c      	ldr	r2, [pc, #560]	; (800459c <_printf_float+0x304>)
 800436c:	4b8c      	ldr	r3, [pc, #560]	; (80045a0 <_printf_float+0x308>)
 800436e:	e7da      	b.n	8004326 <_printf_float+0x8e>
 8004370:	6861      	ldr	r1, [r4, #4]
 8004372:	1c4b      	adds	r3, r1, #1
 8004374:	f44b 6280 	orr.w	r2, fp, #1024	; 0x400
 8004378:	a80a      	add	r0, sp, #40	; 0x28
 800437a:	d13e      	bne.n	80043fa <_printf_float+0x162>
 800437c:	2306      	movs	r3, #6
 800437e:	6063      	str	r3, [r4, #4]
 8004380:	2300      	movs	r3, #0
 8004382:	e9cd 0302 	strd	r0, r3, [sp, #8]
 8004386:	ab09      	add	r3, sp, #36	; 0x24
 8004388:	9300      	str	r3, [sp, #0]
 800438a:	ec49 8b10 	vmov	d0, r8, r9
 800438e:	f10d 0323 	add.w	r3, sp, #35	; 0x23
 8004392:	6022      	str	r2, [r4, #0]
 8004394:	f8cd a004 	str.w	sl, [sp, #4]
 8004398:	6861      	ldr	r1, [r4, #4]
 800439a:	4628      	mov	r0, r5
 800439c:	f7ff fee8 	bl	8004170 <__cvt>
 80043a0:	f00a 03df 	and.w	r3, sl, #223	; 0xdf
 80043a4:	2b47      	cmp	r3, #71	; 0x47
 80043a6:	4680      	mov	r8, r0
 80043a8:	d109      	bne.n	80043be <_printf_float+0x126>
 80043aa:	9b09      	ldr	r3, [sp, #36]	; 0x24
 80043ac:	1cd8      	adds	r0, r3, #3
 80043ae:	db02      	blt.n	80043b6 <_printf_float+0x11e>
 80043b0:	6862      	ldr	r2, [r4, #4]
 80043b2:	4293      	cmp	r3, r2
 80043b4:	dd47      	ble.n	8004446 <_printf_float+0x1ae>
 80043b6:	f1aa 0a02 	sub.w	sl, sl, #2
 80043ba:	fa5f fa8a 	uxtb.w	sl, sl
 80043be:	f1ba 0f65 	cmp.w	sl, #101	; 0x65
 80043c2:	9909      	ldr	r1, [sp, #36]	; 0x24
 80043c4:	d824      	bhi.n	8004410 <_printf_float+0x178>
 80043c6:	3901      	subs	r1, #1
 80043c8:	4652      	mov	r2, sl
 80043ca:	f104 0050 	add.w	r0, r4, #80	; 0x50
 80043ce:	9109      	str	r1, [sp, #36]	; 0x24
 80043d0:	f7ff ff2f 	bl	8004232 <__exponent>
 80043d4:	9a0a      	ldr	r2, [sp, #40]	; 0x28
 80043d6:	1813      	adds	r3, r2, r0
 80043d8:	2a01      	cmp	r2, #1
 80043da:	4681      	mov	r9, r0
 80043dc:	6123      	str	r3, [r4, #16]
 80043de:	dc02      	bgt.n	80043e6 <_printf_float+0x14e>
 80043e0:	6822      	ldr	r2, [r4, #0]
 80043e2:	07d1      	lsls	r1, r2, #31
 80043e4:	d501      	bpl.n	80043ea <_printf_float+0x152>
 80043e6:	3301      	adds	r3, #1
 80043e8:	6123      	str	r3, [r4, #16]
 80043ea:	f89d 3023 	ldrb.w	r3, [sp, #35]	; 0x23
 80043ee:	2b00      	cmp	r3, #0
 80043f0:	d0a5      	beq.n	800433e <_printf_float+0xa6>
 80043f2:	232d      	movs	r3, #45	; 0x2d
 80043f4:	f884 3043 	strb.w	r3, [r4, #67]	; 0x43
 80043f8:	e7a1      	b.n	800433e <_printf_float+0xa6>
 80043fa:	f1ba 0f67 	cmp.w	sl, #103	; 0x67
 80043fe:	f000 8177 	beq.w	80046f0 <_printf_float+0x458>
 8004402:	f1ba 0f47 	cmp.w	sl, #71	; 0x47
 8004406:	d1bb      	bne.n	8004380 <_printf_float+0xe8>
 8004408:	2900      	cmp	r1, #0
 800440a:	d1b9      	bne.n	8004380 <_printf_float+0xe8>
 800440c:	2301      	movs	r3, #1
 800440e:	e7b6      	b.n	800437e <_printf_float+0xe6>
 8004410:	f1ba 0f66 	cmp.w	sl, #102	; 0x66
 8004414:	d119      	bne.n	800444a <_printf_float+0x1b2>
 8004416:	2900      	cmp	r1, #0
 8004418:	6863      	ldr	r3, [r4, #4]
 800441a:	dd0c      	ble.n	8004436 <_printf_float+0x19e>
 800441c:	6121      	str	r1, [r4, #16]
 800441e:	b913      	cbnz	r3, 8004426 <_printf_float+0x18e>
 8004420:	6822      	ldr	r2, [r4, #0]
 8004422:	07d2      	lsls	r2, r2, #31
 8004424:	d502      	bpl.n	800442c <_printf_float+0x194>
 8004426:	3301      	adds	r3, #1
 8004428:	440b      	add	r3, r1
 800442a:	6123      	str	r3, [r4, #16]
 800442c:	9b09      	ldr	r3, [sp, #36]	; 0x24
 800442e:	65a3      	str	r3, [r4, #88]	; 0x58
 8004430:	f04f 0900 	mov.w	r9, #0
 8004434:	e7d9      	b.n	80043ea <_printf_float+0x152>
 8004436:	b913      	cbnz	r3, 800443e <_printf_float+0x1a6>
 8004438:	6822      	ldr	r2, [r4, #0]
 800443a:	07d0      	lsls	r0, r2, #31
 800443c:	d501      	bpl.n	8004442 <_printf_float+0x1aa>
 800443e:	3302      	adds	r3, #2
 8004440:	e7f3      	b.n	800442a <_printf_float+0x192>
 8004442:	2301      	movs	r3, #1
 8004444:	e7f1      	b.n	800442a <_printf_float+0x192>
 8004446:	f04f 0a67 	mov.w	sl, #103	; 0x67
 800444a:	e9dd 3209 	ldrd	r3, r2, [sp, #36]	; 0x24
 800444e:	4293      	cmp	r3, r2
 8004450:	db05      	blt.n	800445e <_printf_float+0x1c6>
 8004452:	6822      	ldr	r2, [r4, #0]
 8004454:	6123      	str	r3, [r4, #16]
 8004456:	07d1      	lsls	r1, r2, #31
 8004458:	d5e8      	bpl.n	800442c <_printf_float+0x194>
 800445a:	3301      	adds	r3, #1
 800445c:	e7e5      	b.n	800442a <_printf_float+0x192>
 800445e:	2b00      	cmp	r3, #0
 8004460:	bfd4      	ite	le
 8004462:	f1c3 0302 	rsble	r3, r3, #2
 8004466:	2301      	movgt	r3, #1
 8004468:	4413      	add	r3, r2
 800446a:	e7de      	b.n	800442a <_printf_float+0x192>
 800446c:	6823      	ldr	r3, [r4, #0]
 800446e:	055a      	lsls	r2, r3, #21
 8004470:	d407      	bmi.n	8004482 <_printf_float+0x1ea>
 8004472:	6923      	ldr	r3, [r4, #16]
 8004474:	4642      	mov	r2, r8
 8004476:	4631      	mov	r1, r6
 8004478:	4628      	mov	r0, r5
 800447a:	47b8      	blx	r7
 800447c:	3001      	adds	r0, #1
 800447e:	d12b      	bne.n	80044d8 <_printf_float+0x240>
 8004480:	e767      	b.n	8004352 <_printf_float+0xba>
 8004482:	f1ba 0f65 	cmp.w	sl, #101	; 0x65
 8004486:	f240 80dc 	bls.w	8004642 <_printf_float+0x3aa>
 800448a:	2200      	movs	r2, #0
 800448c:	2300      	movs	r3, #0
 800448e:	e9d4 0112 	ldrd	r0, r1, [r4, #72]	; 0x48
 8004492:	f7fc fb39 	bl	8000b08 <__aeabi_dcmpeq>
 8004496:	2800      	cmp	r0, #0
 8004498:	d033      	beq.n	8004502 <_printf_float+0x26a>
 800449a:	2301      	movs	r3, #1
 800449c:	4a41      	ldr	r2, [pc, #260]	; (80045a4 <_printf_float+0x30c>)
 800449e:	4631      	mov	r1, r6
 80044a0:	4628      	mov	r0, r5
 80044a2:	47b8      	blx	r7
 80044a4:	3001      	adds	r0, #1
 80044a6:	f43f af54 	beq.w	8004352 <_printf_float+0xba>
 80044aa:	e9dd 2309 	ldrd	r2, r3, [sp, #36]	; 0x24
 80044ae:	429a      	cmp	r2, r3
 80044b0:	db02      	blt.n	80044b8 <_printf_float+0x220>
 80044b2:	6823      	ldr	r3, [r4, #0]
 80044b4:	07d8      	lsls	r0, r3, #31
 80044b6:	d50f      	bpl.n	80044d8 <_printf_float+0x240>
 80044b8:	e9dd 2304 	ldrd	r2, r3, [sp, #16]
 80044bc:	4631      	mov	r1, r6
 80044be:	4628      	mov	r0, r5
 80044c0:	47b8      	blx	r7
 80044c2:	3001      	adds	r0, #1
 80044c4:	f43f af45 	beq.w	8004352 <_printf_float+0xba>
 80044c8:	f04f 0800 	mov.w	r8, #0
 80044cc:	f104 091a 	add.w	r9, r4, #26
 80044d0:	9b0a      	ldr	r3, [sp, #40]	; 0x28
 80044d2:	3b01      	subs	r3, #1
 80044d4:	4543      	cmp	r3, r8
 80044d6:	dc09      	bgt.n	80044ec <_printf_float+0x254>
 80044d8:	6823      	ldr	r3, [r4, #0]
 80044da:	079b      	lsls	r3, r3, #30
 80044dc:	f100 8103 	bmi.w	80046e6 <_printf_float+0x44e>
 80044e0:	68e0      	ldr	r0, [r4, #12]
 80044e2:	9b0b      	ldr	r3, [sp, #44]	; 0x2c
 80044e4:	4298      	cmp	r0, r3
 80044e6:	bfb8      	it	lt
 80044e8:	4618      	movlt	r0, r3
 80044ea:	e734      	b.n	8004356 <_printf_float+0xbe>
 80044ec:	2301      	movs	r3, #1
 80044ee:	464a      	mov	r2, r9
 80044f0:	4631      	mov	r1, r6
 80044f2:	4628      	mov	r0, r5
 80044f4:	47b8      	blx	r7
 80044f6:	3001      	adds	r0, #1
 80044f8:	f43f af2b 	beq.w	8004352 <_printf_float+0xba>
 80044fc:	f108 0801 	add.w	r8, r8, #1
 8004500:	e7e6      	b.n	80044d0 <_printf_float+0x238>
 8004502:	9b09      	ldr	r3, [sp, #36]	; 0x24
 8004504:	2b00      	cmp	r3, #0
 8004506:	dc2b      	bgt.n	8004560 <_printf_float+0x2c8>
 8004508:	2301      	movs	r3, #1
 800450a:	4a26      	ldr	r2, [pc, #152]	; (80045a4 <_printf_float+0x30c>)
 800450c:	4631      	mov	r1, r6
 800450e:	4628      	mov	r0, r5
 8004510:	47b8      	blx	r7
 8004512:	3001      	adds	r0, #1
 8004514:	f43f af1d 	beq.w	8004352 <_printf_float+0xba>
 8004518:	9b09      	ldr	r3, [sp, #36]	; 0x24
 800451a:	b923      	cbnz	r3, 8004526 <_printf_float+0x28e>
 800451c:	9b0a      	ldr	r3, [sp, #40]	; 0x28
 800451e:	b913      	cbnz	r3, 8004526 <_printf_float+0x28e>
 8004520:	6823      	ldr	r3, [r4, #0]
 8004522:	07d9      	lsls	r1, r3, #31
 8004524:	d5d8      	bpl.n	80044d8 <_printf_float+0x240>
 8004526:	e9dd 2304 	ldrd	r2, r3, [sp, #16]
 800452a:	4631      	mov	r1, r6
 800452c:	4628      	mov	r0, r5
 800452e:	47b8      	blx	r7
 8004530:	3001      	adds	r0, #1
 8004532:	f43f af0e 	beq.w	8004352 <_printf_float+0xba>
 8004536:	f04f 0900 	mov.w	r9, #0
 800453a:	f104 0a1a 	add.w	sl, r4, #26
 800453e:	9b09      	ldr	r3, [sp, #36]	; 0x24
 8004540:	425b      	negs	r3, r3
 8004542:	454b      	cmp	r3, r9
 8004544:	dc01      	bgt.n	800454a <_printf_float+0x2b2>
 8004546:	9b0a      	ldr	r3, [sp, #40]	; 0x28
 8004548:	e794      	b.n	8004474 <_printf_float+0x1dc>
 800454a:	2301      	movs	r3, #1
 800454c:	4652      	mov	r2, sl
 800454e:	4631      	mov	r1, r6
 8004550:	4628      	mov	r0, r5
 8004552:	47b8      	blx	r7
 8004554:	3001      	adds	r0, #1
 8004556:	f43f aefc 	beq.w	8004352 <_printf_float+0xba>
 800455a:	f109 0901 	add.w	r9, r9, #1
 800455e:	e7ee      	b.n	800453e <_printf_float+0x2a6>
 8004560:	9a0a      	ldr	r2, [sp, #40]	; 0x28
 8004562:	6da3      	ldr	r3, [r4, #88]	; 0x58
 8004564:	429a      	cmp	r2, r3
 8004566:	bfa8      	it	ge
 8004568:	461a      	movge	r2, r3
 800456a:	2a00      	cmp	r2, #0
 800456c:	4691      	mov	r9, r2
 800456e:	dd07      	ble.n	8004580 <_printf_float+0x2e8>
 8004570:	4613      	mov	r3, r2
 8004572:	4631      	mov	r1, r6
 8004574:	4642      	mov	r2, r8
 8004576:	4628      	mov	r0, r5
 8004578:	47b8      	blx	r7
 800457a:	3001      	adds	r0, #1
 800457c:	f43f aee9 	beq.w	8004352 <_printf_float+0xba>
 8004580:	f104 031a 	add.w	r3, r4, #26
 8004584:	f04f 0b00 	mov.w	fp, #0
 8004588:	ea29 79e9 	bic.w	r9, r9, r9, asr #31
 800458c:	9306      	str	r3, [sp, #24]
 800458e:	e015      	b.n	80045bc <_printf_float+0x324>
 8004590:	7fefffff 	.word	0x7fefffff
 8004594:	08006228 	.word	0x08006228
 8004598:	08006224 	.word	0x08006224
 800459c:	08006230 	.word	0x08006230
 80045a0:	0800622c 	.word	0x0800622c
 80045a4:	08006234 	.word	0x08006234
 80045a8:	2301      	movs	r3, #1
 80045aa:	9a06      	ldr	r2, [sp, #24]
 80045ac:	4631      	mov	r1, r6
 80045ae:	4628      	mov	r0, r5
 80045b0:	47b8      	blx	r7
 80045b2:	3001      	adds	r0, #1
 80045b4:	f43f aecd 	beq.w	8004352 <_printf_float+0xba>
 80045b8:	f10b 0b01 	add.w	fp, fp, #1
 80045bc:	f8d4 a058 	ldr.w	sl, [r4, #88]	; 0x58
 80045c0:	ebaa 0309 	sub.w	r3, sl, r9
 80045c4:	455b      	cmp	r3, fp
 80045c6:	dcef      	bgt.n	80045a8 <_printf_float+0x310>
 80045c8:	e9dd 2309 	ldrd	r2, r3, [sp, #36]	; 0x24
 80045cc:	429a      	cmp	r2, r3
 80045ce:	44d0      	add	r8, sl
 80045d0:	db15      	blt.n	80045fe <_printf_float+0x366>
 80045d2:	6823      	ldr	r3, [r4, #0]
 80045d4:	07da      	lsls	r2, r3, #31
 80045d6:	d412      	bmi.n	80045fe <_printf_float+0x366>
 80045d8:	9b0a      	ldr	r3, [sp, #40]	; 0x28
 80045da:	9909      	ldr	r1, [sp, #36]	; 0x24
 80045dc:	eba3 020a 	sub.w	r2, r3, sl
 80045e0:	eba3 0a01 	sub.w	sl, r3, r1
 80045e4:	4592      	cmp	sl, r2
 80045e6:	bfa8      	it	ge
 80045e8:	4692      	movge	sl, r2
 80045ea:	f1ba 0f00 	cmp.w	sl, #0
 80045ee:	dc0e      	bgt.n	800460e <_printf_float+0x376>
 80045f0:	f04f 0800 	mov.w	r8, #0
 80045f4:	ea2a 7aea 	bic.w	sl, sl, sl, asr #31
 80045f8:	f104 091a 	add.w	r9, r4, #26
 80045fc:	e019      	b.n	8004632 <_printf_float+0x39a>
 80045fe:	e9dd 2304 	ldrd	r2, r3, [sp, #16]
 8004602:	4631      	mov	r1, r6
 8004604:	4628      	mov	r0, r5
 8004606:	47b8      	blx	r7
 8004608:	3001      	adds	r0, #1
 800460a:	d1e5      	bne.n	80045d8 <_printf_float+0x340>
 800460c:	e6a1      	b.n	8004352 <_printf_float+0xba>
 800460e:	4653      	mov	r3, sl
 8004610:	4642      	mov	r2, r8
 8004612:	4631      	mov	r1, r6
 8004614:	4628      	mov	r0, r5
 8004616:	47b8      	blx	r7
 8004618:	3001      	adds	r0, #1
 800461a:	d1e9      	bne.n	80045f0 <_printf_float+0x358>
 800461c:	e699      	b.n	8004352 <_printf_float+0xba>
 800461e:	2301      	movs	r3, #1
 8004620:	464a      	mov	r2, r9
 8004622:	4631      	mov	r1, r6
 8004624:	4628      	mov	r0, r5
 8004626:	47b8      	blx	r7
 8004628:	3001      	adds	r0, #1
 800462a:	f43f ae92 	beq.w	8004352 <_printf_float+0xba>
 800462e:	f108 0801 	add.w	r8, r8, #1
 8004632:	e9dd 2309 	ldrd	r2, r3, [sp, #36]	; 0x24
 8004636:	1a9b      	subs	r3, r3, r2
 8004638:	eba3 030a 	sub.w	r3, r3, sl
 800463c:	4543      	cmp	r3, r8
 800463e:	dcee      	bgt.n	800461e <_printf_float+0x386>
 8004640:	e74a      	b.n	80044d8 <_printf_float+0x240>
 8004642:	9a0a      	ldr	r2, [sp, #40]	; 0x28
 8004644:	2a01      	cmp	r2, #1
 8004646:	dc01      	bgt.n	800464c <_printf_float+0x3b4>
 8004648:	07db      	lsls	r3, r3, #31
 800464a:	d53a      	bpl.n	80046c2 <_printf_float+0x42a>
 800464c:	2301      	movs	r3, #1
 800464e:	4642      	mov	r2, r8
 8004650:	4631      	mov	r1, r6
 8004652:	4628      	mov	r0, r5
 8004654:	47b8      	blx	r7
 8004656:	3001      	adds	r0, #1
 8004658:	f43f ae7b 	beq.w	8004352 <_printf_float+0xba>
 800465c:	e9dd 2304 	ldrd	r2, r3, [sp, #16]
 8004660:	4631      	mov	r1, r6
 8004662:	4628      	mov	r0, r5
 8004664:	47b8      	blx	r7
 8004666:	3001      	adds	r0, #1
 8004668:	f108 0801 	add.w	r8, r8, #1
 800466c:	f43f ae71 	beq.w	8004352 <_printf_float+0xba>
 8004670:	9b0a      	ldr	r3, [sp, #40]	; 0x28
 8004672:	2200      	movs	r2, #0
 8004674:	f103 3aff 	add.w	sl, r3, #4294967295
 8004678:	e9d4 0112 	ldrd	r0, r1, [r4, #72]	; 0x48
 800467c:	2300      	movs	r3, #0
 800467e:	f7fc fa43 	bl	8000b08 <__aeabi_dcmpeq>
 8004682:	b9c8      	cbnz	r0, 80046b8 <_printf_float+0x420>
 8004684:	4653      	mov	r3, sl
 8004686:	4642      	mov	r2, r8
 8004688:	4631      	mov	r1, r6
 800468a:	4628      	mov	r0, r5
 800468c:	47b8      	blx	r7
 800468e:	3001      	adds	r0, #1
 8004690:	d10e      	bne.n	80046b0 <_printf_float+0x418>
 8004692:	e65e      	b.n	8004352 <_printf_float+0xba>
 8004694:	2301      	movs	r3, #1
 8004696:	4652      	mov	r2, sl
 8004698:	4631      	mov	r1, r6
 800469a:	4628      	mov	r0, r5
 800469c:	47b8      	blx	r7
 800469e:	3001      	adds	r0, #1
 80046a0:	f43f ae57 	beq.w	8004352 <_printf_float+0xba>
 80046a4:	f108 0801 	add.w	r8, r8, #1
 80046a8:	9b0a      	ldr	r3, [sp, #40]	; 0x28
 80046aa:	3b01      	subs	r3, #1
 80046ac:	4543      	cmp	r3, r8
 80046ae:	dcf1      	bgt.n	8004694 <_printf_float+0x3fc>
 80046b0:	464b      	mov	r3, r9
 80046b2:	f104 0250 	add.w	r2, r4, #80	; 0x50
 80046b6:	e6de      	b.n	8004476 <_printf_float+0x1de>
 80046b8:	f04f 0800 	mov.w	r8, #0
 80046bc:	f104 0a1a 	add.w	sl, r4, #26
 80046c0:	e7f2      	b.n	80046a8 <_printf_float+0x410>
 80046c2:	2301      	movs	r3, #1
 80046c4:	e7df      	b.n	8004686 <_printf_float+0x3ee>
 80046c6:	2301      	movs	r3, #1
 80046c8:	464a      	mov	r2, r9
 80046ca:	4631      	mov	r1, r6
 80046cc:	4628      	mov	r0, r5
 80046ce:	47b8      	blx	r7
 80046d0:	3001      	adds	r0, #1
 80046d2:	f43f ae3e 	beq.w	8004352 <_printf_float+0xba>
 80046d6:	f108 0801 	add.w	r8, r8, #1
 80046da:	68e3      	ldr	r3, [r4, #12]
 80046dc:	9a0b      	ldr	r2, [sp, #44]	; 0x2c
 80046de:	1a9b      	subs	r3, r3, r2
 80046e0:	4543      	cmp	r3, r8
 80046e2:	dcf0      	bgt.n	80046c6 <_printf_float+0x42e>
 80046e4:	e6fc      	b.n	80044e0 <_printf_float+0x248>
 80046e6:	f04f 0800 	mov.w	r8, #0
 80046ea:	f104 0919 	add.w	r9, r4, #25
 80046ee:	e7f4      	b.n	80046da <_printf_float+0x442>
 80046f0:	2900      	cmp	r1, #0
 80046f2:	f43f ae8b 	beq.w	800440c <_printf_float+0x174>
 80046f6:	2300      	movs	r3, #0
 80046f8:	e9cd 0302 	strd	r0, r3, [sp, #8]
 80046fc:	ab09      	add	r3, sp, #36	; 0x24
 80046fe:	9300      	str	r3, [sp, #0]
 8004700:	ec49 8b10 	vmov	d0, r8, r9
 8004704:	6022      	str	r2, [r4, #0]
 8004706:	f8cd a004 	str.w	sl, [sp, #4]
 800470a:	f10d 0323 	add.w	r3, sp, #35	; 0x23
 800470e:	4628      	mov	r0, r5
 8004710:	f7ff fd2e 	bl	8004170 <__cvt>
 8004714:	4680      	mov	r8, r0
 8004716:	e648      	b.n	80043aa <_printf_float+0x112>

08004718 <_printf_common>:
 8004718:	e92d 47f0 	stmdb	sp!, {r4, r5, r6, r7, r8, r9, sl, lr}
 800471c:	4691      	mov	r9, r2
 800471e:	461f      	mov	r7, r3
 8004720:	688a      	ldr	r2, [r1, #8]
 8004722:	690b      	ldr	r3, [r1, #16]
 8004724:	f8dd 8020 	ldr.w	r8, [sp, #32]
 8004728:	4293      	cmp	r3, r2
 800472a:	bfb8      	it	lt
 800472c:	4613      	movlt	r3, r2
 800472e:	f8c9 3000 	str.w	r3, [r9]
 8004732:	f891 2043 	ldrb.w	r2, [r1, #67]	; 0x43
 8004736:	4606      	mov	r6, r0
 8004738:	460c      	mov	r4, r1
 800473a:	b112      	cbz	r2, 8004742 <_printf_common+0x2a>
 800473c:	3301      	adds	r3, #1
 800473e:	f8c9 3000 	str.w	r3, [r9]
 8004742:	6823      	ldr	r3, [r4, #0]
 8004744:	0699      	lsls	r1, r3, #26
 8004746:	bf42      	ittt	mi
 8004748:	f8d9 3000 	ldrmi.w	r3, [r9]
 800474c:	3302      	addmi	r3, #2
 800474e:	f8c9 3000 	strmi.w	r3, [r9]
 8004752:	6825      	ldr	r5, [r4, #0]
 8004754:	f015 0506 	ands.w	r5, r5, #6
 8004758:	d107      	bne.n	800476a <_printf_common+0x52>
 800475a:	f104 0a19 	add.w	sl, r4, #25
 800475e:	68e3      	ldr	r3, [r4, #12]
 8004760:	f8d9 2000 	ldr.w	r2, [r9]
 8004764:	1a9b      	subs	r3, r3, r2
 8004766:	42ab      	cmp	r3, r5
 8004768:	dc28      	bgt.n	80047bc <_printf_common+0xa4>
 800476a:	f894 3043 	ldrb.w	r3, [r4, #67]	; 0x43
 800476e:	6822      	ldr	r2, [r4, #0]
 8004770:	3300      	adds	r3, #0
 8004772:	bf18      	it	ne
 8004774:	2301      	movne	r3, #1
 8004776:	0692      	lsls	r2, r2, #26
 8004778:	d42d      	bmi.n	80047d6 <_printf_common+0xbe>
 800477a:	f104 0243 	add.w	r2, r4, #67	; 0x43
 800477e:	4639      	mov	r1, r7
 8004780:	4630      	mov	r0, r6
 8004782:	47c0      	blx	r8
 8004784:	3001      	adds	r0, #1
 8004786:	d020      	beq.n	80047ca <_printf_common+0xb2>
 8004788:	6823      	ldr	r3, [r4, #0]
 800478a:	68e5      	ldr	r5, [r4, #12]
 800478c:	f8d9 2000 	ldr.w	r2, [r9]
 8004790:	f003 0306 	and.w	r3, r3, #6
 8004794:	2b04      	cmp	r3, #4
 8004796:	bf08      	it	eq
 8004798:	1aad      	subeq	r5, r5, r2
 800479a:	68a3      	ldr	r3, [r4, #8]
 800479c:	6922      	ldr	r2, [r4, #16]
 800479e:	bf0c      	ite	eq
 80047a0:	ea25 75e5 	biceq.w	r5, r5, r5, asr #31
 80047a4:	2500      	movne	r5, #0
 80047a6:	4293      	cmp	r3, r2
 80047a8:	bfc4      	itt	gt
 80047aa:	1a9b      	subgt	r3, r3, r2
 80047ac:	18ed      	addgt	r5, r5, r3
 80047ae:	f04f 0900 	mov.w	r9, #0
 80047b2:	341a      	adds	r4, #26
 80047b4:	454d      	cmp	r5, r9
 80047b6:	d11a      	bne.n	80047ee <_printf_common+0xd6>
 80047b8:	2000      	movs	r0, #0
 80047ba:	e008      	b.n	80047ce <_printf_common+0xb6>
 80047bc:	2301      	movs	r3, #1
 80047be:	4652      	mov	r2, sl
 80047c0:	4639      	mov	r1, r7
 80047c2:	4630      	mov	r0, r6
 80047c4:	47c0      	blx	r8
 80047c6:	3001      	adds	r0, #1
 80047c8:	d103      	bne.n	80047d2 <_printf_common+0xba>
 80047ca:	f04f 30ff 	mov.w	r0, #4294967295
 80047ce:	e8bd 87f0 	ldmia.w	sp!, {r4, r5, r6, r7, r8, r9, sl, pc}
 80047d2:	3501      	adds	r5, #1
 80047d4:	e7c3      	b.n	800475e <_printf_common+0x46>
 80047d6:	18e1      	adds	r1, r4, r3
 80047d8:	1c5a      	adds	r2, r3, #1
 80047da:	2030      	movs	r0, #48	; 0x30
 80047dc:	f881 0043 	strb.w	r0, [r1, #67]	; 0x43
 80047e0:	4422      	add	r2, r4
 80047e2:	f894 1045 	ldrb.w	r1, [r4, #69]	; 0x45
 80047e6:	f882 1043 	strb.w	r1, [r2, #67]	; 0x43
 80047ea:	3302      	adds	r3, #2
 80047ec:	e7c5      	b.n	800477a <_printf_common+0x62>
 80047ee:	2301      	movs	r3, #1
 80047f0:	4622      	mov	r2, r4
 80047f2:	4639      	mov	r1, r7
 80047f4:	4630      	mov	r0, r6
 80047f6:	47c0      	blx	r8
 80047f8:	3001      	adds	r0, #1
 80047fa:	d0e6      	beq.n	80047ca <_printf_common+0xb2>
 80047fc:	f109 0901 	add.w	r9, r9, #1
 8004800:	e7d8      	b.n	80047b4 <_printf_common+0x9c>
	...

08004804 <_printf_i>:
 8004804:	e92d 43f0 	stmdb	sp!, {r4, r5, r6, r7, r8, r9, lr}
 8004808:	f101 0c43 	add.w	ip, r1, #67	; 0x43
 800480c:	460c      	mov	r4, r1
 800480e:	7e09      	ldrb	r1, [r1, #24]
 8004810:	b085      	sub	sp, #20
 8004812:	296e      	cmp	r1, #110	; 0x6e
 8004814:	4617      	mov	r7, r2
 8004816:	4606      	mov	r6, r0
 8004818:	4698      	mov	r8, r3
 800481a:	9a0c      	ldr	r2, [sp, #48]	; 0x30
 800481c:	f000 80b3 	beq.w	8004986 <_printf_i+0x182>
 8004820:	d822      	bhi.n	8004868 <_printf_i+0x64>
 8004822:	2963      	cmp	r1, #99	; 0x63
 8004824:	d036      	beq.n	8004894 <_printf_i+0x90>
 8004826:	d80a      	bhi.n	800483e <_printf_i+0x3a>
 8004828:	2900      	cmp	r1, #0
 800482a:	f000 80b9 	beq.w	80049a0 <_printf_i+0x19c>
 800482e:	2958      	cmp	r1, #88	; 0x58
 8004830:	f000 8083 	beq.w	800493a <_printf_i+0x136>
 8004834:	f104 0542 	add.w	r5, r4, #66	; 0x42
 8004838:	f884 1042 	strb.w	r1, [r4, #66]	; 0x42
 800483c:	e032      	b.n	80048a4 <_printf_i+0xa0>
 800483e:	2964      	cmp	r1, #100	; 0x64
 8004840:	d001      	beq.n	8004846 <_printf_i+0x42>
 8004842:	2969      	cmp	r1, #105	; 0x69
 8004844:	d1f6      	bne.n	8004834 <_printf_i+0x30>
 8004846:	6820      	ldr	r0, [r4, #0]
 8004848:	6813      	ldr	r3, [r2, #0]
 800484a:	0605      	lsls	r5, r0, #24
 800484c:	f103 0104 	add.w	r1, r3, #4
 8004850:	d52a      	bpl.n	80048a8 <_printf_i+0xa4>
 8004852:	681b      	ldr	r3, [r3, #0]
 8004854:	6011      	str	r1, [r2, #0]
 8004856:	2b00      	cmp	r3, #0
 8004858:	da03      	bge.n	8004862 <_printf_i+0x5e>
 800485a:	222d      	movs	r2, #45	; 0x2d
 800485c:	425b      	negs	r3, r3
 800485e:	f884 2043 	strb.w	r2, [r4, #67]	; 0x43
 8004862:	486f      	ldr	r0, [pc, #444]	; (8004a20 <_printf_i+0x21c>)
 8004864:	220a      	movs	r2, #10
 8004866:	e039      	b.n	80048dc <_printf_i+0xd8>
 8004868:	2973      	cmp	r1, #115	; 0x73
 800486a:	f000 809d 	beq.w	80049a8 <_printf_i+0x1a4>
 800486e:	d808      	bhi.n	8004882 <_printf_i+0x7e>
 8004870:	296f      	cmp	r1, #111	; 0x6f
 8004872:	d020      	beq.n	80048b6 <_printf_i+0xb2>
 8004874:	2970      	cmp	r1, #112	; 0x70
 8004876:	d1dd      	bne.n	8004834 <_printf_i+0x30>
 8004878:	6823      	ldr	r3, [r4, #0]
 800487a:	f043 0320 	orr.w	r3, r3, #32
 800487e:	6023      	str	r3, [r4, #0]
 8004880:	e003      	b.n	800488a <_printf_i+0x86>
 8004882:	2975      	cmp	r1, #117	; 0x75
 8004884:	d017      	beq.n	80048b6 <_printf_i+0xb2>
 8004886:	2978      	cmp	r1, #120	; 0x78
 8004888:	d1d4      	bne.n	8004834 <_printf_i+0x30>
 800488a:	2378      	movs	r3, #120	; 0x78
 800488c:	f884 3045 	strb.w	r3, [r4, #69]	; 0x45
 8004890:	4864      	ldr	r0, [pc, #400]	; (8004a24 <_printf_i+0x220>)
 8004892:	e055      	b.n	8004940 <_printf_i+0x13c>
 8004894:	6813      	ldr	r3, [r2, #0]
 8004896:	1d19      	adds	r1, r3, #4
 8004898:	681b      	ldr	r3, [r3, #0]
 800489a:	6011      	str	r1, [r2, #0]
 800489c:	f104 0542 	add.w	r5, r4, #66	; 0x42
 80048a0:	f884 3042 	strb.w	r3, [r4, #66]	; 0x42
 80048a4:	2301      	movs	r3, #1
 80048a6:	e08c      	b.n	80049c2 <_printf_i+0x1be>
 80048a8:	681b      	ldr	r3, [r3, #0]
 80048aa:	6011      	str	r1, [r2, #0]
 80048ac:	f010 0f40 	tst.w	r0, #64	; 0x40
 80048b0:	bf18      	it	ne
 80048b2:	b21b      	sxthne	r3, r3
 80048b4:	e7cf      	b.n	8004856 <_printf_i+0x52>
 80048b6:	6813      	ldr	r3, [r2, #0]
 80048b8:	6825      	ldr	r5, [r4, #0]
 80048ba:	1d18      	adds	r0, r3, #4
 80048bc:	6010      	str	r0, [r2, #0]
 80048be:	0628      	lsls	r0, r5, #24
 80048c0:	d501      	bpl.n	80048c6 <_printf_i+0xc2>
 80048c2:	681b      	ldr	r3, [r3, #0]
 80048c4:	e002      	b.n	80048cc <_printf_i+0xc8>
 80048c6:	0668      	lsls	r0, r5, #25
 80048c8:	d5fb      	bpl.n	80048c2 <_printf_i+0xbe>
 80048ca:	881b      	ldrh	r3, [r3, #0]
 80048cc:	4854      	ldr	r0, [pc, #336]	; (8004a20 <_printf_i+0x21c>)
 80048ce:	296f      	cmp	r1, #111	; 0x6f
 80048d0:	bf14      	ite	ne
 80048d2:	220a      	movne	r2, #10
 80048d4:	2208      	moveq	r2, #8
 80048d6:	2100      	movs	r1, #0
 80048d8:	f884 1043 	strb.w	r1, [r4, #67]	; 0x43
 80048dc:	6865      	ldr	r5, [r4, #4]
 80048de:	60a5      	str	r5, [r4, #8]
 80048e0:	2d00      	cmp	r5, #0
 80048e2:	f2c0 8095 	blt.w	8004a10 <_printf_i+0x20c>
 80048e6:	6821      	ldr	r1, [r4, #0]
 80048e8:	f021 0104 	bic.w	r1, r1, #4
 80048ec:	6021      	str	r1, [r4, #0]
 80048ee:	2b00      	cmp	r3, #0
 80048f0:	d13d      	bne.n	800496e <_printf_i+0x16a>
 80048f2:	2d00      	cmp	r5, #0
 80048f4:	f040 808e 	bne.w	8004a14 <_printf_i+0x210>
 80048f8:	4665      	mov	r5, ip
 80048fa:	2a08      	cmp	r2, #8
 80048fc:	d10b      	bne.n	8004916 <_printf_i+0x112>
 80048fe:	6823      	ldr	r3, [r4, #0]
 8004900:	07db      	lsls	r3, r3, #31
 8004902:	d508      	bpl.n	8004916 <_printf_i+0x112>
 8004904:	6923      	ldr	r3, [r4, #16]
 8004906:	6862      	ldr	r2, [r4, #4]
 8004908:	429a      	cmp	r2, r3
 800490a:	bfde      	ittt	le
 800490c:	2330      	movle	r3, #48	; 0x30
 800490e:	f805 3c01 	strble.w	r3, [r5, #-1]
 8004912:	f105 35ff 	addle.w	r5, r5, #4294967295
 8004916:	ebac 0305 	sub.w	r3, ip, r5
 800491a:	6123      	str	r3, [r4, #16]
 800491c:	f8cd 8000 	str.w	r8, [sp]
 8004920:	463b      	mov	r3, r7
 8004922:	aa03      	add	r2, sp, #12
 8004924:	4621      	mov	r1, r4
 8004926:	4630      	mov	r0, r6
 8004928:	f7ff fef6 	bl	8004718 <_printf_common>
 800492c:	3001      	adds	r0, #1
 800492e:	d14d      	bne.n	80049cc <_printf_i+0x1c8>
 8004930:	f04f 30ff 	mov.w	r0, #4294967295
 8004934:	b005      	add	sp, #20
 8004936:	e8bd 83f0 	ldmia.w	sp!, {r4, r5, r6, r7, r8, r9, pc}
 800493a:	4839      	ldr	r0, [pc, #228]	; (8004a20 <_printf_i+0x21c>)
 800493c:	f884 1045 	strb.w	r1, [r4, #69]	; 0x45
 8004940:	6813      	ldr	r3, [r2, #0]
 8004942:	6821      	ldr	r1, [r4, #0]
 8004944:	1d1d      	adds	r5, r3, #4
 8004946:	681b      	ldr	r3, [r3, #0]
 8004948:	6015      	str	r5, [r2, #0]
 800494a:	060a      	lsls	r2, r1, #24
 800494c:	d50b      	bpl.n	8004966 <_printf_i+0x162>
 800494e:	07ca      	lsls	r2, r1, #31
 8004950:	bf44      	itt	mi
 8004952:	f041 0120 	orrmi.w	r1, r1, #32
 8004956:	6021      	strmi	r1, [r4, #0]
 8004958:	b91b      	cbnz	r3, 8004962 <_printf_i+0x15e>
 800495a:	6822      	ldr	r2, [r4, #0]
 800495c:	f022 0220 	bic.w	r2, r2, #32
 8004960:	6022      	str	r2, [r4, #0]
 8004962:	2210      	movs	r2, #16
 8004964:	e7b7      	b.n	80048d6 <_printf_i+0xd2>
 8004966:	064d      	lsls	r5, r1, #25
 8004968:	bf48      	it	mi
 800496a:	b29b      	uxthmi	r3, r3
 800496c:	e7ef      	b.n	800494e <_printf_i+0x14a>
 800496e:	4665      	mov	r5, ip
 8004970:	fbb3 f1f2 	udiv	r1, r3, r2
 8004974:	fb02 3311 	mls	r3, r2, r1, r3
 8004978:	5cc3      	ldrb	r3, [r0, r3]
 800497a:	f805 3d01 	strb.w	r3, [r5, #-1]!
 800497e:	460b      	mov	r3, r1
 8004980:	2900      	cmp	r1, #0
 8004982:	d1f5      	bne.n	8004970 <_printf_i+0x16c>
 8004984:	e7b9      	b.n	80048fa <_printf_i+0xf6>
 8004986:	6813      	ldr	r3, [r2, #0]
 8004988:	6825      	ldr	r5, [r4, #0]
 800498a:	6961      	ldr	r1, [r4, #20]
 800498c:	1d18      	adds	r0, r3, #4
 800498e:	6010      	str	r0, [r2, #0]
 8004990:	0628      	lsls	r0, r5, #24
 8004992:	681b      	ldr	r3, [r3, #0]
 8004994:	d501      	bpl.n	800499a <_printf_i+0x196>
 8004996:	6019      	str	r1, [r3, #0]
 8004998:	e002      	b.n	80049a0 <_printf_i+0x19c>
 800499a:	066a      	lsls	r2, r5, #25
 800499c:	d5fb      	bpl.n	8004996 <_printf_i+0x192>
 800499e:	8019      	strh	r1, [r3, #0]
 80049a0:	2300      	movs	r3, #0
 80049a2:	6123      	str	r3, [r4, #16]
 80049a4:	4665      	mov	r5, ip
 80049a6:	e7b9      	b.n	800491c <_printf_i+0x118>
 80049a8:	6813      	ldr	r3, [r2, #0]
 80049aa:	1d19      	adds	r1, r3, #4
 80049ac:	6011      	str	r1, [r2, #0]
 80049ae:	681d      	ldr	r5, [r3, #0]
 80049b0:	6862      	ldr	r2, [r4, #4]
 80049b2:	2100      	movs	r1, #0
 80049b4:	4628      	mov	r0, r5
 80049b6:	f7fb fc33 	bl	8000220 <memchr>
 80049ba:	b108      	cbz	r0, 80049c0 <_printf_i+0x1bc>
 80049bc:	1b40      	subs	r0, r0, r5
 80049be:	6060      	str	r0, [r4, #4]
 80049c0:	6863      	ldr	r3, [r4, #4]
 80049c2:	6123      	str	r3, [r4, #16]
 80049c4:	2300      	movs	r3, #0
 80049c6:	f884 3043 	strb.w	r3, [r4, #67]	; 0x43
 80049ca:	e7a7      	b.n	800491c <_printf_i+0x118>
 80049cc:	6923      	ldr	r3, [r4, #16]
 80049ce:	462a      	mov	r2, r5
 80049d0:	4639      	mov	r1, r7
 80049d2:	4630      	mov	r0, r6
 80049d4:	47c0      	blx	r8
 80049d6:	3001      	adds	r0, #1
 80049d8:	d0aa      	beq.n	8004930 <_printf_i+0x12c>
 80049da:	6823      	ldr	r3, [r4, #0]
 80049dc:	079b      	lsls	r3, r3, #30
 80049de:	d413      	bmi.n	8004a08 <_printf_i+0x204>
 80049e0:	68e0      	ldr	r0, [r4, #12]
 80049e2:	9b03      	ldr	r3, [sp, #12]
 80049e4:	4298      	cmp	r0, r3
 80049e6:	bfb8      	it	lt
 80049e8:	4618      	movlt	r0, r3
 80049ea:	e7a3      	b.n	8004934 <_printf_i+0x130>
 80049ec:	2301      	movs	r3, #1
 80049ee:	464a      	mov	r2, r9
 80049f0:	4639      	mov	r1, r7
 80049f2:	4630      	mov	r0, r6
 80049f4:	47c0      	blx	r8
 80049f6:	3001      	adds	r0, #1
 80049f8:	d09a      	beq.n	8004930 <_printf_i+0x12c>
 80049fa:	3501      	adds	r5, #1
 80049fc:	68e3      	ldr	r3, [r4, #12]
 80049fe:	9a03      	ldr	r2, [sp, #12]
 8004a00:	1a9b      	subs	r3, r3, r2
 8004a02:	42ab      	cmp	r3, r5
 8004a04:	dcf2      	bgt.n	80049ec <_printf_i+0x1e8>
 8004a06:	e7eb      	b.n	80049e0 <_printf_i+0x1dc>
 8004a08:	2500      	movs	r5, #0
 8004a0a:	f104 0919 	add.w	r9, r4, #25
 8004a0e:	e7f5      	b.n	80049fc <_printf_i+0x1f8>
 8004a10:	2b00      	cmp	r3, #0
 8004a12:	d1ac      	bne.n	800496e <_printf_i+0x16a>
 8004a14:	7803      	ldrb	r3, [r0, #0]
 8004a16:	f884 3042 	strb.w	r3, [r4, #66]	; 0x42
 8004a1a:	f104 0542 	add.w	r5, r4, #66	; 0x42
 8004a1e:	e76c      	b.n	80048fa <_printf_i+0xf6>
 8004a20:	08006236 	.word	0x08006236
 8004a24:	08006247 	.word	0x08006247

08004a28 <siprintf>:
 8004a28:	b40e      	push	{r1, r2, r3}
 8004a2a:	b500      	push	{lr}
 8004a2c:	b09c      	sub	sp, #112	; 0x70
 8004a2e:	ab1d      	add	r3, sp, #116	; 0x74
 8004a30:	9002      	str	r0, [sp, #8]
 8004a32:	9006      	str	r0, [sp, #24]
 8004a34:	f06f 4100 	mvn.w	r1, #2147483648	; 0x80000000
 8004a38:	4809      	ldr	r0, [pc, #36]	; (8004a60 <siprintf+0x38>)
 8004a3a:	9107      	str	r1, [sp, #28]
 8004a3c:	9104      	str	r1, [sp, #16]
 8004a3e:	4909      	ldr	r1, [pc, #36]	; (8004a64 <siprintf+0x3c>)
 8004a40:	f853 2b04 	ldr.w	r2, [r3], #4
 8004a44:	9105      	str	r1, [sp, #20]
 8004a46:	6800      	ldr	r0, [r0, #0]
 8004a48:	9301      	str	r3, [sp, #4]
 8004a4a:	a902      	add	r1, sp, #8
 8004a4c:	f001 fa5c 	bl	8005f08 <_svfiprintf_r>
 8004a50:	9b02      	ldr	r3, [sp, #8]
 8004a52:	2200      	movs	r2, #0
 8004a54:	701a      	strb	r2, [r3, #0]
 8004a56:	b01c      	add	sp, #112	; 0x70
 8004a58:	f85d eb04 	ldr.w	lr, [sp], #4
 8004a5c:	b003      	add	sp, #12
 8004a5e:	4770      	bx	lr
 8004a60:	2000000c 	.word	0x2000000c
 8004a64:	ffff0208 	.word	0xffff0208

08004a68 <quorem>:
 8004a68:	e92d 4ff7 	stmdb	sp!, {r0, r1, r2, r4, r5, r6, r7, r8, r9, sl, fp, lr}
 8004a6c:	6903      	ldr	r3, [r0, #16]
 8004a6e:	690c      	ldr	r4, [r1, #16]
 8004a70:	42a3      	cmp	r3, r4
 8004a72:	4680      	mov	r8, r0
 8004a74:	f2c0 8082 	blt.w	8004b7c <quorem+0x114>
 8004a78:	3c01      	subs	r4, #1
 8004a7a:	f101 0714 	add.w	r7, r1, #20
 8004a7e:	ea4f 0c84 	mov.w	ip, r4, lsl #2
 8004a82:	f100 0614 	add.w	r6, r0, #20
 8004a86:	f857 5024 	ldr.w	r5, [r7, r4, lsl #2]
 8004a8a:	f856 0024 	ldr.w	r0, [r6, r4, lsl #2]
 8004a8e:	eb06 030c 	add.w	r3, r6, ip
 8004a92:	3501      	adds	r5, #1
 8004a94:	eb07 090c 	add.w	r9, r7, ip
 8004a98:	9301      	str	r3, [sp, #4]
 8004a9a:	fbb0 f5f5 	udiv	r5, r0, r5
 8004a9e:	b395      	cbz	r5, 8004b06 <quorem+0x9e>
 8004aa0:	f04f 0a00 	mov.w	sl, #0
 8004aa4:	4638      	mov	r0, r7
 8004aa6:	46b6      	mov	lr, r6
 8004aa8:	46d3      	mov	fp, sl
 8004aaa:	f850 2b04 	ldr.w	r2, [r0], #4
 8004aae:	b293      	uxth	r3, r2
 8004ab0:	fb05 a303 	mla	r3, r5, r3, sl
 8004ab4:	ea4f 4a13 	mov.w	sl, r3, lsr #16
 8004ab8:	b29b      	uxth	r3, r3
 8004aba:	ebab 0303 	sub.w	r3, fp, r3
 8004abe:	0c12      	lsrs	r2, r2, #16
 8004ac0:	f8de b000 	ldr.w	fp, [lr]
 8004ac4:	fb05 a202 	mla	r2, r5, r2, sl
 8004ac8:	fa13 f38b 	uxtah	r3, r3, fp
 8004acc:	ea4f 4a12 	mov.w	sl, r2, lsr #16
 8004ad0:	fa1f fb82 	uxth.w	fp, r2
 8004ad4:	f8de 2000 	ldr.w	r2, [lr]
 8004ad8:	ebcb 4212 	rsb	r2, fp, r2, lsr #16
 8004adc:	eb02 4223 	add.w	r2, r2, r3, asr #16
 8004ae0:	b29b      	uxth	r3, r3
 8004ae2:	ea43 4302 	orr.w	r3, r3, r2, lsl #16
 8004ae6:	4581      	cmp	r9, r0
 8004ae8:	ea4f 4b22 	mov.w	fp, r2, asr #16
 8004aec:	f84e 3b04 	str.w	r3, [lr], #4
 8004af0:	d2db      	bcs.n	8004aaa <quorem+0x42>
 8004af2:	f856 300c 	ldr.w	r3, [r6, ip]
 8004af6:	b933      	cbnz	r3, 8004b06 <quorem+0x9e>
 8004af8:	9b01      	ldr	r3, [sp, #4]
 8004afa:	3b04      	subs	r3, #4
 8004afc:	429e      	cmp	r6, r3
 8004afe:	461a      	mov	r2, r3
 8004b00:	d330      	bcc.n	8004b64 <quorem+0xfc>
 8004b02:	f8c8 4010 	str.w	r4, [r8, #16]
 8004b06:	4640      	mov	r0, r8
 8004b08:	f001 f828 	bl	8005b5c <__mcmp>
 8004b0c:	2800      	cmp	r0, #0
 8004b0e:	db25      	blt.n	8004b5c <quorem+0xf4>
 8004b10:	3501      	adds	r5, #1
 8004b12:	4630      	mov	r0, r6
 8004b14:	f04f 0c00 	mov.w	ip, #0
 8004b18:	f857 2b04 	ldr.w	r2, [r7], #4
 8004b1c:	f8d0 e000 	ldr.w	lr, [r0]
 8004b20:	b293      	uxth	r3, r2
 8004b22:	ebac 0303 	sub.w	r3, ip, r3
 8004b26:	0c12      	lsrs	r2, r2, #16
 8004b28:	fa13 f38e 	uxtah	r3, r3, lr
 8004b2c:	ebc2 421e 	rsb	r2, r2, lr, lsr #16
 8004b30:	eb02 4223 	add.w	r2, r2, r3, asr #16
 8004b34:	b29b      	uxth	r3, r3
 8004b36:	ea43 4302 	orr.w	r3, r3, r2, lsl #16
 8004b3a:	45b9      	cmp	r9, r7
 8004b3c:	ea4f 4c22 	mov.w	ip, r2, asr #16
 8004b40:	f840 3b04 	str.w	r3, [r0], #4
 8004b44:	d2e8      	bcs.n	8004b18 <quorem+0xb0>
 8004b46:	f856 2024 	ldr.w	r2, [r6, r4, lsl #2]
 8004b4a:	eb06 0384 	add.w	r3, r6, r4, lsl #2
 8004b4e:	b92a      	cbnz	r2, 8004b5c <quorem+0xf4>
 8004b50:	3b04      	subs	r3, #4
 8004b52:	429e      	cmp	r6, r3
 8004b54:	461a      	mov	r2, r3
 8004b56:	d30b      	bcc.n	8004b70 <quorem+0x108>
 8004b58:	f8c8 4010 	str.w	r4, [r8, #16]
 8004b5c:	4628      	mov	r0, r5
 8004b5e:	b003      	add	sp, #12
 8004b60:	e8bd 8ff0 	ldmia.w	sp!, {r4, r5, r6, r7, r8, r9, sl, fp, pc}
 8004b64:	6812      	ldr	r2, [r2, #0]
 8004b66:	3b04      	subs	r3, #4
 8004b68:	2a00      	cmp	r2, #0
 8004b6a:	d1ca      	bne.n	8004b02 <quorem+0x9a>
 8004b6c:	3c01      	subs	r4, #1
 8004b6e:	e7c5      	b.n	8004afc <quorem+0x94>
 8004b70:	6812      	ldr	r2, [r2, #0]
 8004b72:	3b04      	subs	r3, #4
 8004b74:	2a00      	cmp	r2, #0
 8004b76:	d1ef      	bne.n	8004b58 <quorem+0xf0>
 8004b78:	3c01      	subs	r4, #1
 8004b7a:	e7ea      	b.n	8004b52 <quorem+0xea>
 8004b7c:	2000      	movs	r0, #0
 8004b7e:	e7ee      	b.n	8004b5e <quorem+0xf6>

08004b80 <_dtoa_r>:
 8004b80:	e92d 4ff0 	stmdb	sp!, {r4, r5, r6, r7, r8, r9, sl, fp, lr}
 8004b84:	ec57 6b10 	vmov	r6, r7, d0
 8004b88:	b097      	sub	sp, #92	; 0x5c
 8004b8a:	6a45      	ldr	r5, [r0, #36]	; 0x24
 8004b8c:	9106      	str	r1, [sp, #24]
 8004b8e:	4604      	mov	r4, r0
 8004b90:	920b      	str	r2, [sp, #44]	; 0x2c
 8004b92:	9312      	str	r3, [sp, #72]	; 0x48
 8004b94:	f8dd 8080 	ldr.w	r8, [sp, #128]	; 0x80
 8004b98:	e9cd 6700 	strd	r6, r7, [sp]
 8004b9c:	b93d      	cbnz	r5, 8004bae <_dtoa_r+0x2e>
 8004b9e:	2010      	movs	r0, #16
 8004ba0:	f000 fdb4 	bl	800570c <malloc>
 8004ba4:	6260      	str	r0, [r4, #36]	; 0x24
 8004ba6:	e9c0 5501 	strd	r5, r5, [r0, #4]
 8004baa:	6005      	str	r5, [r0, #0]
 8004bac:	60c5      	str	r5, [r0, #12]
 8004bae:	6a63      	ldr	r3, [r4, #36]	; 0x24
 8004bb0:	6819      	ldr	r1, [r3, #0]
 8004bb2:	b151      	cbz	r1, 8004bca <_dtoa_r+0x4a>
 8004bb4:	685a      	ldr	r2, [r3, #4]
 8004bb6:	604a      	str	r2, [r1, #4]
 8004bb8:	2301      	movs	r3, #1
 8004bba:	4093      	lsls	r3, r2
 8004bbc:	608b      	str	r3, [r1, #8]
 8004bbe:	4620      	mov	r0, r4
 8004bc0:	f000 fdeb 	bl	800579a <_Bfree>
 8004bc4:	6a63      	ldr	r3, [r4, #36]	; 0x24
 8004bc6:	2200      	movs	r2, #0
 8004bc8:	601a      	str	r2, [r3, #0]
 8004bca:	1e3b      	subs	r3, r7, #0
 8004bcc:	bfbb      	ittet	lt
 8004bce:	f023 4300 	biclt.w	r3, r3, #2147483648	; 0x80000000
 8004bd2:	9301      	strlt	r3, [sp, #4]
 8004bd4:	2300      	movge	r3, #0
 8004bd6:	2201      	movlt	r2, #1
 8004bd8:	bfac      	ite	ge
 8004bda:	f8c8 3000 	strge.w	r3, [r8]
 8004bde:	f8c8 2000 	strlt.w	r2, [r8]
 8004be2:	4baf      	ldr	r3, [pc, #700]	; (8004ea0 <_dtoa_r+0x320>)
 8004be4:	f8dd 8004 	ldr.w	r8, [sp, #4]
 8004be8:	ea33 0308 	bics.w	r3, r3, r8
 8004bec:	d114      	bne.n	8004c18 <_dtoa_r+0x98>
 8004bee:	9a12      	ldr	r2, [sp, #72]	; 0x48
 8004bf0:	f242 730f 	movw	r3, #9999	; 0x270f
 8004bf4:	6013      	str	r3, [r2, #0]
 8004bf6:	9b00      	ldr	r3, [sp, #0]
 8004bf8:	b923      	cbnz	r3, 8004c04 <_dtoa_r+0x84>
 8004bfa:	f3c8 0013 	ubfx	r0, r8, #0, #20
 8004bfe:	2800      	cmp	r0, #0
 8004c00:	f000 8542 	beq.w	8005688 <_dtoa_r+0xb08>
 8004c04:	9b21      	ldr	r3, [sp, #132]	; 0x84
 8004c06:	f8df b2ac 	ldr.w	fp, [pc, #684]	; 8004eb4 <_dtoa_r+0x334>
 8004c0a:	2b00      	cmp	r3, #0
 8004c0c:	f000 8544 	beq.w	8005698 <_dtoa_r+0xb18>
 8004c10:	f10b 0303 	add.w	r3, fp, #3
 8004c14:	f000 bd3e 	b.w	8005694 <_dtoa_r+0xb14>
 8004c18:	e9dd 6700 	ldrd	r6, r7, [sp]
 8004c1c:	2200      	movs	r2, #0
 8004c1e:	2300      	movs	r3, #0
 8004c20:	4630      	mov	r0, r6
 8004c22:	4639      	mov	r1, r7
 8004c24:	f7fb ff70 	bl	8000b08 <__aeabi_dcmpeq>
 8004c28:	4681      	mov	r9, r0
 8004c2a:	b168      	cbz	r0, 8004c48 <_dtoa_r+0xc8>
 8004c2c:	9a12      	ldr	r2, [sp, #72]	; 0x48
 8004c2e:	2301      	movs	r3, #1
 8004c30:	6013      	str	r3, [r2, #0]
 8004c32:	9b21      	ldr	r3, [sp, #132]	; 0x84
 8004c34:	2b00      	cmp	r3, #0
 8004c36:	f000 8524 	beq.w	8005682 <_dtoa_r+0xb02>
 8004c3a:	4b9a      	ldr	r3, [pc, #616]	; (8004ea4 <_dtoa_r+0x324>)
 8004c3c:	9a21      	ldr	r2, [sp, #132]	; 0x84
 8004c3e:	f103 3bff 	add.w	fp, r3, #4294967295
 8004c42:	6013      	str	r3, [r2, #0]
 8004c44:	f000 bd28 	b.w	8005698 <_dtoa_r+0xb18>
 8004c48:	aa14      	add	r2, sp, #80	; 0x50
 8004c4a:	a915      	add	r1, sp, #84	; 0x54
 8004c4c:	ec47 6b10 	vmov	d0, r6, r7
 8004c50:	4620      	mov	r0, r4
 8004c52:	f000 fffa 	bl	8005c4a <__d2b>
 8004c56:	f3c8 550a 	ubfx	r5, r8, #20, #11
 8004c5a:	9004      	str	r0, [sp, #16]
 8004c5c:	2d00      	cmp	r5, #0
 8004c5e:	d07c      	beq.n	8004d5a <_dtoa_r+0x1da>
 8004c60:	f3c7 0313 	ubfx	r3, r7, #0, #20
 8004c64:	f043 5b7f 	orr.w	fp, r3, #1069547520	; 0x3fc00000
 8004c68:	46b2      	mov	sl, r6
 8004c6a:	f44b 1b40 	orr.w	fp, fp, #3145728	; 0x300000
 8004c6e:	f2a5 35ff 	subw	r5, r5, #1023	; 0x3ff
 8004c72:	f8cd 904c 	str.w	r9, [sp, #76]	; 0x4c
 8004c76:	2200      	movs	r2, #0
 8004c78:	4b8b      	ldr	r3, [pc, #556]	; (8004ea8 <_dtoa_r+0x328>)
 8004c7a:	4650      	mov	r0, sl
 8004c7c:	4659      	mov	r1, fp
 8004c7e:	f7fb fb23 	bl	80002c8 <__aeabi_dsub>
 8004c82:	a381      	add	r3, pc, #516	; (adr r3, 8004e88 <_dtoa_r+0x308>)
 8004c84:	e9d3 2300 	ldrd	r2, r3, [r3]
 8004c88:	f7fb fcd6 	bl	8000638 <__aeabi_dmul>
 8004c8c:	a380      	add	r3, pc, #512	; (adr r3, 8004e90 <_dtoa_r+0x310>)
 8004c8e:	e9d3 2300 	ldrd	r2, r3, [r3]
 8004c92:	f7fb fb1b 	bl	80002cc <__adddf3>
 8004c96:	4606      	mov	r6, r0
 8004c98:	4628      	mov	r0, r5
 8004c9a:	460f      	mov	r7, r1
 8004c9c:	f7fb fc62 	bl	8000564 <__aeabi_i2d>
 8004ca0:	a37d      	add	r3, pc, #500	; (adr r3, 8004e98 <_dtoa_r+0x318>)
 8004ca2:	e9d3 2300 	ldrd	r2, r3, [r3]
 8004ca6:	f7fb fcc7 	bl	8000638 <__aeabi_dmul>
 8004caa:	4602      	mov	r2, r0
 8004cac:	460b      	mov	r3, r1
 8004cae:	4630      	mov	r0, r6
 8004cb0:	4639      	mov	r1, r7
 8004cb2:	f7fb fb0b 	bl	80002cc <__adddf3>
 8004cb6:	4606      	mov	r6, r0
 8004cb8:	460f      	mov	r7, r1
 8004cba:	f7fb ff6d 	bl	8000b98 <__aeabi_d2iz>
 8004cbe:	2200      	movs	r2, #0
 8004cc0:	4682      	mov	sl, r0
 8004cc2:	2300      	movs	r3, #0
 8004cc4:	4630      	mov	r0, r6
 8004cc6:	4639      	mov	r1, r7
 8004cc8:	f7fb ff28 	bl	8000b1c <__aeabi_dcmplt>
 8004ccc:	b148      	cbz	r0, 8004ce2 <_dtoa_r+0x162>
 8004cce:	4650      	mov	r0, sl
 8004cd0:	f7fb fc48 	bl	8000564 <__aeabi_i2d>
 8004cd4:	4632      	mov	r2, r6
 8004cd6:	463b      	mov	r3, r7
 8004cd8:	f7fb ff16 	bl	8000b08 <__aeabi_dcmpeq>
 8004cdc:	b908      	cbnz	r0, 8004ce2 <_dtoa_r+0x162>
 8004cde:	f10a 3aff 	add.w	sl, sl, #4294967295
 8004ce2:	f1ba 0f16 	cmp.w	sl, #22
 8004ce6:	d859      	bhi.n	8004d9c <_dtoa_r+0x21c>
 8004ce8:	4970      	ldr	r1, [pc, #448]	; (8004eac <_dtoa_r+0x32c>)
 8004cea:	eb01 01ca 	add.w	r1, r1, sl, lsl #3
 8004cee:	e9dd 2300 	ldrd	r2, r3, [sp]
 8004cf2:	e9d1 0100 	ldrd	r0, r1, [r1]
 8004cf6:	f7fb ff2f 	bl	8000b58 <__aeabi_dcmpgt>
 8004cfa:	2800      	cmp	r0, #0
 8004cfc:	d050      	beq.n	8004da0 <_dtoa_r+0x220>
 8004cfe:	f10a 3aff 	add.w	sl, sl, #4294967295
 8004d02:	2300      	movs	r3, #0
 8004d04:	930f      	str	r3, [sp, #60]	; 0x3c
 8004d06:	9b14      	ldr	r3, [sp, #80]	; 0x50
 8004d08:	1b5d      	subs	r5, r3, r5
 8004d0a:	f1b5 0801 	subs.w	r8, r5, #1
 8004d0e:	bf49      	itett	mi
 8004d10:	f1c5 0301 	rsbmi	r3, r5, #1
 8004d14:	2300      	movpl	r3, #0
 8004d16:	9305      	strmi	r3, [sp, #20]
 8004d18:	f04f 0800 	movmi.w	r8, #0
 8004d1c:	bf58      	it	pl
 8004d1e:	9305      	strpl	r3, [sp, #20]
 8004d20:	f1ba 0f00 	cmp.w	sl, #0
 8004d24:	db3e      	blt.n	8004da4 <_dtoa_r+0x224>
 8004d26:	2300      	movs	r3, #0
 8004d28:	44d0      	add	r8, sl
 8004d2a:	f8cd a038 	str.w	sl, [sp, #56]	; 0x38
 8004d2e:	9307      	str	r3, [sp, #28]
 8004d30:	9b06      	ldr	r3, [sp, #24]
 8004d32:	2b09      	cmp	r3, #9
 8004d34:	f200 8090 	bhi.w	8004e58 <_dtoa_r+0x2d8>
 8004d38:	2b05      	cmp	r3, #5
 8004d3a:	bfc4      	itt	gt
 8004d3c:	3b04      	subgt	r3, #4
 8004d3e:	9306      	strgt	r3, [sp, #24]
 8004d40:	9b06      	ldr	r3, [sp, #24]
 8004d42:	f1a3 0302 	sub.w	r3, r3, #2
 8004d46:	bfcc      	ite	gt
 8004d48:	2500      	movgt	r5, #0
 8004d4a:	2501      	movle	r5, #1
 8004d4c:	2b03      	cmp	r3, #3
 8004d4e:	f200 808f 	bhi.w	8004e70 <_dtoa_r+0x2f0>
 8004d52:	e8df f003 	tbb	[pc, r3]
 8004d56:	7f7d      	.short	0x7f7d
 8004d58:	7131      	.short	0x7131
 8004d5a:	e9dd 5314 	ldrd	r5, r3, [sp, #80]	; 0x50
 8004d5e:	441d      	add	r5, r3
 8004d60:	f205 4032 	addw	r0, r5, #1074	; 0x432
 8004d64:	2820      	cmp	r0, #32
 8004d66:	dd13      	ble.n	8004d90 <_dtoa_r+0x210>
 8004d68:	f1c0 0040 	rsb	r0, r0, #64	; 0x40
 8004d6c:	9b00      	ldr	r3, [sp, #0]
 8004d6e:	fa08 f800 	lsl.w	r8, r8, r0
 8004d72:	f205 4012 	addw	r0, r5, #1042	; 0x412
 8004d76:	fa23 f000 	lsr.w	r0, r3, r0
 8004d7a:	ea48 0000 	orr.w	r0, r8, r0
 8004d7e:	f7fb fbe1 	bl	8000544 <__aeabi_ui2d>
 8004d82:	2301      	movs	r3, #1
 8004d84:	4682      	mov	sl, r0
 8004d86:	f1a1 7bf8 	sub.w	fp, r1, #32505856	; 0x1f00000
 8004d8a:	3d01      	subs	r5, #1
 8004d8c:	9313      	str	r3, [sp, #76]	; 0x4c
 8004d8e:	e772      	b.n	8004c76 <_dtoa_r+0xf6>
 8004d90:	9b00      	ldr	r3, [sp, #0]
 8004d92:	f1c0 0020 	rsb	r0, r0, #32
 8004d96:	fa03 f000 	lsl.w	r0, r3, r0
 8004d9a:	e7f0      	b.n	8004d7e <_dtoa_r+0x1fe>
 8004d9c:	2301      	movs	r3, #1
 8004d9e:	e7b1      	b.n	8004d04 <_dtoa_r+0x184>
 8004da0:	900f      	str	r0, [sp, #60]	; 0x3c
 8004da2:	e7b0      	b.n	8004d06 <_dtoa_r+0x186>
 8004da4:	9b05      	ldr	r3, [sp, #20]
 8004da6:	eba3 030a 	sub.w	r3, r3, sl
 8004daa:	9305      	str	r3, [sp, #20]
 8004dac:	f1ca 0300 	rsb	r3, sl, #0
 8004db0:	9307      	str	r3, [sp, #28]
 8004db2:	2300      	movs	r3, #0
 8004db4:	930e      	str	r3, [sp, #56]	; 0x38
 8004db6:	e7bb      	b.n	8004d30 <_dtoa_r+0x1b0>
 8004db8:	2301      	movs	r3, #1
 8004dba:	930a      	str	r3, [sp, #40]	; 0x28
 8004dbc:	9b0b      	ldr	r3, [sp, #44]	; 0x2c
 8004dbe:	2b00      	cmp	r3, #0
 8004dc0:	dd59      	ble.n	8004e76 <_dtoa_r+0x2f6>
 8004dc2:	9302      	str	r3, [sp, #8]
 8004dc4:	4699      	mov	r9, r3
 8004dc6:	6a66      	ldr	r6, [r4, #36]	; 0x24
 8004dc8:	2200      	movs	r2, #0
 8004dca:	6072      	str	r2, [r6, #4]
 8004dcc:	2204      	movs	r2, #4
 8004dce:	f102 0014 	add.w	r0, r2, #20
 8004dd2:	4298      	cmp	r0, r3
 8004dd4:	6871      	ldr	r1, [r6, #4]
 8004dd6:	d953      	bls.n	8004e80 <_dtoa_r+0x300>
 8004dd8:	4620      	mov	r0, r4
 8004dda:	f000 fcaa 	bl	8005732 <_Balloc>
 8004dde:	6a63      	ldr	r3, [r4, #36]	; 0x24
 8004de0:	6030      	str	r0, [r6, #0]
 8004de2:	f1b9 0f0e 	cmp.w	r9, #14
 8004de6:	f8d3 b000 	ldr.w	fp, [r3]
 8004dea:	f200 80e6 	bhi.w	8004fba <_dtoa_r+0x43a>
 8004dee:	2d00      	cmp	r5, #0
 8004df0:	f000 80e3 	beq.w	8004fba <_dtoa_r+0x43a>
 8004df4:	ed9d 7b00 	vldr	d7, [sp]
 8004df8:	f1ba 0f00 	cmp.w	sl, #0
 8004dfc:	ed8d 7b10 	vstr	d7, [sp, #64]	; 0x40
 8004e00:	dd74      	ble.n	8004eec <_dtoa_r+0x36c>
 8004e02:	4a2a      	ldr	r2, [pc, #168]	; (8004eac <_dtoa_r+0x32c>)
 8004e04:	f00a 030f 	and.w	r3, sl, #15
 8004e08:	eb02 03c3 	add.w	r3, r2, r3, lsl #3
 8004e0c:	ed93 7b00 	vldr	d7, [r3]
 8004e10:	ea4f 162a 	mov.w	r6, sl, asr #4
 8004e14:	06f0      	lsls	r0, r6, #27
 8004e16:	ed8d 7b08 	vstr	d7, [sp, #32]
 8004e1a:	d565      	bpl.n	8004ee8 <_dtoa_r+0x368>
 8004e1c:	4b24      	ldr	r3, [pc, #144]	; (8004eb0 <_dtoa_r+0x330>)
 8004e1e:	e9dd 0110 	ldrd	r0, r1, [sp, #64]	; 0x40
 8004e22:	e9d3 2308 	ldrd	r2, r3, [r3, #32]
 8004e26:	f7fb fd31 	bl	800088c <__aeabi_ddiv>
 8004e2a:	e9cd 0100 	strd	r0, r1, [sp]
 8004e2e:	f006 060f 	and.w	r6, r6, #15
 8004e32:	2503      	movs	r5, #3
 8004e34:	4f1e      	ldr	r7, [pc, #120]	; (8004eb0 <_dtoa_r+0x330>)
 8004e36:	e04c      	b.n	8004ed2 <_dtoa_r+0x352>
 8004e38:	2301      	movs	r3, #1
 8004e3a:	930a      	str	r3, [sp, #40]	; 0x28
 8004e3c:	9b0b      	ldr	r3, [sp, #44]	; 0x2c
 8004e3e:	4453      	add	r3, sl
 8004e40:	f103 0901 	add.w	r9, r3, #1
 8004e44:	9302      	str	r3, [sp, #8]
 8004e46:	464b      	mov	r3, r9
 8004e48:	2b01      	cmp	r3, #1
 8004e4a:	bfb8      	it	lt
 8004e4c:	2301      	movlt	r3, #1
 8004e4e:	e7ba      	b.n	8004dc6 <_dtoa_r+0x246>
 8004e50:	2300      	movs	r3, #0
 8004e52:	e7b2      	b.n	8004dba <_dtoa_r+0x23a>
 8004e54:	2300      	movs	r3, #0
 8004e56:	e7f0      	b.n	8004e3a <_dtoa_r+0x2ba>
 8004e58:	2501      	movs	r5, #1
 8004e5a:	2300      	movs	r3, #0
 8004e5c:	9306      	str	r3, [sp, #24]
 8004e5e:	950a      	str	r5, [sp, #40]	; 0x28
 8004e60:	f04f 33ff 	mov.w	r3, #4294967295
 8004e64:	9302      	str	r3, [sp, #8]
 8004e66:	4699      	mov	r9, r3
 8004e68:	2200      	movs	r2, #0
 8004e6a:	2312      	movs	r3, #18
 8004e6c:	920b      	str	r2, [sp, #44]	; 0x2c
 8004e6e:	e7aa      	b.n	8004dc6 <_dtoa_r+0x246>
 8004e70:	2301      	movs	r3, #1
 8004e72:	930a      	str	r3, [sp, #40]	; 0x28
 8004e74:	e7f4      	b.n	8004e60 <_dtoa_r+0x2e0>
 8004e76:	2301      	movs	r3, #1
 8004e78:	9302      	str	r3, [sp, #8]
 8004e7a:	4699      	mov	r9, r3
 8004e7c:	461a      	mov	r2, r3
 8004e7e:	e7f5      	b.n	8004e6c <_dtoa_r+0x2ec>
 8004e80:	3101      	adds	r1, #1
 8004e82:	6071      	str	r1, [r6, #4]
 8004e84:	0052      	lsls	r2, r2, #1
 8004e86:	e7a2      	b.n	8004dce <_dtoa_r+0x24e>
 8004e88:	636f4361 	.word	0x636f4361
 8004e8c:	3fd287a7 	.word	0x3fd287a7
 8004e90:	8b60c8b3 	.word	0x8b60c8b3
 8004e94:	3fc68a28 	.word	0x3fc68a28
 8004e98:	509f79fb 	.word	0x509f79fb
 8004e9c:	3fd34413 	.word	0x3fd34413
 8004ea0:	7ff00000 	.word	0x7ff00000
 8004ea4:	08006235 	.word	0x08006235
 8004ea8:	3ff80000 	.word	0x3ff80000
 8004eac:	08006290 	.word	0x08006290
 8004eb0:	08006268 	.word	0x08006268
 8004eb4:	08006261 	.word	0x08006261
 8004eb8:	07f1      	lsls	r1, r6, #31
 8004eba:	d508      	bpl.n	8004ece <_dtoa_r+0x34e>
 8004ebc:	e9dd 0108 	ldrd	r0, r1, [sp, #32]
 8004ec0:	e9d7 2300 	ldrd	r2, r3, [r7]
 8004ec4:	f7fb fbb8 	bl	8000638 <__aeabi_dmul>
 8004ec8:	e9cd 0108 	strd	r0, r1, [sp, #32]
 8004ecc:	3501      	adds	r5, #1
 8004ece:	1076      	asrs	r6, r6, #1
 8004ed0:	3708      	adds	r7, #8
 8004ed2:	2e00      	cmp	r6, #0
 8004ed4:	d1f0      	bne.n	8004eb8 <_dtoa_r+0x338>
 8004ed6:	e9dd 2308 	ldrd	r2, r3, [sp, #32]
 8004eda:	e9dd 0100 	ldrd	r0, r1, [sp]
 8004ede:	f7fb fcd5 	bl	800088c <__aeabi_ddiv>
 8004ee2:	e9cd 0100 	strd	r0, r1, [sp]
 8004ee6:	e01a      	b.n	8004f1e <_dtoa_r+0x39e>
 8004ee8:	2502      	movs	r5, #2
 8004eea:	e7a3      	b.n	8004e34 <_dtoa_r+0x2b4>
 8004eec:	f000 80a0 	beq.w	8005030 <_dtoa_r+0x4b0>
 8004ef0:	f1ca 0600 	rsb	r6, sl, #0
 8004ef4:	4b9f      	ldr	r3, [pc, #636]	; (8005174 <_dtoa_r+0x5f4>)
 8004ef6:	4fa0      	ldr	r7, [pc, #640]	; (8005178 <_dtoa_r+0x5f8>)
 8004ef8:	f006 020f 	and.w	r2, r6, #15
 8004efc:	eb03 03c2 	add.w	r3, r3, r2, lsl #3
 8004f00:	e9d3 2300 	ldrd	r2, r3, [r3]
 8004f04:	e9dd 0110 	ldrd	r0, r1, [sp, #64]	; 0x40
 8004f08:	f7fb fb96 	bl	8000638 <__aeabi_dmul>
 8004f0c:	e9cd 0100 	strd	r0, r1, [sp]
 8004f10:	1136      	asrs	r6, r6, #4
 8004f12:	2300      	movs	r3, #0
 8004f14:	2502      	movs	r5, #2
 8004f16:	2e00      	cmp	r6, #0
 8004f18:	d17f      	bne.n	800501a <_dtoa_r+0x49a>
 8004f1a:	2b00      	cmp	r3, #0
 8004f1c:	d1e1      	bne.n	8004ee2 <_dtoa_r+0x362>
 8004f1e:	9b0f      	ldr	r3, [sp, #60]	; 0x3c
 8004f20:	2b00      	cmp	r3, #0
 8004f22:	f000 8087 	beq.w	8005034 <_dtoa_r+0x4b4>
 8004f26:	e9dd 6700 	ldrd	r6, r7, [sp]
 8004f2a:	2200      	movs	r2, #0
 8004f2c:	4b93      	ldr	r3, [pc, #588]	; (800517c <_dtoa_r+0x5fc>)
 8004f2e:	4630      	mov	r0, r6
 8004f30:	4639      	mov	r1, r7
 8004f32:	f7fb fdf3 	bl	8000b1c <__aeabi_dcmplt>
 8004f36:	2800      	cmp	r0, #0
 8004f38:	d07c      	beq.n	8005034 <_dtoa_r+0x4b4>
 8004f3a:	f1b9 0f00 	cmp.w	r9, #0
 8004f3e:	d079      	beq.n	8005034 <_dtoa_r+0x4b4>
 8004f40:	9b02      	ldr	r3, [sp, #8]
 8004f42:	2b00      	cmp	r3, #0
 8004f44:	dd35      	ble.n	8004fb2 <_dtoa_r+0x432>
 8004f46:	f10a 33ff 	add.w	r3, sl, #4294967295
 8004f4a:	9308      	str	r3, [sp, #32]
 8004f4c:	4639      	mov	r1, r7
 8004f4e:	2200      	movs	r2, #0
 8004f50:	4b8b      	ldr	r3, [pc, #556]	; (8005180 <_dtoa_r+0x600>)
 8004f52:	4630      	mov	r0, r6
 8004f54:	f7fb fb70 	bl	8000638 <__aeabi_dmul>
 8004f58:	e9cd 0100 	strd	r0, r1, [sp]
 8004f5c:	9f02      	ldr	r7, [sp, #8]
 8004f5e:	3501      	adds	r5, #1
 8004f60:	4628      	mov	r0, r5
 8004f62:	f7fb faff 	bl	8000564 <__aeabi_i2d>
 8004f66:	e9dd 2300 	ldrd	r2, r3, [sp]
 8004f6a:	f7fb fb65 	bl	8000638 <__aeabi_dmul>
 8004f6e:	2200      	movs	r2, #0
 8004f70:	4b84      	ldr	r3, [pc, #528]	; (8005184 <_dtoa_r+0x604>)
 8004f72:	f7fb f9ab 	bl	80002cc <__adddf3>
 8004f76:	4605      	mov	r5, r0
 8004f78:	f1a1 7650 	sub.w	r6, r1, #54525952	; 0x3400000
 8004f7c:	2f00      	cmp	r7, #0
 8004f7e:	d15d      	bne.n	800503c <_dtoa_r+0x4bc>
 8004f80:	2200      	movs	r2, #0
 8004f82:	4b81      	ldr	r3, [pc, #516]	; (8005188 <_dtoa_r+0x608>)
 8004f84:	e9dd 0100 	ldrd	r0, r1, [sp]
 8004f88:	f7fb f99e 	bl	80002c8 <__aeabi_dsub>
 8004f8c:	462a      	mov	r2, r5
 8004f8e:	4633      	mov	r3, r6
 8004f90:	e9cd 0100 	strd	r0, r1, [sp]
 8004f94:	f7fb fde0 	bl	8000b58 <__aeabi_dcmpgt>
 8004f98:	2800      	cmp	r0, #0
 8004f9a:	f040 8288 	bne.w	80054ae <_dtoa_r+0x92e>
 8004f9e:	462a      	mov	r2, r5
 8004fa0:	f106 4300 	add.w	r3, r6, #2147483648	; 0x80000000
 8004fa4:	e9dd 0100 	ldrd	r0, r1, [sp]
 8004fa8:	f7fb fdb8 	bl	8000b1c <__aeabi_dcmplt>
 8004fac:	2800      	cmp	r0, #0
 8004fae:	f040 827c 	bne.w	80054aa <_dtoa_r+0x92a>
 8004fb2:	e9dd 2310 	ldrd	r2, r3, [sp, #64]	; 0x40
 8004fb6:	e9cd 2300 	strd	r2, r3, [sp]
 8004fba:	9b15      	ldr	r3, [sp, #84]	; 0x54
 8004fbc:	2b00      	cmp	r3, #0
 8004fbe:	f2c0 8150 	blt.w	8005262 <_dtoa_r+0x6e2>
 8004fc2:	f1ba 0f0e 	cmp.w	sl, #14
 8004fc6:	f300 814c 	bgt.w	8005262 <_dtoa_r+0x6e2>
 8004fca:	4b6a      	ldr	r3, [pc, #424]	; (8005174 <_dtoa_r+0x5f4>)
 8004fcc:	eb03 03ca 	add.w	r3, r3, sl, lsl #3
 8004fd0:	ed93 7b00 	vldr	d7, [r3]
 8004fd4:	9b0b      	ldr	r3, [sp, #44]	; 0x2c
 8004fd6:	2b00      	cmp	r3, #0
 8004fd8:	ed8d 7b02 	vstr	d7, [sp, #8]
 8004fdc:	f280 80d8 	bge.w	8005190 <_dtoa_r+0x610>
 8004fe0:	f1b9 0f00 	cmp.w	r9, #0
 8004fe4:	f300 80d4 	bgt.w	8005190 <_dtoa_r+0x610>
 8004fe8:	f040 825e 	bne.w	80054a8 <_dtoa_r+0x928>
 8004fec:	2200      	movs	r2, #0
 8004fee:	4b66      	ldr	r3, [pc, #408]	; (8005188 <_dtoa_r+0x608>)
 8004ff0:	ec51 0b17 	vmov	r0, r1, d7
 8004ff4:	f7fb fb20 	bl	8000638 <__aeabi_dmul>
 8004ff8:	e9dd 2300 	ldrd	r2, r3, [sp]
 8004ffc:	f7fb fda2 	bl	8000b44 <__aeabi_dcmpge>
 8005000:	464f      	mov	r7, r9
 8005002:	464e      	mov	r6, r9
 8005004:	2800      	cmp	r0, #0
 8005006:	f040 8234 	bne.w	8005472 <_dtoa_r+0x8f2>
 800500a:	2331      	movs	r3, #49	; 0x31
 800500c:	f10b 0501 	add.w	r5, fp, #1
 8005010:	f88b 3000 	strb.w	r3, [fp]
 8005014:	f10a 0a01 	add.w	sl, sl, #1
 8005018:	e22f      	b.n	800547a <_dtoa_r+0x8fa>
 800501a:	07f2      	lsls	r2, r6, #31
 800501c:	d505      	bpl.n	800502a <_dtoa_r+0x4aa>
 800501e:	e9d7 2300 	ldrd	r2, r3, [r7]
 8005022:	f7fb fb09 	bl	8000638 <__aeabi_dmul>
 8005026:	3501      	adds	r5, #1
 8005028:	2301      	movs	r3, #1
 800502a:	1076      	asrs	r6, r6, #1
 800502c:	3708      	adds	r7, #8
 800502e:	e772      	b.n	8004f16 <_dtoa_r+0x396>
 8005030:	2502      	movs	r5, #2
 8005032:	e774      	b.n	8004f1e <_dtoa_r+0x39e>
 8005034:	f8cd a020 	str.w	sl, [sp, #32]
 8005038:	464f      	mov	r7, r9
 800503a:	e791      	b.n	8004f60 <_dtoa_r+0x3e0>
 800503c:	4b4d      	ldr	r3, [pc, #308]	; (8005174 <_dtoa_r+0x5f4>)
 800503e:	eb03 03c7 	add.w	r3, r3, r7, lsl #3
 8005042:	e953 0102 	ldrd	r0, r1, [r3, #-8]
 8005046:	9b0a      	ldr	r3, [sp, #40]	; 0x28
 8005048:	2b00      	cmp	r3, #0
 800504a:	d047      	beq.n	80050dc <_dtoa_r+0x55c>
 800504c:	4602      	mov	r2, r0
 800504e:	460b      	mov	r3, r1
 8005050:	2000      	movs	r0, #0
 8005052:	494e      	ldr	r1, [pc, #312]	; (800518c <_dtoa_r+0x60c>)
 8005054:	f7fb fc1a 	bl	800088c <__aeabi_ddiv>
 8005058:	462a      	mov	r2, r5
 800505a:	4633      	mov	r3, r6
 800505c:	f7fb f934 	bl	80002c8 <__aeabi_dsub>
 8005060:	e9cd 010c 	strd	r0, r1, [sp, #48]	; 0x30
 8005064:	465d      	mov	r5, fp
 8005066:	e9dd 0100 	ldrd	r0, r1, [sp]
 800506a:	f7fb fd95 	bl	8000b98 <__aeabi_d2iz>
 800506e:	4606      	mov	r6, r0
 8005070:	f7fb fa78 	bl	8000564 <__aeabi_i2d>
 8005074:	4602      	mov	r2, r0
 8005076:	460b      	mov	r3, r1
 8005078:	e9dd 0100 	ldrd	r0, r1, [sp]
 800507c:	f7fb f924 	bl	80002c8 <__aeabi_dsub>
 8005080:	3630      	adds	r6, #48	; 0x30
 8005082:	f805 6b01 	strb.w	r6, [r5], #1
 8005086:	e9dd 230c 	ldrd	r2, r3, [sp, #48]	; 0x30
 800508a:	e9cd 0100 	strd	r0, r1, [sp]
 800508e:	f7fb fd45 	bl	8000b1c <__aeabi_dcmplt>
 8005092:	2800      	cmp	r0, #0
 8005094:	d163      	bne.n	800515e <_dtoa_r+0x5de>
 8005096:	e9dd 2300 	ldrd	r2, r3, [sp]
 800509a:	2000      	movs	r0, #0
 800509c:	4937      	ldr	r1, [pc, #220]	; (800517c <_dtoa_r+0x5fc>)
 800509e:	f7fb f913 	bl	80002c8 <__aeabi_dsub>
 80050a2:	e9dd 230c 	ldrd	r2, r3, [sp, #48]	; 0x30
 80050a6:	f7fb fd39 	bl	8000b1c <__aeabi_dcmplt>
 80050aa:	2800      	cmp	r0, #0
 80050ac:	f040 80b7 	bne.w	800521e <_dtoa_r+0x69e>
 80050b0:	eba5 030b 	sub.w	r3, r5, fp
 80050b4:	429f      	cmp	r7, r3
 80050b6:	f77f af7c 	ble.w	8004fb2 <_dtoa_r+0x432>
 80050ba:	2200      	movs	r2, #0
 80050bc:	4b30      	ldr	r3, [pc, #192]	; (8005180 <_dtoa_r+0x600>)
 80050be:	e9dd 010c 	ldrd	r0, r1, [sp, #48]	; 0x30
 80050c2:	f7fb fab9 	bl	8000638 <__aeabi_dmul>
 80050c6:	2200      	movs	r2, #0
 80050c8:	e9cd 010c 	strd	r0, r1, [sp, #48]	; 0x30
 80050cc:	4b2c      	ldr	r3, [pc, #176]	; (8005180 <_dtoa_r+0x600>)
 80050ce:	e9dd 0100 	ldrd	r0, r1, [sp]
 80050d2:	f7fb fab1 	bl	8000638 <__aeabi_dmul>
 80050d6:	e9cd 0100 	strd	r0, r1, [sp]
 80050da:	e7c4      	b.n	8005066 <_dtoa_r+0x4e6>
 80050dc:	462a      	mov	r2, r5
 80050de:	4633      	mov	r3, r6
 80050e0:	f7fb faaa 	bl	8000638 <__aeabi_dmul>
 80050e4:	e9cd 010c 	strd	r0, r1, [sp, #48]	; 0x30
 80050e8:	eb0b 0507 	add.w	r5, fp, r7
 80050ec:	465e      	mov	r6, fp
 80050ee:	e9dd 0100 	ldrd	r0, r1, [sp]
 80050f2:	f7fb fd51 	bl	8000b98 <__aeabi_d2iz>
 80050f6:	4607      	mov	r7, r0
 80050f8:	f7fb fa34 	bl	8000564 <__aeabi_i2d>
 80050fc:	3730      	adds	r7, #48	; 0x30
 80050fe:	4602      	mov	r2, r0
 8005100:	460b      	mov	r3, r1
 8005102:	e9dd 0100 	ldrd	r0, r1, [sp]
 8005106:	f7fb f8df 	bl	80002c8 <__aeabi_dsub>
 800510a:	f806 7b01 	strb.w	r7, [r6], #1
 800510e:	42ae      	cmp	r6, r5
 8005110:	e9cd 0100 	strd	r0, r1, [sp]
 8005114:	f04f 0200 	mov.w	r2, #0
 8005118:	d126      	bne.n	8005168 <_dtoa_r+0x5e8>
 800511a:	4b1c      	ldr	r3, [pc, #112]	; (800518c <_dtoa_r+0x60c>)
 800511c:	e9dd 010c 	ldrd	r0, r1, [sp, #48]	; 0x30
 8005120:	f7fb f8d4 	bl	80002cc <__adddf3>
 8005124:	4602      	mov	r2, r0
 8005126:	460b      	mov	r3, r1
 8005128:	e9dd 0100 	ldrd	r0, r1, [sp]
 800512c:	f7fb fd14 	bl	8000b58 <__aeabi_dcmpgt>
 8005130:	2800      	cmp	r0, #0
 8005132:	d174      	bne.n	800521e <_dtoa_r+0x69e>
 8005134:	e9dd 230c 	ldrd	r2, r3, [sp, #48]	; 0x30
 8005138:	2000      	movs	r0, #0
 800513a:	4914      	ldr	r1, [pc, #80]	; (800518c <_dtoa_r+0x60c>)
 800513c:	f7fb f8c4 	bl	80002c8 <__aeabi_dsub>
 8005140:	4602      	mov	r2, r0
 8005142:	460b      	mov	r3, r1
 8005144:	e9dd 0100 	ldrd	r0, r1, [sp]
 8005148:	f7fb fce8 	bl	8000b1c <__aeabi_dcmplt>
 800514c:	2800      	cmp	r0, #0
 800514e:	f43f af30 	beq.w	8004fb2 <_dtoa_r+0x432>
 8005152:	f815 3c01 	ldrb.w	r3, [r5, #-1]
 8005156:	2b30      	cmp	r3, #48	; 0x30
 8005158:	f105 32ff 	add.w	r2, r5, #4294967295
 800515c:	d002      	beq.n	8005164 <_dtoa_r+0x5e4>
 800515e:	f8dd a020 	ldr.w	sl, [sp, #32]
 8005162:	e04a      	b.n	80051fa <_dtoa_r+0x67a>
 8005164:	4615      	mov	r5, r2
 8005166:	e7f4      	b.n	8005152 <_dtoa_r+0x5d2>
 8005168:	4b05      	ldr	r3, [pc, #20]	; (8005180 <_dtoa_r+0x600>)
 800516a:	f7fb fa65 	bl	8000638 <__aeabi_dmul>
 800516e:	e9cd 0100 	strd	r0, r1, [sp]
 8005172:	e7bc      	b.n	80050ee <_dtoa_r+0x56e>
 8005174:	08006290 	.word	0x08006290
 8005178:	08006268 	.word	0x08006268
 800517c:	3ff00000 	.word	0x3ff00000
 8005180:	40240000 	.word	0x40240000
 8005184:	401c0000 	.word	0x401c0000
 8005188:	40140000 	.word	0x40140000
 800518c:	3fe00000 	.word	0x3fe00000
 8005190:	e9dd 6700 	ldrd	r6, r7, [sp]
 8005194:	465d      	mov	r5, fp
 8005196:	e9dd 2302 	ldrd	r2, r3, [sp, #8]
 800519a:	4630      	mov	r0, r6
 800519c:	4639      	mov	r1, r7
 800519e:	f7fb fb75 	bl	800088c <__aeabi_ddiv>
 80051a2:	f7fb fcf9 	bl	8000b98 <__aeabi_d2iz>
 80051a6:	4680      	mov	r8, r0
 80051a8:	f7fb f9dc 	bl	8000564 <__aeabi_i2d>
 80051ac:	e9dd 2302 	ldrd	r2, r3, [sp, #8]
 80051b0:	f7fb fa42 	bl	8000638 <__aeabi_dmul>
 80051b4:	4602      	mov	r2, r0
 80051b6:	460b      	mov	r3, r1
 80051b8:	4630      	mov	r0, r6
 80051ba:	4639      	mov	r1, r7
 80051bc:	f108 0630 	add.w	r6, r8, #48	; 0x30
 80051c0:	f7fb f882 	bl	80002c8 <__aeabi_dsub>
 80051c4:	f805 6b01 	strb.w	r6, [r5], #1
 80051c8:	eba5 060b 	sub.w	r6, r5, fp
 80051cc:	45b1      	cmp	r9, r6
 80051ce:	4602      	mov	r2, r0
 80051d0:	460b      	mov	r3, r1
 80051d2:	d139      	bne.n	8005248 <_dtoa_r+0x6c8>
 80051d4:	f7fb f87a 	bl	80002cc <__adddf3>
 80051d8:	e9dd 2302 	ldrd	r2, r3, [sp, #8]
 80051dc:	4606      	mov	r6, r0
 80051de:	460f      	mov	r7, r1
 80051e0:	f7fb fcba 	bl	8000b58 <__aeabi_dcmpgt>
 80051e4:	b9c8      	cbnz	r0, 800521a <_dtoa_r+0x69a>
 80051e6:	e9dd 2302 	ldrd	r2, r3, [sp, #8]
 80051ea:	4630      	mov	r0, r6
 80051ec:	4639      	mov	r1, r7
 80051ee:	f7fb fc8b 	bl	8000b08 <__aeabi_dcmpeq>
 80051f2:	b110      	cbz	r0, 80051fa <_dtoa_r+0x67a>
 80051f4:	f018 0f01 	tst.w	r8, #1
 80051f8:	d10f      	bne.n	800521a <_dtoa_r+0x69a>
 80051fa:	9904      	ldr	r1, [sp, #16]
 80051fc:	4620      	mov	r0, r4
 80051fe:	f000 facc 	bl	800579a <_Bfree>
 8005202:	2300      	movs	r3, #0
 8005204:	9a12      	ldr	r2, [sp, #72]	; 0x48
 8005206:	702b      	strb	r3, [r5, #0]
 8005208:	f10a 0301 	add.w	r3, sl, #1
 800520c:	6013      	str	r3, [r2, #0]
 800520e:	9b21      	ldr	r3, [sp, #132]	; 0x84
 8005210:	2b00      	cmp	r3, #0
 8005212:	f000 8241 	beq.w	8005698 <_dtoa_r+0xb18>
 8005216:	601d      	str	r5, [r3, #0]
 8005218:	e23e      	b.n	8005698 <_dtoa_r+0xb18>
 800521a:	f8cd a020 	str.w	sl, [sp, #32]
 800521e:	f815 2c01 	ldrb.w	r2, [r5, #-1]
 8005222:	2a39      	cmp	r2, #57	; 0x39
 8005224:	f105 33ff 	add.w	r3, r5, #4294967295
 8005228:	d108      	bne.n	800523c <_dtoa_r+0x6bc>
 800522a:	459b      	cmp	fp, r3
 800522c:	d10a      	bne.n	8005244 <_dtoa_r+0x6c4>
 800522e:	9b08      	ldr	r3, [sp, #32]
 8005230:	3301      	adds	r3, #1
 8005232:	9308      	str	r3, [sp, #32]
 8005234:	2330      	movs	r3, #48	; 0x30
 8005236:	f88b 3000 	strb.w	r3, [fp]
 800523a:	465b      	mov	r3, fp
 800523c:	781a      	ldrb	r2, [r3, #0]
 800523e:	3201      	adds	r2, #1
 8005240:	701a      	strb	r2, [r3, #0]
 8005242:	e78c      	b.n	800515e <_dtoa_r+0x5de>
 8005244:	461d      	mov	r5, r3
 8005246:	e7ea      	b.n	800521e <_dtoa_r+0x69e>
 8005248:	2200      	movs	r2, #0
 800524a:	4b9b      	ldr	r3, [pc, #620]	; (80054b8 <_dtoa_r+0x938>)
 800524c:	f7fb f9f4 	bl	8000638 <__aeabi_dmul>
 8005250:	2200      	movs	r2, #0
 8005252:	2300      	movs	r3, #0
 8005254:	4606      	mov	r6, r0
 8005256:	460f      	mov	r7, r1
 8005258:	f7fb fc56 	bl	8000b08 <__aeabi_dcmpeq>
 800525c:	2800      	cmp	r0, #0
 800525e:	d09a      	beq.n	8005196 <_dtoa_r+0x616>
 8005260:	e7cb      	b.n	80051fa <_dtoa_r+0x67a>
 8005262:	9a0a      	ldr	r2, [sp, #40]	; 0x28
 8005264:	2a00      	cmp	r2, #0
 8005266:	f000 808b 	beq.w	8005380 <_dtoa_r+0x800>
 800526a:	9a06      	ldr	r2, [sp, #24]
 800526c:	2a01      	cmp	r2, #1
 800526e:	dc6e      	bgt.n	800534e <_dtoa_r+0x7ce>
 8005270:	9a13      	ldr	r2, [sp, #76]	; 0x4c
 8005272:	2a00      	cmp	r2, #0
 8005274:	d067      	beq.n	8005346 <_dtoa_r+0x7c6>
 8005276:	f203 4333 	addw	r3, r3, #1075	; 0x433
 800527a:	9f07      	ldr	r7, [sp, #28]
 800527c:	9d05      	ldr	r5, [sp, #20]
 800527e:	9a05      	ldr	r2, [sp, #20]
 8005280:	2101      	movs	r1, #1
 8005282:	441a      	add	r2, r3
 8005284:	4620      	mov	r0, r4
 8005286:	9205      	str	r2, [sp, #20]
 8005288:	4498      	add	r8, r3
 800528a:	f000 fb26 	bl	80058da <__i2b>
 800528e:	4606      	mov	r6, r0
 8005290:	2d00      	cmp	r5, #0
 8005292:	dd0c      	ble.n	80052ae <_dtoa_r+0x72e>
 8005294:	f1b8 0f00 	cmp.w	r8, #0
 8005298:	dd09      	ble.n	80052ae <_dtoa_r+0x72e>
 800529a:	4545      	cmp	r5, r8
 800529c:	9a05      	ldr	r2, [sp, #20]
 800529e:	462b      	mov	r3, r5
 80052a0:	bfa8      	it	ge
 80052a2:	4643      	movge	r3, r8
 80052a4:	1ad2      	subs	r2, r2, r3
 80052a6:	9205      	str	r2, [sp, #20]
 80052a8:	1aed      	subs	r5, r5, r3
 80052aa:	eba8 0803 	sub.w	r8, r8, r3
 80052ae:	9b07      	ldr	r3, [sp, #28]
 80052b0:	b1eb      	cbz	r3, 80052ee <_dtoa_r+0x76e>
 80052b2:	9b0a      	ldr	r3, [sp, #40]	; 0x28
 80052b4:	2b00      	cmp	r3, #0
 80052b6:	d067      	beq.n	8005388 <_dtoa_r+0x808>
 80052b8:	b18f      	cbz	r7, 80052de <_dtoa_r+0x75e>
 80052ba:	4631      	mov	r1, r6
 80052bc:	463a      	mov	r2, r7
 80052be:	4620      	mov	r0, r4
 80052c0:	f000 fbaa 	bl	8005a18 <__pow5mult>
 80052c4:	9a04      	ldr	r2, [sp, #16]
 80052c6:	4601      	mov	r1, r0
 80052c8:	4606      	mov	r6, r0
 80052ca:	4620      	mov	r0, r4
 80052cc:	f000 fb0e 	bl	80058ec <__multiply>
 80052d0:	9904      	ldr	r1, [sp, #16]
 80052d2:	9008      	str	r0, [sp, #32]
 80052d4:	4620      	mov	r0, r4
 80052d6:	f000 fa60 	bl	800579a <_Bfree>
 80052da:	9b08      	ldr	r3, [sp, #32]
 80052dc:	9304      	str	r3, [sp, #16]
 80052de:	9b07      	ldr	r3, [sp, #28]
 80052e0:	1bda      	subs	r2, r3, r7
 80052e2:	d004      	beq.n	80052ee <_dtoa_r+0x76e>
 80052e4:	9904      	ldr	r1, [sp, #16]
 80052e6:	4620      	mov	r0, r4
 80052e8:	f000 fb96 	bl	8005a18 <__pow5mult>
 80052ec:	9004      	str	r0, [sp, #16]
 80052ee:	2101      	movs	r1, #1
 80052f0:	4620      	mov	r0, r4
 80052f2:	f000 faf2 	bl	80058da <__i2b>
 80052f6:	9b0e      	ldr	r3, [sp, #56]	; 0x38
 80052f8:	4607      	mov	r7, r0
 80052fa:	2b00      	cmp	r3, #0
 80052fc:	f000 81d0 	beq.w	80056a0 <_dtoa_r+0xb20>
 8005300:	461a      	mov	r2, r3
 8005302:	4601      	mov	r1, r0
 8005304:	4620      	mov	r0, r4
 8005306:	f000 fb87 	bl	8005a18 <__pow5mult>
 800530a:	9b06      	ldr	r3, [sp, #24]
 800530c:	2b01      	cmp	r3, #1
 800530e:	4607      	mov	r7, r0
 8005310:	dc40      	bgt.n	8005394 <_dtoa_r+0x814>
 8005312:	9b00      	ldr	r3, [sp, #0]
 8005314:	2b00      	cmp	r3, #0
 8005316:	d139      	bne.n	800538c <_dtoa_r+0x80c>
 8005318:	9b01      	ldr	r3, [sp, #4]
 800531a:	f3c3 0313 	ubfx	r3, r3, #0, #20
 800531e:	2b00      	cmp	r3, #0
 8005320:	d136      	bne.n	8005390 <_dtoa_r+0x810>
 8005322:	9b01      	ldr	r3, [sp, #4]
 8005324:	f023 4300 	bic.w	r3, r3, #2147483648	; 0x80000000
 8005328:	0d1b      	lsrs	r3, r3, #20
 800532a:	051b      	lsls	r3, r3, #20
 800532c:	b12b      	cbz	r3, 800533a <_dtoa_r+0x7ba>
 800532e:	9b05      	ldr	r3, [sp, #20]
 8005330:	3301      	adds	r3, #1
 8005332:	9305      	str	r3, [sp, #20]
 8005334:	f108 0801 	add.w	r8, r8, #1
 8005338:	2301      	movs	r3, #1
 800533a:	9307      	str	r3, [sp, #28]
 800533c:	9b0e      	ldr	r3, [sp, #56]	; 0x38
 800533e:	2b00      	cmp	r3, #0
 8005340:	d12a      	bne.n	8005398 <_dtoa_r+0x818>
 8005342:	2001      	movs	r0, #1
 8005344:	e030      	b.n	80053a8 <_dtoa_r+0x828>
 8005346:	9b14      	ldr	r3, [sp, #80]	; 0x50
 8005348:	f1c3 0336 	rsb	r3, r3, #54	; 0x36
 800534c:	e795      	b.n	800527a <_dtoa_r+0x6fa>
 800534e:	9b07      	ldr	r3, [sp, #28]
 8005350:	f109 37ff 	add.w	r7, r9, #4294967295
 8005354:	42bb      	cmp	r3, r7
 8005356:	bfbf      	itttt	lt
 8005358:	9b07      	ldrlt	r3, [sp, #28]
 800535a:	9707      	strlt	r7, [sp, #28]
 800535c:	1afa      	sublt	r2, r7, r3
 800535e:	9b0e      	ldrlt	r3, [sp, #56]	; 0x38
 8005360:	bfbb      	ittet	lt
 8005362:	189b      	addlt	r3, r3, r2
 8005364:	930e      	strlt	r3, [sp, #56]	; 0x38
 8005366:	1bdf      	subge	r7, r3, r7
 8005368:	2700      	movlt	r7, #0
 800536a:	f1b9 0f00 	cmp.w	r9, #0
 800536e:	bfb5      	itete	lt
 8005370:	9b05      	ldrlt	r3, [sp, #20]
 8005372:	9d05      	ldrge	r5, [sp, #20]
 8005374:	eba3 0509 	sublt.w	r5, r3, r9
 8005378:	464b      	movge	r3, r9
 800537a:	bfb8      	it	lt
 800537c:	2300      	movlt	r3, #0
 800537e:	e77e      	b.n	800527e <_dtoa_r+0x6fe>
 8005380:	9f07      	ldr	r7, [sp, #28]
 8005382:	9d05      	ldr	r5, [sp, #20]
 8005384:	9e0a      	ldr	r6, [sp, #40]	; 0x28
 8005386:	e783      	b.n	8005290 <_dtoa_r+0x710>
 8005388:	9a07      	ldr	r2, [sp, #28]
 800538a:	e7ab      	b.n	80052e4 <_dtoa_r+0x764>
 800538c:	2300      	movs	r3, #0
 800538e:	e7d4      	b.n	800533a <_dtoa_r+0x7ba>
 8005390:	9b00      	ldr	r3, [sp, #0]
 8005392:	e7d2      	b.n	800533a <_dtoa_r+0x7ba>
 8005394:	2300      	movs	r3, #0
 8005396:	9307      	str	r3, [sp, #28]
 8005398:	693b      	ldr	r3, [r7, #16]
 800539a:	eb07 0383 	add.w	r3, r7, r3, lsl #2
 800539e:	6918      	ldr	r0, [r3, #16]
 80053a0:	f000 fa4d 	bl	800583e <__hi0bits>
 80053a4:	f1c0 0020 	rsb	r0, r0, #32
 80053a8:	4440      	add	r0, r8
 80053aa:	f010 001f 	ands.w	r0, r0, #31
 80053ae:	d047      	beq.n	8005440 <_dtoa_r+0x8c0>
 80053b0:	f1c0 0320 	rsb	r3, r0, #32
 80053b4:	2b04      	cmp	r3, #4
 80053b6:	dd3b      	ble.n	8005430 <_dtoa_r+0x8b0>
 80053b8:	9b05      	ldr	r3, [sp, #20]
 80053ba:	f1c0 001c 	rsb	r0, r0, #28
 80053be:	4403      	add	r3, r0
 80053c0:	9305      	str	r3, [sp, #20]
 80053c2:	4405      	add	r5, r0
 80053c4:	4480      	add	r8, r0
 80053c6:	9b05      	ldr	r3, [sp, #20]
 80053c8:	2b00      	cmp	r3, #0
 80053ca:	dd05      	ble.n	80053d8 <_dtoa_r+0x858>
 80053cc:	461a      	mov	r2, r3
 80053ce:	9904      	ldr	r1, [sp, #16]
 80053d0:	4620      	mov	r0, r4
 80053d2:	f000 fb6f 	bl	8005ab4 <__lshift>
 80053d6:	9004      	str	r0, [sp, #16]
 80053d8:	f1b8 0f00 	cmp.w	r8, #0
 80053dc:	dd05      	ble.n	80053ea <_dtoa_r+0x86a>
 80053de:	4639      	mov	r1, r7
 80053e0:	4642      	mov	r2, r8
 80053e2:	4620      	mov	r0, r4
 80053e4:	f000 fb66 	bl	8005ab4 <__lshift>
 80053e8:	4607      	mov	r7, r0
 80053ea:	9b0f      	ldr	r3, [sp, #60]	; 0x3c
 80053ec:	b353      	cbz	r3, 8005444 <_dtoa_r+0x8c4>
 80053ee:	4639      	mov	r1, r7
 80053f0:	9804      	ldr	r0, [sp, #16]
 80053f2:	f000 fbb3 	bl	8005b5c <__mcmp>
 80053f6:	2800      	cmp	r0, #0
 80053f8:	da24      	bge.n	8005444 <_dtoa_r+0x8c4>
 80053fa:	2300      	movs	r3, #0
 80053fc:	220a      	movs	r2, #10
 80053fe:	9904      	ldr	r1, [sp, #16]
 8005400:	4620      	mov	r0, r4
 8005402:	f000 f9e1 	bl	80057c8 <__multadd>
 8005406:	9b0a      	ldr	r3, [sp, #40]	; 0x28
 8005408:	9004      	str	r0, [sp, #16]
 800540a:	f10a 3aff 	add.w	sl, sl, #4294967295
 800540e:	2b00      	cmp	r3, #0
 8005410:	f000 814d 	beq.w	80056ae <_dtoa_r+0xb2e>
 8005414:	2300      	movs	r3, #0
 8005416:	4631      	mov	r1, r6
 8005418:	220a      	movs	r2, #10
 800541a:	4620      	mov	r0, r4
 800541c:	f000 f9d4 	bl	80057c8 <__multadd>
 8005420:	9b02      	ldr	r3, [sp, #8]
 8005422:	2b00      	cmp	r3, #0
 8005424:	4606      	mov	r6, r0
 8005426:	dc4f      	bgt.n	80054c8 <_dtoa_r+0x948>
 8005428:	9b06      	ldr	r3, [sp, #24]
 800542a:	2b02      	cmp	r3, #2
 800542c:	dd4c      	ble.n	80054c8 <_dtoa_r+0x948>
 800542e:	e011      	b.n	8005454 <_dtoa_r+0x8d4>
 8005430:	d0c9      	beq.n	80053c6 <_dtoa_r+0x846>
 8005432:	9a05      	ldr	r2, [sp, #20]
 8005434:	331c      	adds	r3, #28
 8005436:	441a      	add	r2, r3
 8005438:	9205      	str	r2, [sp, #20]
 800543a:	441d      	add	r5, r3
 800543c:	4498      	add	r8, r3
 800543e:	e7c2      	b.n	80053c6 <_dtoa_r+0x846>
 8005440:	4603      	mov	r3, r0
 8005442:	e7f6      	b.n	8005432 <_dtoa_r+0x8b2>
 8005444:	f1b9 0f00 	cmp.w	r9, #0
 8005448:	dc38      	bgt.n	80054bc <_dtoa_r+0x93c>
 800544a:	9b06      	ldr	r3, [sp, #24]
 800544c:	2b02      	cmp	r3, #2
 800544e:	dd35      	ble.n	80054bc <_dtoa_r+0x93c>
 8005450:	f8cd 9008 	str.w	r9, [sp, #8]
 8005454:	9b02      	ldr	r3, [sp, #8]
 8005456:	b963      	cbnz	r3, 8005472 <_dtoa_r+0x8f2>
 8005458:	4639      	mov	r1, r7
 800545a:	2205      	movs	r2, #5
 800545c:	4620      	mov	r0, r4
 800545e:	f000 f9b3 	bl	80057c8 <__multadd>
 8005462:	4601      	mov	r1, r0
 8005464:	4607      	mov	r7, r0
 8005466:	9804      	ldr	r0, [sp, #16]
 8005468:	f000 fb78 	bl	8005b5c <__mcmp>
 800546c:	2800      	cmp	r0, #0
 800546e:	f73f adcc 	bgt.w	800500a <_dtoa_r+0x48a>
 8005472:	9b0b      	ldr	r3, [sp, #44]	; 0x2c
 8005474:	465d      	mov	r5, fp
 8005476:	ea6f 0a03 	mvn.w	sl, r3
 800547a:	f04f 0900 	mov.w	r9, #0
 800547e:	4639      	mov	r1, r7
 8005480:	4620      	mov	r0, r4
 8005482:	f000 f98a 	bl	800579a <_Bfree>
 8005486:	2e00      	cmp	r6, #0
 8005488:	f43f aeb7 	beq.w	80051fa <_dtoa_r+0x67a>
 800548c:	f1b9 0f00 	cmp.w	r9, #0
 8005490:	d005      	beq.n	800549e <_dtoa_r+0x91e>
 8005492:	45b1      	cmp	r9, r6
 8005494:	d003      	beq.n	800549e <_dtoa_r+0x91e>
 8005496:	4649      	mov	r1, r9
 8005498:	4620      	mov	r0, r4
 800549a:	f000 f97e 	bl	800579a <_Bfree>
 800549e:	4631      	mov	r1, r6
 80054a0:	4620      	mov	r0, r4
 80054a2:	f000 f97a 	bl	800579a <_Bfree>
 80054a6:	e6a8      	b.n	80051fa <_dtoa_r+0x67a>
 80054a8:	2700      	movs	r7, #0
 80054aa:	463e      	mov	r6, r7
 80054ac:	e7e1      	b.n	8005472 <_dtoa_r+0x8f2>
 80054ae:	f8dd a020 	ldr.w	sl, [sp, #32]
 80054b2:	463e      	mov	r6, r7
 80054b4:	e5a9      	b.n	800500a <_dtoa_r+0x48a>
 80054b6:	bf00      	nop
 80054b8:	40240000 	.word	0x40240000
 80054bc:	9b0a      	ldr	r3, [sp, #40]	; 0x28
 80054be:	f8cd 9008 	str.w	r9, [sp, #8]
 80054c2:	2b00      	cmp	r3, #0
 80054c4:	f000 80fa 	beq.w	80056bc <_dtoa_r+0xb3c>
 80054c8:	2d00      	cmp	r5, #0
 80054ca:	dd05      	ble.n	80054d8 <_dtoa_r+0x958>
 80054cc:	4631      	mov	r1, r6
 80054ce:	462a      	mov	r2, r5
 80054d0:	4620      	mov	r0, r4
 80054d2:	f000 faef 	bl	8005ab4 <__lshift>
 80054d6:	4606      	mov	r6, r0
 80054d8:	9b07      	ldr	r3, [sp, #28]
 80054da:	2b00      	cmp	r3, #0
 80054dc:	d04c      	beq.n	8005578 <_dtoa_r+0x9f8>
 80054de:	6871      	ldr	r1, [r6, #4]
 80054e0:	4620      	mov	r0, r4
 80054e2:	f000 f926 	bl	8005732 <_Balloc>
 80054e6:	6932      	ldr	r2, [r6, #16]
 80054e8:	3202      	adds	r2, #2
 80054ea:	4605      	mov	r5, r0
 80054ec:	0092      	lsls	r2, r2, #2
 80054ee:	f106 010c 	add.w	r1, r6, #12
 80054f2:	300c      	adds	r0, #12
 80054f4:	f000 f912 	bl	800571c <memcpy>
 80054f8:	2201      	movs	r2, #1
 80054fa:	4629      	mov	r1, r5
 80054fc:	4620      	mov	r0, r4
 80054fe:	f000 fad9 	bl	8005ab4 <__lshift>
 8005502:	9b00      	ldr	r3, [sp, #0]
 8005504:	f8cd b014 	str.w	fp, [sp, #20]
 8005508:	f003 0301 	and.w	r3, r3, #1
 800550c:	46b1      	mov	r9, r6
 800550e:	9307      	str	r3, [sp, #28]
 8005510:	4606      	mov	r6, r0
 8005512:	4639      	mov	r1, r7
 8005514:	9804      	ldr	r0, [sp, #16]
 8005516:	f7ff faa7 	bl	8004a68 <quorem>
 800551a:	4649      	mov	r1, r9
 800551c:	4605      	mov	r5, r0
 800551e:	f100 0830 	add.w	r8, r0, #48	; 0x30
 8005522:	9804      	ldr	r0, [sp, #16]
 8005524:	f000 fb1a 	bl	8005b5c <__mcmp>
 8005528:	4632      	mov	r2, r6
 800552a:	9000      	str	r0, [sp, #0]
 800552c:	4639      	mov	r1, r7
 800552e:	4620      	mov	r0, r4
 8005530:	f000 fb2e 	bl	8005b90 <__mdiff>
 8005534:	68c3      	ldr	r3, [r0, #12]
 8005536:	4602      	mov	r2, r0
 8005538:	bb03      	cbnz	r3, 800557c <_dtoa_r+0x9fc>
 800553a:	4601      	mov	r1, r0
 800553c:	9008      	str	r0, [sp, #32]
 800553e:	9804      	ldr	r0, [sp, #16]
 8005540:	f000 fb0c 	bl	8005b5c <__mcmp>
 8005544:	9a08      	ldr	r2, [sp, #32]
 8005546:	4603      	mov	r3, r0
 8005548:	4611      	mov	r1, r2
 800554a:	4620      	mov	r0, r4
 800554c:	9308      	str	r3, [sp, #32]
 800554e:	f000 f924 	bl	800579a <_Bfree>
 8005552:	9b08      	ldr	r3, [sp, #32]
 8005554:	b9a3      	cbnz	r3, 8005580 <_dtoa_r+0xa00>
 8005556:	9a06      	ldr	r2, [sp, #24]
 8005558:	b992      	cbnz	r2, 8005580 <_dtoa_r+0xa00>
 800555a:	9a07      	ldr	r2, [sp, #28]
 800555c:	b982      	cbnz	r2, 8005580 <_dtoa_r+0xa00>
 800555e:	f1b8 0f39 	cmp.w	r8, #57	; 0x39
 8005562:	d029      	beq.n	80055b8 <_dtoa_r+0xa38>
 8005564:	9b00      	ldr	r3, [sp, #0]
 8005566:	2b00      	cmp	r3, #0
 8005568:	dd01      	ble.n	800556e <_dtoa_r+0x9ee>
 800556a:	f105 0831 	add.w	r8, r5, #49	; 0x31
 800556e:	9b05      	ldr	r3, [sp, #20]
 8005570:	1c5d      	adds	r5, r3, #1
 8005572:	f883 8000 	strb.w	r8, [r3]
 8005576:	e782      	b.n	800547e <_dtoa_r+0x8fe>
 8005578:	4630      	mov	r0, r6
 800557a:	e7c2      	b.n	8005502 <_dtoa_r+0x982>
 800557c:	2301      	movs	r3, #1
 800557e:	e7e3      	b.n	8005548 <_dtoa_r+0x9c8>
 8005580:	9a00      	ldr	r2, [sp, #0]
 8005582:	2a00      	cmp	r2, #0
 8005584:	db04      	blt.n	8005590 <_dtoa_r+0xa10>
 8005586:	d125      	bne.n	80055d4 <_dtoa_r+0xa54>
 8005588:	9a06      	ldr	r2, [sp, #24]
 800558a:	bb1a      	cbnz	r2, 80055d4 <_dtoa_r+0xa54>
 800558c:	9a07      	ldr	r2, [sp, #28]
 800558e:	bb0a      	cbnz	r2, 80055d4 <_dtoa_r+0xa54>
 8005590:	2b00      	cmp	r3, #0
 8005592:	ddec      	ble.n	800556e <_dtoa_r+0x9ee>
 8005594:	2201      	movs	r2, #1
 8005596:	9904      	ldr	r1, [sp, #16]
 8005598:	4620      	mov	r0, r4
 800559a:	f000 fa8b 	bl	8005ab4 <__lshift>
 800559e:	4639      	mov	r1, r7
 80055a0:	9004      	str	r0, [sp, #16]
 80055a2:	f000 fadb 	bl	8005b5c <__mcmp>
 80055a6:	2800      	cmp	r0, #0
 80055a8:	dc03      	bgt.n	80055b2 <_dtoa_r+0xa32>
 80055aa:	d1e0      	bne.n	800556e <_dtoa_r+0x9ee>
 80055ac:	f018 0f01 	tst.w	r8, #1
 80055b0:	d0dd      	beq.n	800556e <_dtoa_r+0x9ee>
 80055b2:	f1b8 0f39 	cmp.w	r8, #57	; 0x39
 80055b6:	d1d8      	bne.n	800556a <_dtoa_r+0x9ea>
 80055b8:	9b05      	ldr	r3, [sp, #20]
 80055ba:	9a05      	ldr	r2, [sp, #20]
 80055bc:	1c5d      	adds	r5, r3, #1
 80055be:	2339      	movs	r3, #57	; 0x39
 80055c0:	7013      	strb	r3, [r2, #0]
 80055c2:	f815 3c01 	ldrb.w	r3, [r5, #-1]
 80055c6:	2b39      	cmp	r3, #57	; 0x39
 80055c8:	f105 32ff 	add.w	r2, r5, #4294967295
 80055cc:	d04f      	beq.n	800566e <_dtoa_r+0xaee>
 80055ce:	3301      	adds	r3, #1
 80055d0:	7013      	strb	r3, [r2, #0]
 80055d2:	e754      	b.n	800547e <_dtoa_r+0x8fe>
 80055d4:	9a05      	ldr	r2, [sp, #20]
 80055d6:	2b00      	cmp	r3, #0
 80055d8:	f102 0501 	add.w	r5, r2, #1
 80055dc:	dd06      	ble.n	80055ec <_dtoa_r+0xa6c>
 80055de:	f1b8 0f39 	cmp.w	r8, #57	; 0x39
 80055e2:	d0e9      	beq.n	80055b8 <_dtoa_r+0xa38>
 80055e4:	f108 0801 	add.w	r8, r8, #1
 80055e8:	9b05      	ldr	r3, [sp, #20]
 80055ea:	e7c2      	b.n	8005572 <_dtoa_r+0x9f2>
 80055ec:	9a02      	ldr	r2, [sp, #8]
 80055ee:	f805 8c01 	strb.w	r8, [r5, #-1]
 80055f2:	eba5 030b 	sub.w	r3, r5, fp
 80055f6:	4293      	cmp	r3, r2
 80055f8:	d021      	beq.n	800563e <_dtoa_r+0xabe>
 80055fa:	2300      	movs	r3, #0
 80055fc:	220a      	movs	r2, #10
 80055fe:	9904      	ldr	r1, [sp, #16]
 8005600:	4620      	mov	r0, r4
 8005602:	f000 f8e1 	bl	80057c8 <__multadd>
 8005606:	45b1      	cmp	r9, r6
 8005608:	9004      	str	r0, [sp, #16]
 800560a:	f04f 0300 	mov.w	r3, #0
 800560e:	f04f 020a 	mov.w	r2, #10
 8005612:	4649      	mov	r1, r9
 8005614:	4620      	mov	r0, r4
 8005616:	d105      	bne.n	8005624 <_dtoa_r+0xaa4>
 8005618:	f000 f8d6 	bl	80057c8 <__multadd>
 800561c:	4681      	mov	r9, r0
 800561e:	4606      	mov	r6, r0
 8005620:	9505      	str	r5, [sp, #20]
 8005622:	e776      	b.n	8005512 <_dtoa_r+0x992>
 8005624:	f000 f8d0 	bl	80057c8 <__multadd>
 8005628:	4631      	mov	r1, r6
 800562a:	4681      	mov	r9, r0
 800562c:	2300      	movs	r3, #0
 800562e:	220a      	movs	r2, #10
 8005630:	4620      	mov	r0, r4
 8005632:	f000 f8c9 	bl	80057c8 <__multadd>
 8005636:	4606      	mov	r6, r0
 8005638:	e7f2      	b.n	8005620 <_dtoa_r+0xaa0>
 800563a:	f04f 0900 	mov.w	r9, #0
 800563e:	2201      	movs	r2, #1
 8005640:	9904      	ldr	r1, [sp, #16]
 8005642:	4620      	mov	r0, r4
 8005644:	f000 fa36 	bl	8005ab4 <__lshift>
 8005648:	4639      	mov	r1, r7
 800564a:	9004      	str	r0, [sp, #16]
 800564c:	f000 fa86 	bl	8005b5c <__mcmp>
 8005650:	2800      	cmp	r0, #0
 8005652:	dcb6      	bgt.n	80055c2 <_dtoa_r+0xa42>
 8005654:	d102      	bne.n	800565c <_dtoa_r+0xadc>
 8005656:	f018 0f01 	tst.w	r8, #1
 800565a:	d1b2      	bne.n	80055c2 <_dtoa_r+0xa42>
 800565c:	f815 3c01 	ldrb.w	r3, [r5, #-1]
 8005660:	2b30      	cmp	r3, #48	; 0x30
 8005662:	f105 32ff 	add.w	r2, r5, #4294967295
 8005666:	f47f af0a 	bne.w	800547e <_dtoa_r+0x8fe>
 800566a:	4615      	mov	r5, r2
 800566c:	e7f6      	b.n	800565c <_dtoa_r+0xadc>
 800566e:	4593      	cmp	fp, r2
 8005670:	d105      	bne.n	800567e <_dtoa_r+0xafe>
 8005672:	2331      	movs	r3, #49	; 0x31
 8005674:	f10a 0a01 	add.w	sl, sl, #1
 8005678:	f88b 3000 	strb.w	r3, [fp]
 800567c:	e6ff      	b.n	800547e <_dtoa_r+0x8fe>
 800567e:	4615      	mov	r5, r2
 8005680:	e79f      	b.n	80055c2 <_dtoa_r+0xa42>
 8005682:	f8df b064 	ldr.w	fp, [pc, #100]	; 80056e8 <_dtoa_r+0xb68>
 8005686:	e007      	b.n	8005698 <_dtoa_r+0xb18>
 8005688:	9b21      	ldr	r3, [sp, #132]	; 0x84
 800568a:	f8df b060 	ldr.w	fp, [pc, #96]	; 80056ec <_dtoa_r+0xb6c>
 800568e:	b11b      	cbz	r3, 8005698 <_dtoa_r+0xb18>
 8005690:	f10b 0308 	add.w	r3, fp, #8
 8005694:	9a21      	ldr	r2, [sp, #132]	; 0x84
 8005696:	6013      	str	r3, [r2, #0]
 8005698:	4658      	mov	r0, fp
 800569a:	b017      	add	sp, #92	; 0x5c
 800569c:	e8bd 8ff0 	ldmia.w	sp!, {r4, r5, r6, r7, r8, r9, sl, fp, pc}
 80056a0:	9b06      	ldr	r3, [sp, #24]
 80056a2:	2b01      	cmp	r3, #1
 80056a4:	f77f ae35 	ble.w	8005312 <_dtoa_r+0x792>
 80056a8:	9b0e      	ldr	r3, [sp, #56]	; 0x38
 80056aa:	9307      	str	r3, [sp, #28]
 80056ac:	e649      	b.n	8005342 <_dtoa_r+0x7c2>
 80056ae:	9b02      	ldr	r3, [sp, #8]
 80056b0:	2b00      	cmp	r3, #0
 80056b2:	dc03      	bgt.n	80056bc <_dtoa_r+0xb3c>
 80056b4:	9b06      	ldr	r3, [sp, #24]
 80056b6:	2b02      	cmp	r3, #2
 80056b8:	f73f aecc 	bgt.w	8005454 <_dtoa_r+0x8d4>
 80056bc:	465d      	mov	r5, fp
 80056be:	4639      	mov	r1, r7
 80056c0:	9804      	ldr	r0, [sp, #16]
 80056c2:	f7ff f9d1 	bl	8004a68 <quorem>
 80056c6:	f100 0830 	add.w	r8, r0, #48	; 0x30
 80056ca:	f805 8b01 	strb.w	r8, [r5], #1
 80056ce:	9a02      	ldr	r2, [sp, #8]
 80056d0:	eba5 030b 	sub.w	r3, r5, fp
 80056d4:	429a      	cmp	r2, r3
 80056d6:	ddb0      	ble.n	800563a <_dtoa_r+0xaba>
 80056d8:	2300      	movs	r3, #0
 80056da:	220a      	movs	r2, #10
 80056dc:	9904      	ldr	r1, [sp, #16]
 80056de:	4620      	mov	r0, r4
 80056e0:	f000 f872 	bl	80057c8 <__multadd>
 80056e4:	9004      	str	r0, [sp, #16]
 80056e6:	e7ea      	b.n	80056be <_dtoa_r+0xb3e>
 80056e8:	08006234 	.word	0x08006234
 80056ec:	08006258 	.word	0x08006258

080056f0 <_localeconv_r>:
 80056f0:	4b04      	ldr	r3, [pc, #16]	; (8005704 <_localeconv_r+0x14>)
 80056f2:	681b      	ldr	r3, [r3, #0]
 80056f4:	6a18      	ldr	r0, [r3, #32]
 80056f6:	4b04      	ldr	r3, [pc, #16]	; (8005708 <_localeconv_r+0x18>)
 80056f8:	2800      	cmp	r0, #0
 80056fa:	bf08      	it	eq
 80056fc:	4618      	moveq	r0, r3
 80056fe:	30f0      	adds	r0, #240	; 0xf0
 8005700:	4770      	bx	lr
 8005702:	bf00      	nop
 8005704:	2000000c 	.word	0x2000000c
 8005708:	20000070 	.word	0x20000070

0800570c <malloc>:
 800570c:	4b02      	ldr	r3, [pc, #8]	; (8005718 <malloc+0xc>)
 800570e:	4601      	mov	r1, r0
 8005710:	6818      	ldr	r0, [r3, #0]
 8005712:	f000 bb45 	b.w	8005da0 <_malloc_r>
 8005716:	bf00      	nop
 8005718:	2000000c 	.word	0x2000000c

0800571c <memcpy>:
 800571c:	b510      	push	{r4, lr}
 800571e:	1e43      	subs	r3, r0, #1
 8005720:	440a      	add	r2, r1
 8005722:	4291      	cmp	r1, r2
 8005724:	d100      	bne.n	8005728 <memcpy+0xc>
 8005726:	bd10      	pop	{r4, pc}
 8005728:	f811 4b01 	ldrb.w	r4, [r1], #1
 800572c:	f803 4f01 	strb.w	r4, [r3, #1]!
 8005730:	e7f7      	b.n	8005722 <memcpy+0x6>

08005732 <_Balloc>:
 8005732:	b570      	push	{r4, r5, r6, lr}
 8005734:	6a45      	ldr	r5, [r0, #36]	; 0x24
 8005736:	4604      	mov	r4, r0
 8005738:	460e      	mov	r6, r1
 800573a:	b93d      	cbnz	r5, 800574c <_Balloc+0x1a>
 800573c:	2010      	movs	r0, #16
 800573e:	f7ff ffe5 	bl	800570c <malloc>
 8005742:	6260      	str	r0, [r4, #36]	; 0x24
 8005744:	e9c0 5501 	strd	r5, r5, [r0, #4]
 8005748:	6005      	str	r5, [r0, #0]
 800574a:	60c5      	str	r5, [r0, #12]
 800574c:	6a65      	ldr	r5, [r4, #36]	; 0x24
 800574e:	68eb      	ldr	r3, [r5, #12]
 8005750:	b183      	cbz	r3, 8005774 <_Balloc+0x42>
 8005752:	6a63      	ldr	r3, [r4, #36]	; 0x24
 8005754:	68db      	ldr	r3, [r3, #12]
 8005756:	f853 0026 	ldr.w	r0, [r3, r6, lsl #2]
 800575a:	b9b8      	cbnz	r0, 800578c <_Balloc+0x5a>
 800575c:	2101      	movs	r1, #1
 800575e:	fa01 f506 	lsl.w	r5, r1, r6
 8005762:	1d6a      	adds	r2, r5, #5
 8005764:	0092      	lsls	r2, r2, #2
 8005766:	4620      	mov	r0, r4
 8005768:	f000 fabe 	bl	8005ce8 <_calloc_r>
 800576c:	b160      	cbz	r0, 8005788 <_Balloc+0x56>
 800576e:	e9c0 6501 	strd	r6, r5, [r0, #4]
 8005772:	e00e      	b.n	8005792 <_Balloc+0x60>
 8005774:	2221      	movs	r2, #33	; 0x21
 8005776:	2104      	movs	r1, #4
 8005778:	4620      	mov	r0, r4
 800577a:	f000 fab5 	bl	8005ce8 <_calloc_r>
 800577e:	6a63      	ldr	r3, [r4, #36]	; 0x24
 8005780:	60e8      	str	r0, [r5, #12]
 8005782:	68db      	ldr	r3, [r3, #12]
 8005784:	2b00      	cmp	r3, #0
 8005786:	d1e4      	bne.n	8005752 <_Balloc+0x20>
 8005788:	2000      	movs	r0, #0
 800578a:	bd70      	pop	{r4, r5, r6, pc}
 800578c:	6802      	ldr	r2, [r0, #0]
 800578e:	f843 2026 	str.w	r2, [r3, r6, lsl #2]
 8005792:	2300      	movs	r3, #0
 8005794:	e9c0 3303 	strd	r3, r3, [r0, #12]
 8005798:	e7f7      	b.n	800578a <_Balloc+0x58>

0800579a <_Bfree>:
 800579a:	b570      	push	{r4, r5, r6, lr}
 800579c:	6a44      	ldr	r4, [r0, #36]	; 0x24
 800579e:	4606      	mov	r6, r0
 80057a0:	460d      	mov	r5, r1
 80057a2:	b93c      	cbnz	r4, 80057b4 <_Bfree+0x1a>
 80057a4:	2010      	movs	r0, #16
 80057a6:	f7ff ffb1 	bl	800570c <malloc>
 80057aa:	6270      	str	r0, [r6, #36]	; 0x24
 80057ac:	e9c0 4401 	strd	r4, r4, [r0, #4]
 80057b0:	6004      	str	r4, [r0, #0]
 80057b2:	60c4      	str	r4, [r0, #12]
 80057b4:	b13d      	cbz	r5, 80057c6 <_Bfree+0x2c>
 80057b6:	6a73      	ldr	r3, [r6, #36]	; 0x24
 80057b8:	686a      	ldr	r2, [r5, #4]
 80057ba:	68db      	ldr	r3, [r3, #12]
 80057bc:	f853 1022 	ldr.w	r1, [r3, r2, lsl #2]
 80057c0:	6029      	str	r1, [r5, #0]
 80057c2:	f843 5022 	str.w	r5, [r3, r2, lsl #2]
 80057c6:	bd70      	pop	{r4, r5, r6, pc}

080057c8 <__multadd>:
 80057c8:	e92d 41f0 	stmdb	sp!, {r4, r5, r6, r7, r8, lr}
 80057cc:	690d      	ldr	r5, [r1, #16]
 80057ce:	461f      	mov	r7, r3
 80057d0:	4606      	mov	r6, r0
 80057d2:	460c      	mov	r4, r1
 80057d4:	f101 0c14 	add.w	ip, r1, #20
 80057d8:	2300      	movs	r3, #0
 80057da:	f8dc 0000 	ldr.w	r0, [ip]
 80057de:	b281      	uxth	r1, r0
 80057e0:	fb02 7101 	mla	r1, r2, r1, r7
 80057e4:	0c0f      	lsrs	r7, r1, #16
 80057e6:	0c00      	lsrs	r0, r0, #16
 80057e8:	fb02 7000 	mla	r0, r2, r0, r7
 80057ec:	b289      	uxth	r1, r1
 80057ee:	3301      	adds	r3, #1
 80057f0:	eb01 4100 	add.w	r1, r1, r0, lsl #16
 80057f4:	429d      	cmp	r5, r3
 80057f6:	ea4f 4710 	mov.w	r7, r0, lsr #16
 80057fa:	f84c 1b04 	str.w	r1, [ip], #4
 80057fe:	dcec      	bgt.n	80057da <__multadd+0x12>
 8005800:	b1d7      	cbz	r7, 8005838 <__multadd+0x70>
 8005802:	68a3      	ldr	r3, [r4, #8]
 8005804:	42ab      	cmp	r3, r5
 8005806:	dc12      	bgt.n	800582e <__multadd+0x66>
 8005808:	6861      	ldr	r1, [r4, #4]
 800580a:	4630      	mov	r0, r6
 800580c:	3101      	adds	r1, #1
 800580e:	f7ff ff90 	bl	8005732 <_Balloc>
 8005812:	6922      	ldr	r2, [r4, #16]
 8005814:	3202      	adds	r2, #2
 8005816:	f104 010c 	add.w	r1, r4, #12
 800581a:	4680      	mov	r8, r0
 800581c:	0092      	lsls	r2, r2, #2
 800581e:	300c      	adds	r0, #12
 8005820:	f7ff ff7c 	bl	800571c <memcpy>
 8005824:	4621      	mov	r1, r4
 8005826:	4630      	mov	r0, r6
 8005828:	f7ff ffb7 	bl	800579a <_Bfree>
 800582c:	4644      	mov	r4, r8
 800582e:	eb04 0385 	add.w	r3, r4, r5, lsl #2
 8005832:	3501      	adds	r5, #1
 8005834:	615f      	str	r7, [r3, #20]
 8005836:	6125      	str	r5, [r4, #16]
 8005838:	4620      	mov	r0, r4
 800583a:	e8bd 81f0 	ldmia.w	sp!, {r4, r5, r6, r7, r8, pc}

0800583e <__hi0bits>:
 800583e:	0c02      	lsrs	r2, r0, #16
 8005840:	0412      	lsls	r2, r2, #16
 8005842:	4603      	mov	r3, r0
 8005844:	b9b2      	cbnz	r2, 8005874 <__hi0bits+0x36>
 8005846:	0403      	lsls	r3, r0, #16
 8005848:	2010      	movs	r0, #16
 800584a:	f013 4f7f 	tst.w	r3, #4278190080	; 0xff000000
 800584e:	bf04      	itt	eq
 8005850:	021b      	lsleq	r3, r3, #8
 8005852:	3008      	addeq	r0, #8
 8005854:	f013 4f70 	tst.w	r3, #4026531840	; 0xf0000000
 8005858:	bf04      	itt	eq
 800585a:	011b      	lsleq	r3, r3, #4
 800585c:	3004      	addeq	r0, #4
 800585e:	f013 4f40 	tst.w	r3, #3221225472	; 0xc0000000
 8005862:	bf04      	itt	eq
 8005864:	009b      	lsleq	r3, r3, #2
 8005866:	3002      	addeq	r0, #2
 8005868:	2b00      	cmp	r3, #0
 800586a:	db06      	blt.n	800587a <__hi0bits+0x3c>
 800586c:	005b      	lsls	r3, r3, #1
 800586e:	d503      	bpl.n	8005878 <__hi0bits+0x3a>
 8005870:	3001      	adds	r0, #1
 8005872:	4770      	bx	lr
 8005874:	2000      	movs	r0, #0
 8005876:	e7e8      	b.n	800584a <__hi0bits+0xc>
 8005878:	2020      	movs	r0, #32
 800587a:	4770      	bx	lr

0800587c <__lo0bits>:
 800587c:	6803      	ldr	r3, [r0, #0]
 800587e:	f013 0207 	ands.w	r2, r3, #7
 8005882:	4601      	mov	r1, r0
 8005884:	d00b      	beq.n	800589e <__lo0bits+0x22>
 8005886:	07da      	lsls	r2, r3, #31
 8005888:	d423      	bmi.n	80058d2 <__lo0bits+0x56>
 800588a:	0798      	lsls	r0, r3, #30
 800588c:	bf49      	itett	mi
 800588e:	085b      	lsrmi	r3, r3, #1
 8005890:	089b      	lsrpl	r3, r3, #2
 8005892:	2001      	movmi	r0, #1
 8005894:	600b      	strmi	r3, [r1, #0]
 8005896:	bf5c      	itt	pl
 8005898:	600b      	strpl	r3, [r1, #0]
 800589a:	2002      	movpl	r0, #2
 800589c:	4770      	bx	lr
 800589e:	b298      	uxth	r0, r3
 80058a0:	b9a8      	cbnz	r0, 80058ce <__lo0bits+0x52>
 80058a2:	0c1b      	lsrs	r3, r3, #16
 80058a4:	2010      	movs	r0, #16
 80058a6:	f013 0fff 	tst.w	r3, #255	; 0xff
 80058aa:	bf04      	itt	eq
 80058ac:	0a1b      	lsreq	r3, r3, #8
 80058ae:	3008      	addeq	r0, #8
 80058b0:	071a      	lsls	r2, r3, #28
 80058b2:	bf04      	itt	eq
 80058b4:	091b      	lsreq	r3, r3, #4
 80058b6:	3004      	addeq	r0, #4
 80058b8:	079a      	lsls	r2, r3, #30
 80058ba:	bf04      	itt	eq
 80058bc:	089b      	lsreq	r3, r3, #2
 80058be:	3002      	addeq	r0, #2
 80058c0:	07da      	lsls	r2, r3, #31
 80058c2:	d402      	bmi.n	80058ca <__lo0bits+0x4e>
 80058c4:	085b      	lsrs	r3, r3, #1
 80058c6:	d006      	beq.n	80058d6 <__lo0bits+0x5a>
 80058c8:	3001      	adds	r0, #1
 80058ca:	600b      	str	r3, [r1, #0]
 80058cc:	4770      	bx	lr
 80058ce:	4610      	mov	r0, r2
 80058d0:	e7e9      	b.n	80058a6 <__lo0bits+0x2a>
 80058d2:	2000      	movs	r0, #0
 80058d4:	4770      	bx	lr
 80058d6:	2020      	movs	r0, #32
 80058d8:	4770      	bx	lr

080058da <__i2b>:
 80058da:	b510      	push	{r4, lr}
 80058dc:	460c      	mov	r4, r1
 80058de:	2101      	movs	r1, #1
 80058e0:	f7ff ff27 	bl	8005732 <_Balloc>
 80058e4:	2201      	movs	r2, #1
 80058e6:	6144      	str	r4, [r0, #20]
 80058e8:	6102      	str	r2, [r0, #16]
 80058ea:	bd10      	pop	{r4, pc}

080058ec <__multiply>:
 80058ec:	e92d 4ff7 	stmdb	sp!, {r0, r1, r2, r4, r5, r6, r7, r8, r9, sl, fp, lr}
 80058f0:	4614      	mov	r4, r2
 80058f2:	690a      	ldr	r2, [r1, #16]
 80058f4:	6923      	ldr	r3, [r4, #16]
 80058f6:	429a      	cmp	r2, r3
 80058f8:	bfb8      	it	lt
 80058fa:	460b      	movlt	r3, r1
 80058fc:	4688      	mov	r8, r1
 80058fe:	bfbc      	itt	lt
 8005900:	46a0      	movlt	r8, r4
 8005902:	461c      	movlt	r4, r3
 8005904:	f8d8 7010 	ldr.w	r7, [r8, #16]
 8005908:	f8d4 9010 	ldr.w	r9, [r4, #16]
 800590c:	f8d8 3008 	ldr.w	r3, [r8, #8]
 8005910:	f8d8 1004 	ldr.w	r1, [r8, #4]
 8005914:	eb07 0609 	add.w	r6, r7, r9
 8005918:	42b3      	cmp	r3, r6
 800591a:	bfb8      	it	lt
 800591c:	3101      	addlt	r1, #1
 800591e:	f7ff ff08 	bl	8005732 <_Balloc>
 8005922:	f100 0514 	add.w	r5, r0, #20
 8005926:	eb05 0e86 	add.w	lr, r5, r6, lsl #2
 800592a:	462b      	mov	r3, r5
 800592c:	2200      	movs	r2, #0
 800592e:	4573      	cmp	r3, lr
 8005930:	d316      	bcc.n	8005960 <__multiply+0x74>
 8005932:	f104 0214 	add.w	r2, r4, #20
 8005936:	f108 0114 	add.w	r1, r8, #20
 800593a:	eb02 0389 	add.w	r3, r2, r9, lsl #2
 800593e:	eb01 0787 	add.w	r7, r1, r7, lsl #2
 8005942:	9300      	str	r3, [sp, #0]
 8005944:	9b00      	ldr	r3, [sp, #0]
 8005946:	9201      	str	r2, [sp, #4]
 8005948:	4293      	cmp	r3, r2
 800594a:	d80c      	bhi.n	8005966 <__multiply+0x7a>
 800594c:	2e00      	cmp	r6, #0
 800594e:	dd03      	ble.n	8005958 <__multiply+0x6c>
 8005950:	f85e 3d04 	ldr.w	r3, [lr, #-4]!
 8005954:	2b00      	cmp	r3, #0
 8005956:	d05d      	beq.n	8005a14 <__multiply+0x128>
 8005958:	6106      	str	r6, [r0, #16]
 800595a:	b003      	add	sp, #12
 800595c:	e8bd 8ff0 	ldmia.w	sp!, {r4, r5, r6, r7, r8, r9, sl, fp, pc}
 8005960:	f843 2b04 	str.w	r2, [r3], #4
 8005964:	e7e3      	b.n	800592e <__multiply+0x42>
 8005966:	f8b2 b000 	ldrh.w	fp, [r2]
 800596a:	f1bb 0f00 	cmp.w	fp, #0
 800596e:	d023      	beq.n	80059b8 <__multiply+0xcc>
 8005970:	4689      	mov	r9, r1
 8005972:	46ac      	mov	ip, r5
 8005974:	f04f 0800 	mov.w	r8, #0
 8005978:	f859 4b04 	ldr.w	r4, [r9], #4
 800597c:	f8dc a000 	ldr.w	sl, [ip]
 8005980:	b2a3      	uxth	r3, r4
 8005982:	fa1f fa8a 	uxth.w	sl, sl
 8005986:	fb0b a303 	mla	r3, fp, r3, sl
 800598a:	ea4f 4a14 	mov.w	sl, r4, lsr #16
 800598e:	f8dc 4000 	ldr.w	r4, [ip]
 8005992:	4443      	add	r3, r8
 8005994:	ea4f 4814 	mov.w	r8, r4, lsr #16
 8005998:	fb0b 840a 	mla	r4, fp, sl, r8
 800599c:	eb04 4413 	add.w	r4, r4, r3, lsr #16
 80059a0:	46e2      	mov	sl, ip
 80059a2:	b29b      	uxth	r3, r3
 80059a4:	ea43 4304 	orr.w	r3, r3, r4, lsl #16
 80059a8:	454f      	cmp	r7, r9
 80059aa:	ea4f 4814 	mov.w	r8, r4, lsr #16
 80059ae:	f84a 3b04 	str.w	r3, [sl], #4
 80059b2:	d82b      	bhi.n	8005a0c <__multiply+0x120>
 80059b4:	f8cc 8004 	str.w	r8, [ip, #4]
 80059b8:	9b01      	ldr	r3, [sp, #4]
 80059ba:	f8b3 a002 	ldrh.w	sl, [r3, #2]
 80059be:	3204      	adds	r2, #4
 80059c0:	f1ba 0f00 	cmp.w	sl, #0
 80059c4:	d020      	beq.n	8005a08 <__multiply+0x11c>
 80059c6:	682b      	ldr	r3, [r5, #0]
 80059c8:	4689      	mov	r9, r1
 80059ca:	46a8      	mov	r8, r5
 80059cc:	f04f 0b00 	mov.w	fp, #0
 80059d0:	f8b9 c000 	ldrh.w	ip, [r9]
 80059d4:	f8b8 4002 	ldrh.w	r4, [r8, #2]
 80059d8:	fb0a 440c 	mla	r4, sl, ip, r4
 80059dc:	445c      	add	r4, fp
 80059de:	46c4      	mov	ip, r8
 80059e0:	b29b      	uxth	r3, r3
 80059e2:	ea43 4304 	orr.w	r3, r3, r4, lsl #16
 80059e6:	f84c 3b04 	str.w	r3, [ip], #4
 80059ea:	f859 3b04 	ldr.w	r3, [r9], #4
 80059ee:	f8b8 b004 	ldrh.w	fp, [r8, #4]
 80059f2:	0c1b      	lsrs	r3, r3, #16
 80059f4:	fb0a b303 	mla	r3, sl, r3, fp
 80059f8:	eb03 4314 	add.w	r3, r3, r4, lsr #16
 80059fc:	454f      	cmp	r7, r9
 80059fe:	ea4f 4b13 	mov.w	fp, r3, lsr #16
 8005a02:	d805      	bhi.n	8005a10 <__multiply+0x124>
 8005a04:	f8c8 3004 	str.w	r3, [r8, #4]
 8005a08:	3504      	adds	r5, #4
 8005a0a:	e79b      	b.n	8005944 <__multiply+0x58>
 8005a0c:	46d4      	mov	ip, sl
 8005a0e:	e7b3      	b.n	8005978 <__multiply+0x8c>
 8005a10:	46e0      	mov	r8, ip
 8005a12:	e7dd      	b.n	80059d0 <__multiply+0xe4>
 8005a14:	3e01      	subs	r6, #1
 8005a16:	e799      	b.n	800594c <__multiply+0x60>

08005a18 <__pow5mult>:
 8005a18:	e92d 43f8 	stmdb	sp!, {r3, r4, r5, r6, r7, r8, r9, lr}
 8005a1c:	4615      	mov	r5, r2
 8005a1e:	f012 0203 	ands.w	r2, r2, #3
 8005a22:	4606      	mov	r6, r0
 8005a24:	460f      	mov	r7, r1
 8005a26:	d007      	beq.n	8005a38 <__pow5mult+0x20>
 8005a28:	3a01      	subs	r2, #1
 8005a2a:	4c21      	ldr	r4, [pc, #132]	; (8005ab0 <__pow5mult+0x98>)
 8005a2c:	2300      	movs	r3, #0
 8005a2e:	f854 2022 	ldr.w	r2, [r4, r2, lsl #2]
 8005a32:	f7ff fec9 	bl	80057c8 <__multadd>
 8005a36:	4607      	mov	r7, r0
 8005a38:	10ad      	asrs	r5, r5, #2
 8005a3a:	d035      	beq.n	8005aa8 <__pow5mult+0x90>
 8005a3c:	6a74      	ldr	r4, [r6, #36]	; 0x24
 8005a3e:	b93c      	cbnz	r4, 8005a50 <__pow5mult+0x38>
 8005a40:	2010      	movs	r0, #16
 8005a42:	f7ff fe63 	bl	800570c <malloc>
 8005a46:	6270      	str	r0, [r6, #36]	; 0x24
 8005a48:	e9c0 4401 	strd	r4, r4, [r0, #4]
 8005a4c:	6004      	str	r4, [r0, #0]
 8005a4e:	60c4      	str	r4, [r0, #12]
 8005a50:	f8d6 8024 	ldr.w	r8, [r6, #36]	; 0x24
 8005a54:	f8d8 4008 	ldr.w	r4, [r8, #8]
 8005a58:	b94c      	cbnz	r4, 8005a6e <__pow5mult+0x56>
 8005a5a:	f240 2171 	movw	r1, #625	; 0x271
 8005a5e:	4630      	mov	r0, r6
 8005a60:	f7ff ff3b 	bl	80058da <__i2b>
 8005a64:	2300      	movs	r3, #0
 8005a66:	f8c8 0008 	str.w	r0, [r8, #8]
 8005a6a:	4604      	mov	r4, r0
 8005a6c:	6003      	str	r3, [r0, #0]
 8005a6e:	f04f 0800 	mov.w	r8, #0
 8005a72:	07eb      	lsls	r3, r5, #31
 8005a74:	d50a      	bpl.n	8005a8c <__pow5mult+0x74>
 8005a76:	4639      	mov	r1, r7
 8005a78:	4622      	mov	r2, r4
 8005a7a:	4630      	mov	r0, r6
 8005a7c:	f7ff ff36 	bl	80058ec <__multiply>
 8005a80:	4639      	mov	r1, r7
 8005a82:	4681      	mov	r9, r0
 8005a84:	4630      	mov	r0, r6
 8005a86:	f7ff fe88 	bl	800579a <_Bfree>
 8005a8a:	464f      	mov	r7, r9
 8005a8c:	106d      	asrs	r5, r5, #1
 8005a8e:	d00b      	beq.n	8005aa8 <__pow5mult+0x90>
 8005a90:	6820      	ldr	r0, [r4, #0]
 8005a92:	b938      	cbnz	r0, 8005aa4 <__pow5mult+0x8c>
 8005a94:	4622      	mov	r2, r4
 8005a96:	4621      	mov	r1, r4
 8005a98:	4630      	mov	r0, r6
 8005a9a:	f7ff ff27 	bl	80058ec <__multiply>
 8005a9e:	6020      	str	r0, [r4, #0]
 8005aa0:	f8c0 8000 	str.w	r8, [r0]
 8005aa4:	4604      	mov	r4, r0
 8005aa6:	e7e4      	b.n	8005a72 <__pow5mult+0x5a>
 8005aa8:	4638      	mov	r0, r7
 8005aaa:	e8bd 83f8 	ldmia.w	sp!, {r3, r4, r5, r6, r7, r8, r9, pc}
 8005aae:	bf00      	nop
 8005ab0:	08006358 	.word	0x08006358

08005ab4 <__lshift>:
 8005ab4:	e92d 47f0 	stmdb	sp!, {r4, r5, r6, r7, r8, r9, sl, lr}
 8005ab8:	460c      	mov	r4, r1
 8005aba:	ea4f 1a62 	mov.w	sl, r2, asr #5
 8005abe:	6923      	ldr	r3, [r4, #16]
 8005ac0:	6849      	ldr	r1, [r1, #4]
 8005ac2:	eb0a 0903 	add.w	r9, sl, r3
 8005ac6:	68a3      	ldr	r3, [r4, #8]
 8005ac8:	4607      	mov	r7, r0
 8005aca:	4616      	mov	r6, r2
 8005acc:	f109 0501 	add.w	r5, r9, #1
 8005ad0:	42ab      	cmp	r3, r5
 8005ad2:	db32      	blt.n	8005b3a <__lshift+0x86>
 8005ad4:	4638      	mov	r0, r7
 8005ad6:	f7ff fe2c 	bl	8005732 <_Balloc>
 8005ada:	2300      	movs	r3, #0
 8005adc:	4680      	mov	r8, r0
 8005ade:	f100 0114 	add.w	r1, r0, #20
 8005ae2:	461a      	mov	r2, r3
 8005ae4:	4553      	cmp	r3, sl
 8005ae6:	db2b      	blt.n	8005b40 <__lshift+0x8c>
 8005ae8:	6920      	ldr	r0, [r4, #16]
 8005aea:	ea2a 7aea 	bic.w	sl, sl, sl, asr #31
 8005aee:	f104 0314 	add.w	r3, r4, #20
 8005af2:	f016 021f 	ands.w	r2, r6, #31
 8005af6:	eb01 018a 	add.w	r1, r1, sl, lsl #2
 8005afa:	eb03 0c80 	add.w	ip, r3, r0, lsl #2
 8005afe:	d025      	beq.n	8005b4c <__lshift+0x98>
 8005b00:	f1c2 0e20 	rsb	lr, r2, #32
 8005b04:	2000      	movs	r0, #0
 8005b06:	681e      	ldr	r6, [r3, #0]
 8005b08:	468a      	mov	sl, r1
 8005b0a:	4096      	lsls	r6, r2
 8005b0c:	4330      	orrs	r0, r6
 8005b0e:	f84a 0b04 	str.w	r0, [sl], #4
 8005b12:	f853 0b04 	ldr.w	r0, [r3], #4
 8005b16:	459c      	cmp	ip, r3
 8005b18:	fa20 f00e 	lsr.w	r0, r0, lr
 8005b1c:	d814      	bhi.n	8005b48 <__lshift+0x94>
 8005b1e:	6048      	str	r0, [r1, #4]
 8005b20:	b108      	cbz	r0, 8005b26 <__lshift+0x72>
 8005b22:	f109 0502 	add.w	r5, r9, #2
 8005b26:	3d01      	subs	r5, #1
 8005b28:	4638      	mov	r0, r7
 8005b2a:	f8c8 5010 	str.w	r5, [r8, #16]
 8005b2e:	4621      	mov	r1, r4
 8005b30:	f7ff fe33 	bl	800579a <_Bfree>
 8005b34:	4640      	mov	r0, r8
 8005b36:	e8bd 87f0 	ldmia.w	sp!, {r4, r5, r6, r7, r8, r9, sl, pc}
 8005b3a:	3101      	adds	r1, #1
 8005b3c:	005b      	lsls	r3, r3, #1
 8005b3e:	e7c7      	b.n	8005ad0 <__lshift+0x1c>
 8005b40:	f841 2023 	str.w	r2, [r1, r3, lsl #2]
 8005b44:	3301      	adds	r3, #1
 8005b46:	e7cd      	b.n	8005ae4 <__lshift+0x30>
 8005b48:	4651      	mov	r1, sl
 8005b4a:	e7dc      	b.n	8005b06 <__lshift+0x52>
 8005b4c:	3904      	subs	r1, #4
 8005b4e:	f853 2b04 	ldr.w	r2, [r3], #4
 8005b52:	f841 2f04 	str.w	r2, [r1, #4]!
 8005b56:	459c      	cmp	ip, r3
 8005b58:	d8f9      	bhi.n	8005b4e <__lshift+0x9a>
 8005b5a:	e7e4      	b.n	8005b26 <__lshift+0x72>

08005b5c <__mcmp>:
 8005b5c:	6903      	ldr	r3, [r0, #16]
 8005b5e:	690a      	ldr	r2, [r1, #16]
 8005b60:	1a9b      	subs	r3, r3, r2
 8005b62:	b530      	push	{r4, r5, lr}
 8005b64:	d10c      	bne.n	8005b80 <__mcmp+0x24>
 8005b66:	0092      	lsls	r2, r2, #2
 8005b68:	3014      	adds	r0, #20
 8005b6a:	3114      	adds	r1, #20
 8005b6c:	1884      	adds	r4, r0, r2
 8005b6e:	4411      	add	r1, r2
 8005b70:	f854 5d04 	ldr.w	r5, [r4, #-4]!
 8005b74:	f851 2d04 	ldr.w	r2, [r1, #-4]!
 8005b78:	4295      	cmp	r5, r2
 8005b7a:	d003      	beq.n	8005b84 <__mcmp+0x28>
 8005b7c:	d305      	bcc.n	8005b8a <__mcmp+0x2e>
 8005b7e:	2301      	movs	r3, #1
 8005b80:	4618      	mov	r0, r3
 8005b82:	bd30      	pop	{r4, r5, pc}
 8005b84:	42a0      	cmp	r0, r4
 8005b86:	d3f3      	bcc.n	8005b70 <__mcmp+0x14>
 8005b88:	e7fa      	b.n	8005b80 <__mcmp+0x24>
 8005b8a:	f04f 33ff 	mov.w	r3, #4294967295
 8005b8e:	e7f7      	b.n	8005b80 <__mcmp+0x24>

08005b90 <__mdiff>:
 8005b90:	e92d 47f0 	stmdb	sp!, {r4, r5, r6, r7, r8, r9, sl, lr}
 8005b94:	460d      	mov	r5, r1
 8005b96:	4607      	mov	r7, r0
 8005b98:	4611      	mov	r1, r2
 8005b9a:	4628      	mov	r0, r5
 8005b9c:	4614      	mov	r4, r2
 8005b9e:	f7ff ffdd 	bl	8005b5c <__mcmp>
 8005ba2:	1e06      	subs	r6, r0, #0
 8005ba4:	d108      	bne.n	8005bb8 <__mdiff+0x28>
 8005ba6:	4631      	mov	r1, r6
 8005ba8:	4638      	mov	r0, r7
 8005baa:	f7ff fdc2 	bl	8005732 <_Balloc>
 8005bae:	2301      	movs	r3, #1
 8005bb0:	e9c0 3604 	strd	r3, r6, [r0, #16]
 8005bb4:	e8bd 87f0 	ldmia.w	sp!, {r4, r5, r6, r7, r8, r9, sl, pc}
 8005bb8:	bfa4      	itt	ge
 8005bba:	4623      	movge	r3, r4
 8005bbc:	462c      	movge	r4, r5
 8005bbe:	4638      	mov	r0, r7
 8005bc0:	6861      	ldr	r1, [r4, #4]
 8005bc2:	bfa6      	itte	ge
 8005bc4:	461d      	movge	r5, r3
 8005bc6:	2600      	movge	r6, #0
 8005bc8:	2601      	movlt	r6, #1
 8005bca:	f7ff fdb2 	bl	8005732 <_Balloc>
 8005bce:	692b      	ldr	r3, [r5, #16]
 8005bd0:	60c6      	str	r6, [r0, #12]
 8005bd2:	6926      	ldr	r6, [r4, #16]
 8005bd4:	f105 0914 	add.w	r9, r5, #20
 8005bd8:	f104 0214 	add.w	r2, r4, #20
 8005bdc:	eb02 0786 	add.w	r7, r2, r6, lsl #2
 8005be0:	eb09 0883 	add.w	r8, r9, r3, lsl #2
 8005be4:	f100 0514 	add.w	r5, r0, #20
 8005be8:	f04f 0e00 	mov.w	lr, #0
 8005bec:	f852 ab04 	ldr.w	sl, [r2], #4
 8005bf0:	f859 4b04 	ldr.w	r4, [r9], #4
 8005bf4:	fa1e f18a 	uxtah	r1, lr, sl
 8005bf8:	b2a3      	uxth	r3, r4
 8005bfa:	1ac9      	subs	r1, r1, r3
 8005bfc:	0c23      	lsrs	r3, r4, #16
 8005bfe:	ebc3 431a 	rsb	r3, r3, sl, lsr #16
 8005c02:	eb03 4321 	add.w	r3, r3, r1, asr #16
 8005c06:	b289      	uxth	r1, r1
 8005c08:	ea4f 4e23 	mov.w	lr, r3, asr #16
 8005c0c:	45c8      	cmp	r8, r9
 8005c0e:	ea41 4303 	orr.w	r3, r1, r3, lsl #16
 8005c12:	4694      	mov	ip, r2
 8005c14:	f845 3b04 	str.w	r3, [r5], #4
 8005c18:	d8e8      	bhi.n	8005bec <__mdiff+0x5c>
 8005c1a:	45bc      	cmp	ip, r7
 8005c1c:	d304      	bcc.n	8005c28 <__mdiff+0x98>
 8005c1e:	f855 3d04 	ldr.w	r3, [r5, #-4]!
 8005c22:	b183      	cbz	r3, 8005c46 <__mdiff+0xb6>
 8005c24:	6106      	str	r6, [r0, #16]
 8005c26:	e7c5      	b.n	8005bb4 <__mdiff+0x24>
 8005c28:	f85c 1b04 	ldr.w	r1, [ip], #4
 8005c2c:	fa1e f381 	uxtah	r3, lr, r1
 8005c30:	141a      	asrs	r2, r3, #16
 8005c32:	eb02 4211 	add.w	r2, r2, r1, lsr #16
 8005c36:	b29b      	uxth	r3, r3
 8005c38:	ea43 4302 	orr.w	r3, r3, r2, lsl #16
 8005c3c:	ea4f 4e22 	mov.w	lr, r2, asr #16
 8005c40:	f845 3b04 	str.w	r3, [r5], #4
 8005c44:	e7e9      	b.n	8005c1a <__mdiff+0x8a>
 8005c46:	3e01      	subs	r6, #1
 8005c48:	e7e9      	b.n	8005c1e <__mdiff+0x8e>

08005c4a <__d2b>:
 8005c4a:	e92d 43f7 	stmdb	sp!, {r0, r1, r2, r4, r5, r6, r7, r8, r9, lr}
 8005c4e:	460e      	mov	r6, r1
 8005c50:	2101      	movs	r1, #1
 8005c52:	ec59 8b10 	vmov	r8, r9, d0
 8005c56:	4615      	mov	r5, r2
 8005c58:	f7ff fd6b 	bl	8005732 <_Balloc>
 8005c5c:	f3c9 540a 	ubfx	r4, r9, #20, #11
 8005c60:	4607      	mov	r7, r0
 8005c62:	f3c9 0313 	ubfx	r3, r9, #0, #20
 8005c66:	bb34      	cbnz	r4, 8005cb6 <__d2b+0x6c>
 8005c68:	9301      	str	r3, [sp, #4]
 8005c6a:	f1b8 0300 	subs.w	r3, r8, #0
 8005c6e:	d027      	beq.n	8005cc0 <__d2b+0x76>
 8005c70:	a802      	add	r0, sp, #8
 8005c72:	f840 3d08 	str.w	r3, [r0, #-8]!
 8005c76:	f7ff fe01 	bl	800587c <__lo0bits>
 8005c7a:	9900      	ldr	r1, [sp, #0]
 8005c7c:	b1f0      	cbz	r0, 8005cbc <__d2b+0x72>
 8005c7e:	9a01      	ldr	r2, [sp, #4]
 8005c80:	f1c0 0320 	rsb	r3, r0, #32
 8005c84:	fa02 f303 	lsl.w	r3, r2, r3
 8005c88:	430b      	orrs	r3, r1
 8005c8a:	40c2      	lsrs	r2, r0
 8005c8c:	617b      	str	r3, [r7, #20]
 8005c8e:	9201      	str	r2, [sp, #4]
 8005c90:	9b01      	ldr	r3, [sp, #4]
 8005c92:	61bb      	str	r3, [r7, #24]
 8005c94:	2b00      	cmp	r3, #0
 8005c96:	bf14      	ite	ne
 8005c98:	2102      	movne	r1, #2
 8005c9a:	2101      	moveq	r1, #1
 8005c9c:	6139      	str	r1, [r7, #16]
 8005c9e:	b1c4      	cbz	r4, 8005cd2 <__d2b+0x88>
 8005ca0:	f2a4 4433 	subw	r4, r4, #1075	; 0x433
 8005ca4:	4404      	add	r4, r0
 8005ca6:	6034      	str	r4, [r6, #0]
 8005ca8:	f1c0 0035 	rsb	r0, r0, #53	; 0x35
 8005cac:	6028      	str	r0, [r5, #0]
 8005cae:	4638      	mov	r0, r7
 8005cb0:	b003      	add	sp, #12
 8005cb2:	e8bd 83f0 	ldmia.w	sp!, {r4, r5, r6, r7, r8, r9, pc}
 8005cb6:	f443 1380 	orr.w	r3, r3, #1048576	; 0x100000
 8005cba:	e7d5      	b.n	8005c68 <__d2b+0x1e>
 8005cbc:	6179      	str	r1, [r7, #20]
 8005cbe:	e7e7      	b.n	8005c90 <__d2b+0x46>
 8005cc0:	a801      	add	r0, sp, #4
 8005cc2:	f7ff fddb 	bl	800587c <__lo0bits>
 8005cc6:	9b01      	ldr	r3, [sp, #4]
 8005cc8:	617b      	str	r3, [r7, #20]
 8005cca:	2101      	movs	r1, #1
 8005ccc:	6139      	str	r1, [r7, #16]
 8005cce:	3020      	adds	r0, #32
 8005cd0:	e7e5      	b.n	8005c9e <__d2b+0x54>
 8005cd2:	eb07 0381 	add.w	r3, r7, r1, lsl #2
 8005cd6:	f2a0 4032 	subw	r0, r0, #1074	; 0x432
 8005cda:	6030      	str	r0, [r6, #0]
 8005cdc:	6918      	ldr	r0, [r3, #16]
 8005cde:	f7ff fdae 	bl	800583e <__hi0bits>
 8005ce2:	ebc0 1041 	rsb	r0, r0, r1, lsl #5
 8005ce6:	e7e1      	b.n	8005cac <__d2b+0x62>

08005ce8 <_calloc_r>:
 8005ce8:	b538      	push	{r3, r4, r5, lr}
 8005cea:	fb02 f401 	mul.w	r4, r2, r1
 8005cee:	4621      	mov	r1, r4
 8005cf0:	f000 f856 	bl	8005da0 <_malloc_r>
 8005cf4:	4605      	mov	r5, r0
 8005cf6:	b118      	cbz	r0, 8005d00 <_calloc_r+0x18>
 8005cf8:	4622      	mov	r2, r4
 8005cfa:	2100      	movs	r1, #0
 8005cfc:	f7fe fa30 	bl	8004160 <memset>
 8005d00:	4628      	mov	r0, r5
 8005d02:	bd38      	pop	{r3, r4, r5, pc}

08005d04 <_free_r>:
 8005d04:	b538      	push	{r3, r4, r5, lr}
 8005d06:	4605      	mov	r5, r0
 8005d08:	2900      	cmp	r1, #0
 8005d0a:	d045      	beq.n	8005d98 <_free_r+0x94>
 8005d0c:	f851 3c04 	ldr.w	r3, [r1, #-4]
 8005d10:	1f0c      	subs	r4, r1, #4
 8005d12:	2b00      	cmp	r3, #0
 8005d14:	bfb8      	it	lt
 8005d16:	18e4      	addlt	r4, r4, r3
 8005d18:	f000 fa29 	bl	800616e <__malloc_lock>
 8005d1c:	4a1f      	ldr	r2, [pc, #124]	; (8005d9c <_free_r+0x98>)
 8005d1e:	6813      	ldr	r3, [r2, #0]
 8005d20:	4610      	mov	r0, r2
 8005d22:	b933      	cbnz	r3, 8005d32 <_free_r+0x2e>
 8005d24:	6063      	str	r3, [r4, #4]
 8005d26:	6014      	str	r4, [r2, #0]
 8005d28:	4628      	mov	r0, r5
 8005d2a:	e8bd 4038 	ldmia.w	sp!, {r3, r4, r5, lr}
 8005d2e:	f000 ba1f 	b.w	8006170 <__malloc_unlock>
 8005d32:	42a3      	cmp	r3, r4
 8005d34:	d90c      	bls.n	8005d50 <_free_r+0x4c>
 8005d36:	6821      	ldr	r1, [r4, #0]
 8005d38:	1862      	adds	r2, r4, r1
 8005d3a:	4293      	cmp	r3, r2
 8005d3c:	bf04      	itt	eq
 8005d3e:	681a      	ldreq	r2, [r3, #0]
 8005d40:	685b      	ldreq	r3, [r3, #4]
 8005d42:	6063      	str	r3, [r4, #4]
 8005d44:	bf04      	itt	eq
 8005d46:	1852      	addeq	r2, r2, r1
 8005d48:	6022      	streq	r2, [r4, #0]
 8005d4a:	6004      	str	r4, [r0, #0]
 8005d4c:	e7ec      	b.n	8005d28 <_free_r+0x24>
 8005d4e:	4613      	mov	r3, r2
 8005d50:	685a      	ldr	r2, [r3, #4]
 8005d52:	b10a      	cbz	r2, 8005d58 <_free_r+0x54>
 8005d54:	42a2      	cmp	r2, r4
 8005d56:	d9fa      	bls.n	8005d4e <_free_r+0x4a>
 8005d58:	6819      	ldr	r1, [r3, #0]
 8005d5a:	1858      	adds	r0, r3, r1
 8005d5c:	42a0      	cmp	r0, r4
 8005d5e:	d10b      	bne.n	8005d78 <_free_r+0x74>
 8005d60:	6820      	ldr	r0, [r4, #0]
 8005d62:	4401      	add	r1, r0
 8005d64:	1858      	adds	r0, r3, r1
 8005d66:	4282      	cmp	r2, r0
 8005d68:	6019      	str	r1, [r3, #0]
 8005d6a:	d1dd      	bne.n	8005d28 <_free_r+0x24>
 8005d6c:	6810      	ldr	r0, [r2, #0]
 8005d6e:	6852      	ldr	r2, [r2, #4]
 8005d70:	605a      	str	r2, [r3, #4]
 8005d72:	4401      	add	r1, r0
 8005d74:	6019      	str	r1, [r3, #0]
 8005d76:	e7d7      	b.n	8005d28 <_free_r+0x24>
 8005d78:	d902      	bls.n	8005d80 <_free_r+0x7c>
 8005d7a:	230c      	movs	r3, #12
 8005d7c:	602b      	str	r3, [r5, #0]
 8005d7e:	e7d3      	b.n	8005d28 <_free_r+0x24>
 8005d80:	6820      	ldr	r0, [r4, #0]
 8005d82:	1821      	adds	r1, r4, r0
 8005d84:	428a      	cmp	r2, r1
 8005d86:	bf04      	itt	eq
 8005d88:	6811      	ldreq	r1, [r2, #0]
 8005d8a:	6852      	ldreq	r2, [r2, #4]
 8005d8c:	6062      	str	r2, [r4, #4]
 8005d8e:	bf04      	itt	eq
 8005d90:	1809      	addeq	r1, r1, r0
 8005d92:	6021      	streq	r1, [r4, #0]
 8005d94:	605c      	str	r4, [r3, #4]
 8005d96:	e7c7      	b.n	8005d28 <_free_r+0x24>
 8005d98:	bd38      	pop	{r3, r4, r5, pc}
 8005d9a:	bf00      	nop
 8005d9c:	20000204 	.word	0x20000204

08005da0 <_malloc_r>:
 8005da0:	b570      	push	{r4, r5, r6, lr}
 8005da2:	1ccd      	adds	r5, r1, #3
 8005da4:	f025 0503 	bic.w	r5, r5, #3
 8005da8:	3508      	adds	r5, #8
 8005daa:	2d0c      	cmp	r5, #12
 8005dac:	bf38      	it	cc
 8005dae:	250c      	movcc	r5, #12
 8005db0:	2d00      	cmp	r5, #0
 8005db2:	4606      	mov	r6, r0
 8005db4:	db01      	blt.n	8005dba <_malloc_r+0x1a>
 8005db6:	42a9      	cmp	r1, r5
 8005db8:	d903      	bls.n	8005dc2 <_malloc_r+0x22>
 8005dba:	230c      	movs	r3, #12
 8005dbc:	6033      	str	r3, [r6, #0]
 8005dbe:	2000      	movs	r0, #0
 8005dc0:	bd70      	pop	{r4, r5, r6, pc}
 8005dc2:	f000 f9d4 	bl	800616e <__malloc_lock>
 8005dc6:	4a21      	ldr	r2, [pc, #132]	; (8005e4c <_malloc_r+0xac>)
 8005dc8:	6814      	ldr	r4, [r2, #0]
 8005dca:	4621      	mov	r1, r4
 8005dcc:	b991      	cbnz	r1, 8005df4 <_malloc_r+0x54>
 8005dce:	4c20      	ldr	r4, [pc, #128]	; (8005e50 <_malloc_r+0xb0>)
 8005dd0:	6823      	ldr	r3, [r4, #0]
 8005dd2:	b91b      	cbnz	r3, 8005ddc <_malloc_r+0x3c>
 8005dd4:	4630      	mov	r0, r6
 8005dd6:	f000 f98f 	bl	80060f8 <_sbrk_r>
 8005dda:	6020      	str	r0, [r4, #0]
 8005ddc:	4629      	mov	r1, r5
 8005dde:	4630      	mov	r0, r6
 8005de0:	f000 f98a 	bl	80060f8 <_sbrk_r>
 8005de4:	1c43      	adds	r3, r0, #1
 8005de6:	d124      	bne.n	8005e32 <_malloc_r+0x92>
 8005de8:	230c      	movs	r3, #12
 8005dea:	6033      	str	r3, [r6, #0]
 8005dec:	4630      	mov	r0, r6
 8005dee:	f000 f9bf 	bl	8006170 <__malloc_unlock>
 8005df2:	e7e4      	b.n	8005dbe <_malloc_r+0x1e>
 8005df4:	680b      	ldr	r3, [r1, #0]
 8005df6:	1b5b      	subs	r3, r3, r5
 8005df8:	d418      	bmi.n	8005e2c <_malloc_r+0x8c>
 8005dfa:	2b0b      	cmp	r3, #11
 8005dfc:	d90f      	bls.n	8005e1e <_malloc_r+0x7e>
 8005dfe:	600b      	str	r3, [r1, #0]
 8005e00:	50cd      	str	r5, [r1, r3]
 8005e02:	18cc      	adds	r4, r1, r3
 8005e04:	4630      	mov	r0, r6
 8005e06:	f000 f9b3 	bl	8006170 <__malloc_unlock>
 8005e0a:	f104 000b 	add.w	r0, r4, #11
 8005e0e:	1d23      	adds	r3, r4, #4
 8005e10:	f020 0007 	bic.w	r0, r0, #7
 8005e14:	1ac3      	subs	r3, r0, r3
 8005e16:	d0d3      	beq.n	8005dc0 <_malloc_r+0x20>
 8005e18:	425a      	negs	r2, r3
 8005e1a:	50e2      	str	r2, [r4, r3]
 8005e1c:	e7d0      	b.n	8005dc0 <_malloc_r+0x20>
 8005e1e:	428c      	cmp	r4, r1
 8005e20:	684b      	ldr	r3, [r1, #4]
 8005e22:	bf16      	itet	ne
 8005e24:	6063      	strne	r3, [r4, #4]
 8005e26:	6013      	streq	r3, [r2, #0]
 8005e28:	460c      	movne	r4, r1
 8005e2a:	e7eb      	b.n	8005e04 <_malloc_r+0x64>
 8005e2c:	460c      	mov	r4, r1
 8005e2e:	6849      	ldr	r1, [r1, #4]
 8005e30:	e7cc      	b.n	8005dcc <_malloc_r+0x2c>
 8005e32:	1cc4      	adds	r4, r0, #3
 8005e34:	f024 0403 	bic.w	r4, r4, #3
 8005e38:	42a0      	cmp	r0, r4
 8005e3a:	d005      	beq.n	8005e48 <_malloc_r+0xa8>
 8005e3c:	1a21      	subs	r1, r4, r0
 8005e3e:	4630      	mov	r0, r6
 8005e40:	f000 f95a 	bl	80060f8 <_sbrk_r>
 8005e44:	3001      	adds	r0, #1
 8005e46:	d0cf      	beq.n	8005de8 <_malloc_r+0x48>
 8005e48:	6025      	str	r5, [r4, #0]
 8005e4a:	e7db      	b.n	8005e04 <_malloc_r+0x64>
 8005e4c:	20000204 	.word	0x20000204
 8005e50:	20000208 	.word	0x20000208

08005e54 <__ssputs_r>:
 8005e54:	e92d 47f0 	stmdb	sp!, {r4, r5, r6, r7, r8, r9, sl, lr}
 8005e58:	688e      	ldr	r6, [r1, #8]
 8005e5a:	429e      	cmp	r6, r3
 8005e5c:	4682      	mov	sl, r0
 8005e5e:	460c      	mov	r4, r1
 8005e60:	4690      	mov	r8, r2
 8005e62:	4699      	mov	r9, r3
 8005e64:	d837      	bhi.n	8005ed6 <__ssputs_r+0x82>
 8005e66:	898a      	ldrh	r2, [r1, #12]
 8005e68:	f412 6f90 	tst.w	r2, #1152	; 0x480
 8005e6c:	d031      	beq.n	8005ed2 <__ssputs_r+0x7e>
 8005e6e:	6825      	ldr	r5, [r4, #0]
 8005e70:	6909      	ldr	r1, [r1, #16]
 8005e72:	1a6f      	subs	r7, r5, r1
 8005e74:	6965      	ldr	r5, [r4, #20]
 8005e76:	2302      	movs	r3, #2
 8005e78:	eb05 0545 	add.w	r5, r5, r5, lsl #1
 8005e7c:	fb95 f5f3 	sdiv	r5, r5, r3
 8005e80:	f109 0301 	add.w	r3, r9, #1
 8005e84:	443b      	add	r3, r7
 8005e86:	429d      	cmp	r5, r3
 8005e88:	bf38      	it	cc
 8005e8a:	461d      	movcc	r5, r3
 8005e8c:	0553      	lsls	r3, r2, #21
 8005e8e:	d530      	bpl.n	8005ef2 <__ssputs_r+0x9e>
 8005e90:	4629      	mov	r1, r5
 8005e92:	f7ff ff85 	bl	8005da0 <_malloc_r>
 8005e96:	4606      	mov	r6, r0
 8005e98:	b950      	cbnz	r0, 8005eb0 <__ssputs_r+0x5c>
 8005e9a:	230c      	movs	r3, #12
 8005e9c:	f8ca 3000 	str.w	r3, [sl]
 8005ea0:	89a3      	ldrh	r3, [r4, #12]
 8005ea2:	f043 0340 	orr.w	r3, r3, #64	; 0x40
 8005ea6:	81a3      	strh	r3, [r4, #12]
 8005ea8:	f04f 30ff 	mov.w	r0, #4294967295
 8005eac:	e8bd 87f0 	ldmia.w	sp!, {r4, r5, r6, r7, r8, r9, sl, pc}
 8005eb0:	463a      	mov	r2, r7
 8005eb2:	6921      	ldr	r1, [r4, #16]
 8005eb4:	f7ff fc32 	bl	800571c <memcpy>
 8005eb8:	89a3      	ldrh	r3, [r4, #12]
 8005eba:	f423 6390 	bic.w	r3, r3, #1152	; 0x480
 8005ebe:	f043 0380 	orr.w	r3, r3, #128	; 0x80
 8005ec2:	81a3      	strh	r3, [r4, #12]
 8005ec4:	6126      	str	r6, [r4, #16]
 8005ec6:	6165      	str	r5, [r4, #20]
 8005ec8:	443e      	add	r6, r7
 8005eca:	1bed      	subs	r5, r5, r7
 8005ecc:	6026      	str	r6, [r4, #0]
 8005ece:	60a5      	str	r5, [r4, #8]
 8005ed0:	464e      	mov	r6, r9
 8005ed2:	454e      	cmp	r6, r9
 8005ed4:	d900      	bls.n	8005ed8 <__ssputs_r+0x84>
 8005ed6:	464e      	mov	r6, r9
 8005ed8:	4632      	mov	r2, r6
 8005eda:	4641      	mov	r1, r8
 8005edc:	6820      	ldr	r0, [r4, #0]
 8005ede:	f000 f92d 	bl	800613c <memmove>
 8005ee2:	68a3      	ldr	r3, [r4, #8]
 8005ee4:	1b9b      	subs	r3, r3, r6
 8005ee6:	60a3      	str	r3, [r4, #8]
 8005ee8:	6823      	ldr	r3, [r4, #0]
 8005eea:	441e      	add	r6, r3
 8005eec:	6026      	str	r6, [r4, #0]
 8005eee:	2000      	movs	r0, #0
 8005ef0:	e7dc      	b.n	8005eac <__ssputs_r+0x58>
 8005ef2:	462a      	mov	r2, r5
 8005ef4:	f000 f93d 	bl	8006172 <_realloc_r>
 8005ef8:	4606      	mov	r6, r0
 8005efa:	2800      	cmp	r0, #0
 8005efc:	d1e2      	bne.n	8005ec4 <__ssputs_r+0x70>
 8005efe:	6921      	ldr	r1, [r4, #16]
 8005f00:	4650      	mov	r0, sl
 8005f02:	f7ff feff 	bl	8005d04 <_free_r>
 8005f06:	e7c8      	b.n	8005e9a <__ssputs_r+0x46>

08005f08 <_svfiprintf_r>:
 8005f08:	e92d 4ff0 	stmdb	sp!, {r4, r5, r6, r7, r8, r9, sl, fp, lr}
 8005f0c:	461d      	mov	r5, r3
 8005f0e:	898b      	ldrh	r3, [r1, #12]
 8005f10:	061f      	lsls	r7, r3, #24
 8005f12:	b09d      	sub	sp, #116	; 0x74
 8005f14:	4680      	mov	r8, r0
 8005f16:	460c      	mov	r4, r1
 8005f18:	4616      	mov	r6, r2
 8005f1a:	d50f      	bpl.n	8005f3c <_svfiprintf_r+0x34>
 8005f1c:	690b      	ldr	r3, [r1, #16]
 8005f1e:	b96b      	cbnz	r3, 8005f3c <_svfiprintf_r+0x34>
 8005f20:	2140      	movs	r1, #64	; 0x40
 8005f22:	f7ff ff3d 	bl	8005da0 <_malloc_r>
 8005f26:	6020      	str	r0, [r4, #0]
 8005f28:	6120      	str	r0, [r4, #16]
 8005f2a:	b928      	cbnz	r0, 8005f38 <_svfiprintf_r+0x30>
 8005f2c:	230c      	movs	r3, #12
 8005f2e:	f8c8 3000 	str.w	r3, [r8]
 8005f32:	f04f 30ff 	mov.w	r0, #4294967295
 8005f36:	e0c8      	b.n	80060ca <_svfiprintf_r+0x1c2>
 8005f38:	2340      	movs	r3, #64	; 0x40
 8005f3a:	6163      	str	r3, [r4, #20]
 8005f3c:	2300      	movs	r3, #0
 8005f3e:	9309      	str	r3, [sp, #36]	; 0x24
 8005f40:	2320      	movs	r3, #32
 8005f42:	f88d 3029 	strb.w	r3, [sp, #41]	; 0x29
 8005f46:	2330      	movs	r3, #48	; 0x30
 8005f48:	f88d 302a 	strb.w	r3, [sp, #42]	; 0x2a
 8005f4c:	9503      	str	r5, [sp, #12]
 8005f4e:	f04f 0b01 	mov.w	fp, #1
 8005f52:	4637      	mov	r7, r6
 8005f54:	463d      	mov	r5, r7
 8005f56:	f815 3b01 	ldrb.w	r3, [r5], #1
 8005f5a:	b10b      	cbz	r3, 8005f60 <_svfiprintf_r+0x58>
 8005f5c:	2b25      	cmp	r3, #37	; 0x25
 8005f5e:	d13e      	bne.n	8005fde <_svfiprintf_r+0xd6>
 8005f60:	ebb7 0a06 	subs.w	sl, r7, r6
 8005f64:	d00b      	beq.n	8005f7e <_svfiprintf_r+0x76>
 8005f66:	4653      	mov	r3, sl
 8005f68:	4632      	mov	r2, r6
 8005f6a:	4621      	mov	r1, r4
 8005f6c:	4640      	mov	r0, r8
 8005f6e:	f7ff ff71 	bl	8005e54 <__ssputs_r>
 8005f72:	3001      	adds	r0, #1
 8005f74:	f000 80a4 	beq.w	80060c0 <_svfiprintf_r+0x1b8>
 8005f78:	9b09      	ldr	r3, [sp, #36]	; 0x24
 8005f7a:	4453      	add	r3, sl
 8005f7c:	9309      	str	r3, [sp, #36]	; 0x24
 8005f7e:	783b      	ldrb	r3, [r7, #0]
 8005f80:	2b00      	cmp	r3, #0
 8005f82:	f000 809d 	beq.w	80060c0 <_svfiprintf_r+0x1b8>
 8005f86:	2300      	movs	r3, #0
 8005f88:	f04f 32ff 	mov.w	r2, #4294967295
 8005f8c:	e9cd 2305 	strd	r2, r3, [sp, #20]
 8005f90:	9304      	str	r3, [sp, #16]
 8005f92:	9307      	str	r3, [sp, #28]
 8005f94:	f88d 3053 	strb.w	r3, [sp, #83]	; 0x53
 8005f98:	931a      	str	r3, [sp, #104]	; 0x68
 8005f9a:	462f      	mov	r7, r5
 8005f9c:	2205      	movs	r2, #5
 8005f9e:	f817 1b01 	ldrb.w	r1, [r7], #1
 8005fa2:	4850      	ldr	r0, [pc, #320]	; (80060e4 <_svfiprintf_r+0x1dc>)
 8005fa4:	f7fa f93c 	bl	8000220 <memchr>
 8005fa8:	9b04      	ldr	r3, [sp, #16]
 8005faa:	b9d0      	cbnz	r0, 8005fe2 <_svfiprintf_r+0xda>
 8005fac:	06d9      	lsls	r1, r3, #27
 8005fae:	bf44      	itt	mi
 8005fb0:	2220      	movmi	r2, #32
 8005fb2:	f88d 2053 	strbmi.w	r2, [sp, #83]	; 0x53
 8005fb6:	071a      	lsls	r2, r3, #28
 8005fb8:	bf44      	itt	mi
 8005fba:	222b      	movmi	r2, #43	; 0x2b
 8005fbc:	f88d 2053 	strbmi.w	r2, [sp, #83]	; 0x53
 8005fc0:	782a      	ldrb	r2, [r5, #0]
 8005fc2:	2a2a      	cmp	r2, #42	; 0x2a
 8005fc4:	d015      	beq.n	8005ff2 <_svfiprintf_r+0xea>
 8005fc6:	9a07      	ldr	r2, [sp, #28]
 8005fc8:	462f      	mov	r7, r5
 8005fca:	2000      	movs	r0, #0
 8005fcc:	250a      	movs	r5, #10
 8005fce:	4639      	mov	r1, r7
 8005fd0:	f811 3b01 	ldrb.w	r3, [r1], #1
 8005fd4:	3b30      	subs	r3, #48	; 0x30
 8005fd6:	2b09      	cmp	r3, #9
 8005fd8:	d94d      	bls.n	8006076 <_svfiprintf_r+0x16e>
 8005fda:	b1b8      	cbz	r0, 800600c <_svfiprintf_r+0x104>
 8005fdc:	e00f      	b.n	8005ffe <_svfiprintf_r+0xf6>
 8005fde:	462f      	mov	r7, r5
 8005fe0:	e7b8      	b.n	8005f54 <_svfiprintf_r+0x4c>
 8005fe2:	4a40      	ldr	r2, [pc, #256]	; (80060e4 <_svfiprintf_r+0x1dc>)
 8005fe4:	1a80      	subs	r0, r0, r2
 8005fe6:	fa0b f000 	lsl.w	r0, fp, r0
 8005fea:	4318      	orrs	r0, r3
 8005fec:	9004      	str	r0, [sp, #16]
 8005fee:	463d      	mov	r5, r7
 8005ff0:	e7d3      	b.n	8005f9a <_svfiprintf_r+0x92>
 8005ff2:	9a03      	ldr	r2, [sp, #12]
 8005ff4:	1d11      	adds	r1, r2, #4
 8005ff6:	6812      	ldr	r2, [r2, #0]
 8005ff8:	9103      	str	r1, [sp, #12]
 8005ffa:	2a00      	cmp	r2, #0
 8005ffc:	db01      	blt.n	8006002 <_svfiprintf_r+0xfa>
 8005ffe:	9207      	str	r2, [sp, #28]
 8006000:	e004      	b.n	800600c <_svfiprintf_r+0x104>
 8006002:	4252      	negs	r2, r2
 8006004:	f043 0302 	orr.w	r3, r3, #2
 8006008:	9207      	str	r2, [sp, #28]
 800600a:	9304      	str	r3, [sp, #16]
 800600c:	783b      	ldrb	r3, [r7, #0]
 800600e:	2b2e      	cmp	r3, #46	; 0x2e
 8006010:	d10c      	bne.n	800602c <_svfiprintf_r+0x124>
 8006012:	787b      	ldrb	r3, [r7, #1]
 8006014:	2b2a      	cmp	r3, #42	; 0x2a
 8006016:	d133      	bne.n	8006080 <_svfiprintf_r+0x178>
 8006018:	9b03      	ldr	r3, [sp, #12]
 800601a:	1d1a      	adds	r2, r3, #4
 800601c:	681b      	ldr	r3, [r3, #0]
 800601e:	9203      	str	r2, [sp, #12]
 8006020:	2b00      	cmp	r3, #0
 8006022:	bfb8      	it	lt
 8006024:	f04f 33ff 	movlt.w	r3, #4294967295
 8006028:	3702      	adds	r7, #2
 800602a:	9305      	str	r3, [sp, #20]
 800602c:	4d2e      	ldr	r5, [pc, #184]	; (80060e8 <_svfiprintf_r+0x1e0>)
 800602e:	7839      	ldrb	r1, [r7, #0]
 8006030:	2203      	movs	r2, #3
 8006032:	4628      	mov	r0, r5
 8006034:	f7fa f8f4 	bl	8000220 <memchr>
 8006038:	b138      	cbz	r0, 800604a <_svfiprintf_r+0x142>
 800603a:	2340      	movs	r3, #64	; 0x40
 800603c:	1b40      	subs	r0, r0, r5
 800603e:	fa03 f000 	lsl.w	r0, r3, r0
 8006042:	9b04      	ldr	r3, [sp, #16]
 8006044:	4303      	orrs	r3, r0
 8006046:	3701      	adds	r7, #1
 8006048:	9304      	str	r3, [sp, #16]
 800604a:	7839      	ldrb	r1, [r7, #0]
 800604c:	4827      	ldr	r0, [pc, #156]	; (80060ec <_svfiprintf_r+0x1e4>)
 800604e:	f88d 1028 	strb.w	r1, [sp, #40]	; 0x28
 8006052:	2206      	movs	r2, #6
 8006054:	1c7e      	adds	r6, r7, #1
 8006056:	f7fa f8e3 	bl	8000220 <memchr>
 800605a:	2800      	cmp	r0, #0
 800605c:	d038      	beq.n	80060d0 <_svfiprintf_r+0x1c8>
 800605e:	4b24      	ldr	r3, [pc, #144]	; (80060f0 <_svfiprintf_r+0x1e8>)
 8006060:	bb13      	cbnz	r3, 80060a8 <_svfiprintf_r+0x1a0>
 8006062:	9b03      	ldr	r3, [sp, #12]
 8006064:	3307      	adds	r3, #7
 8006066:	f023 0307 	bic.w	r3, r3, #7
 800606a:	3308      	adds	r3, #8
 800606c:	9303      	str	r3, [sp, #12]
 800606e:	9b09      	ldr	r3, [sp, #36]	; 0x24
 8006070:	444b      	add	r3, r9
 8006072:	9309      	str	r3, [sp, #36]	; 0x24
 8006074:	e76d      	b.n	8005f52 <_svfiprintf_r+0x4a>
 8006076:	fb05 3202 	mla	r2, r5, r2, r3
 800607a:	2001      	movs	r0, #1
 800607c:	460f      	mov	r7, r1
 800607e:	e7a6      	b.n	8005fce <_svfiprintf_r+0xc6>
 8006080:	2300      	movs	r3, #0
 8006082:	3701      	adds	r7, #1
 8006084:	9305      	str	r3, [sp, #20]
 8006086:	4619      	mov	r1, r3
 8006088:	250a      	movs	r5, #10
 800608a:	4638      	mov	r0, r7
 800608c:	f810 2b01 	ldrb.w	r2, [r0], #1
 8006090:	3a30      	subs	r2, #48	; 0x30
 8006092:	2a09      	cmp	r2, #9
 8006094:	d903      	bls.n	800609e <_svfiprintf_r+0x196>
 8006096:	2b00      	cmp	r3, #0
 8006098:	d0c8      	beq.n	800602c <_svfiprintf_r+0x124>
 800609a:	9105      	str	r1, [sp, #20]
 800609c:	e7c6      	b.n	800602c <_svfiprintf_r+0x124>
 800609e:	fb05 2101 	mla	r1, r5, r1, r2
 80060a2:	2301      	movs	r3, #1
 80060a4:	4607      	mov	r7, r0
 80060a6:	e7f0      	b.n	800608a <_svfiprintf_r+0x182>
 80060a8:	ab03      	add	r3, sp, #12
 80060aa:	9300      	str	r3, [sp, #0]
 80060ac:	4622      	mov	r2, r4
 80060ae:	4b11      	ldr	r3, [pc, #68]	; (80060f4 <_svfiprintf_r+0x1ec>)
 80060b0:	a904      	add	r1, sp, #16
 80060b2:	4640      	mov	r0, r8
 80060b4:	f7fe f8f0 	bl	8004298 <_printf_float>
 80060b8:	f1b0 3fff 	cmp.w	r0, #4294967295
 80060bc:	4681      	mov	r9, r0
 80060be:	d1d6      	bne.n	800606e <_svfiprintf_r+0x166>
 80060c0:	89a3      	ldrh	r3, [r4, #12]
 80060c2:	065b      	lsls	r3, r3, #25
 80060c4:	f53f af35 	bmi.w	8005f32 <_svfiprintf_r+0x2a>
 80060c8:	9809      	ldr	r0, [sp, #36]	; 0x24
 80060ca:	b01d      	add	sp, #116	; 0x74
 80060cc:	e8bd 8ff0 	ldmia.w	sp!, {r4, r5, r6, r7, r8, r9, sl, fp, pc}
 80060d0:	ab03      	add	r3, sp, #12
 80060d2:	9300      	str	r3, [sp, #0]
 80060d4:	4622      	mov	r2, r4
 80060d6:	4b07      	ldr	r3, [pc, #28]	; (80060f4 <_svfiprintf_r+0x1ec>)
 80060d8:	a904      	add	r1, sp, #16
 80060da:	4640      	mov	r0, r8
 80060dc:	f7fe fb92 	bl	8004804 <_printf_i>
 80060e0:	e7ea      	b.n	80060b8 <_svfiprintf_r+0x1b0>
 80060e2:	bf00      	nop
 80060e4:	08006364 	.word	0x08006364
 80060e8:	0800636a 	.word	0x0800636a
 80060ec:	0800636e 	.word	0x0800636e
 80060f0:	08004299 	.word	0x08004299
 80060f4:	08005e55 	.word	0x08005e55

080060f8 <_sbrk_r>:
 80060f8:	b538      	push	{r3, r4, r5, lr}
 80060fa:	4c06      	ldr	r4, [pc, #24]	; (8006114 <_sbrk_r+0x1c>)
 80060fc:	2300      	movs	r3, #0
 80060fe:	4605      	mov	r5, r0
 8006100:	4608      	mov	r0, r1
 8006102:	6023      	str	r3, [r4, #0]
 8006104:	f7fb fac2 	bl	800168c <_sbrk>
 8006108:	1c43      	adds	r3, r0, #1
 800610a:	d102      	bne.n	8006112 <_sbrk_r+0x1a>
 800610c:	6823      	ldr	r3, [r4, #0]
 800610e:	b103      	cbz	r3, 8006112 <_sbrk_r+0x1a>
 8006110:	602b      	str	r3, [r5, #0]
 8006112:	bd38      	pop	{r3, r4, r5, pc}
 8006114:	2000c2f8 	.word	0x2000c2f8

08006118 <__ascii_mbtowc>:
 8006118:	b082      	sub	sp, #8
 800611a:	b901      	cbnz	r1, 800611e <__ascii_mbtowc+0x6>
 800611c:	a901      	add	r1, sp, #4
 800611e:	b142      	cbz	r2, 8006132 <__ascii_mbtowc+0x1a>
 8006120:	b14b      	cbz	r3, 8006136 <__ascii_mbtowc+0x1e>
 8006122:	7813      	ldrb	r3, [r2, #0]
 8006124:	600b      	str	r3, [r1, #0]
 8006126:	7812      	ldrb	r2, [r2, #0]
 8006128:	1c10      	adds	r0, r2, #0
 800612a:	bf18      	it	ne
 800612c:	2001      	movne	r0, #1
 800612e:	b002      	add	sp, #8
 8006130:	4770      	bx	lr
 8006132:	4610      	mov	r0, r2
 8006134:	e7fb      	b.n	800612e <__ascii_mbtowc+0x16>
 8006136:	f06f 0001 	mvn.w	r0, #1
 800613a:	e7f8      	b.n	800612e <__ascii_mbtowc+0x16>

0800613c <memmove>:
 800613c:	4288      	cmp	r0, r1
 800613e:	b510      	push	{r4, lr}
 8006140:	eb01 0302 	add.w	r3, r1, r2
 8006144:	d807      	bhi.n	8006156 <memmove+0x1a>
 8006146:	1e42      	subs	r2, r0, #1
 8006148:	4299      	cmp	r1, r3
 800614a:	d00a      	beq.n	8006162 <memmove+0x26>
 800614c:	f811 4b01 	ldrb.w	r4, [r1], #1
 8006150:	f802 4f01 	strb.w	r4, [r2, #1]!
 8006154:	e7f8      	b.n	8006148 <memmove+0xc>
 8006156:	4283      	cmp	r3, r0
 8006158:	d9f5      	bls.n	8006146 <memmove+0xa>
 800615a:	1881      	adds	r1, r0, r2
 800615c:	1ad2      	subs	r2, r2, r3
 800615e:	42d3      	cmn	r3, r2
 8006160:	d100      	bne.n	8006164 <memmove+0x28>
 8006162:	bd10      	pop	{r4, pc}
 8006164:	f813 4d01 	ldrb.w	r4, [r3, #-1]!
 8006168:	f801 4d01 	strb.w	r4, [r1, #-1]!
 800616c:	e7f7      	b.n	800615e <memmove+0x22>

0800616e <__malloc_lock>:
 800616e:	4770      	bx	lr

08006170 <__malloc_unlock>:
 8006170:	4770      	bx	lr

08006172 <_realloc_r>:
 8006172:	b5f8      	push	{r3, r4, r5, r6, r7, lr}
 8006174:	4607      	mov	r7, r0
 8006176:	4614      	mov	r4, r2
 8006178:	460e      	mov	r6, r1
 800617a:	b921      	cbnz	r1, 8006186 <_realloc_r+0x14>
 800617c:	4611      	mov	r1, r2
 800617e:	e8bd 40f8 	ldmia.w	sp!, {r3, r4, r5, r6, r7, lr}
 8006182:	f7ff be0d 	b.w	8005da0 <_malloc_r>
 8006186:	b922      	cbnz	r2, 8006192 <_realloc_r+0x20>
 8006188:	f7ff fdbc 	bl	8005d04 <_free_r>
 800618c:	4625      	mov	r5, r4
 800618e:	4628      	mov	r0, r5
 8006190:	bdf8      	pop	{r3, r4, r5, r6, r7, pc}
 8006192:	f000 f821 	bl	80061d8 <_malloc_usable_size_r>
 8006196:	42a0      	cmp	r0, r4
 8006198:	d20f      	bcs.n	80061ba <_realloc_r+0x48>
 800619a:	4621      	mov	r1, r4
 800619c:	4638      	mov	r0, r7
 800619e:	f7ff fdff 	bl	8005da0 <_malloc_r>
 80061a2:	4605      	mov	r5, r0
 80061a4:	2800      	cmp	r0, #0
 80061a6:	d0f2      	beq.n	800618e <_realloc_r+0x1c>
 80061a8:	4631      	mov	r1, r6
 80061aa:	4622      	mov	r2, r4
 80061ac:	f7ff fab6 	bl	800571c <memcpy>
 80061b0:	4631      	mov	r1, r6
 80061b2:	4638      	mov	r0, r7
 80061b4:	f7ff fda6 	bl	8005d04 <_free_r>
 80061b8:	e7e9      	b.n	800618e <_realloc_r+0x1c>
 80061ba:	4635      	mov	r5, r6
 80061bc:	e7e7      	b.n	800618e <_realloc_r+0x1c>

080061be <__ascii_wctomb>:
 80061be:	b149      	cbz	r1, 80061d4 <__ascii_wctomb+0x16>
 80061c0:	2aff      	cmp	r2, #255	; 0xff
 80061c2:	bf85      	ittet	hi
 80061c4:	238a      	movhi	r3, #138	; 0x8a
 80061c6:	6003      	strhi	r3, [r0, #0]
 80061c8:	700a      	strbls	r2, [r1, #0]
 80061ca:	f04f 30ff 	movhi.w	r0, #4294967295
 80061ce:	bf98      	it	ls
 80061d0:	2001      	movls	r0, #1
 80061d2:	4770      	bx	lr
 80061d4:	4608      	mov	r0, r1
 80061d6:	4770      	bx	lr

080061d8 <_malloc_usable_size_r>:
 80061d8:	f851 3c04 	ldr.w	r3, [r1, #-4]
 80061dc:	1f18      	subs	r0, r3, #4
 80061de:	2b00      	cmp	r3, #0
 80061e0:	bfbc      	itt	lt
 80061e2:	580b      	ldrlt	r3, [r1, r0]
 80061e4:	18c0      	addlt	r0, r0, r3
 80061e6:	4770      	bx	lr

080061e8 <_init>:
 80061e8:	b5f8      	push	{r3, r4, r5, r6, r7, lr}
 80061ea:	bf00      	nop
 80061ec:	bcf8      	pop	{r3, r4, r5, r6, r7}
 80061ee:	bc08      	pop	{r3}
 80061f0:	469e      	mov	lr, r3
 80061f2:	4770      	bx	lr

080061f4 <_fini>:
 80061f4:	b5f8      	push	{r3, r4, r5, r6, r7, lr}
 80061f6:	bf00      	nop
 80061f8:	bcf8      	pop	{r3, r4, r5, r6, r7}
 80061fa:	bc08      	pop	{r3}
 80061fc:	469e      	mov	lr, r3
 80061fe:	4770      	bx	lr
