
Laser_ADC_F446.elf:     file format elf32-littlearm

Sections:
Idx Name          Size      VMA       LMA       File off  Algn
  0 .isr_vector   000001c4  08000000  08000000  00010000  2**0
                  CONTENTS, ALLOC, LOAD, READONLY, DATA
  1 .text         000061e8  080001d0  080001d0  000101d0  2**4
                  CONTENTS, ALLOC, LOAD, READONLY, CODE
  2 .rodata       00000280  080063b8  080063b8  000163b8  2**3
                  CONTENTS, ALLOC, LOAD, READONLY, DATA
  3 .ARM.extab    00000000  08006638  08006638  000201dc  2**0
                  CONTENTS
  4 .ARM          00000008  08006638  08006638  00016638  2**2
                  CONTENTS, ALLOC, LOAD, READONLY, DATA
  5 .preinit_array 00000000  08006640  08006640  000201dc  2**0
                  CONTENTS, ALLOC, LOAD, DATA
  6 .init_array   00000004  08006640  08006640  00016640  2**2
                  CONTENTS, ALLOC, LOAD, DATA
  7 .fini_array   00000004  08006644  08006644  00016644  2**2
                  CONTENTS, ALLOC, LOAD, DATA
  8 .data         000001dc  20000000  08006648  00020000  2**2
                  CONTENTS, ALLOC, LOAD, DATA
  9 .bss          000139e4  200001dc  08006824  000201dc  2**2
                  ALLOC
 10 ._user_heap_stack 00000600  20013bc0  08006824  00023bc0  2**0
                  ALLOC
 11 .ARM.attributes 00000030  00000000  00000000  000201dc  2**0
                  CONTENTS, READONLY
 12 .debug_info   00009da2  00000000  00000000  0002020c  2**0
                  CONTENTS, READONLY, DEBUGGING
 13 .debug_abbrev 00001b12  00000000  00000000  00029fae  2**0
                  CONTENTS, READONLY, DEBUGGING
 14 .debug_aranges 00000878  00000000  00000000  0002bac0  2**3
                  CONTENTS, READONLY, DEBUGGING
 15 .debug_ranges 00000790  00000000  00000000  0002c338  2**3
                  CONTENTS, READONLY, DEBUGGING
 16 .debug_macro  00021c51  00000000  00000000  0002cac8  2**0
                  CONTENTS, READONLY, DEBUGGING
 17 .debug_line   00008873  00000000  00000000  0004e719  2**0
                  CONTENTS, READONLY, DEBUGGING
 18 .debug_str    000ccf6e  00000000  00000000  00056f8c  2**0
                  CONTENTS, READONLY, DEBUGGING
 19 .comment      0000007b  00000000  00000000  00123efa  2**0
                  CONTENTS, READONLY
 20 .debug_frame  00002b70  00000000  00000000  00123f78  2**2
                  CONTENTS, READONLY, DEBUGGING

Disassembly of section .text:

080001d0 <__do_global_dtors_aux>:
 80001d0:	b510      	push	{r4, lr}
 80001d2:	4c05      	ldr	r4, [pc, #20]	; (80001e8 <__do_global_dtors_aux+0x18>)
 80001d4:	7823      	ldrb	r3, [r4, #0]
 80001d6:	b933      	cbnz	r3, 80001e6 <__do_global_dtors_aux+0x16>
 80001d8:	4b04      	ldr	r3, [pc, #16]	; (80001ec <__do_global_dtors_aux+0x1c>)
 80001da:	b113      	cbz	r3, 80001e2 <__do_global_dtors_aux+0x12>
 80001dc:	4804      	ldr	r0, [pc, #16]	; (80001f0 <__do_global_dtors_aux+0x20>)
 80001de:	f3af 8000 	nop.w
 80001e2:	2301      	movs	r3, #1
 80001e4:	7023      	strb	r3, [r4, #0]
 80001e6:	bd10      	pop	{r4, pc}
 80001e8:	200001dc 	.word	0x200001dc
 80001ec:	00000000 	.word	0x00000000
 80001f0:	080063a0 	.word	0x080063a0

080001f4 <frame_dummy>:
 80001f4:	b508      	push	{r3, lr}
 80001f6:	4b03      	ldr	r3, [pc, #12]	; (8000204 <frame_dummy+0x10>)
 80001f8:	b11b      	cbz	r3, 8000202 <frame_dummy+0xe>
 80001fa:	4903      	ldr	r1, [pc, #12]	; (8000208 <frame_dummy+0x14>)
 80001fc:	4803      	ldr	r0, [pc, #12]	; (800020c <frame_dummy+0x18>)
 80001fe:	f3af 8000 	nop.w
 8000202:	bd08      	pop	{r3, pc}
 8000204:	00000000 	.word	0x00000000
 8000208:	200001e0 	.word	0x200001e0
 800020c:	080063a0 	.word	0x080063a0

08000210 <strlen>:
 8000210:	4603      	mov	r3, r0
 8000212:	f813 2b01 	ldrb.w	r2, [r3], #1
 8000216:	2a00      	cmp	r2, #0
 8000218:	d1fb      	bne.n	8000212 <strlen+0x2>
 800021a:	1a18      	subs	r0, r3, r0
 800021c:	3801      	subs	r0, #1
 800021e:	4770      	bx	lr

08000220 <memchr>:
 8000220:	f001 01ff 	and.w	r1, r1, #255	; 0xff
 8000224:	2a10      	cmp	r2, #16
 8000226:	db2b      	blt.n	8000280 <memchr+0x60>
 8000228:	f010 0f07 	tst.w	r0, #7
 800022c:	d008      	beq.n	8000240 <memchr+0x20>
 800022e:	f810 3b01 	ldrb.w	r3, [r0], #1
 8000232:	3a01      	subs	r2, #1
 8000234:	428b      	cmp	r3, r1
 8000236:	d02d      	beq.n	8000294 <memchr+0x74>
 8000238:	f010 0f07 	tst.w	r0, #7
 800023c:	b342      	cbz	r2, 8000290 <memchr+0x70>
 800023e:	d1f6      	bne.n	800022e <memchr+0xe>
 8000240:	b4f0      	push	{r4, r5, r6, r7}
 8000242:	ea41 2101 	orr.w	r1, r1, r1, lsl #8
 8000246:	ea41 4101 	orr.w	r1, r1, r1, lsl #16
 800024a:	f022 0407 	bic.w	r4, r2, #7
 800024e:	f07f 0700 	mvns.w	r7, #0
 8000252:	2300      	movs	r3, #0
 8000254:	e8f0 5602 	ldrd	r5, r6, [r0], #8
 8000258:	3c08      	subs	r4, #8
 800025a:	ea85 0501 	eor.w	r5, r5, r1
 800025e:	ea86 0601 	eor.w	r6, r6, r1
 8000262:	fa85 f547 	uadd8	r5, r5, r7
 8000266:	faa3 f587 	sel	r5, r3, r7
 800026a:	fa86 f647 	uadd8	r6, r6, r7
 800026e:	faa5 f687 	sel	r6, r5, r7
 8000272:	b98e      	cbnz	r6, 8000298 <memchr+0x78>
 8000274:	d1ee      	bne.n	8000254 <memchr+0x34>
 8000276:	bcf0      	pop	{r4, r5, r6, r7}
 8000278:	f001 01ff 	and.w	r1, r1, #255	; 0xff
 800027c:	f002 0207 	and.w	r2, r2, #7
 8000280:	b132      	cbz	r2, 8000290 <memchr+0x70>
 8000282:	f810 3b01 	ldrb.w	r3, [r0], #1
 8000286:	3a01      	subs	r2, #1
 8000288:	ea83 0301 	eor.w	r3, r3, r1
 800028c:	b113      	cbz	r3, 8000294 <memchr+0x74>
 800028e:	d1f8      	bne.n	8000282 <memchr+0x62>
 8000290:	2000      	movs	r0, #0
 8000292:	4770      	bx	lr
 8000294:	3801      	subs	r0, #1
 8000296:	4770      	bx	lr
 8000298:	2d00      	cmp	r5, #0
 800029a:	bf06      	itte	eq
 800029c:	4635      	moveq	r5, r6
 800029e:	3803      	subeq	r0, #3
 80002a0:	3807      	subne	r0, #7
 80002a2:	f015 0f01 	tst.w	r5, #1
 80002a6:	d107      	bne.n	80002b8 <memchr+0x98>
 80002a8:	3001      	adds	r0, #1
 80002aa:	f415 7f80 	tst.w	r5, #256	; 0x100
 80002ae:	bf02      	ittt	eq
 80002b0:	3001      	addeq	r0, #1
 80002b2:	f415 3fc0 	tsteq.w	r5, #98304	; 0x18000
 80002b6:	3001      	addeq	r0, #1
 80002b8:	bcf0      	pop	{r4, r5, r6, r7}
 80002ba:	3801      	subs	r0, #1
 80002bc:	4770      	bx	lr
 80002be:	bf00      	nop

080002c0 <__aeabi_drsub>:
 80002c0:	f081 4100 	eor.w	r1, r1, #2147483648	; 0x80000000
 80002c4:	e002      	b.n	80002cc <__adddf3>
 80002c6:	bf00      	nop

080002c8 <__aeabi_dsub>:
 80002c8:	f083 4300 	eor.w	r3, r3, #2147483648	; 0x80000000

080002cc <__adddf3>:
 80002cc:	b530      	push	{r4, r5, lr}
 80002ce:	ea4f 0441 	mov.w	r4, r1, lsl #1
 80002d2:	ea4f 0543 	mov.w	r5, r3, lsl #1
 80002d6:	ea94 0f05 	teq	r4, r5
 80002da:	bf08      	it	eq
 80002dc:	ea90 0f02 	teqeq	r0, r2
 80002e0:	bf1f      	itttt	ne
 80002e2:	ea54 0c00 	orrsne.w	ip, r4, r0
 80002e6:	ea55 0c02 	orrsne.w	ip, r5, r2
 80002ea:	ea7f 5c64 	mvnsne.w	ip, r4, asr #21
 80002ee:	ea7f 5c65 	mvnsne.w	ip, r5, asr #21
 80002f2:	f000 80e2 	beq.w	80004ba <__adddf3+0x1ee>
 80002f6:	ea4f 5454 	mov.w	r4, r4, lsr #21
 80002fa:	ebd4 5555 	rsbs	r5, r4, r5, lsr #21
 80002fe:	bfb8      	it	lt
 8000300:	426d      	neglt	r5, r5
 8000302:	dd0c      	ble.n	800031e <__adddf3+0x52>
 8000304:	442c      	add	r4, r5
 8000306:	ea80 0202 	eor.w	r2, r0, r2
 800030a:	ea81 0303 	eor.w	r3, r1, r3
 800030e:	ea82 0000 	eor.w	r0, r2, r0
 8000312:	ea83 0101 	eor.w	r1, r3, r1
 8000316:	ea80 0202 	eor.w	r2, r0, r2
 800031a:	ea81 0303 	eor.w	r3, r1, r3
 800031e:	2d36      	cmp	r5, #54	; 0x36
 8000320:	bf88      	it	hi
 8000322:	bd30      	pophi	{r4, r5, pc}
 8000324:	f011 4f00 	tst.w	r1, #2147483648	; 0x80000000
 8000328:	ea4f 3101 	mov.w	r1, r1, lsl #12
 800032c:	f44f 1c80 	mov.w	ip, #1048576	; 0x100000
 8000330:	ea4c 3111 	orr.w	r1, ip, r1, lsr #12
 8000334:	d002      	beq.n	800033c <__adddf3+0x70>
 8000336:	4240      	negs	r0, r0
 8000338:	eb61 0141 	sbc.w	r1, r1, r1, lsl #1
 800033c:	f013 4f00 	tst.w	r3, #2147483648	; 0x80000000
 8000340:	ea4f 3303 	mov.w	r3, r3, lsl #12
 8000344:	ea4c 3313 	orr.w	r3, ip, r3, lsr #12
 8000348:	d002      	beq.n	8000350 <__adddf3+0x84>
 800034a:	4252      	negs	r2, r2
 800034c:	eb63 0343 	sbc.w	r3, r3, r3, lsl #1
 8000350:	ea94 0f05 	teq	r4, r5
 8000354:	f000 80a7 	beq.w	80004a6 <__adddf3+0x1da>
 8000358:	f1a4 0401 	sub.w	r4, r4, #1
 800035c:	f1d5 0e20 	rsbs	lr, r5, #32
 8000360:	db0d      	blt.n	800037e <__adddf3+0xb2>
 8000362:	fa02 fc0e 	lsl.w	ip, r2, lr
 8000366:	fa22 f205 	lsr.w	r2, r2, r5
 800036a:	1880      	adds	r0, r0, r2
 800036c:	f141 0100 	adc.w	r1, r1, #0
 8000370:	fa03 f20e 	lsl.w	r2, r3, lr
 8000374:	1880      	adds	r0, r0, r2
 8000376:	fa43 f305 	asr.w	r3, r3, r5
 800037a:	4159      	adcs	r1, r3
 800037c:	e00e      	b.n	800039c <__adddf3+0xd0>
 800037e:	f1a5 0520 	sub.w	r5, r5, #32
 8000382:	f10e 0e20 	add.w	lr, lr, #32
 8000386:	2a01      	cmp	r2, #1
 8000388:	fa03 fc0e 	lsl.w	ip, r3, lr
 800038c:	bf28      	it	cs
 800038e:	f04c 0c02 	orrcs.w	ip, ip, #2
 8000392:	fa43 f305 	asr.w	r3, r3, r5
 8000396:	18c0      	adds	r0, r0, r3
 8000398:	eb51 71e3 	adcs.w	r1, r1, r3, asr #31
 800039c:	f001 4500 	and.w	r5, r1, #2147483648	; 0x80000000
 80003a0:	d507      	bpl.n	80003b2 <__adddf3+0xe6>
 80003a2:	f04f 0e00 	mov.w	lr, #0
 80003a6:	f1dc 0c00 	rsbs	ip, ip, #0
 80003aa:	eb7e 0000 	sbcs.w	r0, lr, r0
 80003ae:	eb6e 0101 	sbc.w	r1, lr, r1
 80003b2:	f5b1 1f80 	cmp.w	r1, #1048576	; 0x100000
 80003b6:	d31b      	bcc.n	80003f0 <__adddf3+0x124>
 80003b8:	f5b1 1f00 	cmp.w	r1, #2097152	; 0x200000
 80003bc:	d30c      	bcc.n	80003d8 <__adddf3+0x10c>
 80003be:	0849      	lsrs	r1, r1, #1
 80003c0:	ea5f 0030 	movs.w	r0, r0, rrx
 80003c4:	ea4f 0c3c 	mov.w	ip, ip, rrx
 80003c8:	f104 0401 	add.w	r4, r4, #1
 80003cc:	ea4f 5244 	mov.w	r2, r4, lsl #21
 80003d0:	f512 0f80 	cmn.w	r2, #4194304	; 0x400000
 80003d4:	f080 809a 	bcs.w	800050c <__adddf3+0x240>
 80003d8:	f1bc 4f00 	cmp.w	ip, #2147483648	; 0x80000000
 80003dc:	bf08      	it	eq
 80003de:	ea5f 0c50 	movseq.w	ip, r0, lsr #1
 80003e2:	f150 0000 	adcs.w	r0, r0, #0
 80003e6:	eb41 5104 	adc.w	r1, r1, r4, lsl #20
 80003ea:	ea41 0105 	orr.w	r1, r1, r5
 80003ee:	bd30      	pop	{r4, r5, pc}
 80003f0:	ea5f 0c4c 	movs.w	ip, ip, lsl #1
 80003f4:	4140      	adcs	r0, r0
 80003f6:	eb41 0101 	adc.w	r1, r1, r1
 80003fa:	f411 1f80 	tst.w	r1, #1048576	; 0x100000
 80003fe:	f1a4 0401 	sub.w	r4, r4, #1
 8000402:	d1e9      	bne.n	80003d8 <__adddf3+0x10c>
 8000404:	f091 0f00 	teq	r1, #0
 8000408:	bf04      	itt	eq
 800040a:	4601      	moveq	r1, r0
 800040c:	2000      	moveq	r0, #0
 800040e:	fab1 f381 	clz	r3, r1
 8000412:	bf08      	it	eq
 8000414:	3320      	addeq	r3, #32
 8000416:	f1a3 030b 	sub.w	r3, r3, #11
 800041a:	f1b3 0220 	subs.w	r2, r3, #32
 800041e:	da0c      	bge.n	800043a <__adddf3+0x16e>
 8000420:	320c      	adds	r2, #12
 8000422:	dd08      	ble.n	8000436 <__adddf3+0x16a>
 8000424:	f102 0c14 	add.w	ip, r2, #20
 8000428:	f1c2 020c 	rsb	r2, r2, #12
 800042c:	fa01 f00c 	lsl.w	r0, r1, ip
 8000430:	fa21 f102 	lsr.w	r1, r1, r2
 8000434:	e00c      	b.n	8000450 <__adddf3+0x184>
 8000436:	f102 0214 	add.w	r2, r2, #20
 800043a:	bfd8      	it	le
 800043c:	f1c2 0c20 	rsble	ip, r2, #32
 8000440:	fa01 f102 	lsl.w	r1, r1, r2
 8000444:	fa20 fc0c 	lsr.w	ip, r0, ip
 8000448:	bfdc      	itt	le
 800044a:	ea41 010c 	orrle.w	r1, r1, ip
 800044e:	4090      	lslle	r0, r2
 8000450:	1ae4      	subs	r4, r4, r3
 8000452:	bfa2      	ittt	ge
 8000454:	eb01 5104 	addge.w	r1, r1, r4, lsl #20
 8000458:	4329      	orrge	r1, r5
 800045a:	bd30      	popge	{r4, r5, pc}
 800045c:	ea6f 0404 	mvn.w	r4, r4
 8000460:	3c1f      	subs	r4, #31
 8000462:	da1c      	bge.n	800049e <__adddf3+0x1d2>
 8000464:	340c      	adds	r4, #12
 8000466:	dc0e      	bgt.n	8000486 <__adddf3+0x1ba>
 8000468:	f104 0414 	add.w	r4, r4, #20
 800046c:	f1c4 0220 	rsb	r2, r4, #32
 8000470:	fa20 f004 	lsr.w	r0, r0, r4
 8000474:	fa01 f302 	lsl.w	r3, r1, r2
 8000478:	ea40 0003 	orr.w	r0, r0, r3
 800047c:	fa21 f304 	lsr.w	r3, r1, r4
 8000480:	ea45 0103 	orr.w	r1, r5, r3
 8000484:	bd30      	pop	{r4, r5, pc}
 8000486:	f1c4 040c 	rsb	r4, r4, #12
 800048a:	f1c4 0220 	rsb	r2, r4, #32
 800048e:	fa20 f002 	lsr.w	r0, r0, r2
 8000492:	fa01 f304 	lsl.w	r3, r1, r4
 8000496:	ea40 0003 	orr.w	r0, r0, r3
 800049a:	4629      	mov	r1, r5
 800049c:	bd30      	pop	{r4, r5, pc}
 800049e:	fa21 f004 	lsr.w	r0, r1, r4
 80004a2:	4629      	mov	r1, r5
 80004a4:	bd30      	pop	{r4, r5, pc}
 80004a6:	f094 0f00 	teq	r4, #0
 80004aa:	f483 1380 	eor.w	r3, r3, #1048576	; 0x100000
 80004ae:	bf06      	itte	eq
 80004b0:	f481 1180 	eoreq.w	r1, r1, #1048576	; 0x100000
 80004b4:	3401      	addeq	r4, #1
 80004b6:	3d01      	subne	r5, #1
 80004b8:	e74e      	b.n	8000358 <__adddf3+0x8c>
 80004ba:	ea7f 5c64 	mvns.w	ip, r4, asr #21
 80004be:	bf18      	it	ne
 80004c0:	ea7f 5c65 	mvnsne.w	ip, r5, asr #21
 80004c4:	d029      	beq.n	800051a <__adddf3+0x24e>
 80004c6:	ea94 0f05 	teq	r4, r5
 80004ca:	bf08      	it	eq
 80004cc:	ea90 0f02 	teqeq	r0, r2
 80004d0:	d005      	beq.n	80004de <__adddf3+0x212>
 80004d2:	ea54 0c00 	orrs.w	ip, r4, r0
 80004d6:	bf04      	itt	eq
 80004d8:	4619      	moveq	r1, r3
 80004da:	4610      	moveq	r0, r2
 80004dc:	bd30      	pop	{r4, r5, pc}
 80004de:	ea91 0f03 	teq	r1, r3
 80004e2:	bf1e      	ittt	ne
 80004e4:	2100      	movne	r1, #0
 80004e6:	2000      	movne	r0, #0
 80004e8:	bd30      	popne	{r4, r5, pc}
 80004ea:	ea5f 5c54 	movs.w	ip, r4, lsr #21
 80004ee:	d105      	bne.n	80004fc <__adddf3+0x230>
 80004f0:	0040      	lsls	r0, r0, #1
 80004f2:	4149      	adcs	r1, r1
 80004f4:	bf28      	it	cs
 80004f6:	f041 4100 	orrcs.w	r1, r1, #2147483648	; 0x80000000
 80004fa:	bd30      	pop	{r4, r5, pc}
 80004fc:	f514 0480 	adds.w	r4, r4, #4194304	; 0x400000
 8000500:	bf3c      	itt	cc
 8000502:	f501 1180 	addcc.w	r1, r1, #1048576	; 0x100000
 8000506:	bd30      	popcc	{r4, r5, pc}
 8000508:	f001 4500 	and.w	r5, r1, #2147483648	; 0x80000000
 800050c:	f045 41fe 	orr.w	r1, r5, #2130706432	; 0x7f000000
 8000510:	f441 0170 	orr.w	r1, r1, #15728640	; 0xf00000
 8000514:	f04f 0000 	mov.w	r0, #0
 8000518:	bd30      	pop	{r4, r5, pc}
 800051a:	ea7f 5c64 	mvns.w	ip, r4, asr #21
 800051e:	bf1a      	itte	ne
 8000520:	4619      	movne	r1, r3
 8000522:	4610      	movne	r0, r2
 8000524:	ea7f 5c65 	mvnseq.w	ip, r5, asr #21
 8000528:	bf1c      	itt	ne
 800052a:	460b      	movne	r3, r1
 800052c:	4602      	movne	r2, r0
 800052e:	ea50 3401 	orrs.w	r4, r0, r1, lsl #12
 8000532:	bf06      	itte	eq
 8000534:	ea52 3503 	orrseq.w	r5, r2, r3, lsl #12
 8000538:	ea91 0f03 	teqeq	r1, r3
 800053c:	f441 2100 	orrne.w	r1, r1, #524288	; 0x80000
 8000540:	bd30      	pop	{r4, r5, pc}
 8000542:	bf00      	nop

08000544 <__aeabi_ui2d>:
 8000544:	f090 0f00 	teq	r0, #0
 8000548:	bf04      	itt	eq
 800054a:	2100      	moveq	r1, #0
 800054c:	4770      	bxeq	lr
 800054e:	b530      	push	{r4, r5, lr}
 8000550:	f44f 6480 	mov.w	r4, #1024	; 0x400
 8000554:	f104 0432 	add.w	r4, r4, #50	; 0x32
 8000558:	f04f 0500 	mov.w	r5, #0
 800055c:	f04f 0100 	mov.w	r1, #0
 8000560:	e750      	b.n	8000404 <__adddf3+0x138>
 8000562:	bf00      	nop

08000564 <__aeabi_i2d>:
 8000564:	f090 0f00 	teq	r0, #0
 8000568:	bf04      	itt	eq
 800056a:	2100      	moveq	r1, #0
 800056c:	4770      	bxeq	lr
 800056e:	b530      	push	{r4, r5, lr}
 8000570:	f44f 6480 	mov.w	r4, #1024	; 0x400
 8000574:	f104 0432 	add.w	r4, r4, #50	; 0x32
 8000578:	f010 4500 	ands.w	r5, r0, #2147483648	; 0x80000000
 800057c:	bf48      	it	mi
 800057e:	4240      	negmi	r0, r0
 8000580:	f04f 0100 	mov.w	r1, #0
 8000584:	e73e      	b.n	8000404 <__adddf3+0x138>
 8000586:	bf00      	nop

08000588 <__aeabi_f2d>:
 8000588:	0042      	lsls	r2, r0, #1
 800058a:	ea4f 01e2 	mov.w	r1, r2, asr #3
 800058e:	ea4f 0131 	mov.w	r1, r1, rrx
 8000592:	ea4f 7002 	mov.w	r0, r2, lsl #28
 8000596:	bf1f      	itttt	ne
 8000598:	f012 437f 	andsne.w	r3, r2, #4278190080	; 0xff000000
 800059c:	f093 4f7f 	teqne	r3, #4278190080	; 0xff000000
 80005a0:	f081 5160 	eorne.w	r1, r1, #939524096	; 0x38000000
 80005a4:	4770      	bxne	lr
 80005a6:	f032 427f 	bics.w	r2, r2, #4278190080	; 0xff000000
 80005aa:	bf08      	it	eq
 80005ac:	4770      	bxeq	lr
 80005ae:	f093 4f7f 	teq	r3, #4278190080	; 0xff000000
 80005b2:	bf04      	itt	eq
 80005b4:	f441 2100 	orreq.w	r1, r1, #524288	; 0x80000
 80005b8:	4770      	bxeq	lr
 80005ba:	b530      	push	{r4, r5, lr}
 80005bc:	f44f 7460 	mov.w	r4, #896	; 0x380
 80005c0:	f001 4500 	and.w	r5, r1, #2147483648	; 0x80000000
 80005c4:	f021 4100 	bic.w	r1, r1, #2147483648	; 0x80000000
 80005c8:	e71c      	b.n	8000404 <__adddf3+0x138>
 80005ca:	bf00      	nop

080005cc <__aeabi_ul2d>:
 80005cc:	ea50 0201 	orrs.w	r2, r0, r1
 80005d0:	bf08      	it	eq
 80005d2:	4770      	bxeq	lr
 80005d4:	b530      	push	{r4, r5, lr}
 80005d6:	f04f 0500 	mov.w	r5, #0
 80005da:	e00a      	b.n	80005f2 <__aeabi_l2d+0x16>

080005dc <__aeabi_l2d>:
 80005dc:	ea50 0201 	orrs.w	r2, r0, r1
 80005e0:	bf08      	it	eq
 80005e2:	4770      	bxeq	lr
 80005e4:	b530      	push	{r4, r5, lr}
 80005e6:	f011 4500 	ands.w	r5, r1, #2147483648	; 0x80000000
 80005ea:	d502      	bpl.n	80005f2 <__aeabi_l2d+0x16>
 80005ec:	4240      	negs	r0, r0
 80005ee:	eb61 0141 	sbc.w	r1, r1, r1, lsl #1
 80005f2:	f44f 6480 	mov.w	r4, #1024	; 0x400
 80005f6:	f104 0432 	add.w	r4, r4, #50	; 0x32
 80005fa:	ea5f 5c91 	movs.w	ip, r1, lsr #22
 80005fe:	f43f aed8 	beq.w	80003b2 <__adddf3+0xe6>
 8000602:	f04f 0203 	mov.w	r2, #3
 8000606:	ea5f 0cdc 	movs.w	ip, ip, lsr #3
 800060a:	bf18      	it	ne
 800060c:	3203      	addne	r2, #3
 800060e:	ea5f 0cdc 	movs.w	ip, ip, lsr #3
 8000612:	bf18      	it	ne
 8000614:	3203      	addne	r2, #3
 8000616:	eb02 02dc 	add.w	r2, r2, ip, lsr #3
 800061a:	f1c2 0320 	rsb	r3, r2, #32
 800061e:	fa00 fc03 	lsl.w	ip, r0, r3
 8000622:	fa20 f002 	lsr.w	r0, r0, r2
 8000626:	fa01 fe03 	lsl.w	lr, r1, r3
 800062a:	ea40 000e 	orr.w	r0, r0, lr
 800062e:	fa21 f102 	lsr.w	r1, r1, r2
 8000632:	4414      	add	r4, r2
 8000634:	e6bd      	b.n	80003b2 <__adddf3+0xe6>
 8000636:	bf00      	nop

08000638 <__aeabi_dmul>:
 8000638:	b570      	push	{r4, r5, r6, lr}
 800063a:	f04f 0cff 	mov.w	ip, #255	; 0xff
 800063e:	f44c 6ce0 	orr.w	ip, ip, #1792	; 0x700
 8000642:	ea1c 5411 	ands.w	r4, ip, r1, lsr #20
 8000646:	bf1d      	ittte	ne
 8000648:	ea1c 5513 	andsne.w	r5, ip, r3, lsr #20
 800064c:	ea94 0f0c 	teqne	r4, ip
 8000650:	ea95 0f0c 	teqne	r5, ip
 8000654:	f000 f8de 	bleq	8000814 <__aeabi_dmul+0x1dc>
 8000658:	442c      	add	r4, r5
 800065a:	ea81 0603 	eor.w	r6, r1, r3
 800065e:	ea21 514c 	bic.w	r1, r1, ip, lsl #21
 8000662:	ea23 534c 	bic.w	r3, r3, ip, lsl #21
 8000666:	ea50 3501 	orrs.w	r5, r0, r1, lsl #12
 800066a:	bf18      	it	ne
 800066c:	ea52 3503 	orrsne.w	r5, r2, r3, lsl #12
 8000670:	f441 1180 	orr.w	r1, r1, #1048576	; 0x100000
 8000674:	f443 1380 	orr.w	r3, r3, #1048576	; 0x100000
 8000678:	d038      	beq.n	80006ec <__aeabi_dmul+0xb4>
 800067a:	fba0 ce02 	umull	ip, lr, r0, r2
 800067e:	f04f 0500 	mov.w	r5, #0
 8000682:	fbe1 e502 	umlal	lr, r5, r1, r2
 8000686:	f006 4200 	and.w	r2, r6, #2147483648	; 0x80000000
 800068a:	fbe0 e503 	umlal	lr, r5, r0, r3
 800068e:	f04f 0600 	mov.w	r6, #0
 8000692:	fbe1 5603 	umlal	r5, r6, r1, r3
 8000696:	f09c 0f00 	teq	ip, #0
 800069a:	bf18      	it	ne
 800069c:	f04e 0e01 	orrne.w	lr, lr, #1
 80006a0:	f1a4 04ff 	sub.w	r4, r4, #255	; 0xff
 80006a4:	f5b6 7f00 	cmp.w	r6, #512	; 0x200
 80006a8:	f564 7440 	sbc.w	r4, r4, #768	; 0x300
 80006ac:	d204      	bcs.n	80006b8 <__aeabi_dmul+0x80>
 80006ae:	ea5f 0e4e 	movs.w	lr, lr, lsl #1
 80006b2:	416d      	adcs	r5, r5
 80006b4:	eb46 0606 	adc.w	r6, r6, r6
 80006b8:	ea42 21c6 	orr.w	r1, r2, r6, lsl #11
 80006bc:	ea41 5155 	orr.w	r1, r1, r5, lsr #21
 80006c0:	ea4f 20c5 	mov.w	r0, r5, lsl #11
 80006c4:	ea40 505e 	orr.w	r0, r0, lr, lsr #21
 80006c8:	ea4f 2ece 	mov.w	lr, lr, lsl #11
 80006cc:	f1b4 0cfd 	subs.w	ip, r4, #253	; 0xfd
 80006d0:	bf88      	it	hi
 80006d2:	f5bc 6fe0 	cmphi.w	ip, #1792	; 0x700
 80006d6:	d81e      	bhi.n	8000716 <__aeabi_dmul+0xde>
 80006d8:	f1be 4f00 	cmp.w	lr, #2147483648	; 0x80000000
 80006dc:	bf08      	it	eq
 80006de:	ea5f 0e50 	movseq.w	lr, r0, lsr #1
 80006e2:	f150 0000 	adcs.w	r0, r0, #0
 80006e6:	eb41 5104 	adc.w	r1, r1, r4, lsl #20
 80006ea:	bd70      	pop	{r4, r5, r6, pc}
 80006ec:	f006 4600 	and.w	r6, r6, #2147483648	; 0x80000000
 80006f0:	ea46 0101 	orr.w	r1, r6, r1
 80006f4:	ea40 0002 	orr.w	r0, r0, r2
 80006f8:	ea81 0103 	eor.w	r1, r1, r3
 80006fc:	ebb4 045c 	subs.w	r4, r4, ip, lsr #1
 8000700:	bfc2      	ittt	gt
 8000702:	ebd4 050c 	rsbsgt	r5, r4, ip
 8000706:	ea41 5104 	orrgt.w	r1, r1, r4, lsl #20
 800070a:	bd70      	popgt	{r4, r5, r6, pc}
 800070c:	f441 1180 	orr.w	r1, r1, #1048576	; 0x100000
 8000710:	f04f 0e00 	mov.w	lr, #0
 8000714:	3c01      	subs	r4, #1
 8000716:	f300 80ab 	bgt.w	8000870 <__aeabi_dmul+0x238>
 800071a:	f114 0f36 	cmn.w	r4, #54	; 0x36
 800071e:	bfde      	ittt	le
 8000720:	2000      	movle	r0, #0
 8000722:	f001 4100 	andle.w	r1, r1, #2147483648	; 0x80000000
 8000726:	bd70      	pople	{r4, r5, r6, pc}
 8000728:	f1c4 0400 	rsb	r4, r4, #0
 800072c:	3c20      	subs	r4, #32
 800072e:	da35      	bge.n	800079c <__aeabi_dmul+0x164>
 8000730:	340c      	adds	r4, #12
 8000732:	dc1b      	bgt.n	800076c <__aeabi_dmul+0x134>
 8000734:	f104 0414 	add.w	r4, r4, #20
 8000738:	f1c4 0520 	rsb	r5, r4, #32
 800073c:	fa00 f305 	lsl.w	r3, r0, r5
 8000740:	fa20 f004 	lsr.w	r0, r0, r4
 8000744:	fa01 f205 	lsl.w	r2, r1, r5
 8000748:	ea40 0002 	orr.w	r0, r0, r2
 800074c:	f001 4200 	and.w	r2, r1, #2147483648	; 0x80000000
 8000750:	f021 4100 	bic.w	r1, r1, #2147483648	; 0x80000000
 8000754:	eb10 70d3 	adds.w	r0, r0, r3, lsr #31
 8000758:	fa21 f604 	lsr.w	r6, r1, r4
 800075c:	eb42 0106 	adc.w	r1, r2, r6
 8000760:	ea5e 0e43 	orrs.w	lr, lr, r3, lsl #1
 8000764:	bf08      	it	eq
 8000766:	ea20 70d3 	biceq.w	r0, r0, r3, lsr #31
 800076a:	bd70      	pop	{r4, r5, r6, pc}
 800076c:	f1c4 040c 	rsb	r4, r4, #12
 8000770:	f1c4 0520 	rsb	r5, r4, #32
 8000774:	fa00 f304 	lsl.w	r3, r0, r4
 8000778:	fa20 f005 	lsr.w	r0, r0, r5
 800077c:	fa01 f204 	lsl.w	r2, r1, r4
 8000780:	ea40 0002 	orr.w	r0, r0, r2
 8000784:	f001 4100 	and.w	r1, r1, #2147483648	; 0x80000000
 8000788:	eb10 70d3 	adds.w	r0, r0, r3, lsr #31
 800078c:	f141 0100 	adc.w	r1, r1, #0
 8000790:	ea5e 0e43 	orrs.w	lr, lr, r3, lsl #1
 8000794:	bf08      	it	eq
 8000796:	ea20 70d3 	biceq.w	r0, r0, r3, lsr #31
 800079a:	bd70      	pop	{r4, r5, r6, pc}
 800079c:	f1c4 0520 	rsb	r5, r4, #32
 80007a0:	fa00 f205 	lsl.w	r2, r0, r5
 80007a4:	ea4e 0e02 	orr.w	lr, lr, r2
 80007a8:	fa20 f304 	lsr.w	r3, r0, r4
 80007ac:	fa01 f205 	lsl.w	r2, r1, r5
 80007b0:	ea43 0302 	orr.w	r3, r3, r2
 80007b4:	fa21 f004 	lsr.w	r0, r1, r4
 80007b8:	f001 4100 	and.w	r1, r1, #2147483648	; 0x80000000
 80007bc:	fa21 f204 	lsr.w	r2, r1, r4
 80007c0:	ea20 0002 	bic.w	r0, r0, r2
 80007c4:	eb00 70d3 	add.w	r0, r0, r3, lsr #31
 80007c8:	ea5e 0e43 	orrs.w	lr, lr, r3, lsl #1
 80007cc:	bf08      	it	eq
 80007ce:	ea20 70d3 	biceq.w	r0, r0, r3, lsr #31
 80007d2:	bd70      	pop	{r4, r5, r6, pc}
 80007d4:	f094 0f00 	teq	r4, #0
 80007d8:	d10f      	bne.n	80007fa <__aeabi_dmul+0x1c2>
 80007da:	f001 4600 	and.w	r6, r1, #2147483648	; 0x80000000
 80007de:	0040      	lsls	r0, r0, #1
 80007e0:	eb41 0101 	adc.w	r1, r1, r1
 80007e4:	f411 1f80 	tst.w	r1, #1048576	; 0x100000
 80007e8:	bf08      	it	eq
 80007ea:	3c01      	subeq	r4, #1
 80007ec:	d0f7      	beq.n	80007de <__aeabi_dmul+0x1a6>
 80007ee:	ea41 0106 	orr.w	r1, r1, r6
 80007f2:	f095 0f00 	teq	r5, #0
 80007f6:	bf18      	it	ne
 80007f8:	4770      	bxne	lr
 80007fa:	f003 4600 	and.w	r6, r3, #2147483648	; 0x80000000
 80007fe:	0052      	lsls	r2, r2, #1
 8000800:	eb43 0303 	adc.w	r3, r3, r3
 8000804:	f413 1f80 	tst.w	r3, #1048576	; 0x100000
 8000808:	bf08      	it	eq
 800080a:	3d01      	subeq	r5, #1
 800080c:	d0f7      	beq.n	80007fe <__aeabi_dmul+0x1c6>
 800080e:	ea43 0306 	orr.w	r3, r3, r6
 8000812:	4770      	bx	lr
 8000814:	ea94 0f0c 	teq	r4, ip
 8000818:	ea0c 5513 	and.w	r5, ip, r3, lsr #20
 800081c:	bf18      	it	ne
 800081e:	ea95 0f0c 	teqne	r5, ip
 8000822:	d00c      	beq.n	800083e <__aeabi_dmul+0x206>
 8000824:	ea50 0641 	orrs.w	r6, r0, r1, lsl #1
 8000828:	bf18      	it	ne
 800082a:	ea52 0643 	orrsne.w	r6, r2, r3, lsl #1
 800082e:	d1d1      	bne.n	80007d4 <__aeabi_dmul+0x19c>
 8000830:	ea81 0103 	eor.w	r1, r1, r3
 8000834:	f001 4100 	and.w	r1, r1, #2147483648	; 0x80000000
 8000838:	f04f 0000 	mov.w	r0, #0
 800083c:	bd70      	pop	{r4, r5, r6, pc}
 800083e:	ea50 0641 	orrs.w	r6, r0, r1, lsl #1
 8000842:	bf06      	itte	eq
 8000844:	4610      	moveq	r0, r2
 8000846:	4619      	moveq	r1, r3
 8000848:	ea52 0643 	orrsne.w	r6, r2, r3, lsl #1
 800084c:	d019      	beq.n	8000882 <__aeabi_dmul+0x24a>
 800084e:	ea94 0f0c 	teq	r4, ip
 8000852:	d102      	bne.n	800085a <__aeabi_dmul+0x222>
 8000854:	ea50 3601 	orrs.w	r6, r0, r1, lsl #12
 8000858:	d113      	bne.n	8000882 <__aeabi_dmul+0x24a>
 800085a:	ea95 0f0c 	teq	r5, ip
 800085e:	d105      	bne.n	800086c <__aeabi_dmul+0x234>
 8000860:	ea52 3603 	orrs.w	r6, r2, r3, lsl #12
 8000864:	bf1c      	itt	ne
 8000866:	4610      	movne	r0, r2
 8000868:	4619      	movne	r1, r3
 800086a:	d10a      	bne.n	8000882 <__aeabi_dmul+0x24a>
 800086c:	ea81 0103 	eor.w	r1, r1, r3
 8000870:	f001 4100 	and.w	r1, r1, #2147483648	; 0x80000000
 8000874:	f041 41fe 	orr.w	r1, r1, #2130706432	; 0x7f000000
 8000878:	f441 0170 	orr.w	r1, r1, #15728640	; 0xf00000
 800087c:	f04f 0000 	mov.w	r0, #0
 8000880:	bd70      	pop	{r4, r5, r6, pc}
 8000882:	f041 41fe 	orr.w	r1, r1, #2130706432	; 0x7f000000
 8000886:	f441 0178 	orr.w	r1, r1, #16252928	; 0xf80000
 800088a:	bd70      	pop	{r4, r5, r6, pc}

0800088c <__aeabi_ddiv>:
 800088c:	b570      	push	{r4, r5, r6, lr}
 800088e:	f04f 0cff 	mov.w	ip, #255	; 0xff
 8000892:	f44c 6ce0 	orr.w	ip, ip, #1792	; 0x700
 8000896:	ea1c 5411 	ands.w	r4, ip, r1, lsr #20
 800089a:	bf1d      	ittte	ne
 800089c:	ea1c 5513 	andsne.w	r5, ip, r3, lsr #20
 80008a0:	ea94 0f0c 	teqne	r4, ip
 80008a4:	ea95 0f0c 	teqne	r5, ip
 80008a8:	f000 f8a7 	bleq	80009fa <__aeabi_ddiv+0x16e>
 80008ac:	eba4 0405 	sub.w	r4, r4, r5
 80008b0:	ea81 0e03 	eor.w	lr, r1, r3
 80008b4:	ea52 3503 	orrs.w	r5, r2, r3, lsl #12
 80008b8:	ea4f 3101 	mov.w	r1, r1, lsl #12
 80008bc:	f000 8088 	beq.w	80009d0 <__aeabi_ddiv+0x144>
 80008c0:	ea4f 3303 	mov.w	r3, r3, lsl #12
 80008c4:	f04f 5580 	mov.w	r5, #268435456	; 0x10000000
 80008c8:	ea45 1313 	orr.w	r3, r5, r3, lsr #4
 80008cc:	ea43 6312 	orr.w	r3, r3, r2, lsr #24
 80008d0:	ea4f 2202 	mov.w	r2, r2, lsl #8
 80008d4:	ea45 1511 	orr.w	r5, r5, r1, lsr #4
 80008d8:	ea45 6510 	orr.w	r5, r5, r0, lsr #24
 80008dc:	ea4f 2600 	mov.w	r6, r0, lsl #8
 80008e0:	f00e 4100 	and.w	r1, lr, #2147483648	; 0x80000000
 80008e4:	429d      	cmp	r5, r3
 80008e6:	bf08      	it	eq
 80008e8:	4296      	cmpeq	r6, r2
 80008ea:	f144 04fd 	adc.w	r4, r4, #253	; 0xfd
 80008ee:	f504 7440 	add.w	r4, r4, #768	; 0x300
 80008f2:	d202      	bcs.n	80008fa <__aeabi_ddiv+0x6e>
 80008f4:	085b      	lsrs	r3, r3, #1
 80008f6:	ea4f 0232 	mov.w	r2, r2, rrx
 80008fa:	1ab6      	subs	r6, r6, r2
 80008fc:	eb65 0503 	sbc.w	r5, r5, r3
 8000900:	085b      	lsrs	r3, r3, #1
 8000902:	ea4f 0232 	mov.w	r2, r2, rrx
 8000906:	f44f 1080 	mov.w	r0, #1048576	; 0x100000
 800090a:	f44f 2c00 	mov.w	ip, #524288	; 0x80000
 800090e:	ebb6 0e02 	subs.w	lr, r6, r2
 8000912:	eb75 0e03 	sbcs.w	lr, r5, r3
 8000916:	bf22      	ittt	cs
 8000918:	1ab6      	subcs	r6, r6, r2
 800091a:	4675      	movcs	r5, lr
 800091c:	ea40 000c 	orrcs.w	r0, r0, ip
 8000920:	085b      	lsrs	r3, r3, #1
 8000922:	ea4f 0232 	mov.w	r2, r2, rrx
 8000926:	ebb6 0e02 	subs.w	lr, r6, r2
 800092a:	eb75 0e03 	sbcs.w	lr, r5, r3
 800092e:	bf22      	ittt	cs
 8000930:	1ab6      	subcs	r6, r6, r2
 8000932:	4675      	movcs	r5, lr
 8000934:	ea40 005c 	orrcs.w	r0, r0, ip, lsr #1
 8000938:	085b      	lsrs	r3, r3, #1
 800093a:	ea4f 0232 	mov.w	r2, r2, rrx
 800093e:	ebb6 0e02 	subs.w	lr, r6, r2
 8000942:	eb75 0e03 	sbcs.w	lr, r5, r3
 8000946:	bf22      	ittt	cs
 8000948:	1ab6      	subcs	r6, r6, r2
 800094a:	4675      	movcs	r5, lr
 800094c:	ea40 009c 	orrcs.w	r0, r0, ip, lsr #2
 8000950:	085b      	lsrs	r3, r3, #1
 8000952:	ea4f 0232 	mov.w	r2, r2, rrx
 8000956:	ebb6 0e02 	subs.w	lr, r6, r2
 800095a:	eb75 0e03 	sbcs.w	lr, r5, r3
 800095e:	bf22      	ittt	cs
 8000960:	1ab6      	subcs	r6, r6, r2
 8000962:	4675      	movcs	r5, lr
 8000964:	ea40 00dc 	orrcs.w	r0, r0, ip, lsr #3
 8000968:	ea55 0e06 	orrs.w	lr, r5, r6
 800096c:	d018      	beq.n	80009a0 <__aeabi_ddiv+0x114>
 800096e:	ea4f 1505 	mov.w	r5, r5, lsl #4
 8000972:	ea45 7516 	orr.w	r5, r5, r6, lsr #28
 8000976:	ea4f 1606 	mov.w	r6, r6, lsl #4
 800097a:	ea4f 03c3 	mov.w	r3, r3, lsl #3
 800097e:	ea43 7352 	orr.w	r3, r3, r2, lsr #29
 8000982:	ea4f 02c2 	mov.w	r2, r2, lsl #3
 8000986:	ea5f 1c1c 	movs.w	ip, ip, lsr #4
 800098a:	d1c0      	bne.n	800090e <__aeabi_ddiv+0x82>
 800098c:	f411 1f80 	tst.w	r1, #1048576	; 0x100000
 8000990:	d10b      	bne.n	80009aa <__aeabi_ddiv+0x11e>
 8000992:	ea41 0100 	orr.w	r1, r1, r0
 8000996:	f04f 0000 	mov.w	r0, #0
 800099a:	f04f 4c00 	mov.w	ip, #2147483648	; 0x80000000
 800099e:	e7b6      	b.n	800090e <__aeabi_ddiv+0x82>
 80009a0:	f411 1f80 	tst.w	r1, #1048576	; 0x100000
 80009a4:	bf04      	itt	eq
 80009a6:	4301      	orreq	r1, r0
 80009a8:	2000      	moveq	r0, #0
 80009aa:	f1b4 0cfd 	subs.w	ip, r4, #253	; 0xfd
 80009ae:	bf88      	it	hi
 80009b0:	f5bc 6fe0 	cmphi.w	ip, #1792	; 0x700
 80009b4:	f63f aeaf 	bhi.w	8000716 <__aeabi_dmul+0xde>
 80009b8:	ebb5 0c03 	subs.w	ip, r5, r3
 80009bc:	bf04      	itt	eq
 80009be:	ebb6 0c02 	subseq.w	ip, r6, r2
 80009c2:	ea5f 0c50 	movseq.w	ip, r0, lsr #1
 80009c6:	f150 0000 	adcs.w	r0, r0, #0
 80009ca:	eb41 5104 	adc.w	r1, r1, r4, lsl #20
 80009ce:	bd70      	pop	{r4, r5, r6, pc}
 80009d0:	f00e 4e00 	and.w	lr, lr, #2147483648	; 0x80000000
 80009d4:	ea4e 3111 	orr.w	r1, lr, r1, lsr #12
 80009d8:	eb14 045c 	adds.w	r4, r4, ip, lsr #1
 80009dc:	bfc2      	ittt	gt
 80009de:	ebd4 050c 	rsbsgt	r5, r4, ip
 80009e2:	ea41 5104 	orrgt.w	r1, r1, r4, lsl #20
 80009e6:	bd70      	popgt	{r4, r5, r6, pc}
 80009e8:	f441 1180 	orr.w	r1, r1, #1048576	; 0x100000
 80009ec:	f04f 0e00 	mov.w	lr, #0
 80009f0:	3c01      	subs	r4, #1
 80009f2:	e690      	b.n	8000716 <__aeabi_dmul+0xde>
 80009f4:	ea45 0e06 	orr.w	lr, r5, r6
 80009f8:	e68d      	b.n	8000716 <__aeabi_dmul+0xde>
 80009fa:	ea0c 5513 	and.w	r5, ip, r3, lsr #20
 80009fe:	ea94 0f0c 	teq	r4, ip
 8000a02:	bf08      	it	eq
 8000a04:	ea95 0f0c 	teqeq	r5, ip
 8000a08:	f43f af3b 	beq.w	8000882 <__aeabi_dmul+0x24a>
 8000a0c:	ea94 0f0c 	teq	r4, ip
 8000a10:	d10a      	bne.n	8000a28 <__aeabi_ddiv+0x19c>
 8000a12:	ea50 3401 	orrs.w	r4, r0, r1, lsl #12
 8000a16:	f47f af34 	bne.w	8000882 <__aeabi_dmul+0x24a>
 8000a1a:	ea95 0f0c 	teq	r5, ip
 8000a1e:	f47f af25 	bne.w	800086c <__aeabi_dmul+0x234>
 8000a22:	4610      	mov	r0, r2
 8000a24:	4619      	mov	r1, r3
 8000a26:	e72c      	b.n	8000882 <__aeabi_dmul+0x24a>
 8000a28:	ea95 0f0c 	teq	r5, ip
 8000a2c:	d106      	bne.n	8000a3c <__aeabi_ddiv+0x1b0>
 8000a2e:	ea52 3503 	orrs.w	r5, r2, r3, lsl #12
 8000a32:	f43f aefd 	beq.w	8000830 <__aeabi_dmul+0x1f8>
 8000a36:	4610      	mov	r0, r2
 8000a38:	4619      	mov	r1, r3
 8000a3a:	e722      	b.n	8000882 <__aeabi_dmul+0x24a>
 8000a3c:	ea50 0641 	orrs.w	r6, r0, r1, lsl #1
 8000a40:	bf18      	it	ne
 8000a42:	ea52 0643 	orrsne.w	r6, r2, r3, lsl #1
 8000a46:	f47f aec5 	bne.w	80007d4 <__aeabi_dmul+0x19c>
 8000a4a:	ea50 0441 	orrs.w	r4, r0, r1, lsl #1
 8000a4e:	f47f af0d 	bne.w	800086c <__aeabi_dmul+0x234>
 8000a52:	ea52 0543 	orrs.w	r5, r2, r3, lsl #1
 8000a56:	f47f aeeb 	bne.w	8000830 <__aeabi_dmul+0x1f8>
 8000a5a:	e712      	b.n	8000882 <__aeabi_dmul+0x24a>

08000a5c <__gedf2>:
 8000a5c:	f04f 3cff 	mov.w	ip, #4294967295
 8000a60:	e006      	b.n	8000a70 <__cmpdf2+0x4>
 8000a62:	bf00      	nop

08000a64 <__ledf2>:
 8000a64:	f04f 0c01 	mov.w	ip, #1
 8000a68:	e002      	b.n	8000a70 <__cmpdf2+0x4>
 8000a6a:	bf00      	nop

08000a6c <__cmpdf2>:
 8000a6c:	f04f 0c01 	mov.w	ip, #1
 8000a70:	f84d cd04 	str.w	ip, [sp, #-4]!
 8000a74:	ea4f 0c41 	mov.w	ip, r1, lsl #1
 8000a78:	ea7f 5c6c 	mvns.w	ip, ip, asr #21
 8000a7c:	ea4f 0c43 	mov.w	ip, r3, lsl #1
 8000a80:	bf18      	it	ne
 8000a82:	ea7f 5c6c 	mvnsne.w	ip, ip, asr #21
 8000a86:	d01b      	beq.n	8000ac0 <__cmpdf2+0x54>
 8000a88:	b001      	add	sp, #4
 8000a8a:	ea50 0c41 	orrs.w	ip, r0, r1, lsl #1
 8000a8e:	bf0c      	ite	eq
 8000a90:	ea52 0c43 	orrseq.w	ip, r2, r3, lsl #1
 8000a94:	ea91 0f03 	teqne	r1, r3
 8000a98:	bf02      	ittt	eq
 8000a9a:	ea90 0f02 	teqeq	r0, r2
 8000a9e:	2000      	moveq	r0, #0
 8000aa0:	4770      	bxeq	lr
 8000aa2:	f110 0f00 	cmn.w	r0, #0
 8000aa6:	ea91 0f03 	teq	r1, r3
 8000aaa:	bf58      	it	pl
 8000aac:	4299      	cmppl	r1, r3
 8000aae:	bf08      	it	eq
 8000ab0:	4290      	cmpeq	r0, r2
 8000ab2:	bf2c      	ite	cs
 8000ab4:	17d8      	asrcs	r0, r3, #31
 8000ab6:	ea6f 70e3 	mvncc.w	r0, r3, asr #31
 8000aba:	f040 0001 	orr.w	r0, r0, #1
 8000abe:	4770      	bx	lr
 8000ac0:	ea4f 0c41 	mov.w	ip, r1, lsl #1
 8000ac4:	ea7f 5c6c 	mvns.w	ip, ip, asr #21
 8000ac8:	d102      	bne.n	8000ad0 <__cmpdf2+0x64>
 8000aca:	ea50 3c01 	orrs.w	ip, r0, r1, lsl #12
 8000ace:	d107      	bne.n	8000ae0 <__cmpdf2+0x74>
 8000ad0:	ea4f 0c43 	mov.w	ip, r3, lsl #1
 8000ad4:	ea7f 5c6c 	mvns.w	ip, ip, asr #21
 8000ad8:	d1d6      	bne.n	8000a88 <__cmpdf2+0x1c>
 8000ada:	ea52 3c03 	orrs.w	ip, r2, r3, lsl #12
 8000ade:	d0d3      	beq.n	8000a88 <__cmpdf2+0x1c>
 8000ae0:	f85d 0b04 	ldr.w	r0, [sp], #4
 8000ae4:	4770      	bx	lr
 8000ae6:	bf00      	nop

08000ae8 <__aeabi_cdrcmple>:
 8000ae8:	4684      	mov	ip, r0
 8000aea:	4610      	mov	r0, r2
 8000aec:	4662      	mov	r2, ip
 8000aee:	468c      	mov	ip, r1
 8000af0:	4619      	mov	r1, r3
 8000af2:	4663      	mov	r3, ip
 8000af4:	e000      	b.n	8000af8 <__aeabi_cdcmpeq>
 8000af6:	bf00      	nop

08000af8 <__aeabi_cdcmpeq>:
 8000af8:	b501      	push	{r0, lr}
 8000afa:	f7ff ffb7 	bl	8000a6c <__cmpdf2>
 8000afe:	2800      	cmp	r0, #0
 8000b00:	bf48      	it	mi
 8000b02:	f110 0f00 	cmnmi.w	r0, #0
 8000b06:	bd01      	pop	{r0, pc}

08000b08 <__aeabi_dcmpeq>:
 8000b08:	f84d ed08 	str.w	lr, [sp, #-8]!
 8000b0c:	f7ff fff4 	bl	8000af8 <__aeabi_cdcmpeq>
 8000b10:	bf0c      	ite	eq
 8000b12:	2001      	moveq	r0, #1
 8000b14:	2000      	movne	r0, #0
 8000b16:	f85d fb08 	ldr.w	pc, [sp], #8
 8000b1a:	bf00      	nop

08000b1c <__aeabi_dcmplt>:
 8000b1c:	f84d ed08 	str.w	lr, [sp, #-8]!
 8000b20:	f7ff ffea 	bl	8000af8 <__aeabi_cdcmpeq>
 8000b24:	bf34      	ite	cc
 8000b26:	2001      	movcc	r0, #1
 8000b28:	2000      	movcs	r0, #0
 8000b2a:	f85d fb08 	ldr.w	pc, [sp], #8
 8000b2e:	bf00      	nop

08000b30 <__aeabi_dcmple>:
 8000b30:	f84d ed08 	str.w	lr, [sp, #-8]!
 8000b34:	f7ff ffe0 	bl	8000af8 <__aeabi_cdcmpeq>
 8000b38:	bf94      	ite	ls
 8000b3a:	2001      	movls	r0, #1
 8000b3c:	2000      	movhi	r0, #0
 8000b3e:	f85d fb08 	ldr.w	pc, [sp], #8
 8000b42:	bf00      	nop

08000b44 <__aeabi_dcmpge>:
 8000b44:	f84d ed08 	str.w	lr, [sp, #-8]!
 8000b48:	f7ff ffce 	bl	8000ae8 <__aeabi_cdrcmple>
 8000b4c:	bf94      	ite	ls
 8000b4e:	2001      	movls	r0, #1
 8000b50:	2000      	movhi	r0, #0
 8000b52:	f85d fb08 	ldr.w	pc, [sp], #8
 8000b56:	bf00      	nop

08000b58 <__aeabi_dcmpgt>:
 8000b58:	f84d ed08 	str.w	lr, [sp, #-8]!
 8000b5c:	f7ff ffc4 	bl	8000ae8 <__aeabi_cdrcmple>
 8000b60:	bf34      	ite	cc
 8000b62:	2001      	movcc	r0, #1
 8000b64:	2000      	movcs	r0, #0
 8000b66:	f85d fb08 	ldr.w	pc, [sp], #8
 8000b6a:	bf00      	nop

08000b6c <__aeabi_dcmpun>:
 8000b6c:	ea4f 0c41 	mov.w	ip, r1, lsl #1
 8000b70:	ea7f 5c6c 	mvns.w	ip, ip, asr #21
 8000b74:	d102      	bne.n	8000b7c <__aeabi_dcmpun+0x10>
 8000b76:	ea50 3c01 	orrs.w	ip, r0, r1, lsl #12
 8000b7a:	d10a      	bne.n	8000b92 <__aeabi_dcmpun+0x26>
 8000b7c:	ea4f 0c43 	mov.w	ip, r3, lsl #1
 8000b80:	ea7f 5c6c 	mvns.w	ip, ip, asr #21
 8000b84:	d102      	bne.n	8000b8c <__aeabi_dcmpun+0x20>
 8000b86:	ea52 3c03 	orrs.w	ip, r2, r3, lsl #12
 8000b8a:	d102      	bne.n	8000b92 <__aeabi_dcmpun+0x26>
 8000b8c:	f04f 0000 	mov.w	r0, #0
 8000b90:	4770      	bx	lr
 8000b92:	f04f 0001 	mov.w	r0, #1
 8000b96:	4770      	bx	lr

08000b98 <__aeabi_d2iz>:
 8000b98:	ea4f 0241 	mov.w	r2, r1, lsl #1
 8000b9c:	f512 1200 	adds.w	r2, r2, #2097152	; 0x200000
 8000ba0:	d215      	bcs.n	8000bce <__aeabi_d2iz+0x36>
 8000ba2:	d511      	bpl.n	8000bc8 <__aeabi_d2iz+0x30>
 8000ba4:	f46f 7378 	mvn.w	r3, #992	; 0x3e0
 8000ba8:	ebb3 5262 	subs.w	r2, r3, r2, asr #21
 8000bac:	d912      	bls.n	8000bd4 <__aeabi_d2iz+0x3c>
 8000bae:	ea4f 23c1 	mov.w	r3, r1, lsl #11
 8000bb2:	f043 4300 	orr.w	r3, r3, #2147483648	; 0x80000000
 8000bb6:	ea43 5350 	orr.w	r3, r3, r0, lsr #21
 8000bba:	f011 4f00 	tst.w	r1, #2147483648	; 0x80000000
 8000bbe:	fa23 f002 	lsr.w	r0, r3, r2
 8000bc2:	bf18      	it	ne
 8000bc4:	4240      	negne	r0, r0
 8000bc6:	4770      	bx	lr
 8000bc8:	f04f 0000 	mov.w	r0, #0
 8000bcc:	4770      	bx	lr
 8000bce:	ea50 3001 	orrs.w	r0, r0, r1, lsl #12
 8000bd2:	d105      	bne.n	8000be0 <__aeabi_d2iz+0x48>
 8000bd4:	f011 4000 	ands.w	r0, r1, #2147483648	; 0x80000000
 8000bd8:	bf08      	it	eq
 8000bda:	f06f 4000 	mvneq.w	r0, #2147483648	; 0x80000000
 8000bde:	4770      	bx	lr
 8000be0:	f04f 0000 	mov.w	r0, #0
 8000be4:	4770      	bx	lr
 8000be6:	bf00      	nop

08000be8 <__aeabi_d2f>:
 8000be8:	ea4f 0241 	mov.w	r2, r1, lsl #1
 8000bec:	f1b2 43e0 	subs.w	r3, r2, #1879048192	; 0x70000000
 8000bf0:	bf24      	itt	cs
 8000bf2:	f5b3 1c00 	subscs.w	ip, r3, #2097152	; 0x200000
 8000bf6:	f1dc 5cfe 	rsbscs	ip, ip, #532676608	; 0x1fc00000
 8000bfa:	d90d      	bls.n	8000c18 <__aeabi_d2f+0x30>
 8000bfc:	f001 4c00 	and.w	ip, r1, #2147483648	; 0x80000000
 8000c00:	ea4f 02c0 	mov.w	r2, r0, lsl #3
 8000c04:	ea4c 7050 	orr.w	r0, ip, r0, lsr #29
 8000c08:	f1b2 4f00 	cmp.w	r2, #2147483648	; 0x80000000
 8000c0c:	eb40 0083 	adc.w	r0, r0, r3, lsl #2
 8000c10:	bf08      	it	eq
 8000c12:	f020 0001 	biceq.w	r0, r0, #1
 8000c16:	4770      	bx	lr
 8000c18:	f011 4f80 	tst.w	r1, #1073741824	; 0x40000000
 8000c1c:	d121      	bne.n	8000c62 <__aeabi_d2f+0x7a>
 8000c1e:	f113 7238 	adds.w	r2, r3, #48234496	; 0x2e00000
 8000c22:	bfbc      	itt	lt
 8000c24:	f001 4000 	andlt.w	r0, r1, #2147483648	; 0x80000000
 8000c28:	4770      	bxlt	lr
 8000c2a:	f441 1180 	orr.w	r1, r1, #1048576	; 0x100000
 8000c2e:	ea4f 5252 	mov.w	r2, r2, lsr #21
 8000c32:	f1c2 0218 	rsb	r2, r2, #24
 8000c36:	f1c2 0c20 	rsb	ip, r2, #32
 8000c3a:	fa10 f30c 	lsls.w	r3, r0, ip
 8000c3e:	fa20 f002 	lsr.w	r0, r0, r2
 8000c42:	bf18      	it	ne
 8000c44:	f040 0001 	orrne.w	r0, r0, #1
 8000c48:	ea4f 23c1 	mov.w	r3, r1, lsl #11
 8000c4c:	ea4f 23d3 	mov.w	r3, r3, lsr #11
 8000c50:	fa03 fc0c 	lsl.w	ip, r3, ip
 8000c54:	ea40 000c 	orr.w	r0, r0, ip
 8000c58:	fa23 f302 	lsr.w	r3, r3, r2
 8000c5c:	ea4f 0343 	mov.w	r3, r3, lsl #1
 8000c60:	e7cc      	b.n	8000bfc <__aeabi_d2f+0x14>
 8000c62:	ea7f 5362 	mvns.w	r3, r2, asr #21
 8000c66:	d107      	bne.n	8000c78 <__aeabi_d2f+0x90>
 8000c68:	ea50 3301 	orrs.w	r3, r0, r1, lsl #12
 8000c6c:	bf1e      	ittt	ne
 8000c6e:	f04f 40fe 	movne.w	r0, #2130706432	; 0x7f000000
 8000c72:	f440 0040 	orrne.w	r0, r0, #12582912	; 0xc00000
 8000c76:	4770      	bxne	lr
 8000c78:	f001 4000 	and.w	r0, r1, #2147483648	; 0x80000000
 8000c7c:	f040 40fe 	orr.w	r0, r0, #2130706432	; 0x7f000000
 8000c80:	f440 0000 	orr.w	r0, r0, #8388608	; 0x800000
 8000c84:	4770      	bx	lr
 8000c86:	bf00      	nop

08000c88 <__aeabi_uldivmod>:
 8000c88:	b953      	cbnz	r3, 8000ca0 <__aeabi_uldivmod+0x18>
 8000c8a:	b94a      	cbnz	r2, 8000ca0 <__aeabi_uldivmod+0x18>
 8000c8c:	2900      	cmp	r1, #0
 8000c8e:	bf08      	it	eq
 8000c90:	2800      	cmpeq	r0, #0
 8000c92:	bf1c      	itt	ne
 8000c94:	f04f 31ff 	movne.w	r1, #4294967295
 8000c98:	f04f 30ff 	movne.w	r0, #4294967295
 8000c9c:	f000 b972 	b.w	8000f84 <__aeabi_idiv0>
 8000ca0:	f1ad 0c08 	sub.w	ip, sp, #8
 8000ca4:	e96d ce04 	strd	ip, lr, [sp, #-16]!
 8000ca8:	f000 f806 	bl	8000cb8 <__udivmoddi4>
 8000cac:	f8dd e004 	ldr.w	lr, [sp, #4]
 8000cb0:	e9dd 2302 	ldrd	r2, r3, [sp, #8]
 8000cb4:	b004      	add	sp, #16
 8000cb6:	4770      	bx	lr

08000cb8 <__udivmoddi4>:
 8000cb8:	e92d 47f0 	stmdb	sp!, {r4, r5, r6, r7, r8, r9, sl, lr}
 8000cbc:	9e08      	ldr	r6, [sp, #32]
 8000cbe:	4604      	mov	r4, r0
 8000cc0:	4688      	mov	r8, r1
 8000cc2:	2b00      	cmp	r3, #0
 8000cc4:	d14b      	bne.n	8000d5e <__udivmoddi4+0xa6>
 8000cc6:	428a      	cmp	r2, r1
 8000cc8:	4615      	mov	r5, r2
 8000cca:	d967      	bls.n	8000d9c <__udivmoddi4+0xe4>
 8000ccc:	fab2 f282 	clz	r2, r2
 8000cd0:	b14a      	cbz	r2, 8000ce6 <__udivmoddi4+0x2e>
 8000cd2:	f1c2 0720 	rsb	r7, r2, #32
 8000cd6:	fa01 f302 	lsl.w	r3, r1, r2
 8000cda:	fa20 f707 	lsr.w	r7, r0, r7
 8000cde:	4095      	lsls	r5, r2
 8000ce0:	ea47 0803 	orr.w	r8, r7, r3
 8000ce4:	4094      	lsls	r4, r2
 8000ce6:	ea4f 4e15 	mov.w	lr, r5, lsr #16
 8000cea:	0c23      	lsrs	r3, r4, #16
 8000cec:	fbb8 f7fe 	udiv	r7, r8, lr
 8000cf0:	fa1f fc85 	uxth.w	ip, r5
 8000cf4:	fb0e 8817 	mls	r8, lr, r7, r8
 8000cf8:	ea43 4308 	orr.w	r3, r3, r8, lsl #16
 8000cfc:	fb07 f10c 	mul.w	r1, r7, ip
 8000d00:	4299      	cmp	r1, r3
 8000d02:	d909      	bls.n	8000d18 <__udivmoddi4+0x60>
 8000d04:	18eb      	adds	r3, r5, r3
 8000d06:	f107 30ff 	add.w	r0, r7, #4294967295
 8000d0a:	f080 811b 	bcs.w	8000f44 <__udivmoddi4+0x28c>
 8000d0e:	4299      	cmp	r1, r3
 8000d10:	f240 8118 	bls.w	8000f44 <__udivmoddi4+0x28c>
 8000d14:	3f02      	subs	r7, #2
 8000d16:	442b      	add	r3, r5
 8000d18:	1a5b      	subs	r3, r3, r1
 8000d1a:	b2a4      	uxth	r4, r4
 8000d1c:	fbb3 f0fe 	udiv	r0, r3, lr
 8000d20:	fb0e 3310 	mls	r3, lr, r0, r3
 8000d24:	ea44 4403 	orr.w	r4, r4, r3, lsl #16
 8000d28:	fb00 fc0c 	mul.w	ip, r0, ip
 8000d2c:	45a4      	cmp	ip, r4
 8000d2e:	d909      	bls.n	8000d44 <__udivmoddi4+0x8c>
 8000d30:	192c      	adds	r4, r5, r4
 8000d32:	f100 33ff 	add.w	r3, r0, #4294967295
 8000d36:	f080 8107 	bcs.w	8000f48 <__udivmoddi4+0x290>
 8000d3a:	45a4      	cmp	ip, r4
 8000d3c:	f240 8104 	bls.w	8000f48 <__udivmoddi4+0x290>
 8000d40:	3802      	subs	r0, #2
 8000d42:	442c      	add	r4, r5
 8000d44:	ea40 4007 	orr.w	r0, r0, r7, lsl #16
 8000d48:	eba4 040c 	sub.w	r4, r4, ip
 8000d4c:	2700      	movs	r7, #0
 8000d4e:	b11e      	cbz	r6, 8000d58 <__udivmoddi4+0xa0>
 8000d50:	40d4      	lsrs	r4, r2
 8000d52:	2300      	movs	r3, #0
 8000d54:	e9c6 4300 	strd	r4, r3, [r6]
 8000d58:	4639      	mov	r1, r7
 8000d5a:	e8bd 87f0 	ldmia.w	sp!, {r4, r5, r6, r7, r8, r9, sl, pc}
 8000d5e:	428b      	cmp	r3, r1
 8000d60:	d909      	bls.n	8000d76 <__udivmoddi4+0xbe>
 8000d62:	2e00      	cmp	r6, #0
 8000d64:	f000 80eb 	beq.w	8000f3e <__udivmoddi4+0x286>
 8000d68:	2700      	movs	r7, #0
 8000d6a:	e9c6 0100 	strd	r0, r1, [r6]
 8000d6e:	4638      	mov	r0, r7
 8000d70:	4639      	mov	r1, r7
 8000d72:	e8bd 87f0 	ldmia.w	sp!, {r4, r5, r6, r7, r8, r9, sl, pc}
 8000d76:	fab3 f783 	clz	r7, r3
 8000d7a:	2f00      	cmp	r7, #0
 8000d7c:	d147      	bne.n	8000e0e <__udivmoddi4+0x156>
 8000d7e:	428b      	cmp	r3, r1
 8000d80:	d302      	bcc.n	8000d88 <__udivmoddi4+0xd0>
 8000d82:	4282      	cmp	r2, r0
 8000d84:	f200 80fa 	bhi.w	8000f7c <__udivmoddi4+0x2c4>
 8000d88:	1a84      	subs	r4, r0, r2
 8000d8a:	eb61 0303 	sbc.w	r3, r1, r3
 8000d8e:	2001      	movs	r0, #1
 8000d90:	4698      	mov	r8, r3
 8000d92:	2e00      	cmp	r6, #0
 8000d94:	d0e0      	beq.n	8000d58 <__udivmoddi4+0xa0>
 8000d96:	e9c6 4800 	strd	r4, r8, [r6]
 8000d9a:	e7dd      	b.n	8000d58 <__udivmoddi4+0xa0>
 8000d9c:	b902      	cbnz	r2, 8000da0 <__udivmoddi4+0xe8>
 8000d9e:	deff      	udf	#255	; 0xff
 8000da0:	fab2 f282 	clz	r2, r2
 8000da4:	2a00      	cmp	r2, #0
 8000da6:	f040 808f 	bne.w	8000ec8 <__udivmoddi4+0x210>
 8000daa:	1b49      	subs	r1, r1, r5
 8000dac:	ea4f 4e15 	mov.w	lr, r5, lsr #16
 8000db0:	fa1f f885 	uxth.w	r8, r5
 8000db4:	2701      	movs	r7, #1
 8000db6:	fbb1 fcfe 	udiv	ip, r1, lr
 8000dba:	0c23      	lsrs	r3, r4, #16
 8000dbc:	fb0e 111c 	mls	r1, lr, ip, r1
 8000dc0:	ea43 4301 	orr.w	r3, r3, r1, lsl #16
 8000dc4:	fb08 f10c 	mul.w	r1, r8, ip
 8000dc8:	4299      	cmp	r1, r3
 8000dca:	d907      	bls.n	8000ddc <__udivmoddi4+0x124>
 8000dcc:	18eb      	adds	r3, r5, r3
 8000dce:	f10c 30ff 	add.w	r0, ip, #4294967295
 8000dd2:	d202      	bcs.n	8000dda <__udivmoddi4+0x122>
 8000dd4:	4299      	cmp	r1, r3
 8000dd6:	f200 80cd 	bhi.w	8000f74 <__udivmoddi4+0x2bc>
 8000dda:	4684      	mov	ip, r0
 8000ddc:	1a59      	subs	r1, r3, r1
 8000dde:	b2a3      	uxth	r3, r4
 8000de0:	fbb1 f0fe 	udiv	r0, r1, lr
 8000de4:	fb0e 1410 	mls	r4, lr, r0, r1
 8000de8:	ea43 4404 	orr.w	r4, r3, r4, lsl #16
 8000dec:	fb08 f800 	mul.w	r8, r8, r0
 8000df0:	45a0      	cmp	r8, r4
 8000df2:	d907      	bls.n	8000e04 <__udivmoddi4+0x14c>
 8000df4:	192c      	adds	r4, r5, r4
 8000df6:	f100 33ff 	add.w	r3, r0, #4294967295
 8000dfa:	d202      	bcs.n	8000e02 <__udivmoddi4+0x14a>
 8000dfc:	45a0      	cmp	r8, r4
 8000dfe:	f200 80b6 	bhi.w	8000f6e <__udivmoddi4+0x2b6>
 8000e02:	4618      	mov	r0, r3
 8000e04:	eba4 0408 	sub.w	r4, r4, r8
 8000e08:	ea40 400c 	orr.w	r0, r0, ip, lsl #16
 8000e0c:	e79f      	b.n	8000d4e <__udivmoddi4+0x96>
 8000e0e:	f1c7 0c20 	rsb	ip, r7, #32
 8000e12:	40bb      	lsls	r3, r7
 8000e14:	fa22 fe0c 	lsr.w	lr, r2, ip
 8000e18:	ea4e 0e03 	orr.w	lr, lr, r3
 8000e1c:	fa01 f407 	lsl.w	r4, r1, r7
 8000e20:	fa20 f50c 	lsr.w	r5, r0, ip
 8000e24:	fa21 f30c 	lsr.w	r3, r1, ip
 8000e28:	ea4f 481e 	mov.w	r8, lr, lsr #16
 8000e2c:	4325      	orrs	r5, r4
 8000e2e:	fbb3 f9f8 	udiv	r9, r3, r8
 8000e32:	0c2c      	lsrs	r4, r5, #16
 8000e34:	fb08 3319 	mls	r3, r8, r9, r3
 8000e38:	fa1f fa8e 	uxth.w	sl, lr
 8000e3c:	ea44 4303 	orr.w	r3, r4, r3, lsl #16
 8000e40:	fb09 f40a 	mul.w	r4, r9, sl
 8000e44:	429c      	cmp	r4, r3
 8000e46:	fa02 f207 	lsl.w	r2, r2, r7
 8000e4a:	fa00 f107 	lsl.w	r1, r0, r7
 8000e4e:	d90b      	bls.n	8000e68 <__udivmoddi4+0x1b0>
 8000e50:	eb1e 0303 	adds.w	r3, lr, r3
 8000e54:	f109 30ff 	add.w	r0, r9, #4294967295
 8000e58:	f080 8087 	bcs.w	8000f6a <__udivmoddi4+0x2b2>
 8000e5c:	429c      	cmp	r4, r3
 8000e5e:	f240 8084 	bls.w	8000f6a <__udivmoddi4+0x2b2>
 8000e62:	f1a9 0902 	sub.w	r9, r9, #2
 8000e66:	4473      	add	r3, lr
 8000e68:	1b1b      	subs	r3, r3, r4
 8000e6a:	b2ad      	uxth	r5, r5
 8000e6c:	fbb3 f0f8 	udiv	r0, r3, r8
 8000e70:	fb08 3310 	mls	r3, r8, r0, r3
 8000e74:	ea45 4403 	orr.w	r4, r5, r3, lsl #16
 8000e78:	fb00 fa0a 	mul.w	sl, r0, sl
 8000e7c:	45a2      	cmp	sl, r4
 8000e7e:	d908      	bls.n	8000e92 <__udivmoddi4+0x1da>
 8000e80:	eb1e 0404 	adds.w	r4, lr, r4
 8000e84:	f100 33ff 	add.w	r3, r0, #4294967295
 8000e88:	d26b      	bcs.n	8000f62 <__udivmoddi4+0x2aa>
 8000e8a:	45a2      	cmp	sl, r4
 8000e8c:	d969      	bls.n	8000f62 <__udivmoddi4+0x2aa>
 8000e8e:	3802      	subs	r0, #2
 8000e90:	4474      	add	r4, lr
 8000e92:	ea40 4009 	orr.w	r0, r0, r9, lsl #16
 8000e96:	fba0 8902 	umull	r8, r9, r0, r2
 8000e9a:	eba4 040a 	sub.w	r4, r4, sl
 8000e9e:	454c      	cmp	r4, r9
 8000ea0:	46c2      	mov	sl, r8
 8000ea2:	464b      	mov	r3, r9
 8000ea4:	d354      	bcc.n	8000f50 <__udivmoddi4+0x298>
 8000ea6:	d051      	beq.n	8000f4c <__udivmoddi4+0x294>
 8000ea8:	2e00      	cmp	r6, #0
 8000eaa:	d069      	beq.n	8000f80 <__udivmoddi4+0x2c8>
 8000eac:	ebb1 050a 	subs.w	r5, r1, sl
 8000eb0:	eb64 0403 	sbc.w	r4, r4, r3
 8000eb4:	fa04 fc0c 	lsl.w	ip, r4, ip
 8000eb8:	40fd      	lsrs	r5, r7
 8000eba:	40fc      	lsrs	r4, r7
 8000ebc:	ea4c 0505 	orr.w	r5, ip, r5
 8000ec0:	e9c6 5400 	strd	r5, r4, [r6]
 8000ec4:	2700      	movs	r7, #0
 8000ec6:	e747      	b.n	8000d58 <__udivmoddi4+0xa0>
 8000ec8:	f1c2 0320 	rsb	r3, r2, #32
 8000ecc:	fa20 f703 	lsr.w	r7, r0, r3
 8000ed0:	4095      	lsls	r5, r2
 8000ed2:	fa01 f002 	lsl.w	r0, r1, r2
 8000ed6:	fa21 f303 	lsr.w	r3, r1, r3
 8000eda:	ea4f 4e15 	mov.w	lr, r5, lsr #16
 8000ede:	4338      	orrs	r0, r7
 8000ee0:	0c01      	lsrs	r1, r0, #16
 8000ee2:	fbb3 f7fe 	udiv	r7, r3, lr
 8000ee6:	fa1f f885 	uxth.w	r8, r5
 8000eea:	fb0e 3317 	mls	r3, lr, r7, r3
 8000eee:	ea41 4103 	orr.w	r1, r1, r3, lsl #16
 8000ef2:	fb07 f308 	mul.w	r3, r7, r8
 8000ef6:	428b      	cmp	r3, r1
 8000ef8:	fa04 f402 	lsl.w	r4, r4, r2
 8000efc:	d907      	bls.n	8000f0e <__udivmoddi4+0x256>
 8000efe:	1869      	adds	r1, r5, r1
 8000f00:	f107 3cff 	add.w	ip, r7, #4294967295
 8000f04:	d22f      	bcs.n	8000f66 <__udivmoddi4+0x2ae>
 8000f06:	428b      	cmp	r3, r1
 8000f08:	d92d      	bls.n	8000f66 <__udivmoddi4+0x2ae>
 8000f0a:	3f02      	subs	r7, #2
 8000f0c:	4429      	add	r1, r5
 8000f0e:	1acb      	subs	r3, r1, r3
 8000f10:	b281      	uxth	r1, r0
 8000f12:	fbb3 f0fe 	udiv	r0, r3, lr
 8000f16:	fb0e 3310 	mls	r3, lr, r0, r3
 8000f1a:	ea41 4103 	orr.w	r1, r1, r3, lsl #16
 8000f1e:	fb00 f308 	mul.w	r3, r0, r8
 8000f22:	428b      	cmp	r3, r1
 8000f24:	d907      	bls.n	8000f36 <__udivmoddi4+0x27e>
 8000f26:	1869      	adds	r1, r5, r1
 8000f28:	f100 3cff 	add.w	ip, r0, #4294967295
 8000f2c:	d217      	bcs.n	8000f5e <__udivmoddi4+0x2a6>
 8000f2e:	428b      	cmp	r3, r1
 8000f30:	d915      	bls.n	8000f5e <__udivmoddi4+0x2a6>
 8000f32:	3802      	subs	r0, #2
 8000f34:	4429      	add	r1, r5
 8000f36:	1ac9      	subs	r1, r1, r3
 8000f38:	ea40 4707 	orr.w	r7, r0, r7, lsl #16
 8000f3c:	e73b      	b.n	8000db6 <__udivmoddi4+0xfe>
 8000f3e:	4637      	mov	r7, r6
 8000f40:	4630      	mov	r0, r6
 8000f42:	e709      	b.n	8000d58 <__udivmoddi4+0xa0>
 8000f44:	4607      	mov	r7, r0
 8000f46:	e6e7      	b.n	8000d18 <__udivmoddi4+0x60>
 8000f48:	4618      	mov	r0, r3
 8000f4a:	e6fb      	b.n	8000d44 <__udivmoddi4+0x8c>
 8000f4c:	4541      	cmp	r1, r8
 8000f4e:	d2ab      	bcs.n	8000ea8 <__udivmoddi4+0x1f0>
 8000f50:	ebb8 0a02 	subs.w	sl, r8, r2
 8000f54:	eb69 020e 	sbc.w	r2, r9, lr
 8000f58:	3801      	subs	r0, #1
 8000f5a:	4613      	mov	r3, r2
 8000f5c:	e7a4      	b.n	8000ea8 <__udivmoddi4+0x1f0>
 8000f5e:	4660      	mov	r0, ip
 8000f60:	e7e9      	b.n	8000f36 <__udivmoddi4+0x27e>
 8000f62:	4618      	mov	r0, r3
 8000f64:	e795      	b.n	8000e92 <__udivmoddi4+0x1da>
 8000f66:	4667      	mov	r7, ip
 8000f68:	e7d1      	b.n	8000f0e <__udivmoddi4+0x256>
 8000f6a:	4681      	mov	r9, r0
 8000f6c:	e77c      	b.n	8000e68 <__udivmoddi4+0x1b0>
 8000f6e:	3802      	subs	r0, #2
 8000f70:	442c      	add	r4, r5
 8000f72:	e747      	b.n	8000e04 <__udivmoddi4+0x14c>
 8000f74:	f1ac 0c02 	sub.w	ip, ip, #2
 8000f78:	442b      	add	r3, r5
 8000f7a:	e72f      	b.n	8000ddc <__udivmoddi4+0x124>
 8000f7c:	4638      	mov	r0, r7
 8000f7e:	e708      	b.n	8000d92 <__udivmoddi4+0xda>
 8000f80:	4637      	mov	r7, r6
 8000f82:	e6e9      	b.n	8000d58 <__udivmoddi4+0xa0>

08000f84 <__aeabi_idiv0>:
 8000f84:	4770      	bx	lr
 8000f86:	bf00      	nop

08000f88 <main>:
/**
  * @brief  The application entry point.
  * @retval int
  */
int main(void)
{
 8000f88:	b590      	push	{r4, r7, lr}
 8000f8a:	b08b      	sub	sp, #44	; 0x2c
 8000f8c:	af00      	add	r7, sp, #0
  /* USER CODE END 1 */

  /* MCU Configuration--------------------------------------------------------*/

  /* Reset of all peripherals, Initializes the Flash interface and the Systick. */
  HAL_Init();
 8000f8e:	f000 fcb5 	bl	80018fc <HAL_Init>
  /* USER CODE BEGIN Init */

  /* USER CODE END Init */

  /* Configure the system clock */
  SystemClock_Config();
 8000f92:	f000 f98d 	bl	80012b0 <SystemClock_Config>
  /* USER CODE BEGIN SysInit */

  /* USER CODE END SysInit */

  /* Initialize all configured peripherals */
  MX_GPIO_Init();
 8000f96:	f000 fa99 	bl	80014cc <MX_GPIO_Init>
  MX_DMA_Init();
 8000f9a:	f000 fa77 	bl	800148c <MX_DMA_Init>
  MX_USART2_UART_Init();
 8000f9e:	f000 fa4b 	bl	8001438 <MX_USART2_UART_Init>
  MX_ADC1_Init();
 8000fa2:	f000 f9f7 	bl	8001394 <MX_ADC1_Init>
  /* USER CODE BEGIN 2 */
  //HAL_GPIO_WritePin(GPIOA, GPIO_PIN_10, GPIO_PIN_RESET);
  //HAL_Delay(WARMUP);
  //HAL_GPIO_WritePin(GPIOA, GPIO_PIN_10, GPIO_PIN_SET);
  //HAL_Delay(COOLDOWN);
  HAL_GPIO_WritePin(GPIOA, LD2_Pin, GPIO_PIN_SET);
 8000fa6:	2201      	movs	r2, #1
 8000fa8:	2120      	movs	r1, #32
 8000faa:	48b3      	ldr	r0, [pc, #716]	; (8001278 <main+0x2f0>)
 8000fac:	f001 ff46 	bl	8002e3c <HAL_GPIO_WritePin>
  HAL_GPIO_WritePin(GPIOA, GPIO_PIN_10, GPIO_PIN_RESET);
 8000fb0:	2200      	movs	r2, #0
 8000fb2:	f44f 6180 	mov.w	r1, #1024	; 0x400
 8000fb6:	48b0      	ldr	r0, [pc, #704]	; (8001278 <main+0x2f0>)
 8000fb8:	f001 ff40 	bl	8002e3c <HAL_GPIO_WritePin>
  HAL_Delay(LASER_DELAY);
 8000fbc:	2000      	movs	r0, #0
 8000fbe:	f000 fd0f 	bl	80019e0 <HAL_Delay>
  HAL_ADC_Start_DMA(&hadc1, (uint32_t*)adc_buf, ADC_BUF_LEN);
 8000fc2:	220a      	movs	r2, #10
 8000fc4:	49ad      	ldr	r1, [pc, #692]	; (800127c <main+0x2f4>)
 8000fc6:	48ae      	ldr	r0, [pc, #696]	; (8001280 <main+0x2f8>)
 8000fc8:	f000 fd70 	bl	8001aac <HAL_ADC_Start_DMA>

  /* Infinite loop */
  /* USER CODE BEGIN WHILE */
  while (1)
  {
	if (state == 1) {
 8000fcc:	4bad      	ldr	r3, [pc, #692]	; (8001284 <main+0x2fc>)
 8000fce:	681b      	ldr	r3, [r3, #0]
 8000fd0:	2b01      	cmp	r3, #1
 8000fd2:	d156      	bne.n	8001082 <main+0xfa>
		HAL_GPIO_WritePin(GPIOA, GPIO_PIN_10, GPIO_PIN_SET);
 8000fd4:	2201      	movs	r2, #1
 8000fd6:	f44f 6180 	mov.w	r1, #1024	; 0x400
 8000fda:	48a7      	ldr	r0, [pc, #668]	; (8001278 <main+0x2f0>)
 8000fdc:	f001 ff2e 	bl	8002e3c <HAL_GPIO_WritePin>
		HAL_Delay(COOLDOWN);
 8000fe0:	2001      	movs	r0, #1
 8000fe2:	f000 fcfd 	bl	80019e0 <HAL_Delay>
		for (int j = 0; j < ADC_BUF_LEN; j++) {
 8000fe6:	2300      	movs	r3, #0
 8000fe8:	627b      	str	r3, [r7, #36]	; 0x24
 8000fea:	e029      	b.n	8001040 <main+0xb8>
			avgs[j] = (avgs[j] * pass + adc_buf[j]) / (pass + 1);
 8000fec:	4aa6      	ldr	r2, [pc, #664]	; (8001288 <main+0x300>)
 8000fee:	6a7b      	ldr	r3, [r7, #36]	; 0x24
 8000ff0:	009b      	lsls	r3, r3, #2
 8000ff2:	4413      	add	r3, r2
 8000ff4:	ed93 7a00 	vldr	s14, [r3]
 8000ff8:	4ba4      	ldr	r3, [pc, #656]	; (800128c <main+0x304>)
 8000ffa:	681b      	ldr	r3, [r3, #0]
 8000ffc:	ee07 3a90 	vmov	s15, r3
 8001000:	eef8 7ae7 	vcvt.f32.s32	s15, s15
 8001004:	ee27 7a27 	vmul.f32	s14, s14, s15
 8001008:	4a9c      	ldr	r2, [pc, #624]	; (800127c <main+0x2f4>)
 800100a:	6a7b      	ldr	r3, [r7, #36]	; 0x24
 800100c:	f832 3013 	ldrh.w	r3, [r2, r3, lsl #1]
 8001010:	ee07 3a90 	vmov	s15, r3
 8001014:	eef8 7ae7 	vcvt.f32.s32	s15, s15
 8001018:	ee77 6a27 	vadd.f32	s13, s14, s15
 800101c:	4b9b      	ldr	r3, [pc, #620]	; (800128c <main+0x304>)
 800101e:	681b      	ldr	r3, [r3, #0]
 8001020:	3301      	adds	r3, #1
 8001022:	ee07 3a90 	vmov	s15, r3
 8001026:	eeb8 7ae7 	vcvt.f32.s32	s14, s15
 800102a:	eec6 7a87 	vdiv.f32	s15, s13, s14
 800102e:	4a96      	ldr	r2, [pc, #600]	; (8001288 <main+0x300>)
 8001030:	6a7b      	ldr	r3, [r7, #36]	; 0x24
 8001032:	009b      	lsls	r3, r3, #2
 8001034:	4413      	add	r3, r2
 8001036:	edc3 7a00 	vstr	s15, [r3]
		for (int j = 0; j < ADC_BUF_LEN; j++) {
 800103a:	6a7b      	ldr	r3, [r7, #36]	; 0x24
 800103c:	3301      	adds	r3, #1
 800103e:	627b      	str	r3, [r7, #36]	; 0x24
 8001040:	6a7b      	ldr	r3, [r7, #36]	; 0x24
 8001042:	2b09      	cmp	r3, #9
 8001044:	ddd2      	ble.n	8000fec <main+0x64>
		}
		pass += 1;
 8001046:	4b91      	ldr	r3, [pc, #580]	; (800128c <main+0x304>)
 8001048:	681b      	ldr	r3, [r3, #0]
 800104a:	3301      	adds	r3, #1
 800104c:	4a8f      	ldr	r2, [pc, #572]	; (800128c <main+0x304>)
 800104e:	6013      	str	r3, [r2, #0]
		if (pass == NUM_PASSES) {
 8001050:	4b8e      	ldr	r3, [pc, #568]	; (800128c <main+0x304>)
 8001052:	681b      	ldr	r3, [r3, #0]
 8001054:	2b01      	cmp	r3, #1
 8001056:	d103      	bne.n	8001060 <main+0xd8>
			state = 2;
 8001058:	4b8a      	ldr	r3, [pc, #552]	; (8001284 <main+0x2fc>)
 800105a:	2202      	movs	r2, #2
 800105c:	601a      	str	r2, [r3, #0]
 800105e:	e010      	b.n	8001082 <main+0xfa>
		} else {
			state = 0;
 8001060:	4b88      	ldr	r3, [pc, #544]	; (8001284 <main+0x2fc>)
 8001062:	2200      	movs	r2, #0
 8001064:	601a      	str	r2, [r3, #0]
			HAL_GPIO_WritePin(GPIOA, GPIO_PIN_10, GPIO_PIN_RESET);
 8001066:	2200      	movs	r2, #0
 8001068:	f44f 6180 	mov.w	r1, #1024	; 0x400
 800106c:	4882      	ldr	r0, [pc, #520]	; (8001278 <main+0x2f0>)
 800106e:	f001 fee5 	bl	8002e3c <HAL_GPIO_WritePin>
			HAL_Delay(LASER_DELAY);
 8001072:	2000      	movs	r0, #0
 8001074:	f000 fcb4 	bl	80019e0 <HAL_Delay>
			HAL_ADC_Start_DMA(&hadc1, (uint32_t*)adc_buf, ADC_BUF_LEN);
 8001078:	220a      	movs	r2, #10
 800107a:	4980      	ldr	r1, [pc, #512]	; (800127c <main+0x2f4>)
 800107c:	4880      	ldr	r0, [pc, #512]	; (8001280 <main+0x2f8>)
 800107e:	f000 fd15 	bl	8001aac <HAL_ADC_Start_DMA>
		}
	}
	if (state == 2) {
 8001082:	4b80      	ldr	r3, [pc, #512]	; (8001284 <main+0x2fc>)
 8001084:	681b      	ldr	r3, [r3, #0]
 8001086:	2b02      	cmp	r3, #2
 8001088:	d16d      	bne.n	8001166 <main+0x1de>
			}
			while(1) {

			}
		} else {
			HAL_GPIO_TogglePin(GPIOA, LD2_Pin);
 800108a:	2120      	movs	r1, #32
 800108c:	487a      	ldr	r0, [pc, #488]	; (8001278 <main+0x2f0>)
 800108e:	f001 feee 	bl	8002e6e <HAL_GPIO_TogglePin>
			float average = 0;
 8001092:	f04f 0300 	mov.w	r3, #0
 8001096:	613b      	str	r3, [r7, #16]
			int total = 0;
 8001098:	2300      	movs	r3, #0
 800109a:	623b      	str	r3, [r7, #32]
			for (int j = 0; j < ADC_BUF_LEN; j++) {
 800109c:	2300      	movs	r3, #0
 800109e:	61fb      	str	r3, [r7, #28]
 80010a0:	e014      	b.n	80010cc <main+0x144>
				total += avgs[j];
 80010a2:	6a3b      	ldr	r3, [r7, #32]
 80010a4:	ee07 3a90 	vmov	s15, r3
 80010a8:	eeb8 7ae7 	vcvt.f32.s32	s14, s15
 80010ac:	4a76      	ldr	r2, [pc, #472]	; (8001288 <main+0x300>)
 80010ae:	69fb      	ldr	r3, [r7, #28]
 80010b0:	009b      	lsls	r3, r3, #2
 80010b2:	4413      	add	r3, r2
 80010b4:	edd3 7a00 	vldr	s15, [r3]
 80010b8:	ee77 7a27 	vadd.f32	s15, s14, s15
 80010bc:	eefd 7ae7 	vcvt.s32.f32	s15, s15
 80010c0:	ee17 3a90 	vmov	r3, s15
 80010c4:	623b      	str	r3, [r7, #32]
			for (int j = 0; j < ADC_BUF_LEN; j++) {
 80010c6:	69fb      	ldr	r3, [r7, #28]
 80010c8:	3301      	adds	r3, #1
 80010ca:	61fb      	str	r3, [r7, #28]
 80010cc:	69fb      	ldr	r3, [r7, #28]
 80010ce:	2b09      	cmp	r3, #9
 80010d0:	dde7      	ble.n	80010a2 <main+0x11a>
			}
			average = 3.3 * (total / ADC_BUF_LEN) / 4096;
 80010d2:	6a3b      	ldr	r3, [r7, #32]
 80010d4:	4a6e      	ldr	r2, [pc, #440]	; (8001290 <main+0x308>)
 80010d6:	fb82 1203 	smull	r1, r2, r2, r3
 80010da:	1092      	asrs	r2, r2, #2
 80010dc:	17db      	asrs	r3, r3, #31
 80010de:	1ad3      	subs	r3, r2, r3
 80010e0:	4618      	mov	r0, r3
 80010e2:	f7ff fa3f 	bl	8000564 <__aeabi_i2d>
 80010e6:	a362      	add	r3, pc, #392	; (adr r3, 8001270 <main+0x2e8>)
 80010e8:	e9d3 2300 	ldrd	r2, r3, [r3]
 80010ec:	f7ff faa4 	bl	8000638 <__aeabi_dmul>
 80010f0:	4603      	mov	r3, r0
 80010f2:	460c      	mov	r4, r1
 80010f4:	4618      	mov	r0, r3
 80010f6:	4621      	mov	r1, r4
 80010f8:	f04f 0200 	mov.w	r2, #0
 80010fc:	4b65      	ldr	r3, [pc, #404]	; (8001294 <main+0x30c>)
 80010fe:	f7ff fbc5 	bl	800088c <__aeabi_ddiv>
 8001102:	4603      	mov	r3, r0
 8001104:	460c      	mov	r4, r1
 8001106:	4618      	mov	r0, r3
 8001108:	4621      	mov	r1, r4
 800110a:	f7ff fd6d 	bl	8000be8 <__aeabi_d2f>
 800110e:	4603      	mov	r3, r0
 8001110:	613b      	str	r3, [r7, #16]
			freqs[freq] = average;
 8001112:	4b61      	ldr	r3, [pc, #388]	; (8001298 <main+0x310>)
 8001114:	681b      	ldr	r3, [r3, #0]
 8001116:	4a61      	ldr	r2, [pc, #388]	; (800129c <main+0x314>)
 8001118:	009b      	lsls	r3, r3, #2
 800111a:	4413      	add	r3, r2
 800111c:	693a      	ldr	r2, [r7, #16]
 800111e:	601a      	str	r2, [r3, #0]
			freq += 1;
 8001120:	4b5d      	ldr	r3, [pc, #372]	; (8001298 <main+0x310>)
 8001122:	681b      	ldr	r3, [r3, #0]
 8001124:	3301      	adds	r3, #1
 8001126:	4a5c      	ldr	r2, [pc, #368]	; (8001298 <main+0x310>)
 8001128:	6013      	str	r3, [r2, #0]
			if (freq == NUM_FREQS) {
 800112a:	4b5b      	ldr	r3, [pc, #364]	; (8001298 <main+0x310>)
 800112c:	681b      	ldr	r3, [r3, #0]
 800112e:	f242 7210 	movw	r2, #10000	; 0x2710
 8001132:	4293      	cmp	r3, r2
 8001134:	d103      	bne.n	800113e <main+0x1b6>
				state = 3;
 8001136:	4b53      	ldr	r3, [pc, #332]	; (8001284 <main+0x2fc>)
 8001138:	2203      	movs	r2, #3
 800113a:	601a      	str	r2, [r3, #0]
 800113c:	e013      	b.n	8001166 <main+0x1de>
			} else {
				pass = 0;
 800113e:	4b53      	ldr	r3, [pc, #332]	; (800128c <main+0x304>)
 8001140:	2200      	movs	r2, #0
 8001142:	601a      	str	r2, [r3, #0]
				state = 0;
 8001144:	4b4f      	ldr	r3, [pc, #316]	; (8001284 <main+0x2fc>)
 8001146:	2200      	movs	r2, #0
 8001148:	601a      	str	r2, [r3, #0]
				if (freq % mod == 0) {
					HAL_GPIO_WritePin(GPIOA, GPIO_PIN_10, GPIO_PIN_RESET);
 800114a:	2200      	movs	r2, #0
 800114c:	f44f 6180 	mov.w	r1, #1024	; 0x400
 8001150:	4849      	ldr	r0, [pc, #292]	; (8001278 <main+0x2f0>)
 8001152:	f001 fe73 	bl	8002e3c <HAL_GPIO_WritePin>
				}else {
					HAL_GPIO_WritePin(GPIOA, GPIO_PIN_10, GPIO_PIN_SET);
				}
				HAL_Delay(LASER_DELAY);
 8001156:	2000      	movs	r0, #0
 8001158:	f000 fc42 	bl	80019e0 <HAL_Delay>
				HAL_ADC_Start_DMA(&hadc1, (uint32_t*)adc_buf, ADC_BUF_LEN);
 800115c:	220a      	movs	r2, #10
 800115e:	4947      	ldr	r1, [pc, #284]	; (800127c <main+0x2f4>)
 8001160:	4847      	ldr	r0, [pc, #284]	; (8001280 <main+0x2f8>)
 8001162:	f000 fca3 	bl	8001aac <HAL_ADC_Start_DMA>
			}
		}

	}
	if (state == 3) {
 8001166:	4b47      	ldr	r3, [pc, #284]	; (8001284 <main+0x2fc>)
 8001168:	681b      	ldr	r3, [r3, #0]
 800116a:	2b03      	cmp	r3, #3
 800116c:	d153      	bne.n	8001216 <main+0x28e>
		for (int j = 0; j < NUM_FREQS; j++) {
 800116e:	2300      	movs	r3, #0
 8001170:	61bb      	str	r3, [r7, #24]
 8001172:	e027      	b.n	80011c4 <main+0x23c>
			avg_freqs[j] = (avg_freqs[j] * num_freq + freqs[j]) / (num_freq + 1);
 8001174:	4a4a      	ldr	r2, [pc, #296]	; (80012a0 <main+0x318>)
 8001176:	69bb      	ldr	r3, [r7, #24]
 8001178:	009b      	lsls	r3, r3, #2
 800117a:	4413      	add	r3, r2
 800117c:	ed93 7a00 	vldr	s14, [r3]
 8001180:	4b48      	ldr	r3, [pc, #288]	; (80012a4 <main+0x31c>)
 8001182:	681b      	ldr	r3, [r3, #0]
 8001184:	ee07 3a90 	vmov	s15, r3
 8001188:	eef8 7ae7 	vcvt.f32.s32	s15, s15
 800118c:	ee27 7a27 	vmul.f32	s14, s14, s15
 8001190:	4a42      	ldr	r2, [pc, #264]	; (800129c <main+0x314>)
 8001192:	69bb      	ldr	r3, [r7, #24]
 8001194:	009b      	lsls	r3, r3, #2
 8001196:	4413      	add	r3, r2
 8001198:	edd3 7a00 	vldr	s15, [r3]
 800119c:	ee77 6a27 	vadd.f32	s13, s14, s15
 80011a0:	4b40      	ldr	r3, [pc, #256]	; (80012a4 <main+0x31c>)
 80011a2:	681b      	ldr	r3, [r3, #0]
 80011a4:	3301      	adds	r3, #1
 80011a6:	ee07 3a90 	vmov	s15, r3
 80011aa:	eeb8 7ae7 	vcvt.f32.s32	s14, s15
 80011ae:	eec6 7a87 	vdiv.f32	s15, s13, s14
 80011b2:	4a3b      	ldr	r2, [pc, #236]	; (80012a0 <main+0x318>)
 80011b4:	69bb      	ldr	r3, [r7, #24]
 80011b6:	009b      	lsls	r3, r3, #2
 80011b8:	4413      	add	r3, r2
 80011ba:	edc3 7a00 	vstr	s15, [r3]
		for (int j = 0; j < NUM_FREQS; j++) {
 80011be:	69bb      	ldr	r3, [r7, #24]
 80011c0:	3301      	adds	r3, #1
 80011c2:	61bb      	str	r3, [r7, #24]
 80011c4:	69bb      	ldr	r3, [r7, #24]
 80011c6:	f242 720f 	movw	r2, #9999	; 0x270f
 80011ca:	4293      	cmp	r3, r2
 80011cc:	ddd2      	ble.n	8001174 <main+0x1ec>
		}
		num_freq += 1;
 80011ce:	4b35      	ldr	r3, [pc, #212]	; (80012a4 <main+0x31c>)
 80011d0:	681b      	ldr	r3, [r3, #0]
 80011d2:	3301      	adds	r3, #1
 80011d4:	4a33      	ldr	r2, [pc, #204]	; (80012a4 <main+0x31c>)
 80011d6:	6013      	str	r3, [r2, #0]
		if (num_freq == FREQ_PASS) {
 80011d8:	4b32      	ldr	r3, [pc, #200]	; (80012a4 <main+0x31c>)
 80011da:	681b      	ldr	r3, [r3, #0]
 80011dc:	2b01      	cmp	r3, #1
 80011de:	d103      	bne.n	80011e8 <main+0x260>
			state = 4;
 80011e0:	4b28      	ldr	r3, [pc, #160]	; (8001284 <main+0x2fc>)
 80011e2:	2204      	movs	r2, #4
 80011e4:	601a      	str	r2, [r3, #0]
 80011e6:	e016      	b.n	8001216 <main+0x28e>
		}else {
			pass = 0;
 80011e8:	4b28      	ldr	r3, [pc, #160]	; (800128c <main+0x304>)
 80011ea:	2200      	movs	r2, #0
 80011ec:	601a      	str	r2, [r3, #0]
			state = 0;
 80011ee:	4b25      	ldr	r3, [pc, #148]	; (8001284 <main+0x2fc>)
 80011f0:	2200      	movs	r2, #0
 80011f2:	601a      	str	r2, [r3, #0]
			freq = 0;
 80011f4:	4b28      	ldr	r3, [pc, #160]	; (8001298 <main+0x310>)
 80011f6:	2200      	movs	r2, #0
 80011f8:	601a      	str	r2, [r3, #0]
			HAL_GPIO_WritePin(GPIOA, GPIO_PIN_10, GPIO_PIN_RESET);
 80011fa:	2200      	movs	r2, #0
 80011fc:	f44f 6180 	mov.w	r1, #1024	; 0x400
 8001200:	481d      	ldr	r0, [pc, #116]	; (8001278 <main+0x2f0>)
 8001202:	f001 fe1b 	bl	8002e3c <HAL_GPIO_WritePin>
			HAL_Delay(LASER_DELAY);
 8001206:	2000      	movs	r0, #0
 8001208:	f000 fbea 	bl	80019e0 <HAL_Delay>
			HAL_ADC_Start_DMA(&hadc1, (uint32_t*)adc_buf, ADC_BUF_LEN);
 800120c:	220a      	movs	r2, #10
 800120e:	491b      	ldr	r1, [pc, #108]	; (800127c <main+0x2f4>)
 8001210:	481b      	ldr	r0, [pc, #108]	; (8001280 <main+0x2f8>)
 8001212:	f000 fc4b 	bl	8001aac <HAL_ADC_Start_DMA>
		}
	}
	if (state == 4) {
 8001216:	4b1b      	ldr	r3, [pc, #108]	; (8001284 <main+0x2fc>)
 8001218:	681b      	ldr	r3, [r3, #0]
 800121a:	2b04      	cmp	r3, #4
 800121c:	f47f aed6 	bne.w	8000fcc <main+0x44>
		for (int j = 0; j < NUM_FREQS; j++) {
 8001220:	2300      	movs	r3, #0
 8001222:	617b      	str	r3, [r7, #20]
 8001224:	e01e      	b.n	8001264 <main+0x2dc>
			sprintf(msg, "%f\n", avg_freqs[j]);
 8001226:	4a1e      	ldr	r2, [pc, #120]	; (80012a0 <main+0x318>)
 8001228:	697b      	ldr	r3, [r7, #20]
 800122a:	009b      	lsls	r3, r3, #2
 800122c:	4413      	add	r3, r2
 800122e:	681b      	ldr	r3, [r3, #0]
 8001230:	4618      	mov	r0, r3
 8001232:	f7ff f9a9 	bl	8000588 <__aeabi_f2d>
 8001236:	4603      	mov	r3, r0
 8001238:	460c      	mov	r4, r1
 800123a:	4638      	mov	r0, r7
 800123c:	461a      	mov	r2, r3
 800123e:	4623      	mov	r3, r4
 8001240:	4919      	ldr	r1, [pc, #100]	; (80012a8 <main+0x320>)
 8001242:	f003 fccd 	bl	8004be0 <siprintf>
			HAL_UART_Transmit(&huart2, (uint8_t*)msg, strlen(msg), HAL_MAX_DELAY);
 8001246:	463b      	mov	r3, r7
 8001248:	4618      	mov	r0, r3
 800124a:	f7fe ffe1 	bl	8000210 <strlen>
 800124e:	4603      	mov	r3, r0
 8001250:	b29a      	uxth	r2, r3
 8001252:	4639      	mov	r1, r7
 8001254:	f04f 33ff 	mov.w	r3, #4294967295
 8001258:	4814      	ldr	r0, [pc, #80]	; (80012ac <main+0x324>)
 800125a:	f002 fbd4 	bl	8003a06 <HAL_UART_Transmit>
		for (int j = 0; j < NUM_FREQS; j++) {
 800125e:	697b      	ldr	r3, [r7, #20]
 8001260:	3301      	adds	r3, #1
 8001262:	617b      	str	r3, [r7, #20]
 8001264:	697b      	ldr	r3, [r7, #20]
 8001266:	f242 720f 	movw	r2, #9999	; 0x270f
 800126a:	4293      	cmp	r3, r2
 800126c:	dddb      	ble.n	8001226 <main+0x29e>
		}
		while (1) {
 800126e:	e7fe      	b.n	800126e <main+0x2e6>
 8001270:	66666666 	.word	0x66666666
 8001274:	400a6666 	.word	0x400a6666
 8001278:	40020000 	.word	0x40020000
 800127c:	20009f24 	.word	0x20009f24
 8001280:	2000023c 	.word	0x2000023c
 8001284:	200001fc 	.word	0x200001fc
 8001288:	20000214 	.word	0x20000214
 800128c:	20000200 	.word	0x20000200
 8001290:	66666667 	.word	0x66666667
 8001294:	40b00000 	.word	0x40b00000
 8001298:	200001f8 	.word	0x200001f8
 800129c:	20009f38 	.word	0x20009f38
 80012a0:	20000284 	.word	0x20000284
 80012a4:	20000204 	.word	0x20000204
 80012a8:	080063b8 	.word	0x080063b8
 80012ac:	20013b78 	.word	0x20013b78

080012b0 <SystemClock_Config>:
/**
  * @brief System Clock Configuration
  * @retval None
  */
void SystemClock_Config(void)
{
 80012b0:	b580      	push	{r7, lr}
 80012b2:	b094      	sub	sp, #80	; 0x50
 80012b4:	af00      	add	r7, sp, #0
  RCC_OscInitTypeDef RCC_OscInitStruct = {0};
 80012b6:	f107 031c 	add.w	r3, r7, #28
 80012ba:	2234      	movs	r2, #52	; 0x34
 80012bc:	2100      	movs	r1, #0
 80012be:	4618      	mov	r0, r3
 80012c0:	f003 f82a 	bl	8004318 <memset>
  RCC_ClkInitTypeDef RCC_ClkInitStruct = {0};
 80012c4:	f107 0308 	add.w	r3, r7, #8
 80012c8:	2200      	movs	r2, #0
 80012ca:	601a      	str	r2, [r3, #0]
 80012cc:	605a      	str	r2, [r3, #4]
 80012ce:	609a      	str	r2, [r3, #8]
 80012d0:	60da      	str	r2, [r3, #12]
 80012d2:	611a      	str	r2, [r3, #16]

  /** Configure the main internal regulator output voltage
  */
  __HAL_RCC_PWR_CLK_ENABLE();
 80012d4:	2300      	movs	r3, #0
 80012d6:	607b      	str	r3, [r7, #4]
 80012d8:	4b2c      	ldr	r3, [pc, #176]	; (800138c <SystemClock_Config+0xdc>)
 80012da:	6c1b      	ldr	r3, [r3, #64]	; 0x40
 80012dc:	4a2b      	ldr	r2, [pc, #172]	; (800138c <SystemClock_Config+0xdc>)
 80012de:	f043 5380 	orr.w	r3, r3, #268435456	; 0x10000000
 80012e2:	6413      	str	r3, [r2, #64]	; 0x40
 80012e4:	4b29      	ldr	r3, [pc, #164]	; (800138c <SystemClock_Config+0xdc>)
 80012e6:	6c1b      	ldr	r3, [r3, #64]	; 0x40
 80012e8:	f003 5380 	and.w	r3, r3, #268435456	; 0x10000000
 80012ec:	607b      	str	r3, [r7, #4]
 80012ee:	687b      	ldr	r3, [r7, #4]
  __HAL_PWR_VOLTAGESCALING_CONFIG(PWR_REGULATOR_VOLTAGE_SCALE1);
 80012f0:	2300      	movs	r3, #0
 80012f2:	603b      	str	r3, [r7, #0]
 80012f4:	4b26      	ldr	r3, [pc, #152]	; (8001390 <SystemClock_Config+0xe0>)
 80012f6:	681b      	ldr	r3, [r3, #0]
 80012f8:	4a25      	ldr	r2, [pc, #148]	; (8001390 <SystemClock_Config+0xe0>)
 80012fa:	f443 4340 	orr.w	r3, r3, #49152	; 0xc000
 80012fe:	6013      	str	r3, [r2, #0]
 8001300:	4b23      	ldr	r3, [pc, #140]	; (8001390 <SystemClock_Config+0xe0>)
 8001302:	681b      	ldr	r3, [r3, #0]
 8001304:	f403 4340 	and.w	r3, r3, #49152	; 0xc000
 8001308:	603b      	str	r3, [r7, #0]
 800130a:	683b      	ldr	r3, [r7, #0]
  /** Initializes the RCC Oscillators according to the specified parameters
  * in the RCC_OscInitTypeDef structure.
  */
  RCC_OscInitStruct.OscillatorType = RCC_OSCILLATORTYPE_HSI;
 800130c:	2302      	movs	r3, #2
 800130e:	61fb      	str	r3, [r7, #28]
  RCC_OscInitStruct.HSIState = RCC_HSI_ON;
 8001310:	2301      	movs	r3, #1
 8001312:	62bb      	str	r3, [r7, #40]	; 0x28
  RCC_OscInitStruct.HSICalibrationValue = RCC_HSICALIBRATION_DEFAULT;
 8001314:	2310      	movs	r3, #16
 8001316:	62fb      	str	r3, [r7, #44]	; 0x2c
  RCC_OscInitStruct.PLL.PLLState = RCC_PLL_ON;
 8001318:	2302      	movs	r3, #2
 800131a:	637b      	str	r3, [r7, #52]	; 0x34
  RCC_OscInitStruct.PLL.PLLSource = RCC_PLLSOURCE_HSI;
 800131c:	2300      	movs	r3, #0
 800131e:	63bb      	str	r3, [r7, #56]	; 0x38
  RCC_OscInitStruct.PLL.PLLM = 8;
 8001320:	2308      	movs	r3, #8
 8001322:	63fb      	str	r3, [r7, #60]	; 0x3c
  RCC_OscInitStruct.PLL.PLLN = 180;
 8001324:	23b4      	movs	r3, #180	; 0xb4
 8001326:	643b      	str	r3, [r7, #64]	; 0x40
  RCC_OscInitStruct.PLL.PLLP = RCC_PLLP_DIV2;
 8001328:	2302      	movs	r3, #2
 800132a:	647b      	str	r3, [r7, #68]	; 0x44
  RCC_OscInitStruct.PLL.PLLQ = 2;
 800132c:	2302      	movs	r3, #2
 800132e:	64bb      	str	r3, [r7, #72]	; 0x48
  RCC_OscInitStruct.PLL.PLLR = 2;
 8001330:	2302      	movs	r3, #2
 8001332:	64fb      	str	r3, [r7, #76]	; 0x4c
  if (HAL_RCC_OscConfig(&RCC_OscInitStruct) != HAL_OK)
 8001334:	f107 031c 	add.w	r3, r7, #28
 8001338:	4618      	mov	r0, r3
 800133a:	f002 f8bd 	bl	80034b8 <HAL_RCC_OscConfig>
 800133e:	4603      	mov	r3, r0
 8001340:	2b00      	cmp	r3, #0
 8001342:	d001      	beq.n	8001348 <SystemClock_Config+0x98>
  {
    Error_Handler();
 8001344:	f000 f944 	bl	80015d0 <Error_Handler>
  }
  /** Activate the Over-Drive mode
  */
  if (HAL_PWREx_EnableOverDrive() != HAL_OK)
 8001348:	f001 fdac 	bl	8002ea4 <HAL_PWREx_EnableOverDrive>
 800134c:	4603      	mov	r3, r0
 800134e:	2b00      	cmp	r3, #0
 8001350:	d001      	beq.n	8001356 <SystemClock_Config+0xa6>
  {
    Error_Handler();
 8001352:	f000 f93d 	bl	80015d0 <Error_Handler>
  }
  /** Initializes the CPU, AHB and APB buses clocks
  */
  RCC_ClkInitStruct.ClockType = RCC_CLOCKTYPE_HCLK|RCC_CLOCKTYPE_SYSCLK
 8001356:	230f      	movs	r3, #15
 8001358:	60bb      	str	r3, [r7, #8]
                              |RCC_CLOCKTYPE_PCLK1|RCC_CLOCKTYPE_PCLK2;
  RCC_ClkInitStruct.SYSCLKSource = RCC_SYSCLKSOURCE_PLLCLK;
 800135a:	2302      	movs	r3, #2
 800135c:	60fb      	str	r3, [r7, #12]
  RCC_ClkInitStruct.AHBCLKDivider = RCC_SYSCLK_DIV1;
 800135e:	2300      	movs	r3, #0
 8001360:	613b      	str	r3, [r7, #16]
  RCC_ClkInitStruct.APB1CLKDivider = RCC_HCLK_DIV4;
 8001362:	f44f 53a0 	mov.w	r3, #5120	; 0x1400
 8001366:	617b      	str	r3, [r7, #20]
  RCC_ClkInitStruct.APB2CLKDivider = RCC_HCLK_DIV2;
 8001368:	f44f 5380 	mov.w	r3, #4096	; 0x1000
 800136c:	61bb      	str	r3, [r7, #24]

  if (HAL_RCC_ClockConfig(&RCC_ClkInitStruct, FLASH_LATENCY_5) != HAL_OK)
 800136e:	f107 0308 	add.w	r3, r7, #8
 8001372:	2105      	movs	r1, #5
 8001374:	4618      	mov	r0, r3
 8001376:	f001 fde5 	bl	8002f44 <HAL_RCC_ClockConfig>
 800137a:	4603      	mov	r3, r0
 800137c:	2b00      	cmp	r3, #0
 800137e:	d001      	beq.n	8001384 <SystemClock_Config+0xd4>
  {
    Error_Handler();
 8001380:	f000 f926 	bl	80015d0 <Error_Handler>
  }
}
 8001384:	bf00      	nop
 8001386:	3750      	adds	r7, #80	; 0x50
 8001388:	46bd      	mov	sp, r7
 800138a:	bd80      	pop	{r7, pc}
 800138c:	40023800 	.word	0x40023800
 8001390:	40007000 	.word	0x40007000

08001394 <MX_ADC1_Init>:
  * @brief ADC1 Initialization Function
  * @param None
  * @retval None
  */
static void MX_ADC1_Init(void)
{
 8001394:	b580      	push	{r7, lr}
 8001396:	b084      	sub	sp, #16
 8001398:	af00      	add	r7, sp, #0

  /* USER CODE BEGIN ADC1_Init 0 */

  /* USER CODE END ADC1_Init 0 */

  ADC_ChannelConfTypeDef sConfig = {0};
 800139a:	463b      	mov	r3, r7
 800139c:	2200      	movs	r2, #0
 800139e:	601a      	str	r2, [r3, #0]
 80013a0:	605a      	str	r2, [r3, #4]
 80013a2:	609a      	str	r2, [r3, #8]
 80013a4:	60da      	str	r2, [r3, #12]
  /* USER CODE BEGIN ADC1_Init 1 */

  /* USER CODE END ADC1_Init 1 */
  /** Configure the global features of the ADC (Clock, Resolution, Data Alignment and number of conversion)
  */
  hadc1.Instance = ADC1;
 80013a6:	4b21      	ldr	r3, [pc, #132]	; (800142c <MX_ADC1_Init+0x98>)
 80013a8:	4a21      	ldr	r2, [pc, #132]	; (8001430 <MX_ADC1_Init+0x9c>)
 80013aa:	601a      	str	r2, [r3, #0]
  hadc1.Init.ClockPrescaler = ADC_CLOCK_SYNC_PCLK_DIV4;
 80013ac:	4b1f      	ldr	r3, [pc, #124]	; (800142c <MX_ADC1_Init+0x98>)
 80013ae:	f44f 3280 	mov.w	r2, #65536	; 0x10000
 80013b2:	605a      	str	r2, [r3, #4]
  hadc1.Init.Resolution = ADC_RESOLUTION_12B;
 80013b4:	4b1d      	ldr	r3, [pc, #116]	; (800142c <MX_ADC1_Init+0x98>)
 80013b6:	2200      	movs	r2, #0
 80013b8:	609a      	str	r2, [r3, #8]
  hadc1.Init.ScanConvMode = DISABLE;
 80013ba:	4b1c      	ldr	r3, [pc, #112]	; (800142c <MX_ADC1_Init+0x98>)
 80013bc:	2200      	movs	r2, #0
 80013be:	611a      	str	r2, [r3, #16]
  hadc1.Init.ContinuousConvMode = ENABLE;
 80013c0:	4b1a      	ldr	r3, [pc, #104]	; (800142c <MX_ADC1_Init+0x98>)
 80013c2:	2201      	movs	r2, #1
 80013c4:	761a      	strb	r2, [r3, #24]
  hadc1.Init.DiscontinuousConvMode = DISABLE;
 80013c6:	4b19      	ldr	r3, [pc, #100]	; (800142c <MX_ADC1_Init+0x98>)
 80013c8:	2200      	movs	r2, #0
 80013ca:	f883 2020 	strb.w	r2, [r3, #32]
  hadc1.Init.ExternalTrigConvEdge = ADC_EXTERNALTRIGCONVEDGE_NONE;
 80013ce:	4b17      	ldr	r3, [pc, #92]	; (800142c <MX_ADC1_Init+0x98>)
 80013d0:	2200      	movs	r2, #0
 80013d2:	62da      	str	r2, [r3, #44]	; 0x2c
  hadc1.Init.ExternalTrigConv = ADC_SOFTWARE_START;
 80013d4:	4b15      	ldr	r3, [pc, #84]	; (800142c <MX_ADC1_Init+0x98>)
 80013d6:	4a17      	ldr	r2, [pc, #92]	; (8001434 <MX_ADC1_Init+0xa0>)
 80013d8:	629a      	str	r2, [r3, #40]	; 0x28
  hadc1.Init.DataAlign = ADC_DATAALIGN_RIGHT;
 80013da:	4b14      	ldr	r3, [pc, #80]	; (800142c <MX_ADC1_Init+0x98>)
 80013dc:	2200      	movs	r2, #0
 80013de:	60da      	str	r2, [r3, #12]
  hadc1.Init.NbrOfConversion = 1;
 80013e0:	4b12      	ldr	r3, [pc, #72]	; (800142c <MX_ADC1_Init+0x98>)
 80013e2:	2201      	movs	r2, #1
 80013e4:	61da      	str	r2, [r3, #28]
  hadc1.Init.DMAContinuousRequests = ENABLE;
 80013e6:	4b11      	ldr	r3, [pc, #68]	; (800142c <MX_ADC1_Init+0x98>)
 80013e8:	2201      	movs	r2, #1
 80013ea:	f883 2030 	strb.w	r2, [r3, #48]	; 0x30
  hadc1.Init.EOCSelection = ADC_EOC_SINGLE_CONV;
 80013ee:	4b0f      	ldr	r3, [pc, #60]	; (800142c <MX_ADC1_Init+0x98>)
 80013f0:	2201      	movs	r2, #1
 80013f2:	615a      	str	r2, [r3, #20]
  if (HAL_ADC_Init(&hadc1) != HAL_OK)
 80013f4:	480d      	ldr	r0, [pc, #52]	; (800142c <MX_ADC1_Init+0x98>)
 80013f6:	f000 fb15 	bl	8001a24 <HAL_ADC_Init>
 80013fa:	4603      	mov	r3, r0
 80013fc:	2b00      	cmp	r3, #0
 80013fe:	d001      	beq.n	8001404 <MX_ADC1_Init+0x70>
  {
    Error_Handler();
 8001400:	f000 f8e6 	bl	80015d0 <Error_Handler>
  }
  /** Configure for the selected ADC regular channel its corresponding rank in the sequencer and its sample time.
  */
  sConfig.Channel = ADC_CHANNEL_1;
 8001404:	2301      	movs	r3, #1
 8001406:	603b      	str	r3, [r7, #0]
  sConfig.Rank = 1;
 8001408:	2301      	movs	r3, #1
 800140a:	607b      	str	r3, [r7, #4]
  sConfig.SamplingTime = ADC_SAMPLETIME_3CYCLES;
 800140c:	2300      	movs	r3, #0
 800140e:	60bb      	str	r3, [r7, #8]
  if (HAL_ADC_ConfigChannel(&hadc1, &sConfig) != HAL_OK)
 8001410:	463b      	mov	r3, r7
 8001412:	4619      	mov	r1, r3
 8001414:	4805      	ldr	r0, [pc, #20]	; (800142c <MX_ADC1_Init+0x98>)
 8001416:	f000 fc4f 	bl	8001cb8 <HAL_ADC_ConfigChannel>
 800141a:	4603      	mov	r3, r0
 800141c:	2b00      	cmp	r3, #0
 800141e:	d001      	beq.n	8001424 <MX_ADC1_Init+0x90>
  {
    Error_Handler();
 8001420:	f000 f8d6 	bl	80015d0 <Error_Handler>
  }
  /* USER CODE BEGIN ADC1_Init 2 */

  /* USER CODE END ADC1_Init 2 */

}
 8001424:	bf00      	nop
 8001426:	3710      	adds	r7, #16
 8001428:	46bd      	mov	sp, r7
 800142a:	bd80      	pop	{r7, pc}
 800142c:	2000023c 	.word	0x2000023c
 8001430:	40012000 	.word	0x40012000
 8001434:	0f000001 	.word	0x0f000001

08001438 <MX_USART2_UART_Init>:
  * @brief USART2 Initialization Function
  * @param None
  * @retval None
  */
static void MX_USART2_UART_Init(void)
{
 8001438:	b580      	push	{r7, lr}
 800143a:	af00      	add	r7, sp, #0
  /* USER CODE END USART2_Init 0 */

  /* USER CODE BEGIN USART2_Init 1 */

  /* USER CODE END USART2_Init 1 */
  huart2.Instance = USART2;
 800143c:	4b11      	ldr	r3, [pc, #68]	; (8001484 <MX_USART2_UART_Init+0x4c>)
 800143e:	4a12      	ldr	r2, [pc, #72]	; (8001488 <MX_USART2_UART_Init+0x50>)
 8001440:	601a      	str	r2, [r3, #0]
  huart2.Init.BaudRate = 115200;
 8001442:	4b10      	ldr	r3, [pc, #64]	; (8001484 <MX_USART2_UART_Init+0x4c>)
 8001444:	f44f 32e1 	mov.w	r2, #115200	; 0x1c200
 8001448:	605a      	str	r2, [r3, #4]
  huart2.Init.WordLength = UART_WORDLENGTH_8B;
 800144a:	4b0e      	ldr	r3, [pc, #56]	; (8001484 <MX_USART2_UART_Init+0x4c>)
 800144c:	2200      	movs	r2, #0
 800144e:	609a      	str	r2, [r3, #8]
  huart2.Init.StopBits = UART_STOPBITS_1;
 8001450:	4b0c      	ldr	r3, [pc, #48]	; (8001484 <MX_USART2_UART_Init+0x4c>)
 8001452:	2200      	movs	r2, #0
 8001454:	60da      	str	r2, [r3, #12]
  huart2.Init.Parity = UART_PARITY_NONE;
 8001456:	4b0b      	ldr	r3, [pc, #44]	; (8001484 <MX_USART2_UART_Init+0x4c>)
 8001458:	2200      	movs	r2, #0
 800145a:	611a      	str	r2, [r3, #16]
  huart2.Init.Mode = UART_MODE_TX_RX;
 800145c:	4b09      	ldr	r3, [pc, #36]	; (8001484 <MX_USART2_UART_Init+0x4c>)
 800145e:	220c      	movs	r2, #12
 8001460:	615a      	str	r2, [r3, #20]
  huart2.Init.HwFlowCtl = UART_HWCONTROL_NONE;
 8001462:	4b08      	ldr	r3, [pc, #32]	; (8001484 <MX_USART2_UART_Init+0x4c>)
 8001464:	2200      	movs	r2, #0
 8001466:	619a      	str	r2, [r3, #24]
  huart2.Init.OverSampling = UART_OVERSAMPLING_16;
 8001468:	4b06      	ldr	r3, [pc, #24]	; (8001484 <MX_USART2_UART_Init+0x4c>)
 800146a:	2200      	movs	r2, #0
 800146c:	61da      	str	r2, [r3, #28]
  if (HAL_UART_Init(&huart2) != HAL_OK)
 800146e:	4805      	ldr	r0, [pc, #20]	; (8001484 <MX_USART2_UART_Init+0x4c>)
 8001470:	f002 fa7c 	bl	800396c <HAL_UART_Init>
 8001474:	4603      	mov	r3, r0
 8001476:	2b00      	cmp	r3, #0
 8001478:	d001      	beq.n	800147e <MX_USART2_UART_Init+0x46>
  {
    Error_Handler();
 800147a:	f000 f8a9 	bl	80015d0 <Error_Handler>
  }
  /* USER CODE BEGIN USART2_Init 2 */

  /* USER CODE END USART2_Init 2 */

}
 800147e:	bf00      	nop
 8001480:	bd80      	pop	{r7, pc}
 8001482:	bf00      	nop
 8001484:	20013b78 	.word	0x20013b78
 8001488:	40004400 	.word	0x40004400

0800148c <MX_DMA_Init>:

/**
  * Enable DMA controller clock
  */
static void MX_DMA_Init(void)
{
 800148c:	b580      	push	{r7, lr}
 800148e:	b082      	sub	sp, #8
 8001490:	af00      	add	r7, sp, #0

  /* DMA controller clock enable */
  __HAL_RCC_DMA2_CLK_ENABLE();
 8001492:	2300      	movs	r3, #0
 8001494:	607b      	str	r3, [r7, #4]
 8001496:	4b0c      	ldr	r3, [pc, #48]	; (80014c8 <MX_DMA_Init+0x3c>)
 8001498:	6b1b      	ldr	r3, [r3, #48]	; 0x30
 800149a:	4a0b      	ldr	r2, [pc, #44]	; (80014c8 <MX_DMA_Init+0x3c>)
 800149c:	f443 0380 	orr.w	r3, r3, #4194304	; 0x400000
 80014a0:	6313      	str	r3, [r2, #48]	; 0x30
 80014a2:	4b09      	ldr	r3, [pc, #36]	; (80014c8 <MX_DMA_Init+0x3c>)
 80014a4:	6b1b      	ldr	r3, [r3, #48]	; 0x30
 80014a6:	f403 0380 	and.w	r3, r3, #4194304	; 0x400000
 80014aa:	607b      	str	r3, [r7, #4]
 80014ac:	687b      	ldr	r3, [r7, #4]

  /* DMA interrupt init */
  /* DMA2_Stream0_IRQn interrupt configuration */
  HAL_NVIC_SetPriority(DMA2_Stream0_IRQn, 0, 0);
 80014ae:	2200      	movs	r2, #0
 80014b0:	2100      	movs	r1, #0
 80014b2:	2038      	movs	r0, #56	; 0x38
 80014b4:	f000 ff8b 	bl	80023ce <HAL_NVIC_SetPriority>
  HAL_NVIC_EnableIRQ(DMA2_Stream0_IRQn);
 80014b8:	2038      	movs	r0, #56	; 0x38
 80014ba:	f000 ffa4 	bl	8002406 <HAL_NVIC_EnableIRQ>

}
 80014be:	bf00      	nop
 80014c0:	3708      	adds	r7, #8
 80014c2:	46bd      	mov	sp, r7
 80014c4:	bd80      	pop	{r7, pc}
 80014c6:	bf00      	nop
 80014c8:	40023800 	.word	0x40023800

080014cc <MX_GPIO_Init>:
  * @brief GPIO Initialization Function
  * @param None
  * @retval None
  */
static void MX_GPIO_Init(void)
{
 80014cc:	b580      	push	{r7, lr}
 80014ce:	b08a      	sub	sp, #40	; 0x28
 80014d0:	af00      	add	r7, sp, #0
  GPIO_InitTypeDef GPIO_InitStruct = {0};
 80014d2:	f107 0314 	add.w	r3, r7, #20
 80014d6:	2200      	movs	r2, #0
 80014d8:	601a      	str	r2, [r3, #0]
 80014da:	605a      	str	r2, [r3, #4]
 80014dc:	609a      	str	r2, [r3, #8]
 80014de:	60da      	str	r2, [r3, #12]
 80014e0:	611a      	str	r2, [r3, #16]

  /* GPIO Ports Clock Enable */
  __HAL_RCC_GPIOC_CLK_ENABLE();
 80014e2:	2300      	movs	r3, #0
 80014e4:	613b      	str	r3, [r7, #16]
 80014e6:	4b2e      	ldr	r3, [pc, #184]	; (80015a0 <MX_GPIO_Init+0xd4>)
 80014e8:	6b1b      	ldr	r3, [r3, #48]	; 0x30
 80014ea:	4a2d      	ldr	r2, [pc, #180]	; (80015a0 <MX_GPIO_Init+0xd4>)
 80014ec:	f043 0304 	orr.w	r3, r3, #4
 80014f0:	6313      	str	r3, [r2, #48]	; 0x30
 80014f2:	4b2b      	ldr	r3, [pc, #172]	; (80015a0 <MX_GPIO_Init+0xd4>)
 80014f4:	6b1b      	ldr	r3, [r3, #48]	; 0x30
 80014f6:	f003 0304 	and.w	r3, r3, #4
 80014fa:	613b      	str	r3, [r7, #16]
 80014fc:	693b      	ldr	r3, [r7, #16]
  __HAL_RCC_GPIOH_CLK_ENABLE();
 80014fe:	2300      	movs	r3, #0
 8001500:	60fb      	str	r3, [r7, #12]
 8001502:	4b27      	ldr	r3, [pc, #156]	; (80015a0 <MX_GPIO_Init+0xd4>)
 8001504:	6b1b      	ldr	r3, [r3, #48]	; 0x30
 8001506:	4a26      	ldr	r2, [pc, #152]	; (80015a0 <MX_GPIO_Init+0xd4>)
 8001508:	f043 0380 	orr.w	r3, r3, #128	; 0x80
 800150c:	6313      	str	r3, [r2, #48]	; 0x30
 800150e:	4b24      	ldr	r3, [pc, #144]	; (80015a0 <MX_GPIO_Init+0xd4>)
 8001510:	6b1b      	ldr	r3, [r3, #48]	; 0x30
 8001512:	f003 0380 	and.w	r3, r3, #128	; 0x80
 8001516:	60fb      	str	r3, [r7, #12]
 8001518:	68fb      	ldr	r3, [r7, #12]
  __HAL_RCC_GPIOA_CLK_ENABLE();
 800151a:	2300      	movs	r3, #0
 800151c:	60bb      	str	r3, [r7, #8]
 800151e:	4b20      	ldr	r3, [pc, #128]	; (80015a0 <MX_GPIO_Init+0xd4>)
 8001520:	6b1b      	ldr	r3, [r3, #48]	; 0x30
 8001522:	4a1f      	ldr	r2, [pc, #124]	; (80015a0 <MX_GPIO_Init+0xd4>)
 8001524:	f043 0301 	orr.w	r3, r3, #1
 8001528:	6313      	str	r3, [r2, #48]	; 0x30
 800152a:	4b1d      	ldr	r3, [pc, #116]	; (80015a0 <MX_GPIO_Init+0xd4>)
 800152c:	6b1b      	ldr	r3, [r3, #48]	; 0x30
 800152e:	f003 0301 	and.w	r3, r3, #1
 8001532:	60bb      	str	r3, [r7, #8]
 8001534:	68bb      	ldr	r3, [r7, #8]
  __HAL_RCC_GPIOB_CLK_ENABLE();
 8001536:	2300      	movs	r3, #0
 8001538:	607b      	str	r3, [r7, #4]
 800153a:	4b19      	ldr	r3, [pc, #100]	; (80015a0 <MX_GPIO_Init+0xd4>)
 800153c:	6b1b      	ldr	r3, [r3, #48]	; 0x30
 800153e:	4a18      	ldr	r2, [pc, #96]	; (80015a0 <MX_GPIO_Init+0xd4>)
 8001540:	f043 0302 	orr.w	r3, r3, #2
 8001544:	6313      	str	r3, [r2, #48]	; 0x30
 8001546:	4b16      	ldr	r3, [pc, #88]	; (80015a0 <MX_GPIO_Init+0xd4>)
 8001548:	6b1b      	ldr	r3, [r3, #48]	; 0x30
 800154a:	f003 0302 	and.w	r3, r3, #2
 800154e:	607b      	str	r3, [r7, #4]
 8001550:	687b      	ldr	r3, [r7, #4]

  /*Configure GPIO pin Output Level */
  HAL_GPIO_WritePin(GPIOA, LD2_Pin|GPIO_PIN_10, GPIO_PIN_RESET);
 8001552:	2200      	movs	r2, #0
 8001554:	f44f 6184 	mov.w	r1, #1056	; 0x420
 8001558:	4812      	ldr	r0, [pc, #72]	; (80015a4 <MX_GPIO_Init+0xd8>)
 800155a:	f001 fc6f 	bl	8002e3c <HAL_GPIO_WritePin>

  /*Configure GPIO pin : B1_Pin */
  GPIO_InitStruct.Pin = B1_Pin;
 800155e:	f44f 5300 	mov.w	r3, #8192	; 0x2000
 8001562:	617b      	str	r3, [r7, #20]
  GPIO_InitStruct.Mode = GPIO_MODE_IT_FALLING;
 8001564:	4b10      	ldr	r3, [pc, #64]	; (80015a8 <MX_GPIO_Init+0xdc>)
 8001566:	61bb      	str	r3, [r7, #24]
  GPIO_InitStruct.Pull = GPIO_NOPULL;
 8001568:	2300      	movs	r3, #0
 800156a:	61fb      	str	r3, [r7, #28]
  HAL_GPIO_Init(B1_GPIO_Port, &GPIO_InitStruct);
 800156c:	f107 0314 	add.w	r3, r7, #20
 8001570:	4619      	mov	r1, r3
 8001572:	480e      	ldr	r0, [pc, #56]	; (80015ac <MX_GPIO_Init+0xe0>)
 8001574:	f001 fad0 	bl	8002b18 <HAL_GPIO_Init>

  /*Configure GPIO pins : LD2_Pin PA10 */
  GPIO_InitStruct.Pin = LD2_Pin|GPIO_PIN_10;
 8001578:	f44f 6384 	mov.w	r3, #1056	; 0x420
 800157c:	617b      	str	r3, [r7, #20]
  GPIO_InitStruct.Mode = GPIO_MODE_OUTPUT_PP;
 800157e:	2301      	movs	r3, #1
 8001580:	61bb      	str	r3, [r7, #24]
  GPIO_InitStruct.Pull = GPIO_NOPULL;
 8001582:	2300      	movs	r3, #0
 8001584:	61fb      	str	r3, [r7, #28]
  GPIO_InitStruct.Speed = GPIO_SPEED_FREQ_LOW;
 8001586:	2300      	movs	r3, #0
 8001588:	623b      	str	r3, [r7, #32]
  HAL_GPIO_Init(GPIOA, &GPIO_InitStruct);
 800158a:	f107 0314 	add.w	r3, r7, #20
 800158e:	4619      	mov	r1, r3
 8001590:	4804      	ldr	r0, [pc, #16]	; (80015a4 <MX_GPIO_Init+0xd8>)
 8001592:	f001 fac1 	bl	8002b18 <HAL_GPIO_Init>

}
 8001596:	bf00      	nop
 8001598:	3728      	adds	r7, #40	; 0x28
 800159a:	46bd      	mov	sp, r7
 800159c:	bd80      	pop	{r7, pc}
 800159e:	bf00      	nop
 80015a0:	40023800 	.word	0x40023800
 80015a4:	40020000 	.word	0x40020000
 80015a8:	10210000 	.word	0x10210000
 80015ac:	40020800 	.word	0x40020800

080015b0 <HAL_ADC_ConvCpltCallback>:
/*
void HAL_ADC_ConvHalfCpltCallback(ADC_HandleTypeDef* hadc) {
	HAL_GPIO_WritePin(LD2_GPIO_Port, LD2_Pin, GPIO_PIN_SET);
}
*/
void HAL_ADC_ConvCpltCallback(ADC_HandleTypeDef* hadc) {
 80015b0:	b480      	push	{r7}
 80015b2:	b083      	sub	sp, #12
 80015b4:	af00      	add	r7, sp, #0
 80015b6:	6078      	str	r0, [r7, #4]
	//HAL_GPIO_WritePin(LD2_GPIO_Port, LD2_Pin, GPIO_PIN_RESET);
	state = 1;
 80015b8:	4b04      	ldr	r3, [pc, #16]	; (80015cc <HAL_ADC_ConvCpltCallback+0x1c>)
 80015ba:	2201      	movs	r2, #1
 80015bc:	601a      	str	r2, [r3, #0]
}
 80015be:	bf00      	nop
 80015c0:	370c      	adds	r7, #12
 80015c2:	46bd      	mov	sp, r7
 80015c4:	f85d 7b04 	ldr.w	r7, [sp], #4
 80015c8:	4770      	bx	lr
 80015ca:	bf00      	nop
 80015cc:	200001fc 	.word	0x200001fc

080015d0 <Error_Handler>:
/**
  * @brief  This function is executed in case of error occurrence.
  * @retval None
  */
void Error_Handler(void)
{
 80015d0:	b480      	push	{r7}
 80015d2:	af00      	add	r7, sp, #0
  \details Disables IRQ interrupts by setting the I-bit in the CPSR.
           Can only be executed in Privileged modes.
 */
__STATIC_FORCEINLINE void __disable_irq(void)
{
  __ASM volatile ("cpsid i" : : : "memory");
 80015d4:	b672      	cpsid	i
  /* USER CODE BEGIN Error_Handler_Debug */
  /* User can add his own implementation to report the HAL error return state */
  __disable_irq();
  while (1)
 80015d6:	e7fe      	b.n	80015d6 <Error_Handler+0x6>

080015d8 <HAL_MspInit>:
/* USER CODE END 0 */
/**
  * Initializes the Global MSP.
  */
void HAL_MspInit(void)
{
 80015d8:	b580      	push	{r7, lr}
 80015da:	b082      	sub	sp, #8
 80015dc:	af00      	add	r7, sp, #0
  /* USER CODE BEGIN MspInit 0 */

  /* USER CODE END MspInit 0 */

  __HAL_RCC_SYSCFG_CLK_ENABLE();
 80015de:	2300      	movs	r3, #0
 80015e0:	607b      	str	r3, [r7, #4]
 80015e2:	4b10      	ldr	r3, [pc, #64]	; (8001624 <HAL_MspInit+0x4c>)
 80015e4:	6c5b      	ldr	r3, [r3, #68]	; 0x44
 80015e6:	4a0f      	ldr	r2, [pc, #60]	; (8001624 <HAL_MspInit+0x4c>)
 80015e8:	f443 4380 	orr.w	r3, r3, #16384	; 0x4000
 80015ec:	6453      	str	r3, [r2, #68]	; 0x44
 80015ee:	4b0d      	ldr	r3, [pc, #52]	; (8001624 <HAL_MspInit+0x4c>)
 80015f0:	6c5b      	ldr	r3, [r3, #68]	; 0x44
 80015f2:	f403 4380 	and.w	r3, r3, #16384	; 0x4000
 80015f6:	607b      	str	r3, [r7, #4]
 80015f8:	687b      	ldr	r3, [r7, #4]
  __HAL_RCC_PWR_CLK_ENABLE();
 80015fa:	2300      	movs	r3, #0
 80015fc:	603b      	str	r3, [r7, #0]
 80015fe:	4b09      	ldr	r3, [pc, #36]	; (8001624 <HAL_MspInit+0x4c>)
 8001600:	6c1b      	ldr	r3, [r3, #64]	; 0x40
 8001602:	4a08      	ldr	r2, [pc, #32]	; (8001624 <HAL_MspInit+0x4c>)
 8001604:	f043 5380 	orr.w	r3, r3, #268435456	; 0x10000000
 8001608:	6413      	str	r3, [r2, #64]	; 0x40
 800160a:	4b06      	ldr	r3, [pc, #24]	; (8001624 <HAL_MspInit+0x4c>)
 800160c:	6c1b      	ldr	r3, [r3, #64]	; 0x40
 800160e:	f003 5380 	and.w	r3, r3, #268435456	; 0x10000000
 8001612:	603b      	str	r3, [r7, #0]
 8001614:	683b      	ldr	r3, [r7, #0]

  HAL_NVIC_SetPriorityGrouping(NVIC_PRIORITYGROUP_0);
 8001616:	2007      	movs	r0, #7
 8001618:	f000 fece 	bl	80023b8 <HAL_NVIC_SetPriorityGrouping>
  /* System interrupt init*/

  /* USER CODE BEGIN MspInit 1 */

  /* USER CODE END MspInit 1 */
}
 800161c:	bf00      	nop
 800161e:	3708      	adds	r7, #8
 8001620:	46bd      	mov	sp, r7
 8001622:	bd80      	pop	{r7, pc}
 8001624:	40023800 	.word	0x40023800

08001628 <HAL_ADC_MspInit>:
* This function configures the hardware resources used in this example
* @param hadc: ADC handle pointer
* @retval None
*/
void HAL_ADC_MspInit(ADC_HandleTypeDef* hadc)
{
 8001628:	b580      	push	{r7, lr}
 800162a:	b08a      	sub	sp, #40	; 0x28
 800162c:	af00      	add	r7, sp, #0
 800162e:	6078      	str	r0, [r7, #4]
  GPIO_InitTypeDef GPIO_InitStruct = {0};
 8001630:	f107 0314 	add.w	r3, r7, #20
 8001634:	2200      	movs	r2, #0
 8001636:	601a      	str	r2, [r3, #0]
 8001638:	605a      	str	r2, [r3, #4]
 800163a:	609a      	str	r2, [r3, #8]
 800163c:	60da      	str	r2, [r3, #12]
 800163e:	611a      	str	r2, [r3, #16]
  if(hadc->Instance==ADC1)
 8001640:	687b      	ldr	r3, [r7, #4]
 8001642:	681b      	ldr	r3, [r3, #0]
 8001644:	4a2f      	ldr	r2, [pc, #188]	; (8001704 <HAL_ADC_MspInit+0xdc>)
 8001646:	4293      	cmp	r3, r2
 8001648:	d157      	bne.n	80016fa <HAL_ADC_MspInit+0xd2>
  {
  /* USER CODE BEGIN ADC1_MspInit 0 */

  /* USER CODE END ADC1_MspInit 0 */
    /* Peripheral clock enable */
    __HAL_RCC_ADC1_CLK_ENABLE();
 800164a:	2300      	movs	r3, #0
 800164c:	613b      	str	r3, [r7, #16]
 800164e:	4b2e      	ldr	r3, [pc, #184]	; (8001708 <HAL_ADC_MspInit+0xe0>)
 8001650:	6c5b      	ldr	r3, [r3, #68]	; 0x44
 8001652:	4a2d      	ldr	r2, [pc, #180]	; (8001708 <HAL_ADC_MspInit+0xe0>)
 8001654:	f443 7380 	orr.w	r3, r3, #256	; 0x100
 8001658:	6453      	str	r3, [r2, #68]	; 0x44
 800165a:	4b2b      	ldr	r3, [pc, #172]	; (8001708 <HAL_ADC_MspInit+0xe0>)
 800165c:	6c5b      	ldr	r3, [r3, #68]	; 0x44
 800165e:	f403 7380 	and.w	r3, r3, #256	; 0x100
 8001662:	613b      	str	r3, [r7, #16]
 8001664:	693b      	ldr	r3, [r7, #16]

    __HAL_RCC_GPIOA_CLK_ENABLE();
 8001666:	2300      	movs	r3, #0
 8001668:	60fb      	str	r3, [r7, #12]
 800166a:	4b27      	ldr	r3, [pc, #156]	; (8001708 <HAL_ADC_MspInit+0xe0>)
 800166c:	6b1b      	ldr	r3, [r3, #48]	; 0x30
 800166e:	4a26      	ldr	r2, [pc, #152]	; (8001708 <HAL_ADC_MspInit+0xe0>)
 8001670:	f043 0301 	orr.w	r3, r3, #1
 8001674:	6313      	str	r3, [r2, #48]	; 0x30
 8001676:	4b24      	ldr	r3, [pc, #144]	; (8001708 <HAL_ADC_MspInit+0xe0>)
 8001678:	6b1b      	ldr	r3, [r3, #48]	; 0x30
 800167a:	f003 0301 	and.w	r3, r3, #1
 800167e:	60fb      	str	r3, [r7, #12]
 8001680:	68fb      	ldr	r3, [r7, #12]
    /**ADC1 GPIO Configuration
    PA1     ------> ADC1_IN1
    */
    GPIO_InitStruct.Pin = GPIO_PIN_1;
 8001682:	2302      	movs	r3, #2
 8001684:	617b      	str	r3, [r7, #20]
    GPIO_InitStruct.Mode = GPIO_MODE_ANALOG;
 8001686:	2303      	movs	r3, #3
 8001688:	61bb      	str	r3, [r7, #24]
    GPIO_InitStruct.Pull = GPIO_NOPULL;
 800168a:	2300      	movs	r3, #0
 800168c:	61fb      	str	r3, [r7, #28]
    HAL_GPIO_Init(GPIOA, &GPIO_InitStruct);
 800168e:	f107 0314 	add.w	r3, r7, #20
 8001692:	4619      	mov	r1, r3
 8001694:	481d      	ldr	r0, [pc, #116]	; (800170c <HAL_ADC_MspInit+0xe4>)
 8001696:	f001 fa3f 	bl	8002b18 <HAL_GPIO_Init>

    /* ADC1 DMA Init */
    /* ADC1 Init */
    hdma_adc1.Instance = DMA2_Stream0;
 800169a:	4b1d      	ldr	r3, [pc, #116]	; (8001710 <HAL_ADC_MspInit+0xe8>)
 800169c:	4a1d      	ldr	r2, [pc, #116]	; (8001714 <HAL_ADC_MspInit+0xec>)
 800169e:	601a      	str	r2, [r3, #0]
    hdma_adc1.Init.Channel = DMA_CHANNEL_0;
 80016a0:	4b1b      	ldr	r3, [pc, #108]	; (8001710 <HAL_ADC_MspInit+0xe8>)
 80016a2:	2200      	movs	r2, #0
 80016a4:	605a      	str	r2, [r3, #4]
    hdma_adc1.Init.Direction = DMA_PERIPH_TO_MEMORY;
 80016a6:	4b1a      	ldr	r3, [pc, #104]	; (8001710 <HAL_ADC_MspInit+0xe8>)
 80016a8:	2200      	movs	r2, #0
 80016aa:	609a      	str	r2, [r3, #8]
    hdma_adc1.Init.PeriphInc = DMA_PINC_DISABLE;
 80016ac:	4b18      	ldr	r3, [pc, #96]	; (8001710 <HAL_ADC_MspInit+0xe8>)
 80016ae:	2200      	movs	r2, #0
 80016b0:	60da      	str	r2, [r3, #12]
    hdma_adc1.Init.MemInc = DMA_MINC_ENABLE;
 80016b2:	4b17      	ldr	r3, [pc, #92]	; (8001710 <HAL_ADC_MspInit+0xe8>)
 80016b4:	f44f 6280 	mov.w	r2, #1024	; 0x400
 80016b8:	611a      	str	r2, [r3, #16]
    hdma_adc1.Init.PeriphDataAlignment = DMA_PDATAALIGN_HALFWORD;
 80016ba:	4b15      	ldr	r3, [pc, #84]	; (8001710 <HAL_ADC_MspInit+0xe8>)
 80016bc:	f44f 6200 	mov.w	r2, #2048	; 0x800
 80016c0:	615a      	str	r2, [r3, #20]
    hdma_adc1.Init.MemDataAlignment = DMA_MDATAALIGN_HALFWORD;
 80016c2:	4b13      	ldr	r3, [pc, #76]	; (8001710 <HAL_ADC_MspInit+0xe8>)
 80016c4:	f44f 5200 	mov.w	r2, #8192	; 0x2000
 80016c8:	619a      	str	r2, [r3, #24]
    hdma_adc1.Init.Mode = DMA_NORMAL;
 80016ca:	4b11      	ldr	r3, [pc, #68]	; (8001710 <HAL_ADC_MspInit+0xe8>)
 80016cc:	2200      	movs	r2, #0
 80016ce:	61da      	str	r2, [r3, #28]
    hdma_adc1.Init.Priority = DMA_PRIORITY_VERY_HIGH;
 80016d0:	4b0f      	ldr	r3, [pc, #60]	; (8001710 <HAL_ADC_MspInit+0xe8>)
 80016d2:	f44f 3240 	mov.w	r2, #196608	; 0x30000
 80016d6:	621a      	str	r2, [r3, #32]
    hdma_adc1.Init.FIFOMode = DMA_FIFOMODE_DISABLE;
 80016d8:	4b0d      	ldr	r3, [pc, #52]	; (8001710 <HAL_ADC_MspInit+0xe8>)
 80016da:	2200      	movs	r2, #0
 80016dc:	625a      	str	r2, [r3, #36]	; 0x24
    if (HAL_DMA_Init(&hdma_adc1) != HAL_OK)
 80016de:	480c      	ldr	r0, [pc, #48]	; (8001710 <HAL_ADC_MspInit+0xe8>)
 80016e0:	f000 feac 	bl	800243c <HAL_DMA_Init>
 80016e4:	4603      	mov	r3, r0
 80016e6:	2b00      	cmp	r3, #0
 80016e8:	d001      	beq.n	80016ee <HAL_ADC_MspInit+0xc6>
    {
      Error_Handler();
 80016ea:	f7ff ff71 	bl	80015d0 <Error_Handler>
    }

    __HAL_LINKDMA(hadc,DMA_Handle,hdma_adc1);
 80016ee:	687b      	ldr	r3, [r7, #4]
 80016f0:	4a07      	ldr	r2, [pc, #28]	; (8001710 <HAL_ADC_MspInit+0xe8>)
 80016f2:	639a      	str	r2, [r3, #56]	; 0x38
 80016f4:	4a06      	ldr	r2, [pc, #24]	; (8001710 <HAL_ADC_MspInit+0xe8>)
 80016f6:	687b      	ldr	r3, [r7, #4]
 80016f8:	6393      	str	r3, [r2, #56]	; 0x38
  /* USER CODE BEGIN ADC1_MspInit 1 */

  /* USER CODE END ADC1_MspInit 1 */
  }

}
 80016fa:	bf00      	nop
 80016fc:	3728      	adds	r7, #40	; 0x28
 80016fe:	46bd      	mov	sp, r7
 8001700:	bd80      	pop	{r7, pc}
 8001702:	bf00      	nop
 8001704:	40012000 	.word	0x40012000
 8001708:	40023800 	.word	0x40023800
 800170c:	40020000 	.word	0x40020000
 8001710:	20009ec4 	.word	0x20009ec4
 8001714:	40026410 	.word	0x40026410

08001718 <HAL_UART_MspInit>:
* This function configures the hardware resources used in this example
* @param huart: UART handle pointer
* @retval None
*/
void HAL_UART_MspInit(UART_HandleTypeDef* huart)
{
 8001718:	b580      	push	{r7, lr}
 800171a:	b08a      	sub	sp, #40	; 0x28
 800171c:	af00      	add	r7, sp, #0
 800171e:	6078      	str	r0, [r7, #4]
  GPIO_InitTypeDef GPIO_InitStruct = {0};
 8001720:	f107 0314 	add.w	r3, r7, #20
 8001724:	2200      	movs	r2, #0
 8001726:	601a      	str	r2, [r3, #0]
 8001728:	605a      	str	r2, [r3, #4]
 800172a:	609a      	str	r2, [r3, #8]
 800172c:	60da      	str	r2, [r3, #12]
 800172e:	611a      	str	r2, [r3, #16]
  if(huart->Instance==USART2)
 8001730:	687b      	ldr	r3, [r7, #4]
 8001732:	681b      	ldr	r3, [r3, #0]
 8001734:	4a19      	ldr	r2, [pc, #100]	; (800179c <HAL_UART_MspInit+0x84>)
 8001736:	4293      	cmp	r3, r2
 8001738:	d12b      	bne.n	8001792 <HAL_UART_MspInit+0x7a>
  {
  /* USER CODE BEGIN USART2_MspInit 0 */

  /* USER CODE END USART2_MspInit 0 */
    /* Peripheral clock enable */
    __HAL_RCC_USART2_CLK_ENABLE();
 800173a:	2300      	movs	r3, #0
 800173c:	613b      	str	r3, [r7, #16]
 800173e:	4b18      	ldr	r3, [pc, #96]	; (80017a0 <HAL_UART_MspInit+0x88>)
 8001740:	6c1b      	ldr	r3, [r3, #64]	; 0x40
 8001742:	4a17      	ldr	r2, [pc, #92]	; (80017a0 <HAL_UART_MspInit+0x88>)
 8001744:	f443 3300 	orr.w	r3, r3, #131072	; 0x20000
 8001748:	6413      	str	r3, [r2, #64]	; 0x40
 800174a:	4b15      	ldr	r3, [pc, #84]	; (80017a0 <HAL_UART_MspInit+0x88>)
 800174c:	6c1b      	ldr	r3, [r3, #64]	; 0x40
 800174e:	f403 3300 	and.w	r3, r3, #131072	; 0x20000
 8001752:	613b      	str	r3, [r7, #16]
 8001754:	693b      	ldr	r3, [r7, #16]

    __HAL_RCC_GPIOA_CLK_ENABLE();
 8001756:	2300      	movs	r3, #0
 8001758:	60fb      	str	r3, [r7, #12]
 800175a:	4b11      	ldr	r3, [pc, #68]	; (80017a0 <HAL_UART_MspInit+0x88>)
 800175c:	6b1b      	ldr	r3, [r3, #48]	; 0x30
 800175e:	4a10      	ldr	r2, [pc, #64]	; (80017a0 <HAL_UART_MspInit+0x88>)
 8001760:	f043 0301 	orr.w	r3, r3, #1
 8001764:	6313      	str	r3, [r2, #48]	; 0x30
 8001766:	4b0e      	ldr	r3, [pc, #56]	; (80017a0 <HAL_UART_MspInit+0x88>)
 8001768:	6b1b      	ldr	r3, [r3, #48]	; 0x30
 800176a:	f003 0301 	and.w	r3, r3, #1
 800176e:	60fb      	str	r3, [r7, #12]
 8001770:	68fb      	ldr	r3, [r7, #12]
    /**USART2 GPIO Configuration
    PA2     ------> USART2_TX
    PA3     ------> USART2_RX
    */
    GPIO_InitStruct.Pin = USART_TX_Pin|USART_RX_Pin;
 8001772:	230c      	movs	r3, #12
 8001774:	617b      	str	r3, [r7, #20]
    GPIO_InitStruct.Mode = GPIO_MODE_AF_PP;
 8001776:	2302      	movs	r3, #2
 8001778:	61bb      	str	r3, [r7, #24]
    GPIO_InitStruct.Pull = GPIO_NOPULL;
 800177a:	2300      	movs	r3, #0
 800177c:	61fb      	str	r3, [r7, #28]
    GPIO_InitStruct.Speed = GPIO_SPEED_FREQ_VERY_HIGH;
 800177e:	2303      	movs	r3, #3
 8001780:	623b      	str	r3, [r7, #32]
    GPIO_InitStruct.Alternate = GPIO_AF7_USART2;
 8001782:	2307      	movs	r3, #7
 8001784:	627b      	str	r3, [r7, #36]	; 0x24
    HAL_GPIO_Init(GPIOA, &GPIO_InitStruct);
 8001786:	f107 0314 	add.w	r3, r7, #20
 800178a:	4619      	mov	r1, r3
 800178c:	4805      	ldr	r0, [pc, #20]	; (80017a4 <HAL_UART_MspInit+0x8c>)
 800178e:	f001 f9c3 	bl	8002b18 <HAL_GPIO_Init>
  /* USER CODE BEGIN USART2_MspInit 1 */

  /* USER CODE END USART2_MspInit 1 */
  }

}
 8001792:	bf00      	nop
 8001794:	3728      	adds	r7, #40	; 0x28
 8001796:	46bd      	mov	sp, r7
 8001798:	bd80      	pop	{r7, pc}
 800179a:	bf00      	nop
 800179c:	40004400 	.word	0x40004400
 80017a0:	40023800 	.word	0x40023800
 80017a4:	40020000 	.word	0x40020000

080017a8 <NMI_Handler>:
/******************************************************************************/
/**
  * @brief This function handles Non maskable interrupt.
  */
void NMI_Handler(void)
{
 80017a8:	b480      	push	{r7}
 80017aa:	af00      	add	r7, sp, #0
  /* USER CODE BEGIN NonMaskableInt_IRQn 0 */

  /* USER CODE END NonMaskableInt_IRQn 0 */
  /* USER CODE BEGIN NonMaskableInt_IRQn 1 */
  while (1)
 80017ac:	e7fe      	b.n	80017ac <NMI_Handler+0x4>

080017ae <HardFault_Handler>:

/**
  * @brief This function handles Hard fault interrupt.
  */
void HardFault_Handler(void)
{
 80017ae:	b480      	push	{r7}
 80017b0:	af00      	add	r7, sp, #0
  /* USER CODE BEGIN HardFault_IRQn 0 */

  /* USER CODE END HardFault_IRQn 0 */
  while (1)
 80017b2:	e7fe      	b.n	80017b2 <HardFault_Handler+0x4>

080017b4 <MemManage_Handler>:

/**
  * @brief This function handles Memory management fault.
  */
void MemManage_Handler(void)
{
 80017b4:	b480      	push	{r7}
 80017b6:	af00      	add	r7, sp, #0
  /* USER CODE BEGIN MemoryManagement_IRQn 0 */

  /* USER CODE END MemoryManagement_IRQn 0 */
  while (1)
 80017b8:	e7fe      	b.n	80017b8 <MemManage_Handler+0x4>

080017ba <BusFault_Handler>:

/**
  * @brief This function handles Pre-fetch fault, memory access fault.
  */
void BusFault_Handler(void)
{
 80017ba:	b480      	push	{r7}
 80017bc:	af00      	add	r7, sp, #0
  /* USER CODE BEGIN BusFault_IRQn 0 */

  /* USER CODE END BusFault_IRQn 0 */
  while (1)
 80017be:	e7fe      	b.n	80017be <BusFault_Handler+0x4>

080017c0 <UsageFault_Handler>:

/**
  * @brief This function handles Undefined instruction or illegal state.
  */
void UsageFault_Handler(void)
{
 80017c0:	b480      	push	{r7}
 80017c2:	af00      	add	r7, sp, #0
  /* USER CODE BEGIN UsageFault_IRQn 0 */

  /* USER CODE END UsageFault_IRQn 0 */
  while (1)
 80017c4:	e7fe      	b.n	80017c4 <UsageFault_Handler+0x4>

080017c6 <SVC_Handler>:

/**
  * @brief This function handles System service call via SWI instruction.
  */
void SVC_Handler(void)
{
 80017c6:	b480      	push	{r7}
 80017c8:	af00      	add	r7, sp, #0

  /* USER CODE END SVCall_IRQn 0 */
  /* USER CODE BEGIN SVCall_IRQn 1 */

  /* USER CODE END SVCall_IRQn 1 */
}
 80017ca:	bf00      	nop
 80017cc:	46bd      	mov	sp, r7
 80017ce:	f85d 7b04 	ldr.w	r7, [sp], #4
 80017d2:	4770      	bx	lr

080017d4 <DebugMon_Handler>:

/**
  * @brief This function handles Debug monitor.
  */
void DebugMon_Handler(void)
{
 80017d4:	b480      	push	{r7}
 80017d6:	af00      	add	r7, sp, #0

  /* USER CODE END DebugMonitor_IRQn 0 */
  /* USER CODE BEGIN DebugMonitor_IRQn 1 */

  /* USER CODE END DebugMonitor_IRQn 1 */
}
 80017d8:	bf00      	nop
 80017da:	46bd      	mov	sp, r7
 80017dc:	f85d 7b04 	ldr.w	r7, [sp], #4
 80017e0:	4770      	bx	lr

080017e2 <PendSV_Handler>:

/**
  * @brief This function handles Pendable request for system service.
  */
void PendSV_Handler(void)
{
 80017e2:	b480      	push	{r7}
 80017e4:	af00      	add	r7, sp, #0

  /* USER CODE END PendSV_IRQn 0 */
  /* USER CODE BEGIN PendSV_IRQn 1 */

  /* USER CODE END PendSV_IRQn 1 */
}
 80017e6:	bf00      	nop
 80017e8:	46bd      	mov	sp, r7
 80017ea:	f85d 7b04 	ldr.w	r7, [sp], #4
 80017ee:	4770      	bx	lr

080017f0 <SysTick_Handler>:

/**
  * @brief This function handles System tick timer.
  */
void SysTick_Handler(void)
{
 80017f0:	b580      	push	{r7, lr}
 80017f2:	af00      	add	r7, sp, #0
  /* USER CODE BEGIN SysTick_IRQn 0 */

  /* USER CODE END SysTick_IRQn 0 */
  HAL_IncTick();
 80017f4:	f000 f8d4 	bl	80019a0 <HAL_IncTick>
  /* USER CODE BEGIN SysTick_IRQn 1 */

  /* USER CODE END SysTick_IRQn 1 */
}
 80017f8:	bf00      	nop
 80017fa:	bd80      	pop	{r7, pc}

080017fc <DMA2_Stream0_IRQHandler>:

/**
  * @brief This function handles DMA2 stream0 global interrupt.
  */
void DMA2_Stream0_IRQHandler(void)
{
 80017fc:	b580      	push	{r7, lr}
 80017fe:	af00      	add	r7, sp, #0
  /* USER CODE BEGIN DMA2_Stream0_IRQn 0 */

  /* USER CODE END DMA2_Stream0_IRQn 0 */
  HAL_DMA_IRQHandler(&hdma_adc1);
 8001800:	4802      	ldr	r0, [pc, #8]	; (800180c <DMA2_Stream0_IRQHandler+0x10>)
 8001802:	f000 ff21 	bl	8002648 <HAL_DMA_IRQHandler>
  /* USER CODE BEGIN DMA2_Stream0_IRQn 1 */

  /* USER CODE END DMA2_Stream0_IRQn 1 */
}
 8001806:	bf00      	nop
 8001808:	bd80      	pop	{r7, pc}
 800180a:	bf00      	nop
 800180c:	20009ec4 	.word	0x20009ec4

08001810 <_sbrk>:
 *
 * @param incr Memory size
 * @return Pointer to allocated memory
 */
void *_sbrk(ptrdiff_t incr)
{
 8001810:	b580      	push	{r7, lr}
 8001812:	b086      	sub	sp, #24
 8001814:	af00      	add	r7, sp, #0
 8001816:	6078      	str	r0, [r7, #4]
  extern uint8_t _end; /* Symbol defined in the linker script */
  extern uint8_t _estack; /* Symbol defined in the linker script */
  extern uint32_t _Min_Stack_Size; /* Symbol defined in the linker script */
  const uint32_t stack_limit = (uint32_t)&_estack - (uint32_t)&_Min_Stack_Size;
 8001818:	4a14      	ldr	r2, [pc, #80]	; (800186c <_sbrk+0x5c>)
 800181a:	4b15      	ldr	r3, [pc, #84]	; (8001870 <_sbrk+0x60>)
 800181c:	1ad3      	subs	r3, r2, r3
 800181e:	617b      	str	r3, [r7, #20]
  const uint8_t *max_heap = (uint8_t *)stack_limit;
 8001820:	697b      	ldr	r3, [r7, #20]
 8001822:	613b      	str	r3, [r7, #16]
  uint8_t *prev_heap_end;

  /* Initialize heap end at first call */
  if (NULL == __sbrk_heap_end)
 8001824:	4b13      	ldr	r3, [pc, #76]	; (8001874 <_sbrk+0x64>)
 8001826:	681b      	ldr	r3, [r3, #0]
 8001828:	2b00      	cmp	r3, #0
 800182a:	d102      	bne.n	8001832 <_sbrk+0x22>
  {
    __sbrk_heap_end = &_end;
 800182c:	4b11      	ldr	r3, [pc, #68]	; (8001874 <_sbrk+0x64>)
 800182e:	4a12      	ldr	r2, [pc, #72]	; (8001878 <_sbrk+0x68>)
 8001830:	601a      	str	r2, [r3, #0]
  }

  /* Protect heap from growing into the reserved MSP stack */
  if (__sbrk_heap_end + incr > max_heap)
 8001832:	4b10      	ldr	r3, [pc, #64]	; (8001874 <_sbrk+0x64>)
 8001834:	681a      	ldr	r2, [r3, #0]
 8001836:	687b      	ldr	r3, [r7, #4]
 8001838:	4413      	add	r3, r2
 800183a:	693a      	ldr	r2, [r7, #16]
 800183c:	429a      	cmp	r2, r3
 800183e:	d207      	bcs.n	8001850 <_sbrk+0x40>
  {
    errno = ENOMEM;
 8001840:	f002 fd40 	bl	80042c4 <__errno>
 8001844:	4602      	mov	r2, r0
 8001846:	230c      	movs	r3, #12
 8001848:	6013      	str	r3, [r2, #0]
    return (void *)-1;
 800184a:	f04f 33ff 	mov.w	r3, #4294967295
 800184e:	e009      	b.n	8001864 <_sbrk+0x54>
  }

  prev_heap_end = __sbrk_heap_end;
 8001850:	4b08      	ldr	r3, [pc, #32]	; (8001874 <_sbrk+0x64>)
 8001852:	681b      	ldr	r3, [r3, #0]
 8001854:	60fb      	str	r3, [r7, #12]
  __sbrk_heap_end += incr;
 8001856:	4b07      	ldr	r3, [pc, #28]	; (8001874 <_sbrk+0x64>)
 8001858:	681a      	ldr	r2, [r3, #0]
 800185a:	687b      	ldr	r3, [r7, #4]
 800185c:	4413      	add	r3, r2
 800185e:	4a05      	ldr	r2, [pc, #20]	; (8001874 <_sbrk+0x64>)
 8001860:	6013      	str	r3, [r2, #0]

  return (void *)prev_heap_end;
 8001862:	68fb      	ldr	r3, [r7, #12]
}
 8001864:	4618      	mov	r0, r3
 8001866:	3718      	adds	r7, #24
 8001868:	46bd      	mov	sp, r7
 800186a:	bd80      	pop	{r7, pc}
 800186c:	20020000 	.word	0x20020000
 8001870:	00000400 	.word	0x00000400
 8001874:	20000208 	.word	0x20000208
 8001878:	20013bc0 	.word	0x20013bc0

0800187c <SystemInit>:
  *         configuration.
  * @param  None
  * @retval None
  */
void SystemInit(void)
{
 800187c:	b480      	push	{r7}
 800187e:	af00      	add	r7, sp, #0
  /* FPU settings ------------------------------------------------------------*/
  #if (__FPU_PRESENT == 1) && (__FPU_USED == 1)
    SCB->CPACR |= ((3UL << 10*2)|(3UL << 11*2));  /* set CP10 and CP11 Full Access */
 8001880:	4b08      	ldr	r3, [pc, #32]	; (80018a4 <SystemInit+0x28>)
 8001882:	f8d3 3088 	ldr.w	r3, [r3, #136]	; 0x88
 8001886:	4a07      	ldr	r2, [pc, #28]	; (80018a4 <SystemInit+0x28>)
 8001888:	f443 0370 	orr.w	r3, r3, #15728640	; 0xf00000
 800188c:	f8c2 3088 	str.w	r3, [r2, #136]	; 0x88

  /* Configure the Vector Table location add offset address ------------------*/
#ifdef VECT_TAB_SRAM
  SCB->VTOR = SRAM_BASE | VECT_TAB_OFFSET; /* Vector Table Relocation in Internal SRAM */
#else
  SCB->VTOR = FLASH_BASE | VECT_TAB_OFFSET; /* Vector Table Relocation in Internal FLASH */
 8001890:	4b04      	ldr	r3, [pc, #16]	; (80018a4 <SystemInit+0x28>)
 8001892:	f04f 6200 	mov.w	r2, #134217728	; 0x8000000
 8001896:	609a      	str	r2, [r3, #8]
#endif
}
 8001898:	bf00      	nop
 800189a:	46bd      	mov	sp, r7
 800189c:	f85d 7b04 	ldr.w	r7, [sp], #4
 80018a0:	4770      	bx	lr
 80018a2:	bf00      	nop
 80018a4:	e000ed00 	.word	0xe000ed00

080018a8 <Reset_Handler>:

    .section  .text.Reset_Handler
  .weak  Reset_Handler
  .type  Reset_Handler, %function
Reset_Handler:  
  ldr   sp, =_estack      /* set stack pointer */
 80018a8:	f8df d034 	ldr.w	sp, [pc, #52]	; 80018e0 <LoopFillZerobss+0x14>

/* Copy the data segment initializers from flash to SRAM */  
  movs  r1, #0
 80018ac:	2100      	movs	r1, #0
  b  LoopCopyDataInit
 80018ae:	e003      	b.n	80018b8 <LoopCopyDataInit>

080018b0 <CopyDataInit>:

CopyDataInit:
  ldr  r3, =_sidata
 80018b0:	4b0c      	ldr	r3, [pc, #48]	; (80018e4 <LoopFillZerobss+0x18>)
  ldr  r3, [r3, r1]
 80018b2:	585b      	ldr	r3, [r3, r1]
  str  r3, [r0, r1]
 80018b4:	5043      	str	r3, [r0, r1]
  adds  r1, r1, #4
 80018b6:	3104      	adds	r1, #4

080018b8 <LoopCopyDataInit>:
    
LoopCopyDataInit:
  ldr  r0, =_sdata
 80018b8:	480b      	ldr	r0, [pc, #44]	; (80018e8 <LoopFillZerobss+0x1c>)
  ldr  r3, =_edata
 80018ba:	4b0c      	ldr	r3, [pc, #48]	; (80018ec <LoopFillZerobss+0x20>)
  adds  r2, r0, r1
 80018bc:	1842      	adds	r2, r0, r1
  cmp  r2, r3
 80018be:	429a      	cmp	r2, r3
  bcc  CopyDataInit
 80018c0:	d3f6      	bcc.n	80018b0 <CopyDataInit>
  ldr  r2, =_sbss
 80018c2:	4a0b      	ldr	r2, [pc, #44]	; (80018f0 <LoopFillZerobss+0x24>)
  b  LoopFillZerobss
 80018c4:	e002      	b.n	80018cc <LoopFillZerobss>

080018c6 <FillZerobss>:
/* Zero fill the bss segment. */  
FillZerobss:
  movs  r3, #0
 80018c6:	2300      	movs	r3, #0
  str  r3, [r2], #4
 80018c8:	f842 3b04 	str.w	r3, [r2], #4

080018cc <LoopFillZerobss>:
    
LoopFillZerobss:
  ldr  r3, = _ebss
 80018cc:	4b09      	ldr	r3, [pc, #36]	; (80018f4 <LoopFillZerobss+0x28>)
  cmp  r2, r3
 80018ce:	429a      	cmp	r2, r3
  bcc  FillZerobss
 80018d0:	d3f9      	bcc.n	80018c6 <FillZerobss>

/* Call the clock system intitialization function.*/
  bl  SystemInit   
 80018d2:	f7ff ffd3 	bl	800187c <SystemInit>
/* Call static constructors */
    bl __libc_init_array
 80018d6:	f002 fcfb 	bl	80042d0 <__libc_init_array>
/* Call the application's entry point.*/
  bl  main
 80018da:	f7ff fb55 	bl	8000f88 <main>
  bx  lr    
 80018de:	4770      	bx	lr
  ldr   sp, =_estack      /* set stack pointer */
 80018e0:	20020000 	.word	0x20020000
  ldr  r3, =_sidata
 80018e4:	08006648 	.word	0x08006648
  ldr  r0, =_sdata
 80018e8:	20000000 	.word	0x20000000
  ldr  r3, =_edata
 80018ec:	200001dc 	.word	0x200001dc
  ldr  r2, =_sbss
 80018f0:	200001dc 	.word	0x200001dc
  ldr  r3, = _ebss
 80018f4:	20013bc0 	.word	0x20013bc0

080018f8 <ADC_IRQHandler>:
 * @retval None       
*/
    .section  .text.Default_Handler,"ax",%progbits
Default_Handler:
Infinite_Loop:
  b  Infinite_Loop
 80018f8:	e7fe      	b.n	80018f8 <ADC_IRQHandler>
	...

080018fc <HAL_Init>:
  *         need to ensure that the SysTick time base is always set to 1 millisecond
  *         to have correct HAL operation.
  * @retval HAL status
  */
HAL_StatusTypeDef HAL_Init(void)
{
 80018fc:	b580      	push	{r7, lr}
 80018fe:	af00      	add	r7, sp, #0
  /* Configure Flash prefetch, Instruction cache, Data cache */ 
#if (INSTRUCTION_CACHE_ENABLE != 0U)
  __HAL_FLASH_INSTRUCTION_CACHE_ENABLE();
 8001900:	4b0e      	ldr	r3, [pc, #56]	; (800193c <HAL_Init+0x40>)
 8001902:	681b      	ldr	r3, [r3, #0]
 8001904:	4a0d      	ldr	r2, [pc, #52]	; (800193c <HAL_Init+0x40>)
 8001906:	f443 7300 	orr.w	r3, r3, #512	; 0x200
 800190a:	6013      	str	r3, [r2, #0]
#endif /* INSTRUCTION_CACHE_ENABLE */

#if (DATA_CACHE_ENABLE != 0U)
  __HAL_FLASH_DATA_CACHE_ENABLE();
 800190c:	4b0b      	ldr	r3, [pc, #44]	; (800193c <HAL_Init+0x40>)
 800190e:	681b      	ldr	r3, [r3, #0]
 8001910:	4a0a      	ldr	r2, [pc, #40]	; (800193c <HAL_Init+0x40>)
 8001912:	f443 6380 	orr.w	r3, r3, #1024	; 0x400
 8001916:	6013      	str	r3, [r2, #0]
#endif /* DATA_CACHE_ENABLE */

#if (PREFETCH_ENABLE != 0U)
  __HAL_FLASH_PREFETCH_BUFFER_ENABLE();
 8001918:	4b08      	ldr	r3, [pc, #32]	; (800193c <HAL_Init+0x40>)
 800191a:	681b      	ldr	r3, [r3, #0]
 800191c:	4a07      	ldr	r2, [pc, #28]	; (800193c <HAL_Init+0x40>)
 800191e:	f443 7380 	orr.w	r3, r3, #256	; 0x100
 8001922:	6013      	str	r3, [r2, #0]
#endif /* PREFETCH_ENABLE */

  /* Set Interrupt Group Priority */
  HAL_NVIC_SetPriorityGrouping(NVIC_PRIORITYGROUP_4);
 8001924:	2003      	movs	r0, #3
 8001926:	f000 fd47 	bl	80023b8 <HAL_NVIC_SetPriorityGrouping>

  /* Use systick as time base source and configure 1ms tick (default clock after Reset is HSI) */
  HAL_InitTick(TICK_INT_PRIORITY);
 800192a:	2000      	movs	r0, #0
 800192c:	f000 f808 	bl	8001940 <HAL_InitTick>

  /* Init the low level hardware */
  HAL_MspInit();
 8001930:	f7ff fe52 	bl	80015d8 <HAL_MspInit>

  /* Return function status */
  return HAL_OK;
 8001934:	2300      	movs	r3, #0
}
 8001936:	4618      	mov	r0, r3
 8001938:	bd80      	pop	{r7, pc}
 800193a:	bf00      	nop
 800193c:	40023c00 	.word	0x40023c00

08001940 <HAL_InitTick>:
  *       implementation  in user file.
  * @param TickPriority Tick interrupt priority.
  * @retval HAL status
  */
__weak HAL_StatusTypeDef HAL_InitTick(uint32_t TickPriority)
{
 8001940:	b580      	push	{r7, lr}
 8001942:	b082      	sub	sp, #8
 8001944:	af00      	add	r7, sp, #0
 8001946:	6078      	str	r0, [r7, #4]
  /* Configure the SysTick to have interrupt in 1ms time basis*/
  if (HAL_SYSTICK_Config(SystemCoreClock / (1000U / uwTickFreq)) > 0U)
 8001948:	4b12      	ldr	r3, [pc, #72]	; (8001994 <HAL_InitTick+0x54>)
 800194a:	681a      	ldr	r2, [r3, #0]
 800194c:	4b12      	ldr	r3, [pc, #72]	; (8001998 <HAL_InitTick+0x58>)
 800194e:	781b      	ldrb	r3, [r3, #0]
 8001950:	4619      	mov	r1, r3
 8001952:	f44f 737a 	mov.w	r3, #1000	; 0x3e8
 8001956:	fbb3 f3f1 	udiv	r3, r3, r1
 800195a:	fbb2 f3f3 	udiv	r3, r2, r3
 800195e:	4618      	mov	r0, r3
 8001960:	f000 fd5f 	bl	8002422 <HAL_SYSTICK_Config>
 8001964:	4603      	mov	r3, r0
 8001966:	2b00      	cmp	r3, #0
 8001968:	d001      	beq.n	800196e <HAL_InitTick+0x2e>
  {
    return HAL_ERROR;
 800196a:	2301      	movs	r3, #1
 800196c:	e00e      	b.n	800198c <HAL_InitTick+0x4c>
  }

  /* Configure the SysTick IRQ priority */
  if (TickPriority < (1UL << __NVIC_PRIO_BITS))
 800196e:	687b      	ldr	r3, [r7, #4]
 8001970:	2b0f      	cmp	r3, #15
 8001972:	d80a      	bhi.n	800198a <HAL_InitTick+0x4a>
  {
    HAL_NVIC_SetPriority(SysTick_IRQn, TickPriority, 0U);
 8001974:	2200      	movs	r2, #0
 8001976:	6879      	ldr	r1, [r7, #4]
 8001978:	f04f 30ff 	mov.w	r0, #4294967295
 800197c:	f000 fd27 	bl	80023ce <HAL_NVIC_SetPriority>
    uwTickPrio = TickPriority;
 8001980:	4a06      	ldr	r2, [pc, #24]	; (800199c <HAL_InitTick+0x5c>)
 8001982:	687b      	ldr	r3, [r7, #4]
 8001984:	6013      	str	r3, [r2, #0]
  {
    return HAL_ERROR;
  }

  /* Return function status */
  return HAL_OK;
 8001986:	2300      	movs	r3, #0
 8001988:	e000      	b.n	800198c <HAL_InitTick+0x4c>
    return HAL_ERROR;
 800198a:	2301      	movs	r3, #1
}
 800198c:	4618      	mov	r0, r3
 800198e:	3708      	adds	r7, #8
 8001990:	46bd      	mov	sp, r7
 8001992:	bd80      	pop	{r7, pc}
 8001994:	20000000 	.word	0x20000000
 8001998:	20000008 	.word	0x20000008
 800199c:	20000004 	.word	0x20000004

080019a0 <HAL_IncTick>:
 * @note This function is declared as __weak to be overwritten in case of other 
  *      implementations in user file.
  * @retval None
  */
__weak void HAL_IncTick(void)
{
 80019a0:	b480      	push	{r7}
 80019a2:	af00      	add	r7, sp, #0
  uwTick += uwTickFreq;
 80019a4:	4b06      	ldr	r3, [pc, #24]	; (80019c0 <HAL_IncTick+0x20>)
 80019a6:	781b      	ldrb	r3, [r3, #0]
 80019a8:	461a      	mov	r2, r3
 80019aa:	4b06      	ldr	r3, [pc, #24]	; (80019c4 <HAL_IncTick+0x24>)
 80019ac:	681b      	ldr	r3, [r3, #0]
 80019ae:	4413      	add	r3, r2
 80019b0:	4a04      	ldr	r2, [pc, #16]	; (80019c4 <HAL_IncTick+0x24>)
 80019b2:	6013      	str	r3, [r2, #0]
}
 80019b4:	bf00      	nop
 80019b6:	46bd      	mov	sp, r7
 80019b8:	f85d 7b04 	ldr.w	r7, [sp], #4
 80019bc:	4770      	bx	lr
 80019be:	bf00      	nop
 80019c0:	20000008 	.word	0x20000008
 80019c4:	20013bb8 	.word	0x20013bb8

080019c8 <HAL_GetTick>:
  * @note This function is declared as __weak to be overwritten in case of other 
  *       implementations in user file.
  * @retval tick value
  */
__weak uint32_t HAL_GetTick(void)
{
 80019c8:	b480      	push	{r7}
 80019ca:	af00      	add	r7, sp, #0
  return uwTick;
 80019cc:	4b03      	ldr	r3, [pc, #12]	; (80019dc <HAL_GetTick+0x14>)
 80019ce:	681b      	ldr	r3, [r3, #0]
}
 80019d0:	4618      	mov	r0, r3
 80019d2:	46bd      	mov	sp, r7
 80019d4:	f85d 7b04 	ldr.w	r7, [sp], #4
 80019d8:	4770      	bx	lr
 80019da:	bf00      	nop
 80019dc:	20013bb8 	.word	0x20013bb8

080019e0 <HAL_Delay>:
  *       implementations in user file.
  * @param Delay specifies the delay time length, in milliseconds.
  * @retval None
  */
__weak void HAL_Delay(uint32_t Delay)
{
 80019e0:	b580      	push	{r7, lr}
 80019e2:	b084      	sub	sp, #16
 80019e4:	af00      	add	r7, sp, #0
 80019e6:	6078      	str	r0, [r7, #4]
  uint32_t tickstart = HAL_GetTick();
 80019e8:	f7ff ffee 	bl	80019c8 <HAL_GetTick>
 80019ec:	60b8      	str	r0, [r7, #8]
  uint32_t wait = Delay;
 80019ee:	687b      	ldr	r3, [r7, #4]
 80019f0:	60fb      	str	r3, [r7, #12]

  /* Add a freq to guarantee minimum wait */
  if (wait < HAL_MAX_DELAY)
 80019f2:	68fb      	ldr	r3, [r7, #12]
 80019f4:	f1b3 3fff 	cmp.w	r3, #4294967295
 80019f8:	d005      	beq.n	8001a06 <HAL_Delay+0x26>
  {
    wait += (uint32_t)(uwTickFreq);
 80019fa:	4b09      	ldr	r3, [pc, #36]	; (8001a20 <HAL_Delay+0x40>)
 80019fc:	781b      	ldrb	r3, [r3, #0]
 80019fe:	461a      	mov	r2, r3
 8001a00:	68fb      	ldr	r3, [r7, #12]
 8001a02:	4413      	add	r3, r2
 8001a04:	60fb      	str	r3, [r7, #12]
  }

  while((HAL_GetTick() - tickstart) < wait)
 8001a06:	bf00      	nop
 8001a08:	f7ff ffde 	bl	80019c8 <HAL_GetTick>
 8001a0c:	4602      	mov	r2, r0
 8001a0e:	68bb      	ldr	r3, [r7, #8]
 8001a10:	1ad3      	subs	r3, r2, r3
 8001a12:	68fa      	ldr	r2, [r7, #12]
 8001a14:	429a      	cmp	r2, r3
 8001a16:	d8f7      	bhi.n	8001a08 <HAL_Delay+0x28>
  {
  }
}
 8001a18:	bf00      	nop
 8001a1a:	3710      	adds	r7, #16
 8001a1c:	46bd      	mov	sp, r7
 8001a1e:	bd80      	pop	{r7, pc}
 8001a20:	20000008 	.word	0x20000008

08001a24 <HAL_ADC_Init>:
  * @param  hadc pointer to a ADC_HandleTypeDef structure that contains
  *         the configuration information for the specified ADC.  
  * @retval HAL status
  */
HAL_StatusTypeDef HAL_ADC_Init(ADC_HandleTypeDef* hadc)
{
 8001a24:	b580      	push	{r7, lr}
 8001a26:	b084      	sub	sp, #16
 8001a28:	af00      	add	r7, sp, #0
 8001a2a:	6078      	str	r0, [r7, #4]
  HAL_StatusTypeDef tmp_hal_status = HAL_OK;
 8001a2c:	2300      	movs	r3, #0
 8001a2e:	73fb      	strb	r3, [r7, #15]
  
  /* Check ADC handle */
  if(hadc == NULL)
 8001a30:	687b      	ldr	r3, [r7, #4]
 8001a32:	2b00      	cmp	r3, #0
 8001a34:	d101      	bne.n	8001a3a <HAL_ADC_Init+0x16>
  {
    return HAL_ERROR;
 8001a36:	2301      	movs	r3, #1
 8001a38:	e033      	b.n	8001aa2 <HAL_ADC_Init+0x7e>
  if(hadc->Init.ExternalTrigConv != ADC_SOFTWARE_START)
  {
    assert_param(IS_ADC_EXT_TRIG_EDGE(hadc->Init.ExternalTrigConvEdge));
  }
  
  if(hadc->State == HAL_ADC_STATE_RESET)
 8001a3a:	687b      	ldr	r3, [r7, #4]
 8001a3c:	6c1b      	ldr	r3, [r3, #64]	; 0x40
 8001a3e:	2b00      	cmp	r3, #0
 8001a40:	d109      	bne.n	8001a56 <HAL_ADC_Init+0x32>

    /* Init the low level hardware */
    hadc->MspInitCallback(hadc);
#else
    /* Init the low level hardware */
    HAL_ADC_MspInit(hadc);
 8001a42:	6878      	ldr	r0, [r7, #4]
 8001a44:	f7ff fdf0 	bl	8001628 <HAL_ADC_MspInit>
#endif /* USE_HAL_ADC_REGISTER_CALLBACKS */

    /* Initialize ADC error code */
    ADC_CLEAR_ERRORCODE(hadc);
 8001a48:	687b      	ldr	r3, [r7, #4]
 8001a4a:	2200      	movs	r2, #0
 8001a4c:	645a      	str	r2, [r3, #68]	; 0x44
    
    /* Allocate lock resource and initialize it */
    hadc->Lock = HAL_UNLOCKED;
 8001a4e:	687b      	ldr	r3, [r7, #4]
 8001a50:	2200      	movs	r2, #0
 8001a52:	f883 203c 	strb.w	r2, [r3, #60]	; 0x3c
  }
  
  /* Configuration of ADC parameters if previous preliminary actions are      */ 
  /* correctly completed.                                                     */
  if (HAL_IS_BIT_CLR(hadc->State, HAL_ADC_STATE_ERROR_INTERNAL))
 8001a56:	687b      	ldr	r3, [r7, #4]
 8001a58:	6c1b      	ldr	r3, [r3, #64]	; 0x40
 8001a5a:	f003 0310 	and.w	r3, r3, #16
 8001a5e:	2b00      	cmp	r3, #0
 8001a60:	d118      	bne.n	8001a94 <HAL_ADC_Init+0x70>
  {
    /* Set ADC state */
    ADC_STATE_CLR_SET(hadc->State,
 8001a62:	687b      	ldr	r3, [r7, #4]
 8001a64:	6c1b      	ldr	r3, [r3, #64]	; 0x40
 8001a66:	f423 5388 	bic.w	r3, r3, #4352	; 0x1100
 8001a6a:	f023 0302 	bic.w	r3, r3, #2
 8001a6e:	f043 0202 	orr.w	r2, r3, #2
 8001a72:	687b      	ldr	r3, [r7, #4]
 8001a74:	641a      	str	r2, [r3, #64]	; 0x40
                      HAL_ADC_STATE_REG_BUSY | HAL_ADC_STATE_INJ_BUSY,
                      HAL_ADC_STATE_BUSY_INTERNAL);
    
    /* Set ADC parameters */
    ADC_Init(hadc);
 8001a76:	6878      	ldr	r0, [r7, #4]
 8001a78:	f000 fa50 	bl	8001f1c <ADC_Init>
    
    /* Set ADC error code to none */
    ADC_CLEAR_ERRORCODE(hadc);
 8001a7c:	687b      	ldr	r3, [r7, #4]
 8001a7e:	2200      	movs	r2, #0
 8001a80:	645a      	str	r2, [r3, #68]	; 0x44
    
    /* Set the ADC state */
    ADC_STATE_CLR_SET(hadc->State,
 8001a82:	687b      	ldr	r3, [r7, #4]
 8001a84:	6c1b      	ldr	r3, [r3, #64]	; 0x40
 8001a86:	f023 0303 	bic.w	r3, r3, #3
 8001a8a:	f043 0201 	orr.w	r2, r3, #1
 8001a8e:	687b      	ldr	r3, [r7, #4]
 8001a90:	641a      	str	r2, [r3, #64]	; 0x40
 8001a92:	e001      	b.n	8001a98 <HAL_ADC_Init+0x74>
                      HAL_ADC_STATE_BUSY_INTERNAL,
                      HAL_ADC_STATE_READY);
  }
  else
  {
    tmp_hal_status = HAL_ERROR;
 8001a94:	2301      	movs	r3, #1
 8001a96:	73fb      	strb	r3, [r7, #15]
  }
  
  /* Release Lock */
  __HAL_UNLOCK(hadc);
 8001a98:	687b      	ldr	r3, [r7, #4]
 8001a9a:	2200      	movs	r2, #0
 8001a9c:	f883 203c 	strb.w	r2, [r3, #60]	; 0x3c

  /* Return function status */
  return tmp_hal_status;
 8001aa0:	7bfb      	ldrb	r3, [r7, #15]
}
 8001aa2:	4618      	mov	r0, r3
 8001aa4:	3710      	adds	r7, #16
 8001aa6:	46bd      	mov	sp, r7
 8001aa8:	bd80      	pop	{r7, pc}
	...

08001aac <HAL_ADC_Start_DMA>:
  * @param  pData The destination Buffer address.
  * @param  Length The length of data to be transferred from ADC peripheral to memory.
  * @retval HAL status
  */
HAL_StatusTypeDef HAL_ADC_Start_DMA(ADC_HandleTypeDef* hadc, uint32_t* pData, uint32_t Length)
{
 8001aac:	b580      	push	{r7, lr}
 8001aae:	b086      	sub	sp, #24
 8001ab0:	af00      	add	r7, sp, #0
 8001ab2:	60f8      	str	r0, [r7, #12]
 8001ab4:	60b9      	str	r1, [r7, #8]
 8001ab6:	607a      	str	r2, [r7, #4]
  __IO uint32_t counter = 0U;
 8001ab8:	2300      	movs	r3, #0
 8001aba:	613b      	str	r3, [r7, #16]
  /* Check the parameters */
  assert_param(IS_FUNCTIONAL_STATE(hadc->Init.ContinuousConvMode));
  assert_param(IS_ADC_EXT_TRIG_EDGE(hadc->Init.ExternalTrigConvEdge)); 
  
  /* Process locked */
  __HAL_LOCK(hadc);
 8001abc:	68fb      	ldr	r3, [r7, #12]
 8001abe:	f893 303c 	ldrb.w	r3, [r3, #60]	; 0x3c
 8001ac2:	2b01      	cmp	r3, #1
 8001ac4:	d101      	bne.n	8001aca <HAL_ADC_Start_DMA+0x1e>
 8001ac6:	2302      	movs	r3, #2
 8001ac8:	e0cc      	b.n	8001c64 <HAL_ADC_Start_DMA+0x1b8>
 8001aca:	68fb      	ldr	r3, [r7, #12]
 8001acc:	2201      	movs	r2, #1
 8001ace:	f883 203c 	strb.w	r2, [r3, #60]	; 0x3c
  
  /* Enable the ADC peripheral */
  /* Check if ADC peripheral is disabled in order to enable it and wait during 
  Tstab time the ADC's stabilization */
  if((hadc->Instance->CR2 & ADC_CR2_ADON) != ADC_CR2_ADON)
 8001ad2:	68fb      	ldr	r3, [r7, #12]
 8001ad4:	681b      	ldr	r3, [r3, #0]
 8001ad6:	689b      	ldr	r3, [r3, #8]
 8001ad8:	f003 0301 	and.w	r3, r3, #1
 8001adc:	2b01      	cmp	r3, #1
 8001ade:	d018      	beq.n	8001b12 <HAL_ADC_Start_DMA+0x66>
  {  
    /* Enable the Peripheral */
    __HAL_ADC_ENABLE(hadc);
 8001ae0:	68fb      	ldr	r3, [r7, #12]
 8001ae2:	681b      	ldr	r3, [r3, #0]
 8001ae4:	689a      	ldr	r2, [r3, #8]
 8001ae6:	68fb      	ldr	r3, [r7, #12]
 8001ae8:	681b      	ldr	r3, [r3, #0]
 8001aea:	f042 0201 	orr.w	r2, r2, #1
 8001aee:	609a      	str	r2, [r3, #8]
    
    /* Delay for ADC stabilization time */
    /* Compute number of CPU cycles to wait for */
    counter = (ADC_STAB_DELAY_US * (SystemCoreClock / 1000000U));
 8001af0:	4b5e      	ldr	r3, [pc, #376]	; (8001c6c <HAL_ADC_Start_DMA+0x1c0>)
 8001af2:	681b      	ldr	r3, [r3, #0]
 8001af4:	4a5e      	ldr	r2, [pc, #376]	; (8001c70 <HAL_ADC_Start_DMA+0x1c4>)
 8001af6:	fba2 2303 	umull	r2, r3, r2, r3
 8001afa:	0c9a      	lsrs	r2, r3, #18
 8001afc:	4613      	mov	r3, r2
 8001afe:	005b      	lsls	r3, r3, #1
 8001b00:	4413      	add	r3, r2
 8001b02:	613b      	str	r3, [r7, #16]
    while(counter != 0U)
 8001b04:	e002      	b.n	8001b0c <HAL_ADC_Start_DMA+0x60>
    {
      counter--;
 8001b06:	693b      	ldr	r3, [r7, #16]
 8001b08:	3b01      	subs	r3, #1
 8001b0a:	613b      	str	r3, [r7, #16]
    while(counter != 0U)
 8001b0c:	693b      	ldr	r3, [r7, #16]
 8001b0e:	2b00      	cmp	r3, #0
 8001b10:	d1f9      	bne.n	8001b06 <HAL_ADC_Start_DMA+0x5a>
    }
  }
  
  /* Start conversion if ADC is effectively enabled */
  if(HAL_IS_BIT_SET(hadc->Instance->CR2, ADC_CR2_ADON))
 8001b12:	68fb      	ldr	r3, [r7, #12]
 8001b14:	681b      	ldr	r3, [r3, #0]
 8001b16:	689b      	ldr	r3, [r3, #8]
 8001b18:	f003 0301 	and.w	r3, r3, #1
 8001b1c:	2b01      	cmp	r3, #1
 8001b1e:	f040 80a0 	bne.w	8001c62 <HAL_ADC_Start_DMA+0x1b6>
  {
    /* Set ADC state                                                          */
    /* - Clear state bitfield related to regular group conversion results     */
    /* - Set state bitfield related to regular group operation                */
    ADC_STATE_CLR_SET(hadc->State,
 8001b22:	68fb      	ldr	r3, [r7, #12]
 8001b24:	6c1b      	ldr	r3, [r3, #64]	; 0x40
 8001b26:	f423 63e0 	bic.w	r3, r3, #1792	; 0x700
 8001b2a:	f023 0301 	bic.w	r3, r3, #1
 8001b2e:	f443 7280 	orr.w	r2, r3, #256	; 0x100
 8001b32:	68fb      	ldr	r3, [r7, #12]
 8001b34:	641a      	str	r2, [r3, #64]	; 0x40
                      HAL_ADC_STATE_READY | HAL_ADC_STATE_REG_EOC | HAL_ADC_STATE_REG_OVR,
                      HAL_ADC_STATE_REG_BUSY);
    
    /* If conversions on group regular are also triggering group injected,    */
    /* update ADC state.                                                      */
    if (READ_BIT(hadc->Instance->CR1, ADC_CR1_JAUTO) != RESET)
 8001b36:	68fb      	ldr	r3, [r7, #12]
 8001b38:	681b      	ldr	r3, [r3, #0]
 8001b3a:	685b      	ldr	r3, [r3, #4]
 8001b3c:	f403 6380 	and.w	r3, r3, #1024	; 0x400
 8001b40:	2b00      	cmp	r3, #0
 8001b42:	d007      	beq.n	8001b54 <HAL_ADC_Start_DMA+0xa8>
    {
      ADC_STATE_CLR_SET(hadc->State, HAL_ADC_STATE_INJ_EOC, HAL_ADC_STATE_INJ_BUSY);  
 8001b44:	68fb      	ldr	r3, [r7, #12]
 8001b46:	6c1b      	ldr	r3, [r3, #64]	; 0x40
 8001b48:	f423 5340 	bic.w	r3, r3, #12288	; 0x3000
 8001b4c:	f443 5280 	orr.w	r2, r3, #4096	; 0x1000
 8001b50:	68fb      	ldr	r3, [r7, #12]
 8001b52:	641a      	str	r2, [r3, #64]	; 0x40
    }
    
    /* State machine update: Check if an injected conversion is ongoing */
    if (HAL_IS_BIT_SET(hadc->State, HAL_ADC_STATE_INJ_BUSY))
 8001b54:	68fb      	ldr	r3, [r7, #12]
 8001b56:	6c1b      	ldr	r3, [r3, #64]	; 0x40
 8001b58:	f403 5380 	and.w	r3, r3, #4096	; 0x1000
 8001b5c:	f5b3 5f80 	cmp.w	r3, #4096	; 0x1000
 8001b60:	d106      	bne.n	8001b70 <HAL_ADC_Start_DMA+0xc4>
    {
      /* Reset ADC error code fields related to conversions on group regular */
      CLEAR_BIT(hadc->ErrorCode, (HAL_ADC_ERROR_OVR | HAL_ADC_ERROR_DMA));         
 8001b62:	68fb      	ldr	r3, [r7, #12]
 8001b64:	6c5b      	ldr	r3, [r3, #68]	; 0x44
 8001b66:	f023 0206 	bic.w	r2, r3, #6
 8001b6a:	68fb      	ldr	r3, [r7, #12]
 8001b6c:	645a      	str	r2, [r3, #68]	; 0x44
 8001b6e:	e002      	b.n	8001b76 <HAL_ADC_Start_DMA+0xca>
    }
    else
    {
      /* Reset ADC all error code fields */
      ADC_CLEAR_ERRORCODE(hadc);
 8001b70:	68fb      	ldr	r3, [r7, #12]
 8001b72:	2200      	movs	r2, #0
 8001b74:	645a      	str	r2, [r3, #68]	; 0x44
    }

    /* Process unlocked */
    /* Unlock before starting ADC conversions: in case of potential           */
    /* interruption, to let the process to ADC IRQ Handler.                   */
    __HAL_UNLOCK(hadc);   
 8001b76:	68fb      	ldr	r3, [r7, #12]
 8001b78:	2200      	movs	r2, #0
 8001b7a:	f883 203c 	strb.w	r2, [r3, #60]	; 0x3c

    /* Pointer to the common control register to which is belonging hadc    */
    /* (Depending on STM32F4 product, there may be up to 3 ADCs and 1 common */
    /* control register)                                                    */
    tmpADC_Common = ADC_COMMON_REGISTER(hadc);
 8001b7e:	4b3d      	ldr	r3, [pc, #244]	; (8001c74 <HAL_ADC_Start_DMA+0x1c8>)
 8001b80:	617b      	str	r3, [r7, #20]

    /* Set the DMA transfer complete callback */
    hadc->DMA_Handle->XferCpltCallback = ADC_DMAConvCplt;
 8001b82:	68fb      	ldr	r3, [r7, #12]
 8001b84:	6b9b      	ldr	r3, [r3, #56]	; 0x38
 8001b86:	4a3c      	ldr	r2, [pc, #240]	; (8001c78 <HAL_ADC_Start_DMA+0x1cc>)
 8001b88:	63da      	str	r2, [r3, #60]	; 0x3c

    /* Set the DMA half transfer complete callback */
    hadc->DMA_Handle->XferHalfCpltCallback = ADC_DMAHalfConvCplt;
 8001b8a:	68fb      	ldr	r3, [r7, #12]
 8001b8c:	6b9b      	ldr	r3, [r3, #56]	; 0x38
 8001b8e:	4a3b      	ldr	r2, [pc, #236]	; (8001c7c <HAL_ADC_Start_DMA+0x1d0>)
 8001b90:	641a      	str	r2, [r3, #64]	; 0x40
    
    /* Set the DMA error callback */
    hadc->DMA_Handle->XferErrorCallback = ADC_DMAError;
 8001b92:	68fb      	ldr	r3, [r7, #12]
 8001b94:	6b9b      	ldr	r3, [r3, #56]	; 0x38
 8001b96:	4a3a      	ldr	r2, [pc, #232]	; (8001c80 <HAL_ADC_Start_DMA+0x1d4>)
 8001b98:	64da      	str	r2, [r3, #76]	; 0x4c
    /* Manage ADC and DMA start: ADC overrun interruption, DMA start, ADC     */
    /* start (in case of SW start):                                           */
    
    /* Clear regular group conversion flag and overrun flag */
    /* (To ensure of no unknown state from potential previous ADC operations) */
    __HAL_ADC_CLEAR_FLAG(hadc, ADC_FLAG_EOC | ADC_FLAG_OVR);
 8001b9a:	68fb      	ldr	r3, [r7, #12]
 8001b9c:	681b      	ldr	r3, [r3, #0]
 8001b9e:	f06f 0222 	mvn.w	r2, #34	; 0x22
 8001ba2:	601a      	str	r2, [r3, #0]

    /* Enable ADC overrun interrupt */
    __HAL_ADC_ENABLE_IT(hadc, ADC_IT_OVR);
 8001ba4:	68fb      	ldr	r3, [r7, #12]
 8001ba6:	681b      	ldr	r3, [r3, #0]
 8001ba8:	685a      	ldr	r2, [r3, #4]
 8001baa:	68fb      	ldr	r3, [r7, #12]
 8001bac:	681b      	ldr	r3, [r3, #0]
 8001bae:	f042 6280 	orr.w	r2, r2, #67108864	; 0x4000000
 8001bb2:	605a      	str	r2, [r3, #4]
    
    /* Enable ADC DMA mode */
    hadc->Instance->CR2 |= ADC_CR2_DMA;
 8001bb4:	68fb      	ldr	r3, [r7, #12]
 8001bb6:	681b      	ldr	r3, [r3, #0]
 8001bb8:	689a      	ldr	r2, [r3, #8]
 8001bba:	68fb      	ldr	r3, [r7, #12]
 8001bbc:	681b      	ldr	r3, [r3, #0]
 8001bbe:	f442 7280 	orr.w	r2, r2, #256	; 0x100
 8001bc2:	609a      	str	r2, [r3, #8]
    
    /* Start the DMA channel */
    HAL_DMA_Start_IT(hadc->DMA_Handle, (uint32_t)&hadc->Instance->DR, (uint32_t)pData, Length);
 8001bc4:	68fb      	ldr	r3, [r7, #12]
 8001bc6:	6b98      	ldr	r0, [r3, #56]	; 0x38
 8001bc8:	68fb      	ldr	r3, [r7, #12]
 8001bca:	681b      	ldr	r3, [r3, #0]
 8001bcc:	334c      	adds	r3, #76	; 0x4c
 8001bce:	4619      	mov	r1, r3
 8001bd0:	68ba      	ldr	r2, [r7, #8]
 8001bd2:	687b      	ldr	r3, [r7, #4]
 8001bd4:	f000 fce0 	bl	8002598 <HAL_DMA_Start_IT>
    
    /* Check if Multimode enabled */
    if(HAL_IS_BIT_CLR(tmpADC_Common->CCR, ADC_CCR_MULTI))
 8001bd8:	697b      	ldr	r3, [r7, #20]
 8001bda:	685b      	ldr	r3, [r3, #4]
 8001bdc:	f003 031f 	and.w	r3, r3, #31
 8001be0:	2b00      	cmp	r3, #0
 8001be2:	d12a      	bne.n	8001c3a <HAL_ADC_Start_DMA+0x18e>
    {
#if defined(ADC2) && defined(ADC3)
      if((hadc->Instance == ADC1) || ((hadc->Instance == ADC2) && ((ADC->CCR & ADC_CCR_MULTI_Msk) < ADC_CCR_MULTI_0)) \
 8001be4:	68fb      	ldr	r3, [r7, #12]
 8001be6:	681b      	ldr	r3, [r3, #0]
 8001be8:	4a26      	ldr	r2, [pc, #152]	; (8001c84 <HAL_ADC_Start_DMA+0x1d8>)
 8001bea:	4293      	cmp	r3, r2
 8001bec:	d015      	beq.n	8001c1a <HAL_ADC_Start_DMA+0x16e>
 8001bee:	68fb      	ldr	r3, [r7, #12]
 8001bf0:	681b      	ldr	r3, [r3, #0]
 8001bf2:	4a25      	ldr	r2, [pc, #148]	; (8001c88 <HAL_ADC_Start_DMA+0x1dc>)
 8001bf4:	4293      	cmp	r3, r2
 8001bf6:	d105      	bne.n	8001c04 <HAL_ADC_Start_DMA+0x158>
 8001bf8:	4b1e      	ldr	r3, [pc, #120]	; (8001c74 <HAL_ADC_Start_DMA+0x1c8>)
 8001bfa:	685b      	ldr	r3, [r3, #4]
 8001bfc:	f003 031f 	and.w	r3, r3, #31
 8001c00:	2b00      	cmp	r3, #0
 8001c02:	d00a      	beq.n	8001c1a <HAL_ADC_Start_DMA+0x16e>
                                  || ((hadc->Instance == ADC3) && ((ADC->CCR & ADC_CCR_MULTI_Msk) < ADC_CCR_MULTI_4)))
 8001c04:	68fb      	ldr	r3, [r7, #12]
 8001c06:	681b      	ldr	r3, [r3, #0]
 8001c08:	4a20      	ldr	r2, [pc, #128]	; (8001c8c <HAL_ADC_Start_DMA+0x1e0>)
 8001c0a:	4293      	cmp	r3, r2
 8001c0c:	d129      	bne.n	8001c62 <HAL_ADC_Start_DMA+0x1b6>
 8001c0e:	4b19      	ldr	r3, [pc, #100]	; (8001c74 <HAL_ADC_Start_DMA+0x1c8>)
 8001c10:	685b      	ldr	r3, [r3, #4]
 8001c12:	f003 031f 	and.w	r3, r3, #31
 8001c16:	2b0f      	cmp	r3, #15
 8001c18:	d823      	bhi.n	8001c62 <HAL_ADC_Start_DMA+0x1b6>
      {
#endif /* ADC2 || ADC3 */
        /* if no external trigger present enable software conversion of regular channels */
        if((hadc->Instance->CR2 & ADC_CR2_EXTEN) == RESET) 
 8001c1a:	68fb      	ldr	r3, [r7, #12]
 8001c1c:	681b      	ldr	r3, [r3, #0]
 8001c1e:	689b      	ldr	r3, [r3, #8]
 8001c20:	f003 5340 	and.w	r3, r3, #805306368	; 0x30000000
 8001c24:	2b00      	cmp	r3, #0
 8001c26:	d11c      	bne.n	8001c62 <HAL_ADC_Start_DMA+0x1b6>
        {
          /* Enable the selected ADC software conversion for regular group */
          hadc->Instance->CR2 |= (uint32_t)ADC_CR2_SWSTART;
 8001c28:	68fb      	ldr	r3, [r7, #12]
 8001c2a:	681b      	ldr	r3, [r3, #0]
 8001c2c:	689a      	ldr	r2, [r3, #8]
 8001c2e:	68fb      	ldr	r3, [r7, #12]
 8001c30:	681b      	ldr	r3, [r3, #0]
 8001c32:	f042 4280 	orr.w	r2, r2, #1073741824	; 0x40000000
 8001c36:	609a      	str	r2, [r3, #8]
 8001c38:	e013      	b.n	8001c62 <HAL_ADC_Start_DMA+0x1b6>
#endif /* ADC2 || ADC3 */
    }
    else
    {
      /* if instance of handle correspond to ADC1 and  no external trigger present enable software conversion of regular channels */
      if((hadc->Instance == ADC1) && ((hadc->Instance->CR2 & ADC_CR2_EXTEN) == RESET))
 8001c3a:	68fb      	ldr	r3, [r7, #12]
 8001c3c:	681b      	ldr	r3, [r3, #0]
 8001c3e:	4a11      	ldr	r2, [pc, #68]	; (8001c84 <HAL_ADC_Start_DMA+0x1d8>)
 8001c40:	4293      	cmp	r3, r2
 8001c42:	d10e      	bne.n	8001c62 <HAL_ADC_Start_DMA+0x1b6>
 8001c44:	68fb      	ldr	r3, [r7, #12]
 8001c46:	681b      	ldr	r3, [r3, #0]
 8001c48:	689b      	ldr	r3, [r3, #8]
 8001c4a:	f003 5340 	and.w	r3, r3, #805306368	; 0x30000000
 8001c4e:	2b00      	cmp	r3, #0
 8001c50:	d107      	bne.n	8001c62 <HAL_ADC_Start_DMA+0x1b6>
      {
        /* Enable the selected ADC software conversion for regular group */
          hadc->Instance->CR2 |= (uint32_t)ADC_CR2_SWSTART;
 8001c52:	68fb      	ldr	r3, [r7, #12]
 8001c54:	681b      	ldr	r3, [r3, #0]
 8001c56:	689a      	ldr	r2, [r3, #8]
 8001c58:	68fb      	ldr	r3, [r7, #12]
 8001c5a:	681b      	ldr	r3, [r3, #0]
 8001c5c:	f042 4280 	orr.w	r2, r2, #1073741824	; 0x40000000
 8001c60:	609a      	str	r2, [r3, #8]
      }
    }
  }
  
  /* Return function status */
  return HAL_OK;
 8001c62:	2300      	movs	r3, #0
}
 8001c64:	4618      	mov	r0, r3
 8001c66:	3718      	adds	r7, #24
 8001c68:	46bd      	mov	sp, r7
 8001c6a:	bd80      	pop	{r7, pc}
 8001c6c:	20000000 	.word	0x20000000
 8001c70:	431bde83 	.word	0x431bde83
 8001c74:	40012300 	.word	0x40012300
 8001c78:	08002115 	.word	0x08002115
 8001c7c:	080021cf 	.word	0x080021cf
 8001c80:	080021eb 	.word	0x080021eb
 8001c84:	40012000 	.word	0x40012000
 8001c88:	40012100 	.word	0x40012100
 8001c8c:	40012200 	.word	0x40012200

08001c90 <HAL_ADC_ConvHalfCpltCallback>:
  * @param  hadc pointer to a ADC_HandleTypeDef structure that contains
  *         the configuration information for the specified ADC.
  * @retval None
  */
__weak void HAL_ADC_ConvHalfCpltCallback(ADC_HandleTypeDef* hadc)
{
 8001c90:	b480      	push	{r7}
 8001c92:	b083      	sub	sp, #12
 8001c94:	af00      	add	r7, sp, #0
 8001c96:	6078      	str	r0, [r7, #4]
  /* Prevent unused argument(s) compilation warning */
  UNUSED(hadc);
  /* NOTE : This function Should not be modified, when the callback is needed,
            the HAL_ADC_ConvHalfCpltCallback could be implemented in the user file
   */
}
 8001c98:	bf00      	nop
 8001c9a:	370c      	adds	r7, #12
 8001c9c:	46bd      	mov	sp, r7
 8001c9e:	f85d 7b04 	ldr.w	r7, [sp], #4
 8001ca2:	4770      	bx	lr

08001ca4 <HAL_ADC_ErrorCallback>:
  * @param  hadc pointer to a ADC_HandleTypeDef structure that contains
  *         the configuration information for the specified ADC.
  * @retval None
  */
__weak void HAL_ADC_ErrorCallback(ADC_HandleTypeDef *hadc)
{
 8001ca4:	b480      	push	{r7}
 8001ca6:	b083      	sub	sp, #12
 8001ca8:	af00      	add	r7, sp, #0
 8001caa:	6078      	str	r0, [r7, #4]
  /* Prevent unused argument(s) compilation warning */
  UNUSED(hadc);
  /* NOTE : This function Should not be modified, when the callback is needed,
            the HAL_ADC_ErrorCallback could be implemented in the user file
   */
}
 8001cac:	bf00      	nop
 8001cae:	370c      	adds	r7, #12
 8001cb0:	46bd      	mov	sp, r7
 8001cb2:	f85d 7b04 	ldr.w	r7, [sp], #4
 8001cb6:	4770      	bx	lr

08001cb8 <HAL_ADC_ConfigChannel>:
  *         the configuration information for the specified ADC.
  * @param  sConfig ADC configuration structure. 
  * @retval HAL status
  */
HAL_StatusTypeDef HAL_ADC_ConfigChannel(ADC_HandleTypeDef* hadc, ADC_ChannelConfTypeDef* sConfig)
{
 8001cb8:	b480      	push	{r7}
 8001cba:	b085      	sub	sp, #20
 8001cbc:	af00      	add	r7, sp, #0
 8001cbe:	6078      	str	r0, [r7, #4]
 8001cc0:	6039      	str	r1, [r7, #0]
  __IO uint32_t counter = 0U;
 8001cc2:	2300      	movs	r3, #0
 8001cc4:	60bb      	str	r3, [r7, #8]
  assert_param(IS_ADC_CHANNEL(sConfig->Channel));
  assert_param(IS_ADC_REGULAR_RANK(sConfig->Rank));
  assert_param(IS_ADC_SAMPLE_TIME(sConfig->SamplingTime));
  
  /* Process locked */
  __HAL_LOCK(hadc);
 8001cc6:	687b      	ldr	r3, [r7, #4]
 8001cc8:	f893 303c 	ldrb.w	r3, [r3, #60]	; 0x3c
 8001ccc:	2b01      	cmp	r3, #1
 8001cce:	d101      	bne.n	8001cd4 <HAL_ADC_ConfigChannel+0x1c>
 8001cd0:	2302      	movs	r3, #2
 8001cd2:	e113      	b.n	8001efc <HAL_ADC_ConfigChannel+0x244>
 8001cd4:	687b      	ldr	r3, [r7, #4]
 8001cd6:	2201      	movs	r2, #1
 8001cd8:	f883 203c 	strb.w	r2, [r3, #60]	; 0x3c
    
  /* if ADC_Channel_10 ... ADC_Channel_18 is selected */
  if (sConfig->Channel > ADC_CHANNEL_9)
 8001cdc:	683b      	ldr	r3, [r7, #0]
 8001cde:	681b      	ldr	r3, [r3, #0]
 8001ce0:	2b09      	cmp	r3, #9
 8001ce2:	d925      	bls.n	8001d30 <HAL_ADC_ConfigChannel+0x78>
  {
    /* Clear the old sample time */
    hadc->Instance->SMPR1 &= ~ADC_SMPR1(ADC_SMPR1_SMP10, sConfig->Channel);
 8001ce4:	687b      	ldr	r3, [r7, #4]
 8001ce6:	681b      	ldr	r3, [r3, #0]
 8001ce8:	68d9      	ldr	r1, [r3, #12]
 8001cea:	683b      	ldr	r3, [r7, #0]
 8001cec:	681b      	ldr	r3, [r3, #0]
 8001cee:	b29b      	uxth	r3, r3
 8001cf0:	461a      	mov	r2, r3
 8001cf2:	4613      	mov	r3, r2
 8001cf4:	005b      	lsls	r3, r3, #1
 8001cf6:	4413      	add	r3, r2
 8001cf8:	3b1e      	subs	r3, #30
 8001cfa:	2207      	movs	r2, #7
 8001cfc:	fa02 f303 	lsl.w	r3, r2, r3
 8001d00:	43da      	mvns	r2, r3
 8001d02:	687b      	ldr	r3, [r7, #4]
 8001d04:	681b      	ldr	r3, [r3, #0]
 8001d06:	400a      	ands	r2, r1
 8001d08:	60da      	str	r2, [r3, #12]
    
    /* Set the new sample time */
    hadc->Instance->SMPR1 |= ADC_SMPR1(sConfig->SamplingTime, sConfig->Channel);
 8001d0a:	687b      	ldr	r3, [r7, #4]
 8001d0c:	681b      	ldr	r3, [r3, #0]
 8001d0e:	68d9      	ldr	r1, [r3, #12]
 8001d10:	683b      	ldr	r3, [r7, #0]
 8001d12:	689a      	ldr	r2, [r3, #8]
 8001d14:	683b      	ldr	r3, [r7, #0]
 8001d16:	681b      	ldr	r3, [r3, #0]
 8001d18:	b29b      	uxth	r3, r3
 8001d1a:	4618      	mov	r0, r3
 8001d1c:	4603      	mov	r3, r0
 8001d1e:	005b      	lsls	r3, r3, #1
 8001d20:	4403      	add	r3, r0
 8001d22:	3b1e      	subs	r3, #30
 8001d24:	409a      	lsls	r2, r3
 8001d26:	687b      	ldr	r3, [r7, #4]
 8001d28:	681b      	ldr	r3, [r3, #0]
 8001d2a:	430a      	orrs	r2, r1
 8001d2c:	60da      	str	r2, [r3, #12]
 8001d2e:	e022      	b.n	8001d76 <HAL_ADC_ConfigChannel+0xbe>
  }
  else /* ADC_Channel include in ADC_Channel_[0..9] */
  {
    /* Clear the old sample time */
    hadc->Instance->SMPR2 &= ~ADC_SMPR2(ADC_SMPR2_SMP0, sConfig->Channel);
 8001d30:	687b      	ldr	r3, [r7, #4]
 8001d32:	681b      	ldr	r3, [r3, #0]
 8001d34:	6919      	ldr	r1, [r3, #16]
 8001d36:	683b      	ldr	r3, [r7, #0]
 8001d38:	681b      	ldr	r3, [r3, #0]
 8001d3a:	b29b      	uxth	r3, r3
 8001d3c:	461a      	mov	r2, r3
 8001d3e:	4613      	mov	r3, r2
 8001d40:	005b      	lsls	r3, r3, #1
 8001d42:	4413      	add	r3, r2
 8001d44:	2207      	movs	r2, #7
 8001d46:	fa02 f303 	lsl.w	r3, r2, r3
 8001d4a:	43da      	mvns	r2, r3
 8001d4c:	687b      	ldr	r3, [r7, #4]
 8001d4e:	681b      	ldr	r3, [r3, #0]
 8001d50:	400a      	ands	r2, r1
 8001d52:	611a      	str	r2, [r3, #16]
    
    /* Set the new sample time */
    hadc->Instance->SMPR2 |= ADC_SMPR2(sConfig->SamplingTime, sConfig->Channel);
 8001d54:	687b      	ldr	r3, [r7, #4]
 8001d56:	681b      	ldr	r3, [r3, #0]
 8001d58:	6919      	ldr	r1, [r3, #16]
 8001d5a:	683b      	ldr	r3, [r7, #0]
 8001d5c:	689a      	ldr	r2, [r3, #8]
 8001d5e:	683b      	ldr	r3, [r7, #0]
 8001d60:	681b      	ldr	r3, [r3, #0]
 8001d62:	b29b      	uxth	r3, r3
 8001d64:	4618      	mov	r0, r3
 8001d66:	4603      	mov	r3, r0
 8001d68:	005b      	lsls	r3, r3, #1
 8001d6a:	4403      	add	r3, r0
 8001d6c:	409a      	lsls	r2, r3
 8001d6e:	687b      	ldr	r3, [r7, #4]
 8001d70:	681b      	ldr	r3, [r3, #0]
 8001d72:	430a      	orrs	r2, r1
 8001d74:	611a      	str	r2, [r3, #16]
  }
  
  /* For Rank 1 to 6 */
  if (sConfig->Rank < 7U)
 8001d76:	683b      	ldr	r3, [r7, #0]
 8001d78:	685b      	ldr	r3, [r3, #4]
 8001d7a:	2b06      	cmp	r3, #6
 8001d7c:	d824      	bhi.n	8001dc8 <HAL_ADC_ConfigChannel+0x110>
  {
    /* Clear the old SQx bits for the selected rank */
    hadc->Instance->SQR3 &= ~ADC_SQR3_RK(ADC_SQR3_SQ1, sConfig->Rank);
 8001d7e:	687b      	ldr	r3, [r7, #4]
 8001d80:	681b      	ldr	r3, [r3, #0]
 8001d82:	6b59      	ldr	r1, [r3, #52]	; 0x34
 8001d84:	683b      	ldr	r3, [r7, #0]
 8001d86:	685a      	ldr	r2, [r3, #4]
 8001d88:	4613      	mov	r3, r2
 8001d8a:	009b      	lsls	r3, r3, #2
 8001d8c:	4413      	add	r3, r2
 8001d8e:	3b05      	subs	r3, #5
 8001d90:	221f      	movs	r2, #31
 8001d92:	fa02 f303 	lsl.w	r3, r2, r3
 8001d96:	43da      	mvns	r2, r3
 8001d98:	687b      	ldr	r3, [r7, #4]
 8001d9a:	681b      	ldr	r3, [r3, #0]
 8001d9c:	400a      	ands	r2, r1
 8001d9e:	635a      	str	r2, [r3, #52]	; 0x34
    
    /* Set the SQx bits for the selected rank */
    hadc->Instance->SQR3 |= ADC_SQR3_RK(sConfig->Channel, sConfig->Rank);
 8001da0:	687b      	ldr	r3, [r7, #4]
 8001da2:	681b      	ldr	r3, [r3, #0]
 8001da4:	6b59      	ldr	r1, [r3, #52]	; 0x34
 8001da6:	683b      	ldr	r3, [r7, #0]
 8001da8:	681b      	ldr	r3, [r3, #0]
 8001daa:	b29b      	uxth	r3, r3
 8001dac:	4618      	mov	r0, r3
 8001dae:	683b      	ldr	r3, [r7, #0]
 8001db0:	685a      	ldr	r2, [r3, #4]
 8001db2:	4613      	mov	r3, r2
 8001db4:	009b      	lsls	r3, r3, #2
 8001db6:	4413      	add	r3, r2
 8001db8:	3b05      	subs	r3, #5
 8001dba:	fa00 f203 	lsl.w	r2, r0, r3
 8001dbe:	687b      	ldr	r3, [r7, #4]
 8001dc0:	681b      	ldr	r3, [r3, #0]
 8001dc2:	430a      	orrs	r2, r1
 8001dc4:	635a      	str	r2, [r3, #52]	; 0x34
 8001dc6:	e04c      	b.n	8001e62 <HAL_ADC_ConfigChannel+0x1aa>
  }
  /* For Rank 7 to 12 */
  else if (sConfig->Rank < 13U)
 8001dc8:	683b      	ldr	r3, [r7, #0]
 8001dca:	685b      	ldr	r3, [r3, #4]
 8001dcc:	2b0c      	cmp	r3, #12
 8001dce:	d824      	bhi.n	8001e1a <HAL_ADC_ConfigChannel+0x162>
  {
    /* Clear the old SQx bits for the selected rank */
    hadc->Instance->SQR2 &= ~ADC_SQR2_RK(ADC_SQR2_SQ7, sConfig->Rank);
 8001dd0:	687b      	ldr	r3, [r7, #4]
 8001dd2:	681b      	ldr	r3, [r3, #0]
 8001dd4:	6b19      	ldr	r1, [r3, #48]	; 0x30
 8001dd6:	683b      	ldr	r3, [r7, #0]
 8001dd8:	685a      	ldr	r2, [r3, #4]
 8001dda:	4613      	mov	r3, r2
 8001ddc:	009b      	lsls	r3, r3, #2
 8001dde:	4413      	add	r3, r2
 8001de0:	3b23      	subs	r3, #35	; 0x23
 8001de2:	221f      	movs	r2, #31
 8001de4:	fa02 f303 	lsl.w	r3, r2, r3
 8001de8:	43da      	mvns	r2, r3
 8001dea:	687b      	ldr	r3, [r7, #4]
 8001dec:	681b      	ldr	r3, [r3, #0]
 8001dee:	400a      	ands	r2, r1
 8001df0:	631a      	str	r2, [r3, #48]	; 0x30
    
    /* Set the SQx bits for the selected rank */
    hadc->Instance->SQR2 |= ADC_SQR2_RK(sConfig->Channel, sConfig->Rank);
 8001df2:	687b      	ldr	r3, [r7, #4]
 8001df4:	681b      	ldr	r3, [r3, #0]
 8001df6:	6b19      	ldr	r1, [r3, #48]	; 0x30
 8001df8:	683b      	ldr	r3, [r7, #0]
 8001dfa:	681b      	ldr	r3, [r3, #0]
 8001dfc:	b29b      	uxth	r3, r3
 8001dfe:	4618      	mov	r0, r3
 8001e00:	683b      	ldr	r3, [r7, #0]
 8001e02:	685a      	ldr	r2, [r3, #4]
 8001e04:	4613      	mov	r3, r2
 8001e06:	009b      	lsls	r3, r3, #2
 8001e08:	4413      	add	r3, r2
 8001e0a:	3b23      	subs	r3, #35	; 0x23
 8001e0c:	fa00 f203 	lsl.w	r2, r0, r3
 8001e10:	687b      	ldr	r3, [r7, #4]
 8001e12:	681b      	ldr	r3, [r3, #0]
 8001e14:	430a      	orrs	r2, r1
 8001e16:	631a      	str	r2, [r3, #48]	; 0x30
 8001e18:	e023      	b.n	8001e62 <HAL_ADC_ConfigChannel+0x1aa>
  }
  /* For Rank 13 to 16 */
  else
  {
    /* Clear the old SQx bits for the selected rank */
    hadc->Instance->SQR1 &= ~ADC_SQR1_RK(ADC_SQR1_SQ13, sConfig->Rank);
 8001e1a:	687b      	ldr	r3, [r7, #4]
 8001e1c:	681b      	ldr	r3, [r3, #0]
 8001e1e:	6ad9      	ldr	r1, [r3, #44]	; 0x2c
 8001e20:	683b      	ldr	r3, [r7, #0]
 8001e22:	685a      	ldr	r2, [r3, #4]
 8001e24:	4613      	mov	r3, r2
 8001e26:	009b      	lsls	r3, r3, #2
 8001e28:	4413      	add	r3, r2
 8001e2a:	3b41      	subs	r3, #65	; 0x41
 8001e2c:	221f      	movs	r2, #31
 8001e2e:	fa02 f303 	lsl.w	r3, r2, r3
 8001e32:	43da      	mvns	r2, r3
 8001e34:	687b      	ldr	r3, [r7, #4]
 8001e36:	681b      	ldr	r3, [r3, #0]
 8001e38:	400a      	ands	r2, r1
 8001e3a:	62da      	str	r2, [r3, #44]	; 0x2c
    
    /* Set the SQx bits for the selected rank */
    hadc->Instance->SQR1 |= ADC_SQR1_RK(sConfig->Channel, sConfig->Rank);
 8001e3c:	687b      	ldr	r3, [r7, #4]
 8001e3e:	681b      	ldr	r3, [r3, #0]
 8001e40:	6ad9      	ldr	r1, [r3, #44]	; 0x2c
 8001e42:	683b      	ldr	r3, [r7, #0]
 8001e44:	681b      	ldr	r3, [r3, #0]
 8001e46:	b29b      	uxth	r3, r3
 8001e48:	4618      	mov	r0, r3
 8001e4a:	683b      	ldr	r3, [r7, #0]
 8001e4c:	685a      	ldr	r2, [r3, #4]
 8001e4e:	4613      	mov	r3, r2
 8001e50:	009b      	lsls	r3, r3, #2
 8001e52:	4413      	add	r3, r2
 8001e54:	3b41      	subs	r3, #65	; 0x41
 8001e56:	fa00 f203 	lsl.w	r2, r0, r3
 8001e5a:	687b      	ldr	r3, [r7, #4]
 8001e5c:	681b      	ldr	r3, [r3, #0]
 8001e5e:	430a      	orrs	r2, r1
 8001e60:	62da      	str	r2, [r3, #44]	; 0x2c
  }

    /* Pointer to the common control register to which is belonging hadc    */
    /* (Depending on STM32F4 product, there may be up to 3 ADCs and 1 common */
    /* control register)                                                    */
    tmpADC_Common = ADC_COMMON_REGISTER(hadc);
 8001e62:	4b29      	ldr	r3, [pc, #164]	; (8001f08 <HAL_ADC_ConfigChannel+0x250>)
 8001e64:	60fb      	str	r3, [r7, #12]

  /* if ADC1 Channel_18 is selected for VBAT Channel ennable VBATE */
  if ((hadc->Instance == ADC1) && (sConfig->Channel == ADC_CHANNEL_VBAT))
 8001e66:	687b      	ldr	r3, [r7, #4]
 8001e68:	681b      	ldr	r3, [r3, #0]
 8001e6a:	4a28      	ldr	r2, [pc, #160]	; (8001f0c <HAL_ADC_ConfigChannel+0x254>)
 8001e6c:	4293      	cmp	r3, r2
 8001e6e:	d10f      	bne.n	8001e90 <HAL_ADC_ConfigChannel+0x1d8>
 8001e70:	683b      	ldr	r3, [r7, #0]
 8001e72:	681b      	ldr	r3, [r3, #0]
 8001e74:	2b12      	cmp	r3, #18
 8001e76:	d10b      	bne.n	8001e90 <HAL_ADC_ConfigChannel+0x1d8>
  {
    /* Disable the TEMPSENSOR channel in case of using board with multiplixed ADC_CHANNEL_VBAT & ADC_CHANNEL_TEMPSENSOR*/    
    if ((uint16_t)ADC_CHANNEL_TEMPSENSOR == (uint16_t)ADC_CHANNEL_VBAT)
    {
      tmpADC_Common->CCR &= ~ADC_CCR_TSVREFE;
 8001e78:	68fb      	ldr	r3, [r7, #12]
 8001e7a:	685b      	ldr	r3, [r3, #4]
 8001e7c:	f423 0200 	bic.w	r2, r3, #8388608	; 0x800000
 8001e80:	68fb      	ldr	r3, [r7, #12]
 8001e82:	605a      	str	r2, [r3, #4]
    }
    /* Enable the VBAT channel*/
    tmpADC_Common->CCR |= ADC_CCR_VBATE;
 8001e84:	68fb      	ldr	r3, [r7, #12]
 8001e86:	685b      	ldr	r3, [r3, #4]
 8001e88:	f443 0280 	orr.w	r2, r3, #4194304	; 0x400000
 8001e8c:	68fb      	ldr	r3, [r7, #12]
 8001e8e:	605a      	str	r2, [r3, #4]
  }
  
  /* if ADC1 Channel_16 or Channel_18 is selected for Temperature sensor or 
     Channel_17 is selected for VREFINT enable TSVREFE */
  if ((hadc->Instance == ADC1) && ((sConfig->Channel == ADC_CHANNEL_TEMPSENSOR) || (sConfig->Channel == ADC_CHANNEL_VREFINT)))
 8001e90:	687b      	ldr	r3, [r7, #4]
 8001e92:	681b      	ldr	r3, [r3, #0]
 8001e94:	4a1d      	ldr	r2, [pc, #116]	; (8001f0c <HAL_ADC_ConfigChannel+0x254>)
 8001e96:	4293      	cmp	r3, r2
 8001e98:	d12b      	bne.n	8001ef2 <HAL_ADC_ConfigChannel+0x23a>
 8001e9a:	683b      	ldr	r3, [r7, #0]
 8001e9c:	681b      	ldr	r3, [r3, #0]
 8001e9e:	4a1c      	ldr	r2, [pc, #112]	; (8001f10 <HAL_ADC_ConfigChannel+0x258>)
 8001ea0:	4293      	cmp	r3, r2
 8001ea2:	d003      	beq.n	8001eac <HAL_ADC_ConfigChannel+0x1f4>
 8001ea4:	683b      	ldr	r3, [r7, #0]
 8001ea6:	681b      	ldr	r3, [r3, #0]
 8001ea8:	2b11      	cmp	r3, #17
 8001eaa:	d122      	bne.n	8001ef2 <HAL_ADC_ConfigChannel+0x23a>
  {
    /* Disable the VBAT channel in case of using board with multiplixed ADC_CHANNEL_VBAT & ADC_CHANNEL_TEMPSENSOR*/
    if ((uint16_t)ADC_CHANNEL_TEMPSENSOR == (uint16_t)ADC_CHANNEL_VBAT)
    {
      tmpADC_Common->CCR &= ~ADC_CCR_VBATE;
 8001eac:	68fb      	ldr	r3, [r7, #12]
 8001eae:	685b      	ldr	r3, [r3, #4]
 8001eb0:	f423 0280 	bic.w	r2, r3, #4194304	; 0x400000
 8001eb4:	68fb      	ldr	r3, [r7, #12]
 8001eb6:	605a      	str	r2, [r3, #4]
    }
    /* Enable the Temperature sensor and VREFINT channel*/
    tmpADC_Common->CCR |= ADC_CCR_TSVREFE;
 8001eb8:	68fb      	ldr	r3, [r7, #12]
 8001eba:	685b      	ldr	r3, [r3, #4]
 8001ebc:	f443 0200 	orr.w	r2, r3, #8388608	; 0x800000
 8001ec0:	68fb      	ldr	r3, [r7, #12]
 8001ec2:	605a      	str	r2, [r3, #4]
    
    if((sConfig->Channel == ADC_CHANNEL_TEMPSENSOR))
 8001ec4:	683b      	ldr	r3, [r7, #0]
 8001ec6:	681b      	ldr	r3, [r3, #0]
 8001ec8:	4a11      	ldr	r2, [pc, #68]	; (8001f10 <HAL_ADC_ConfigChannel+0x258>)
 8001eca:	4293      	cmp	r3, r2
 8001ecc:	d111      	bne.n	8001ef2 <HAL_ADC_ConfigChannel+0x23a>
    {
      /* Delay for temperature sensor stabilization time */
      /* Compute number of CPU cycles to wait for */
      counter = (ADC_TEMPSENSOR_DELAY_US * (SystemCoreClock / 1000000U));
 8001ece:	4b11      	ldr	r3, [pc, #68]	; (8001f14 <HAL_ADC_ConfigChannel+0x25c>)
 8001ed0:	681b      	ldr	r3, [r3, #0]
 8001ed2:	4a11      	ldr	r2, [pc, #68]	; (8001f18 <HAL_ADC_ConfigChannel+0x260>)
 8001ed4:	fba2 2303 	umull	r2, r3, r2, r3
 8001ed8:	0c9a      	lsrs	r2, r3, #18
 8001eda:	4613      	mov	r3, r2
 8001edc:	009b      	lsls	r3, r3, #2
 8001ede:	4413      	add	r3, r2
 8001ee0:	005b      	lsls	r3, r3, #1
 8001ee2:	60bb      	str	r3, [r7, #8]
      while(counter != 0U)
 8001ee4:	e002      	b.n	8001eec <HAL_ADC_ConfigChannel+0x234>
      {
        counter--;
 8001ee6:	68bb      	ldr	r3, [r7, #8]
 8001ee8:	3b01      	subs	r3, #1
 8001eea:	60bb      	str	r3, [r7, #8]
      while(counter != 0U)
 8001eec:	68bb      	ldr	r3, [r7, #8]
 8001eee:	2b00      	cmp	r3, #0
 8001ef0:	d1f9      	bne.n	8001ee6 <HAL_ADC_ConfigChannel+0x22e>
      }
    }
  }
  
  /* Process unlocked */
  __HAL_UNLOCK(hadc);
 8001ef2:	687b      	ldr	r3, [r7, #4]
 8001ef4:	2200      	movs	r2, #0
 8001ef6:	f883 203c 	strb.w	r2, [r3, #60]	; 0x3c
  
  /* Return function status */
  return HAL_OK;
 8001efa:	2300      	movs	r3, #0
}
 8001efc:	4618      	mov	r0, r3
 8001efe:	3714      	adds	r7, #20
 8001f00:	46bd      	mov	sp, r7
 8001f02:	f85d 7b04 	ldr.w	r7, [sp], #4
 8001f06:	4770      	bx	lr
 8001f08:	40012300 	.word	0x40012300
 8001f0c:	40012000 	.word	0x40012000
 8001f10:	10000012 	.word	0x10000012
 8001f14:	20000000 	.word	0x20000000
 8001f18:	431bde83 	.word	0x431bde83

08001f1c <ADC_Init>:
  * @param  hadc pointer to a ADC_HandleTypeDef structure that contains
  *         the configuration information for the specified ADC.  
  * @retval None
  */
static void ADC_Init(ADC_HandleTypeDef* hadc)
{
 8001f1c:	b480      	push	{r7}
 8001f1e:	b085      	sub	sp, #20
 8001f20:	af00      	add	r7, sp, #0
 8001f22:	6078      	str	r0, [r7, #4]
  
  /* Set ADC parameters */
  /* Pointer to the common control register to which is belonging hadc    */
  /* (Depending on STM32F4 product, there may be up to 3 ADCs and 1 common */
  /* control register)                                                    */
  tmpADC_Common = ADC_COMMON_REGISTER(hadc);
 8001f24:	4b79      	ldr	r3, [pc, #484]	; (800210c <ADC_Init+0x1f0>)
 8001f26:	60fb      	str	r3, [r7, #12]
  
  /* Set the ADC clock prescaler */
  tmpADC_Common->CCR &= ~(ADC_CCR_ADCPRE);
 8001f28:	68fb      	ldr	r3, [r7, #12]
 8001f2a:	685b      	ldr	r3, [r3, #4]
 8001f2c:	f423 3240 	bic.w	r2, r3, #196608	; 0x30000
 8001f30:	68fb      	ldr	r3, [r7, #12]
 8001f32:	605a      	str	r2, [r3, #4]
  tmpADC_Common->CCR |=  hadc->Init.ClockPrescaler;
 8001f34:	68fb      	ldr	r3, [r7, #12]
 8001f36:	685a      	ldr	r2, [r3, #4]
 8001f38:	687b      	ldr	r3, [r7, #4]
 8001f3a:	685b      	ldr	r3, [r3, #4]
 8001f3c:	431a      	orrs	r2, r3
 8001f3e:	68fb      	ldr	r3, [r7, #12]
 8001f40:	605a      	str	r2, [r3, #4]
  
  /* Set ADC scan mode */
  hadc->Instance->CR1 &= ~(ADC_CR1_SCAN);
 8001f42:	687b      	ldr	r3, [r7, #4]
 8001f44:	681b      	ldr	r3, [r3, #0]
 8001f46:	685a      	ldr	r2, [r3, #4]
 8001f48:	687b      	ldr	r3, [r7, #4]
 8001f4a:	681b      	ldr	r3, [r3, #0]
 8001f4c:	f422 7280 	bic.w	r2, r2, #256	; 0x100
 8001f50:	605a      	str	r2, [r3, #4]
  hadc->Instance->CR1 |=  ADC_CR1_SCANCONV(hadc->Init.ScanConvMode);
 8001f52:	687b      	ldr	r3, [r7, #4]
 8001f54:	681b      	ldr	r3, [r3, #0]
 8001f56:	6859      	ldr	r1, [r3, #4]
 8001f58:	687b      	ldr	r3, [r7, #4]
 8001f5a:	691b      	ldr	r3, [r3, #16]
 8001f5c:	021a      	lsls	r2, r3, #8
 8001f5e:	687b      	ldr	r3, [r7, #4]
 8001f60:	681b      	ldr	r3, [r3, #0]
 8001f62:	430a      	orrs	r2, r1
 8001f64:	605a      	str	r2, [r3, #4]
  
  /* Set ADC resolution */
  hadc->Instance->CR1 &= ~(ADC_CR1_RES);
 8001f66:	687b      	ldr	r3, [r7, #4]
 8001f68:	681b      	ldr	r3, [r3, #0]
 8001f6a:	685a      	ldr	r2, [r3, #4]
 8001f6c:	687b      	ldr	r3, [r7, #4]
 8001f6e:	681b      	ldr	r3, [r3, #0]
 8001f70:	f022 7240 	bic.w	r2, r2, #50331648	; 0x3000000
 8001f74:	605a      	str	r2, [r3, #4]
  hadc->Instance->CR1 |=  hadc->Init.Resolution;
 8001f76:	687b      	ldr	r3, [r7, #4]
 8001f78:	681b      	ldr	r3, [r3, #0]
 8001f7a:	6859      	ldr	r1, [r3, #4]
 8001f7c:	687b      	ldr	r3, [r7, #4]
 8001f7e:	689a      	ldr	r2, [r3, #8]
 8001f80:	687b      	ldr	r3, [r7, #4]
 8001f82:	681b      	ldr	r3, [r3, #0]
 8001f84:	430a      	orrs	r2, r1
 8001f86:	605a      	str	r2, [r3, #4]
  
  /* Set ADC data alignment */
  hadc->Instance->CR2 &= ~(ADC_CR2_ALIGN);
 8001f88:	687b      	ldr	r3, [r7, #4]
 8001f8a:	681b      	ldr	r3, [r3, #0]
 8001f8c:	689a      	ldr	r2, [r3, #8]
 8001f8e:	687b      	ldr	r3, [r7, #4]
 8001f90:	681b      	ldr	r3, [r3, #0]
 8001f92:	f422 6200 	bic.w	r2, r2, #2048	; 0x800
 8001f96:	609a      	str	r2, [r3, #8]
  hadc->Instance->CR2 |= hadc->Init.DataAlign;
 8001f98:	687b      	ldr	r3, [r7, #4]
 8001f9a:	681b      	ldr	r3, [r3, #0]
 8001f9c:	6899      	ldr	r1, [r3, #8]
 8001f9e:	687b      	ldr	r3, [r7, #4]
 8001fa0:	68da      	ldr	r2, [r3, #12]
 8001fa2:	687b      	ldr	r3, [r7, #4]
 8001fa4:	681b      	ldr	r3, [r3, #0]
 8001fa6:	430a      	orrs	r2, r1
 8001fa8:	609a      	str	r2, [r3, #8]
  /* Enable external trigger if trigger selection is different of software  */
  /* start.                                                                 */
  /* Note: This configuration keeps the hardware feature of parameter       */
  /*       ExternalTrigConvEdge "trigger edge none" equivalent to           */
  /*       software start.                                                  */
  if(hadc->Init.ExternalTrigConv != ADC_SOFTWARE_START)
 8001faa:	687b      	ldr	r3, [r7, #4]
 8001fac:	6a9b      	ldr	r3, [r3, #40]	; 0x28
 8001fae:	4a58      	ldr	r2, [pc, #352]	; (8002110 <ADC_Init+0x1f4>)
 8001fb0:	4293      	cmp	r3, r2
 8001fb2:	d022      	beq.n	8001ffa <ADC_Init+0xde>
  {
    /* Select external trigger to start conversion */
    hadc->Instance->CR2 &= ~(ADC_CR2_EXTSEL);
 8001fb4:	687b      	ldr	r3, [r7, #4]
 8001fb6:	681b      	ldr	r3, [r3, #0]
 8001fb8:	689a      	ldr	r2, [r3, #8]
 8001fba:	687b      	ldr	r3, [r7, #4]
 8001fbc:	681b      	ldr	r3, [r3, #0]
 8001fbe:	f022 6270 	bic.w	r2, r2, #251658240	; 0xf000000
 8001fc2:	609a      	str	r2, [r3, #8]
    hadc->Instance->CR2 |= hadc->Init.ExternalTrigConv;
 8001fc4:	687b      	ldr	r3, [r7, #4]
 8001fc6:	681b      	ldr	r3, [r3, #0]
 8001fc8:	6899      	ldr	r1, [r3, #8]
 8001fca:	687b      	ldr	r3, [r7, #4]
 8001fcc:	6a9a      	ldr	r2, [r3, #40]	; 0x28
 8001fce:	687b      	ldr	r3, [r7, #4]
 8001fd0:	681b      	ldr	r3, [r3, #0]
 8001fd2:	430a      	orrs	r2, r1
 8001fd4:	609a      	str	r2, [r3, #8]
    
    /* Select external trigger polarity */
    hadc->Instance->CR2 &= ~(ADC_CR2_EXTEN);
 8001fd6:	687b      	ldr	r3, [r7, #4]
 8001fd8:	681b      	ldr	r3, [r3, #0]
 8001fda:	689a      	ldr	r2, [r3, #8]
 8001fdc:	687b      	ldr	r3, [r7, #4]
 8001fde:	681b      	ldr	r3, [r3, #0]
 8001fe0:	f022 5240 	bic.w	r2, r2, #805306368	; 0x30000000
 8001fe4:	609a      	str	r2, [r3, #8]
    hadc->Instance->CR2 |= hadc->Init.ExternalTrigConvEdge;
 8001fe6:	687b      	ldr	r3, [r7, #4]
 8001fe8:	681b      	ldr	r3, [r3, #0]
 8001fea:	6899      	ldr	r1, [r3, #8]
 8001fec:	687b      	ldr	r3, [r7, #4]
 8001fee:	6ada      	ldr	r2, [r3, #44]	; 0x2c
 8001ff0:	687b      	ldr	r3, [r7, #4]
 8001ff2:	681b      	ldr	r3, [r3, #0]
 8001ff4:	430a      	orrs	r2, r1
 8001ff6:	609a      	str	r2, [r3, #8]
 8001ff8:	e00f      	b.n	800201a <ADC_Init+0xfe>
  }
  else
  {
    /* Reset the external trigger */
    hadc->Instance->CR2 &= ~(ADC_CR2_EXTSEL);
 8001ffa:	687b      	ldr	r3, [r7, #4]
 8001ffc:	681b      	ldr	r3, [r3, #0]
 8001ffe:	689a      	ldr	r2, [r3, #8]
 8002000:	687b      	ldr	r3, [r7, #4]
 8002002:	681b      	ldr	r3, [r3, #0]
 8002004:	f022 6270 	bic.w	r2, r2, #251658240	; 0xf000000
 8002008:	609a      	str	r2, [r3, #8]
    hadc->Instance->CR2 &= ~(ADC_CR2_EXTEN);
 800200a:	687b      	ldr	r3, [r7, #4]
 800200c:	681b      	ldr	r3, [r3, #0]
 800200e:	689a      	ldr	r2, [r3, #8]
 8002010:	687b      	ldr	r3, [r7, #4]
 8002012:	681b      	ldr	r3, [r3, #0]
 8002014:	f022 5240 	bic.w	r2, r2, #805306368	; 0x30000000
 8002018:	609a      	str	r2, [r3, #8]
  }
  
  /* Enable or disable ADC continuous conversion mode */
  hadc->Instance->CR2 &= ~(ADC_CR2_CONT);
 800201a:	687b      	ldr	r3, [r7, #4]
 800201c:	681b      	ldr	r3, [r3, #0]
 800201e:	689a      	ldr	r2, [r3, #8]
 8002020:	687b      	ldr	r3, [r7, #4]
 8002022:	681b      	ldr	r3, [r3, #0]
 8002024:	f022 0202 	bic.w	r2, r2, #2
 8002028:	609a      	str	r2, [r3, #8]
  hadc->Instance->CR2 |= ADC_CR2_CONTINUOUS((uint32_t)hadc->Init.ContinuousConvMode);
 800202a:	687b      	ldr	r3, [r7, #4]
 800202c:	681b      	ldr	r3, [r3, #0]
 800202e:	6899      	ldr	r1, [r3, #8]
 8002030:	687b      	ldr	r3, [r7, #4]
 8002032:	7e1b      	ldrb	r3, [r3, #24]
 8002034:	005a      	lsls	r2, r3, #1
 8002036:	687b      	ldr	r3, [r7, #4]
 8002038:	681b      	ldr	r3, [r3, #0]
 800203a:	430a      	orrs	r2, r1
 800203c:	609a      	str	r2, [r3, #8]
  
  if(hadc->Init.DiscontinuousConvMode != DISABLE)
 800203e:	687b      	ldr	r3, [r7, #4]
 8002040:	f893 3020 	ldrb.w	r3, [r3, #32]
 8002044:	2b00      	cmp	r3, #0
 8002046:	d01b      	beq.n	8002080 <ADC_Init+0x164>
  {
    assert_param(IS_ADC_REGULAR_DISC_NUMBER(hadc->Init.NbrOfDiscConversion));
  
    /* Enable the selected ADC regular discontinuous mode */
    hadc->Instance->CR1 |= (uint32_t)ADC_CR1_DISCEN;
 8002048:	687b      	ldr	r3, [r7, #4]
 800204a:	681b      	ldr	r3, [r3, #0]
 800204c:	685a      	ldr	r2, [r3, #4]
 800204e:	687b      	ldr	r3, [r7, #4]
 8002050:	681b      	ldr	r3, [r3, #0]
 8002052:	f442 6200 	orr.w	r2, r2, #2048	; 0x800
 8002056:	605a      	str	r2, [r3, #4]
    
    /* Set the number of channels to be converted in discontinuous mode */
    hadc->Instance->CR1 &= ~(ADC_CR1_DISCNUM);
 8002058:	687b      	ldr	r3, [r7, #4]
 800205a:	681b      	ldr	r3, [r3, #0]
 800205c:	685a      	ldr	r2, [r3, #4]
 800205e:	687b      	ldr	r3, [r7, #4]
 8002060:	681b      	ldr	r3, [r3, #0]
 8002062:	f422 4260 	bic.w	r2, r2, #57344	; 0xe000
 8002066:	605a      	str	r2, [r3, #4]
    hadc->Instance->CR1 |=  ADC_CR1_DISCONTINUOUS(hadc->Init.NbrOfDiscConversion);
 8002068:	687b      	ldr	r3, [r7, #4]
 800206a:	681b      	ldr	r3, [r3, #0]
 800206c:	6859      	ldr	r1, [r3, #4]
 800206e:	687b      	ldr	r3, [r7, #4]
 8002070:	6a5b      	ldr	r3, [r3, #36]	; 0x24
 8002072:	3b01      	subs	r3, #1
 8002074:	035a      	lsls	r2, r3, #13
 8002076:	687b      	ldr	r3, [r7, #4]
 8002078:	681b      	ldr	r3, [r3, #0]
 800207a:	430a      	orrs	r2, r1
 800207c:	605a      	str	r2, [r3, #4]
 800207e:	e007      	b.n	8002090 <ADC_Init+0x174>
  }
  else
  {
    /* Disable the selected ADC regular discontinuous mode */
    hadc->Instance->CR1 &= ~(ADC_CR1_DISCEN);
 8002080:	687b      	ldr	r3, [r7, #4]
 8002082:	681b      	ldr	r3, [r3, #0]
 8002084:	685a      	ldr	r2, [r3, #4]
 8002086:	687b      	ldr	r3, [r7, #4]
 8002088:	681b      	ldr	r3, [r3, #0]
 800208a:	f422 6200 	bic.w	r2, r2, #2048	; 0x800
 800208e:	605a      	str	r2, [r3, #4]
  }
  
  /* Set ADC number of conversion */
  hadc->Instance->SQR1 &= ~(ADC_SQR1_L);
 8002090:	687b      	ldr	r3, [r7, #4]
 8002092:	681b      	ldr	r3, [r3, #0]
 8002094:	6ada      	ldr	r2, [r3, #44]	; 0x2c
 8002096:	687b      	ldr	r3, [r7, #4]
 8002098:	681b      	ldr	r3, [r3, #0]
 800209a:	f422 0270 	bic.w	r2, r2, #15728640	; 0xf00000
 800209e:	62da      	str	r2, [r3, #44]	; 0x2c
  hadc->Instance->SQR1 |=  ADC_SQR1(hadc->Init.NbrOfConversion);
 80020a0:	687b      	ldr	r3, [r7, #4]
 80020a2:	681b      	ldr	r3, [r3, #0]
 80020a4:	6ad9      	ldr	r1, [r3, #44]	; 0x2c
 80020a6:	687b      	ldr	r3, [r7, #4]
 80020a8:	69db      	ldr	r3, [r3, #28]
 80020aa:	3b01      	subs	r3, #1
 80020ac:	051a      	lsls	r2, r3, #20
 80020ae:	687b      	ldr	r3, [r7, #4]
 80020b0:	681b      	ldr	r3, [r3, #0]
 80020b2:	430a      	orrs	r2, r1
 80020b4:	62da      	str	r2, [r3, #44]	; 0x2c
  
  /* Enable or disable ADC DMA continuous request */
  hadc->Instance->CR2 &= ~(ADC_CR2_DDS);
 80020b6:	687b      	ldr	r3, [r7, #4]
 80020b8:	681b      	ldr	r3, [r3, #0]
 80020ba:	689a      	ldr	r2, [r3, #8]
 80020bc:	687b      	ldr	r3, [r7, #4]
 80020be:	681b      	ldr	r3, [r3, #0]
 80020c0:	f422 7200 	bic.w	r2, r2, #512	; 0x200
 80020c4:	609a      	str	r2, [r3, #8]
  hadc->Instance->CR2 |= ADC_CR2_DMAContReq((uint32_t)hadc->Init.DMAContinuousRequests);
 80020c6:	687b      	ldr	r3, [r7, #4]
 80020c8:	681b      	ldr	r3, [r3, #0]
 80020ca:	6899      	ldr	r1, [r3, #8]
 80020cc:	687b      	ldr	r3, [r7, #4]
 80020ce:	f893 3030 	ldrb.w	r3, [r3, #48]	; 0x30
 80020d2:	025a      	lsls	r2, r3, #9
 80020d4:	687b      	ldr	r3, [r7, #4]
 80020d6:	681b      	ldr	r3, [r3, #0]
 80020d8:	430a      	orrs	r2, r1
 80020da:	609a      	str	r2, [r3, #8]
  
  /* Enable or disable ADC end of conversion selection */
  hadc->Instance->CR2 &= ~(ADC_CR2_EOCS);
 80020dc:	687b      	ldr	r3, [r7, #4]
 80020de:	681b      	ldr	r3, [r3, #0]
 80020e0:	689a      	ldr	r2, [r3, #8]
 80020e2:	687b      	ldr	r3, [r7, #4]
 80020e4:	681b      	ldr	r3, [r3, #0]
 80020e6:	f422 6280 	bic.w	r2, r2, #1024	; 0x400
 80020ea:	609a      	str	r2, [r3, #8]
  hadc->Instance->CR2 |= ADC_CR2_EOCSelection(hadc->Init.EOCSelection);
 80020ec:	687b      	ldr	r3, [r7, #4]
 80020ee:	681b      	ldr	r3, [r3, #0]
 80020f0:	6899      	ldr	r1, [r3, #8]
 80020f2:	687b      	ldr	r3, [r7, #4]
 80020f4:	695b      	ldr	r3, [r3, #20]
 80020f6:	029a      	lsls	r2, r3, #10
 80020f8:	687b      	ldr	r3, [r7, #4]
 80020fa:	681b      	ldr	r3, [r3, #0]
 80020fc:	430a      	orrs	r2, r1
 80020fe:	609a      	str	r2, [r3, #8]
}
 8002100:	bf00      	nop
 8002102:	3714      	adds	r7, #20
 8002104:	46bd      	mov	sp, r7
 8002106:	f85d 7b04 	ldr.w	r7, [sp], #4
 800210a:	4770      	bx	lr
 800210c:	40012300 	.word	0x40012300
 8002110:	0f000001 	.word	0x0f000001

08002114 <ADC_DMAConvCplt>:
  * @param  hdma pointer to a DMA_HandleTypeDef structure that contains
  *                the configuration information for the specified DMA module.
  * @retval None
  */
static void ADC_DMAConvCplt(DMA_HandleTypeDef *hdma)   
{
 8002114:	b580      	push	{r7, lr}
 8002116:	b084      	sub	sp, #16
 8002118:	af00      	add	r7, sp, #0
 800211a:	6078      	str	r0, [r7, #4]
  /* Retrieve ADC handle corresponding to current DMA handle */
  ADC_HandleTypeDef* hadc = ( ADC_HandleTypeDef* )((DMA_HandleTypeDef* )hdma)->Parent;
 800211c:	687b      	ldr	r3, [r7, #4]
 800211e:	6b9b      	ldr	r3, [r3, #56]	; 0x38
 8002120:	60fb      	str	r3, [r7, #12]
  
  /* Update state machine on conversion status if not in error state */
  if (HAL_IS_BIT_CLR(hadc->State, HAL_ADC_STATE_ERROR_INTERNAL | HAL_ADC_STATE_ERROR_DMA))
 8002122:	68fb      	ldr	r3, [r7, #12]
 8002124:	6c1b      	ldr	r3, [r3, #64]	; 0x40
 8002126:	f003 0350 	and.w	r3, r3, #80	; 0x50
 800212a:	2b00      	cmp	r3, #0
 800212c:	d13c      	bne.n	80021a8 <ADC_DMAConvCplt+0x94>
  {
    /* Update ADC state machine */
    SET_BIT(hadc->State, HAL_ADC_STATE_REG_EOC);
 800212e:	68fb      	ldr	r3, [r7, #12]
 8002130:	6c1b      	ldr	r3, [r3, #64]	; 0x40
 8002132:	f443 7200 	orr.w	r2, r3, #512	; 0x200
 8002136:	68fb      	ldr	r3, [r7, #12]
 8002138:	641a      	str	r2, [r3, #64]	; 0x40
    /* by external trigger, continuous mode or scan sequence on going.      */
    /* Note: On STM32F4, there is no independent flag of end of sequence.   */
    /*       The test of scan sequence on going is done either with scan    */
    /*       sequence disabled or with end of conversion flag set to        */
    /*       of end of sequence.                                            */
    if(ADC_IS_SOFTWARE_START_REGULAR(hadc)                   &&
 800213a:	68fb      	ldr	r3, [r7, #12]
 800213c:	681b      	ldr	r3, [r3, #0]
 800213e:	689b      	ldr	r3, [r3, #8]
 8002140:	f003 5340 	and.w	r3, r3, #805306368	; 0x30000000
 8002144:	2b00      	cmp	r3, #0
 8002146:	d12b      	bne.n	80021a0 <ADC_DMAConvCplt+0x8c>
       (hadc->Init.ContinuousConvMode == DISABLE)            &&
 8002148:	68fb      	ldr	r3, [r7, #12]
 800214a:	7e1b      	ldrb	r3, [r3, #24]
    if(ADC_IS_SOFTWARE_START_REGULAR(hadc)                   &&
 800214c:	2b00      	cmp	r3, #0
 800214e:	d127      	bne.n	80021a0 <ADC_DMAConvCplt+0x8c>
       (HAL_IS_BIT_CLR(hadc->Instance->SQR1, ADC_SQR1_L) || 
 8002150:	68fb      	ldr	r3, [r7, #12]
 8002152:	681b      	ldr	r3, [r3, #0]
 8002154:	6adb      	ldr	r3, [r3, #44]	; 0x2c
 8002156:	f403 0370 	and.w	r3, r3, #15728640	; 0xf00000
       (hadc->Init.ContinuousConvMode == DISABLE)            &&
 800215a:	2b00      	cmp	r3, #0
 800215c:	d006      	beq.n	800216c <ADC_DMAConvCplt+0x58>
        HAL_IS_BIT_CLR(hadc->Instance->CR2, ADC_CR2_EOCS)  )   )
 800215e:	68fb      	ldr	r3, [r7, #12]
 8002160:	681b      	ldr	r3, [r3, #0]
 8002162:	689b      	ldr	r3, [r3, #8]
 8002164:	f403 6380 	and.w	r3, r3, #1024	; 0x400
       (HAL_IS_BIT_CLR(hadc->Instance->SQR1, ADC_SQR1_L) || 
 8002168:	2b00      	cmp	r3, #0
 800216a:	d119      	bne.n	80021a0 <ADC_DMAConvCplt+0x8c>
    {
      /* Disable ADC end of single conversion interrupt on group regular */
      /* Note: Overrun interrupt was enabled with EOC interrupt in          */
      /* HAL_ADC_Start_IT(), but is not disabled here because can be used   */
      /* by overrun IRQ process below.                                      */
      __HAL_ADC_DISABLE_IT(hadc, ADC_IT_EOC);
 800216c:	68fb      	ldr	r3, [r7, #12]
 800216e:	681b      	ldr	r3, [r3, #0]
 8002170:	685a      	ldr	r2, [r3, #4]
 8002172:	68fb      	ldr	r3, [r7, #12]
 8002174:	681b      	ldr	r3, [r3, #0]
 8002176:	f022 0220 	bic.w	r2, r2, #32
 800217a:	605a      	str	r2, [r3, #4]
      
      /* Set ADC state */
      CLEAR_BIT(hadc->State, HAL_ADC_STATE_REG_BUSY);   
 800217c:	68fb      	ldr	r3, [r7, #12]
 800217e:	6c1b      	ldr	r3, [r3, #64]	; 0x40
 8002180:	f423 7280 	bic.w	r2, r3, #256	; 0x100
 8002184:	68fb      	ldr	r3, [r7, #12]
 8002186:	641a      	str	r2, [r3, #64]	; 0x40
      
      if (HAL_IS_BIT_CLR(hadc->State, HAL_ADC_STATE_INJ_BUSY))
 8002188:	68fb      	ldr	r3, [r7, #12]
 800218a:	6c1b      	ldr	r3, [r3, #64]	; 0x40
 800218c:	f403 5380 	and.w	r3, r3, #4096	; 0x1000
 8002190:	2b00      	cmp	r3, #0
 8002192:	d105      	bne.n	80021a0 <ADC_DMAConvCplt+0x8c>
      {
        SET_BIT(hadc->State, HAL_ADC_STATE_READY);
 8002194:	68fb      	ldr	r3, [r7, #12]
 8002196:	6c1b      	ldr	r3, [r3, #64]	; 0x40
 8002198:	f043 0201 	orr.w	r2, r3, #1
 800219c:	68fb      	ldr	r3, [r7, #12]
 800219e:	641a      	str	r2, [r3, #64]	; 0x40
    
    /* Conversion complete callback */
#if (USE_HAL_ADC_REGISTER_CALLBACKS == 1)
    hadc->ConvCpltCallback(hadc);
#else
    HAL_ADC_ConvCpltCallback(hadc);
 80021a0:	68f8      	ldr	r0, [r7, #12]
 80021a2:	f7ff fa05 	bl	80015b0 <HAL_ADC_ConvCpltCallback>
	{
      /* Call DMA error callback */
      hadc->DMA_Handle->XferErrorCallback(hdma);
    }
  }
}
 80021a6:	e00e      	b.n	80021c6 <ADC_DMAConvCplt+0xb2>
    if ((hadc->State & HAL_ADC_STATE_ERROR_INTERNAL) != 0UL)
 80021a8:	68fb      	ldr	r3, [r7, #12]
 80021aa:	6c1b      	ldr	r3, [r3, #64]	; 0x40
 80021ac:	f003 0310 	and.w	r3, r3, #16
 80021b0:	2b00      	cmp	r3, #0
 80021b2:	d003      	beq.n	80021bc <ADC_DMAConvCplt+0xa8>
      HAL_ADC_ErrorCallback(hadc);
 80021b4:	68f8      	ldr	r0, [r7, #12]
 80021b6:	f7ff fd75 	bl	8001ca4 <HAL_ADC_ErrorCallback>
}
 80021ba:	e004      	b.n	80021c6 <ADC_DMAConvCplt+0xb2>
      hadc->DMA_Handle->XferErrorCallback(hdma);
 80021bc:	68fb      	ldr	r3, [r7, #12]
 80021be:	6b9b      	ldr	r3, [r3, #56]	; 0x38
 80021c0:	6cdb      	ldr	r3, [r3, #76]	; 0x4c
 80021c2:	6878      	ldr	r0, [r7, #4]
 80021c4:	4798      	blx	r3
}
 80021c6:	bf00      	nop
 80021c8:	3710      	adds	r7, #16
 80021ca:	46bd      	mov	sp, r7
 80021cc:	bd80      	pop	{r7, pc}

080021ce <ADC_DMAHalfConvCplt>:
  * @param  hdma pointer to a DMA_HandleTypeDef structure that contains
  *                the configuration information for the specified DMA module.
  * @retval None
  */
static void ADC_DMAHalfConvCplt(DMA_HandleTypeDef *hdma)   
{
 80021ce:	b580      	push	{r7, lr}
 80021d0:	b084      	sub	sp, #16
 80021d2:	af00      	add	r7, sp, #0
 80021d4:	6078      	str	r0, [r7, #4]
  ADC_HandleTypeDef* hadc = ( ADC_HandleTypeDef* )((DMA_HandleTypeDef* )hdma)->Parent;
 80021d6:	687b      	ldr	r3, [r7, #4]
 80021d8:	6b9b      	ldr	r3, [r3, #56]	; 0x38
 80021da:	60fb      	str	r3, [r7, #12]
   /* Half conversion callback */
#if (USE_HAL_ADC_REGISTER_CALLBACKS == 1)
  hadc->ConvHalfCpltCallback(hadc);
#else
  HAL_ADC_ConvHalfCpltCallback(hadc);
 80021dc:	68f8      	ldr	r0, [r7, #12]
 80021de:	f7ff fd57 	bl	8001c90 <HAL_ADC_ConvHalfCpltCallback>
#endif /* USE_HAL_ADC_REGISTER_CALLBACKS */
}
 80021e2:	bf00      	nop
 80021e4:	3710      	adds	r7, #16
 80021e6:	46bd      	mov	sp, r7
 80021e8:	bd80      	pop	{r7, pc}

080021ea <ADC_DMAError>:
  * @param  hdma pointer to a DMA_HandleTypeDef structure that contains
  *                the configuration information for the specified DMA module.
  * @retval None
  */
static void ADC_DMAError(DMA_HandleTypeDef *hdma)   
{
 80021ea:	b580      	push	{r7, lr}
 80021ec:	b084      	sub	sp, #16
 80021ee:	af00      	add	r7, sp, #0
 80021f0:	6078      	str	r0, [r7, #4]
  ADC_HandleTypeDef* hadc = ( ADC_HandleTypeDef* )((DMA_HandleTypeDef* )hdma)->Parent;
 80021f2:	687b      	ldr	r3, [r7, #4]
 80021f4:	6b9b      	ldr	r3, [r3, #56]	; 0x38
 80021f6:	60fb      	str	r3, [r7, #12]
  hadc->State= HAL_ADC_STATE_ERROR_DMA;
 80021f8:	68fb      	ldr	r3, [r7, #12]
 80021fa:	2240      	movs	r2, #64	; 0x40
 80021fc:	641a      	str	r2, [r3, #64]	; 0x40
  /* Set ADC error code to DMA error */
  hadc->ErrorCode |= HAL_ADC_ERROR_DMA;
 80021fe:	68fb      	ldr	r3, [r7, #12]
 8002200:	6c5b      	ldr	r3, [r3, #68]	; 0x44
 8002202:	f043 0204 	orr.w	r2, r3, #4
 8002206:	68fb      	ldr	r3, [r7, #12]
 8002208:	645a      	str	r2, [r3, #68]	; 0x44
   /* Error callback */
#if (USE_HAL_ADC_REGISTER_CALLBACKS == 1)
  hadc->ErrorCallback(hadc);
#else
  HAL_ADC_ErrorCallback(hadc);
 800220a:	68f8      	ldr	r0, [r7, #12]
 800220c:	f7ff fd4a 	bl	8001ca4 <HAL_ADC_ErrorCallback>
#endif /* USE_HAL_ADC_REGISTER_CALLBACKS */
}
 8002210:	bf00      	nop
 8002212:	3710      	adds	r7, #16
 8002214:	46bd      	mov	sp, r7
 8002216:	bd80      	pop	{r7, pc}

08002218 <__NVIC_SetPriorityGrouping>:
           In case of a conflict between priority grouping and available
           priority bits (__NVIC_PRIO_BITS), the smallest possible priority group is set.
  \param [in]      PriorityGroup  Priority grouping field.
 */
__STATIC_INLINE void __NVIC_SetPriorityGrouping(uint32_t PriorityGroup)
{
 8002218:	b480      	push	{r7}
 800221a:	b085      	sub	sp, #20
 800221c:	af00      	add	r7, sp, #0
 800221e:	6078      	str	r0, [r7, #4]
  uint32_t reg_value;
  uint32_t PriorityGroupTmp = (PriorityGroup & (uint32_t)0x07UL);             /* only values 0..7 are used          */
 8002220:	687b      	ldr	r3, [r7, #4]
 8002222:	f003 0307 	and.w	r3, r3, #7
 8002226:	60fb      	str	r3, [r7, #12]

  reg_value  =  SCB->AIRCR;                                                   /* read old register configuration    */
 8002228:	4b0c      	ldr	r3, [pc, #48]	; (800225c <__NVIC_SetPriorityGrouping+0x44>)
 800222a:	68db      	ldr	r3, [r3, #12]
 800222c:	60bb      	str	r3, [r7, #8]
  reg_value &= ~((uint32_t)(SCB_AIRCR_VECTKEY_Msk | SCB_AIRCR_PRIGROUP_Msk)); /* clear bits to change               */
 800222e:	68ba      	ldr	r2, [r7, #8]
 8002230:	f64f 03ff 	movw	r3, #63743	; 0xf8ff
 8002234:	4013      	ands	r3, r2
 8002236:	60bb      	str	r3, [r7, #8]
  reg_value  =  (reg_value                                   |
                ((uint32_t)0x5FAUL << SCB_AIRCR_VECTKEY_Pos) |
                (PriorityGroupTmp << SCB_AIRCR_PRIGROUP_Pos)  );              /* Insert write key and priority group */
 8002238:	68fb      	ldr	r3, [r7, #12]
 800223a:	021a      	lsls	r2, r3, #8
                ((uint32_t)0x5FAUL << SCB_AIRCR_VECTKEY_Pos) |
 800223c:	68bb      	ldr	r3, [r7, #8]
 800223e:	4313      	orrs	r3, r2
  reg_value  =  (reg_value                                   |
 8002240:	f043 63bf 	orr.w	r3, r3, #100139008	; 0x5f80000
 8002244:	f443 3300 	orr.w	r3, r3, #131072	; 0x20000
 8002248:	60bb      	str	r3, [r7, #8]
  SCB->AIRCR =  reg_value;
 800224a:	4a04      	ldr	r2, [pc, #16]	; (800225c <__NVIC_SetPriorityGrouping+0x44>)
 800224c:	68bb      	ldr	r3, [r7, #8]
 800224e:	60d3      	str	r3, [r2, #12]
}
 8002250:	bf00      	nop
 8002252:	3714      	adds	r7, #20
 8002254:	46bd      	mov	sp, r7
 8002256:	f85d 7b04 	ldr.w	r7, [sp], #4
 800225a:	4770      	bx	lr
 800225c:	e000ed00 	.word	0xe000ed00

08002260 <__NVIC_GetPriorityGrouping>:
  \brief   Get Priority Grouping
  \details Reads the priority grouping field from the NVIC Interrupt Controller.
  \return                Priority grouping field (SCB->AIRCR [10:8] PRIGROUP field).
 */
__STATIC_INLINE uint32_t __NVIC_GetPriorityGrouping(void)
{
 8002260:	b480      	push	{r7}
 8002262:	af00      	add	r7, sp, #0
  return ((uint32_t)((SCB->AIRCR & SCB_AIRCR_PRIGROUP_Msk) >> SCB_AIRCR_PRIGROUP_Pos));
 8002264:	4b04      	ldr	r3, [pc, #16]	; (8002278 <__NVIC_GetPriorityGrouping+0x18>)
 8002266:	68db      	ldr	r3, [r3, #12]
 8002268:	0a1b      	lsrs	r3, r3, #8
 800226a:	f003 0307 	and.w	r3, r3, #7
}
 800226e:	4618      	mov	r0, r3
 8002270:	46bd      	mov	sp, r7
 8002272:	f85d 7b04 	ldr.w	r7, [sp], #4
 8002276:	4770      	bx	lr
 8002278:	e000ed00 	.word	0xe000ed00

0800227c <__NVIC_EnableIRQ>:
  \details Enables a device specific interrupt in the NVIC interrupt controller.
  \param [in]      IRQn  Device specific interrupt number.
  \note    IRQn must not be negative.
 */
__STATIC_INLINE void __NVIC_EnableIRQ(IRQn_Type IRQn)
{
 800227c:	b480      	push	{r7}
 800227e:	b083      	sub	sp, #12
 8002280:	af00      	add	r7, sp, #0
 8002282:	4603      	mov	r3, r0
 8002284:	71fb      	strb	r3, [r7, #7]
  if ((int32_t)(IRQn) >= 0)
 8002286:	f997 3007 	ldrsb.w	r3, [r7, #7]
 800228a:	2b00      	cmp	r3, #0
 800228c:	db0b      	blt.n	80022a6 <__NVIC_EnableIRQ+0x2a>
  {
    NVIC->ISER[(((uint32_t)IRQn) >> 5UL)] = (uint32_t)(1UL << (((uint32_t)IRQn) & 0x1FUL));
 800228e:	79fb      	ldrb	r3, [r7, #7]
 8002290:	f003 021f 	and.w	r2, r3, #31
 8002294:	4907      	ldr	r1, [pc, #28]	; (80022b4 <__NVIC_EnableIRQ+0x38>)
 8002296:	f997 3007 	ldrsb.w	r3, [r7, #7]
 800229a:	095b      	lsrs	r3, r3, #5
 800229c:	2001      	movs	r0, #1
 800229e:	fa00 f202 	lsl.w	r2, r0, r2
 80022a2:	f841 2023 	str.w	r2, [r1, r3, lsl #2]
  }
}
 80022a6:	bf00      	nop
 80022a8:	370c      	adds	r7, #12
 80022aa:	46bd      	mov	sp, r7
 80022ac:	f85d 7b04 	ldr.w	r7, [sp], #4
 80022b0:	4770      	bx	lr
 80022b2:	bf00      	nop
 80022b4:	e000e100 	.word	0xe000e100

080022b8 <__NVIC_SetPriority>:
  \param [in]      IRQn  Interrupt number.
  \param [in]  priority  Priority to set.
  \note    The priority cannot be set for every processor exception.
 */
__STATIC_INLINE void __NVIC_SetPriority(IRQn_Type IRQn, uint32_t priority)
{
 80022b8:	b480      	push	{r7}
 80022ba:	b083      	sub	sp, #12
 80022bc:	af00      	add	r7, sp, #0
 80022be:	4603      	mov	r3, r0
 80022c0:	6039      	str	r1, [r7, #0]
 80022c2:	71fb      	strb	r3, [r7, #7]
  if ((int32_t)(IRQn) >= 0)
 80022c4:	f997 3007 	ldrsb.w	r3, [r7, #7]
 80022c8:	2b00      	cmp	r3, #0
 80022ca:	db0a      	blt.n	80022e2 <__NVIC_SetPriority+0x2a>
  {
    NVIC->IP[((uint32_t)IRQn)]               = (uint8_t)((priority << (8U - __NVIC_PRIO_BITS)) & (uint32_t)0xFFUL);
 80022cc:	683b      	ldr	r3, [r7, #0]
 80022ce:	b2da      	uxtb	r2, r3
 80022d0:	490c      	ldr	r1, [pc, #48]	; (8002304 <__NVIC_SetPriority+0x4c>)
 80022d2:	f997 3007 	ldrsb.w	r3, [r7, #7]
 80022d6:	0112      	lsls	r2, r2, #4
 80022d8:	b2d2      	uxtb	r2, r2
 80022da:	440b      	add	r3, r1
 80022dc:	f883 2300 	strb.w	r2, [r3, #768]	; 0x300
  }
  else
  {
    SCB->SHP[(((uint32_t)IRQn) & 0xFUL)-4UL] = (uint8_t)((priority << (8U - __NVIC_PRIO_BITS)) & (uint32_t)0xFFUL);
  }
}
 80022e0:	e00a      	b.n	80022f8 <__NVIC_SetPriority+0x40>
    SCB->SHP[(((uint32_t)IRQn) & 0xFUL)-4UL] = (uint8_t)((priority << (8U - __NVIC_PRIO_BITS)) & (uint32_t)0xFFUL);
 80022e2:	683b      	ldr	r3, [r7, #0]
 80022e4:	b2da      	uxtb	r2, r3
 80022e6:	4908      	ldr	r1, [pc, #32]	; (8002308 <__NVIC_SetPriority+0x50>)
 80022e8:	79fb      	ldrb	r3, [r7, #7]
 80022ea:	f003 030f 	and.w	r3, r3, #15
 80022ee:	3b04      	subs	r3, #4
 80022f0:	0112      	lsls	r2, r2, #4
 80022f2:	b2d2      	uxtb	r2, r2
 80022f4:	440b      	add	r3, r1
 80022f6:	761a      	strb	r2, [r3, #24]
}
 80022f8:	bf00      	nop
 80022fa:	370c      	adds	r7, #12
 80022fc:	46bd      	mov	sp, r7
 80022fe:	f85d 7b04 	ldr.w	r7, [sp], #4
 8002302:	4770      	bx	lr
 8002304:	e000e100 	.word	0xe000e100
 8002308:	e000ed00 	.word	0xe000ed00

0800230c <NVIC_EncodePriority>:
  \param [in]   PreemptPriority  Preemptive priority value (starting from 0).
  \param [in]       SubPriority  Subpriority value (starting from 0).
  \return                        Encoded priority. Value can be used in the function \ref NVIC_SetPriority().
 */
__STATIC_INLINE uint32_t NVIC_EncodePriority (uint32_t PriorityGroup, uint32_t PreemptPriority, uint32_t SubPriority)
{
 800230c:	b480      	push	{r7}
 800230e:	b089      	sub	sp, #36	; 0x24
 8002310:	af00      	add	r7, sp, #0
 8002312:	60f8      	str	r0, [r7, #12]
 8002314:	60b9      	str	r1, [r7, #8]
 8002316:	607a      	str	r2, [r7, #4]
  uint32_t PriorityGroupTmp = (PriorityGroup & (uint32_t)0x07UL);   /* only values 0..7 are used          */
 8002318:	68fb      	ldr	r3, [r7, #12]
 800231a:	f003 0307 	and.w	r3, r3, #7
 800231e:	61fb      	str	r3, [r7, #28]
  uint32_t PreemptPriorityBits;
  uint32_t SubPriorityBits;

  PreemptPriorityBits = ((7UL - PriorityGroupTmp) > (uint32_t)(__NVIC_PRIO_BITS)) ? (uint32_t)(__NVIC_PRIO_BITS) : (uint32_t)(7UL - PriorityGroupTmp);
 8002320:	69fb      	ldr	r3, [r7, #28]
 8002322:	f1c3 0307 	rsb	r3, r3, #7
 8002326:	2b04      	cmp	r3, #4
 8002328:	bf28      	it	cs
 800232a:	2304      	movcs	r3, #4
 800232c:	61bb      	str	r3, [r7, #24]
  SubPriorityBits     = ((PriorityGroupTmp + (uint32_t)(__NVIC_PRIO_BITS)) < (uint32_t)7UL) ? (uint32_t)0UL : (uint32_t)((PriorityGroupTmp - 7UL) + (uint32_t)(__NVIC_PRIO_BITS));
 800232e:	69fb      	ldr	r3, [r7, #28]
 8002330:	3304      	adds	r3, #4
 8002332:	2b06      	cmp	r3, #6
 8002334:	d902      	bls.n	800233c <NVIC_EncodePriority+0x30>
 8002336:	69fb      	ldr	r3, [r7, #28]
 8002338:	3b03      	subs	r3, #3
 800233a:	e000      	b.n	800233e <NVIC_EncodePriority+0x32>
 800233c:	2300      	movs	r3, #0
 800233e:	617b      	str	r3, [r7, #20]

  return (
           ((PreemptPriority & (uint32_t)((1UL << (PreemptPriorityBits)) - 1UL)) << SubPriorityBits) |
 8002340:	f04f 32ff 	mov.w	r2, #4294967295
 8002344:	69bb      	ldr	r3, [r7, #24]
 8002346:	fa02 f303 	lsl.w	r3, r2, r3
 800234a:	43da      	mvns	r2, r3
 800234c:	68bb      	ldr	r3, [r7, #8]
 800234e:	401a      	ands	r2, r3
 8002350:	697b      	ldr	r3, [r7, #20]
 8002352:	409a      	lsls	r2, r3
           ((SubPriority     & (uint32_t)((1UL << (SubPriorityBits    )) - 1UL)))
 8002354:	f04f 31ff 	mov.w	r1, #4294967295
 8002358:	697b      	ldr	r3, [r7, #20]
 800235a:	fa01 f303 	lsl.w	r3, r1, r3
 800235e:	43d9      	mvns	r1, r3
 8002360:	687b      	ldr	r3, [r7, #4]
 8002362:	400b      	ands	r3, r1
           ((PreemptPriority & (uint32_t)((1UL << (PreemptPriorityBits)) - 1UL)) << SubPriorityBits) |
 8002364:	4313      	orrs	r3, r2
         );
}
 8002366:	4618      	mov	r0, r3
 8002368:	3724      	adds	r7, #36	; 0x24
 800236a:	46bd      	mov	sp, r7
 800236c:	f85d 7b04 	ldr.w	r7, [sp], #4
 8002370:	4770      	bx	lr
	...

08002374 <SysTick_Config>:
  \note    When the variable <b>__Vendor_SysTickConfig</b> is set to 1, then the
           function <b>SysTick_Config</b> is not included. In this case, the file <b><i>device</i>.h</b>
           must contain a vendor-specific implementation of this function.
 */
__STATIC_INLINE uint32_t SysTick_Config(uint32_t ticks)
{
 8002374:	b580      	push	{r7, lr}
 8002376:	b082      	sub	sp, #8
 8002378:	af00      	add	r7, sp, #0
 800237a:	6078      	str	r0, [r7, #4]
  if ((ticks - 1UL) > SysTick_LOAD_RELOAD_Msk)
 800237c:	687b      	ldr	r3, [r7, #4]
 800237e:	3b01      	subs	r3, #1
 8002380:	f1b3 7f80 	cmp.w	r3, #16777216	; 0x1000000
 8002384:	d301      	bcc.n	800238a <SysTick_Config+0x16>
  {
    return (1UL);                                                   /* Reload value impossible */
 8002386:	2301      	movs	r3, #1
 8002388:	e00f      	b.n	80023aa <SysTick_Config+0x36>
  }

  SysTick->LOAD  = (uint32_t)(ticks - 1UL);                         /* set reload register */
 800238a:	4a0a      	ldr	r2, [pc, #40]	; (80023b4 <SysTick_Config+0x40>)
 800238c:	687b      	ldr	r3, [r7, #4]
 800238e:	3b01      	subs	r3, #1
 8002390:	6053      	str	r3, [r2, #4]
  NVIC_SetPriority (SysTick_IRQn, (1UL << __NVIC_PRIO_BITS) - 1UL); /* set Priority for Systick Interrupt */
 8002392:	210f      	movs	r1, #15
 8002394:	f04f 30ff 	mov.w	r0, #4294967295
 8002398:	f7ff ff8e 	bl	80022b8 <__NVIC_SetPriority>
  SysTick->VAL   = 0UL;                                             /* Load the SysTick Counter Value */
 800239c:	4b05      	ldr	r3, [pc, #20]	; (80023b4 <SysTick_Config+0x40>)
 800239e:	2200      	movs	r2, #0
 80023a0:	609a      	str	r2, [r3, #8]
  SysTick->CTRL  = SysTick_CTRL_CLKSOURCE_Msk |
 80023a2:	4b04      	ldr	r3, [pc, #16]	; (80023b4 <SysTick_Config+0x40>)
 80023a4:	2207      	movs	r2, #7
 80023a6:	601a      	str	r2, [r3, #0]
                   SysTick_CTRL_TICKINT_Msk   |
                   SysTick_CTRL_ENABLE_Msk;                         /* Enable SysTick IRQ and SysTick Timer */
  return (0UL);                                                     /* Function successful */
 80023a8:	2300      	movs	r3, #0
}
 80023aa:	4618      	mov	r0, r3
 80023ac:	3708      	adds	r7, #8
 80023ae:	46bd      	mov	sp, r7
 80023b0:	bd80      	pop	{r7, pc}
 80023b2:	bf00      	nop
 80023b4:	e000e010 	.word	0xe000e010

080023b8 <HAL_NVIC_SetPriorityGrouping>:
  * @note   When the NVIC_PriorityGroup_0 is selected, IRQ preemption is no more possible. 
  *         The pending IRQ priority will be managed only by the subpriority. 
  * @retval None
  */
void HAL_NVIC_SetPriorityGrouping(uint32_t PriorityGroup)
{
 80023b8:	b580      	push	{r7, lr}
 80023ba:	b082      	sub	sp, #8
 80023bc:	af00      	add	r7, sp, #0
 80023be:	6078      	str	r0, [r7, #4]
  /* Check the parameters */
  assert_param(IS_NVIC_PRIORITY_GROUP(PriorityGroup));
  
  /* Set the PRIGROUP[10:8] bits according to the PriorityGroup parameter value */
  NVIC_SetPriorityGrouping(PriorityGroup);
 80023c0:	6878      	ldr	r0, [r7, #4]
 80023c2:	f7ff ff29 	bl	8002218 <__NVIC_SetPriorityGrouping>
}
 80023c6:	bf00      	nop
 80023c8:	3708      	adds	r7, #8
 80023ca:	46bd      	mov	sp, r7
 80023cc:	bd80      	pop	{r7, pc}

080023ce <HAL_NVIC_SetPriority>:
  *         This parameter can be a value between 0 and 15
  *         A lower priority value indicates a higher priority.          
  * @retval None
  */
void HAL_NVIC_SetPriority(IRQn_Type IRQn, uint32_t PreemptPriority, uint32_t SubPriority)
{ 
 80023ce:	b580      	push	{r7, lr}
 80023d0:	b086      	sub	sp, #24
 80023d2:	af00      	add	r7, sp, #0
 80023d4:	4603      	mov	r3, r0
 80023d6:	60b9      	str	r1, [r7, #8]
 80023d8:	607a      	str	r2, [r7, #4]
 80023da:	73fb      	strb	r3, [r7, #15]
  uint32_t prioritygroup = 0x00U;
 80023dc:	2300      	movs	r3, #0
 80023de:	617b      	str	r3, [r7, #20]
  
  /* Check the parameters */
  assert_param(IS_NVIC_SUB_PRIORITY(SubPriority));
  assert_param(IS_NVIC_PREEMPTION_PRIORITY(PreemptPriority));
  
  prioritygroup = NVIC_GetPriorityGrouping();
 80023e0:	f7ff ff3e 	bl	8002260 <__NVIC_GetPriorityGrouping>
 80023e4:	6178      	str	r0, [r7, #20]
  
  NVIC_SetPriority(IRQn, NVIC_EncodePriority(prioritygroup, PreemptPriority, SubPriority));
 80023e6:	687a      	ldr	r2, [r7, #4]
 80023e8:	68b9      	ldr	r1, [r7, #8]
 80023ea:	6978      	ldr	r0, [r7, #20]
 80023ec:	f7ff ff8e 	bl	800230c <NVIC_EncodePriority>
 80023f0:	4602      	mov	r2, r0
 80023f2:	f997 300f 	ldrsb.w	r3, [r7, #15]
 80023f6:	4611      	mov	r1, r2
 80023f8:	4618      	mov	r0, r3
 80023fa:	f7ff ff5d 	bl	80022b8 <__NVIC_SetPriority>
}
 80023fe:	bf00      	nop
 8002400:	3718      	adds	r7, #24
 8002402:	46bd      	mov	sp, r7
 8002404:	bd80      	pop	{r7, pc}

08002406 <HAL_NVIC_EnableIRQ>:
  *         This parameter can be an enumerator of IRQn_Type enumeration
  *         (For the complete STM32 Devices IRQ Channels list, please refer to the appropriate CMSIS device file (stm32f4xxxx.h))
  * @retval None
  */
void HAL_NVIC_EnableIRQ(IRQn_Type IRQn)
{
 8002406:	b580      	push	{r7, lr}
 8002408:	b082      	sub	sp, #8
 800240a:	af00      	add	r7, sp, #0
 800240c:	4603      	mov	r3, r0
 800240e:	71fb      	strb	r3, [r7, #7]
  /* Check the parameters */
  assert_param(IS_NVIC_DEVICE_IRQ(IRQn));
  
  /* Enable interrupt */
  NVIC_EnableIRQ(IRQn);
 8002410:	f997 3007 	ldrsb.w	r3, [r7, #7]
 8002414:	4618      	mov	r0, r3
 8002416:	f7ff ff31 	bl	800227c <__NVIC_EnableIRQ>
}
 800241a:	bf00      	nop
 800241c:	3708      	adds	r7, #8
 800241e:	46bd      	mov	sp, r7
 8002420:	bd80      	pop	{r7, pc}

08002422 <HAL_SYSTICK_Config>:
  * @param  TicksNumb Specifies the ticks Number of ticks between two interrupts.
  * @retval status:  - 0  Function succeeded.
  *                  - 1  Function failed.
  */
uint32_t HAL_SYSTICK_Config(uint32_t TicksNumb)
{
 8002422:	b580      	push	{r7, lr}
 8002424:	b082      	sub	sp, #8
 8002426:	af00      	add	r7, sp, #0
 8002428:	6078      	str	r0, [r7, #4]
   return SysTick_Config(TicksNumb);
 800242a:	6878      	ldr	r0, [r7, #4]
 800242c:	f7ff ffa2 	bl	8002374 <SysTick_Config>
 8002430:	4603      	mov	r3, r0
}
 8002432:	4618      	mov	r0, r3
 8002434:	3708      	adds	r7, #8
 8002436:	46bd      	mov	sp, r7
 8002438:	bd80      	pop	{r7, pc}
	...

0800243c <HAL_DMA_Init>:
  * @param  hdma Pointer to a DMA_HandleTypeDef structure that contains
  *               the configuration information for the specified DMA Stream.  
  * @retval HAL status
  */
HAL_StatusTypeDef HAL_DMA_Init(DMA_HandleTypeDef *hdma)
{
 800243c:	b580      	push	{r7, lr}
 800243e:	b086      	sub	sp, #24
 8002440:	af00      	add	r7, sp, #0
 8002442:	6078      	str	r0, [r7, #4]
  uint32_t tmp = 0U;
 8002444:	2300      	movs	r3, #0
 8002446:	617b      	str	r3, [r7, #20]
  uint32_t tickstart = HAL_GetTick();
 8002448:	f7ff fabe 	bl	80019c8 <HAL_GetTick>
 800244c:	6138      	str	r0, [r7, #16]
  DMA_Base_Registers *regs;

  /* Check the DMA peripheral state */
  if(hdma == NULL)
 800244e:	687b      	ldr	r3, [r7, #4]
 8002450:	2b00      	cmp	r3, #0
 8002452:	d101      	bne.n	8002458 <HAL_DMA_Init+0x1c>
  {
    return HAL_ERROR;
 8002454:	2301      	movs	r3, #1
 8002456:	e099      	b.n	800258c <HAL_DMA_Init+0x150>
    assert_param(IS_DMA_MEMORY_BURST(hdma->Init.MemBurst));
    assert_param(IS_DMA_PERIPHERAL_BURST(hdma->Init.PeriphBurst));
  }
  
  /* Allocate lock resource */
  __HAL_UNLOCK(hdma);
 8002458:	687b      	ldr	r3, [r7, #4]
 800245a:	2200      	movs	r2, #0
 800245c:	f883 2034 	strb.w	r2, [r3, #52]	; 0x34

  /* Change DMA peripheral state */
  hdma->State = HAL_DMA_STATE_BUSY;
 8002460:	687b      	ldr	r3, [r7, #4]
 8002462:	2202      	movs	r2, #2
 8002464:	f883 2035 	strb.w	r2, [r3, #53]	; 0x35
  
  /* Disable the peripheral */
  __HAL_DMA_DISABLE(hdma);
 8002468:	687b      	ldr	r3, [r7, #4]
 800246a:	681b      	ldr	r3, [r3, #0]
 800246c:	681a      	ldr	r2, [r3, #0]
 800246e:	687b      	ldr	r3, [r7, #4]
 8002470:	681b      	ldr	r3, [r3, #0]
 8002472:	f022 0201 	bic.w	r2, r2, #1
 8002476:	601a      	str	r2, [r3, #0]
  
  /* Check if the DMA Stream is effectively disabled */
  while((hdma->Instance->CR & DMA_SxCR_EN) != RESET)
 8002478:	e00f      	b.n	800249a <HAL_DMA_Init+0x5e>
  {
    /* Check for the Timeout */
    if((HAL_GetTick() - tickstart ) > HAL_TIMEOUT_DMA_ABORT)
 800247a:	f7ff faa5 	bl	80019c8 <HAL_GetTick>
 800247e:	4602      	mov	r2, r0
 8002480:	693b      	ldr	r3, [r7, #16]
 8002482:	1ad3      	subs	r3, r2, r3
 8002484:	2b05      	cmp	r3, #5
 8002486:	d908      	bls.n	800249a <HAL_DMA_Init+0x5e>
    {
      /* Update error code */
      hdma->ErrorCode = HAL_DMA_ERROR_TIMEOUT;
 8002488:	687b      	ldr	r3, [r7, #4]
 800248a:	2220      	movs	r2, #32
 800248c:	655a      	str	r2, [r3, #84]	; 0x54
      
      /* Change the DMA state */
      hdma->State = HAL_DMA_STATE_TIMEOUT;
 800248e:	687b      	ldr	r3, [r7, #4]
 8002490:	2203      	movs	r2, #3
 8002492:	f883 2035 	strb.w	r2, [r3, #53]	; 0x35
      
      return HAL_TIMEOUT;
 8002496:	2303      	movs	r3, #3
 8002498:	e078      	b.n	800258c <HAL_DMA_Init+0x150>
  while((hdma->Instance->CR & DMA_SxCR_EN) != RESET)
 800249a:	687b      	ldr	r3, [r7, #4]
 800249c:	681b      	ldr	r3, [r3, #0]
 800249e:	681b      	ldr	r3, [r3, #0]
 80024a0:	f003 0301 	and.w	r3, r3, #1
 80024a4:	2b00      	cmp	r3, #0
 80024a6:	d1e8      	bne.n	800247a <HAL_DMA_Init+0x3e>
    }
  }
  
  /* Get the CR register value */
  tmp = hdma->Instance->CR;
 80024a8:	687b      	ldr	r3, [r7, #4]
 80024aa:	681b      	ldr	r3, [r3, #0]
 80024ac:	681b      	ldr	r3, [r3, #0]
 80024ae:	617b      	str	r3, [r7, #20]

  /* Clear CHSEL, MBURST, PBURST, PL, MSIZE, PSIZE, MINC, PINC, CIRC, DIR, CT and DBM bits */
  tmp &= ((uint32_t)~(DMA_SxCR_CHSEL | DMA_SxCR_MBURST | DMA_SxCR_PBURST | \
 80024b0:	697a      	ldr	r2, [r7, #20]
 80024b2:	4b38      	ldr	r3, [pc, #224]	; (8002594 <HAL_DMA_Init+0x158>)
 80024b4:	4013      	ands	r3, r2
 80024b6:	617b      	str	r3, [r7, #20]
                      DMA_SxCR_PL    | DMA_SxCR_MSIZE  | DMA_SxCR_PSIZE  | \
                      DMA_SxCR_MINC  | DMA_SxCR_PINC   | DMA_SxCR_CIRC   | \
                      DMA_SxCR_DIR   | DMA_SxCR_CT     | DMA_SxCR_DBM));

  /* Prepare the DMA Stream configuration */
  tmp |=  hdma->Init.Channel             | hdma->Init.Direction        |
 80024b8:	687b      	ldr	r3, [r7, #4]
 80024ba:	685a      	ldr	r2, [r3, #4]
 80024bc:	687b      	ldr	r3, [r7, #4]
 80024be:	689b      	ldr	r3, [r3, #8]
 80024c0:	431a      	orrs	r2, r3
          hdma->Init.PeriphInc           | hdma->Init.MemInc           |
 80024c2:	687b      	ldr	r3, [r7, #4]
 80024c4:	68db      	ldr	r3, [r3, #12]
  tmp |=  hdma->Init.Channel             | hdma->Init.Direction        |
 80024c6:	431a      	orrs	r2, r3
          hdma->Init.PeriphInc           | hdma->Init.MemInc           |
 80024c8:	687b      	ldr	r3, [r7, #4]
 80024ca:	691b      	ldr	r3, [r3, #16]
 80024cc:	431a      	orrs	r2, r3
          hdma->Init.PeriphDataAlignment | hdma->Init.MemDataAlignment |
 80024ce:	687b      	ldr	r3, [r7, #4]
 80024d0:	695b      	ldr	r3, [r3, #20]
          hdma->Init.PeriphInc           | hdma->Init.MemInc           |
 80024d2:	431a      	orrs	r2, r3
          hdma->Init.PeriphDataAlignment | hdma->Init.MemDataAlignment |
 80024d4:	687b      	ldr	r3, [r7, #4]
 80024d6:	699b      	ldr	r3, [r3, #24]
 80024d8:	431a      	orrs	r2, r3
          hdma->Init.Mode                | hdma->Init.Priority;
 80024da:	687b      	ldr	r3, [r7, #4]
 80024dc:	69db      	ldr	r3, [r3, #28]
          hdma->Init.PeriphDataAlignment | hdma->Init.MemDataAlignment |
 80024de:	431a      	orrs	r2, r3
          hdma->Init.Mode                | hdma->Init.Priority;
 80024e0:	687b      	ldr	r3, [r7, #4]
 80024e2:	6a1b      	ldr	r3, [r3, #32]
 80024e4:	4313      	orrs	r3, r2
  tmp |=  hdma->Init.Channel             | hdma->Init.Direction        |
 80024e6:	697a      	ldr	r2, [r7, #20]
 80024e8:	4313      	orrs	r3, r2
 80024ea:	617b      	str	r3, [r7, #20]

  /* the Memory burst and peripheral burst are not used when the FIFO is disabled */
  if(hdma->Init.FIFOMode == DMA_FIFOMODE_ENABLE)
 80024ec:	687b      	ldr	r3, [r7, #4]
 80024ee:	6a5b      	ldr	r3, [r3, #36]	; 0x24
 80024f0:	2b04      	cmp	r3, #4
 80024f2:	d107      	bne.n	8002504 <HAL_DMA_Init+0xc8>
  {
    /* Get memory burst and peripheral burst */
    tmp |=  hdma->Init.MemBurst | hdma->Init.PeriphBurst;
 80024f4:	687b      	ldr	r3, [r7, #4]
 80024f6:	6ada      	ldr	r2, [r3, #44]	; 0x2c
 80024f8:	687b      	ldr	r3, [r7, #4]
 80024fa:	6b1b      	ldr	r3, [r3, #48]	; 0x30
 80024fc:	4313      	orrs	r3, r2
 80024fe:	697a      	ldr	r2, [r7, #20]
 8002500:	4313      	orrs	r3, r2
 8002502:	617b      	str	r3, [r7, #20]
  }
  
  /* Write to DMA Stream CR register */
  hdma->Instance->CR = tmp;  
 8002504:	687b      	ldr	r3, [r7, #4]
 8002506:	681b      	ldr	r3, [r3, #0]
 8002508:	697a      	ldr	r2, [r7, #20]
 800250a:	601a      	str	r2, [r3, #0]

  /* Get the FCR register value */
  tmp = hdma->Instance->FCR;
 800250c:	687b      	ldr	r3, [r7, #4]
 800250e:	681b      	ldr	r3, [r3, #0]
 8002510:	695b      	ldr	r3, [r3, #20]
 8002512:	617b      	str	r3, [r7, #20]

  /* Clear Direct mode and FIFO threshold bits */
  tmp &= (uint32_t)~(DMA_SxFCR_DMDIS | DMA_SxFCR_FTH);
 8002514:	697b      	ldr	r3, [r7, #20]
 8002516:	f023 0307 	bic.w	r3, r3, #7
 800251a:	617b      	str	r3, [r7, #20]

  /* Prepare the DMA Stream FIFO configuration */
  tmp |= hdma->Init.FIFOMode;
 800251c:	687b      	ldr	r3, [r7, #4]
 800251e:	6a5b      	ldr	r3, [r3, #36]	; 0x24
 8002520:	697a      	ldr	r2, [r7, #20]
 8002522:	4313      	orrs	r3, r2
 8002524:	617b      	str	r3, [r7, #20]

  /* The FIFO threshold is not used when the FIFO mode is disabled */
  if(hdma->Init.FIFOMode == DMA_FIFOMODE_ENABLE)
 8002526:	687b      	ldr	r3, [r7, #4]
 8002528:	6a5b      	ldr	r3, [r3, #36]	; 0x24
 800252a:	2b04      	cmp	r3, #4
 800252c:	d117      	bne.n	800255e <HAL_DMA_Init+0x122>
  {
    /* Get the FIFO threshold */
    tmp |= hdma->Init.FIFOThreshold;
 800252e:	687b      	ldr	r3, [r7, #4]
 8002530:	6a9b      	ldr	r3, [r3, #40]	; 0x28
 8002532:	697a      	ldr	r2, [r7, #20]
 8002534:	4313      	orrs	r3, r2
 8002536:	617b      	str	r3, [r7, #20]
    
    /* Check compatibility between FIFO threshold level and size of the memory burst */
    /* for INCR4, INCR8, INCR16 bursts */
    if (hdma->Init.MemBurst != DMA_MBURST_SINGLE)
 8002538:	687b      	ldr	r3, [r7, #4]
 800253a:	6adb      	ldr	r3, [r3, #44]	; 0x2c
 800253c:	2b00      	cmp	r3, #0
 800253e:	d00e      	beq.n	800255e <HAL_DMA_Init+0x122>
    {
      if (DMA_CheckFifoParam(hdma) != HAL_OK)
 8002540:	6878      	ldr	r0, [r7, #4]
 8002542:	f000 fa6f 	bl	8002a24 <DMA_CheckFifoParam>
 8002546:	4603      	mov	r3, r0
 8002548:	2b00      	cmp	r3, #0
 800254a:	d008      	beq.n	800255e <HAL_DMA_Init+0x122>
      {
        /* Update error code */
        hdma->ErrorCode = HAL_DMA_ERROR_PARAM;
 800254c:	687b      	ldr	r3, [r7, #4]
 800254e:	2240      	movs	r2, #64	; 0x40
 8002550:	655a      	str	r2, [r3, #84]	; 0x54
        
        /* Change the DMA state */
        hdma->State = HAL_DMA_STATE_READY;
 8002552:	687b      	ldr	r3, [r7, #4]
 8002554:	2201      	movs	r2, #1
 8002556:	f883 2035 	strb.w	r2, [r3, #53]	; 0x35
        
        return HAL_ERROR; 
 800255a:	2301      	movs	r3, #1
 800255c:	e016      	b.n	800258c <HAL_DMA_Init+0x150>
      }
    }
  }
  
  /* Write to DMA Stream FCR */
  hdma->Instance->FCR = tmp;
 800255e:	687b      	ldr	r3, [r7, #4]
 8002560:	681b      	ldr	r3, [r3, #0]
 8002562:	697a      	ldr	r2, [r7, #20]
 8002564:	615a      	str	r2, [r3, #20]

  /* Initialize StreamBaseAddress and StreamIndex parameters to be used to calculate
     DMA steam Base Address needed by HAL_DMA_IRQHandler() and HAL_DMA_PollForTransfer() */
  regs = (DMA_Base_Registers *)DMA_CalcBaseAndBitshift(hdma);
 8002566:	6878      	ldr	r0, [r7, #4]
 8002568:	f000 fa26 	bl	80029b8 <DMA_CalcBaseAndBitshift>
 800256c:	4603      	mov	r3, r0
 800256e:	60fb      	str	r3, [r7, #12]
  
  /* Clear all interrupt flags */
  regs->IFCR = 0x3FU << hdma->StreamIndex;
 8002570:	687b      	ldr	r3, [r7, #4]
 8002572:	6ddb      	ldr	r3, [r3, #92]	; 0x5c
 8002574:	223f      	movs	r2, #63	; 0x3f
 8002576:	409a      	lsls	r2, r3
 8002578:	68fb      	ldr	r3, [r7, #12]
 800257a:	609a      	str	r2, [r3, #8]

  /* Initialize the error code */
  hdma->ErrorCode = HAL_DMA_ERROR_NONE;
 800257c:	687b      	ldr	r3, [r7, #4]
 800257e:	2200      	movs	r2, #0
 8002580:	655a      	str	r2, [r3, #84]	; 0x54
                                                                                     
  /* Initialize the DMA state */
  hdma->State = HAL_DMA_STATE_READY;
 8002582:	687b      	ldr	r3, [r7, #4]
 8002584:	2201      	movs	r2, #1
 8002586:	f883 2035 	strb.w	r2, [r3, #53]	; 0x35

  return HAL_OK;
 800258a:	2300      	movs	r3, #0
}
 800258c:	4618      	mov	r0, r3
 800258e:	3718      	adds	r7, #24
 8002590:	46bd      	mov	sp, r7
 8002592:	bd80      	pop	{r7, pc}
 8002594:	f010803f 	.word	0xf010803f

08002598 <HAL_DMA_Start_IT>:
  * @param  DstAddress The destination memory Buffer address
  * @param  DataLength The length of data to be transferred from source to destination
  * @retval HAL status
  */
HAL_StatusTypeDef HAL_DMA_Start_IT(DMA_HandleTypeDef *hdma, uint32_t SrcAddress, uint32_t DstAddress, uint32_t DataLength)
{
 8002598:	b580      	push	{r7, lr}
 800259a:	b086      	sub	sp, #24
 800259c:	af00      	add	r7, sp, #0
 800259e:	60f8      	str	r0, [r7, #12]
 80025a0:	60b9      	str	r1, [r7, #8]
 80025a2:	607a      	str	r2, [r7, #4]
 80025a4:	603b      	str	r3, [r7, #0]
  HAL_StatusTypeDef status = HAL_OK;
 80025a6:	2300      	movs	r3, #0
 80025a8:	75fb      	strb	r3, [r7, #23]

  /* calculate DMA base and stream number */
  DMA_Base_Registers *regs = (DMA_Base_Registers *)hdma->StreamBaseAddress;
 80025aa:	68fb      	ldr	r3, [r7, #12]
 80025ac:	6d9b      	ldr	r3, [r3, #88]	; 0x58
 80025ae:	613b      	str	r3, [r7, #16]
  
  /* Check the parameters */
  assert_param(IS_DMA_BUFFER_SIZE(DataLength));
 
  /* Process locked */
  __HAL_LOCK(hdma);
 80025b0:	68fb      	ldr	r3, [r7, #12]
 80025b2:	f893 3034 	ldrb.w	r3, [r3, #52]	; 0x34
 80025b6:	2b01      	cmp	r3, #1
 80025b8:	d101      	bne.n	80025be <HAL_DMA_Start_IT+0x26>
 80025ba:	2302      	movs	r3, #2
 80025bc:	e040      	b.n	8002640 <HAL_DMA_Start_IT+0xa8>
 80025be:	68fb      	ldr	r3, [r7, #12]
 80025c0:	2201      	movs	r2, #1
 80025c2:	f883 2034 	strb.w	r2, [r3, #52]	; 0x34
  
  if(HAL_DMA_STATE_READY == hdma->State)
 80025c6:	68fb      	ldr	r3, [r7, #12]
 80025c8:	f893 3035 	ldrb.w	r3, [r3, #53]	; 0x35
 80025cc:	b2db      	uxtb	r3, r3
 80025ce:	2b01      	cmp	r3, #1
 80025d0:	d12f      	bne.n	8002632 <HAL_DMA_Start_IT+0x9a>
  {
    /* Change DMA peripheral state */
    hdma->State = HAL_DMA_STATE_BUSY;
 80025d2:	68fb      	ldr	r3, [r7, #12]
 80025d4:	2202      	movs	r2, #2
 80025d6:	f883 2035 	strb.w	r2, [r3, #53]	; 0x35
    
    /* Initialize the error code */
    hdma->ErrorCode = HAL_DMA_ERROR_NONE;
 80025da:	68fb      	ldr	r3, [r7, #12]
 80025dc:	2200      	movs	r2, #0
 80025de:	655a      	str	r2, [r3, #84]	; 0x54
    
    /* Configure the source, destination address and the data length */
    DMA_SetConfig(hdma, SrcAddress, DstAddress, DataLength);
 80025e0:	683b      	ldr	r3, [r7, #0]
 80025e2:	687a      	ldr	r2, [r7, #4]
 80025e4:	68b9      	ldr	r1, [r7, #8]
 80025e6:	68f8      	ldr	r0, [r7, #12]
 80025e8:	f000 f9b8 	bl	800295c <DMA_SetConfig>
    
    /* Clear all interrupt flags at correct offset within the register */
    regs->IFCR = 0x3FU << hdma->StreamIndex;
 80025ec:	68fb      	ldr	r3, [r7, #12]
 80025ee:	6ddb      	ldr	r3, [r3, #92]	; 0x5c
 80025f0:	223f      	movs	r2, #63	; 0x3f
 80025f2:	409a      	lsls	r2, r3
 80025f4:	693b      	ldr	r3, [r7, #16]
 80025f6:	609a      	str	r2, [r3, #8]
    
    /* Enable Common interrupts*/
    hdma->Instance->CR  |= DMA_IT_TC | DMA_IT_TE | DMA_IT_DME;
 80025f8:	68fb      	ldr	r3, [r7, #12]
 80025fa:	681b      	ldr	r3, [r3, #0]
 80025fc:	681a      	ldr	r2, [r3, #0]
 80025fe:	68fb      	ldr	r3, [r7, #12]
 8002600:	681b      	ldr	r3, [r3, #0]
 8002602:	f042 0216 	orr.w	r2, r2, #22
 8002606:	601a      	str	r2, [r3, #0]
    
    if(hdma->XferHalfCpltCallback != NULL)
 8002608:	68fb      	ldr	r3, [r7, #12]
 800260a:	6c1b      	ldr	r3, [r3, #64]	; 0x40
 800260c:	2b00      	cmp	r3, #0
 800260e:	d007      	beq.n	8002620 <HAL_DMA_Start_IT+0x88>
    {
      hdma->Instance->CR  |= DMA_IT_HT;
 8002610:	68fb      	ldr	r3, [r7, #12]
 8002612:	681b      	ldr	r3, [r3, #0]
 8002614:	681a      	ldr	r2, [r3, #0]
 8002616:	68fb      	ldr	r3, [r7, #12]
 8002618:	681b      	ldr	r3, [r3, #0]
 800261a:	f042 0208 	orr.w	r2, r2, #8
 800261e:	601a      	str	r2, [r3, #0]
    }
    
    /* Enable the Peripheral */
    __HAL_DMA_ENABLE(hdma);
 8002620:	68fb      	ldr	r3, [r7, #12]
 8002622:	681b      	ldr	r3, [r3, #0]
 8002624:	681a      	ldr	r2, [r3, #0]
 8002626:	68fb      	ldr	r3, [r7, #12]
 8002628:	681b      	ldr	r3, [r3, #0]
 800262a:	f042 0201 	orr.w	r2, r2, #1
 800262e:	601a      	str	r2, [r3, #0]
 8002630:	e005      	b.n	800263e <HAL_DMA_Start_IT+0xa6>
  }
  else
  {
    /* Process unlocked */
    __HAL_UNLOCK(hdma);	  
 8002632:	68fb      	ldr	r3, [r7, #12]
 8002634:	2200      	movs	r2, #0
 8002636:	f883 2034 	strb.w	r2, [r3, #52]	; 0x34
    
    /* Return error status */
    status = HAL_BUSY;
 800263a:	2302      	movs	r3, #2
 800263c:	75fb      	strb	r3, [r7, #23]
  }
  
  return status;
 800263e:	7dfb      	ldrb	r3, [r7, #23]
}
 8002640:	4618      	mov	r0, r3
 8002642:	3718      	adds	r7, #24
 8002644:	46bd      	mov	sp, r7
 8002646:	bd80      	pop	{r7, pc}

08002648 <HAL_DMA_IRQHandler>:
  * @param  hdma pointer to a DMA_HandleTypeDef structure that contains
  *               the configuration information for the specified DMA Stream.  
  * @retval None
  */
void HAL_DMA_IRQHandler(DMA_HandleTypeDef *hdma)
{
 8002648:	b580      	push	{r7, lr}
 800264a:	b086      	sub	sp, #24
 800264c:	af00      	add	r7, sp, #0
 800264e:	6078      	str	r0, [r7, #4]
  uint32_t tmpisr;
  __IO uint32_t count = 0U;
 8002650:	2300      	movs	r3, #0
 8002652:	60bb      	str	r3, [r7, #8]
  uint32_t timeout = SystemCoreClock / 9600U;
 8002654:	4b92      	ldr	r3, [pc, #584]	; (80028a0 <HAL_DMA_IRQHandler+0x258>)
 8002656:	681b      	ldr	r3, [r3, #0]
 8002658:	4a92      	ldr	r2, [pc, #584]	; (80028a4 <HAL_DMA_IRQHandler+0x25c>)
 800265a:	fba2 2303 	umull	r2, r3, r2, r3
 800265e:	0a9b      	lsrs	r3, r3, #10
 8002660:	617b      	str	r3, [r7, #20]

  /* calculate DMA base and stream number */
  DMA_Base_Registers *regs = (DMA_Base_Registers *)hdma->StreamBaseAddress;
 8002662:	687b      	ldr	r3, [r7, #4]
 8002664:	6d9b      	ldr	r3, [r3, #88]	; 0x58
 8002666:	613b      	str	r3, [r7, #16]

  tmpisr = regs->ISR;
 8002668:	693b      	ldr	r3, [r7, #16]
 800266a:	681b      	ldr	r3, [r3, #0]
 800266c:	60fb      	str	r3, [r7, #12]

  /* Transfer Error Interrupt management ***************************************/
  if ((tmpisr & (DMA_FLAG_TEIF0_4 << hdma->StreamIndex)) != RESET)
 800266e:	687b      	ldr	r3, [r7, #4]
 8002670:	6ddb      	ldr	r3, [r3, #92]	; 0x5c
 8002672:	2208      	movs	r2, #8
 8002674:	409a      	lsls	r2, r3
 8002676:	68fb      	ldr	r3, [r7, #12]
 8002678:	4013      	ands	r3, r2
 800267a:	2b00      	cmp	r3, #0
 800267c:	d01a      	beq.n	80026b4 <HAL_DMA_IRQHandler+0x6c>
  {
    if(__HAL_DMA_GET_IT_SOURCE(hdma, DMA_IT_TE) != RESET)
 800267e:	687b      	ldr	r3, [r7, #4]
 8002680:	681b      	ldr	r3, [r3, #0]
 8002682:	681b      	ldr	r3, [r3, #0]
 8002684:	f003 0304 	and.w	r3, r3, #4
 8002688:	2b00      	cmp	r3, #0
 800268a:	d013      	beq.n	80026b4 <HAL_DMA_IRQHandler+0x6c>
    {
      /* Disable the transfer error interrupt */
      hdma->Instance->CR  &= ~(DMA_IT_TE);
 800268c:	687b      	ldr	r3, [r7, #4]
 800268e:	681b      	ldr	r3, [r3, #0]
 8002690:	681a      	ldr	r2, [r3, #0]
 8002692:	687b      	ldr	r3, [r7, #4]
 8002694:	681b      	ldr	r3, [r3, #0]
 8002696:	f022 0204 	bic.w	r2, r2, #4
 800269a:	601a      	str	r2, [r3, #0]
      
      /* Clear the transfer error flag */
      regs->IFCR = DMA_FLAG_TEIF0_4 << hdma->StreamIndex;
 800269c:	687b      	ldr	r3, [r7, #4]
 800269e:	6ddb      	ldr	r3, [r3, #92]	; 0x5c
 80026a0:	2208      	movs	r2, #8
 80026a2:	409a      	lsls	r2, r3
 80026a4:	693b      	ldr	r3, [r7, #16]
 80026a6:	609a      	str	r2, [r3, #8]
      
      /* Update error code */
      hdma->ErrorCode |= HAL_DMA_ERROR_TE;
 80026a8:	687b      	ldr	r3, [r7, #4]
 80026aa:	6d5b      	ldr	r3, [r3, #84]	; 0x54
 80026ac:	f043 0201 	orr.w	r2, r3, #1
 80026b0:	687b      	ldr	r3, [r7, #4]
 80026b2:	655a      	str	r2, [r3, #84]	; 0x54
    }
  }
  /* FIFO Error Interrupt management ******************************************/
  if ((tmpisr & (DMA_FLAG_FEIF0_4 << hdma->StreamIndex)) != RESET)
 80026b4:	687b      	ldr	r3, [r7, #4]
 80026b6:	6ddb      	ldr	r3, [r3, #92]	; 0x5c
 80026b8:	2201      	movs	r2, #1
 80026ba:	409a      	lsls	r2, r3
 80026bc:	68fb      	ldr	r3, [r7, #12]
 80026be:	4013      	ands	r3, r2
 80026c0:	2b00      	cmp	r3, #0
 80026c2:	d012      	beq.n	80026ea <HAL_DMA_IRQHandler+0xa2>
  {
    if(__HAL_DMA_GET_IT_SOURCE(hdma, DMA_IT_FE) != RESET)
 80026c4:	687b      	ldr	r3, [r7, #4]
 80026c6:	681b      	ldr	r3, [r3, #0]
 80026c8:	695b      	ldr	r3, [r3, #20]
 80026ca:	f003 0380 	and.w	r3, r3, #128	; 0x80
 80026ce:	2b00      	cmp	r3, #0
 80026d0:	d00b      	beq.n	80026ea <HAL_DMA_IRQHandler+0xa2>
    {
      /* Clear the FIFO error flag */
      regs->IFCR = DMA_FLAG_FEIF0_4 << hdma->StreamIndex;
 80026d2:	687b      	ldr	r3, [r7, #4]
 80026d4:	6ddb      	ldr	r3, [r3, #92]	; 0x5c
 80026d6:	2201      	movs	r2, #1
 80026d8:	409a      	lsls	r2, r3
 80026da:	693b      	ldr	r3, [r7, #16]
 80026dc:	609a      	str	r2, [r3, #8]

      /* Update error code */
      hdma->ErrorCode |= HAL_DMA_ERROR_FE;
 80026de:	687b      	ldr	r3, [r7, #4]
 80026e0:	6d5b      	ldr	r3, [r3, #84]	; 0x54
 80026e2:	f043 0202 	orr.w	r2, r3, #2
 80026e6:	687b      	ldr	r3, [r7, #4]
 80026e8:	655a      	str	r2, [r3, #84]	; 0x54
    }
  }
  /* Direct Mode Error Interrupt management ***********************************/
  if ((tmpisr & (DMA_FLAG_DMEIF0_4 << hdma->StreamIndex)) != RESET)
 80026ea:	687b      	ldr	r3, [r7, #4]
 80026ec:	6ddb      	ldr	r3, [r3, #92]	; 0x5c
 80026ee:	2204      	movs	r2, #4
 80026f0:	409a      	lsls	r2, r3
 80026f2:	68fb      	ldr	r3, [r7, #12]
 80026f4:	4013      	ands	r3, r2
 80026f6:	2b00      	cmp	r3, #0
 80026f8:	d012      	beq.n	8002720 <HAL_DMA_IRQHandler+0xd8>
  {
    if(__HAL_DMA_GET_IT_SOURCE(hdma, DMA_IT_DME) != RESET)
 80026fa:	687b      	ldr	r3, [r7, #4]
 80026fc:	681b      	ldr	r3, [r3, #0]
 80026fe:	681b      	ldr	r3, [r3, #0]
 8002700:	f003 0302 	and.w	r3, r3, #2
 8002704:	2b00      	cmp	r3, #0
 8002706:	d00b      	beq.n	8002720 <HAL_DMA_IRQHandler+0xd8>
    {
      /* Clear the direct mode error flag */
      regs->IFCR = DMA_FLAG_DMEIF0_4 << hdma->StreamIndex;
 8002708:	687b      	ldr	r3, [r7, #4]
 800270a:	6ddb      	ldr	r3, [r3, #92]	; 0x5c
 800270c:	2204      	movs	r2, #4
 800270e:	409a      	lsls	r2, r3
 8002710:	693b      	ldr	r3, [r7, #16]
 8002712:	609a      	str	r2, [r3, #8]

      /* Update error code */
      hdma->ErrorCode |= HAL_DMA_ERROR_DME;
 8002714:	687b      	ldr	r3, [r7, #4]
 8002716:	6d5b      	ldr	r3, [r3, #84]	; 0x54
 8002718:	f043 0204 	orr.w	r2, r3, #4
 800271c:	687b      	ldr	r3, [r7, #4]
 800271e:	655a      	str	r2, [r3, #84]	; 0x54
    }
  }
  /* Half Transfer Complete Interrupt management ******************************/
  if ((tmpisr & (DMA_FLAG_HTIF0_4 << hdma->StreamIndex)) != RESET)
 8002720:	687b      	ldr	r3, [r7, #4]
 8002722:	6ddb      	ldr	r3, [r3, #92]	; 0x5c
 8002724:	2210      	movs	r2, #16
 8002726:	409a      	lsls	r2, r3
 8002728:	68fb      	ldr	r3, [r7, #12]
 800272a:	4013      	ands	r3, r2
 800272c:	2b00      	cmp	r3, #0
 800272e:	d043      	beq.n	80027b8 <HAL_DMA_IRQHandler+0x170>
  {
    if(__HAL_DMA_GET_IT_SOURCE(hdma, DMA_IT_HT) != RESET)
 8002730:	687b      	ldr	r3, [r7, #4]
 8002732:	681b      	ldr	r3, [r3, #0]
 8002734:	681b      	ldr	r3, [r3, #0]
 8002736:	f003 0308 	and.w	r3, r3, #8
 800273a:	2b00      	cmp	r3, #0
 800273c:	d03c      	beq.n	80027b8 <HAL_DMA_IRQHandler+0x170>
    {
      /* Clear the half transfer complete flag */
      regs->IFCR = DMA_FLAG_HTIF0_4 << hdma->StreamIndex;
 800273e:	687b      	ldr	r3, [r7, #4]
 8002740:	6ddb      	ldr	r3, [r3, #92]	; 0x5c
 8002742:	2210      	movs	r2, #16
 8002744:	409a      	lsls	r2, r3
 8002746:	693b      	ldr	r3, [r7, #16]
 8002748:	609a      	str	r2, [r3, #8]
      
      /* Multi_Buffering mode enabled */
      if(((hdma->Instance->CR) & (uint32_t)(DMA_SxCR_DBM)) != RESET)
 800274a:	687b      	ldr	r3, [r7, #4]
 800274c:	681b      	ldr	r3, [r3, #0]
 800274e:	681b      	ldr	r3, [r3, #0]
 8002750:	f403 2380 	and.w	r3, r3, #262144	; 0x40000
 8002754:	2b00      	cmp	r3, #0
 8002756:	d018      	beq.n	800278a <HAL_DMA_IRQHandler+0x142>
      {
        /* Current memory buffer used is Memory 0 */
        if((hdma->Instance->CR & DMA_SxCR_CT) == RESET)
 8002758:	687b      	ldr	r3, [r7, #4]
 800275a:	681b      	ldr	r3, [r3, #0]
 800275c:	681b      	ldr	r3, [r3, #0]
 800275e:	f403 2300 	and.w	r3, r3, #524288	; 0x80000
 8002762:	2b00      	cmp	r3, #0
 8002764:	d108      	bne.n	8002778 <HAL_DMA_IRQHandler+0x130>
        {
          if(hdma->XferHalfCpltCallback != NULL)
 8002766:	687b      	ldr	r3, [r7, #4]
 8002768:	6c1b      	ldr	r3, [r3, #64]	; 0x40
 800276a:	2b00      	cmp	r3, #0
 800276c:	d024      	beq.n	80027b8 <HAL_DMA_IRQHandler+0x170>
          {
            /* Half transfer callback */
            hdma->XferHalfCpltCallback(hdma);
 800276e:	687b      	ldr	r3, [r7, #4]
 8002770:	6c1b      	ldr	r3, [r3, #64]	; 0x40
 8002772:	6878      	ldr	r0, [r7, #4]
 8002774:	4798      	blx	r3
 8002776:	e01f      	b.n	80027b8 <HAL_DMA_IRQHandler+0x170>
          }
        }
        /* Current memory buffer used is Memory 1 */
        else
        {
          if(hdma->XferM1HalfCpltCallback != NULL)
 8002778:	687b      	ldr	r3, [r7, #4]
 800277a:	6c9b      	ldr	r3, [r3, #72]	; 0x48
 800277c:	2b00      	cmp	r3, #0
 800277e:	d01b      	beq.n	80027b8 <HAL_DMA_IRQHandler+0x170>
          {
            /* Half transfer callback */
            hdma->XferM1HalfCpltCallback(hdma);
 8002780:	687b      	ldr	r3, [r7, #4]
 8002782:	6c9b      	ldr	r3, [r3, #72]	; 0x48
 8002784:	6878      	ldr	r0, [r7, #4]
 8002786:	4798      	blx	r3
 8002788:	e016      	b.n	80027b8 <HAL_DMA_IRQHandler+0x170>
        }
      }
      else
      {
        /* Disable the half transfer interrupt if the DMA mode is not CIRCULAR */
        if((hdma->Instance->CR & DMA_SxCR_CIRC) == RESET)
 800278a:	687b      	ldr	r3, [r7, #4]
 800278c:	681b      	ldr	r3, [r3, #0]
 800278e:	681b      	ldr	r3, [r3, #0]
 8002790:	f403 7380 	and.w	r3, r3, #256	; 0x100
 8002794:	2b00      	cmp	r3, #0
 8002796:	d107      	bne.n	80027a8 <HAL_DMA_IRQHandler+0x160>
        {
          /* Disable the half transfer interrupt */
          hdma->Instance->CR  &= ~(DMA_IT_HT);
 8002798:	687b      	ldr	r3, [r7, #4]
 800279a:	681b      	ldr	r3, [r3, #0]
 800279c:	681a      	ldr	r2, [r3, #0]
 800279e:	687b      	ldr	r3, [r7, #4]
 80027a0:	681b      	ldr	r3, [r3, #0]
 80027a2:	f022 0208 	bic.w	r2, r2, #8
 80027a6:	601a      	str	r2, [r3, #0]
        }
        
        if(hdma->XferHalfCpltCallback != NULL)
 80027a8:	687b      	ldr	r3, [r7, #4]
 80027aa:	6c1b      	ldr	r3, [r3, #64]	; 0x40
 80027ac:	2b00      	cmp	r3, #0
 80027ae:	d003      	beq.n	80027b8 <HAL_DMA_IRQHandler+0x170>
        {
          /* Half transfer callback */
          hdma->XferHalfCpltCallback(hdma);
 80027b0:	687b      	ldr	r3, [r7, #4]
 80027b2:	6c1b      	ldr	r3, [r3, #64]	; 0x40
 80027b4:	6878      	ldr	r0, [r7, #4]
 80027b6:	4798      	blx	r3
        }
      }
    }
  }
  /* Transfer Complete Interrupt management ***********************************/
  if ((tmpisr & (DMA_FLAG_TCIF0_4 << hdma->StreamIndex)) != RESET)
 80027b8:	687b      	ldr	r3, [r7, #4]
 80027ba:	6ddb      	ldr	r3, [r3, #92]	; 0x5c
 80027bc:	2220      	movs	r2, #32
 80027be:	409a      	lsls	r2, r3
 80027c0:	68fb      	ldr	r3, [r7, #12]
 80027c2:	4013      	ands	r3, r2
 80027c4:	2b00      	cmp	r3, #0
 80027c6:	f000 808e 	beq.w	80028e6 <HAL_DMA_IRQHandler+0x29e>
  {
    if(__HAL_DMA_GET_IT_SOURCE(hdma, DMA_IT_TC) != RESET)
 80027ca:	687b      	ldr	r3, [r7, #4]
 80027cc:	681b      	ldr	r3, [r3, #0]
 80027ce:	681b      	ldr	r3, [r3, #0]
 80027d0:	f003 0310 	and.w	r3, r3, #16
 80027d4:	2b00      	cmp	r3, #0
 80027d6:	f000 8086 	beq.w	80028e6 <HAL_DMA_IRQHandler+0x29e>
    {
      /* Clear the transfer complete flag */
      regs->IFCR = DMA_FLAG_TCIF0_4 << hdma->StreamIndex;
 80027da:	687b      	ldr	r3, [r7, #4]
 80027dc:	6ddb      	ldr	r3, [r3, #92]	; 0x5c
 80027de:	2220      	movs	r2, #32
 80027e0:	409a      	lsls	r2, r3
 80027e2:	693b      	ldr	r3, [r7, #16]
 80027e4:	609a      	str	r2, [r3, #8]
      
      if(HAL_DMA_STATE_ABORT == hdma->State)
 80027e6:	687b      	ldr	r3, [r7, #4]
 80027e8:	f893 3035 	ldrb.w	r3, [r3, #53]	; 0x35
 80027ec:	b2db      	uxtb	r3, r3
 80027ee:	2b05      	cmp	r3, #5
 80027f0:	d136      	bne.n	8002860 <HAL_DMA_IRQHandler+0x218>
      {
        /* Disable all the transfer interrupts */
        hdma->Instance->CR  &= ~(DMA_IT_TC | DMA_IT_TE | DMA_IT_DME);
 80027f2:	687b      	ldr	r3, [r7, #4]
 80027f4:	681b      	ldr	r3, [r3, #0]
 80027f6:	681a      	ldr	r2, [r3, #0]
 80027f8:	687b      	ldr	r3, [r7, #4]
 80027fa:	681b      	ldr	r3, [r3, #0]
 80027fc:	f022 0216 	bic.w	r2, r2, #22
 8002800:	601a      	str	r2, [r3, #0]
        hdma->Instance->FCR &= ~(DMA_IT_FE);
 8002802:	687b      	ldr	r3, [r7, #4]
 8002804:	681b      	ldr	r3, [r3, #0]
 8002806:	695a      	ldr	r2, [r3, #20]
 8002808:	687b      	ldr	r3, [r7, #4]
 800280a:	681b      	ldr	r3, [r3, #0]
 800280c:	f022 0280 	bic.w	r2, r2, #128	; 0x80
 8002810:	615a      	str	r2, [r3, #20]
        
        if((hdma->XferHalfCpltCallback != NULL) || (hdma->XferM1HalfCpltCallback != NULL))
 8002812:	687b      	ldr	r3, [r7, #4]
 8002814:	6c1b      	ldr	r3, [r3, #64]	; 0x40
 8002816:	2b00      	cmp	r3, #0
 8002818:	d103      	bne.n	8002822 <HAL_DMA_IRQHandler+0x1da>
 800281a:	687b      	ldr	r3, [r7, #4]
 800281c:	6c9b      	ldr	r3, [r3, #72]	; 0x48
 800281e:	2b00      	cmp	r3, #0
 8002820:	d007      	beq.n	8002832 <HAL_DMA_IRQHandler+0x1ea>
        {
          hdma->Instance->CR  &= ~(DMA_IT_HT);
 8002822:	687b      	ldr	r3, [r7, #4]
 8002824:	681b      	ldr	r3, [r3, #0]
 8002826:	681a      	ldr	r2, [r3, #0]
 8002828:	687b      	ldr	r3, [r7, #4]
 800282a:	681b      	ldr	r3, [r3, #0]
 800282c:	f022 0208 	bic.w	r2, r2, #8
 8002830:	601a      	str	r2, [r3, #0]
        }

        /* Clear all interrupt flags at correct offset within the register */
        regs->IFCR = 0x3FU << hdma->StreamIndex;
 8002832:	687b      	ldr	r3, [r7, #4]
 8002834:	6ddb      	ldr	r3, [r3, #92]	; 0x5c
 8002836:	223f      	movs	r2, #63	; 0x3f
 8002838:	409a      	lsls	r2, r3
 800283a:	693b      	ldr	r3, [r7, #16]
 800283c:	609a      	str	r2, [r3, #8]

        /* Process Unlocked */
        __HAL_UNLOCK(hdma);
 800283e:	687b      	ldr	r3, [r7, #4]
 8002840:	2200      	movs	r2, #0
 8002842:	f883 2034 	strb.w	r2, [r3, #52]	; 0x34

        /* Change the DMA state */
        hdma->State = HAL_DMA_STATE_READY;
 8002846:	687b      	ldr	r3, [r7, #4]
 8002848:	2201      	movs	r2, #1
 800284a:	f883 2035 	strb.w	r2, [r3, #53]	; 0x35

        if(hdma->XferAbortCallback != NULL)
 800284e:	687b      	ldr	r3, [r7, #4]
 8002850:	6d1b      	ldr	r3, [r3, #80]	; 0x50
 8002852:	2b00      	cmp	r3, #0
 8002854:	d07d      	beq.n	8002952 <HAL_DMA_IRQHandler+0x30a>
        {
          hdma->XferAbortCallback(hdma);
 8002856:	687b      	ldr	r3, [r7, #4]
 8002858:	6d1b      	ldr	r3, [r3, #80]	; 0x50
 800285a:	6878      	ldr	r0, [r7, #4]
 800285c:	4798      	blx	r3
        }
        return;
 800285e:	e078      	b.n	8002952 <HAL_DMA_IRQHandler+0x30a>
      }

      if(((hdma->Instance->CR) & (uint32_t)(DMA_SxCR_DBM)) != RESET)
 8002860:	687b      	ldr	r3, [r7, #4]
 8002862:	681b      	ldr	r3, [r3, #0]
 8002864:	681b      	ldr	r3, [r3, #0]
 8002866:	f403 2380 	and.w	r3, r3, #262144	; 0x40000
 800286a:	2b00      	cmp	r3, #0
 800286c:	d01c      	beq.n	80028a8 <HAL_DMA_IRQHandler+0x260>
      {
        /* Current memory buffer used is Memory 0 */
        if((hdma->Instance->CR & DMA_SxCR_CT) == RESET)
 800286e:	687b      	ldr	r3, [r7, #4]
 8002870:	681b      	ldr	r3, [r3, #0]
 8002872:	681b      	ldr	r3, [r3, #0]
 8002874:	f403 2300 	and.w	r3, r3, #524288	; 0x80000
 8002878:	2b00      	cmp	r3, #0
 800287a:	d108      	bne.n	800288e <HAL_DMA_IRQHandler+0x246>
        {
          if(hdma->XferM1CpltCallback != NULL)
 800287c:	687b      	ldr	r3, [r7, #4]
 800287e:	6c5b      	ldr	r3, [r3, #68]	; 0x44
 8002880:	2b00      	cmp	r3, #0
 8002882:	d030      	beq.n	80028e6 <HAL_DMA_IRQHandler+0x29e>
          {
            /* Transfer complete Callback for memory1 */
            hdma->XferM1CpltCallback(hdma);
 8002884:	687b      	ldr	r3, [r7, #4]
 8002886:	6c5b      	ldr	r3, [r3, #68]	; 0x44
 8002888:	6878      	ldr	r0, [r7, #4]
 800288a:	4798      	blx	r3
 800288c:	e02b      	b.n	80028e6 <HAL_DMA_IRQHandler+0x29e>
          }
        }
        /* Current memory buffer used is Memory 1 */
        else
        {
          if(hdma->XferCpltCallback != NULL)
 800288e:	687b      	ldr	r3, [r7, #4]
 8002890:	6bdb      	ldr	r3, [r3, #60]	; 0x3c
 8002892:	2b00      	cmp	r3, #0
 8002894:	d027      	beq.n	80028e6 <HAL_DMA_IRQHandler+0x29e>
          {
            /* Transfer complete Callback for memory0 */
            hdma->XferCpltCallback(hdma);
 8002896:	687b      	ldr	r3, [r7, #4]
 8002898:	6bdb      	ldr	r3, [r3, #60]	; 0x3c
 800289a:	6878      	ldr	r0, [r7, #4]
 800289c:	4798      	blx	r3
 800289e:	e022      	b.n	80028e6 <HAL_DMA_IRQHandler+0x29e>
 80028a0:	20000000 	.word	0x20000000
 80028a4:	1b4e81b5 	.word	0x1b4e81b5
        }
      }
      /* Disable the transfer complete interrupt if the DMA mode is not CIRCULAR */
      else
      {
        if((hdma->Instance->CR & DMA_SxCR_CIRC) == RESET)
 80028a8:	687b      	ldr	r3, [r7, #4]
 80028aa:	681b      	ldr	r3, [r3, #0]
 80028ac:	681b      	ldr	r3, [r3, #0]
 80028ae:	f403 7380 	and.w	r3, r3, #256	; 0x100
 80028b2:	2b00      	cmp	r3, #0
 80028b4:	d10f      	bne.n	80028d6 <HAL_DMA_IRQHandler+0x28e>
        {
          /* Disable the transfer complete interrupt */
          hdma->Instance->CR  &= ~(DMA_IT_TC);
 80028b6:	687b      	ldr	r3, [r7, #4]
 80028b8:	681b      	ldr	r3, [r3, #0]
 80028ba:	681a      	ldr	r2, [r3, #0]
 80028bc:	687b      	ldr	r3, [r7, #4]
 80028be:	681b      	ldr	r3, [r3, #0]
 80028c0:	f022 0210 	bic.w	r2, r2, #16
 80028c4:	601a      	str	r2, [r3, #0]

          /* Process Unlocked */
          __HAL_UNLOCK(hdma);
 80028c6:	687b      	ldr	r3, [r7, #4]
 80028c8:	2200      	movs	r2, #0
 80028ca:	f883 2034 	strb.w	r2, [r3, #52]	; 0x34

          /* Change the DMA state */
          hdma->State = HAL_DMA_STATE_READY;
 80028ce:	687b      	ldr	r3, [r7, #4]
 80028d0:	2201      	movs	r2, #1
 80028d2:	f883 2035 	strb.w	r2, [r3, #53]	; 0x35
        }

        if(hdma->XferCpltCallback != NULL)
 80028d6:	687b      	ldr	r3, [r7, #4]
 80028d8:	6bdb      	ldr	r3, [r3, #60]	; 0x3c
 80028da:	2b00      	cmp	r3, #0
 80028dc:	d003      	beq.n	80028e6 <HAL_DMA_IRQHandler+0x29e>
        {
          /* Transfer complete callback */
          hdma->XferCpltCallback(hdma);
 80028de:	687b      	ldr	r3, [r7, #4]
 80028e0:	6bdb      	ldr	r3, [r3, #60]	; 0x3c
 80028e2:	6878      	ldr	r0, [r7, #4]
 80028e4:	4798      	blx	r3
      }
    }
  }
  
  /* manage error case */
  if(hdma->ErrorCode != HAL_DMA_ERROR_NONE)
 80028e6:	687b      	ldr	r3, [r7, #4]
 80028e8:	6d5b      	ldr	r3, [r3, #84]	; 0x54
 80028ea:	2b00      	cmp	r3, #0
 80028ec:	d032      	beq.n	8002954 <HAL_DMA_IRQHandler+0x30c>
  {
    if((hdma->ErrorCode & HAL_DMA_ERROR_TE) != RESET)
 80028ee:	687b      	ldr	r3, [r7, #4]
 80028f0:	6d5b      	ldr	r3, [r3, #84]	; 0x54
 80028f2:	f003 0301 	and.w	r3, r3, #1
 80028f6:	2b00      	cmp	r3, #0
 80028f8:	d022      	beq.n	8002940 <HAL_DMA_IRQHandler+0x2f8>
    {
      hdma->State = HAL_DMA_STATE_ABORT;
 80028fa:	687b      	ldr	r3, [r7, #4]
 80028fc:	2205      	movs	r2, #5
 80028fe:	f883 2035 	strb.w	r2, [r3, #53]	; 0x35

      /* Disable the stream */
      __HAL_DMA_DISABLE(hdma);
 8002902:	687b      	ldr	r3, [r7, #4]
 8002904:	681b      	ldr	r3, [r3, #0]
 8002906:	681a      	ldr	r2, [r3, #0]
 8002908:	687b      	ldr	r3, [r7, #4]
 800290a:	681b      	ldr	r3, [r3, #0]
 800290c:	f022 0201 	bic.w	r2, r2, #1
 8002910:	601a      	str	r2, [r3, #0]

      do
      {
        if (++count > timeout)
 8002912:	68bb      	ldr	r3, [r7, #8]
 8002914:	3301      	adds	r3, #1
 8002916:	60bb      	str	r3, [r7, #8]
 8002918:	697a      	ldr	r2, [r7, #20]
 800291a:	429a      	cmp	r2, r3
 800291c:	d307      	bcc.n	800292e <HAL_DMA_IRQHandler+0x2e6>
        {
          break;
        }
      }
      while((hdma->Instance->CR & DMA_SxCR_EN) != RESET);
 800291e:	687b      	ldr	r3, [r7, #4]
 8002920:	681b      	ldr	r3, [r3, #0]
 8002922:	681b      	ldr	r3, [r3, #0]
 8002924:	f003 0301 	and.w	r3, r3, #1
 8002928:	2b00      	cmp	r3, #0
 800292a:	d1f2      	bne.n	8002912 <HAL_DMA_IRQHandler+0x2ca>
 800292c:	e000      	b.n	8002930 <HAL_DMA_IRQHandler+0x2e8>
          break;
 800292e:	bf00      	nop

      /* Process Unlocked */
      __HAL_UNLOCK(hdma);
 8002930:	687b      	ldr	r3, [r7, #4]
 8002932:	2200      	movs	r2, #0
 8002934:	f883 2034 	strb.w	r2, [r3, #52]	; 0x34

      /* Change the DMA state */
      hdma->State = HAL_DMA_STATE_READY;
 8002938:	687b      	ldr	r3, [r7, #4]
 800293a:	2201      	movs	r2, #1
 800293c:	f883 2035 	strb.w	r2, [r3, #53]	; 0x35
    }

    if(hdma->XferErrorCallback != NULL)
 8002940:	687b      	ldr	r3, [r7, #4]
 8002942:	6cdb      	ldr	r3, [r3, #76]	; 0x4c
 8002944:	2b00      	cmp	r3, #0
 8002946:	d005      	beq.n	8002954 <HAL_DMA_IRQHandler+0x30c>
    {
      /* Transfer error callback */
      hdma->XferErrorCallback(hdma);
 8002948:	687b      	ldr	r3, [r7, #4]
 800294a:	6cdb      	ldr	r3, [r3, #76]	; 0x4c
 800294c:	6878      	ldr	r0, [r7, #4]
 800294e:	4798      	blx	r3
 8002950:	e000      	b.n	8002954 <HAL_DMA_IRQHandler+0x30c>
        return;
 8002952:	bf00      	nop
    }
  }
}
 8002954:	3718      	adds	r7, #24
 8002956:	46bd      	mov	sp, r7
 8002958:	bd80      	pop	{r7, pc}
 800295a:	bf00      	nop

0800295c <DMA_SetConfig>:
  * @param  DstAddress The destination memory Buffer address
  * @param  DataLength The length of data to be transferred from source to destination
  * @retval HAL status
  */
static void DMA_SetConfig(DMA_HandleTypeDef *hdma, uint32_t SrcAddress, uint32_t DstAddress, uint32_t DataLength)
{
 800295c:	b480      	push	{r7}
 800295e:	b085      	sub	sp, #20
 8002960:	af00      	add	r7, sp, #0
 8002962:	60f8      	str	r0, [r7, #12]
 8002964:	60b9      	str	r1, [r7, #8]
 8002966:	607a      	str	r2, [r7, #4]
 8002968:	603b      	str	r3, [r7, #0]
  /* Clear DBM bit */
  hdma->Instance->CR &= (uint32_t)(~DMA_SxCR_DBM);
 800296a:	68fb      	ldr	r3, [r7, #12]
 800296c:	681b      	ldr	r3, [r3, #0]
 800296e:	681a      	ldr	r2, [r3, #0]
 8002970:	68fb      	ldr	r3, [r7, #12]
 8002972:	681b      	ldr	r3, [r3, #0]
 8002974:	f422 2280 	bic.w	r2, r2, #262144	; 0x40000
 8002978:	601a      	str	r2, [r3, #0]

  /* Configure DMA Stream data length */
  hdma->Instance->NDTR = DataLength;
 800297a:	68fb      	ldr	r3, [r7, #12]
 800297c:	681b      	ldr	r3, [r3, #0]
 800297e:	683a      	ldr	r2, [r7, #0]
 8002980:	605a      	str	r2, [r3, #4]

  /* Memory to Peripheral */
  if((hdma->Init.Direction) == DMA_MEMORY_TO_PERIPH)
 8002982:	68fb      	ldr	r3, [r7, #12]
 8002984:	689b      	ldr	r3, [r3, #8]
 8002986:	2b40      	cmp	r3, #64	; 0x40
 8002988:	d108      	bne.n	800299c <DMA_SetConfig+0x40>
  {
    /* Configure DMA Stream destination address */
    hdma->Instance->PAR = DstAddress;
 800298a:	68fb      	ldr	r3, [r7, #12]
 800298c:	681b      	ldr	r3, [r3, #0]
 800298e:	687a      	ldr	r2, [r7, #4]
 8002990:	609a      	str	r2, [r3, #8]

    /* Configure DMA Stream source address */
    hdma->Instance->M0AR = SrcAddress;
 8002992:	68fb      	ldr	r3, [r7, #12]
 8002994:	681b      	ldr	r3, [r3, #0]
 8002996:	68ba      	ldr	r2, [r7, #8]
 8002998:	60da      	str	r2, [r3, #12]
    hdma->Instance->PAR = SrcAddress;

    /* Configure DMA Stream destination address */
    hdma->Instance->M0AR = DstAddress;
  }
}
 800299a:	e007      	b.n	80029ac <DMA_SetConfig+0x50>
    hdma->Instance->PAR = SrcAddress;
 800299c:	68fb      	ldr	r3, [r7, #12]
 800299e:	681b      	ldr	r3, [r3, #0]
 80029a0:	68ba      	ldr	r2, [r7, #8]
 80029a2:	609a      	str	r2, [r3, #8]
    hdma->Instance->M0AR = DstAddress;
 80029a4:	68fb      	ldr	r3, [r7, #12]
 80029a6:	681b      	ldr	r3, [r3, #0]
 80029a8:	687a      	ldr	r2, [r7, #4]
 80029aa:	60da      	str	r2, [r3, #12]
}
 80029ac:	bf00      	nop
 80029ae:	3714      	adds	r7, #20
 80029b0:	46bd      	mov	sp, r7
 80029b2:	f85d 7b04 	ldr.w	r7, [sp], #4
 80029b6:	4770      	bx	lr

080029b8 <DMA_CalcBaseAndBitshift>:
  * @param  hdma       pointer to a DMA_HandleTypeDef structure that contains
  *                     the configuration information for the specified DMA Stream. 
  * @retval Stream base address
  */
static uint32_t DMA_CalcBaseAndBitshift(DMA_HandleTypeDef *hdma)
{
 80029b8:	b480      	push	{r7}
 80029ba:	b085      	sub	sp, #20
 80029bc:	af00      	add	r7, sp, #0
 80029be:	6078      	str	r0, [r7, #4]
  uint32_t stream_number = (((uint32_t)hdma->Instance & 0xFFU) - 16U) / 24U;
 80029c0:	687b      	ldr	r3, [r7, #4]
 80029c2:	681b      	ldr	r3, [r3, #0]
 80029c4:	b2db      	uxtb	r3, r3
 80029c6:	3b10      	subs	r3, #16
 80029c8:	4a14      	ldr	r2, [pc, #80]	; (8002a1c <DMA_CalcBaseAndBitshift+0x64>)
 80029ca:	fba2 2303 	umull	r2, r3, r2, r3
 80029ce:	091b      	lsrs	r3, r3, #4
 80029d0:	60fb      	str	r3, [r7, #12]
  
  /* lookup table for necessary bitshift of flags within status registers */
  static const uint8_t flagBitshiftOffset[8U] = {0U, 6U, 16U, 22U, 0U, 6U, 16U, 22U};
  hdma->StreamIndex = flagBitshiftOffset[stream_number];
 80029d2:	4a13      	ldr	r2, [pc, #76]	; (8002a20 <DMA_CalcBaseAndBitshift+0x68>)
 80029d4:	68fb      	ldr	r3, [r7, #12]
 80029d6:	4413      	add	r3, r2
 80029d8:	781b      	ldrb	r3, [r3, #0]
 80029da:	461a      	mov	r2, r3
 80029dc:	687b      	ldr	r3, [r7, #4]
 80029de:	65da      	str	r2, [r3, #92]	; 0x5c
  
  if (stream_number > 3U)
 80029e0:	68fb      	ldr	r3, [r7, #12]
 80029e2:	2b03      	cmp	r3, #3
 80029e4:	d909      	bls.n	80029fa <DMA_CalcBaseAndBitshift+0x42>
  {
    /* return pointer to HISR and HIFCR */
    hdma->StreamBaseAddress = (((uint32_t)hdma->Instance & (uint32_t)(~0x3FFU)) + 4U);
 80029e6:	687b      	ldr	r3, [r7, #4]
 80029e8:	681b      	ldr	r3, [r3, #0]
 80029ea:	f423 737f 	bic.w	r3, r3, #1020	; 0x3fc
 80029ee:	f023 0303 	bic.w	r3, r3, #3
 80029f2:	1d1a      	adds	r2, r3, #4
 80029f4:	687b      	ldr	r3, [r7, #4]
 80029f6:	659a      	str	r2, [r3, #88]	; 0x58
 80029f8:	e007      	b.n	8002a0a <DMA_CalcBaseAndBitshift+0x52>
  }
  else
  {
    /* return pointer to LISR and LIFCR */
    hdma->StreamBaseAddress = ((uint32_t)hdma->Instance & (uint32_t)(~0x3FFU));
 80029fa:	687b      	ldr	r3, [r7, #4]
 80029fc:	681b      	ldr	r3, [r3, #0]
 80029fe:	f423 737f 	bic.w	r3, r3, #1020	; 0x3fc
 8002a02:	f023 0303 	bic.w	r3, r3, #3
 8002a06:	687a      	ldr	r2, [r7, #4]
 8002a08:	6593      	str	r3, [r2, #88]	; 0x58
  }
  
  return hdma->StreamBaseAddress;
 8002a0a:	687b      	ldr	r3, [r7, #4]
 8002a0c:	6d9b      	ldr	r3, [r3, #88]	; 0x58
}
 8002a0e:	4618      	mov	r0, r3
 8002a10:	3714      	adds	r7, #20
 8002a12:	46bd      	mov	sp, r7
 8002a14:	f85d 7b04 	ldr.w	r7, [sp], #4
 8002a18:	4770      	bx	lr
 8002a1a:	bf00      	nop
 8002a1c:	aaaaaaab 	.word	0xaaaaaaab
 8002a20:	080063d4 	.word	0x080063d4

08002a24 <DMA_CheckFifoParam>:
  * @param  hdma       pointer to a DMA_HandleTypeDef structure that contains
  *                     the configuration information for the specified DMA Stream. 
  * @retval HAL status
  */
static HAL_StatusTypeDef DMA_CheckFifoParam(DMA_HandleTypeDef *hdma)
{
 8002a24:	b480      	push	{r7}
 8002a26:	b085      	sub	sp, #20
 8002a28:	af00      	add	r7, sp, #0
 8002a2a:	6078      	str	r0, [r7, #4]
  HAL_StatusTypeDef status = HAL_OK;
 8002a2c:	2300      	movs	r3, #0
 8002a2e:	73fb      	strb	r3, [r7, #15]
  uint32_t tmp = hdma->Init.FIFOThreshold;
 8002a30:	687b      	ldr	r3, [r7, #4]
 8002a32:	6a9b      	ldr	r3, [r3, #40]	; 0x28
 8002a34:	60bb      	str	r3, [r7, #8]
  
  /* Memory Data size equal to Byte */
  if(hdma->Init.MemDataAlignment == DMA_MDATAALIGN_BYTE)
 8002a36:	687b      	ldr	r3, [r7, #4]
 8002a38:	699b      	ldr	r3, [r3, #24]
 8002a3a:	2b00      	cmp	r3, #0
 8002a3c:	d11f      	bne.n	8002a7e <DMA_CheckFifoParam+0x5a>
  {
    switch (tmp)
 8002a3e:	68bb      	ldr	r3, [r7, #8]
 8002a40:	2b03      	cmp	r3, #3
 8002a42:	d855      	bhi.n	8002af0 <DMA_CheckFifoParam+0xcc>
 8002a44:	a201      	add	r2, pc, #4	; (adr r2, 8002a4c <DMA_CheckFifoParam+0x28>)
 8002a46:	f852 f023 	ldr.w	pc, [r2, r3, lsl #2]
 8002a4a:	bf00      	nop
 8002a4c:	08002a5d 	.word	0x08002a5d
 8002a50:	08002a6f 	.word	0x08002a6f
 8002a54:	08002a5d 	.word	0x08002a5d
 8002a58:	08002af1 	.word	0x08002af1
    {
    case DMA_FIFO_THRESHOLD_1QUARTERFULL:
    case DMA_FIFO_THRESHOLD_3QUARTERSFULL:
      if ((hdma->Init.MemBurst & DMA_SxCR_MBURST_1) == DMA_SxCR_MBURST_1)
 8002a5c:	687b      	ldr	r3, [r7, #4]
 8002a5e:	6adb      	ldr	r3, [r3, #44]	; 0x2c
 8002a60:	f003 7380 	and.w	r3, r3, #16777216	; 0x1000000
 8002a64:	2b00      	cmp	r3, #0
 8002a66:	d045      	beq.n	8002af4 <DMA_CheckFifoParam+0xd0>
      {
        status = HAL_ERROR;
 8002a68:	2301      	movs	r3, #1
 8002a6a:	73fb      	strb	r3, [r7, #15]
      }
      break;
 8002a6c:	e042      	b.n	8002af4 <DMA_CheckFifoParam+0xd0>
    case DMA_FIFO_THRESHOLD_HALFFULL:
      if (hdma->Init.MemBurst == DMA_MBURST_INC16)
 8002a6e:	687b      	ldr	r3, [r7, #4]
 8002a70:	6adb      	ldr	r3, [r3, #44]	; 0x2c
 8002a72:	f1b3 7fc0 	cmp.w	r3, #25165824	; 0x1800000
 8002a76:	d13f      	bne.n	8002af8 <DMA_CheckFifoParam+0xd4>
      {
        status = HAL_ERROR;
 8002a78:	2301      	movs	r3, #1
 8002a7a:	73fb      	strb	r3, [r7, #15]
      }
      break;
 8002a7c:	e03c      	b.n	8002af8 <DMA_CheckFifoParam+0xd4>
      break;
    }
  }
  
  /* Memory Data size equal to Half-Word */
  else if (hdma->Init.MemDataAlignment == DMA_MDATAALIGN_HALFWORD)
 8002a7e:	687b      	ldr	r3, [r7, #4]
 8002a80:	699b      	ldr	r3, [r3, #24]
 8002a82:	f5b3 5f00 	cmp.w	r3, #8192	; 0x2000
 8002a86:	d121      	bne.n	8002acc <DMA_CheckFifoParam+0xa8>
  {
    switch (tmp)
 8002a88:	68bb      	ldr	r3, [r7, #8]
 8002a8a:	2b03      	cmp	r3, #3
 8002a8c:	d836      	bhi.n	8002afc <DMA_CheckFifoParam+0xd8>
 8002a8e:	a201      	add	r2, pc, #4	; (adr r2, 8002a94 <DMA_CheckFifoParam+0x70>)
 8002a90:	f852 f023 	ldr.w	pc, [r2, r3, lsl #2]
 8002a94:	08002aa5 	.word	0x08002aa5
 8002a98:	08002aab 	.word	0x08002aab
 8002a9c:	08002aa5 	.word	0x08002aa5
 8002aa0:	08002abd 	.word	0x08002abd
    {
    case DMA_FIFO_THRESHOLD_1QUARTERFULL:
    case DMA_FIFO_THRESHOLD_3QUARTERSFULL:
      status = HAL_ERROR;
 8002aa4:	2301      	movs	r3, #1
 8002aa6:	73fb      	strb	r3, [r7, #15]
      break;
 8002aa8:	e02f      	b.n	8002b0a <DMA_CheckFifoParam+0xe6>
    case DMA_FIFO_THRESHOLD_HALFFULL:
      if ((hdma->Init.MemBurst & DMA_SxCR_MBURST_1) == DMA_SxCR_MBURST_1)
 8002aaa:	687b      	ldr	r3, [r7, #4]
 8002aac:	6adb      	ldr	r3, [r3, #44]	; 0x2c
 8002aae:	f003 7380 	and.w	r3, r3, #16777216	; 0x1000000
 8002ab2:	2b00      	cmp	r3, #0
 8002ab4:	d024      	beq.n	8002b00 <DMA_CheckFifoParam+0xdc>
      {
        status = HAL_ERROR;
 8002ab6:	2301      	movs	r3, #1
 8002ab8:	73fb      	strb	r3, [r7, #15]
      }
      break;
 8002aba:	e021      	b.n	8002b00 <DMA_CheckFifoParam+0xdc>
    case DMA_FIFO_THRESHOLD_FULL:
      if (hdma->Init.MemBurst == DMA_MBURST_INC16)
 8002abc:	687b      	ldr	r3, [r7, #4]
 8002abe:	6adb      	ldr	r3, [r3, #44]	; 0x2c
 8002ac0:	f1b3 7fc0 	cmp.w	r3, #25165824	; 0x1800000
 8002ac4:	d11e      	bne.n	8002b04 <DMA_CheckFifoParam+0xe0>
      {
        status = HAL_ERROR;
 8002ac6:	2301      	movs	r3, #1
 8002ac8:	73fb      	strb	r3, [r7, #15]
      }
      break;   
 8002aca:	e01b      	b.n	8002b04 <DMA_CheckFifoParam+0xe0>
  }
  
  /* Memory Data size equal to Word */
  else
  {
    switch (tmp)
 8002acc:	68bb      	ldr	r3, [r7, #8]
 8002ace:	2b02      	cmp	r3, #2
 8002ad0:	d902      	bls.n	8002ad8 <DMA_CheckFifoParam+0xb4>
 8002ad2:	2b03      	cmp	r3, #3
 8002ad4:	d003      	beq.n	8002ade <DMA_CheckFifoParam+0xba>
      {
        status = HAL_ERROR;
      }
      break;
    default:
      break;
 8002ad6:	e018      	b.n	8002b0a <DMA_CheckFifoParam+0xe6>
      status = HAL_ERROR;
 8002ad8:	2301      	movs	r3, #1
 8002ada:	73fb      	strb	r3, [r7, #15]
      break;
 8002adc:	e015      	b.n	8002b0a <DMA_CheckFifoParam+0xe6>
      if ((hdma->Init.MemBurst & DMA_SxCR_MBURST_1) == DMA_SxCR_MBURST_1)
 8002ade:	687b      	ldr	r3, [r7, #4]
 8002ae0:	6adb      	ldr	r3, [r3, #44]	; 0x2c
 8002ae2:	f003 7380 	and.w	r3, r3, #16777216	; 0x1000000
 8002ae6:	2b00      	cmp	r3, #0
 8002ae8:	d00e      	beq.n	8002b08 <DMA_CheckFifoParam+0xe4>
        status = HAL_ERROR;
 8002aea:	2301      	movs	r3, #1
 8002aec:	73fb      	strb	r3, [r7, #15]
      break;
 8002aee:	e00b      	b.n	8002b08 <DMA_CheckFifoParam+0xe4>
      break;
 8002af0:	bf00      	nop
 8002af2:	e00a      	b.n	8002b0a <DMA_CheckFifoParam+0xe6>
      break;
 8002af4:	bf00      	nop
 8002af6:	e008      	b.n	8002b0a <DMA_CheckFifoParam+0xe6>
      break;
 8002af8:	bf00      	nop
 8002afa:	e006      	b.n	8002b0a <DMA_CheckFifoParam+0xe6>
      break;
 8002afc:	bf00      	nop
 8002afe:	e004      	b.n	8002b0a <DMA_CheckFifoParam+0xe6>
      break;
 8002b00:	bf00      	nop
 8002b02:	e002      	b.n	8002b0a <DMA_CheckFifoParam+0xe6>
      break;   
 8002b04:	bf00      	nop
 8002b06:	e000      	b.n	8002b0a <DMA_CheckFifoParam+0xe6>
      break;
 8002b08:	bf00      	nop
    }
  } 
  
  return status; 
 8002b0a:	7bfb      	ldrb	r3, [r7, #15]
}
 8002b0c:	4618      	mov	r0, r3
 8002b0e:	3714      	adds	r7, #20
 8002b10:	46bd      	mov	sp, r7
 8002b12:	f85d 7b04 	ldr.w	r7, [sp], #4
 8002b16:	4770      	bx	lr

08002b18 <HAL_GPIO_Init>:
  * @param  GPIO_Init pointer to a GPIO_InitTypeDef structure that contains
  *         the configuration information for the specified GPIO peripheral.
  * @retval None
  */
void HAL_GPIO_Init(GPIO_TypeDef  *GPIOx, GPIO_InitTypeDef *GPIO_Init)
{
 8002b18:	b480      	push	{r7}
 8002b1a:	b089      	sub	sp, #36	; 0x24
 8002b1c:	af00      	add	r7, sp, #0
 8002b1e:	6078      	str	r0, [r7, #4]
 8002b20:	6039      	str	r1, [r7, #0]
  uint32_t position;
  uint32_t ioposition = 0x00U;
 8002b22:	2300      	movs	r3, #0
 8002b24:	617b      	str	r3, [r7, #20]
  uint32_t iocurrent = 0x00U;
 8002b26:	2300      	movs	r3, #0
 8002b28:	613b      	str	r3, [r7, #16]
  uint32_t temp = 0x00U;
 8002b2a:	2300      	movs	r3, #0
 8002b2c:	61bb      	str	r3, [r7, #24]
  assert_param(IS_GPIO_PIN(GPIO_Init->Pin));
  assert_param(IS_GPIO_MODE(GPIO_Init->Mode));
  assert_param(IS_GPIO_PULL(GPIO_Init->Pull));

  /* Configure the port pins */
  for(position = 0U; position < GPIO_NUMBER; position++)
 8002b2e:	2300      	movs	r3, #0
 8002b30:	61fb      	str	r3, [r7, #28]
 8002b32:	e165      	b.n	8002e00 <HAL_GPIO_Init+0x2e8>
  {
    /* Get the IO position */
    ioposition = 0x01U << position;
 8002b34:	2201      	movs	r2, #1
 8002b36:	69fb      	ldr	r3, [r7, #28]
 8002b38:	fa02 f303 	lsl.w	r3, r2, r3
 8002b3c:	617b      	str	r3, [r7, #20]
    /* Get the current IO position */
    iocurrent = (uint32_t)(GPIO_Init->Pin) & ioposition;
 8002b3e:	683b      	ldr	r3, [r7, #0]
 8002b40:	681b      	ldr	r3, [r3, #0]
 8002b42:	697a      	ldr	r2, [r7, #20]
 8002b44:	4013      	ands	r3, r2
 8002b46:	613b      	str	r3, [r7, #16]

    if(iocurrent == ioposition)
 8002b48:	693a      	ldr	r2, [r7, #16]
 8002b4a:	697b      	ldr	r3, [r7, #20]
 8002b4c:	429a      	cmp	r2, r3
 8002b4e:	f040 8154 	bne.w	8002dfa <HAL_GPIO_Init+0x2e2>
    {
      /*--------------------- GPIO Mode Configuration ------------------------*/
      /* In case of Output or Alternate function mode selection */
      if((GPIO_Init->Mode == GPIO_MODE_OUTPUT_PP) || (GPIO_Init->Mode == GPIO_MODE_AF_PP) ||
 8002b52:	683b      	ldr	r3, [r7, #0]
 8002b54:	685b      	ldr	r3, [r3, #4]
 8002b56:	2b01      	cmp	r3, #1
 8002b58:	d00b      	beq.n	8002b72 <HAL_GPIO_Init+0x5a>
 8002b5a:	683b      	ldr	r3, [r7, #0]
 8002b5c:	685b      	ldr	r3, [r3, #4]
 8002b5e:	2b02      	cmp	r3, #2
 8002b60:	d007      	beq.n	8002b72 <HAL_GPIO_Init+0x5a>
         (GPIO_Init->Mode == GPIO_MODE_OUTPUT_OD) || (GPIO_Init->Mode == GPIO_MODE_AF_OD))
 8002b62:	683b      	ldr	r3, [r7, #0]
 8002b64:	685b      	ldr	r3, [r3, #4]
      if((GPIO_Init->Mode == GPIO_MODE_OUTPUT_PP) || (GPIO_Init->Mode == GPIO_MODE_AF_PP) ||
 8002b66:	2b11      	cmp	r3, #17
 8002b68:	d003      	beq.n	8002b72 <HAL_GPIO_Init+0x5a>
         (GPIO_Init->Mode == GPIO_MODE_OUTPUT_OD) || (GPIO_Init->Mode == GPIO_MODE_AF_OD))
 8002b6a:	683b      	ldr	r3, [r7, #0]
 8002b6c:	685b      	ldr	r3, [r3, #4]
 8002b6e:	2b12      	cmp	r3, #18
 8002b70:	d130      	bne.n	8002bd4 <HAL_GPIO_Init+0xbc>
      {
        /* Check the Speed parameter */
        assert_param(IS_GPIO_SPEED(GPIO_Init->Speed));
        /* Configure the IO Speed */
        temp = GPIOx->OSPEEDR; 
 8002b72:	687b      	ldr	r3, [r7, #4]
 8002b74:	689b      	ldr	r3, [r3, #8]
 8002b76:	61bb      	str	r3, [r7, #24]
        temp &= ~(GPIO_OSPEEDER_OSPEEDR0 << (position * 2U));
 8002b78:	69fb      	ldr	r3, [r7, #28]
 8002b7a:	005b      	lsls	r3, r3, #1
 8002b7c:	2203      	movs	r2, #3
 8002b7e:	fa02 f303 	lsl.w	r3, r2, r3
 8002b82:	43db      	mvns	r3, r3
 8002b84:	69ba      	ldr	r2, [r7, #24]
 8002b86:	4013      	ands	r3, r2
 8002b88:	61bb      	str	r3, [r7, #24]
        temp |= (GPIO_Init->Speed << (position * 2U));
 8002b8a:	683b      	ldr	r3, [r7, #0]
 8002b8c:	68da      	ldr	r2, [r3, #12]
 8002b8e:	69fb      	ldr	r3, [r7, #28]
 8002b90:	005b      	lsls	r3, r3, #1
 8002b92:	fa02 f303 	lsl.w	r3, r2, r3
 8002b96:	69ba      	ldr	r2, [r7, #24]
 8002b98:	4313      	orrs	r3, r2
 8002b9a:	61bb      	str	r3, [r7, #24]
        GPIOx->OSPEEDR = temp;
 8002b9c:	687b      	ldr	r3, [r7, #4]
 8002b9e:	69ba      	ldr	r2, [r7, #24]
 8002ba0:	609a      	str	r2, [r3, #8]

        /* Configure the IO Output Type */
        temp = GPIOx->OTYPER;
 8002ba2:	687b      	ldr	r3, [r7, #4]
 8002ba4:	685b      	ldr	r3, [r3, #4]
 8002ba6:	61bb      	str	r3, [r7, #24]
        temp &= ~(GPIO_OTYPER_OT_0 << position) ;
 8002ba8:	2201      	movs	r2, #1
 8002baa:	69fb      	ldr	r3, [r7, #28]
 8002bac:	fa02 f303 	lsl.w	r3, r2, r3
 8002bb0:	43db      	mvns	r3, r3
 8002bb2:	69ba      	ldr	r2, [r7, #24]
 8002bb4:	4013      	ands	r3, r2
 8002bb6:	61bb      	str	r3, [r7, #24]
        temp |= (((GPIO_Init->Mode & GPIO_OUTPUT_TYPE) >> 4U) << position);
 8002bb8:	683b      	ldr	r3, [r7, #0]
 8002bba:	685b      	ldr	r3, [r3, #4]
 8002bbc:	091b      	lsrs	r3, r3, #4
 8002bbe:	f003 0201 	and.w	r2, r3, #1
 8002bc2:	69fb      	ldr	r3, [r7, #28]
 8002bc4:	fa02 f303 	lsl.w	r3, r2, r3
 8002bc8:	69ba      	ldr	r2, [r7, #24]
 8002bca:	4313      	orrs	r3, r2
 8002bcc:	61bb      	str	r3, [r7, #24]
        GPIOx->OTYPER = temp;
 8002bce:	687b      	ldr	r3, [r7, #4]
 8002bd0:	69ba      	ldr	r2, [r7, #24]
 8002bd2:	605a      	str	r2, [r3, #4]
       }

      /* Activate the Pull-up or Pull down resistor for the current IO */
      temp = GPIOx->PUPDR;
 8002bd4:	687b      	ldr	r3, [r7, #4]
 8002bd6:	68db      	ldr	r3, [r3, #12]
 8002bd8:	61bb      	str	r3, [r7, #24]
      temp &= ~(GPIO_PUPDR_PUPDR0 << (position * 2U));
 8002bda:	69fb      	ldr	r3, [r7, #28]
 8002bdc:	005b      	lsls	r3, r3, #1
 8002bde:	2203      	movs	r2, #3
 8002be0:	fa02 f303 	lsl.w	r3, r2, r3
 8002be4:	43db      	mvns	r3, r3
 8002be6:	69ba      	ldr	r2, [r7, #24]
 8002be8:	4013      	ands	r3, r2
 8002bea:	61bb      	str	r3, [r7, #24]
      temp |= ((GPIO_Init->Pull) << (position * 2U));
 8002bec:	683b      	ldr	r3, [r7, #0]
 8002bee:	689a      	ldr	r2, [r3, #8]
 8002bf0:	69fb      	ldr	r3, [r7, #28]
 8002bf2:	005b      	lsls	r3, r3, #1
 8002bf4:	fa02 f303 	lsl.w	r3, r2, r3
 8002bf8:	69ba      	ldr	r2, [r7, #24]
 8002bfa:	4313      	orrs	r3, r2
 8002bfc:	61bb      	str	r3, [r7, #24]
      GPIOx->PUPDR = temp;
 8002bfe:	687b      	ldr	r3, [r7, #4]
 8002c00:	69ba      	ldr	r2, [r7, #24]
 8002c02:	60da      	str	r2, [r3, #12]

      /* In case of Alternate function mode selection */
      if((GPIO_Init->Mode == GPIO_MODE_AF_PP) || (GPIO_Init->Mode == GPIO_MODE_AF_OD))
 8002c04:	683b      	ldr	r3, [r7, #0]
 8002c06:	685b      	ldr	r3, [r3, #4]
 8002c08:	2b02      	cmp	r3, #2
 8002c0a:	d003      	beq.n	8002c14 <HAL_GPIO_Init+0xfc>
 8002c0c:	683b      	ldr	r3, [r7, #0]
 8002c0e:	685b      	ldr	r3, [r3, #4]
 8002c10:	2b12      	cmp	r3, #18
 8002c12:	d123      	bne.n	8002c5c <HAL_GPIO_Init+0x144>
      {
        /* Check the Alternate function parameter */
        assert_param(IS_GPIO_AF(GPIO_Init->Alternate));
        /* Configure Alternate function mapped with the current IO */
        temp = GPIOx->AFR[position >> 3U];
 8002c14:	69fb      	ldr	r3, [r7, #28]
 8002c16:	08da      	lsrs	r2, r3, #3
 8002c18:	687b      	ldr	r3, [r7, #4]
 8002c1a:	3208      	adds	r2, #8
 8002c1c:	f853 3022 	ldr.w	r3, [r3, r2, lsl #2]
 8002c20:	61bb      	str	r3, [r7, #24]
        temp &= ~(0xFU << ((uint32_t)(position & 0x07U) * 4U)) ;
 8002c22:	69fb      	ldr	r3, [r7, #28]
 8002c24:	f003 0307 	and.w	r3, r3, #7
 8002c28:	009b      	lsls	r3, r3, #2
 8002c2a:	220f      	movs	r2, #15
 8002c2c:	fa02 f303 	lsl.w	r3, r2, r3
 8002c30:	43db      	mvns	r3, r3
 8002c32:	69ba      	ldr	r2, [r7, #24]
 8002c34:	4013      	ands	r3, r2
 8002c36:	61bb      	str	r3, [r7, #24]
        temp |= ((uint32_t)(GPIO_Init->Alternate) << (((uint32_t)position & 0x07U) * 4U));
 8002c38:	683b      	ldr	r3, [r7, #0]
 8002c3a:	691a      	ldr	r2, [r3, #16]
 8002c3c:	69fb      	ldr	r3, [r7, #28]
 8002c3e:	f003 0307 	and.w	r3, r3, #7
 8002c42:	009b      	lsls	r3, r3, #2
 8002c44:	fa02 f303 	lsl.w	r3, r2, r3
 8002c48:	69ba      	ldr	r2, [r7, #24]
 8002c4a:	4313      	orrs	r3, r2
 8002c4c:	61bb      	str	r3, [r7, #24]
        GPIOx->AFR[position >> 3U] = temp;
 8002c4e:	69fb      	ldr	r3, [r7, #28]
 8002c50:	08da      	lsrs	r2, r3, #3
 8002c52:	687b      	ldr	r3, [r7, #4]
 8002c54:	3208      	adds	r2, #8
 8002c56:	69b9      	ldr	r1, [r7, #24]
 8002c58:	f843 1022 	str.w	r1, [r3, r2, lsl #2]
      }

      /* Configure IO Direction mode (Input, Output, Alternate or Analog) */
      temp = GPIOx->MODER;
 8002c5c:	687b      	ldr	r3, [r7, #4]
 8002c5e:	681b      	ldr	r3, [r3, #0]
 8002c60:	61bb      	str	r3, [r7, #24]
      temp &= ~(GPIO_MODER_MODER0 << (position * 2U));
 8002c62:	69fb      	ldr	r3, [r7, #28]
 8002c64:	005b      	lsls	r3, r3, #1
 8002c66:	2203      	movs	r2, #3
 8002c68:	fa02 f303 	lsl.w	r3, r2, r3
 8002c6c:	43db      	mvns	r3, r3
 8002c6e:	69ba      	ldr	r2, [r7, #24]
 8002c70:	4013      	ands	r3, r2
 8002c72:	61bb      	str	r3, [r7, #24]
      temp |= ((GPIO_Init->Mode & GPIO_MODE) << (position * 2U));
 8002c74:	683b      	ldr	r3, [r7, #0]
 8002c76:	685b      	ldr	r3, [r3, #4]
 8002c78:	f003 0203 	and.w	r2, r3, #3
 8002c7c:	69fb      	ldr	r3, [r7, #28]
 8002c7e:	005b      	lsls	r3, r3, #1
 8002c80:	fa02 f303 	lsl.w	r3, r2, r3
 8002c84:	69ba      	ldr	r2, [r7, #24]
 8002c86:	4313      	orrs	r3, r2
 8002c88:	61bb      	str	r3, [r7, #24]
      GPIOx->MODER = temp;
 8002c8a:	687b      	ldr	r3, [r7, #4]
 8002c8c:	69ba      	ldr	r2, [r7, #24]
 8002c8e:	601a      	str	r2, [r3, #0]

      /*--------------------- EXTI Mode Configuration ------------------------*/
      /* Configure the External Interrupt or event for the current IO */
      if((GPIO_Init->Mode & EXTI_MODE) == EXTI_MODE)
 8002c90:	683b      	ldr	r3, [r7, #0]
 8002c92:	685b      	ldr	r3, [r3, #4]
 8002c94:	f003 5380 	and.w	r3, r3, #268435456	; 0x10000000
 8002c98:	2b00      	cmp	r3, #0
 8002c9a:	f000 80ae 	beq.w	8002dfa <HAL_GPIO_Init+0x2e2>
      {
        /* Enable SYSCFG Clock */
        __HAL_RCC_SYSCFG_CLK_ENABLE();
 8002c9e:	2300      	movs	r3, #0
 8002ca0:	60fb      	str	r3, [r7, #12]
 8002ca2:	4b5c      	ldr	r3, [pc, #368]	; (8002e14 <HAL_GPIO_Init+0x2fc>)
 8002ca4:	6c5b      	ldr	r3, [r3, #68]	; 0x44
 8002ca6:	4a5b      	ldr	r2, [pc, #364]	; (8002e14 <HAL_GPIO_Init+0x2fc>)
 8002ca8:	f443 4380 	orr.w	r3, r3, #16384	; 0x4000
 8002cac:	6453      	str	r3, [r2, #68]	; 0x44
 8002cae:	4b59      	ldr	r3, [pc, #356]	; (8002e14 <HAL_GPIO_Init+0x2fc>)
 8002cb0:	6c5b      	ldr	r3, [r3, #68]	; 0x44
 8002cb2:	f403 4380 	and.w	r3, r3, #16384	; 0x4000
 8002cb6:	60fb      	str	r3, [r7, #12]
 8002cb8:	68fb      	ldr	r3, [r7, #12]

        temp = SYSCFG->EXTICR[position >> 2U];
 8002cba:	4a57      	ldr	r2, [pc, #348]	; (8002e18 <HAL_GPIO_Init+0x300>)
 8002cbc:	69fb      	ldr	r3, [r7, #28]
 8002cbe:	089b      	lsrs	r3, r3, #2
 8002cc0:	3302      	adds	r3, #2
 8002cc2:	f852 3023 	ldr.w	r3, [r2, r3, lsl #2]
 8002cc6:	61bb      	str	r3, [r7, #24]
        temp &= ~(0x0FU << (4U * (position & 0x03U)));
 8002cc8:	69fb      	ldr	r3, [r7, #28]
 8002cca:	f003 0303 	and.w	r3, r3, #3
 8002cce:	009b      	lsls	r3, r3, #2
 8002cd0:	220f      	movs	r2, #15
 8002cd2:	fa02 f303 	lsl.w	r3, r2, r3
 8002cd6:	43db      	mvns	r3, r3
 8002cd8:	69ba      	ldr	r2, [r7, #24]
 8002cda:	4013      	ands	r3, r2
 8002cdc:	61bb      	str	r3, [r7, #24]
        temp |= ((uint32_t)(GPIO_GET_INDEX(GPIOx)) << (4U * (position & 0x03U)));
 8002cde:	687b      	ldr	r3, [r7, #4]
 8002ce0:	4a4e      	ldr	r2, [pc, #312]	; (8002e1c <HAL_GPIO_Init+0x304>)
 8002ce2:	4293      	cmp	r3, r2
 8002ce4:	d025      	beq.n	8002d32 <HAL_GPIO_Init+0x21a>
 8002ce6:	687b      	ldr	r3, [r7, #4]
 8002ce8:	4a4d      	ldr	r2, [pc, #308]	; (8002e20 <HAL_GPIO_Init+0x308>)
 8002cea:	4293      	cmp	r3, r2
 8002cec:	d01f      	beq.n	8002d2e <HAL_GPIO_Init+0x216>
 8002cee:	687b      	ldr	r3, [r7, #4]
 8002cf0:	4a4c      	ldr	r2, [pc, #304]	; (8002e24 <HAL_GPIO_Init+0x30c>)
 8002cf2:	4293      	cmp	r3, r2
 8002cf4:	d019      	beq.n	8002d2a <HAL_GPIO_Init+0x212>
 8002cf6:	687b      	ldr	r3, [r7, #4]
 8002cf8:	4a4b      	ldr	r2, [pc, #300]	; (8002e28 <HAL_GPIO_Init+0x310>)
 8002cfa:	4293      	cmp	r3, r2
 8002cfc:	d013      	beq.n	8002d26 <HAL_GPIO_Init+0x20e>
 8002cfe:	687b      	ldr	r3, [r7, #4]
 8002d00:	4a4a      	ldr	r2, [pc, #296]	; (8002e2c <HAL_GPIO_Init+0x314>)
 8002d02:	4293      	cmp	r3, r2
 8002d04:	d00d      	beq.n	8002d22 <HAL_GPIO_Init+0x20a>
 8002d06:	687b      	ldr	r3, [r7, #4]
 8002d08:	4a49      	ldr	r2, [pc, #292]	; (8002e30 <HAL_GPIO_Init+0x318>)
 8002d0a:	4293      	cmp	r3, r2
 8002d0c:	d007      	beq.n	8002d1e <HAL_GPIO_Init+0x206>
 8002d0e:	687b      	ldr	r3, [r7, #4]
 8002d10:	4a48      	ldr	r2, [pc, #288]	; (8002e34 <HAL_GPIO_Init+0x31c>)
 8002d12:	4293      	cmp	r3, r2
 8002d14:	d101      	bne.n	8002d1a <HAL_GPIO_Init+0x202>
 8002d16:	2306      	movs	r3, #6
 8002d18:	e00c      	b.n	8002d34 <HAL_GPIO_Init+0x21c>
 8002d1a:	2307      	movs	r3, #7
 8002d1c:	e00a      	b.n	8002d34 <HAL_GPIO_Init+0x21c>
 8002d1e:	2305      	movs	r3, #5
 8002d20:	e008      	b.n	8002d34 <HAL_GPIO_Init+0x21c>
 8002d22:	2304      	movs	r3, #4
 8002d24:	e006      	b.n	8002d34 <HAL_GPIO_Init+0x21c>
 8002d26:	2303      	movs	r3, #3
 8002d28:	e004      	b.n	8002d34 <HAL_GPIO_Init+0x21c>
 8002d2a:	2302      	movs	r3, #2
 8002d2c:	e002      	b.n	8002d34 <HAL_GPIO_Init+0x21c>
 8002d2e:	2301      	movs	r3, #1
 8002d30:	e000      	b.n	8002d34 <HAL_GPIO_Init+0x21c>
 8002d32:	2300      	movs	r3, #0
 8002d34:	69fa      	ldr	r2, [r7, #28]
 8002d36:	f002 0203 	and.w	r2, r2, #3
 8002d3a:	0092      	lsls	r2, r2, #2
 8002d3c:	4093      	lsls	r3, r2
 8002d3e:	69ba      	ldr	r2, [r7, #24]
 8002d40:	4313      	orrs	r3, r2
 8002d42:	61bb      	str	r3, [r7, #24]
        SYSCFG->EXTICR[position >> 2U] = temp;
 8002d44:	4934      	ldr	r1, [pc, #208]	; (8002e18 <HAL_GPIO_Init+0x300>)
 8002d46:	69fb      	ldr	r3, [r7, #28]
 8002d48:	089b      	lsrs	r3, r3, #2
 8002d4a:	3302      	adds	r3, #2
 8002d4c:	69ba      	ldr	r2, [r7, #24]
 8002d4e:	f841 2023 	str.w	r2, [r1, r3, lsl #2]

        /* Clear EXTI line configuration */
        temp = EXTI->IMR;
 8002d52:	4b39      	ldr	r3, [pc, #228]	; (8002e38 <HAL_GPIO_Init+0x320>)
 8002d54:	681b      	ldr	r3, [r3, #0]
 8002d56:	61bb      	str	r3, [r7, #24]
        temp &= ~((uint32_t)iocurrent);
 8002d58:	693b      	ldr	r3, [r7, #16]
 8002d5a:	43db      	mvns	r3, r3
 8002d5c:	69ba      	ldr	r2, [r7, #24]
 8002d5e:	4013      	ands	r3, r2
 8002d60:	61bb      	str	r3, [r7, #24]
        if((GPIO_Init->Mode & GPIO_MODE_IT) == GPIO_MODE_IT)
 8002d62:	683b      	ldr	r3, [r7, #0]
 8002d64:	685b      	ldr	r3, [r3, #4]
 8002d66:	f403 3380 	and.w	r3, r3, #65536	; 0x10000
 8002d6a:	2b00      	cmp	r3, #0
 8002d6c:	d003      	beq.n	8002d76 <HAL_GPIO_Init+0x25e>
        {
          temp |= iocurrent;
 8002d6e:	69ba      	ldr	r2, [r7, #24]
 8002d70:	693b      	ldr	r3, [r7, #16]
 8002d72:	4313      	orrs	r3, r2
 8002d74:	61bb      	str	r3, [r7, #24]
        }
        EXTI->IMR = temp;
 8002d76:	4a30      	ldr	r2, [pc, #192]	; (8002e38 <HAL_GPIO_Init+0x320>)
 8002d78:	69bb      	ldr	r3, [r7, #24]
 8002d7a:	6013      	str	r3, [r2, #0]

        temp = EXTI->EMR;
 8002d7c:	4b2e      	ldr	r3, [pc, #184]	; (8002e38 <HAL_GPIO_Init+0x320>)
 8002d7e:	685b      	ldr	r3, [r3, #4]
 8002d80:	61bb      	str	r3, [r7, #24]
        temp &= ~((uint32_t)iocurrent);
 8002d82:	693b      	ldr	r3, [r7, #16]
 8002d84:	43db      	mvns	r3, r3
 8002d86:	69ba      	ldr	r2, [r7, #24]
 8002d88:	4013      	ands	r3, r2
 8002d8a:	61bb      	str	r3, [r7, #24]
        if((GPIO_Init->Mode & GPIO_MODE_EVT) == GPIO_MODE_EVT)
 8002d8c:	683b      	ldr	r3, [r7, #0]
 8002d8e:	685b      	ldr	r3, [r3, #4]
 8002d90:	f403 3300 	and.w	r3, r3, #131072	; 0x20000
 8002d94:	2b00      	cmp	r3, #0
 8002d96:	d003      	beq.n	8002da0 <HAL_GPIO_Init+0x288>
        {
          temp |= iocurrent;
 8002d98:	69ba      	ldr	r2, [r7, #24]
 8002d9a:	693b      	ldr	r3, [r7, #16]
 8002d9c:	4313      	orrs	r3, r2
 8002d9e:	61bb      	str	r3, [r7, #24]
        }
        EXTI->EMR = temp;
 8002da0:	4a25      	ldr	r2, [pc, #148]	; (8002e38 <HAL_GPIO_Init+0x320>)
 8002da2:	69bb      	ldr	r3, [r7, #24]
 8002da4:	6053      	str	r3, [r2, #4]

        /* Clear Rising Falling edge configuration */
        temp = EXTI->RTSR;
 8002da6:	4b24      	ldr	r3, [pc, #144]	; (8002e38 <HAL_GPIO_Init+0x320>)
 8002da8:	689b      	ldr	r3, [r3, #8]
 8002daa:	61bb      	str	r3, [r7, #24]
        temp &= ~((uint32_t)iocurrent);
 8002dac:	693b      	ldr	r3, [r7, #16]
 8002dae:	43db      	mvns	r3, r3
 8002db0:	69ba      	ldr	r2, [r7, #24]
 8002db2:	4013      	ands	r3, r2
 8002db4:	61bb      	str	r3, [r7, #24]
        if((GPIO_Init->Mode & RISING_EDGE) == RISING_EDGE)
 8002db6:	683b      	ldr	r3, [r7, #0]
 8002db8:	685b      	ldr	r3, [r3, #4]
 8002dba:	f403 1380 	and.w	r3, r3, #1048576	; 0x100000
 8002dbe:	2b00      	cmp	r3, #0
 8002dc0:	d003      	beq.n	8002dca <HAL_GPIO_Init+0x2b2>
        {
          temp |= iocurrent;
 8002dc2:	69ba      	ldr	r2, [r7, #24]
 8002dc4:	693b      	ldr	r3, [r7, #16]
 8002dc6:	4313      	orrs	r3, r2
 8002dc8:	61bb      	str	r3, [r7, #24]
        }
        EXTI->RTSR = temp;
 8002dca:	4a1b      	ldr	r2, [pc, #108]	; (8002e38 <HAL_GPIO_Init+0x320>)
 8002dcc:	69bb      	ldr	r3, [r7, #24]
 8002dce:	6093      	str	r3, [r2, #8]

        temp = EXTI->FTSR;
 8002dd0:	4b19      	ldr	r3, [pc, #100]	; (8002e38 <HAL_GPIO_Init+0x320>)
 8002dd2:	68db      	ldr	r3, [r3, #12]
 8002dd4:	61bb      	str	r3, [r7, #24]
        temp &= ~((uint32_t)iocurrent);
 8002dd6:	693b      	ldr	r3, [r7, #16]
 8002dd8:	43db      	mvns	r3, r3
 8002dda:	69ba      	ldr	r2, [r7, #24]
 8002ddc:	4013      	ands	r3, r2
 8002dde:	61bb      	str	r3, [r7, #24]
        if((GPIO_Init->Mode & FALLING_EDGE) == FALLING_EDGE)
 8002de0:	683b      	ldr	r3, [r7, #0]
 8002de2:	685b      	ldr	r3, [r3, #4]
 8002de4:	f403 1300 	and.w	r3, r3, #2097152	; 0x200000
 8002de8:	2b00      	cmp	r3, #0
 8002dea:	d003      	beq.n	8002df4 <HAL_GPIO_Init+0x2dc>
        {
          temp |= iocurrent;
 8002dec:	69ba      	ldr	r2, [r7, #24]
 8002dee:	693b      	ldr	r3, [r7, #16]
 8002df0:	4313      	orrs	r3, r2
 8002df2:	61bb      	str	r3, [r7, #24]
        }
        EXTI->FTSR = temp;
 8002df4:	4a10      	ldr	r2, [pc, #64]	; (8002e38 <HAL_GPIO_Init+0x320>)
 8002df6:	69bb      	ldr	r3, [r7, #24]
 8002df8:	60d3      	str	r3, [r2, #12]
  for(position = 0U; position < GPIO_NUMBER; position++)
 8002dfa:	69fb      	ldr	r3, [r7, #28]
 8002dfc:	3301      	adds	r3, #1
 8002dfe:	61fb      	str	r3, [r7, #28]
 8002e00:	69fb      	ldr	r3, [r7, #28]
 8002e02:	2b0f      	cmp	r3, #15
 8002e04:	f67f ae96 	bls.w	8002b34 <HAL_GPIO_Init+0x1c>
      }
    }
  }
}
 8002e08:	bf00      	nop
 8002e0a:	3724      	adds	r7, #36	; 0x24
 8002e0c:	46bd      	mov	sp, r7
 8002e0e:	f85d 7b04 	ldr.w	r7, [sp], #4
 8002e12:	4770      	bx	lr
 8002e14:	40023800 	.word	0x40023800
 8002e18:	40013800 	.word	0x40013800
 8002e1c:	40020000 	.word	0x40020000
 8002e20:	40020400 	.word	0x40020400
 8002e24:	40020800 	.word	0x40020800
 8002e28:	40020c00 	.word	0x40020c00
 8002e2c:	40021000 	.word	0x40021000
 8002e30:	40021400 	.word	0x40021400
 8002e34:	40021800 	.word	0x40021800
 8002e38:	40013c00 	.word	0x40013c00

08002e3c <HAL_GPIO_WritePin>:
  *            @arg GPIO_PIN_RESET: to clear the port pin
  *            @arg GPIO_PIN_SET: to set the port pin
  * @retval None
  */
void HAL_GPIO_WritePin(GPIO_TypeDef* GPIOx, uint16_t GPIO_Pin, GPIO_PinState PinState)
{
 8002e3c:	b480      	push	{r7}
 8002e3e:	b083      	sub	sp, #12
 8002e40:	af00      	add	r7, sp, #0
 8002e42:	6078      	str	r0, [r7, #4]
 8002e44:	460b      	mov	r3, r1
 8002e46:	807b      	strh	r3, [r7, #2]
 8002e48:	4613      	mov	r3, r2
 8002e4a:	707b      	strb	r3, [r7, #1]
  /* Check the parameters */
  assert_param(IS_GPIO_PIN(GPIO_Pin));
  assert_param(IS_GPIO_PIN_ACTION(PinState));

  if(PinState != GPIO_PIN_RESET)
 8002e4c:	787b      	ldrb	r3, [r7, #1]
 8002e4e:	2b00      	cmp	r3, #0
 8002e50:	d003      	beq.n	8002e5a <HAL_GPIO_WritePin+0x1e>
  {
    GPIOx->BSRR = GPIO_Pin;
 8002e52:	887a      	ldrh	r2, [r7, #2]
 8002e54:	687b      	ldr	r3, [r7, #4]
 8002e56:	619a      	str	r2, [r3, #24]
  }
  else
  {
    GPIOx->BSRR = (uint32_t)GPIO_Pin << 16U;
  }
}
 8002e58:	e003      	b.n	8002e62 <HAL_GPIO_WritePin+0x26>
    GPIOx->BSRR = (uint32_t)GPIO_Pin << 16U;
 8002e5a:	887b      	ldrh	r3, [r7, #2]
 8002e5c:	041a      	lsls	r2, r3, #16
 8002e5e:	687b      	ldr	r3, [r7, #4]
 8002e60:	619a      	str	r2, [r3, #24]
}
 8002e62:	bf00      	nop
 8002e64:	370c      	adds	r7, #12
 8002e66:	46bd      	mov	sp, r7
 8002e68:	f85d 7b04 	ldr.w	r7, [sp], #4
 8002e6c:	4770      	bx	lr

08002e6e <HAL_GPIO_TogglePin>:
  *                      x can be (A..I) to select the GPIO peripheral for STM32F40XX and STM32F427X devices.
  * @param  GPIO_Pin Specifies the pins to be toggled.
  * @retval None
  */
void HAL_GPIO_TogglePin(GPIO_TypeDef* GPIOx, uint16_t GPIO_Pin)
{
 8002e6e:	b480      	push	{r7}
 8002e70:	b083      	sub	sp, #12
 8002e72:	af00      	add	r7, sp, #0
 8002e74:	6078      	str	r0, [r7, #4]
 8002e76:	460b      	mov	r3, r1
 8002e78:	807b      	strh	r3, [r7, #2]
  /* Check the parameters */
  assert_param(IS_GPIO_PIN(GPIO_Pin));

  if ((GPIOx->ODR & GPIO_Pin) == GPIO_Pin)
 8002e7a:	687b      	ldr	r3, [r7, #4]
 8002e7c:	695a      	ldr	r2, [r3, #20]
 8002e7e:	887b      	ldrh	r3, [r7, #2]
 8002e80:	401a      	ands	r2, r3
 8002e82:	887b      	ldrh	r3, [r7, #2]
 8002e84:	429a      	cmp	r2, r3
 8002e86:	d104      	bne.n	8002e92 <HAL_GPIO_TogglePin+0x24>
  {
    GPIOx->BSRR = (uint32_t)GPIO_Pin << GPIO_NUMBER;
 8002e88:	887b      	ldrh	r3, [r7, #2]
 8002e8a:	041a      	lsls	r2, r3, #16
 8002e8c:	687b      	ldr	r3, [r7, #4]
 8002e8e:	619a      	str	r2, [r3, #24]
  }
  else
  {
    GPIOx->BSRR = GPIO_Pin;
  }
}
 8002e90:	e002      	b.n	8002e98 <HAL_GPIO_TogglePin+0x2a>
    GPIOx->BSRR = GPIO_Pin;
 8002e92:	887a      	ldrh	r2, [r7, #2]
 8002e94:	687b      	ldr	r3, [r7, #4]
 8002e96:	619a      	str	r2, [r3, #24]
}
 8002e98:	bf00      	nop
 8002e9a:	370c      	adds	r7, #12
 8002e9c:	46bd      	mov	sp, r7
 8002e9e:	f85d 7b04 	ldr.w	r7, [sp], #4
 8002ea2:	4770      	bx	lr

08002ea4 <HAL_PWREx_EnableOverDrive>:
  *         During the Over-drive switch activation, no peripheral clocks should be enabled.   
  *         The peripheral clocks must be enabled once the Over-drive mode is activated.   
  * @retval HAL status
  */
HAL_StatusTypeDef HAL_PWREx_EnableOverDrive(void)
{
 8002ea4:	b580      	push	{r7, lr}
 8002ea6:	b082      	sub	sp, #8
 8002ea8:	af00      	add	r7, sp, #0
  uint32_t tickstart = 0U;
 8002eaa:	2300      	movs	r3, #0
 8002eac:	607b      	str	r3, [r7, #4]

  __HAL_RCC_PWR_CLK_ENABLE();
 8002eae:	2300      	movs	r3, #0
 8002eb0:	603b      	str	r3, [r7, #0]
 8002eb2:	4b20      	ldr	r3, [pc, #128]	; (8002f34 <HAL_PWREx_EnableOverDrive+0x90>)
 8002eb4:	6c1b      	ldr	r3, [r3, #64]	; 0x40
 8002eb6:	4a1f      	ldr	r2, [pc, #124]	; (8002f34 <HAL_PWREx_EnableOverDrive+0x90>)
 8002eb8:	f043 5380 	orr.w	r3, r3, #268435456	; 0x10000000
 8002ebc:	6413      	str	r3, [r2, #64]	; 0x40
 8002ebe:	4b1d      	ldr	r3, [pc, #116]	; (8002f34 <HAL_PWREx_EnableOverDrive+0x90>)
 8002ec0:	6c1b      	ldr	r3, [r3, #64]	; 0x40
 8002ec2:	f003 5380 	and.w	r3, r3, #268435456	; 0x10000000
 8002ec6:	603b      	str	r3, [r7, #0]
 8002ec8:	683b      	ldr	r3, [r7, #0]
  
  /* Enable the Over-drive to extend the clock frequency to 180 Mhz */
  __HAL_PWR_OVERDRIVE_ENABLE();
 8002eca:	4b1b      	ldr	r3, [pc, #108]	; (8002f38 <HAL_PWREx_EnableOverDrive+0x94>)
 8002ecc:	2201      	movs	r2, #1
 8002ece:	601a      	str	r2, [r3, #0]

  /* Get tick */
  tickstart = HAL_GetTick();
 8002ed0:	f7fe fd7a 	bl	80019c8 <HAL_GetTick>
 8002ed4:	6078      	str	r0, [r7, #4]

  while(!__HAL_PWR_GET_FLAG(PWR_FLAG_ODRDY))
 8002ed6:	e009      	b.n	8002eec <HAL_PWREx_EnableOverDrive+0x48>
  {
    if((HAL_GetTick() - tickstart) > PWR_OVERDRIVE_TIMEOUT_VALUE)
 8002ed8:	f7fe fd76 	bl	80019c8 <HAL_GetTick>
 8002edc:	4602      	mov	r2, r0
 8002ede:	687b      	ldr	r3, [r7, #4]
 8002ee0:	1ad3      	subs	r3, r2, r3
 8002ee2:	f5b3 7f7a 	cmp.w	r3, #1000	; 0x3e8
 8002ee6:	d901      	bls.n	8002eec <HAL_PWREx_EnableOverDrive+0x48>
    {
      return HAL_TIMEOUT;
 8002ee8:	2303      	movs	r3, #3
 8002eea:	e01f      	b.n	8002f2c <HAL_PWREx_EnableOverDrive+0x88>
  while(!__HAL_PWR_GET_FLAG(PWR_FLAG_ODRDY))
 8002eec:	4b13      	ldr	r3, [pc, #76]	; (8002f3c <HAL_PWREx_EnableOverDrive+0x98>)
 8002eee:	685b      	ldr	r3, [r3, #4]
 8002ef0:	f403 3380 	and.w	r3, r3, #65536	; 0x10000
 8002ef4:	f5b3 3f80 	cmp.w	r3, #65536	; 0x10000
 8002ef8:	d1ee      	bne.n	8002ed8 <HAL_PWREx_EnableOverDrive+0x34>
    }
  }
  
  /* Enable the Over-drive switch */
  __HAL_PWR_OVERDRIVESWITCHING_ENABLE();
 8002efa:	4b11      	ldr	r3, [pc, #68]	; (8002f40 <HAL_PWREx_EnableOverDrive+0x9c>)
 8002efc:	2201      	movs	r2, #1
 8002efe:	601a      	str	r2, [r3, #0]

  /* Get tick */
  tickstart = HAL_GetTick();
 8002f00:	f7fe fd62 	bl	80019c8 <HAL_GetTick>
 8002f04:	6078      	str	r0, [r7, #4]

  while(!__HAL_PWR_GET_FLAG(PWR_FLAG_ODSWRDY))
 8002f06:	e009      	b.n	8002f1c <HAL_PWREx_EnableOverDrive+0x78>
  {
    if((HAL_GetTick() - tickstart ) > PWR_OVERDRIVE_TIMEOUT_VALUE)
 8002f08:	f7fe fd5e 	bl	80019c8 <HAL_GetTick>
 8002f0c:	4602      	mov	r2, r0
 8002f0e:	687b      	ldr	r3, [r7, #4]
 8002f10:	1ad3      	subs	r3, r2, r3
 8002f12:	f5b3 7f7a 	cmp.w	r3, #1000	; 0x3e8
 8002f16:	d901      	bls.n	8002f1c <HAL_PWREx_EnableOverDrive+0x78>
    {
      return HAL_TIMEOUT;
 8002f18:	2303      	movs	r3, #3
 8002f1a:	e007      	b.n	8002f2c <HAL_PWREx_EnableOverDrive+0x88>
  while(!__HAL_PWR_GET_FLAG(PWR_FLAG_ODSWRDY))
 8002f1c:	4b07      	ldr	r3, [pc, #28]	; (8002f3c <HAL_PWREx_EnableOverDrive+0x98>)
 8002f1e:	685b      	ldr	r3, [r3, #4]
 8002f20:	f403 3300 	and.w	r3, r3, #131072	; 0x20000
 8002f24:	f5b3 3f00 	cmp.w	r3, #131072	; 0x20000
 8002f28:	d1ee      	bne.n	8002f08 <HAL_PWREx_EnableOverDrive+0x64>
    }
  } 
  return HAL_OK;
 8002f2a:	2300      	movs	r3, #0
}
 8002f2c:	4618      	mov	r0, r3
 8002f2e:	3708      	adds	r7, #8
 8002f30:	46bd      	mov	sp, r7
 8002f32:	bd80      	pop	{r7, pc}
 8002f34:	40023800 	.word	0x40023800
 8002f38:	420e0040 	.word	0x420e0040
 8002f3c:	40007000 	.word	0x40007000
 8002f40:	420e0044 	.word	0x420e0044

08002f44 <HAL_RCC_ClockConfig>:
  *         HPRE[3:0] bits to ensure that HCLK not exceed the maximum allowed frequency
  *         (for more details refer to section above "Initialization/de-initialization functions")
  * @retval None
  */
HAL_StatusTypeDef HAL_RCC_ClockConfig(RCC_ClkInitTypeDef  *RCC_ClkInitStruct, uint32_t FLatency)
{
 8002f44:	b580      	push	{r7, lr}
 8002f46:	b084      	sub	sp, #16
 8002f48:	af00      	add	r7, sp, #0
 8002f4a:	6078      	str	r0, [r7, #4]
 8002f4c:	6039      	str	r1, [r7, #0]
  uint32_t tickstart;

  /* Check Null pointer */
  if(RCC_ClkInitStruct == NULL)
 8002f4e:	687b      	ldr	r3, [r7, #4]
 8002f50:	2b00      	cmp	r3, #0
 8002f52:	d101      	bne.n	8002f58 <HAL_RCC_ClockConfig+0x14>
  {
    return HAL_ERROR;
 8002f54:	2301      	movs	r3, #1
 8002f56:	e0cc      	b.n	80030f2 <HAL_RCC_ClockConfig+0x1ae>
  /* To correctly read data from FLASH memory, the number of wait states (LATENCY)
    must be correctly programmed according to the frequency of the CPU clock
    (HCLK) and the supply voltage of the device. */

  /* Increasing the number of wait states because of higher CPU frequency */
  if(FLatency > __HAL_FLASH_GET_LATENCY())
 8002f58:	4b68      	ldr	r3, [pc, #416]	; (80030fc <HAL_RCC_ClockConfig+0x1b8>)
 8002f5a:	681b      	ldr	r3, [r3, #0]
 8002f5c:	f003 030f 	and.w	r3, r3, #15
 8002f60:	683a      	ldr	r2, [r7, #0]
 8002f62:	429a      	cmp	r2, r3
 8002f64:	d90c      	bls.n	8002f80 <HAL_RCC_ClockConfig+0x3c>
  {
    /* Program the new number of wait states to the LATENCY bits in the FLASH_ACR register */
    __HAL_FLASH_SET_LATENCY(FLatency);
 8002f66:	4b65      	ldr	r3, [pc, #404]	; (80030fc <HAL_RCC_ClockConfig+0x1b8>)
 8002f68:	683a      	ldr	r2, [r7, #0]
 8002f6a:	b2d2      	uxtb	r2, r2
 8002f6c:	701a      	strb	r2, [r3, #0]

    /* Check that the new number of wait states is taken into account to access the Flash
    memory by reading the FLASH_ACR register */
    if(__HAL_FLASH_GET_LATENCY() != FLatency)
 8002f6e:	4b63      	ldr	r3, [pc, #396]	; (80030fc <HAL_RCC_ClockConfig+0x1b8>)
 8002f70:	681b      	ldr	r3, [r3, #0]
 8002f72:	f003 030f 	and.w	r3, r3, #15
 8002f76:	683a      	ldr	r2, [r7, #0]
 8002f78:	429a      	cmp	r2, r3
 8002f7a:	d001      	beq.n	8002f80 <HAL_RCC_ClockConfig+0x3c>
    {
      return HAL_ERROR;
 8002f7c:	2301      	movs	r3, #1
 8002f7e:	e0b8      	b.n	80030f2 <HAL_RCC_ClockConfig+0x1ae>
    }
  }

  /*-------------------------- HCLK Configuration --------------------------*/
  if(((RCC_ClkInitStruct->ClockType) & RCC_CLOCKTYPE_HCLK) == RCC_CLOCKTYPE_HCLK)
 8002f80:	687b      	ldr	r3, [r7, #4]
 8002f82:	681b      	ldr	r3, [r3, #0]
 8002f84:	f003 0302 	and.w	r3, r3, #2
 8002f88:	2b00      	cmp	r3, #0
 8002f8a:	d020      	beq.n	8002fce <HAL_RCC_ClockConfig+0x8a>
  {
    /* Set the highest APBx dividers in order to ensure that we do not go through
       a non-spec phase whatever we decrease or increase HCLK. */
    if(((RCC_ClkInitStruct->ClockType) & RCC_CLOCKTYPE_PCLK1) == RCC_CLOCKTYPE_PCLK1)
 8002f8c:	687b      	ldr	r3, [r7, #4]
 8002f8e:	681b      	ldr	r3, [r3, #0]
 8002f90:	f003 0304 	and.w	r3, r3, #4
 8002f94:	2b00      	cmp	r3, #0
 8002f96:	d005      	beq.n	8002fa4 <HAL_RCC_ClockConfig+0x60>
    {
      MODIFY_REG(RCC->CFGR, RCC_CFGR_PPRE1, RCC_HCLK_DIV16);
 8002f98:	4b59      	ldr	r3, [pc, #356]	; (8003100 <HAL_RCC_ClockConfig+0x1bc>)
 8002f9a:	689b      	ldr	r3, [r3, #8]
 8002f9c:	4a58      	ldr	r2, [pc, #352]	; (8003100 <HAL_RCC_ClockConfig+0x1bc>)
 8002f9e:	f443 53e0 	orr.w	r3, r3, #7168	; 0x1c00
 8002fa2:	6093      	str	r3, [r2, #8]
    }

    if(((RCC_ClkInitStruct->ClockType) & RCC_CLOCKTYPE_PCLK2) == RCC_CLOCKTYPE_PCLK2)
 8002fa4:	687b      	ldr	r3, [r7, #4]
 8002fa6:	681b      	ldr	r3, [r3, #0]
 8002fa8:	f003 0308 	and.w	r3, r3, #8
 8002fac:	2b00      	cmp	r3, #0
 8002fae:	d005      	beq.n	8002fbc <HAL_RCC_ClockConfig+0x78>
    {
      MODIFY_REG(RCC->CFGR, RCC_CFGR_PPRE2, (RCC_HCLK_DIV16 << 3));
 8002fb0:	4b53      	ldr	r3, [pc, #332]	; (8003100 <HAL_RCC_ClockConfig+0x1bc>)
 8002fb2:	689b      	ldr	r3, [r3, #8]
 8002fb4:	4a52      	ldr	r2, [pc, #328]	; (8003100 <HAL_RCC_ClockConfig+0x1bc>)
 8002fb6:	f443 4360 	orr.w	r3, r3, #57344	; 0xe000
 8002fba:	6093      	str	r3, [r2, #8]
    }

    assert_param(IS_RCC_HCLK(RCC_ClkInitStruct->AHBCLKDivider));
    MODIFY_REG(RCC->CFGR, RCC_CFGR_HPRE, RCC_ClkInitStruct->AHBCLKDivider);
 8002fbc:	4b50      	ldr	r3, [pc, #320]	; (8003100 <HAL_RCC_ClockConfig+0x1bc>)
 8002fbe:	689b      	ldr	r3, [r3, #8]
 8002fc0:	f023 02f0 	bic.w	r2, r3, #240	; 0xf0
 8002fc4:	687b      	ldr	r3, [r7, #4]
 8002fc6:	689b      	ldr	r3, [r3, #8]
 8002fc8:	494d      	ldr	r1, [pc, #308]	; (8003100 <HAL_RCC_ClockConfig+0x1bc>)
 8002fca:	4313      	orrs	r3, r2
 8002fcc:	608b      	str	r3, [r1, #8]
  }

  /*------------------------- SYSCLK Configuration ---------------------------*/
  if(((RCC_ClkInitStruct->ClockType) & RCC_CLOCKTYPE_SYSCLK) == RCC_CLOCKTYPE_SYSCLK)
 8002fce:	687b      	ldr	r3, [r7, #4]
 8002fd0:	681b      	ldr	r3, [r3, #0]
 8002fd2:	f003 0301 	and.w	r3, r3, #1
 8002fd6:	2b00      	cmp	r3, #0
 8002fd8:	d044      	beq.n	8003064 <HAL_RCC_ClockConfig+0x120>
  {
    assert_param(IS_RCC_SYSCLKSOURCE(RCC_ClkInitStruct->SYSCLKSource));

    /* HSE is selected as System Clock Source */
    if(RCC_ClkInitStruct->SYSCLKSource == RCC_SYSCLKSOURCE_HSE)
 8002fda:	687b      	ldr	r3, [r7, #4]
 8002fdc:	685b      	ldr	r3, [r3, #4]
 8002fde:	2b01      	cmp	r3, #1
 8002fe0:	d107      	bne.n	8002ff2 <HAL_RCC_ClockConfig+0xae>
    {
      /* Check the HSE ready flag */
      if(__HAL_RCC_GET_FLAG(RCC_FLAG_HSERDY) == RESET)
 8002fe2:	4b47      	ldr	r3, [pc, #284]	; (8003100 <HAL_RCC_ClockConfig+0x1bc>)
 8002fe4:	681b      	ldr	r3, [r3, #0]
 8002fe6:	f403 3300 	and.w	r3, r3, #131072	; 0x20000
 8002fea:	2b00      	cmp	r3, #0
 8002fec:	d119      	bne.n	8003022 <HAL_RCC_ClockConfig+0xde>
      {
        return HAL_ERROR;
 8002fee:	2301      	movs	r3, #1
 8002ff0:	e07f      	b.n	80030f2 <HAL_RCC_ClockConfig+0x1ae>
      }
    }
    /* PLL is selected as System Clock Source */
    else if((RCC_ClkInitStruct->SYSCLKSource == RCC_SYSCLKSOURCE_PLLCLK)   ||
 8002ff2:	687b      	ldr	r3, [r7, #4]
 8002ff4:	685b      	ldr	r3, [r3, #4]
 8002ff6:	2b02      	cmp	r3, #2
 8002ff8:	d003      	beq.n	8003002 <HAL_RCC_ClockConfig+0xbe>
            (RCC_ClkInitStruct->SYSCLKSource == RCC_SYSCLKSOURCE_PLLRCLK))
 8002ffa:	687b      	ldr	r3, [r7, #4]
 8002ffc:	685b      	ldr	r3, [r3, #4]
    else if((RCC_ClkInitStruct->SYSCLKSource == RCC_SYSCLKSOURCE_PLLCLK)   ||
 8002ffe:	2b03      	cmp	r3, #3
 8003000:	d107      	bne.n	8003012 <HAL_RCC_ClockConfig+0xce>
    {
      /* Check the PLL ready flag */
      if(__HAL_RCC_GET_FLAG(RCC_FLAG_PLLRDY) == RESET)
 8003002:	4b3f      	ldr	r3, [pc, #252]	; (8003100 <HAL_RCC_ClockConfig+0x1bc>)
 8003004:	681b      	ldr	r3, [r3, #0]
 8003006:	f003 7300 	and.w	r3, r3, #33554432	; 0x2000000
 800300a:	2b00      	cmp	r3, #0
 800300c:	d109      	bne.n	8003022 <HAL_RCC_ClockConfig+0xde>
      {
        return HAL_ERROR;
 800300e:	2301      	movs	r3, #1
 8003010:	e06f      	b.n	80030f2 <HAL_RCC_ClockConfig+0x1ae>
    }
    /* HSI is selected as System Clock Source */
    else
    {
      /* Check the HSI ready flag */
      if(__HAL_RCC_GET_FLAG(RCC_FLAG_HSIRDY) == RESET)
 8003012:	4b3b      	ldr	r3, [pc, #236]	; (8003100 <HAL_RCC_ClockConfig+0x1bc>)
 8003014:	681b      	ldr	r3, [r3, #0]
 8003016:	f003 0302 	and.w	r3, r3, #2
 800301a:	2b00      	cmp	r3, #0
 800301c:	d101      	bne.n	8003022 <HAL_RCC_ClockConfig+0xde>
      {
        return HAL_ERROR;
 800301e:	2301      	movs	r3, #1
 8003020:	e067      	b.n	80030f2 <HAL_RCC_ClockConfig+0x1ae>
      }
    }

    __HAL_RCC_SYSCLK_CONFIG(RCC_ClkInitStruct->SYSCLKSource);
 8003022:	4b37      	ldr	r3, [pc, #220]	; (8003100 <HAL_RCC_ClockConfig+0x1bc>)
 8003024:	689b      	ldr	r3, [r3, #8]
 8003026:	f023 0203 	bic.w	r2, r3, #3
 800302a:	687b      	ldr	r3, [r7, #4]
 800302c:	685b      	ldr	r3, [r3, #4]
 800302e:	4934      	ldr	r1, [pc, #208]	; (8003100 <HAL_RCC_ClockConfig+0x1bc>)
 8003030:	4313      	orrs	r3, r2
 8003032:	608b      	str	r3, [r1, #8]

    /* Get Start Tick */
    tickstart = HAL_GetTick();
 8003034:	f7fe fcc8 	bl	80019c8 <HAL_GetTick>
 8003038:	60f8      	str	r0, [r7, #12]

    while (__HAL_RCC_GET_SYSCLK_SOURCE() != (RCC_ClkInitStruct->SYSCLKSource << RCC_CFGR_SWS_Pos))
 800303a:	e00a      	b.n	8003052 <HAL_RCC_ClockConfig+0x10e>
    {
      if ((HAL_GetTick() - tickstart) > CLOCKSWITCH_TIMEOUT_VALUE)
 800303c:	f7fe fcc4 	bl	80019c8 <HAL_GetTick>
 8003040:	4602      	mov	r2, r0
 8003042:	68fb      	ldr	r3, [r7, #12]
 8003044:	1ad3      	subs	r3, r2, r3
 8003046:	f241 3288 	movw	r2, #5000	; 0x1388
 800304a:	4293      	cmp	r3, r2
 800304c:	d901      	bls.n	8003052 <HAL_RCC_ClockConfig+0x10e>
      {
        return HAL_TIMEOUT;
 800304e:	2303      	movs	r3, #3
 8003050:	e04f      	b.n	80030f2 <HAL_RCC_ClockConfig+0x1ae>
    while (__HAL_RCC_GET_SYSCLK_SOURCE() != (RCC_ClkInitStruct->SYSCLKSource << RCC_CFGR_SWS_Pos))
 8003052:	4b2b      	ldr	r3, [pc, #172]	; (8003100 <HAL_RCC_ClockConfig+0x1bc>)
 8003054:	689b      	ldr	r3, [r3, #8]
 8003056:	f003 020c 	and.w	r2, r3, #12
 800305a:	687b      	ldr	r3, [r7, #4]
 800305c:	685b      	ldr	r3, [r3, #4]
 800305e:	009b      	lsls	r3, r3, #2
 8003060:	429a      	cmp	r2, r3
 8003062:	d1eb      	bne.n	800303c <HAL_RCC_ClockConfig+0xf8>
      }
    }
  }

  /* Decreasing the number of wait states because of lower CPU frequency */
  if(FLatency < __HAL_FLASH_GET_LATENCY())
 8003064:	4b25      	ldr	r3, [pc, #148]	; (80030fc <HAL_RCC_ClockConfig+0x1b8>)
 8003066:	681b      	ldr	r3, [r3, #0]
 8003068:	f003 030f 	and.w	r3, r3, #15
 800306c:	683a      	ldr	r2, [r7, #0]
 800306e:	429a      	cmp	r2, r3
 8003070:	d20c      	bcs.n	800308c <HAL_RCC_ClockConfig+0x148>
  {
     /* Program the new number of wait states to the LATENCY bits in the FLASH_ACR register */
    __HAL_FLASH_SET_LATENCY(FLatency);
 8003072:	4b22      	ldr	r3, [pc, #136]	; (80030fc <HAL_RCC_ClockConfig+0x1b8>)
 8003074:	683a      	ldr	r2, [r7, #0]
 8003076:	b2d2      	uxtb	r2, r2
 8003078:	701a      	strb	r2, [r3, #0]

    /* Check that the new number of wait states is taken into account to access the Flash
    memory by reading the FLASH_ACR register */
    if(__HAL_FLASH_GET_LATENCY() != FLatency)
 800307a:	4b20      	ldr	r3, [pc, #128]	; (80030fc <HAL_RCC_ClockConfig+0x1b8>)
 800307c:	681b      	ldr	r3, [r3, #0]
 800307e:	f003 030f 	and.w	r3, r3, #15
 8003082:	683a      	ldr	r2, [r7, #0]
 8003084:	429a      	cmp	r2, r3
 8003086:	d001      	beq.n	800308c <HAL_RCC_ClockConfig+0x148>
    {
      return HAL_ERROR;
 8003088:	2301      	movs	r3, #1
 800308a:	e032      	b.n	80030f2 <HAL_RCC_ClockConfig+0x1ae>
    }
  }

  /*-------------------------- PCLK1 Configuration ---------------------------*/
  if(((RCC_ClkInitStruct->ClockType) & RCC_CLOCKTYPE_PCLK1) == RCC_CLOCKTYPE_PCLK1)
 800308c:	687b      	ldr	r3, [r7, #4]
 800308e:	681b      	ldr	r3, [r3, #0]
 8003090:	f003 0304 	and.w	r3, r3, #4
 8003094:	2b00      	cmp	r3, #0
 8003096:	d008      	beq.n	80030aa <HAL_RCC_ClockConfig+0x166>
  {
    assert_param(IS_RCC_PCLK(RCC_ClkInitStruct->APB1CLKDivider));
    MODIFY_REG(RCC->CFGR, RCC_CFGR_PPRE1, RCC_ClkInitStruct->APB1CLKDivider);
 8003098:	4b19      	ldr	r3, [pc, #100]	; (8003100 <HAL_RCC_ClockConfig+0x1bc>)
 800309a:	689b      	ldr	r3, [r3, #8]
 800309c:	f423 52e0 	bic.w	r2, r3, #7168	; 0x1c00
 80030a0:	687b      	ldr	r3, [r7, #4]
 80030a2:	68db      	ldr	r3, [r3, #12]
 80030a4:	4916      	ldr	r1, [pc, #88]	; (8003100 <HAL_RCC_ClockConfig+0x1bc>)
 80030a6:	4313      	orrs	r3, r2
 80030a8:	608b      	str	r3, [r1, #8]
  }

  /*-------------------------- PCLK2 Configuration ---------------------------*/
  if(((RCC_ClkInitStruct->ClockType) & RCC_CLOCKTYPE_PCLK2) == RCC_CLOCKTYPE_PCLK2)
 80030aa:	687b      	ldr	r3, [r7, #4]
 80030ac:	681b      	ldr	r3, [r3, #0]
 80030ae:	f003 0308 	and.w	r3, r3, #8
 80030b2:	2b00      	cmp	r3, #0
 80030b4:	d009      	beq.n	80030ca <HAL_RCC_ClockConfig+0x186>
  {
    assert_param(IS_RCC_PCLK(RCC_ClkInitStruct->APB2CLKDivider));
    MODIFY_REG(RCC->CFGR, RCC_CFGR_PPRE2, ((RCC_ClkInitStruct->APB2CLKDivider) << 3U));
 80030b6:	4b12      	ldr	r3, [pc, #72]	; (8003100 <HAL_RCC_ClockConfig+0x1bc>)
 80030b8:	689b      	ldr	r3, [r3, #8]
 80030ba:	f423 4260 	bic.w	r2, r3, #57344	; 0xe000
 80030be:	687b      	ldr	r3, [r7, #4]
 80030c0:	691b      	ldr	r3, [r3, #16]
 80030c2:	00db      	lsls	r3, r3, #3
 80030c4:	490e      	ldr	r1, [pc, #56]	; (8003100 <HAL_RCC_ClockConfig+0x1bc>)
 80030c6:	4313      	orrs	r3, r2
 80030c8:	608b      	str	r3, [r1, #8]
  }

  /* Update the SystemCoreClock global variable */
  SystemCoreClock = HAL_RCC_GetSysClockFreq() >> AHBPrescTable[(RCC->CFGR & RCC_CFGR_HPRE)>> RCC_CFGR_HPRE_Pos];
 80030ca:	f000 f855 	bl	8003178 <HAL_RCC_GetSysClockFreq>
 80030ce:	4601      	mov	r1, r0
 80030d0:	4b0b      	ldr	r3, [pc, #44]	; (8003100 <HAL_RCC_ClockConfig+0x1bc>)
 80030d2:	689b      	ldr	r3, [r3, #8]
 80030d4:	091b      	lsrs	r3, r3, #4
 80030d6:	f003 030f 	and.w	r3, r3, #15
 80030da:	4a0a      	ldr	r2, [pc, #40]	; (8003104 <HAL_RCC_ClockConfig+0x1c0>)
 80030dc:	5cd3      	ldrb	r3, [r2, r3]
 80030de:	fa21 f303 	lsr.w	r3, r1, r3
 80030e2:	4a09      	ldr	r2, [pc, #36]	; (8003108 <HAL_RCC_ClockConfig+0x1c4>)
 80030e4:	6013      	str	r3, [r2, #0]

  /* Configure the source of time base considering new system clocks settings */
  HAL_InitTick (uwTickPrio);
 80030e6:	4b09      	ldr	r3, [pc, #36]	; (800310c <HAL_RCC_ClockConfig+0x1c8>)
 80030e8:	681b      	ldr	r3, [r3, #0]
 80030ea:	4618      	mov	r0, r3
 80030ec:	f7fe fc28 	bl	8001940 <HAL_InitTick>

  return HAL_OK;
 80030f0:	2300      	movs	r3, #0
}
 80030f2:	4618      	mov	r0, r3
 80030f4:	3710      	adds	r7, #16
 80030f6:	46bd      	mov	sp, r7
 80030f8:	bd80      	pop	{r7, pc}
 80030fa:	bf00      	nop
 80030fc:	40023c00 	.word	0x40023c00
 8003100:	40023800 	.word	0x40023800
 8003104:	080063bc 	.word	0x080063bc
 8003108:	20000000 	.word	0x20000000
 800310c:	20000004 	.word	0x20000004

08003110 <HAL_RCC_GetHCLKFreq>:
  * @note   The SystemCoreClock CMSIS variable is used to store System Clock Frequency
  *         and updated within this function
  * @retval HCLK frequency
  */
uint32_t HAL_RCC_GetHCLKFreq(void)
{
 8003110:	b480      	push	{r7}
 8003112:	af00      	add	r7, sp, #0
  return SystemCoreClock;
 8003114:	4b03      	ldr	r3, [pc, #12]	; (8003124 <HAL_RCC_GetHCLKFreq+0x14>)
 8003116:	681b      	ldr	r3, [r3, #0]
}
 8003118:	4618      	mov	r0, r3
 800311a:	46bd      	mov	sp, r7
 800311c:	f85d 7b04 	ldr.w	r7, [sp], #4
 8003120:	4770      	bx	lr
 8003122:	bf00      	nop
 8003124:	20000000 	.word	0x20000000

08003128 <HAL_RCC_GetPCLK1Freq>:
  * @note   Each time PCLK1 changes, this function must be called to update the
  *         right PCLK1 value. Otherwise, any configuration based on this function will be incorrect.
  * @retval PCLK1 frequency
  */
uint32_t HAL_RCC_GetPCLK1Freq(void)
{
 8003128:	b580      	push	{r7, lr}
 800312a:	af00      	add	r7, sp, #0
  /* Get HCLK source and Compute PCLK1 frequency ---------------------------*/
  return (HAL_RCC_GetHCLKFreq() >> APBPrescTable[(RCC->CFGR & RCC_CFGR_PPRE1)>> RCC_CFGR_PPRE1_Pos]);
 800312c:	f7ff fff0 	bl	8003110 <HAL_RCC_GetHCLKFreq>
 8003130:	4601      	mov	r1, r0
 8003132:	4b05      	ldr	r3, [pc, #20]	; (8003148 <HAL_RCC_GetPCLK1Freq+0x20>)
 8003134:	689b      	ldr	r3, [r3, #8]
 8003136:	0a9b      	lsrs	r3, r3, #10
 8003138:	f003 0307 	and.w	r3, r3, #7
 800313c:	4a03      	ldr	r2, [pc, #12]	; (800314c <HAL_RCC_GetPCLK1Freq+0x24>)
 800313e:	5cd3      	ldrb	r3, [r2, r3]
 8003140:	fa21 f303 	lsr.w	r3, r1, r3
}
 8003144:	4618      	mov	r0, r3
 8003146:	bd80      	pop	{r7, pc}
 8003148:	40023800 	.word	0x40023800
 800314c:	080063cc 	.word	0x080063cc

08003150 <HAL_RCC_GetPCLK2Freq>:
  * @note   Each time PCLK2 changes, this function must be called to update the
  *         right PCLK2 value. Otherwise, any configuration based on this function will be incorrect.
  * @retval PCLK2 frequency
  */
uint32_t HAL_RCC_GetPCLK2Freq(void)
{
 8003150:	b580      	push	{r7, lr}
 8003152:	af00      	add	r7, sp, #0
  /* Get HCLK source and Compute PCLK2 frequency ---------------------------*/
  return (HAL_RCC_GetHCLKFreq()>> APBPrescTable[(RCC->CFGR & RCC_CFGR_PPRE2)>> RCC_CFGR_PPRE2_Pos]);
 8003154:	f7ff ffdc 	bl	8003110 <HAL_RCC_GetHCLKFreq>
 8003158:	4601      	mov	r1, r0
 800315a:	4b05      	ldr	r3, [pc, #20]	; (8003170 <HAL_RCC_GetPCLK2Freq+0x20>)
 800315c:	689b      	ldr	r3, [r3, #8]
 800315e:	0b5b      	lsrs	r3, r3, #13
 8003160:	f003 0307 	and.w	r3, r3, #7
 8003164:	4a03      	ldr	r2, [pc, #12]	; (8003174 <HAL_RCC_GetPCLK2Freq+0x24>)
 8003166:	5cd3      	ldrb	r3, [r2, r3]
 8003168:	fa21 f303 	lsr.w	r3, r1, r3
}
 800316c:	4618      	mov	r0, r3
 800316e:	bd80      	pop	{r7, pc}
 8003170:	40023800 	.word	0x40023800
 8003174:	080063cc 	.word	0x080063cc

08003178 <HAL_RCC_GetSysClockFreq>:
  *
  *
  * @retval SYSCLK frequency
  */
uint32_t HAL_RCC_GetSysClockFreq(void)
{
 8003178:	b5f0      	push	{r4, r5, r6, r7, lr}
 800317a:	b087      	sub	sp, #28
 800317c:	af00      	add	r7, sp, #0
  uint32_t pllm = 0U;
 800317e:	2300      	movs	r3, #0
 8003180:	60fb      	str	r3, [r7, #12]
  uint32_t pllvco = 0U;
 8003182:	2300      	movs	r3, #0
 8003184:	617b      	str	r3, [r7, #20]
  uint32_t pllp = 0U;
 8003186:	2300      	movs	r3, #0
 8003188:	60bb      	str	r3, [r7, #8]
  uint32_t pllr = 0U;
 800318a:	2300      	movs	r3, #0
 800318c:	607b      	str	r3, [r7, #4]
  uint32_t sysclockfreq = 0U;
 800318e:	2300      	movs	r3, #0
 8003190:	613b      	str	r3, [r7, #16]

  /* Get SYSCLK source -------------------------------------------------------*/
  switch (RCC->CFGR & RCC_CFGR_SWS)
 8003192:	4bc6      	ldr	r3, [pc, #792]	; (80034ac <HAL_RCC_GetSysClockFreq+0x334>)
 8003194:	689b      	ldr	r3, [r3, #8]
 8003196:	f003 030c 	and.w	r3, r3, #12
 800319a:	2b0c      	cmp	r3, #12
 800319c:	f200 817e 	bhi.w	800349c <HAL_RCC_GetSysClockFreq+0x324>
 80031a0:	a201      	add	r2, pc, #4	; (adr r2, 80031a8 <HAL_RCC_GetSysClockFreq+0x30>)
 80031a2:	f852 f023 	ldr.w	pc, [r2, r3, lsl #2]
 80031a6:	bf00      	nop
 80031a8:	080031dd 	.word	0x080031dd
 80031ac:	0800349d 	.word	0x0800349d
 80031b0:	0800349d 	.word	0x0800349d
 80031b4:	0800349d 	.word	0x0800349d
 80031b8:	080031e3 	.word	0x080031e3
 80031bc:	0800349d 	.word	0x0800349d
 80031c0:	0800349d 	.word	0x0800349d
 80031c4:	0800349d 	.word	0x0800349d
 80031c8:	080031e9 	.word	0x080031e9
 80031cc:	0800349d 	.word	0x0800349d
 80031d0:	0800349d 	.word	0x0800349d
 80031d4:	0800349d 	.word	0x0800349d
 80031d8:	08003345 	.word	0x08003345
  {
    case RCC_CFGR_SWS_HSI:  /* HSI used as system clock source */
    {
      sysclockfreq = HSI_VALUE;
 80031dc:	4bb4      	ldr	r3, [pc, #720]	; (80034b0 <HAL_RCC_GetSysClockFreq+0x338>)
 80031de:	613b      	str	r3, [r7, #16]
       break;
 80031e0:	e15f      	b.n	80034a2 <HAL_RCC_GetSysClockFreq+0x32a>
    }
    case RCC_CFGR_SWS_HSE:  /* HSE used as system clock  source */
    {
      sysclockfreq = HSE_VALUE;
 80031e2:	4bb4      	ldr	r3, [pc, #720]	; (80034b4 <HAL_RCC_GetSysClockFreq+0x33c>)
 80031e4:	613b      	str	r3, [r7, #16]
      break;
 80031e6:	e15c      	b.n	80034a2 <HAL_RCC_GetSysClockFreq+0x32a>
    }
    case RCC_CFGR_SWS_PLL:  /* PLL/PLLP used as system clock  source */
    {
      /* PLL_VCO = (HSE_VALUE or HSI_VALUE / PLLM) * PLLN
      SYSCLK = PLL_VCO / PLLP */
      pllm = RCC->PLLCFGR & RCC_PLLCFGR_PLLM;
 80031e8:	4bb0      	ldr	r3, [pc, #704]	; (80034ac <HAL_RCC_GetSysClockFreq+0x334>)
 80031ea:	685b      	ldr	r3, [r3, #4]
 80031ec:	f003 033f 	and.w	r3, r3, #63	; 0x3f
 80031f0:	60fb      	str	r3, [r7, #12]
      if(__HAL_RCC_GET_PLL_OSCSOURCE() != RCC_PLLSOURCE_HSI)
 80031f2:	4bae      	ldr	r3, [pc, #696]	; (80034ac <HAL_RCC_GetSysClockFreq+0x334>)
 80031f4:	685b      	ldr	r3, [r3, #4]
 80031f6:	f403 0380 	and.w	r3, r3, #4194304	; 0x400000
 80031fa:	2b00      	cmp	r3, #0
 80031fc:	d04a      	beq.n	8003294 <HAL_RCC_GetSysClockFreq+0x11c>
      {
        /* HSE used as PLL clock source */
        pllvco = (uint32_t) ((((uint64_t) HSE_VALUE * ((uint64_t) ((RCC->PLLCFGR & RCC_PLLCFGR_PLLN) >> RCC_PLLCFGR_PLLN_Pos)))) / (uint64_t)pllm);
 80031fe:	4bab      	ldr	r3, [pc, #684]	; (80034ac <HAL_RCC_GetSysClockFreq+0x334>)
 8003200:	685b      	ldr	r3, [r3, #4]
 8003202:	099b      	lsrs	r3, r3, #6
 8003204:	f04f 0400 	mov.w	r4, #0
 8003208:	f240 11ff 	movw	r1, #511	; 0x1ff
 800320c:	f04f 0200 	mov.w	r2, #0
 8003210:	ea03 0501 	and.w	r5, r3, r1
 8003214:	ea04 0602 	and.w	r6, r4, r2
 8003218:	4629      	mov	r1, r5
 800321a:	4632      	mov	r2, r6
 800321c:	f04f 0300 	mov.w	r3, #0
 8003220:	f04f 0400 	mov.w	r4, #0
 8003224:	0154      	lsls	r4, r2, #5
 8003226:	ea44 64d1 	orr.w	r4, r4, r1, lsr #27
 800322a:	014b      	lsls	r3, r1, #5
 800322c:	4619      	mov	r1, r3
 800322e:	4622      	mov	r2, r4
 8003230:	1b49      	subs	r1, r1, r5
 8003232:	eb62 0206 	sbc.w	r2, r2, r6
 8003236:	f04f 0300 	mov.w	r3, #0
 800323a:	f04f 0400 	mov.w	r4, #0
 800323e:	0194      	lsls	r4, r2, #6
 8003240:	ea44 6491 	orr.w	r4, r4, r1, lsr #26
 8003244:	018b      	lsls	r3, r1, #6
 8003246:	1a5b      	subs	r3, r3, r1
 8003248:	eb64 0402 	sbc.w	r4, r4, r2
 800324c:	f04f 0100 	mov.w	r1, #0
 8003250:	f04f 0200 	mov.w	r2, #0
 8003254:	00e2      	lsls	r2, r4, #3
 8003256:	ea42 7253 	orr.w	r2, r2, r3, lsr #29
 800325a:	00d9      	lsls	r1, r3, #3
 800325c:	460b      	mov	r3, r1
 800325e:	4614      	mov	r4, r2
 8003260:	195b      	adds	r3, r3, r5
 8003262:	eb44 0406 	adc.w	r4, r4, r6
 8003266:	f04f 0100 	mov.w	r1, #0
 800326a:	f04f 0200 	mov.w	r2, #0
 800326e:	0262      	lsls	r2, r4, #9
 8003270:	ea42 52d3 	orr.w	r2, r2, r3, lsr #23
 8003274:	0259      	lsls	r1, r3, #9
 8003276:	460b      	mov	r3, r1
 8003278:	4614      	mov	r4, r2
 800327a:	4618      	mov	r0, r3
 800327c:	4621      	mov	r1, r4
 800327e:	68fb      	ldr	r3, [r7, #12]
 8003280:	f04f 0400 	mov.w	r4, #0
 8003284:	461a      	mov	r2, r3
 8003286:	4623      	mov	r3, r4
 8003288:	f7fd fcfe 	bl	8000c88 <__aeabi_uldivmod>
 800328c:	4603      	mov	r3, r0
 800328e:	460c      	mov	r4, r1
 8003290:	617b      	str	r3, [r7, #20]
 8003292:	e049      	b.n	8003328 <HAL_RCC_GetSysClockFreq+0x1b0>
      }
      else
      {
        /* HSI used as PLL clock source */
        pllvco = (uint32_t) ((((uint64_t) HSI_VALUE * ((uint64_t) ((RCC->PLLCFGR & RCC_PLLCFGR_PLLN) >> RCC_PLLCFGR_PLLN_Pos)))) / (uint64_t)pllm);
 8003294:	4b85      	ldr	r3, [pc, #532]	; (80034ac <HAL_RCC_GetSysClockFreq+0x334>)
 8003296:	685b      	ldr	r3, [r3, #4]
 8003298:	099b      	lsrs	r3, r3, #6
 800329a:	f04f 0400 	mov.w	r4, #0
 800329e:	f240 11ff 	movw	r1, #511	; 0x1ff
 80032a2:	f04f 0200 	mov.w	r2, #0
 80032a6:	ea03 0501 	and.w	r5, r3, r1
 80032aa:	ea04 0602 	and.w	r6, r4, r2
 80032ae:	4629      	mov	r1, r5
 80032b0:	4632      	mov	r2, r6
 80032b2:	f04f 0300 	mov.w	r3, #0
 80032b6:	f04f 0400 	mov.w	r4, #0
 80032ba:	0154      	lsls	r4, r2, #5
 80032bc:	ea44 64d1 	orr.w	r4, r4, r1, lsr #27
 80032c0:	014b      	lsls	r3, r1, #5
 80032c2:	4619      	mov	r1, r3
 80032c4:	4622      	mov	r2, r4
 80032c6:	1b49      	subs	r1, r1, r5
 80032c8:	eb62 0206 	sbc.w	r2, r2, r6
 80032cc:	f04f 0300 	mov.w	r3, #0
 80032d0:	f04f 0400 	mov.w	r4, #0
 80032d4:	0194      	lsls	r4, r2, #6
 80032d6:	ea44 6491 	orr.w	r4, r4, r1, lsr #26
 80032da:	018b      	lsls	r3, r1, #6
 80032dc:	1a5b      	subs	r3, r3, r1
 80032de:	eb64 0402 	sbc.w	r4, r4, r2
 80032e2:	f04f 0100 	mov.w	r1, #0
 80032e6:	f04f 0200 	mov.w	r2, #0
 80032ea:	00e2      	lsls	r2, r4, #3
 80032ec:	ea42 7253 	orr.w	r2, r2, r3, lsr #29
 80032f0:	00d9      	lsls	r1, r3, #3
 80032f2:	460b      	mov	r3, r1
 80032f4:	4614      	mov	r4, r2
 80032f6:	195b      	adds	r3, r3, r5
 80032f8:	eb44 0406 	adc.w	r4, r4, r6
 80032fc:	f04f 0100 	mov.w	r1, #0
 8003300:	f04f 0200 	mov.w	r2, #0
 8003304:	02a2      	lsls	r2, r4, #10
 8003306:	ea42 5293 	orr.w	r2, r2, r3, lsr #22
 800330a:	0299      	lsls	r1, r3, #10
 800330c:	460b      	mov	r3, r1
 800330e:	4614      	mov	r4, r2
 8003310:	4618      	mov	r0, r3
 8003312:	4621      	mov	r1, r4
 8003314:	68fb      	ldr	r3, [r7, #12]
 8003316:	f04f 0400 	mov.w	r4, #0
 800331a:	461a      	mov	r2, r3
 800331c:	4623      	mov	r3, r4
 800331e:	f7fd fcb3 	bl	8000c88 <__aeabi_uldivmod>
 8003322:	4603      	mov	r3, r0
 8003324:	460c      	mov	r4, r1
 8003326:	617b      	str	r3, [r7, #20]
      }
      pllp = ((((RCC->PLLCFGR & RCC_PLLCFGR_PLLP) >> RCC_PLLCFGR_PLLP_Pos) + 1U) *2U);
 8003328:	4b60      	ldr	r3, [pc, #384]	; (80034ac <HAL_RCC_GetSysClockFreq+0x334>)
 800332a:	685b      	ldr	r3, [r3, #4]
 800332c:	0c1b      	lsrs	r3, r3, #16
 800332e:	f003 0303 	and.w	r3, r3, #3
 8003332:	3301      	adds	r3, #1
 8003334:	005b      	lsls	r3, r3, #1
 8003336:	60bb      	str	r3, [r7, #8]

      sysclockfreq = pllvco/pllp;
 8003338:	697a      	ldr	r2, [r7, #20]
 800333a:	68bb      	ldr	r3, [r7, #8]
 800333c:	fbb2 f3f3 	udiv	r3, r2, r3
 8003340:	613b      	str	r3, [r7, #16]
      break;
 8003342:	e0ae      	b.n	80034a2 <HAL_RCC_GetSysClockFreq+0x32a>
    }
    case RCC_CFGR_SWS_PLLR:  /* PLL/PLLR used as system clock  source */
    {
      /* PLL_VCO = (HSE_VALUE or HSI_VALUE / PLLM) * PLLN
      SYSCLK = PLL_VCO / PLLR */
      pllm = RCC->PLLCFGR & RCC_PLLCFGR_PLLM;
 8003344:	4b59      	ldr	r3, [pc, #356]	; (80034ac <HAL_RCC_GetSysClockFreq+0x334>)
 8003346:	685b      	ldr	r3, [r3, #4]
 8003348:	f003 033f 	and.w	r3, r3, #63	; 0x3f
 800334c:	60fb      	str	r3, [r7, #12]
      if(__HAL_RCC_GET_PLL_OSCSOURCE() != RCC_PLLSOURCE_HSI)
 800334e:	4b57      	ldr	r3, [pc, #348]	; (80034ac <HAL_RCC_GetSysClockFreq+0x334>)
 8003350:	685b      	ldr	r3, [r3, #4]
 8003352:	f403 0380 	and.w	r3, r3, #4194304	; 0x400000
 8003356:	2b00      	cmp	r3, #0
 8003358:	d04a      	beq.n	80033f0 <HAL_RCC_GetSysClockFreq+0x278>
      {
        /* HSE used as PLL clock source */
        pllvco = (uint32_t) ((((uint64_t) HSE_VALUE * ((uint64_t) ((RCC->PLLCFGR & RCC_PLLCFGR_PLLN) >> RCC_PLLCFGR_PLLN_Pos)))) / (uint64_t)pllm);
 800335a:	4b54      	ldr	r3, [pc, #336]	; (80034ac <HAL_RCC_GetSysClockFreq+0x334>)
 800335c:	685b      	ldr	r3, [r3, #4]
 800335e:	099b      	lsrs	r3, r3, #6
 8003360:	f04f 0400 	mov.w	r4, #0
 8003364:	f240 11ff 	movw	r1, #511	; 0x1ff
 8003368:	f04f 0200 	mov.w	r2, #0
 800336c:	ea03 0501 	and.w	r5, r3, r1
 8003370:	ea04 0602 	and.w	r6, r4, r2
 8003374:	4629      	mov	r1, r5
 8003376:	4632      	mov	r2, r6
 8003378:	f04f 0300 	mov.w	r3, #0
 800337c:	f04f 0400 	mov.w	r4, #0
 8003380:	0154      	lsls	r4, r2, #5
 8003382:	ea44 64d1 	orr.w	r4, r4, r1, lsr #27
 8003386:	014b      	lsls	r3, r1, #5
 8003388:	4619      	mov	r1, r3
 800338a:	4622      	mov	r2, r4
 800338c:	1b49      	subs	r1, r1, r5
 800338e:	eb62 0206 	sbc.w	r2, r2, r6
 8003392:	f04f 0300 	mov.w	r3, #0
 8003396:	f04f 0400 	mov.w	r4, #0
 800339a:	0194      	lsls	r4, r2, #6
 800339c:	ea44 6491 	orr.w	r4, r4, r1, lsr #26
 80033a0:	018b      	lsls	r3, r1, #6
 80033a2:	1a5b      	subs	r3, r3, r1
 80033a4:	eb64 0402 	sbc.w	r4, r4, r2
 80033a8:	f04f 0100 	mov.w	r1, #0
 80033ac:	f04f 0200 	mov.w	r2, #0
 80033b0:	00e2      	lsls	r2, r4, #3
 80033b2:	ea42 7253 	orr.w	r2, r2, r3, lsr #29
 80033b6:	00d9      	lsls	r1, r3, #3
 80033b8:	460b      	mov	r3, r1
 80033ba:	4614      	mov	r4, r2
 80033bc:	195b      	adds	r3, r3, r5
 80033be:	eb44 0406 	adc.w	r4, r4, r6
 80033c2:	f04f 0100 	mov.w	r1, #0
 80033c6:	f04f 0200 	mov.w	r2, #0
 80033ca:	0262      	lsls	r2, r4, #9
 80033cc:	ea42 52d3 	orr.w	r2, r2, r3, lsr #23
 80033d0:	0259      	lsls	r1, r3, #9
 80033d2:	460b      	mov	r3, r1
 80033d4:	4614      	mov	r4, r2
 80033d6:	4618      	mov	r0, r3
 80033d8:	4621      	mov	r1, r4
 80033da:	68fb      	ldr	r3, [r7, #12]
 80033dc:	f04f 0400 	mov.w	r4, #0
 80033e0:	461a      	mov	r2, r3
 80033e2:	4623      	mov	r3, r4
 80033e4:	f7fd fc50 	bl	8000c88 <__aeabi_uldivmod>
 80033e8:	4603      	mov	r3, r0
 80033ea:	460c      	mov	r4, r1
 80033ec:	617b      	str	r3, [r7, #20]
 80033ee:	e049      	b.n	8003484 <HAL_RCC_GetSysClockFreq+0x30c>
      }
      else
      {
        /* HSI used as PLL clock source */
        pllvco = (uint32_t) ((((uint64_t) HSI_VALUE * ((uint64_t) ((RCC->PLLCFGR & RCC_PLLCFGR_PLLN) >> RCC_PLLCFGR_PLLN_Pos)))) / (uint64_t)pllm);
 80033f0:	4b2e      	ldr	r3, [pc, #184]	; (80034ac <HAL_RCC_GetSysClockFreq+0x334>)
 80033f2:	685b      	ldr	r3, [r3, #4]
 80033f4:	099b      	lsrs	r3, r3, #6
 80033f6:	f04f 0400 	mov.w	r4, #0
 80033fa:	f240 11ff 	movw	r1, #511	; 0x1ff
 80033fe:	f04f 0200 	mov.w	r2, #0
 8003402:	ea03 0501 	and.w	r5, r3, r1
 8003406:	ea04 0602 	and.w	r6, r4, r2
 800340a:	4629      	mov	r1, r5
 800340c:	4632      	mov	r2, r6
 800340e:	f04f 0300 	mov.w	r3, #0
 8003412:	f04f 0400 	mov.w	r4, #0
 8003416:	0154      	lsls	r4, r2, #5
 8003418:	ea44 64d1 	orr.w	r4, r4, r1, lsr #27
 800341c:	014b      	lsls	r3, r1, #5
 800341e:	4619      	mov	r1, r3
 8003420:	4622      	mov	r2, r4
 8003422:	1b49      	subs	r1, r1, r5
 8003424:	eb62 0206 	sbc.w	r2, r2, r6
 8003428:	f04f 0300 	mov.w	r3, #0
 800342c:	f04f 0400 	mov.w	r4, #0
 8003430:	0194      	lsls	r4, r2, #6
 8003432:	ea44 6491 	orr.w	r4, r4, r1, lsr #26
 8003436:	018b      	lsls	r3, r1, #6
 8003438:	1a5b      	subs	r3, r3, r1
 800343a:	eb64 0402 	sbc.w	r4, r4, r2
 800343e:	f04f 0100 	mov.w	r1, #0
 8003442:	f04f 0200 	mov.w	r2, #0
 8003446:	00e2      	lsls	r2, r4, #3
 8003448:	ea42 7253 	orr.w	r2, r2, r3, lsr #29
 800344c:	00d9      	lsls	r1, r3, #3
 800344e:	460b      	mov	r3, r1
 8003450:	4614      	mov	r4, r2
 8003452:	195b      	adds	r3, r3, r5
 8003454:	eb44 0406 	adc.w	r4, r4, r6
 8003458:	f04f 0100 	mov.w	r1, #0
 800345c:	f04f 0200 	mov.w	r2, #0
 8003460:	02a2      	lsls	r2, r4, #10
 8003462:	ea42 5293 	orr.w	r2, r2, r3, lsr #22
 8003466:	0299      	lsls	r1, r3, #10
 8003468:	460b      	mov	r3, r1
 800346a:	4614      	mov	r4, r2
 800346c:	4618      	mov	r0, r3
 800346e:	4621      	mov	r1, r4
 8003470:	68fb      	ldr	r3, [r7, #12]
 8003472:	f04f 0400 	mov.w	r4, #0
 8003476:	461a      	mov	r2, r3
 8003478:	4623      	mov	r3, r4
 800347a:	f7fd fc05 	bl	8000c88 <__aeabi_uldivmod>
 800347e:	4603      	mov	r3, r0
 8003480:	460c      	mov	r4, r1
 8003482:	617b      	str	r3, [r7, #20]
      }
      pllr = ((RCC->PLLCFGR & RCC_PLLCFGR_PLLR) >> RCC_PLLCFGR_PLLR_Pos);
 8003484:	4b09      	ldr	r3, [pc, #36]	; (80034ac <HAL_RCC_GetSysClockFreq+0x334>)
 8003486:	685b      	ldr	r3, [r3, #4]
 8003488:	0f1b      	lsrs	r3, r3, #28
 800348a:	f003 0307 	and.w	r3, r3, #7
 800348e:	607b      	str	r3, [r7, #4]

      sysclockfreq = pllvco/pllr;
 8003490:	697a      	ldr	r2, [r7, #20]
 8003492:	687b      	ldr	r3, [r7, #4]
 8003494:	fbb2 f3f3 	udiv	r3, r2, r3
 8003498:	613b      	str	r3, [r7, #16]
      break;
 800349a:	e002      	b.n	80034a2 <HAL_RCC_GetSysClockFreq+0x32a>
    }
    default:
    {
      sysclockfreq = HSI_VALUE;
 800349c:	4b04      	ldr	r3, [pc, #16]	; (80034b0 <HAL_RCC_GetSysClockFreq+0x338>)
 800349e:	613b      	str	r3, [r7, #16]
      break;
 80034a0:	bf00      	nop
    }
  }
  return sysclockfreq;
 80034a2:	693b      	ldr	r3, [r7, #16]
}
 80034a4:	4618      	mov	r0, r3
 80034a6:	371c      	adds	r7, #28
 80034a8:	46bd      	mov	sp, r7
 80034aa:	bdf0      	pop	{r4, r5, r6, r7, pc}
 80034ac:	40023800 	.word	0x40023800
 80034b0:	00f42400 	.word	0x00f42400
 80034b4:	007a1200 	.word	0x007a1200

080034b8 <HAL_RCC_OscConfig>:
  * @note   This function add the PLL/PLLR factor management during PLL configuration this feature
  *         is only available in STM32F410xx/STM32F446xx/STM32F469xx/STM32F479xx/STM32F412Zx/STM32F412Vx/STM32F412Rx/STM32F412Cx devices
  * @retval HAL status
  */
HAL_StatusTypeDef HAL_RCC_OscConfig(RCC_OscInitTypeDef  *RCC_OscInitStruct)
{
 80034b8:	b580      	push	{r7, lr}
 80034ba:	b086      	sub	sp, #24
 80034bc:	af00      	add	r7, sp, #0
 80034be:	6078      	str	r0, [r7, #4]
  uint32_t tickstart = 0U;
 80034c0:	2300      	movs	r3, #0
 80034c2:	613b      	str	r3, [r7, #16]

  /* Check the parameters */
  assert_param(IS_RCC_OSCILLATORTYPE(RCC_OscInitStruct->OscillatorType));
  /*------------------------------- HSE Configuration ------------------------*/
  if(((RCC_OscInitStruct->OscillatorType) & RCC_OSCILLATORTYPE_HSE) == RCC_OSCILLATORTYPE_HSE)
 80034c4:	687b      	ldr	r3, [r7, #4]
 80034c6:	681b      	ldr	r3, [r3, #0]
 80034c8:	f003 0301 	and.w	r3, r3, #1
 80034cc:	2b00      	cmp	r3, #0
 80034ce:	f000 8083 	beq.w	80035d8 <HAL_RCC_OscConfig+0x120>
  {
    /* Check the parameters */
    assert_param(IS_RCC_HSE(RCC_OscInitStruct->HSEState));
    /* When the HSE is used as system clock or clock source for PLL in these cases HSE will not disabled */
#if defined(STM32F446xx)
    if((__HAL_RCC_GET_SYSCLK_SOURCE() == RCC_CFGR_SWS_HSE)                                                                     ||\
 80034d2:	4b95      	ldr	r3, [pc, #596]	; (8003728 <HAL_RCC_OscConfig+0x270>)
 80034d4:	689b      	ldr	r3, [r3, #8]
 80034d6:	f003 030c 	and.w	r3, r3, #12
 80034da:	2b04      	cmp	r3, #4
 80034dc:	d019      	beq.n	8003512 <HAL_RCC_OscConfig+0x5a>
      ((__HAL_RCC_GET_SYSCLK_SOURCE() == RCC_CFGR_SWS_PLL) && ((RCC->PLLCFGR & RCC_PLLCFGR_PLLSRC) == RCC_PLLCFGR_PLLSRC_HSE)) ||\
 80034de:	4b92      	ldr	r3, [pc, #584]	; (8003728 <HAL_RCC_OscConfig+0x270>)
 80034e0:	689b      	ldr	r3, [r3, #8]
 80034e2:	f003 030c 	and.w	r3, r3, #12
    if((__HAL_RCC_GET_SYSCLK_SOURCE() == RCC_CFGR_SWS_HSE)                                                                     ||\
 80034e6:	2b08      	cmp	r3, #8
 80034e8:	d106      	bne.n	80034f8 <HAL_RCC_OscConfig+0x40>
      ((__HAL_RCC_GET_SYSCLK_SOURCE() == RCC_CFGR_SWS_PLL) && ((RCC->PLLCFGR & RCC_PLLCFGR_PLLSRC) == RCC_PLLCFGR_PLLSRC_HSE)) ||\
 80034ea:	4b8f      	ldr	r3, [pc, #572]	; (8003728 <HAL_RCC_OscConfig+0x270>)
 80034ec:	685b      	ldr	r3, [r3, #4]
 80034ee:	f403 0380 	and.w	r3, r3, #4194304	; 0x400000
 80034f2:	f5b3 0f80 	cmp.w	r3, #4194304	; 0x400000
 80034f6:	d00c      	beq.n	8003512 <HAL_RCC_OscConfig+0x5a>
      ((__HAL_RCC_GET_SYSCLK_SOURCE() == RCC_CFGR_SWS_PLLR) && ((RCC->PLLCFGR & RCC_PLLCFGR_PLLSRC) == RCC_PLLCFGR_PLLSRC_HSE)))
 80034f8:	4b8b      	ldr	r3, [pc, #556]	; (8003728 <HAL_RCC_OscConfig+0x270>)
 80034fa:	689b      	ldr	r3, [r3, #8]
 80034fc:	f003 030c 	and.w	r3, r3, #12
      ((__HAL_RCC_GET_SYSCLK_SOURCE() == RCC_CFGR_SWS_PLL) && ((RCC->PLLCFGR & RCC_PLLCFGR_PLLSRC) == RCC_PLLCFGR_PLLSRC_HSE)) ||\
 8003500:	2b0c      	cmp	r3, #12
 8003502:	d112      	bne.n	800352a <HAL_RCC_OscConfig+0x72>
      ((__HAL_RCC_GET_SYSCLK_SOURCE() == RCC_CFGR_SWS_PLLR) && ((RCC->PLLCFGR & RCC_PLLCFGR_PLLSRC) == RCC_PLLCFGR_PLLSRC_HSE)))
 8003504:	4b88      	ldr	r3, [pc, #544]	; (8003728 <HAL_RCC_OscConfig+0x270>)
 8003506:	685b      	ldr	r3, [r3, #4]
 8003508:	f403 0380 	and.w	r3, r3, #4194304	; 0x400000
 800350c:	f5b3 0f80 	cmp.w	r3, #4194304	; 0x400000
 8003510:	d10b      	bne.n	800352a <HAL_RCC_OscConfig+0x72>
#else
    if((__HAL_RCC_GET_SYSCLK_SOURCE() == RCC_CFGR_SWS_HSE)                                                                     ||\
      ((__HAL_RCC_GET_SYSCLK_SOURCE() == RCC_CFGR_SWS_PLL) && ((RCC->PLLCFGR & RCC_PLLCFGR_PLLSRC) == RCC_PLLCFGR_PLLSRC_HSE)))
#endif /* STM32F446xx */
    {
      if((__HAL_RCC_GET_FLAG(RCC_FLAG_HSERDY) != RESET) && (RCC_OscInitStruct->HSEState == RCC_HSE_OFF))
 8003512:	4b85      	ldr	r3, [pc, #532]	; (8003728 <HAL_RCC_OscConfig+0x270>)
 8003514:	681b      	ldr	r3, [r3, #0]
 8003516:	f403 3300 	and.w	r3, r3, #131072	; 0x20000
 800351a:	2b00      	cmp	r3, #0
 800351c:	d05b      	beq.n	80035d6 <HAL_RCC_OscConfig+0x11e>
 800351e:	687b      	ldr	r3, [r7, #4]
 8003520:	685b      	ldr	r3, [r3, #4]
 8003522:	2b00      	cmp	r3, #0
 8003524:	d157      	bne.n	80035d6 <HAL_RCC_OscConfig+0x11e>
      {
        return HAL_ERROR;
 8003526:	2301      	movs	r3, #1
 8003528:	e216      	b.n	8003958 <HAL_RCC_OscConfig+0x4a0>
      }
    }
    else
    {
      /* Set the new HSE configuration ---------------------------------------*/
      __HAL_RCC_HSE_CONFIG(RCC_OscInitStruct->HSEState);
 800352a:	687b      	ldr	r3, [r7, #4]
 800352c:	685b      	ldr	r3, [r3, #4]
 800352e:	f5b3 3f80 	cmp.w	r3, #65536	; 0x10000
 8003532:	d106      	bne.n	8003542 <HAL_RCC_OscConfig+0x8a>
 8003534:	4b7c      	ldr	r3, [pc, #496]	; (8003728 <HAL_RCC_OscConfig+0x270>)
 8003536:	681b      	ldr	r3, [r3, #0]
 8003538:	4a7b      	ldr	r2, [pc, #492]	; (8003728 <HAL_RCC_OscConfig+0x270>)
 800353a:	f443 3380 	orr.w	r3, r3, #65536	; 0x10000
 800353e:	6013      	str	r3, [r2, #0]
 8003540:	e01d      	b.n	800357e <HAL_RCC_OscConfig+0xc6>
 8003542:	687b      	ldr	r3, [r7, #4]
 8003544:	685b      	ldr	r3, [r3, #4]
 8003546:	f5b3 2fa0 	cmp.w	r3, #327680	; 0x50000
 800354a:	d10c      	bne.n	8003566 <HAL_RCC_OscConfig+0xae>
 800354c:	4b76      	ldr	r3, [pc, #472]	; (8003728 <HAL_RCC_OscConfig+0x270>)
 800354e:	681b      	ldr	r3, [r3, #0]
 8003550:	4a75      	ldr	r2, [pc, #468]	; (8003728 <HAL_RCC_OscConfig+0x270>)
 8003552:	f443 2380 	orr.w	r3, r3, #262144	; 0x40000
 8003556:	6013      	str	r3, [r2, #0]
 8003558:	4b73      	ldr	r3, [pc, #460]	; (8003728 <HAL_RCC_OscConfig+0x270>)
 800355a:	681b      	ldr	r3, [r3, #0]
 800355c:	4a72      	ldr	r2, [pc, #456]	; (8003728 <HAL_RCC_OscConfig+0x270>)
 800355e:	f443 3380 	orr.w	r3, r3, #65536	; 0x10000
 8003562:	6013      	str	r3, [r2, #0]
 8003564:	e00b      	b.n	800357e <HAL_RCC_OscConfig+0xc6>
 8003566:	4b70      	ldr	r3, [pc, #448]	; (8003728 <HAL_RCC_OscConfig+0x270>)
 8003568:	681b      	ldr	r3, [r3, #0]
 800356a:	4a6f      	ldr	r2, [pc, #444]	; (8003728 <HAL_RCC_OscConfig+0x270>)
 800356c:	f423 3380 	bic.w	r3, r3, #65536	; 0x10000
 8003570:	6013      	str	r3, [r2, #0]
 8003572:	4b6d      	ldr	r3, [pc, #436]	; (8003728 <HAL_RCC_OscConfig+0x270>)
 8003574:	681b      	ldr	r3, [r3, #0]
 8003576:	4a6c      	ldr	r2, [pc, #432]	; (8003728 <HAL_RCC_OscConfig+0x270>)
 8003578:	f423 2380 	bic.w	r3, r3, #262144	; 0x40000
 800357c:	6013      	str	r3, [r2, #0]

      /* Check the HSE State */
      if((RCC_OscInitStruct->HSEState) != RCC_HSE_OFF)
 800357e:	687b      	ldr	r3, [r7, #4]
 8003580:	685b      	ldr	r3, [r3, #4]
 8003582:	2b00      	cmp	r3, #0
 8003584:	d013      	beq.n	80035ae <HAL_RCC_OscConfig+0xf6>
      {
        /* Get Start Tick*/
        tickstart = HAL_GetTick();
 8003586:	f7fe fa1f 	bl	80019c8 <HAL_GetTick>
 800358a:	6138      	str	r0, [r7, #16]

        /* Wait till HSE is ready */
        while(__HAL_RCC_GET_FLAG(RCC_FLAG_HSERDY) == RESET)
 800358c:	e008      	b.n	80035a0 <HAL_RCC_OscConfig+0xe8>
        {
          if((HAL_GetTick() - tickstart ) > HSE_TIMEOUT_VALUE)
 800358e:	f7fe fa1b 	bl	80019c8 <HAL_GetTick>
 8003592:	4602      	mov	r2, r0
 8003594:	693b      	ldr	r3, [r7, #16]
 8003596:	1ad3      	subs	r3, r2, r3
 8003598:	2b64      	cmp	r3, #100	; 0x64
 800359a:	d901      	bls.n	80035a0 <HAL_RCC_OscConfig+0xe8>
          {
            return HAL_TIMEOUT;
 800359c:	2303      	movs	r3, #3
 800359e:	e1db      	b.n	8003958 <HAL_RCC_OscConfig+0x4a0>
        while(__HAL_RCC_GET_FLAG(RCC_FLAG_HSERDY) == RESET)
 80035a0:	4b61      	ldr	r3, [pc, #388]	; (8003728 <HAL_RCC_OscConfig+0x270>)
 80035a2:	681b      	ldr	r3, [r3, #0]
 80035a4:	f403 3300 	and.w	r3, r3, #131072	; 0x20000
 80035a8:	2b00      	cmp	r3, #0
 80035aa:	d0f0      	beq.n	800358e <HAL_RCC_OscConfig+0xd6>
 80035ac:	e014      	b.n	80035d8 <HAL_RCC_OscConfig+0x120>
        }
      }
      else
      {
        /* Get Start Tick*/
        tickstart = HAL_GetTick();
 80035ae:	f7fe fa0b 	bl	80019c8 <HAL_GetTick>
 80035b2:	6138      	str	r0, [r7, #16]

        /* Wait till HSE is bypassed or disabled */
        while(__HAL_RCC_GET_FLAG(RCC_FLAG_HSERDY) != RESET)
 80035b4:	e008      	b.n	80035c8 <HAL_RCC_OscConfig+0x110>
        {
          if((HAL_GetTick() - tickstart ) > HSE_TIMEOUT_VALUE)
 80035b6:	f7fe fa07 	bl	80019c8 <HAL_GetTick>
 80035ba:	4602      	mov	r2, r0
 80035bc:	693b      	ldr	r3, [r7, #16]
 80035be:	1ad3      	subs	r3, r2, r3
 80035c0:	2b64      	cmp	r3, #100	; 0x64
 80035c2:	d901      	bls.n	80035c8 <HAL_RCC_OscConfig+0x110>
          {
            return HAL_TIMEOUT;
 80035c4:	2303      	movs	r3, #3
 80035c6:	e1c7      	b.n	8003958 <HAL_RCC_OscConfig+0x4a0>
        while(__HAL_RCC_GET_FLAG(RCC_FLAG_HSERDY) != RESET)
 80035c8:	4b57      	ldr	r3, [pc, #348]	; (8003728 <HAL_RCC_OscConfig+0x270>)
 80035ca:	681b      	ldr	r3, [r3, #0]
 80035cc:	f403 3300 	and.w	r3, r3, #131072	; 0x20000
 80035d0:	2b00      	cmp	r3, #0
 80035d2:	d1f0      	bne.n	80035b6 <HAL_RCC_OscConfig+0xfe>
 80035d4:	e000      	b.n	80035d8 <HAL_RCC_OscConfig+0x120>
      if((__HAL_RCC_GET_FLAG(RCC_FLAG_HSERDY) != RESET) && (RCC_OscInitStruct->HSEState == RCC_HSE_OFF))
 80035d6:	bf00      	nop
        }
      }
    }
  }
  /*----------------------------- HSI Configuration --------------------------*/
  if(((RCC_OscInitStruct->OscillatorType) & RCC_OSCILLATORTYPE_HSI) == RCC_OSCILLATORTYPE_HSI)
 80035d8:	687b      	ldr	r3, [r7, #4]
 80035da:	681b      	ldr	r3, [r3, #0]
 80035dc:	f003 0302 	and.w	r3, r3, #2
 80035e0:	2b00      	cmp	r3, #0
 80035e2:	d06f      	beq.n	80036c4 <HAL_RCC_OscConfig+0x20c>
    assert_param(IS_RCC_HSI(RCC_OscInitStruct->HSIState));
    assert_param(IS_RCC_CALIBRATION_VALUE(RCC_OscInitStruct->HSICalibrationValue));

    /* Check if HSI is used as system clock or as PLL source when PLL is selected as system clock */
#if defined(STM32F446xx)
    if((__HAL_RCC_GET_SYSCLK_SOURCE() == RCC_CFGR_SWS_HSI)                                                                     ||\
 80035e4:	4b50      	ldr	r3, [pc, #320]	; (8003728 <HAL_RCC_OscConfig+0x270>)
 80035e6:	689b      	ldr	r3, [r3, #8]
 80035e8:	f003 030c 	and.w	r3, r3, #12
 80035ec:	2b00      	cmp	r3, #0
 80035ee:	d017      	beq.n	8003620 <HAL_RCC_OscConfig+0x168>
      ((__HAL_RCC_GET_SYSCLK_SOURCE() == RCC_CFGR_SWS_PLL) && ((RCC->PLLCFGR & RCC_PLLCFGR_PLLSRC) == RCC_PLLCFGR_PLLSRC_HSI)) ||\
 80035f0:	4b4d      	ldr	r3, [pc, #308]	; (8003728 <HAL_RCC_OscConfig+0x270>)
 80035f2:	689b      	ldr	r3, [r3, #8]
 80035f4:	f003 030c 	and.w	r3, r3, #12
    if((__HAL_RCC_GET_SYSCLK_SOURCE() == RCC_CFGR_SWS_HSI)                                                                     ||\
 80035f8:	2b08      	cmp	r3, #8
 80035fa:	d105      	bne.n	8003608 <HAL_RCC_OscConfig+0x150>
      ((__HAL_RCC_GET_SYSCLK_SOURCE() == RCC_CFGR_SWS_PLL) && ((RCC->PLLCFGR & RCC_PLLCFGR_PLLSRC) == RCC_PLLCFGR_PLLSRC_HSI)) ||\
 80035fc:	4b4a      	ldr	r3, [pc, #296]	; (8003728 <HAL_RCC_OscConfig+0x270>)
 80035fe:	685b      	ldr	r3, [r3, #4]
 8003600:	f403 0380 	and.w	r3, r3, #4194304	; 0x400000
 8003604:	2b00      	cmp	r3, #0
 8003606:	d00b      	beq.n	8003620 <HAL_RCC_OscConfig+0x168>
      ((__HAL_RCC_GET_SYSCLK_SOURCE() == RCC_CFGR_SWS_PLLR) && ((RCC->PLLCFGR & RCC_PLLCFGR_PLLSRC) == RCC_PLLCFGR_PLLSRC_HSI)))
 8003608:	4b47      	ldr	r3, [pc, #284]	; (8003728 <HAL_RCC_OscConfig+0x270>)
 800360a:	689b      	ldr	r3, [r3, #8]
 800360c:	f003 030c 	and.w	r3, r3, #12
      ((__HAL_RCC_GET_SYSCLK_SOURCE() == RCC_CFGR_SWS_PLL) && ((RCC->PLLCFGR & RCC_PLLCFGR_PLLSRC) == RCC_PLLCFGR_PLLSRC_HSI)) ||\
 8003610:	2b0c      	cmp	r3, #12
 8003612:	d11c      	bne.n	800364e <HAL_RCC_OscConfig+0x196>
      ((__HAL_RCC_GET_SYSCLK_SOURCE() == RCC_CFGR_SWS_PLLR) && ((RCC->PLLCFGR & RCC_PLLCFGR_PLLSRC) == RCC_PLLCFGR_PLLSRC_HSI)))
 8003614:	4b44      	ldr	r3, [pc, #272]	; (8003728 <HAL_RCC_OscConfig+0x270>)
 8003616:	685b      	ldr	r3, [r3, #4]
 8003618:	f403 0380 	and.w	r3, r3, #4194304	; 0x400000
 800361c:	2b00      	cmp	r3, #0
 800361e:	d116      	bne.n	800364e <HAL_RCC_OscConfig+0x196>
    if((__HAL_RCC_GET_SYSCLK_SOURCE() == RCC_CFGR_SWS_HSI)                                                                     ||\
      ((__HAL_RCC_GET_SYSCLK_SOURCE() == RCC_CFGR_SWS_PLL) && ((RCC->PLLCFGR & RCC_PLLCFGR_PLLSRC) == RCC_PLLCFGR_PLLSRC_HSI)))
#endif /* STM32F446xx */
    {
      /* When HSI is used as system clock it will not disabled */
      if((__HAL_RCC_GET_FLAG(RCC_FLAG_HSIRDY) != RESET) && (RCC_OscInitStruct->HSIState != RCC_HSI_ON))
 8003620:	4b41      	ldr	r3, [pc, #260]	; (8003728 <HAL_RCC_OscConfig+0x270>)
 8003622:	681b      	ldr	r3, [r3, #0]
 8003624:	f003 0302 	and.w	r3, r3, #2
 8003628:	2b00      	cmp	r3, #0
 800362a:	d005      	beq.n	8003638 <HAL_RCC_OscConfig+0x180>
 800362c:	687b      	ldr	r3, [r7, #4]
 800362e:	68db      	ldr	r3, [r3, #12]
 8003630:	2b01      	cmp	r3, #1
 8003632:	d001      	beq.n	8003638 <HAL_RCC_OscConfig+0x180>
      {
        return HAL_ERROR;
 8003634:	2301      	movs	r3, #1
 8003636:	e18f      	b.n	8003958 <HAL_RCC_OscConfig+0x4a0>
      }
      /* Otherwise, just the calibration is allowed */
      else
      {
        /* Adjusts the Internal High Speed oscillator (HSI) calibration value.*/
        __HAL_RCC_HSI_CALIBRATIONVALUE_ADJUST(RCC_OscInitStruct->HSICalibrationValue);
 8003638:	4b3b      	ldr	r3, [pc, #236]	; (8003728 <HAL_RCC_OscConfig+0x270>)
 800363a:	681b      	ldr	r3, [r3, #0]
 800363c:	f023 02f8 	bic.w	r2, r3, #248	; 0xf8
 8003640:	687b      	ldr	r3, [r7, #4]
 8003642:	691b      	ldr	r3, [r3, #16]
 8003644:	00db      	lsls	r3, r3, #3
 8003646:	4938      	ldr	r1, [pc, #224]	; (8003728 <HAL_RCC_OscConfig+0x270>)
 8003648:	4313      	orrs	r3, r2
 800364a:	600b      	str	r3, [r1, #0]
      if((__HAL_RCC_GET_FLAG(RCC_FLAG_HSIRDY) != RESET) && (RCC_OscInitStruct->HSIState != RCC_HSI_ON))
 800364c:	e03a      	b.n	80036c4 <HAL_RCC_OscConfig+0x20c>
      }
    }
    else
    {
      /* Check the HSI State */
      if((RCC_OscInitStruct->HSIState)!= RCC_HSI_OFF)
 800364e:	687b      	ldr	r3, [r7, #4]
 8003650:	68db      	ldr	r3, [r3, #12]
 8003652:	2b00      	cmp	r3, #0
 8003654:	d020      	beq.n	8003698 <HAL_RCC_OscConfig+0x1e0>
      {
        /* Enable the Internal High Speed oscillator (HSI). */
        __HAL_RCC_HSI_ENABLE();
 8003656:	4b35      	ldr	r3, [pc, #212]	; (800372c <HAL_RCC_OscConfig+0x274>)
 8003658:	2201      	movs	r2, #1
 800365a:	601a      	str	r2, [r3, #0]

        /* Get Start Tick*/
        tickstart = HAL_GetTick();
 800365c:	f7fe f9b4 	bl	80019c8 <HAL_GetTick>
 8003660:	6138      	str	r0, [r7, #16]

        /* Wait till HSI is ready */
        while(__HAL_RCC_GET_FLAG(RCC_FLAG_HSIRDY) == RESET)
 8003662:	e008      	b.n	8003676 <HAL_RCC_OscConfig+0x1be>
        {
          if((HAL_GetTick() - tickstart ) > HSI_TIMEOUT_VALUE)
 8003664:	f7fe f9b0 	bl	80019c8 <HAL_GetTick>
 8003668:	4602      	mov	r2, r0
 800366a:	693b      	ldr	r3, [r7, #16]
 800366c:	1ad3      	subs	r3, r2, r3
 800366e:	2b02      	cmp	r3, #2
 8003670:	d901      	bls.n	8003676 <HAL_RCC_OscConfig+0x1be>
          {
            return HAL_TIMEOUT;
 8003672:	2303      	movs	r3, #3
 8003674:	e170      	b.n	8003958 <HAL_RCC_OscConfig+0x4a0>
        while(__HAL_RCC_GET_FLAG(RCC_FLAG_HSIRDY) == RESET)
 8003676:	4b2c      	ldr	r3, [pc, #176]	; (8003728 <HAL_RCC_OscConfig+0x270>)
 8003678:	681b      	ldr	r3, [r3, #0]
 800367a:	f003 0302 	and.w	r3, r3, #2
 800367e:	2b00      	cmp	r3, #0
 8003680:	d0f0      	beq.n	8003664 <HAL_RCC_OscConfig+0x1ac>
          }
        }

        /* Adjusts the Internal High Speed oscillator (HSI) calibration value.*/
        __HAL_RCC_HSI_CALIBRATIONVALUE_ADJUST(RCC_OscInitStruct->HSICalibrationValue);
 8003682:	4b29      	ldr	r3, [pc, #164]	; (8003728 <HAL_RCC_OscConfig+0x270>)
 8003684:	681b      	ldr	r3, [r3, #0]
 8003686:	f023 02f8 	bic.w	r2, r3, #248	; 0xf8
 800368a:	687b      	ldr	r3, [r7, #4]
 800368c:	691b      	ldr	r3, [r3, #16]
 800368e:	00db      	lsls	r3, r3, #3
 8003690:	4925      	ldr	r1, [pc, #148]	; (8003728 <HAL_RCC_OscConfig+0x270>)
 8003692:	4313      	orrs	r3, r2
 8003694:	600b      	str	r3, [r1, #0]
 8003696:	e015      	b.n	80036c4 <HAL_RCC_OscConfig+0x20c>
      }
      else
      {
        /* Disable the Internal High Speed oscillator (HSI). */
        __HAL_RCC_HSI_DISABLE();
 8003698:	4b24      	ldr	r3, [pc, #144]	; (800372c <HAL_RCC_OscConfig+0x274>)
 800369a:	2200      	movs	r2, #0
 800369c:	601a      	str	r2, [r3, #0]

        /* Get Start Tick*/
        tickstart = HAL_GetTick();
 800369e:	f7fe f993 	bl	80019c8 <HAL_GetTick>
 80036a2:	6138      	str	r0, [r7, #16]

        /* Wait till HSI is ready */
        while(__HAL_RCC_GET_FLAG(RCC_FLAG_HSIRDY) != RESET)
 80036a4:	e008      	b.n	80036b8 <HAL_RCC_OscConfig+0x200>
        {
          if((HAL_GetTick() - tickstart ) > HSI_TIMEOUT_VALUE)
 80036a6:	f7fe f98f 	bl	80019c8 <HAL_GetTick>
 80036aa:	4602      	mov	r2, r0
 80036ac:	693b      	ldr	r3, [r7, #16]
 80036ae:	1ad3      	subs	r3, r2, r3
 80036b0:	2b02      	cmp	r3, #2
 80036b2:	d901      	bls.n	80036b8 <HAL_RCC_OscConfig+0x200>
          {
            return HAL_TIMEOUT;
 80036b4:	2303      	movs	r3, #3
 80036b6:	e14f      	b.n	8003958 <HAL_RCC_OscConfig+0x4a0>
        while(__HAL_RCC_GET_FLAG(RCC_FLAG_HSIRDY) != RESET)
 80036b8:	4b1b      	ldr	r3, [pc, #108]	; (8003728 <HAL_RCC_OscConfig+0x270>)
 80036ba:	681b      	ldr	r3, [r3, #0]
 80036bc:	f003 0302 	and.w	r3, r3, #2
 80036c0:	2b00      	cmp	r3, #0
 80036c2:	d1f0      	bne.n	80036a6 <HAL_RCC_OscConfig+0x1ee>
        }
      }
    }
  }
  /*------------------------------ LSI Configuration -------------------------*/
  if(((RCC_OscInitStruct->OscillatorType) & RCC_OSCILLATORTYPE_LSI) == RCC_OSCILLATORTYPE_LSI)
 80036c4:	687b      	ldr	r3, [r7, #4]
 80036c6:	681b      	ldr	r3, [r3, #0]
 80036c8:	f003 0308 	and.w	r3, r3, #8
 80036cc:	2b00      	cmp	r3, #0
 80036ce:	d037      	beq.n	8003740 <HAL_RCC_OscConfig+0x288>
  {
    /* Check the parameters */
    assert_param(IS_RCC_LSI(RCC_OscInitStruct->LSIState));

    /* Check the LSI State */
    if((RCC_OscInitStruct->LSIState)!= RCC_LSI_OFF)
 80036d0:	687b      	ldr	r3, [r7, #4]
 80036d2:	695b      	ldr	r3, [r3, #20]
 80036d4:	2b00      	cmp	r3, #0
 80036d6:	d016      	beq.n	8003706 <HAL_RCC_OscConfig+0x24e>
    {
      /* Enable the Internal Low Speed oscillator (LSI). */
      __HAL_RCC_LSI_ENABLE();
 80036d8:	4b15      	ldr	r3, [pc, #84]	; (8003730 <HAL_RCC_OscConfig+0x278>)
 80036da:	2201      	movs	r2, #1
 80036dc:	601a      	str	r2, [r3, #0]

      /* Get Start Tick*/
      tickstart = HAL_GetTick();
 80036de:	f7fe f973 	bl	80019c8 <HAL_GetTick>
 80036e2:	6138      	str	r0, [r7, #16]

      /* Wait till LSI is ready */
      while(__HAL_RCC_GET_FLAG(RCC_FLAG_LSIRDY) == RESET)
 80036e4:	e008      	b.n	80036f8 <HAL_RCC_OscConfig+0x240>
      {
        if((HAL_GetTick() - tickstart ) > LSI_TIMEOUT_VALUE)
 80036e6:	f7fe f96f 	bl	80019c8 <HAL_GetTick>
 80036ea:	4602      	mov	r2, r0
 80036ec:	693b      	ldr	r3, [r7, #16]
 80036ee:	1ad3      	subs	r3, r2, r3
 80036f0:	2b02      	cmp	r3, #2
 80036f2:	d901      	bls.n	80036f8 <HAL_RCC_OscConfig+0x240>
        {
          return HAL_TIMEOUT;
 80036f4:	2303      	movs	r3, #3
 80036f6:	e12f      	b.n	8003958 <HAL_RCC_OscConfig+0x4a0>
      while(__HAL_RCC_GET_FLAG(RCC_FLAG_LSIRDY) == RESET)
 80036f8:	4b0b      	ldr	r3, [pc, #44]	; (8003728 <HAL_RCC_OscConfig+0x270>)
 80036fa:	6f5b      	ldr	r3, [r3, #116]	; 0x74
 80036fc:	f003 0302 	and.w	r3, r3, #2
 8003700:	2b00      	cmp	r3, #0
 8003702:	d0f0      	beq.n	80036e6 <HAL_RCC_OscConfig+0x22e>
 8003704:	e01c      	b.n	8003740 <HAL_RCC_OscConfig+0x288>
      }
    }
    else
    {
      /* Disable the Internal Low Speed oscillator (LSI). */
      __HAL_RCC_LSI_DISABLE();
 8003706:	4b0a      	ldr	r3, [pc, #40]	; (8003730 <HAL_RCC_OscConfig+0x278>)
 8003708:	2200      	movs	r2, #0
 800370a:	601a      	str	r2, [r3, #0]

      /* Get Start Tick*/
      tickstart = HAL_GetTick();
 800370c:	f7fe f95c 	bl	80019c8 <HAL_GetTick>
 8003710:	6138      	str	r0, [r7, #16]

      /* Wait till LSI is ready */
      while(__HAL_RCC_GET_FLAG(RCC_FLAG_LSIRDY) != RESET)
 8003712:	e00f      	b.n	8003734 <HAL_RCC_OscConfig+0x27c>
      {
        if((HAL_GetTick() - tickstart ) > LSI_TIMEOUT_VALUE)
 8003714:	f7fe f958 	bl	80019c8 <HAL_GetTick>
 8003718:	4602      	mov	r2, r0
 800371a:	693b      	ldr	r3, [r7, #16]
 800371c:	1ad3      	subs	r3, r2, r3
 800371e:	2b02      	cmp	r3, #2
 8003720:	d908      	bls.n	8003734 <HAL_RCC_OscConfig+0x27c>
        {
          return HAL_TIMEOUT;
 8003722:	2303      	movs	r3, #3
 8003724:	e118      	b.n	8003958 <HAL_RCC_OscConfig+0x4a0>
 8003726:	bf00      	nop
 8003728:	40023800 	.word	0x40023800
 800372c:	42470000 	.word	0x42470000
 8003730:	42470e80 	.word	0x42470e80
      while(__HAL_RCC_GET_FLAG(RCC_FLAG_LSIRDY) != RESET)
 8003734:	4b8a      	ldr	r3, [pc, #552]	; (8003960 <HAL_RCC_OscConfig+0x4a8>)
 8003736:	6f5b      	ldr	r3, [r3, #116]	; 0x74
 8003738:	f003 0302 	and.w	r3, r3, #2
 800373c:	2b00      	cmp	r3, #0
 800373e:	d1e9      	bne.n	8003714 <HAL_RCC_OscConfig+0x25c>
        }
      }
    }
  }
  /*------------------------------ LSE Configuration -------------------------*/
  if(((RCC_OscInitStruct->OscillatorType) & RCC_OSCILLATORTYPE_LSE) == RCC_OSCILLATORTYPE_LSE)
 8003740:	687b      	ldr	r3, [r7, #4]
 8003742:	681b      	ldr	r3, [r3, #0]
 8003744:	f003 0304 	and.w	r3, r3, #4
 8003748:	2b00      	cmp	r3, #0
 800374a:	f000 8097 	beq.w	800387c <HAL_RCC_OscConfig+0x3c4>
  {
    FlagStatus       pwrclkchanged = RESET;
 800374e:	2300      	movs	r3, #0
 8003750:	75fb      	strb	r3, [r7, #23]
    /* Check the parameters */
    assert_param(IS_RCC_LSE(RCC_OscInitStruct->LSEState));

    /* Update LSE configuration in Backup Domain control register    */
    /* Requires to enable write access to Backup Domain of necessary */
    if(__HAL_RCC_PWR_IS_CLK_DISABLED())
 8003752:	4b83      	ldr	r3, [pc, #524]	; (8003960 <HAL_RCC_OscConfig+0x4a8>)
 8003754:	6c1b      	ldr	r3, [r3, #64]	; 0x40
 8003756:	f003 5380 	and.w	r3, r3, #268435456	; 0x10000000
 800375a:	2b00      	cmp	r3, #0
 800375c:	d10f      	bne.n	800377e <HAL_RCC_OscConfig+0x2c6>
    {
      __HAL_RCC_PWR_CLK_ENABLE();
 800375e:	2300      	movs	r3, #0
 8003760:	60fb      	str	r3, [r7, #12]
 8003762:	4b7f      	ldr	r3, [pc, #508]	; (8003960 <HAL_RCC_OscConfig+0x4a8>)
 8003764:	6c1b      	ldr	r3, [r3, #64]	; 0x40
 8003766:	4a7e      	ldr	r2, [pc, #504]	; (8003960 <HAL_RCC_OscConfig+0x4a8>)
 8003768:	f043 5380 	orr.w	r3, r3, #268435456	; 0x10000000
 800376c:	6413      	str	r3, [r2, #64]	; 0x40
 800376e:	4b7c      	ldr	r3, [pc, #496]	; (8003960 <HAL_RCC_OscConfig+0x4a8>)
 8003770:	6c1b      	ldr	r3, [r3, #64]	; 0x40
 8003772:	f003 5380 	and.w	r3, r3, #268435456	; 0x10000000
 8003776:	60fb      	str	r3, [r7, #12]
 8003778:	68fb      	ldr	r3, [r7, #12]
      pwrclkchanged = SET;
 800377a:	2301      	movs	r3, #1
 800377c:	75fb      	strb	r3, [r7, #23]
    }

    if(HAL_IS_BIT_CLR(PWR->CR, PWR_CR_DBP))
 800377e:	4b79      	ldr	r3, [pc, #484]	; (8003964 <HAL_RCC_OscConfig+0x4ac>)
 8003780:	681b      	ldr	r3, [r3, #0]
 8003782:	f403 7380 	and.w	r3, r3, #256	; 0x100
 8003786:	2b00      	cmp	r3, #0
 8003788:	d118      	bne.n	80037bc <HAL_RCC_OscConfig+0x304>
    {
      /* Enable write access to Backup domain */
      SET_BIT(PWR->CR, PWR_CR_DBP);
 800378a:	4b76      	ldr	r3, [pc, #472]	; (8003964 <HAL_RCC_OscConfig+0x4ac>)
 800378c:	681b      	ldr	r3, [r3, #0]
 800378e:	4a75      	ldr	r2, [pc, #468]	; (8003964 <HAL_RCC_OscConfig+0x4ac>)
 8003790:	f443 7380 	orr.w	r3, r3, #256	; 0x100
 8003794:	6013      	str	r3, [r2, #0]

      /* Wait for Backup domain Write protection disable */
      tickstart = HAL_GetTick();
 8003796:	f7fe f917 	bl	80019c8 <HAL_GetTick>
 800379a:	6138      	str	r0, [r7, #16]

      while(HAL_IS_BIT_CLR(PWR->CR, PWR_CR_DBP))
 800379c:	e008      	b.n	80037b0 <HAL_RCC_OscConfig+0x2f8>
      {
        if((HAL_GetTick() - tickstart) > RCC_DBP_TIMEOUT_VALUE)
 800379e:	f7fe f913 	bl	80019c8 <HAL_GetTick>
 80037a2:	4602      	mov	r2, r0
 80037a4:	693b      	ldr	r3, [r7, #16]
 80037a6:	1ad3      	subs	r3, r2, r3
 80037a8:	2b02      	cmp	r3, #2
 80037aa:	d901      	bls.n	80037b0 <HAL_RCC_OscConfig+0x2f8>
        {
          return HAL_TIMEOUT;
 80037ac:	2303      	movs	r3, #3
 80037ae:	e0d3      	b.n	8003958 <HAL_RCC_OscConfig+0x4a0>
      while(HAL_IS_BIT_CLR(PWR->CR, PWR_CR_DBP))
 80037b0:	4b6c      	ldr	r3, [pc, #432]	; (8003964 <HAL_RCC_OscConfig+0x4ac>)
 80037b2:	681b      	ldr	r3, [r3, #0]
 80037b4:	f403 7380 	and.w	r3, r3, #256	; 0x100
 80037b8:	2b00      	cmp	r3, #0
 80037ba:	d0f0      	beq.n	800379e <HAL_RCC_OscConfig+0x2e6>
        }
      }
    }

    /* Set the new LSE configuration -----------------------------------------*/
    __HAL_RCC_LSE_CONFIG(RCC_OscInitStruct->LSEState);
 80037bc:	687b      	ldr	r3, [r7, #4]
 80037be:	689b      	ldr	r3, [r3, #8]
 80037c0:	2b01      	cmp	r3, #1
 80037c2:	d106      	bne.n	80037d2 <HAL_RCC_OscConfig+0x31a>
 80037c4:	4b66      	ldr	r3, [pc, #408]	; (8003960 <HAL_RCC_OscConfig+0x4a8>)
 80037c6:	6f1b      	ldr	r3, [r3, #112]	; 0x70
 80037c8:	4a65      	ldr	r2, [pc, #404]	; (8003960 <HAL_RCC_OscConfig+0x4a8>)
 80037ca:	f043 0301 	orr.w	r3, r3, #1
 80037ce:	6713      	str	r3, [r2, #112]	; 0x70
 80037d0:	e01c      	b.n	800380c <HAL_RCC_OscConfig+0x354>
 80037d2:	687b      	ldr	r3, [r7, #4]
 80037d4:	689b      	ldr	r3, [r3, #8]
 80037d6:	2b05      	cmp	r3, #5
 80037d8:	d10c      	bne.n	80037f4 <HAL_RCC_OscConfig+0x33c>
 80037da:	4b61      	ldr	r3, [pc, #388]	; (8003960 <HAL_RCC_OscConfig+0x4a8>)
 80037dc:	6f1b      	ldr	r3, [r3, #112]	; 0x70
 80037de:	4a60      	ldr	r2, [pc, #384]	; (8003960 <HAL_RCC_OscConfig+0x4a8>)
 80037e0:	f043 0304 	orr.w	r3, r3, #4
 80037e4:	6713      	str	r3, [r2, #112]	; 0x70
 80037e6:	4b5e      	ldr	r3, [pc, #376]	; (8003960 <HAL_RCC_OscConfig+0x4a8>)
 80037e8:	6f1b      	ldr	r3, [r3, #112]	; 0x70
 80037ea:	4a5d      	ldr	r2, [pc, #372]	; (8003960 <HAL_RCC_OscConfig+0x4a8>)
 80037ec:	f043 0301 	orr.w	r3, r3, #1
 80037f0:	6713      	str	r3, [r2, #112]	; 0x70
 80037f2:	e00b      	b.n	800380c <HAL_RCC_OscConfig+0x354>
 80037f4:	4b5a      	ldr	r3, [pc, #360]	; (8003960 <HAL_RCC_OscConfig+0x4a8>)
 80037f6:	6f1b      	ldr	r3, [r3, #112]	; 0x70
 80037f8:	4a59      	ldr	r2, [pc, #356]	; (8003960 <HAL_RCC_OscConfig+0x4a8>)
 80037fa:	f023 0301 	bic.w	r3, r3, #1
 80037fe:	6713      	str	r3, [r2, #112]	; 0x70
 8003800:	4b57      	ldr	r3, [pc, #348]	; (8003960 <HAL_RCC_OscConfig+0x4a8>)
 8003802:	6f1b      	ldr	r3, [r3, #112]	; 0x70
 8003804:	4a56      	ldr	r2, [pc, #344]	; (8003960 <HAL_RCC_OscConfig+0x4a8>)
 8003806:	f023 0304 	bic.w	r3, r3, #4
 800380a:	6713      	str	r3, [r2, #112]	; 0x70
    /* Check the LSE State */
    if((RCC_OscInitStruct->LSEState) != RCC_LSE_OFF)
 800380c:	687b      	ldr	r3, [r7, #4]
 800380e:	689b      	ldr	r3, [r3, #8]
 8003810:	2b00      	cmp	r3, #0
 8003812:	d015      	beq.n	8003840 <HAL_RCC_OscConfig+0x388>
    {
      /* Get Start Tick*/
      tickstart = HAL_GetTick();
 8003814:	f7fe f8d8 	bl	80019c8 <HAL_GetTick>
 8003818:	6138      	str	r0, [r7, #16]

      /* Wait till LSE is ready */
      while(__HAL_RCC_GET_FLAG(RCC_FLAG_LSERDY) == RESET)
 800381a:	e00a      	b.n	8003832 <HAL_RCC_OscConfig+0x37a>
      {
        if((HAL_GetTick() - tickstart ) > RCC_LSE_TIMEOUT_VALUE)
 800381c:	f7fe f8d4 	bl	80019c8 <HAL_GetTick>
 8003820:	4602      	mov	r2, r0
 8003822:	693b      	ldr	r3, [r7, #16]
 8003824:	1ad3      	subs	r3, r2, r3
 8003826:	f241 3288 	movw	r2, #5000	; 0x1388
 800382a:	4293      	cmp	r3, r2
 800382c:	d901      	bls.n	8003832 <HAL_RCC_OscConfig+0x37a>
        {
          return HAL_TIMEOUT;
 800382e:	2303      	movs	r3, #3
 8003830:	e092      	b.n	8003958 <HAL_RCC_OscConfig+0x4a0>
      while(__HAL_RCC_GET_FLAG(RCC_FLAG_LSERDY) == RESET)
 8003832:	4b4b      	ldr	r3, [pc, #300]	; (8003960 <HAL_RCC_OscConfig+0x4a8>)
 8003834:	6f1b      	ldr	r3, [r3, #112]	; 0x70
 8003836:	f003 0302 	and.w	r3, r3, #2
 800383a:	2b00      	cmp	r3, #0
 800383c:	d0ee      	beq.n	800381c <HAL_RCC_OscConfig+0x364>
 800383e:	e014      	b.n	800386a <HAL_RCC_OscConfig+0x3b2>
      }
    }
    else
    {
      /* Get Start Tick*/
      tickstart = HAL_GetTick();
 8003840:	f7fe f8c2 	bl	80019c8 <HAL_GetTick>
 8003844:	6138      	str	r0, [r7, #16]

      /* Wait till LSE is ready */
      while(__HAL_RCC_GET_FLAG(RCC_FLAG_LSERDY) != RESET)
 8003846:	e00a      	b.n	800385e <HAL_RCC_OscConfig+0x3a6>
      {
        if((HAL_GetTick() - tickstart ) > RCC_LSE_TIMEOUT_VALUE)
 8003848:	f7fe f8be 	bl	80019c8 <HAL_GetTick>
 800384c:	4602      	mov	r2, r0
 800384e:	693b      	ldr	r3, [r7, #16]
 8003850:	1ad3      	subs	r3, r2, r3
 8003852:	f241 3288 	movw	r2, #5000	; 0x1388
 8003856:	4293      	cmp	r3, r2
 8003858:	d901      	bls.n	800385e <HAL_RCC_OscConfig+0x3a6>
        {
          return HAL_TIMEOUT;
 800385a:	2303      	movs	r3, #3
 800385c:	e07c      	b.n	8003958 <HAL_RCC_OscConfig+0x4a0>
      while(__HAL_RCC_GET_FLAG(RCC_FLAG_LSERDY) != RESET)
 800385e:	4b40      	ldr	r3, [pc, #256]	; (8003960 <HAL_RCC_OscConfig+0x4a8>)
 8003860:	6f1b      	ldr	r3, [r3, #112]	; 0x70
 8003862:	f003 0302 	and.w	r3, r3, #2
 8003866:	2b00      	cmp	r3, #0
 8003868:	d1ee      	bne.n	8003848 <HAL_RCC_OscConfig+0x390>
        }
      }
    }

    /* Restore clock configuration if changed */
    if(pwrclkchanged == SET)
 800386a:	7dfb      	ldrb	r3, [r7, #23]
 800386c:	2b01      	cmp	r3, #1
 800386e:	d105      	bne.n	800387c <HAL_RCC_OscConfig+0x3c4>
    {
      __HAL_RCC_PWR_CLK_DISABLE();
 8003870:	4b3b      	ldr	r3, [pc, #236]	; (8003960 <HAL_RCC_OscConfig+0x4a8>)
 8003872:	6c1b      	ldr	r3, [r3, #64]	; 0x40
 8003874:	4a3a      	ldr	r2, [pc, #232]	; (8003960 <HAL_RCC_OscConfig+0x4a8>)
 8003876:	f023 5380 	bic.w	r3, r3, #268435456	; 0x10000000
 800387a:	6413      	str	r3, [r2, #64]	; 0x40
    }
  }
  /*-------------------------------- PLL Configuration -----------------------*/
  /* Check the parameters */
  assert_param(IS_RCC_PLL(RCC_OscInitStruct->PLL.PLLState));
  if ((RCC_OscInitStruct->PLL.PLLState) != RCC_PLL_NONE)
 800387c:	687b      	ldr	r3, [r7, #4]
 800387e:	699b      	ldr	r3, [r3, #24]
 8003880:	2b00      	cmp	r3, #0
 8003882:	d068      	beq.n	8003956 <HAL_RCC_OscConfig+0x49e>
  {
    /* Check if the PLL is used as system clock or not */
    if(__HAL_RCC_GET_SYSCLK_SOURCE() != RCC_CFGR_SWS_PLL)
 8003884:	4b36      	ldr	r3, [pc, #216]	; (8003960 <HAL_RCC_OscConfig+0x4a8>)
 8003886:	689b      	ldr	r3, [r3, #8]
 8003888:	f003 030c 	and.w	r3, r3, #12
 800388c:	2b08      	cmp	r3, #8
 800388e:	d060      	beq.n	8003952 <HAL_RCC_OscConfig+0x49a>
    {
      if((RCC_OscInitStruct->PLL.PLLState) == RCC_PLL_ON)
 8003890:	687b      	ldr	r3, [r7, #4]
 8003892:	699b      	ldr	r3, [r3, #24]
 8003894:	2b02      	cmp	r3, #2
 8003896:	d145      	bne.n	8003924 <HAL_RCC_OscConfig+0x46c>
        assert_param(IS_RCC_PLLP_VALUE(RCC_OscInitStruct->PLL.PLLP));
        assert_param(IS_RCC_PLLQ_VALUE(RCC_OscInitStruct->PLL.PLLQ));
        assert_param(IS_RCC_PLLR_VALUE(RCC_OscInitStruct->PLL.PLLR));

        /* Disable the main PLL. */
        __HAL_RCC_PLL_DISABLE();
 8003898:	4b33      	ldr	r3, [pc, #204]	; (8003968 <HAL_RCC_OscConfig+0x4b0>)
 800389a:	2200      	movs	r2, #0
 800389c:	601a      	str	r2, [r3, #0]

        /* Get Start Tick*/
        tickstart = HAL_GetTick();
 800389e:	f7fe f893 	bl	80019c8 <HAL_GetTick>
 80038a2:	6138      	str	r0, [r7, #16]

        /* Wait till PLL is ready */
        while(__HAL_RCC_GET_FLAG(RCC_FLAG_PLLRDY) != RESET)
 80038a4:	e008      	b.n	80038b8 <HAL_RCC_OscConfig+0x400>
        {
          if((HAL_GetTick() - tickstart ) > PLL_TIMEOUT_VALUE)
 80038a6:	f7fe f88f 	bl	80019c8 <HAL_GetTick>
 80038aa:	4602      	mov	r2, r0
 80038ac:	693b      	ldr	r3, [r7, #16]
 80038ae:	1ad3      	subs	r3, r2, r3
 80038b0:	2b02      	cmp	r3, #2
 80038b2:	d901      	bls.n	80038b8 <HAL_RCC_OscConfig+0x400>
          {
            return HAL_TIMEOUT;
 80038b4:	2303      	movs	r3, #3
 80038b6:	e04f      	b.n	8003958 <HAL_RCC_OscConfig+0x4a0>
        while(__HAL_RCC_GET_FLAG(RCC_FLAG_PLLRDY) != RESET)
 80038b8:	4b29      	ldr	r3, [pc, #164]	; (8003960 <HAL_RCC_OscConfig+0x4a8>)
 80038ba:	681b      	ldr	r3, [r3, #0]
 80038bc:	f003 7300 	and.w	r3, r3, #33554432	; 0x2000000
 80038c0:	2b00      	cmp	r3, #0
 80038c2:	d1f0      	bne.n	80038a6 <HAL_RCC_OscConfig+0x3ee>
          }
        }

        /* Configure the main PLL clock source, multiplication and division factors. */
        __HAL_RCC_PLL_CONFIG(RCC_OscInitStruct->PLL.PLLSource,
 80038c4:	687b      	ldr	r3, [r7, #4]
 80038c6:	69da      	ldr	r2, [r3, #28]
 80038c8:	687b      	ldr	r3, [r7, #4]
 80038ca:	6a1b      	ldr	r3, [r3, #32]
 80038cc:	431a      	orrs	r2, r3
 80038ce:	687b      	ldr	r3, [r7, #4]
 80038d0:	6a5b      	ldr	r3, [r3, #36]	; 0x24
 80038d2:	019b      	lsls	r3, r3, #6
 80038d4:	431a      	orrs	r2, r3
 80038d6:	687b      	ldr	r3, [r7, #4]
 80038d8:	6a9b      	ldr	r3, [r3, #40]	; 0x28
 80038da:	085b      	lsrs	r3, r3, #1
 80038dc:	3b01      	subs	r3, #1
 80038de:	041b      	lsls	r3, r3, #16
 80038e0:	431a      	orrs	r2, r3
 80038e2:	687b      	ldr	r3, [r7, #4]
 80038e4:	6adb      	ldr	r3, [r3, #44]	; 0x2c
 80038e6:	061b      	lsls	r3, r3, #24
 80038e8:	431a      	orrs	r2, r3
 80038ea:	687b      	ldr	r3, [r7, #4]
 80038ec:	6b1b      	ldr	r3, [r3, #48]	; 0x30
 80038ee:	071b      	lsls	r3, r3, #28
 80038f0:	491b      	ldr	r1, [pc, #108]	; (8003960 <HAL_RCC_OscConfig+0x4a8>)
 80038f2:	4313      	orrs	r3, r2
 80038f4:	604b      	str	r3, [r1, #4]
                             RCC_OscInitStruct->PLL.PLLP,
                             RCC_OscInitStruct->PLL.PLLQ,
                             RCC_OscInitStruct->PLL.PLLR);

        /* Enable the main PLL. */
        __HAL_RCC_PLL_ENABLE();
 80038f6:	4b1c      	ldr	r3, [pc, #112]	; (8003968 <HAL_RCC_OscConfig+0x4b0>)
 80038f8:	2201      	movs	r2, #1
 80038fa:	601a      	str	r2, [r3, #0]

        /* Get Start Tick*/
        tickstart = HAL_GetTick();
 80038fc:	f7fe f864 	bl	80019c8 <HAL_GetTick>
 8003900:	6138      	str	r0, [r7, #16]

        /* Wait till PLL is ready */
        while(__HAL_RCC_GET_FLAG(RCC_FLAG_PLLRDY) == RESET)
 8003902:	e008      	b.n	8003916 <HAL_RCC_OscConfig+0x45e>
        {
          if((HAL_GetTick() - tickstart ) > PLL_TIMEOUT_VALUE)
 8003904:	f7fe f860 	bl	80019c8 <HAL_GetTick>
 8003908:	4602      	mov	r2, r0
 800390a:	693b      	ldr	r3, [r7, #16]
 800390c:	1ad3      	subs	r3, r2, r3
 800390e:	2b02      	cmp	r3, #2
 8003910:	d901      	bls.n	8003916 <HAL_RCC_OscConfig+0x45e>
          {
            return HAL_TIMEOUT;
 8003912:	2303      	movs	r3, #3
 8003914:	e020      	b.n	8003958 <HAL_RCC_OscConfig+0x4a0>
        while(__HAL_RCC_GET_FLAG(RCC_FLAG_PLLRDY) == RESET)
 8003916:	4b12      	ldr	r3, [pc, #72]	; (8003960 <HAL_RCC_OscConfig+0x4a8>)
 8003918:	681b      	ldr	r3, [r3, #0]
 800391a:	f003 7300 	and.w	r3, r3, #33554432	; 0x2000000
 800391e:	2b00      	cmp	r3, #0
 8003920:	d0f0      	beq.n	8003904 <HAL_RCC_OscConfig+0x44c>
 8003922:	e018      	b.n	8003956 <HAL_RCC_OscConfig+0x49e>
        }
      }
      else
      {
        /* Disable the main PLL. */
        __HAL_RCC_PLL_DISABLE();
 8003924:	4b10      	ldr	r3, [pc, #64]	; (8003968 <HAL_RCC_OscConfig+0x4b0>)
 8003926:	2200      	movs	r2, #0
 8003928:	601a      	str	r2, [r3, #0]

        /* Get Start Tick*/
        tickstart = HAL_GetTick();
 800392a:	f7fe f84d 	bl	80019c8 <HAL_GetTick>
 800392e:	6138      	str	r0, [r7, #16]

        /* Wait till PLL is ready */
        while(__HAL_RCC_GET_FLAG(RCC_FLAG_PLLRDY) != RESET)
 8003930:	e008      	b.n	8003944 <HAL_RCC_OscConfig+0x48c>
        {
          if((HAL_GetTick() - tickstart ) > PLL_TIMEOUT_VALUE)
 8003932:	f7fe f849 	bl	80019c8 <HAL_GetTick>
 8003936:	4602      	mov	r2, r0
 8003938:	693b      	ldr	r3, [r7, #16]
 800393a:	1ad3      	subs	r3, r2, r3
 800393c:	2b02      	cmp	r3, #2
 800393e:	d901      	bls.n	8003944 <HAL_RCC_OscConfig+0x48c>
          {
            return HAL_TIMEOUT;
 8003940:	2303      	movs	r3, #3
 8003942:	e009      	b.n	8003958 <HAL_RCC_OscConfig+0x4a0>
        while(__HAL_RCC_GET_FLAG(RCC_FLAG_PLLRDY) != RESET)
 8003944:	4b06      	ldr	r3, [pc, #24]	; (8003960 <HAL_RCC_OscConfig+0x4a8>)
 8003946:	681b      	ldr	r3, [r3, #0]
 8003948:	f003 7300 	and.w	r3, r3, #33554432	; 0x2000000
 800394c:	2b00      	cmp	r3, #0
 800394e:	d1f0      	bne.n	8003932 <HAL_RCC_OscConfig+0x47a>
 8003950:	e001      	b.n	8003956 <HAL_RCC_OscConfig+0x49e>
        }
      }
    }
    else
    {
      return HAL_ERROR;
 8003952:	2301      	movs	r3, #1
 8003954:	e000      	b.n	8003958 <HAL_RCC_OscConfig+0x4a0>
    }
  }
  return HAL_OK;
 8003956:	2300      	movs	r3, #0
}
 8003958:	4618      	mov	r0, r3
 800395a:	3718      	adds	r7, #24
 800395c:	46bd      	mov	sp, r7
 800395e:	bd80      	pop	{r7, pc}
 8003960:	40023800 	.word	0x40023800
 8003964:	40007000 	.word	0x40007000
 8003968:	42470060 	.word	0x42470060

0800396c <HAL_UART_Init>:
  * @param  huart  Pointer to a UART_HandleTypeDef structure that contains
  *                the configuration information for the specified UART module.
  * @retval HAL status
  */
HAL_StatusTypeDef HAL_UART_Init(UART_HandleTypeDef *huart)
{
 800396c:	b580      	push	{r7, lr}
 800396e:	b082      	sub	sp, #8
 8003970:	af00      	add	r7, sp, #0
 8003972:	6078      	str	r0, [r7, #4]
  /* Check the UART handle allocation */
  if (huart == NULL)
 8003974:	687b      	ldr	r3, [r7, #4]
 8003976:	2b00      	cmp	r3, #0
 8003978:	d101      	bne.n	800397e <HAL_UART_Init+0x12>
  {
    return HAL_ERROR;
 800397a:	2301      	movs	r3, #1
 800397c:	e03f      	b.n	80039fe <HAL_UART_Init+0x92>
    assert_param(IS_UART_INSTANCE(huart->Instance));
  }
  assert_param(IS_UART_WORD_LENGTH(huart->Init.WordLength));
  assert_param(IS_UART_OVERSAMPLING(huart->Init.OverSampling));

  if (huart->gState == HAL_UART_STATE_RESET)
 800397e:	687b      	ldr	r3, [r7, #4]
 8003980:	f893 3039 	ldrb.w	r3, [r3, #57]	; 0x39
 8003984:	b2db      	uxtb	r3, r3
 8003986:	2b00      	cmp	r3, #0
 8003988:	d106      	bne.n	8003998 <HAL_UART_Init+0x2c>
  {
    /* Allocate lock resource and initialize it */
    huart->Lock = HAL_UNLOCKED;
 800398a:	687b      	ldr	r3, [r7, #4]
 800398c:	2200      	movs	r2, #0
 800398e:	f883 2038 	strb.w	r2, [r3, #56]	; 0x38

    /* Init the low level hardware */
    huart->MspInitCallback(huart);
#else
    /* Init the low level hardware : GPIO, CLOCK */
    HAL_UART_MspInit(huart);
 8003992:	6878      	ldr	r0, [r7, #4]
 8003994:	f7fd fec0 	bl	8001718 <HAL_UART_MspInit>
#endif /* (USE_HAL_UART_REGISTER_CALLBACKS) */
  }

  huart->gState = HAL_UART_STATE_BUSY;
 8003998:	687b      	ldr	r3, [r7, #4]
 800399a:	2224      	movs	r2, #36	; 0x24
 800399c:	f883 2039 	strb.w	r2, [r3, #57]	; 0x39

  /* Disable the peripheral */
  __HAL_UART_DISABLE(huart);
 80039a0:	687b      	ldr	r3, [r7, #4]
 80039a2:	681b      	ldr	r3, [r3, #0]
 80039a4:	68da      	ldr	r2, [r3, #12]
 80039a6:	687b      	ldr	r3, [r7, #4]
 80039a8:	681b      	ldr	r3, [r3, #0]
 80039aa:	f422 5200 	bic.w	r2, r2, #8192	; 0x2000
 80039ae:	60da      	str	r2, [r3, #12]

  /* Set the UART Communication parameters */
  UART_SetConfig(huart);
 80039b0:	6878      	ldr	r0, [r7, #4]
 80039b2:	f000 f90b 	bl	8003bcc <UART_SetConfig>

  /* In asynchronous mode, the following bits must be kept cleared:
     - LINEN and CLKEN bits in the USART_CR2 register,
     - SCEN, HDSEL and IREN  bits in the USART_CR3 register.*/
  CLEAR_BIT(huart->Instance->CR2, (USART_CR2_LINEN | USART_CR2_CLKEN));
 80039b6:	687b      	ldr	r3, [r7, #4]
 80039b8:	681b      	ldr	r3, [r3, #0]
 80039ba:	691a      	ldr	r2, [r3, #16]
 80039bc:	687b      	ldr	r3, [r7, #4]
 80039be:	681b      	ldr	r3, [r3, #0]
 80039c0:	f422 4290 	bic.w	r2, r2, #18432	; 0x4800
 80039c4:	611a      	str	r2, [r3, #16]
  CLEAR_BIT(huart->Instance->CR3, (USART_CR3_SCEN | USART_CR3_HDSEL | USART_CR3_IREN));
 80039c6:	687b      	ldr	r3, [r7, #4]
 80039c8:	681b      	ldr	r3, [r3, #0]
 80039ca:	695a      	ldr	r2, [r3, #20]
 80039cc:	687b      	ldr	r3, [r7, #4]
 80039ce:	681b      	ldr	r3, [r3, #0]
 80039d0:	f022 022a 	bic.w	r2, r2, #42	; 0x2a
 80039d4:	615a      	str	r2, [r3, #20]

  /* Enable the peripheral */
  __HAL_UART_ENABLE(huart);
 80039d6:	687b      	ldr	r3, [r7, #4]
 80039d8:	681b      	ldr	r3, [r3, #0]
 80039da:	68da      	ldr	r2, [r3, #12]
 80039dc:	687b      	ldr	r3, [r7, #4]
 80039de:	681b      	ldr	r3, [r3, #0]
 80039e0:	f442 5200 	orr.w	r2, r2, #8192	; 0x2000
 80039e4:	60da      	str	r2, [r3, #12]

  /* Initialize the UART state */
  huart->ErrorCode = HAL_UART_ERROR_NONE;
 80039e6:	687b      	ldr	r3, [r7, #4]
 80039e8:	2200      	movs	r2, #0
 80039ea:	63da      	str	r2, [r3, #60]	; 0x3c
  huart->gState = HAL_UART_STATE_READY;
 80039ec:	687b      	ldr	r3, [r7, #4]
 80039ee:	2220      	movs	r2, #32
 80039f0:	f883 2039 	strb.w	r2, [r3, #57]	; 0x39
  huart->RxState = HAL_UART_STATE_READY;
 80039f4:	687b      	ldr	r3, [r7, #4]
 80039f6:	2220      	movs	r2, #32
 80039f8:	f883 203a 	strb.w	r2, [r3, #58]	; 0x3a

  return HAL_OK;
 80039fc:	2300      	movs	r3, #0
}
 80039fe:	4618      	mov	r0, r3
 8003a00:	3708      	adds	r7, #8
 8003a02:	46bd      	mov	sp, r7
 8003a04:	bd80      	pop	{r7, pc}

08003a06 <HAL_UART_Transmit>:
  * @param  Size  Amount of data elements (u8 or u16) to be sent
  * @param  Timeout Timeout duration
  * @retval HAL status
  */
HAL_StatusTypeDef HAL_UART_Transmit(UART_HandleTypeDef *huart, uint8_t *pData, uint16_t Size, uint32_t Timeout)
{
 8003a06:	b580      	push	{r7, lr}
 8003a08:	b088      	sub	sp, #32
 8003a0a:	af02      	add	r7, sp, #8
 8003a0c:	60f8      	str	r0, [r7, #12]
 8003a0e:	60b9      	str	r1, [r7, #8]
 8003a10:	603b      	str	r3, [r7, #0]
 8003a12:	4613      	mov	r3, r2
 8003a14:	80fb      	strh	r3, [r7, #6]
  uint16_t *tmp;
  uint32_t tickstart = 0U;
 8003a16:	2300      	movs	r3, #0
 8003a18:	617b      	str	r3, [r7, #20]

  /* Check that a Tx process is not already ongoing */
  if (huart->gState == HAL_UART_STATE_READY)
 8003a1a:	68fb      	ldr	r3, [r7, #12]
 8003a1c:	f893 3039 	ldrb.w	r3, [r3, #57]	; 0x39
 8003a20:	b2db      	uxtb	r3, r3
 8003a22:	2b20      	cmp	r3, #32
 8003a24:	f040 8083 	bne.w	8003b2e <HAL_UART_Transmit+0x128>
  {
    if ((pData == NULL) || (Size == 0U))
 8003a28:	68bb      	ldr	r3, [r7, #8]
 8003a2a:	2b00      	cmp	r3, #0
 8003a2c:	d002      	beq.n	8003a34 <HAL_UART_Transmit+0x2e>
 8003a2e:	88fb      	ldrh	r3, [r7, #6]
 8003a30:	2b00      	cmp	r3, #0
 8003a32:	d101      	bne.n	8003a38 <HAL_UART_Transmit+0x32>
    {
      return  HAL_ERROR;
 8003a34:	2301      	movs	r3, #1
 8003a36:	e07b      	b.n	8003b30 <HAL_UART_Transmit+0x12a>
    }

    /* Process Locked */
    __HAL_LOCK(huart);
 8003a38:	68fb      	ldr	r3, [r7, #12]
 8003a3a:	f893 3038 	ldrb.w	r3, [r3, #56]	; 0x38
 8003a3e:	2b01      	cmp	r3, #1
 8003a40:	d101      	bne.n	8003a46 <HAL_UART_Transmit+0x40>
 8003a42:	2302      	movs	r3, #2
 8003a44:	e074      	b.n	8003b30 <HAL_UART_Transmit+0x12a>
 8003a46:	68fb      	ldr	r3, [r7, #12]
 8003a48:	2201      	movs	r2, #1
 8003a4a:	f883 2038 	strb.w	r2, [r3, #56]	; 0x38

    huart->ErrorCode = HAL_UART_ERROR_NONE;
 8003a4e:	68fb      	ldr	r3, [r7, #12]
 8003a50:	2200      	movs	r2, #0
 8003a52:	63da      	str	r2, [r3, #60]	; 0x3c
    huart->gState = HAL_UART_STATE_BUSY_TX;
 8003a54:	68fb      	ldr	r3, [r7, #12]
 8003a56:	2221      	movs	r2, #33	; 0x21
 8003a58:	f883 2039 	strb.w	r2, [r3, #57]	; 0x39

    /* Init tickstart for timeout managment */
    tickstart = HAL_GetTick();
 8003a5c:	f7fd ffb4 	bl	80019c8 <HAL_GetTick>
 8003a60:	6178      	str	r0, [r7, #20]

    huart->TxXferSize = Size;
 8003a62:	68fb      	ldr	r3, [r7, #12]
 8003a64:	88fa      	ldrh	r2, [r7, #6]
 8003a66:	849a      	strh	r2, [r3, #36]	; 0x24
    huart->TxXferCount = Size;
 8003a68:	68fb      	ldr	r3, [r7, #12]
 8003a6a:	88fa      	ldrh	r2, [r7, #6]
 8003a6c:	84da      	strh	r2, [r3, #38]	; 0x26

    /* Process Unlocked */
    __HAL_UNLOCK(huart);
 8003a6e:	68fb      	ldr	r3, [r7, #12]
 8003a70:	2200      	movs	r2, #0
 8003a72:	f883 2038 	strb.w	r2, [r3, #56]	; 0x38

    while (huart->TxXferCount > 0U)
 8003a76:	e042      	b.n	8003afe <HAL_UART_Transmit+0xf8>
    {
      huart->TxXferCount--;
 8003a78:	68fb      	ldr	r3, [r7, #12]
 8003a7a:	8cdb      	ldrh	r3, [r3, #38]	; 0x26
 8003a7c:	b29b      	uxth	r3, r3
 8003a7e:	3b01      	subs	r3, #1
 8003a80:	b29a      	uxth	r2, r3
 8003a82:	68fb      	ldr	r3, [r7, #12]
 8003a84:	84da      	strh	r2, [r3, #38]	; 0x26
      if (huart->Init.WordLength == UART_WORDLENGTH_9B)
 8003a86:	68fb      	ldr	r3, [r7, #12]
 8003a88:	689b      	ldr	r3, [r3, #8]
 8003a8a:	f5b3 5f80 	cmp.w	r3, #4096	; 0x1000
 8003a8e:	d122      	bne.n	8003ad6 <HAL_UART_Transmit+0xd0>
      {
        if (UART_WaitOnFlagUntilTimeout(huart, UART_FLAG_TXE, RESET, tickstart, Timeout) != HAL_OK)
 8003a90:	683b      	ldr	r3, [r7, #0]
 8003a92:	9300      	str	r3, [sp, #0]
 8003a94:	697b      	ldr	r3, [r7, #20]
 8003a96:	2200      	movs	r2, #0
 8003a98:	2180      	movs	r1, #128	; 0x80
 8003a9a:	68f8      	ldr	r0, [r7, #12]
 8003a9c:	f000 f84c 	bl	8003b38 <UART_WaitOnFlagUntilTimeout>
 8003aa0:	4603      	mov	r3, r0
 8003aa2:	2b00      	cmp	r3, #0
 8003aa4:	d001      	beq.n	8003aaa <HAL_UART_Transmit+0xa4>
        {
          return HAL_TIMEOUT;
 8003aa6:	2303      	movs	r3, #3
 8003aa8:	e042      	b.n	8003b30 <HAL_UART_Transmit+0x12a>
        }
        tmp = (uint16_t *) pData;
 8003aaa:	68bb      	ldr	r3, [r7, #8]
 8003aac:	613b      	str	r3, [r7, #16]
        huart->Instance->DR = (*tmp & (uint16_t)0x01FF);
 8003aae:	693b      	ldr	r3, [r7, #16]
 8003ab0:	881b      	ldrh	r3, [r3, #0]
 8003ab2:	461a      	mov	r2, r3
 8003ab4:	68fb      	ldr	r3, [r7, #12]
 8003ab6:	681b      	ldr	r3, [r3, #0]
 8003ab8:	f3c2 0208 	ubfx	r2, r2, #0, #9
 8003abc:	605a      	str	r2, [r3, #4]
        if (huart->Init.Parity == UART_PARITY_NONE)
 8003abe:	68fb      	ldr	r3, [r7, #12]
 8003ac0:	691b      	ldr	r3, [r3, #16]
 8003ac2:	2b00      	cmp	r3, #0
 8003ac4:	d103      	bne.n	8003ace <HAL_UART_Transmit+0xc8>
        {
          pData += 2U;
 8003ac6:	68bb      	ldr	r3, [r7, #8]
 8003ac8:	3302      	adds	r3, #2
 8003aca:	60bb      	str	r3, [r7, #8]
 8003acc:	e017      	b.n	8003afe <HAL_UART_Transmit+0xf8>
        }
        else
        {
          pData += 1U;
 8003ace:	68bb      	ldr	r3, [r7, #8]
 8003ad0:	3301      	adds	r3, #1
 8003ad2:	60bb      	str	r3, [r7, #8]
 8003ad4:	e013      	b.n	8003afe <HAL_UART_Transmit+0xf8>
        }
      }
      else
      {
        if (UART_WaitOnFlagUntilTimeout(huart, UART_FLAG_TXE, RESET, tickstart, Timeout) != HAL_OK)
 8003ad6:	683b      	ldr	r3, [r7, #0]
 8003ad8:	9300      	str	r3, [sp, #0]
 8003ada:	697b      	ldr	r3, [r7, #20]
 8003adc:	2200      	movs	r2, #0
 8003ade:	2180      	movs	r1, #128	; 0x80
 8003ae0:	68f8      	ldr	r0, [r7, #12]
 8003ae2:	f000 f829 	bl	8003b38 <UART_WaitOnFlagUntilTimeout>
 8003ae6:	4603      	mov	r3, r0
 8003ae8:	2b00      	cmp	r3, #0
 8003aea:	d001      	beq.n	8003af0 <HAL_UART_Transmit+0xea>
        {
          return HAL_TIMEOUT;
 8003aec:	2303      	movs	r3, #3
 8003aee:	e01f      	b.n	8003b30 <HAL_UART_Transmit+0x12a>
        }
        huart->Instance->DR = (*pData++ & (uint8_t)0xFF);
 8003af0:	68bb      	ldr	r3, [r7, #8]
 8003af2:	1c5a      	adds	r2, r3, #1
 8003af4:	60ba      	str	r2, [r7, #8]
 8003af6:	781a      	ldrb	r2, [r3, #0]
 8003af8:	68fb      	ldr	r3, [r7, #12]
 8003afa:	681b      	ldr	r3, [r3, #0]
 8003afc:	605a      	str	r2, [r3, #4]
    while (huart->TxXferCount > 0U)
 8003afe:	68fb      	ldr	r3, [r7, #12]
 8003b00:	8cdb      	ldrh	r3, [r3, #38]	; 0x26
 8003b02:	b29b      	uxth	r3, r3
 8003b04:	2b00      	cmp	r3, #0
 8003b06:	d1b7      	bne.n	8003a78 <HAL_UART_Transmit+0x72>
      }
    }

    if (UART_WaitOnFlagUntilTimeout(huart, UART_FLAG_TC, RESET, tickstart, Timeout) != HAL_OK)
 8003b08:	683b      	ldr	r3, [r7, #0]
 8003b0a:	9300      	str	r3, [sp, #0]
 8003b0c:	697b      	ldr	r3, [r7, #20]
 8003b0e:	2200      	movs	r2, #0
 8003b10:	2140      	movs	r1, #64	; 0x40
 8003b12:	68f8      	ldr	r0, [r7, #12]
 8003b14:	f000 f810 	bl	8003b38 <UART_WaitOnFlagUntilTimeout>
 8003b18:	4603      	mov	r3, r0
 8003b1a:	2b00      	cmp	r3, #0
 8003b1c:	d001      	beq.n	8003b22 <HAL_UART_Transmit+0x11c>
    {
      return HAL_TIMEOUT;
 8003b1e:	2303      	movs	r3, #3
 8003b20:	e006      	b.n	8003b30 <HAL_UART_Transmit+0x12a>
    }

    /* At end of Tx process, restore huart->gState to Ready */
    huart->gState = HAL_UART_STATE_READY;
 8003b22:	68fb      	ldr	r3, [r7, #12]
 8003b24:	2220      	movs	r2, #32
 8003b26:	f883 2039 	strb.w	r2, [r3, #57]	; 0x39

    return HAL_OK;
 8003b2a:	2300      	movs	r3, #0
 8003b2c:	e000      	b.n	8003b30 <HAL_UART_Transmit+0x12a>
  }
  else
  {
    return HAL_BUSY;
 8003b2e:	2302      	movs	r3, #2
  }
}
 8003b30:	4618      	mov	r0, r3
 8003b32:	3718      	adds	r7, #24
 8003b34:	46bd      	mov	sp, r7
 8003b36:	bd80      	pop	{r7, pc}

08003b38 <UART_WaitOnFlagUntilTimeout>:
  * @param  Tickstart Tick start value
  * @param  Timeout Timeout duration
  * @retval HAL status
  */
static HAL_StatusTypeDef UART_WaitOnFlagUntilTimeout(UART_HandleTypeDef *huart, uint32_t Flag, FlagStatus Status, uint32_t Tickstart, uint32_t Timeout)
{
 8003b38:	b580      	push	{r7, lr}
 8003b3a:	b084      	sub	sp, #16
 8003b3c:	af00      	add	r7, sp, #0
 8003b3e:	60f8      	str	r0, [r7, #12]
 8003b40:	60b9      	str	r1, [r7, #8]
 8003b42:	603b      	str	r3, [r7, #0]
 8003b44:	4613      	mov	r3, r2
 8003b46:	71fb      	strb	r3, [r7, #7]
  /* Wait until flag is set */
  while ((__HAL_UART_GET_FLAG(huart, Flag) ? SET : RESET) == Status)
 8003b48:	e02c      	b.n	8003ba4 <UART_WaitOnFlagUntilTimeout+0x6c>
  {
    /* Check for the Timeout */
    if (Timeout != HAL_MAX_DELAY)
 8003b4a:	69bb      	ldr	r3, [r7, #24]
 8003b4c:	f1b3 3fff 	cmp.w	r3, #4294967295
 8003b50:	d028      	beq.n	8003ba4 <UART_WaitOnFlagUntilTimeout+0x6c>
    {
      if ((Timeout == 0U) || ((HAL_GetTick() - Tickstart) > Timeout))
 8003b52:	69bb      	ldr	r3, [r7, #24]
 8003b54:	2b00      	cmp	r3, #0
 8003b56:	d007      	beq.n	8003b68 <UART_WaitOnFlagUntilTimeout+0x30>
 8003b58:	f7fd ff36 	bl	80019c8 <HAL_GetTick>
 8003b5c:	4602      	mov	r2, r0
 8003b5e:	683b      	ldr	r3, [r7, #0]
 8003b60:	1ad3      	subs	r3, r2, r3
 8003b62:	69ba      	ldr	r2, [r7, #24]
 8003b64:	429a      	cmp	r2, r3
 8003b66:	d21d      	bcs.n	8003ba4 <UART_WaitOnFlagUntilTimeout+0x6c>
      {
        /* Disable TXE, RXNE, PE and ERR (Frame error, noise error, overrun error) interrupts for the interrupt process */
        CLEAR_BIT(huart->Instance->CR1, (USART_CR1_RXNEIE | USART_CR1_PEIE | USART_CR1_TXEIE));
 8003b68:	68fb      	ldr	r3, [r7, #12]
 8003b6a:	681b      	ldr	r3, [r3, #0]
 8003b6c:	68da      	ldr	r2, [r3, #12]
 8003b6e:	68fb      	ldr	r3, [r7, #12]
 8003b70:	681b      	ldr	r3, [r3, #0]
 8003b72:	f422 72d0 	bic.w	r2, r2, #416	; 0x1a0
 8003b76:	60da      	str	r2, [r3, #12]
        CLEAR_BIT(huart->Instance->CR3, USART_CR3_EIE);
 8003b78:	68fb      	ldr	r3, [r7, #12]
 8003b7a:	681b      	ldr	r3, [r3, #0]
 8003b7c:	695a      	ldr	r2, [r3, #20]
 8003b7e:	68fb      	ldr	r3, [r7, #12]
 8003b80:	681b      	ldr	r3, [r3, #0]
 8003b82:	f022 0201 	bic.w	r2, r2, #1
 8003b86:	615a      	str	r2, [r3, #20]

        huart->gState  = HAL_UART_STATE_READY;
 8003b88:	68fb      	ldr	r3, [r7, #12]
 8003b8a:	2220      	movs	r2, #32
 8003b8c:	f883 2039 	strb.w	r2, [r3, #57]	; 0x39
        huart->RxState = HAL_UART_STATE_READY;
 8003b90:	68fb      	ldr	r3, [r7, #12]
 8003b92:	2220      	movs	r2, #32
 8003b94:	f883 203a 	strb.w	r2, [r3, #58]	; 0x3a

        /* Process Unlocked */
        __HAL_UNLOCK(huart);
 8003b98:	68fb      	ldr	r3, [r7, #12]
 8003b9a:	2200      	movs	r2, #0
 8003b9c:	f883 2038 	strb.w	r2, [r3, #56]	; 0x38

        return HAL_TIMEOUT;
 8003ba0:	2303      	movs	r3, #3
 8003ba2:	e00f      	b.n	8003bc4 <UART_WaitOnFlagUntilTimeout+0x8c>
  while ((__HAL_UART_GET_FLAG(huart, Flag) ? SET : RESET) == Status)
 8003ba4:	68fb      	ldr	r3, [r7, #12]
 8003ba6:	681b      	ldr	r3, [r3, #0]
 8003ba8:	681a      	ldr	r2, [r3, #0]
 8003baa:	68bb      	ldr	r3, [r7, #8]
 8003bac:	4013      	ands	r3, r2
 8003bae:	68ba      	ldr	r2, [r7, #8]
 8003bb0:	429a      	cmp	r2, r3
 8003bb2:	bf0c      	ite	eq
 8003bb4:	2301      	moveq	r3, #1
 8003bb6:	2300      	movne	r3, #0
 8003bb8:	b2db      	uxtb	r3, r3
 8003bba:	461a      	mov	r2, r3
 8003bbc:	79fb      	ldrb	r3, [r7, #7]
 8003bbe:	429a      	cmp	r2, r3
 8003bc0:	d0c3      	beq.n	8003b4a <UART_WaitOnFlagUntilTimeout+0x12>
      }
    }
  }
  return HAL_OK;
 8003bc2:	2300      	movs	r3, #0
}
 8003bc4:	4618      	mov	r0, r3
 8003bc6:	3710      	adds	r7, #16
 8003bc8:	46bd      	mov	sp, r7
 8003bca:	bd80      	pop	{r7, pc}

08003bcc <UART_SetConfig>:
  * @param  huart  Pointer to a UART_HandleTypeDef structure that contains
  *                the configuration information for the specified UART module.
  * @retval None
  */
static void UART_SetConfig(UART_HandleTypeDef *huart)
{
 8003bcc:	e92d 4ff0 	stmdb	sp!, {r4, r5, r6, r7, r8, r9, sl, fp, lr}
 8003bd0:	b085      	sub	sp, #20
 8003bd2:	af00      	add	r7, sp, #0
 8003bd4:	6078      	str	r0, [r7, #4]
  assert_param(IS_UART_MODE(huart->Init.Mode));

  /*-------------------------- USART CR2 Configuration -----------------------*/
  /* Configure the UART Stop Bits: Set STOP[13:12] bits
     according to huart->Init.StopBits value */
  MODIFY_REG(huart->Instance->CR2, USART_CR2_STOP, huart->Init.StopBits);
 8003bd6:	687b      	ldr	r3, [r7, #4]
 8003bd8:	681b      	ldr	r3, [r3, #0]
 8003bda:	691b      	ldr	r3, [r3, #16]
 8003bdc:	f423 5140 	bic.w	r1, r3, #12288	; 0x3000
 8003be0:	687b      	ldr	r3, [r7, #4]
 8003be2:	68da      	ldr	r2, [r3, #12]
 8003be4:	687b      	ldr	r3, [r7, #4]
 8003be6:	681b      	ldr	r3, [r3, #0]
 8003be8:	430a      	orrs	r2, r1
 8003bea:	611a      	str	r2, [r3, #16]
     Set the M bits according to huart->Init.WordLength value
     Set PCE and PS bits according to huart->Init.Parity value
     Set TE and RE bits according to huart->Init.Mode value
     Set OVER8 bit according to huart->Init.OverSampling value */

  tmpreg = (uint32_t)huart->Init.WordLength | huart->Init.Parity | huart->Init.Mode | huart->Init.OverSampling;
 8003bec:	687b      	ldr	r3, [r7, #4]
 8003bee:	689a      	ldr	r2, [r3, #8]
 8003bf0:	687b      	ldr	r3, [r7, #4]
 8003bf2:	691b      	ldr	r3, [r3, #16]
 8003bf4:	431a      	orrs	r2, r3
 8003bf6:	687b      	ldr	r3, [r7, #4]
 8003bf8:	695b      	ldr	r3, [r3, #20]
 8003bfa:	431a      	orrs	r2, r3
 8003bfc:	687b      	ldr	r3, [r7, #4]
 8003bfe:	69db      	ldr	r3, [r3, #28]
 8003c00:	4313      	orrs	r3, r2
 8003c02:	60fb      	str	r3, [r7, #12]
  MODIFY_REG(huart->Instance->CR1,
 8003c04:	687b      	ldr	r3, [r7, #4]
 8003c06:	681b      	ldr	r3, [r3, #0]
 8003c08:	68db      	ldr	r3, [r3, #12]
 8003c0a:	f423 4316 	bic.w	r3, r3, #38400	; 0x9600
 8003c0e:	f023 030c 	bic.w	r3, r3, #12
 8003c12:	687a      	ldr	r2, [r7, #4]
 8003c14:	6812      	ldr	r2, [r2, #0]
 8003c16:	68f9      	ldr	r1, [r7, #12]
 8003c18:	430b      	orrs	r3, r1
 8003c1a:	60d3      	str	r3, [r2, #12]
             (uint32_t)(USART_CR1_M | USART_CR1_PCE | USART_CR1_PS | USART_CR1_TE | USART_CR1_RE | USART_CR1_OVER8),
             tmpreg);

  /*-------------------------- USART CR3 Configuration -----------------------*/
  /* Configure the UART HFC: Set CTSE and RTSE bits according to huart->Init.HwFlowCtl value */
  MODIFY_REG(huart->Instance->CR3, (USART_CR3_RTSE | USART_CR3_CTSE), huart->Init.HwFlowCtl);
 8003c1c:	687b      	ldr	r3, [r7, #4]
 8003c1e:	681b      	ldr	r3, [r3, #0]
 8003c20:	695b      	ldr	r3, [r3, #20]
 8003c22:	f423 7140 	bic.w	r1, r3, #768	; 0x300
 8003c26:	687b      	ldr	r3, [r7, #4]
 8003c28:	699a      	ldr	r2, [r3, #24]
 8003c2a:	687b      	ldr	r3, [r7, #4]
 8003c2c:	681b      	ldr	r3, [r3, #0]
 8003c2e:	430a      	orrs	r2, r1
 8003c30:	615a      	str	r2, [r3, #20]

  /* Check the Over Sampling */
  if (huart->Init.OverSampling == UART_OVERSAMPLING_8)
 8003c32:	687b      	ldr	r3, [r7, #4]
 8003c34:	69db      	ldr	r3, [r3, #28]
 8003c36:	f5b3 4f00 	cmp.w	r3, #32768	; 0x8000
 8003c3a:	f040 818b 	bne.w	8003f54 <UART_SetConfig+0x388>
    {
      pclk = HAL_RCC_GetPCLK2Freq();
      huart->Instance->BRR = UART_BRR_SAMPLING8(pclk, huart->Init.BaudRate);
    }
#elif defined(USART6)
    if ((huart->Instance == USART1) || (huart->Instance == USART6))
 8003c3e:	687b      	ldr	r3, [r7, #4]
 8003c40:	681b      	ldr	r3, [r3, #0]
 8003c42:	4ac1      	ldr	r2, [pc, #772]	; (8003f48 <UART_SetConfig+0x37c>)
 8003c44:	4293      	cmp	r3, r2
 8003c46:	d005      	beq.n	8003c54 <UART_SetConfig+0x88>
 8003c48:	687b      	ldr	r3, [r7, #4]
 8003c4a:	681b      	ldr	r3, [r3, #0]
 8003c4c:	4abf      	ldr	r2, [pc, #764]	; (8003f4c <UART_SetConfig+0x380>)
 8003c4e:	4293      	cmp	r3, r2
 8003c50:	f040 80bd 	bne.w	8003dce <UART_SetConfig+0x202>
    {
      pclk = HAL_RCC_GetPCLK2Freq();
 8003c54:	f7ff fa7c 	bl	8003150 <HAL_RCC_GetPCLK2Freq>
 8003c58:	60b8      	str	r0, [r7, #8]
      huart->Instance->BRR = UART_BRR_SAMPLING8(pclk, huart->Init.BaudRate);
 8003c5a:	68bb      	ldr	r3, [r7, #8]
 8003c5c:	461d      	mov	r5, r3
 8003c5e:	f04f 0600 	mov.w	r6, #0
 8003c62:	46a8      	mov	r8, r5
 8003c64:	46b1      	mov	r9, r6
 8003c66:	eb18 0308 	adds.w	r3, r8, r8
 8003c6a:	eb49 0409 	adc.w	r4, r9, r9
 8003c6e:	4698      	mov	r8, r3
 8003c70:	46a1      	mov	r9, r4
 8003c72:	eb18 0805 	adds.w	r8, r8, r5
 8003c76:	eb49 0906 	adc.w	r9, r9, r6
 8003c7a:	f04f 0100 	mov.w	r1, #0
 8003c7e:	f04f 0200 	mov.w	r2, #0
 8003c82:	ea4f 02c9 	mov.w	r2, r9, lsl #3
 8003c86:	ea42 7258 	orr.w	r2, r2, r8, lsr #29
 8003c8a:	ea4f 01c8 	mov.w	r1, r8, lsl #3
 8003c8e:	4688      	mov	r8, r1
 8003c90:	4691      	mov	r9, r2
 8003c92:	eb18 0005 	adds.w	r0, r8, r5
 8003c96:	eb49 0106 	adc.w	r1, r9, r6
 8003c9a:	687b      	ldr	r3, [r7, #4]
 8003c9c:	685b      	ldr	r3, [r3, #4]
 8003c9e:	461d      	mov	r5, r3
 8003ca0:	f04f 0600 	mov.w	r6, #0
 8003ca4:	196b      	adds	r3, r5, r5
 8003ca6:	eb46 0406 	adc.w	r4, r6, r6
 8003caa:	461a      	mov	r2, r3
 8003cac:	4623      	mov	r3, r4
 8003cae:	f7fc ffeb 	bl	8000c88 <__aeabi_uldivmod>
 8003cb2:	4603      	mov	r3, r0
 8003cb4:	460c      	mov	r4, r1
 8003cb6:	461a      	mov	r2, r3
 8003cb8:	4ba5      	ldr	r3, [pc, #660]	; (8003f50 <UART_SetConfig+0x384>)
 8003cba:	fba3 2302 	umull	r2, r3, r3, r2
 8003cbe:	095b      	lsrs	r3, r3, #5
 8003cc0:	ea4f 1803 	mov.w	r8, r3, lsl #4
 8003cc4:	68bb      	ldr	r3, [r7, #8]
 8003cc6:	461d      	mov	r5, r3
 8003cc8:	f04f 0600 	mov.w	r6, #0
 8003ccc:	46a9      	mov	r9, r5
 8003cce:	46b2      	mov	sl, r6
 8003cd0:	eb19 0309 	adds.w	r3, r9, r9
 8003cd4:	eb4a 040a 	adc.w	r4, sl, sl
 8003cd8:	4699      	mov	r9, r3
 8003cda:	46a2      	mov	sl, r4
 8003cdc:	eb19 0905 	adds.w	r9, r9, r5
 8003ce0:	eb4a 0a06 	adc.w	sl, sl, r6
 8003ce4:	f04f 0100 	mov.w	r1, #0
 8003ce8:	f04f 0200 	mov.w	r2, #0
 8003cec:	ea4f 02ca 	mov.w	r2, sl, lsl #3
 8003cf0:	ea42 7259 	orr.w	r2, r2, r9, lsr #29
 8003cf4:	ea4f 01c9 	mov.w	r1, r9, lsl #3
 8003cf8:	4689      	mov	r9, r1
 8003cfa:	4692      	mov	sl, r2
 8003cfc:	eb19 0005 	adds.w	r0, r9, r5
 8003d00:	eb4a 0106 	adc.w	r1, sl, r6
 8003d04:	687b      	ldr	r3, [r7, #4]
 8003d06:	685b      	ldr	r3, [r3, #4]
 8003d08:	461d      	mov	r5, r3
 8003d0a:	f04f 0600 	mov.w	r6, #0
 8003d0e:	196b      	adds	r3, r5, r5
 8003d10:	eb46 0406 	adc.w	r4, r6, r6
 8003d14:	461a      	mov	r2, r3
 8003d16:	4623      	mov	r3, r4
 8003d18:	f7fc ffb6 	bl	8000c88 <__aeabi_uldivmod>
 8003d1c:	4603      	mov	r3, r0
 8003d1e:	460c      	mov	r4, r1
 8003d20:	461a      	mov	r2, r3
 8003d22:	4b8b      	ldr	r3, [pc, #556]	; (8003f50 <UART_SetConfig+0x384>)
 8003d24:	fba3 1302 	umull	r1, r3, r3, r2
 8003d28:	095b      	lsrs	r3, r3, #5
 8003d2a:	2164      	movs	r1, #100	; 0x64
 8003d2c:	fb01 f303 	mul.w	r3, r1, r3
 8003d30:	1ad3      	subs	r3, r2, r3
 8003d32:	00db      	lsls	r3, r3, #3
 8003d34:	3332      	adds	r3, #50	; 0x32
 8003d36:	4a86      	ldr	r2, [pc, #536]	; (8003f50 <UART_SetConfig+0x384>)
 8003d38:	fba2 2303 	umull	r2, r3, r2, r3
 8003d3c:	095b      	lsrs	r3, r3, #5
 8003d3e:	005b      	lsls	r3, r3, #1
 8003d40:	f403 73f8 	and.w	r3, r3, #496	; 0x1f0
 8003d44:	4498      	add	r8, r3
 8003d46:	68bb      	ldr	r3, [r7, #8]
 8003d48:	461d      	mov	r5, r3
 8003d4a:	f04f 0600 	mov.w	r6, #0
 8003d4e:	46a9      	mov	r9, r5
 8003d50:	46b2      	mov	sl, r6
 8003d52:	eb19 0309 	adds.w	r3, r9, r9
 8003d56:	eb4a 040a 	adc.w	r4, sl, sl
 8003d5a:	4699      	mov	r9, r3
 8003d5c:	46a2      	mov	sl, r4
 8003d5e:	eb19 0905 	adds.w	r9, r9, r5
 8003d62:	eb4a 0a06 	adc.w	sl, sl, r6
 8003d66:	f04f 0100 	mov.w	r1, #0
 8003d6a:	f04f 0200 	mov.w	r2, #0
 8003d6e:	ea4f 02ca 	mov.w	r2, sl, lsl #3
 8003d72:	ea42 7259 	orr.w	r2, r2, r9, lsr #29
 8003d76:	ea4f 01c9 	mov.w	r1, r9, lsl #3
 8003d7a:	4689      	mov	r9, r1
 8003d7c:	4692      	mov	sl, r2
 8003d7e:	eb19 0005 	adds.w	r0, r9, r5
 8003d82:	eb4a 0106 	adc.w	r1, sl, r6
 8003d86:	687b      	ldr	r3, [r7, #4]
 8003d88:	685b      	ldr	r3, [r3, #4]
 8003d8a:	461d      	mov	r5, r3
 8003d8c:	f04f 0600 	mov.w	r6, #0
 8003d90:	196b      	adds	r3, r5, r5
 8003d92:	eb46 0406 	adc.w	r4, r6, r6
 8003d96:	461a      	mov	r2, r3
 8003d98:	4623      	mov	r3, r4
 8003d9a:	f7fc ff75 	bl	8000c88 <__aeabi_uldivmod>
 8003d9e:	4603      	mov	r3, r0
 8003da0:	460c      	mov	r4, r1
 8003da2:	461a      	mov	r2, r3
 8003da4:	4b6a      	ldr	r3, [pc, #424]	; (8003f50 <UART_SetConfig+0x384>)
 8003da6:	fba3 1302 	umull	r1, r3, r3, r2
 8003daa:	095b      	lsrs	r3, r3, #5
 8003dac:	2164      	movs	r1, #100	; 0x64
 8003dae:	fb01 f303 	mul.w	r3, r1, r3
 8003db2:	1ad3      	subs	r3, r2, r3
 8003db4:	00db      	lsls	r3, r3, #3
 8003db6:	3332      	adds	r3, #50	; 0x32
 8003db8:	4a65      	ldr	r2, [pc, #404]	; (8003f50 <UART_SetConfig+0x384>)
 8003dba:	fba2 2303 	umull	r2, r3, r2, r3
 8003dbe:	095b      	lsrs	r3, r3, #5
 8003dc0:	f003 0207 	and.w	r2, r3, #7
 8003dc4:	687b      	ldr	r3, [r7, #4]
 8003dc6:	681b      	ldr	r3, [r3, #0]
 8003dc8:	4442      	add	r2, r8
 8003dca:	609a      	str	r2, [r3, #8]
 8003dcc:	e26f      	b.n	80042ae <UART_SetConfig+0x6e2>
      huart->Instance->BRR = UART_BRR_SAMPLING8(pclk, huart->Init.BaudRate);
    }
#endif /* USART6 */
    else
    {
      pclk = HAL_RCC_GetPCLK1Freq();
 8003dce:	f7ff f9ab 	bl	8003128 <HAL_RCC_GetPCLK1Freq>
 8003dd2:	60b8      	str	r0, [r7, #8]
      huart->Instance->BRR = UART_BRR_SAMPLING8(pclk, huart->Init.BaudRate);
 8003dd4:	68bb      	ldr	r3, [r7, #8]
 8003dd6:	461d      	mov	r5, r3
 8003dd8:	f04f 0600 	mov.w	r6, #0
 8003ddc:	46a8      	mov	r8, r5
 8003dde:	46b1      	mov	r9, r6
 8003de0:	eb18 0308 	adds.w	r3, r8, r8
 8003de4:	eb49 0409 	adc.w	r4, r9, r9
 8003de8:	4698      	mov	r8, r3
 8003dea:	46a1      	mov	r9, r4
 8003dec:	eb18 0805 	adds.w	r8, r8, r5
 8003df0:	eb49 0906 	adc.w	r9, r9, r6
 8003df4:	f04f 0100 	mov.w	r1, #0
 8003df8:	f04f 0200 	mov.w	r2, #0
 8003dfc:	ea4f 02c9 	mov.w	r2, r9, lsl #3
 8003e00:	ea42 7258 	orr.w	r2, r2, r8, lsr #29
 8003e04:	ea4f 01c8 	mov.w	r1, r8, lsl #3
 8003e08:	4688      	mov	r8, r1
 8003e0a:	4691      	mov	r9, r2
 8003e0c:	eb18 0005 	adds.w	r0, r8, r5
 8003e10:	eb49 0106 	adc.w	r1, r9, r6
 8003e14:	687b      	ldr	r3, [r7, #4]
 8003e16:	685b      	ldr	r3, [r3, #4]
 8003e18:	461d      	mov	r5, r3
 8003e1a:	f04f 0600 	mov.w	r6, #0
 8003e1e:	196b      	adds	r3, r5, r5
 8003e20:	eb46 0406 	adc.w	r4, r6, r6
 8003e24:	461a      	mov	r2, r3
 8003e26:	4623      	mov	r3, r4
 8003e28:	f7fc ff2e 	bl	8000c88 <__aeabi_uldivmod>
 8003e2c:	4603      	mov	r3, r0
 8003e2e:	460c      	mov	r4, r1
 8003e30:	461a      	mov	r2, r3
 8003e32:	4b47      	ldr	r3, [pc, #284]	; (8003f50 <UART_SetConfig+0x384>)
 8003e34:	fba3 2302 	umull	r2, r3, r3, r2
 8003e38:	095b      	lsrs	r3, r3, #5
 8003e3a:	ea4f 1803 	mov.w	r8, r3, lsl #4
 8003e3e:	68bb      	ldr	r3, [r7, #8]
 8003e40:	461d      	mov	r5, r3
 8003e42:	f04f 0600 	mov.w	r6, #0
 8003e46:	46a9      	mov	r9, r5
 8003e48:	46b2      	mov	sl, r6
 8003e4a:	eb19 0309 	adds.w	r3, r9, r9
 8003e4e:	eb4a 040a 	adc.w	r4, sl, sl
 8003e52:	4699      	mov	r9, r3
 8003e54:	46a2      	mov	sl, r4
 8003e56:	eb19 0905 	adds.w	r9, r9, r5
 8003e5a:	eb4a 0a06 	adc.w	sl, sl, r6
 8003e5e:	f04f 0100 	mov.w	r1, #0
 8003e62:	f04f 0200 	mov.w	r2, #0
 8003e66:	ea4f 02ca 	mov.w	r2, sl, lsl #3
 8003e6a:	ea42 7259 	orr.w	r2, r2, r9, lsr #29
 8003e6e:	ea4f 01c9 	mov.w	r1, r9, lsl #3
 8003e72:	4689      	mov	r9, r1
 8003e74:	4692      	mov	sl, r2
 8003e76:	eb19 0005 	adds.w	r0, r9, r5
 8003e7a:	eb4a 0106 	adc.w	r1, sl, r6
 8003e7e:	687b      	ldr	r3, [r7, #4]
 8003e80:	685b      	ldr	r3, [r3, #4]
 8003e82:	461d      	mov	r5, r3
 8003e84:	f04f 0600 	mov.w	r6, #0
 8003e88:	196b      	adds	r3, r5, r5
 8003e8a:	eb46 0406 	adc.w	r4, r6, r6
 8003e8e:	461a      	mov	r2, r3
 8003e90:	4623      	mov	r3, r4
 8003e92:	f7fc fef9 	bl	8000c88 <__aeabi_uldivmod>
 8003e96:	4603      	mov	r3, r0
 8003e98:	460c      	mov	r4, r1
 8003e9a:	461a      	mov	r2, r3
 8003e9c:	4b2c      	ldr	r3, [pc, #176]	; (8003f50 <UART_SetConfig+0x384>)
 8003e9e:	fba3 1302 	umull	r1, r3, r3, r2
 8003ea2:	095b      	lsrs	r3, r3, #5
 8003ea4:	2164      	movs	r1, #100	; 0x64
 8003ea6:	fb01 f303 	mul.w	r3, r1, r3
 8003eaa:	1ad3      	subs	r3, r2, r3
 8003eac:	00db      	lsls	r3, r3, #3
 8003eae:	3332      	adds	r3, #50	; 0x32
 8003eb0:	4a27      	ldr	r2, [pc, #156]	; (8003f50 <UART_SetConfig+0x384>)
 8003eb2:	fba2 2303 	umull	r2, r3, r2, r3
 8003eb6:	095b      	lsrs	r3, r3, #5
 8003eb8:	005b      	lsls	r3, r3, #1
 8003eba:	f403 73f8 	and.w	r3, r3, #496	; 0x1f0
 8003ebe:	4498      	add	r8, r3
 8003ec0:	68bb      	ldr	r3, [r7, #8]
 8003ec2:	461d      	mov	r5, r3
 8003ec4:	f04f 0600 	mov.w	r6, #0
 8003ec8:	46a9      	mov	r9, r5
 8003eca:	46b2      	mov	sl, r6
 8003ecc:	eb19 0309 	adds.w	r3, r9, r9
 8003ed0:	eb4a 040a 	adc.w	r4, sl, sl
 8003ed4:	4699      	mov	r9, r3
 8003ed6:	46a2      	mov	sl, r4
 8003ed8:	eb19 0905 	adds.w	r9, r9, r5
 8003edc:	eb4a 0a06 	adc.w	sl, sl, r6
 8003ee0:	f04f 0100 	mov.w	r1, #0
 8003ee4:	f04f 0200 	mov.w	r2, #0
 8003ee8:	ea4f 02ca 	mov.w	r2, sl, lsl #3
 8003eec:	ea42 7259 	orr.w	r2, r2, r9, lsr #29
 8003ef0:	ea4f 01c9 	mov.w	r1, r9, lsl #3
 8003ef4:	4689      	mov	r9, r1
 8003ef6:	4692      	mov	sl, r2
 8003ef8:	eb19 0005 	adds.w	r0, r9, r5
 8003efc:	eb4a 0106 	adc.w	r1, sl, r6
 8003f00:	687b      	ldr	r3, [r7, #4]
 8003f02:	685b      	ldr	r3, [r3, #4]
 8003f04:	461d      	mov	r5, r3
 8003f06:	f04f 0600 	mov.w	r6, #0
 8003f0a:	196b      	adds	r3, r5, r5
 8003f0c:	eb46 0406 	adc.w	r4, r6, r6
 8003f10:	461a      	mov	r2, r3
 8003f12:	4623      	mov	r3, r4
 8003f14:	f7fc feb8 	bl	8000c88 <__aeabi_uldivmod>
 8003f18:	4603      	mov	r3, r0
 8003f1a:	460c      	mov	r4, r1
 8003f1c:	461a      	mov	r2, r3
 8003f1e:	4b0c      	ldr	r3, [pc, #48]	; (8003f50 <UART_SetConfig+0x384>)
 8003f20:	fba3 1302 	umull	r1, r3, r3, r2
 8003f24:	095b      	lsrs	r3, r3, #5
 8003f26:	2164      	movs	r1, #100	; 0x64
 8003f28:	fb01 f303 	mul.w	r3, r1, r3
 8003f2c:	1ad3      	subs	r3, r2, r3
 8003f2e:	00db      	lsls	r3, r3, #3
 8003f30:	3332      	adds	r3, #50	; 0x32
 8003f32:	4a07      	ldr	r2, [pc, #28]	; (8003f50 <UART_SetConfig+0x384>)
 8003f34:	fba2 2303 	umull	r2, r3, r2, r3
 8003f38:	095b      	lsrs	r3, r3, #5
 8003f3a:	f003 0207 	and.w	r2, r3, #7
 8003f3e:	687b      	ldr	r3, [r7, #4]
 8003f40:	681b      	ldr	r3, [r3, #0]
 8003f42:	4442      	add	r2, r8
 8003f44:	609a      	str	r2, [r3, #8]
    {
      pclk = HAL_RCC_GetPCLK1Freq();
      huart->Instance->BRR = UART_BRR_SAMPLING16(pclk, huart->Init.BaudRate);
    }
  }
}
 8003f46:	e1b2      	b.n	80042ae <UART_SetConfig+0x6e2>
 8003f48:	40011000 	.word	0x40011000
 8003f4c:	40011400 	.word	0x40011400
 8003f50:	51eb851f 	.word	0x51eb851f
    if ((huart->Instance == USART1) || (huart->Instance == USART6))
 8003f54:	687b      	ldr	r3, [r7, #4]
 8003f56:	681b      	ldr	r3, [r3, #0]
 8003f58:	4ad7      	ldr	r2, [pc, #860]	; (80042b8 <UART_SetConfig+0x6ec>)
 8003f5a:	4293      	cmp	r3, r2
 8003f5c:	d005      	beq.n	8003f6a <UART_SetConfig+0x39e>
 8003f5e:	687b      	ldr	r3, [r7, #4]
 8003f60:	681b      	ldr	r3, [r3, #0]
 8003f62:	4ad6      	ldr	r2, [pc, #856]	; (80042bc <UART_SetConfig+0x6f0>)
 8003f64:	4293      	cmp	r3, r2
 8003f66:	f040 80d1 	bne.w	800410c <UART_SetConfig+0x540>
      pclk = HAL_RCC_GetPCLK2Freq();
 8003f6a:	f7ff f8f1 	bl	8003150 <HAL_RCC_GetPCLK2Freq>
 8003f6e:	60b8      	str	r0, [r7, #8]
      huart->Instance->BRR = UART_BRR_SAMPLING16(pclk, huart->Init.BaudRate);
 8003f70:	68bb      	ldr	r3, [r7, #8]
 8003f72:	469a      	mov	sl, r3
 8003f74:	f04f 0b00 	mov.w	fp, #0
 8003f78:	46d0      	mov	r8, sl
 8003f7a:	46d9      	mov	r9, fp
 8003f7c:	eb18 0308 	adds.w	r3, r8, r8
 8003f80:	eb49 0409 	adc.w	r4, r9, r9
 8003f84:	4698      	mov	r8, r3
 8003f86:	46a1      	mov	r9, r4
 8003f88:	eb18 080a 	adds.w	r8, r8, sl
 8003f8c:	eb49 090b 	adc.w	r9, r9, fp
 8003f90:	f04f 0100 	mov.w	r1, #0
 8003f94:	f04f 0200 	mov.w	r2, #0
 8003f98:	ea4f 02c9 	mov.w	r2, r9, lsl #3
 8003f9c:	ea42 7258 	orr.w	r2, r2, r8, lsr #29
 8003fa0:	ea4f 01c8 	mov.w	r1, r8, lsl #3
 8003fa4:	4688      	mov	r8, r1
 8003fa6:	4691      	mov	r9, r2
 8003fa8:	eb1a 0508 	adds.w	r5, sl, r8
 8003fac:	eb4b 0609 	adc.w	r6, fp, r9
 8003fb0:	687b      	ldr	r3, [r7, #4]
 8003fb2:	685b      	ldr	r3, [r3, #4]
 8003fb4:	4619      	mov	r1, r3
 8003fb6:	f04f 0200 	mov.w	r2, #0
 8003fba:	f04f 0300 	mov.w	r3, #0
 8003fbe:	f04f 0400 	mov.w	r4, #0
 8003fc2:	0094      	lsls	r4, r2, #2
 8003fc4:	ea44 7491 	orr.w	r4, r4, r1, lsr #30
 8003fc8:	008b      	lsls	r3, r1, #2
 8003fca:	461a      	mov	r2, r3
 8003fcc:	4623      	mov	r3, r4
 8003fce:	4628      	mov	r0, r5
 8003fd0:	4631      	mov	r1, r6
 8003fd2:	f7fc fe59 	bl	8000c88 <__aeabi_uldivmod>
 8003fd6:	4603      	mov	r3, r0
 8003fd8:	460c      	mov	r4, r1
 8003fda:	461a      	mov	r2, r3
 8003fdc:	4bb8      	ldr	r3, [pc, #736]	; (80042c0 <UART_SetConfig+0x6f4>)
 8003fde:	fba3 2302 	umull	r2, r3, r3, r2
 8003fe2:	095b      	lsrs	r3, r3, #5
 8003fe4:	ea4f 1803 	mov.w	r8, r3, lsl #4
 8003fe8:	68bb      	ldr	r3, [r7, #8]
 8003fea:	469b      	mov	fp, r3
 8003fec:	f04f 0c00 	mov.w	ip, #0
 8003ff0:	46d9      	mov	r9, fp
 8003ff2:	46e2      	mov	sl, ip
 8003ff4:	eb19 0309 	adds.w	r3, r9, r9
 8003ff8:	eb4a 040a 	adc.w	r4, sl, sl
 8003ffc:	4699      	mov	r9, r3
 8003ffe:	46a2      	mov	sl, r4
 8004000:	eb19 090b 	adds.w	r9, r9, fp
 8004004:	eb4a 0a0c 	adc.w	sl, sl, ip
 8004008:	f04f 0100 	mov.w	r1, #0
 800400c:	f04f 0200 	mov.w	r2, #0
 8004010:	ea4f 02ca 	mov.w	r2, sl, lsl #3
 8004014:	ea42 7259 	orr.w	r2, r2, r9, lsr #29
 8004018:	ea4f 01c9 	mov.w	r1, r9, lsl #3
 800401c:	4689      	mov	r9, r1
 800401e:	4692      	mov	sl, r2
 8004020:	eb1b 0509 	adds.w	r5, fp, r9
 8004024:	eb4c 060a 	adc.w	r6, ip, sl
 8004028:	687b      	ldr	r3, [r7, #4]
 800402a:	685b      	ldr	r3, [r3, #4]
 800402c:	4619      	mov	r1, r3
 800402e:	f04f 0200 	mov.w	r2, #0
 8004032:	f04f 0300 	mov.w	r3, #0
 8004036:	f04f 0400 	mov.w	r4, #0
 800403a:	0094      	lsls	r4, r2, #2
 800403c:	ea44 7491 	orr.w	r4, r4, r1, lsr #30
 8004040:	008b      	lsls	r3, r1, #2
 8004042:	461a      	mov	r2, r3
 8004044:	4623      	mov	r3, r4
 8004046:	4628      	mov	r0, r5
 8004048:	4631      	mov	r1, r6
 800404a:	f7fc fe1d 	bl	8000c88 <__aeabi_uldivmod>
 800404e:	4603      	mov	r3, r0
 8004050:	460c      	mov	r4, r1
 8004052:	461a      	mov	r2, r3
 8004054:	4b9a      	ldr	r3, [pc, #616]	; (80042c0 <UART_SetConfig+0x6f4>)
 8004056:	fba3 1302 	umull	r1, r3, r3, r2
 800405a:	095b      	lsrs	r3, r3, #5
 800405c:	2164      	movs	r1, #100	; 0x64
 800405e:	fb01 f303 	mul.w	r3, r1, r3
 8004062:	1ad3      	subs	r3, r2, r3
 8004064:	011b      	lsls	r3, r3, #4
 8004066:	3332      	adds	r3, #50	; 0x32
 8004068:	4a95      	ldr	r2, [pc, #596]	; (80042c0 <UART_SetConfig+0x6f4>)
 800406a:	fba2 2303 	umull	r2, r3, r2, r3
 800406e:	095b      	lsrs	r3, r3, #5
 8004070:	f003 03f0 	and.w	r3, r3, #240	; 0xf0
 8004074:	4498      	add	r8, r3
 8004076:	68bb      	ldr	r3, [r7, #8]
 8004078:	469b      	mov	fp, r3
 800407a:	f04f 0c00 	mov.w	ip, #0
 800407e:	46d9      	mov	r9, fp
 8004080:	46e2      	mov	sl, ip
 8004082:	eb19 0309 	adds.w	r3, r9, r9
 8004086:	eb4a 040a 	adc.w	r4, sl, sl
 800408a:	4699      	mov	r9, r3
 800408c:	46a2      	mov	sl, r4
 800408e:	eb19 090b 	adds.w	r9, r9, fp
 8004092:	eb4a 0a0c 	adc.w	sl, sl, ip
 8004096:	f04f 0100 	mov.w	r1, #0
 800409a:	f04f 0200 	mov.w	r2, #0
 800409e:	ea4f 02ca 	mov.w	r2, sl, lsl #3
 80040a2:	ea42 7259 	orr.w	r2, r2, r9, lsr #29
 80040a6:	ea4f 01c9 	mov.w	r1, r9, lsl #3
 80040aa:	4689      	mov	r9, r1
 80040ac:	4692      	mov	sl, r2
 80040ae:	eb1b 0509 	adds.w	r5, fp, r9
 80040b2:	eb4c 060a 	adc.w	r6, ip, sl
 80040b6:	687b      	ldr	r3, [r7, #4]
 80040b8:	685b      	ldr	r3, [r3, #4]
 80040ba:	4619      	mov	r1, r3
 80040bc:	f04f 0200 	mov.w	r2, #0
 80040c0:	f04f 0300 	mov.w	r3, #0
 80040c4:	f04f 0400 	mov.w	r4, #0
 80040c8:	0094      	lsls	r4, r2, #2
 80040ca:	ea44 7491 	orr.w	r4, r4, r1, lsr #30
 80040ce:	008b      	lsls	r3, r1, #2
 80040d0:	461a      	mov	r2, r3
 80040d2:	4623      	mov	r3, r4
 80040d4:	4628      	mov	r0, r5
 80040d6:	4631      	mov	r1, r6
 80040d8:	f7fc fdd6 	bl	8000c88 <__aeabi_uldivmod>
 80040dc:	4603      	mov	r3, r0
 80040de:	460c      	mov	r4, r1
 80040e0:	461a      	mov	r2, r3
 80040e2:	4b77      	ldr	r3, [pc, #476]	; (80042c0 <UART_SetConfig+0x6f4>)
 80040e4:	fba3 1302 	umull	r1, r3, r3, r2
 80040e8:	095b      	lsrs	r3, r3, #5
 80040ea:	2164      	movs	r1, #100	; 0x64
 80040ec:	fb01 f303 	mul.w	r3, r1, r3
 80040f0:	1ad3      	subs	r3, r2, r3
 80040f2:	011b      	lsls	r3, r3, #4
 80040f4:	3332      	adds	r3, #50	; 0x32
 80040f6:	4a72      	ldr	r2, [pc, #456]	; (80042c0 <UART_SetConfig+0x6f4>)
 80040f8:	fba2 2303 	umull	r2, r3, r2, r3
 80040fc:	095b      	lsrs	r3, r3, #5
 80040fe:	f003 020f 	and.w	r2, r3, #15
 8004102:	687b      	ldr	r3, [r7, #4]
 8004104:	681b      	ldr	r3, [r3, #0]
 8004106:	4442      	add	r2, r8
 8004108:	609a      	str	r2, [r3, #8]
 800410a:	e0d0      	b.n	80042ae <UART_SetConfig+0x6e2>
      pclk = HAL_RCC_GetPCLK1Freq();
 800410c:	f7ff f80c 	bl	8003128 <HAL_RCC_GetPCLK1Freq>
 8004110:	60b8      	str	r0, [r7, #8]
      huart->Instance->BRR = UART_BRR_SAMPLING16(pclk, huart->Init.BaudRate);
 8004112:	68bb      	ldr	r3, [r7, #8]
 8004114:	469a      	mov	sl, r3
 8004116:	f04f 0b00 	mov.w	fp, #0
 800411a:	46d0      	mov	r8, sl
 800411c:	46d9      	mov	r9, fp
 800411e:	eb18 0308 	adds.w	r3, r8, r8
 8004122:	eb49 0409 	adc.w	r4, r9, r9
 8004126:	4698      	mov	r8, r3
 8004128:	46a1      	mov	r9, r4
 800412a:	eb18 080a 	adds.w	r8, r8, sl
 800412e:	eb49 090b 	adc.w	r9, r9, fp
 8004132:	f04f 0100 	mov.w	r1, #0
 8004136:	f04f 0200 	mov.w	r2, #0
 800413a:	ea4f 02c9 	mov.w	r2, r9, lsl #3
 800413e:	ea42 7258 	orr.w	r2, r2, r8, lsr #29
 8004142:	ea4f 01c8 	mov.w	r1, r8, lsl #3
 8004146:	4688      	mov	r8, r1
 8004148:	4691      	mov	r9, r2
 800414a:	eb1a 0508 	adds.w	r5, sl, r8
 800414e:	eb4b 0609 	adc.w	r6, fp, r9
 8004152:	687b      	ldr	r3, [r7, #4]
 8004154:	685b      	ldr	r3, [r3, #4]
 8004156:	4619      	mov	r1, r3
 8004158:	f04f 0200 	mov.w	r2, #0
 800415c:	f04f 0300 	mov.w	r3, #0
 8004160:	f04f 0400 	mov.w	r4, #0
 8004164:	0094      	lsls	r4, r2, #2
 8004166:	ea44 7491 	orr.w	r4, r4, r1, lsr #30
 800416a:	008b      	lsls	r3, r1, #2
 800416c:	461a      	mov	r2, r3
 800416e:	4623      	mov	r3, r4
 8004170:	4628      	mov	r0, r5
 8004172:	4631      	mov	r1, r6
 8004174:	f7fc fd88 	bl	8000c88 <__aeabi_uldivmod>
 8004178:	4603      	mov	r3, r0
 800417a:	460c      	mov	r4, r1
 800417c:	461a      	mov	r2, r3
 800417e:	4b50      	ldr	r3, [pc, #320]	; (80042c0 <UART_SetConfig+0x6f4>)
 8004180:	fba3 2302 	umull	r2, r3, r3, r2
 8004184:	095b      	lsrs	r3, r3, #5
 8004186:	ea4f 1803 	mov.w	r8, r3, lsl #4
 800418a:	68bb      	ldr	r3, [r7, #8]
 800418c:	469b      	mov	fp, r3
 800418e:	f04f 0c00 	mov.w	ip, #0
 8004192:	46d9      	mov	r9, fp
 8004194:	46e2      	mov	sl, ip
 8004196:	eb19 0309 	adds.w	r3, r9, r9
 800419a:	eb4a 040a 	adc.w	r4, sl, sl
 800419e:	4699      	mov	r9, r3
 80041a0:	46a2      	mov	sl, r4
 80041a2:	eb19 090b 	adds.w	r9, r9, fp
 80041a6:	eb4a 0a0c 	adc.w	sl, sl, ip
 80041aa:	f04f 0100 	mov.w	r1, #0
 80041ae:	f04f 0200 	mov.w	r2, #0
 80041b2:	ea4f 02ca 	mov.w	r2, sl, lsl #3
 80041b6:	ea42 7259 	orr.w	r2, r2, r9, lsr #29
 80041ba:	ea4f 01c9 	mov.w	r1, r9, lsl #3
 80041be:	4689      	mov	r9, r1
 80041c0:	4692      	mov	sl, r2
 80041c2:	eb1b 0509 	adds.w	r5, fp, r9
 80041c6:	eb4c 060a 	adc.w	r6, ip, sl
 80041ca:	687b      	ldr	r3, [r7, #4]
 80041cc:	685b      	ldr	r3, [r3, #4]
 80041ce:	4619      	mov	r1, r3
 80041d0:	f04f 0200 	mov.w	r2, #0
 80041d4:	f04f 0300 	mov.w	r3, #0
 80041d8:	f04f 0400 	mov.w	r4, #0
 80041dc:	0094      	lsls	r4, r2, #2
 80041de:	ea44 7491 	orr.w	r4, r4, r1, lsr #30
 80041e2:	008b      	lsls	r3, r1, #2
 80041e4:	461a      	mov	r2, r3
 80041e6:	4623      	mov	r3, r4
 80041e8:	4628      	mov	r0, r5
 80041ea:	4631      	mov	r1, r6
 80041ec:	f7fc fd4c 	bl	8000c88 <__aeabi_uldivmod>
 80041f0:	4603      	mov	r3, r0
 80041f2:	460c      	mov	r4, r1
 80041f4:	461a      	mov	r2, r3
 80041f6:	4b32      	ldr	r3, [pc, #200]	; (80042c0 <UART_SetConfig+0x6f4>)
 80041f8:	fba3 1302 	umull	r1, r3, r3, r2
 80041fc:	095b      	lsrs	r3, r3, #5
 80041fe:	2164      	movs	r1, #100	; 0x64
 8004200:	fb01 f303 	mul.w	r3, r1, r3
 8004204:	1ad3      	subs	r3, r2, r3
 8004206:	011b      	lsls	r3, r3, #4
 8004208:	3332      	adds	r3, #50	; 0x32
 800420a:	4a2d      	ldr	r2, [pc, #180]	; (80042c0 <UART_SetConfig+0x6f4>)
 800420c:	fba2 2303 	umull	r2, r3, r2, r3
 8004210:	095b      	lsrs	r3, r3, #5
 8004212:	f003 03f0 	and.w	r3, r3, #240	; 0xf0
 8004216:	4498      	add	r8, r3
 8004218:	68bb      	ldr	r3, [r7, #8]
 800421a:	469b      	mov	fp, r3
 800421c:	f04f 0c00 	mov.w	ip, #0
 8004220:	46d9      	mov	r9, fp
 8004222:	46e2      	mov	sl, ip
 8004224:	eb19 0309 	adds.w	r3, r9, r9
 8004228:	eb4a 040a 	adc.w	r4, sl, sl
 800422c:	4699      	mov	r9, r3
 800422e:	46a2      	mov	sl, r4
 8004230:	eb19 090b 	adds.w	r9, r9, fp
 8004234:	eb4a 0a0c 	adc.w	sl, sl, ip
 8004238:	f04f 0100 	mov.w	r1, #0
 800423c:	f04f 0200 	mov.w	r2, #0
 8004240:	ea4f 02ca 	mov.w	r2, sl, lsl #3
 8004244:	ea42 7259 	orr.w	r2, r2, r9, lsr #29
 8004248:	ea4f 01c9 	mov.w	r1, r9, lsl #3
 800424c:	4689      	mov	r9, r1
 800424e:	4692      	mov	sl, r2
 8004250:	eb1b 0509 	adds.w	r5, fp, r9
 8004254:	eb4c 060a 	adc.w	r6, ip, sl
 8004258:	687b      	ldr	r3, [r7, #4]
 800425a:	685b      	ldr	r3, [r3, #4]
 800425c:	4619      	mov	r1, r3
 800425e:	f04f 0200 	mov.w	r2, #0
 8004262:	f04f 0300 	mov.w	r3, #0
 8004266:	f04f 0400 	mov.w	r4, #0
 800426a:	0094      	lsls	r4, r2, #2
 800426c:	ea44 7491 	orr.w	r4, r4, r1, lsr #30
 8004270:	008b      	lsls	r3, r1, #2
 8004272:	461a      	mov	r2, r3
 8004274:	4623      	mov	r3, r4
 8004276:	4628      	mov	r0, r5
 8004278:	4631      	mov	r1, r6
 800427a:	f7fc fd05 	bl	8000c88 <__aeabi_uldivmod>
 800427e:	4603      	mov	r3, r0
 8004280:	460c      	mov	r4, r1
 8004282:	461a      	mov	r2, r3
 8004284:	4b0e      	ldr	r3, [pc, #56]	; (80042c0 <UART_SetConfig+0x6f4>)
 8004286:	fba3 1302 	umull	r1, r3, r3, r2
 800428a:	095b      	lsrs	r3, r3, #5
 800428c:	2164      	movs	r1, #100	; 0x64
 800428e:	fb01 f303 	mul.w	r3, r1, r3
 8004292:	1ad3      	subs	r3, r2, r3
 8004294:	011b      	lsls	r3, r3, #4
 8004296:	3332      	adds	r3, #50	; 0x32
 8004298:	4a09      	ldr	r2, [pc, #36]	; (80042c0 <UART_SetConfig+0x6f4>)
 800429a:	fba2 2303 	umull	r2, r3, r2, r3
 800429e:	095b      	lsrs	r3, r3, #5
 80042a0:	f003 020f 	and.w	r2, r3, #15
 80042a4:	687b      	ldr	r3, [r7, #4]
 80042a6:	681b      	ldr	r3, [r3, #0]
 80042a8:	4442      	add	r2, r8
 80042aa:	609a      	str	r2, [r3, #8]
}
 80042ac:	e7ff      	b.n	80042ae <UART_SetConfig+0x6e2>
 80042ae:	bf00      	nop
 80042b0:	3714      	adds	r7, #20
 80042b2:	46bd      	mov	sp, r7
 80042b4:	e8bd 8ff0 	ldmia.w	sp!, {r4, r5, r6, r7, r8, r9, sl, fp, pc}
 80042b8:	40011000 	.word	0x40011000
 80042bc:	40011400 	.word	0x40011400
 80042c0:	51eb851f 	.word	0x51eb851f

080042c4 <__errno>:
 80042c4:	4b01      	ldr	r3, [pc, #4]	; (80042cc <__errno+0x8>)
 80042c6:	6818      	ldr	r0, [r3, #0]
 80042c8:	4770      	bx	lr
 80042ca:	bf00      	nop
 80042cc:	2000000c 	.word	0x2000000c

080042d0 <__libc_init_array>:
 80042d0:	b570      	push	{r4, r5, r6, lr}
 80042d2:	4e0d      	ldr	r6, [pc, #52]	; (8004308 <__libc_init_array+0x38>)
 80042d4:	4c0d      	ldr	r4, [pc, #52]	; (800430c <__libc_init_array+0x3c>)
 80042d6:	1ba4      	subs	r4, r4, r6
 80042d8:	10a4      	asrs	r4, r4, #2
 80042da:	2500      	movs	r5, #0
 80042dc:	42a5      	cmp	r5, r4
 80042de:	d109      	bne.n	80042f4 <__libc_init_array+0x24>
 80042e0:	4e0b      	ldr	r6, [pc, #44]	; (8004310 <__libc_init_array+0x40>)
 80042e2:	4c0c      	ldr	r4, [pc, #48]	; (8004314 <__libc_init_array+0x44>)
 80042e4:	f002 f85c 	bl	80063a0 <_init>
 80042e8:	1ba4      	subs	r4, r4, r6
 80042ea:	10a4      	asrs	r4, r4, #2
 80042ec:	2500      	movs	r5, #0
 80042ee:	42a5      	cmp	r5, r4
 80042f0:	d105      	bne.n	80042fe <__libc_init_array+0x2e>
 80042f2:	bd70      	pop	{r4, r5, r6, pc}
 80042f4:	f856 3025 	ldr.w	r3, [r6, r5, lsl #2]
 80042f8:	4798      	blx	r3
 80042fa:	3501      	adds	r5, #1
 80042fc:	e7ee      	b.n	80042dc <__libc_init_array+0xc>
 80042fe:	f856 3025 	ldr.w	r3, [r6, r5, lsl #2]
 8004302:	4798      	blx	r3
 8004304:	3501      	adds	r5, #1
 8004306:	e7f2      	b.n	80042ee <__libc_init_array+0x1e>
 8004308:	08006640 	.word	0x08006640
 800430c:	08006640 	.word	0x08006640
 8004310:	08006640 	.word	0x08006640
 8004314:	08006644 	.word	0x08006644

08004318 <memset>:
 8004318:	4402      	add	r2, r0
 800431a:	4603      	mov	r3, r0
 800431c:	4293      	cmp	r3, r2
 800431e:	d100      	bne.n	8004322 <memset+0xa>
 8004320:	4770      	bx	lr
 8004322:	f803 1b01 	strb.w	r1, [r3], #1
 8004326:	e7f9      	b.n	800431c <memset+0x4>

08004328 <__cvt>:
 8004328:	e92d 47ff 	stmdb	sp!, {r0, r1, r2, r3, r4, r5, r6, r7, r8, r9, sl, lr}
 800432c:	ec55 4b10 	vmov	r4, r5, d0
 8004330:	9f0d      	ldr	r7, [sp, #52]	; 0x34
 8004332:	f8dd a030 	ldr.w	sl, [sp, #48]	; 0x30
 8004336:	2d00      	cmp	r5, #0
 8004338:	460e      	mov	r6, r1
 800433a:	4691      	mov	r9, r2
 800433c:	4619      	mov	r1, r3
 800433e:	bfb8      	it	lt
 8004340:	4622      	movlt	r2, r4
 8004342:	462b      	mov	r3, r5
 8004344:	f027 0720 	bic.w	r7, r7, #32
 8004348:	bfbb      	ittet	lt
 800434a:	f105 4300 	addlt.w	r3, r5, #2147483648	; 0x80000000
 800434e:	461d      	movlt	r5, r3
 8004350:	2300      	movge	r3, #0
 8004352:	232d      	movlt	r3, #45	; 0x2d
 8004354:	bfb8      	it	lt
 8004356:	4614      	movlt	r4, r2
 8004358:	2f46      	cmp	r7, #70	; 0x46
 800435a:	700b      	strb	r3, [r1, #0]
 800435c:	d004      	beq.n	8004368 <__cvt+0x40>
 800435e:	2f45      	cmp	r7, #69	; 0x45
 8004360:	d100      	bne.n	8004364 <__cvt+0x3c>
 8004362:	3601      	adds	r6, #1
 8004364:	2102      	movs	r1, #2
 8004366:	e000      	b.n	800436a <__cvt+0x42>
 8004368:	2103      	movs	r1, #3
 800436a:	ab03      	add	r3, sp, #12
 800436c:	9301      	str	r3, [sp, #4]
 800436e:	ab02      	add	r3, sp, #8
 8004370:	9300      	str	r3, [sp, #0]
 8004372:	4632      	mov	r2, r6
 8004374:	4653      	mov	r3, sl
 8004376:	ec45 4b10 	vmov	d0, r4, r5
 800437a:	f000 fcdd 	bl	8004d38 <_dtoa_r>
 800437e:	2f47      	cmp	r7, #71	; 0x47
 8004380:	4680      	mov	r8, r0
 8004382:	d102      	bne.n	800438a <__cvt+0x62>
 8004384:	f019 0f01 	tst.w	r9, #1
 8004388:	d026      	beq.n	80043d8 <__cvt+0xb0>
 800438a:	2f46      	cmp	r7, #70	; 0x46
 800438c:	eb08 0906 	add.w	r9, r8, r6
 8004390:	d111      	bne.n	80043b6 <__cvt+0x8e>
 8004392:	f898 3000 	ldrb.w	r3, [r8]
 8004396:	2b30      	cmp	r3, #48	; 0x30
 8004398:	d10a      	bne.n	80043b0 <__cvt+0x88>
 800439a:	2200      	movs	r2, #0
 800439c:	2300      	movs	r3, #0
 800439e:	4620      	mov	r0, r4
 80043a0:	4629      	mov	r1, r5
 80043a2:	f7fc fbb1 	bl	8000b08 <__aeabi_dcmpeq>
 80043a6:	b918      	cbnz	r0, 80043b0 <__cvt+0x88>
 80043a8:	f1c6 0601 	rsb	r6, r6, #1
 80043ac:	f8ca 6000 	str.w	r6, [sl]
 80043b0:	f8da 3000 	ldr.w	r3, [sl]
 80043b4:	4499      	add	r9, r3
 80043b6:	2200      	movs	r2, #0
 80043b8:	2300      	movs	r3, #0
 80043ba:	4620      	mov	r0, r4
 80043bc:	4629      	mov	r1, r5
 80043be:	f7fc fba3 	bl	8000b08 <__aeabi_dcmpeq>
 80043c2:	b938      	cbnz	r0, 80043d4 <__cvt+0xac>
 80043c4:	2230      	movs	r2, #48	; 0x30
 80043c6:	9b03      	ldr	r3, [sp, #12]
 80043c8:	454b      	cmp	r3, r9
 80043ca:	d205      	bcs.n	80043d8 <__cvt+0xb0>
 80043cc:	1c59      	adds	r1, r3, #1
 80043ce:	9103      	str	r1, [sp, #12]
 80043d0:	701a      	strb	r2, [r3, #0]
 80043d2:	e7f8      	b.n	80043c6 <__cvt+0x9e>
 80043d4:	f8cd 900c 	str.w	r9, [sp, #12]
 80043d8:	9b03      	ldr	r3, [sp, #12]
 80043da:	9a0e      	ldr	r2, [sp, #56]	; 0x38
 80043dc:	eba3 0308 	sub.w	r3, r3, r8
 80043e0:	4640      	mov	r0, r8
 80043e2:	6013      	str	r3, [r2, #0]
 80043e4:	b004      	add	sp, #16
 80043e6:	e8bd 87f0 	ldmia.w	sp!, {r4, r5, r6, r7, r8, r9, sl, pc}

080043ea <__exponent>:
 80043ea:	b5f7      	push	{r0, r1, r2, r4, r5, r6, r7, lr}
 80043ec:	2900      	cmp	r1, #0
 80043ee:	4604      	mov	r4, r0
 80043f0:	bfba      	itte	lt
 80043f2:	4249      	neglt	r1, r1
 80043f4:	232d      	movlt	r3, #45	; 0x2d
 80043f6:	232b      	movge	r3, #43	; 0x2b
 80043f8:	2909      	cmp	r1, #9
 80043fa:	f804 2b02 	strb.w	r2, [r4], #2
 80043fe:	7043      	strb	r3, [r0, #1]
 8004400:	dd20      	ble.n	8004444 <__exponent+0x5a>
 8004402:	f10d 0307 	add.w	r3, sp, #7
 8004406:	461f      	mov	r7, r3
 8004408:	260a      	movs	r6, #10
 800440a:	fb91 f5f6 	sdiv	r5, r1, r6
 800440e:	fb06 1115 	mls	r1, r6, r5, r1
 8004412:	3130      	adds	r1, #48	; 0x30
 8004414:	2d09      	cmp	r5, #9
 8004416:	f803 1c01 	strb.w	r1, [r3, #-1]
 800441a:	f103 32ff 	add.w	r2, r3, #4294967295
 800441e:	4629      	mov	r1, r5
 8004420:	dc09      	bgt.n	8004436 <__exponent+0x4c>
 8004422:	3130      	adds	r1, #48	; 0x30
 8004424:	3b02      	subs	r3, #2
 8004426:	f802 1c01 	strb.w	r1, [r2, #-1]
 800442a:	42bb      	cmp	r3, r7
 800442c:	4622      	mov	r2, r4
 800442e:	d304      	bcc.n	800443a <__exponent+0x50>
 8004430:	1a10      	subs	r0, r2, r0
 8004432:	b003      	add	sp, #12
 8004434:	bdf0      	pop	{r4, r5, r6, r7, pc}
 8004436:	4613      	mov	r3, r2
 8004438:	e7e7      	b.n	800440a <__exponent+0x20>
 800443a:	f813 2b01 	ldrb.w	r2, [r3], #1
 800443e:	f804 2b01 	strb.w	r2, [r4], #1
 8004442:	e7f2      	b.n	800442a <__exponent+0x40>
 8004444:	2330      	movs	r3, #48	; 0x30
 8004446:	4419      	add	r1, r3
 8004448:	7083      	strb	r3, [r0, #2]
 800444a:	1d02      	adds	r2, r0, #4
 800444c:	70c1      	strb	r1, [r0, #3]
 800444e:	e7ef      	b.n	8004430 <__exponent+0x46>

08004450 <_printf_float>:
 8004450:	e92d 4ff0 	stmdb	sp!, {r4, r5, r6, r7, r8, r9, sl, fp, lr}
 8004454:	b08d      	sub	sp, #52	; 0x34
 8004456:	460c      	mov	r4, r1
 8004458:	f8dd 8058 	ldr.w	r8, [sp, #88]	; 0x58
 800445c:	4616      	mov	r6, r2
 800445e:	461f      	mov	r7, r3
 8004460:	4605      	mov	r5, r0
 8004462:	f001 fa21 	bl	80058a8 <_localeconv_r>
 8004466:	6803      	ldr	r3, [r0, #0]
 8004468:	9304      	str	r3, [sp, #16]
 800446a:	4618      	mov	r0, r3
 800446c:	f7fb fed0 	bl	8000210 <strlen>
 8004470:	2300      	movs	r3, #0
 8004472:	930a      	str	r3, [sp, #40]	; 0x28
 8004474:	f8d8 3000 	ldr.w	r3, [r8]
 8004478:	9005      	str	r0, [sp, #20]
 800447a:	3307      	adds	r3, #7
 800447c:	f023 0307 	bic.w	r3, r3, #7
 8004480:	f103 0208 	add.w	r2, r3, #8
 8004484:	f894 a018 	ldrb.w	sl, [r4, #24]
 8004488:	f8d4 b000 	ldr.w	fp, [r4]
 800448c:	f8c8 2000 	str.w	r2, [r8]
 8004490:	e9d3 2300 	ldrd	r2, r3, [r3]
 8004494:	e9c4 2312 	strd	r2, r3, [r4, #72]	; 0x48
 8004498:	e9d4 8912 	ldrd	r8, r9, [r4, #72]	; 0x48
 800449c:	f029 4300 	bic.w	r3, r9, #2147483648	; 0x80000000
 80044a0:	9307      	str	r3, [sp, #28]
 80044a2:	f8cd 8018 	str.w	r8, [sp, #24]
 80044a6:	f04f 32ff 	mov.w	r2, #4294967295
 80044aa:	4ba7      	ldr	r3, [pc, #668]	; (8004748 <_printf_float+0x2f8>)
 80044ac:	e9dd 0106 	ldrd	r0, r1, [sp, #24]
 80044b0:	f7fc fb5c 	bl	8000b6c <__aeabi_dcmpun>
 80044b4:	bb70      	cbnz	r0, 8004514 <_printf_float+0xc4>
 80044b6:	f04f 32ff 	mov.w	r2, #4294967295
 80044ba:	4ba3      	ldr	r3, [pc, #652]	; (8004748 <_printf_float+0x2f8>)
 80044bc:	e9dd 0106 	ldrd	r0, r1, [sp, #24]
 80044c0:	f7fc fb36 	bl	8000b30 <__aeabi_dcmple>
 80044c4:	bb30      	cbnz	r0, 8004514 <_printf_float+0xc4>
 80044c6:	2200      	movs	r2, #0
 80044c8:	2300      	movs	r3, #0
 80044ca:	4640      	mov	r0, r8
 80044cc:	4649      	mov	r1, r9
 80044ce:	f7fc fb25 	bl	8000b1c <__aeabi_dcmplt>
 80044d2:	b110      	cbz	r0, 80044da <_printf_float+0x8a>
 80044d4:	232d      	movs	r3, #45	; 0x2d
 80044d6:	f884 3043 	strb.w	r3, [r4, #67]	; 0x43
 80044da:	4a9c      	ldr	r2, [pc, #624]	; (800474c <_printf_float+0x2fc>)
 80044dc:	4b9c      	ldr	r3, [pc, #624]	; (8004750 <_printf_float+0x300>)
 80044de:	f1ba 0f47 	cmp.w	sl, #71	; 0x47
 80044e2:	bf8c      	ite	hi
 80044e4:	4690      	movhi	r8, r2
 80044e6:	4698      	movls	r8, r3
 80044e8:	2303      	movs	r3, #3
 80044ea:	f02b 0204 	bic.w	r2, fp, #4
 80044ee:	6123      	str	r3, [r4, #16]
 80044f0:	6022      	str	r2, [r4, #0]
 80044f2:	f04f 0900 	mov.w	r9, #0
 80044f6:	9700      	str	r7, [sp, #0]
 80044f8:	4633      	mov	r3, r6
 80044fa:	aa0b      	add	r2, sp, #44	; 0x2c
 80044fc:	4621      	mov	r1, r4
 80044fe:	4628      	mov	r0, r5
 8004500:	f000 f9e6 	bl	80048d0 <_printf_common>
 8004504:	3001      	adds	r0, #1
 8004506:	f040 808d 	bne.w	8004624 <_printf_float+0x1d4>
 800450a:	f04f 30ff 	mov.w	r0, #4294967295
 800450e:	b00d      	add	sp, #52	; 0x34
 8004510:	e8bd 8ff0 	ldmia.w	sp!, {r4, r5, r6, r7, r8, r9, sl, fp, pc}
 8004514:	4642      	mov	r2, r8
 8004516:	464b      	mov	r3, r9
 8004518:	4640      	mov	r0, r8
 800451a:	4649      	mov	r1, r9
 800451c:	f7fc fb26 	bl	8000b6c <__aeabi_dcmpun>
 8004520:	b110      	cbz	r0, 8004528 <_printf_float+0xd8>
 8004522:	4a8c      	ldr	r2, [pc, #560]	; (8004754 <_printf_float+0x304>)
 8004524:	4b8c      	ldr	r3, [pc, #560]	; (8004758 <_printf_float+0x308>)
 8004526:	e7da      	b.n	80044de <_printf_float+0x8e>
 8004528:	6861      	ldr	r1, [r4, #4]
 800452a:	1c4b      	adds	r3, r1, #1
 800452c:	f44b 6280 	orr.w	r2, fp, #1024	; 0x400
 8004530:	a80a      	add	r0, sp, #40	; 0x28
 8004532:	d13e      	bne.n	80045b2 <_printf_float+0x162>
 8004534:	2306      	movs	r3, #6
 8004536:	6063      	str	r3, [r4, #4]
 8004538:	2300      	movs	r3, #0
 800453a:	e9cd 0302 	strd	r0, r3, [sp, #8]
 800453e:	ab09      	add	r3, sp, #36	; 0x24
 8004540:	9300      	str	r3, [sp, #0]
 8004542:	ec49 8b10 	vmov	d0, r8, r9
 8004546:	f10d 0323 	add.w	r3, sp, #35	; 0x23
 800454a:	6022      	str	r2, [r4, #0]
 800454c:	f8cd a004 	str.w	sl, [sp, #4]
 8004550:	6861      	ldr	r1, [r4, #4]
 8004552:	4628      	mov	r0, r5
 8004554:	f7ff fee8 	bl	8004328 <__cvt>
 8004558:	f00a 03df 	and.w	r3, sl, #223	; 0xdf
 800455c:	2b47      	cmp	r3, #71	; 0x47
 800455e:	4680      	mov	r8, r0
 8004560:	d109      	bne.n	8004576 <_printf_float+0x126>
 8004562:	9b09      	ldr	r3, [sp, #36]	; 0x24
 8004564:	1cd8      	adds	r0, r3, #3
 8004566:	db02      	blt.n	800456e <_printf_float+0x11e>
 8004568:	6862      	ldr	r2, [r4, #4]
 800456a:	4293      	cmp	r3, r2
 800456c:	dd47      	ble.n	80045fe <_printf_float+0x1ae>
 800456e:	f1aa 0a02 	sub.w	sl, sl, #2
 8004572:	fa5f fa8a 	uxtb.w	sl, sl
 8004576:	f1ba 0f65 	cmp.w	sl, #101	; 0x65
 800457a:	9909      	ldr	r1, [sp, #36]	; 0x24
 800457c:	d824      	bhi.n	80045c8 <_printf_float+0x178>
 800457e:	3901      	subs	r1, #1
 8004580:	4652      	mov	r2, sl
 8004582:	f104 0050 	add.w	r0, r4, #80	; 0x50
 8004586:	9109      	str	r1, [sp, #36]	; 0x24
 8004588:	f7ff ff2f 	bl	80043ea <__exponent>
 800458c:	9a0a      	ldr	r2, [sp, #40]	; 0x28
 800458e:	1813      	adds	r3, r2, r0
 8004590:	2a01      	cmp	r2, #1
 8004592:	4681      	mov	r9, r0
 8004594:	6123      	str	r3, [r4, #16]
 8004596:	dc02      	bgt.n	800459e <_printf_float+0x14e>
 8004598:	6822      	ldr	r2, [r4, #0]
 800459a:	07d1      	lsls	r1, r2, #31
 800459c:	d501      	bpl.n	80045a2 <_printf_float+0x152>
 800459e:	3301      	adds	r3, #1
 80045a0:	6123      	str	r3, [r4, #16]
 80045a2:	f89d 3023 	ldrb.w	r3, [sp, #35]	; 0x23
 80045a6:	2b00      	cmp	r3, #0
 80045a8:	d0a5      	beq.n	80044f6 <_printf_float+0xa6>
 80045aa:	232d      	movs	r3, #45	; 0x2d
 80045ac:	f884 3043 	strb.w	r3, [r4, #67]	; 0x43
 80045b0:	e7a1      	b.n	80044f6 <_printf_float+0xa6>
 80045b2:	f1ba 0f67 	cmp.w	sl, #103	; 0x67
 80045b6:	f000 8177 	beq.w	80048a8 <_printf_float+0x458>
 80045ba:	f1ba 0f47 	cmp.w	sl, #71	; 0x47
 80045be:	d1bb      	bne.n	8004538 <_printf_float+0xe8>
 80045c0:	2900      	cmp	r1, #0
 80045c2:	d1b9      	bne.n	8004538 <_printf_float+0xe8>
 80045c4:	2301      	movs	r3, #1
 80045c6:	e7b6      	b.n	8004536 <_printf_float+0xe6>
 80045c8:	f1ba 0f66 	cmp.w	sl, #102	; 0x66
 80045cc:	d119      	bne.n	8004602 <_printf_float+0x1b2>
 80045ce:	2900      	cmp	r1, #0
 80045d0:	6863      	ldr	r3, [r4, #4]
 80045d2:	dd0c      	ble.n	80045ee <_printf_float+0x19e>
 80045d4:	6121      	str	r1, [r4, #16]
 80045d6:	b913      	cbnz	r3, 80045de <_printf_float+0x18e>
 80045d8:	6822      	ldr	r2, [r4, #0]
 80045da:	07d2      	lsls	r2, r2, #31
 80045dc:	d502      	bpl.n	80045e4 <_printf_float+0x194>
 80045de:	3301      	adds	r3, #1
 80045e0:	440b      	add	r3, r1
 80045e2:	6123      	str	r3, [r4, #16]
 80045e4:	9b09      	ldr	r3, [sp, #36]	; 0x24
 80045e6:	65a3      	str	r3, [r4, #88]	; 0x58
 80045e8:	f04f 0900 	mov.w	r9, #0
 80045ec:	e7d9      	b.n	80045a2 <_printf_float+0x152>
 80045ee:	b913      	cbnz	r3, 80045f6 <_printf_float+0x1a6>
 80045f0:	6822      	ldr	r2, [r4, #0]
 80045f2:	07d0      	lsls	r0, r2, #31
 80045f4:	d501      	bpl.n	80045fa <_printf_float+0x1aa>
 80045f6:	3302      	adds	r3, #2
 80045f8:	e7f3      	b.n	80045e2 <_printf_float+0x192>
 80045fa:	2301      	movs	r3, #1
 80045fc:	e7f1      	b.n	80045e2 <_printf_float+0x192>
 80045fe:	f04f 0a67 	mov.w	sl, #103	; 0x67
 8004602:	e9dd 3209 	ldrd	r3, r2, [sp, #36]	; 0x24
 8004606:	4293      	cmp	r3, r2
 8004608:	db05      	blt.n	8004616 <_printf_float+0x1c6>
 800460a:	6822      	ldr	r2, [r4, #0]
 800460c:	6123      	str	r3, [r4, #16]
 800460e:	07d1      	lsls	r1, r2, #31
 8004610:	d5e8      	bpl.n	80045e4 <_printf_float+0x194>
 8004612:	3301      	adds	r3, #1
 8004614:	e7e5      	b.n	80045e2 <_printf_float+0x192>
 8004616:	2b00      	cmp	r3, #0
 8004618:	bfd4      	ite	le
 800461a:	f1c3 0302 	rsble	r3, r3, #2
 800461e:	2301      	movgt	r3, #1
 8004620:	4413      	add	r3, r2
 8004622:	e7de      	b.n	80045e2 <_printf_float+0x192>
 8004624:	6823      	ldr	r3, [r4, #0]
 8004626:	055a      	lsls	r2, r3, #21
 8004628:	d407      	bmi.n	800463a <_printf_float+0x1ea>
 800462a:	6923      	ldr	r3, [r4, #16]
 800462c:	4642      	mov	r2, r8
 800462e:	4631      	mov	r1, r6
 8004630:	4628      	mov	r0, r5
 8004632:	47b8      	blx	r7
 8004634:	3001      	adds	r0, #1
 8004636:	d12b      	bne.n	8004690 <_printf_float+0x240>
 8004638:	e767      	b.n	800450a <_printf_float+0xba>
 800463a:	f1ba 0f65 	cmp.w	sl, #101	; 0x65
 800463e:	f240 80dc 	bls.w	80047fa <_printf_float+0x3aa>
 8004642:	2200      	movs	r2, #0
 8004644:	2300      	movs	r3, #0
 8004646:	e9d4 0112 	ldrd	r0, r1, [r4, #72]	; 0x48
 800464a:	f7fc fa5d 	bl	8000b08 <__aeabi_dcmpeq>
 800464e:	2800      	cmp	r0, #0
 8004650:	d033      	beq.n	80046ba <_printf_float+0x26a>
 8004652:	2301      	movs	r3, #1
 8004654:	4a41      	ldr	r2, [pc, #260]	; (800475c <_printf_float+0x30c>)
 8004656:	4631      	mov	r1, r6
 8004658:	4628      	mov	r0, r5
 800465a:	47b8      	blx	r7
 800465c:	3001      	adds	r0, #1
 800465e:	f43f af54 	beq.w	800450a <_printf_float+0xba>
 8004662:	e9dd 2309 	ldrd	r2, r3, [sp, #36]	; 0x24
 8004666:	429a      	cmp	r2, r3
 8004668:	db02      	blt.n	8004670 <_printf_float+0x220>
 800466a:	6823      	ldr	r3, [r4, #0]
 800466c:	07d8      	lsls	r0, r3, #31
 800466e:	d50f      	bpl.n	8004690 <_printf_float+0x240>
 8004670:	e9dd 2304 	ldrd	r2, r3, [sp, #16]
 8004674:	4631      	mov	r1, r6
 8004676:	4628      	mov	r0, r5
 8004678:	47b8      	blx	r7
 800467a:	3001      	adds	r0, #1
 800467c:	f43f af45 	beq.w	800450a <_printf_float+0xba>
 8004680:	f04f 0800 	mov.w	r8, #0
 8004684:	f104 091a 	add.w	r9, r4, #26
 8004688:	9b0a      	ldr	r3, [sp, #40]	; 0x28
 800468a:	3b01      	subs	r3, #1
 800468c:	4543      	cmp	r3, r8
 800468e:	dc09      	bgt.n	80046a4 <_printf_float+0x254>
 8004690:	6823      	ldr	r3, [r4, #0]
 8004692:	079b      	lsls	r3, r3, #30
 8004694:	f100 8103 	bmi.w	800489e <_printf_float+0x44e>
 8004698:	68e0      	ldr	r0, [r4, #12]
 800469a:	9b0b      	ldr	r3, [sp, #44]	; 0x2c
 800469c:	4298      	cmp	r0, r3
 800469e:	bfb8      	it	lt
 80046a0:	4618      	movlt	r0, r3
 80046a2:	e734      	b.n	800450e <_printf_float+0xbe>
 80046a4:	2301      	movs	r3, #1
 80046a6:	464a      	mov	r2, r9
 80046a8:	4631      	mov	r1, r6
 80046aa:	4628      	mov	r0, r5
 80046ac:	47b8      	blx	r7
 80046ae:	3001      	adds	r0, #1
 80046b0:	f43f af2b 	beq.w	800450a <_printf_float+0xba>
 80046b4:	f108 0801 	add.w	r8, r8, #1
 80046b8:	e7e6      	b.n	8004688 <_printf_float+0x238>
 80046ba:	9b09      	ldr	r3, [sp, #36]	; 0x24
 80046bc:	2b00      	cmp	r3, #0
 80046be:	dc2b      	bgt.n	8004718 <_printf_float+0x2c8>
 80046c0:	2301      	movs	r3, #1
 80046c2:	4a26      	ldr	r2, [pc, #152]	; (800475c <_printf_float+0x30c>)
 80046c4:	4631      	mov	r1, r6
 80046c6:	4628      	mov	r0, r5
 80046c8:	47b8      	blx	r7
 80046ca:	3001      	adds	r0, #1
 80046cc:	f43f af1d 	beq.w	800450a <_printf_float+0xba>
 80046d0:	9b09      	ldr	r3, [sp, #36]	; 0x24
 80046d2:	b923      	cbnz	r3, 80046de <_printf_float+0x28e>
 80046d4:	9b0a      	ldr	r3, [sp, #40]	; 0x28
 80046d6:	b913      	cbnz	r3, 80046de <_printf_float+0x28e>
 80046d8:	6823      	ldr	r3, [r4, #0]
 80046da:	07d9      	lsls	r1, r3, #31
 80046dc:	d5d8      	bpl.n	8004690 <_printf_float+0x240>
 80046de:	e9dd 2304 	ldrd	r2, r3, [sp, #16]
 80046e2:	4631      	mov	r1, r6
 80046e4:	4628      	mov	r0, r5
 80046e6:	47b8      	blx	r7
 80046e8:	3001      	adds	r0, #1
 80046ea:	f43f af0e 	beq.w	800450a <_printf_float+0xba>
 80046ee:	f04f 0900 	mov.w	r9, #0
 80046f2:	f104 0a1a 	add.w	sl, r4, #26
 80046f6:	9b09      	ldr	r3, [sp, #36]	; 0x24
 80046f8:	425b      	negs	r3, r3
 80046fa:	454b      	cmp	r3, r9
 80046fc:	dc01      	bgt.n	8004702 <_printf_float+0x2b2>
 80046fe:	9b0a      	ldr	r3, [sp, #40]	; 0x28
 8004700:	e794      	b.n	800462c <_printf_float+0x1dc>
 8004702:	2301      	movs	r3, #1
 8004704:	4652      	mov	r2, sl
 8004706:	4631      	mov	r1, r6
 8004708:	4628      	mov	r0, r5
 800470a:	47b8      	blx	r7
 800470c:	3001      	adds	r0, #1
 800470e:	f43f aefc 	beq.w	800450a <_printf_float+0xba>
 8004712:	f109 0901 	add.w	r9, r9, #1
 8004716:	e7ee      	b.n	80046f6 <_printf_float+0x2a6>
 8004718:	9a0a      	ldr	r2, [sp, #40]	; 0x28
 800471a:	6da3      	ldr	r3, [r4, #88]	; 0x58
 800471c:	429a      	cmp	r2, r3
 800471e:	bfa8      	it	ge
 8004720:	461a      	movge	r2, r3
 8004722:	2a00      	cmp	r2, #0
 8004724:	4691      	mov	r9, r2
 8004726:	dd07      	ble.n	8004738 <_printf_float+0x2e8>
 8004728:	4613      	mov	r3, r2
 800472a:	4631      	mov	r1, r6
 800472c:	4642      	mov	r2, r8
 800472e:	4628      	mov	r0, r5
 8004730:	47b8      	blx	r7
 8004732:	3001      	adds	r0, #1
 8004734:	f43f aee9 	beq.w	800450a <_printf_float+0xba>
 8004738:	f104 031a 	add.w	r3, r4, #26
 800473c:	f04f 0b00 	mov.w	fp, #0
 8004740:	ea29 79e9 	bic.w	r9, r9, r9, asr #31
 8004744:	9306      	str	r3, [sp, #24]
 8004746:	e015      	b.n	8004774 <_printf_float+0x324>
 8004748:	7fefffff 	.word	0x7fefffff
 800474c:	080063e0 	.word	0x080063e0
 8004750:	080063dc 	.word	0x080063dc
 8004754:	080063e8 	.word	0x080063e8
 8004758:	080063e4 	.word	0x080063e4
 800475c:	080063ec 	.word	0x080063ec
 8004760:	2301      	movs	r3, #1
 8004762:	9a06      	ldr	r2, [sp, #24]
 8004764:	4631      	mov	r1, r6
 8004766:	4628      	mov	r0, r5
 8004768:	47b8      	blx	r7
 800476a:	3001      	adds	r0, #1
 800476c:	f43f aecd 	beq.w	800450a <_printf_float+0xba>
 8004770:	f10b 0b01 	add.w	fp, fp, #1
 8004774:	f8d4 a058 	ldr.w	sl, [r4, #88]	; 0x58
 8004778:	ebaa 0309 	sub.w	r3, sl, r9
 800477c:	455b      	cmp	r3, fp
 800477e:	dcef      	bgt.n	8004760 <_printf_float+0x310>
 8004780:	e9dd 2309 	ldrd	r2, r3, [sp, #36]	; 0x24
 8004784:	429a      	cmp	r2, r3
 8004786:	44d0      	add	r8, sl
 8004788:	db15      	blt.n	80047b6 <_printf_float+0x366>
 800478a:	6823      	ldr	r3, [r4, #0]
 800478c:	07da      	lsls	r2, r3, #31
 800478e:	d412      	bmi.n	80047b6 <_printf_float+0x366>
 8004790:	9b0a      	ldr	r3, [sp, #40]	; 0x28
 8004792:	9909      	ldr	r1, [sp, #36]	; 0x24
 8004794:	eba3 020a 	sub.w	r2, r3, sl
 8004798:	eba3 0a01 	sub.w	sl, r3, r1
 800479c:	4592      	cmp	sl, r2
 800479e:	bfa8      	it	ge
 80047a0:	4692      	movge	sl, r2
 80047a2:	f1ba 0f00 	cmp.w	sl, #0
 80047a6:	dc0e      	bgt.n	80047c6 <_printf_float+0x376>
 80047a8:	f04f 0800 	mov.w	r8, #0
 80047ac:	ea2a 7aea 	bic.w	sl, sl, sl, asr #31
 80047b0:	f104 091a 	add.w	r9, r4, #26
 80047b4:	e019      	b.n	80047ea <_printf_float+0x39a>
 80047b6:	e9dd 2304 	ldrd	r2, r3, [sp, #16]
 80047ba:	4631      	mov	r1, r6
 80047bc:	4628      	mov	r0, r5
 80047be:	47b8      	blx	r7
 80047c0:	3001      	adds	r0, #1
 80047c2:	d1e5      	bne.n	8004790 <_printf_float+0x340>
 80047c4:	e6a1      	b.n	800450a <_printf_float+0xba>
 80047c6:	4653      	mov	r3, sl
 80047c8:	4642      	mov	r2, r8
 80047ca:	4631      	mov	r1, r6
 80047cc:	4628      	mov	r0, r5
 80047ce:	47b8      	blx	r7
 80047d0:	3001      	adds	r0, #1
 80047d2:	d1e9      	bne.n	80047a8 <_printf_float+0x358>
 80047d4:	e699      	b.n	800450a <_printf_float+0xba>
 80047d6:	2301      	movs	r3, #1
 80047d8:	464a      	mov	r2, r9
 80047da:	4631      	mov	r1, r6
 80047dc:	4628      	mov	r0, r5
 80047de:	47b8      	blx	r7
 80047e0:	3001      	adds	r0, #1
 80047e2:	f43f ae92 	beq.w	800450a <_printf_float+0xba>
 80047e6:	f108 0801 	add.w	r8, r8, #1
 80047ea:	e9dd 2309 	ldrd	r2, r3, [sp, #36]	; 0x24
 80047ee:	1a9b      	subs	r3, r3, r2
 80047f0:	eba3 030a 	sub.w	r3, r3, sl
 80047f4:	4543      	cmp	r3, r8
 80047f6:	dcee      	bgt.n	80047d6 <_printf_float+0x386>
 80047f8:	e74a      	b.n	8004690 <_printf_float+0x240>
 80047fa:	9a0a      	ldr	r2, [sp, #40]	; 0x28
 80047fc:	2a01      	cmp	r2, #1
 80047fe:	dc01      	bgt.n	8004804 <_printf_float+0x3b4>
 8004800:	07db      	lsls	r3, r3, #31
 8004802:	d53a      	bpl.n	800487a <_printf_float+0x42a>
 8004804:	2301      	movs	r3, #1
 8004806:	4642      	mov	r2, r8
 8004808:	4631      	mov	r1, r6
 800480a:	4628      	mov	r0, r5
 800480c:	47b8      	blx	r7
 800480e:	3001      	adds	r0, #1
 8004810:	f43f ae7b 	beq.w	800450a <_printf_float+0xba>
 8004814:	e9dd 2304 	ldrd	r2, r3, [sp, #16]
 8004818:	4631      	mov	r1, r6
 800481a:	4628      	mov	r0, r5
 800481c:	47b8      	blx	r7
 800481e:	3001      	adds	r0, #1
 8004820:	f108 0801 	add.w	r8, r8, #1
 8004824:	f43f ae71 	beq.w	800450a <_printf_float+0xba>
 8004828:	9b0a      	ldr	r3, [sp, #40]	; 0x28
 800482a:	2200      	movs	r2, #0
 800482c:	f103 3aff 	add.w	sl, r3, #4294967295
 8004830:	e9d4 0112 	ldrd	r0, r1, [r4, #72]	; 0x48
 8004834:	2300      	movs	r3, #0
 8004836:	f7fc f967 	bl	8000b08 <__aeabi_dcmpeq>
 800483a:	b9c8      	cbnz	r0, 8004870 <_printf_float+0x420>
 800483c:	4653      	mov	r3, sl
 800483e:	4642      	mov	r2, r8
 8004840:	4631      	mov	r1, r6
 8004842:	4628      	mov	r0, r5
 8004844:	47b8      	blx	r7
 8004846:	3001      	adds	r0, #1
 8004848:	d10e      	bne.n	8004868 <_printf_float+0x418>
 800484a:	e65e      	b.n	800450a <_printf_float+0xba>
 800484c:	2301      	movs	r3, #1
 800484e:	4652      	mov	r2, sl
 8004850:	4631      	mov	r1, r6
 8004852:	4628      	mov	r0, r5
 8004854:	47b8      	blx	r7
 8004856:	3001      	adds	r0, #1
 8004858:	f43f ae57 	beq.w	800450a <_printf_float+0xba>
 800485c:	f108 0801 	add.w	r8, r8, #1
 8004860:	9b0a      	ldr	r3, [sp, #40]	; 0x28
 8004862:	3b01      	subs	r3, #1
 8004864:	4543      	cmp	r3, r8
 8004866:	dcf1      	bgt.n	800484c <_printf_float+0x3fc>
 8004868:	464b      	mov	r3, r9
 800486a:	f104 0250 	add.w	r2, r4, #80	; 0x50
 800486e:	e6de      	b.n	800462e <_printf_float+0x1de>
 8004870:	f04f 0800 	mov.w	r8, #0
 8004874:	f104 0a1a 	add.w	sl, r4, #26
 8004878:	e7f2      	b.n	8004860 <_printf_float+0x410>
 800487a:	2301      	movs	r3, #1
 800487c:	e7df      	b.n	800483e <_printf_float+0x3ee>
 800487e:	2301      	movs	r3, #1
 8004880:	464a      	mov	r2, r9
 8004882:	4631      	mov	r1, r6
 8004884:	4628      	mov	r0, r5
 8004886:	47b8      	blx	r7
 8004888:	3001      	adds	r0, #1
 800488a:	f43f ae3e 	beq.w	800450a <_printf_float+0xba>
 800488e:	f108 0801 	add.w	r8, r8, #1
 8004892:	68e3      	ldr	r3, [r4, #12]
 8004894:	9a0b      	ldr	r2, [sp, #44]	; 0x2c
 8004896:	1a9b      	subs	r3, r3, r2
 8004898:	4543      	cmp	r3, r8
 800489a:	dcf0      	bgt.n	800487e <_printf_float+0x42e>
 800489c:	e6fc      	b.n	8004698 <_printf_float+0x248>
 800489e:	f04f 0800 	mov.w	r8, #0
 80048a2:	f104 0919 	add.w	r9, r4, #25
 80048a6:	e7f4      	b.n	8004892 <_printf_float+0x442>
 80048a8:	2900      	cmp	r1, #0
 80048aa:	f43f ae8b 	beq.w	80045c4 <_printf_float+0x174>
 80048ae:	2300      	movs	r3, #0
 80048b0:	e9cd 0302 	strd	r0, r3, [sp, #8]
 80048b4:	ab09      	add	r3, sp, #36	; 0x24
 80048b6:	9300      	str	r3, [sp, #0]
 80048b8:	ec49 8b10 	vmov	d0, r8, r9
 80048bc:	6022      	str	r2, [r4, #0]
 80048be:	f8cd a004 	str.w	sl, [sp, #4]
 80048c2:	f10d 0323 	add.w	r3, sp, #35	; 0x23
 80048c6:	4628      	mov	r0, r5
 80048c8:	f7ff fd2e 	bl	8004328 <__cvt>
 80048cc:	4680      	mov	r8, r0
 80048ce:	e648      	b.n	8004562 <_printf_float+0x112>

080048d0 <_printf_common>:
 80048d0:	e92d 47f0 	stmdb	sp!, {r4, r5, r6, r7, r8, r9, sl, lr}
 80048d4:	4691      	mov	r9, r2
 80048d6:	461f      	mov	r7, r3
 80048d8:	688a      	ldr	r2, [r1, #8]
 80048da:	690b      	ldr	r3, [r1, #16]
 80048dc:	f8dd 8020 	ldr.w	r8, [sp, #32]
 80048e0:	4293      	cmp	r3, r2
 80048e2:	bfb8      	it	lt
 80048e4:	4613      	movlt	r3, r2
 80048e6:	f8c9 3000 	str.w	r3, [r9]
 80048ea:	f891 2043 	ldrb.w	r2, [r1, #67]	; 0x43
 80048ee:	4606      	mov	r6, r0
 80048f0:	460c      	mov	r4, r1
 80048f2:	b112      	cbz	r2, 80048fa <_printf_common+0x2a>
 80048f4:	3301      	adds	r3, #1
 80048f6:	f8c9 3000 	str.w	r3, [r9]
 80048fa:	6823      	ldr	r3, [r4, #0]
 80048fc:	0699      	lsls	r1, r3, #26
 80048fe:	bf42      	ittt	mi
 8004900:	f8d9 3000 	ldrmi.w	r3, [r9]
 8004904:	3302      	addmi	r3, #2
 8004906:	f8c9 3000 	strmi.w	r3, [r9]
 800490a:	6825      	ldr	r5, [r4, #0]
 800490c:	f015 0506 	ands.w	r5, r5, #6
 8004910:	d107      	bne.n	8004922 <_printf_common+0x52>
 8004912:	f104 0a19 	add.w	sl, r4, #25
 8004916:	68e3      	ldr	r3, [r4, #12]
 8004918:	f8d9 2000 	ldr.w	r2, [r9]
 800491c:	1a9b      	subs	r3, r3, r2
 800491e:	42ab      	cmp	r3, r5
 8004920:	dc28      	bgt.n	8004974 <_printf_common+0xa4>
 8004922:	f894 3043 	ldrb.w	r3, [r4, #67]	; 0x43
 8004926:	6822      	ldr	r2, [r4, #0]
 8004928:	3300      	adds	r3, #0
 800492a:	bf18      	it	ne
 800492c:	2301      	movne	r3, #1
 800492e:	0692      	lsls	r2, r2, #26
 8004930:	d42d      	bmi.n	800498e <_printf_common+0xbe>
 8004932:	f104 0243 	add.w	r2, r4, #67	; 0x43
 8004936:	4639      	mov	r1, r7
 8004938:	4630      	mov	r0, r6
 800493a:	47c0      	blx	r8
 800493c:	3001      	adds	r0, #1
 800493e:	d020      	beq.n	8004982 <_printf_common+0xb2>
 8004940:	6823      	ldr	r3, [r4, #0]
 8004942:	68e5      	ldr	r5, [r4, #12]
 8004944:	f8d9 2000 	ldr.w	r2, [r9]
 8004948:	f003 0306 	and.w	r3, r3, #6
 800494c:	2b04      	cmp	r3, #4
 800494e:	bf08      	it	eq
 8004950:	1aad      	subeq	r5, r5, r2
 8004952:	68a3      	ldr	r3, [r4, #8]
 8004954:	6922      	ldr	r2, [r4, #16]
 8004956:	bf0c      	ite	eq
 8004958:	ea25 75e5 	biceq.w	r5, r5, r5, asr #31
 800495c:	2500      	movne	r5, #0
 800495e:	4293      	cmp	r3, r2
 8004960:	bfc4      	itt	gt
 8004962:	1a9b      	subgt	r3, r3, r2
 8004964:	18ed      	addgt	r5, r5, r3
 8004966:	f04f 0900 	mov.w	r9, #0
 800496a:	341a      	adds	r4, #26
 800496c:	454d      	cmp	r5, r9
 800496e:	d11a      	bne.n	80049a6 <_printf_common+0xd6>
 8004970:	2000      	movs	r0, #0
 8004972:	e008      	b.n	8004986 <_printf_common+0xb6>
 8004974:	2301      	movs	r3, #1
 8004976:	4652      	mov	r2, sl
 8004978:	4639      	mov	r1, r7
 800497a:	4630      	mov	r0, r6
 800497c:	47c0      	blx	r8
 800497e:	3001      	adds	r0, #1
 8004980:	d103      	bne.n	800498a <_printf_common+0xba>
 8004982:	f04f 30ff 	mov.w	r0, #4294967295
 8004986:	e8bd 87f0 	ldmia.w	sp!, {r4, r5, r6, r7, r8, r9, sl, pc}
 800498a:	3501      	adds	r5, #1
 800498c:	e7c3      	b.n	8004916 <_printf_common+0x46>
 800498e:	18e1      	adds	r1, r4, r3
 8004990:	1c5a      	adds	r2, r3, #1
 8004992:	2030      	movs	r0, #48	; 0x30
 8004994:	f881 0043 	strb.w	r0, [r1, #67]	; 0x43
 8004998:	4422      	add	r2, r4
 800499a:	f894 1045 	ldrb.w	r1, [r4, #69]	; 0x45
 800499e:	f882 1043 	strb.w	r1, [r2, #67]	; 0x43
 80049a2:	3302      	adds	r3, #2
 80049a4:	e7c5      	b.n	8004932 <_printf_common+0x62>
 80049a6:	2301      	movs	r3, #1
 80049a8:	4622      	mov	r2, r4
 80049aa:	4639      	mov	r1, r7
 80049ac:	4630      	mov	r0, r6
 80049ae:	47c0      	blx	r8
 80049b0:	3001      	adds	r0, #1
 80049b2:	d0e6      	beq.n	8004982 <_printf_common+0xb2>
 80049b4:	f109 0901 	add.w	r9, r9, #1
 80049b8:	e7d8      	b.n	800496c <_printf_common+0x9c>
	...

080049bc <_printf_i>:
 80049bc:	e92d 43f0 	stmdb	sp!, {r4, r5, r6, r7, r8, r9, lr}
 80049c0:	f101 0c43 	add.w	ip, r1, #67	; 0x43
 80049c4:	460c      	mov	r4, r1
 80049c6:	7e09      	ldrb	r1, [r1, #24]
 80049c8:	b085      	sub	sp, #20
 80049ca:	296e      	cmp	r1, #110	; 0x6e
 80049cc:	4617      	mov	r7, r2
 80049ce:	4606      	mov	r6, r0
 80049d0:	4698      	mov	r8, r3
 80049d2:	9a0c      	ldr	r2, [sp, #48]	; 0x30
 80049d4:	f000 80b3 	beq.w	8004b3e <_printf_i+0x182>
 80049d8:	d822      	bhi.n	8004a20 <_printf_i+0x64>
 80049da:	2963      	cmp	r1, #99	; 0x63
 80049dc:	d036      	beq.n	8004a4c <_printf_i+0x90>
 80049de:	d80a      	bhi.n	80049f6 <_printf_i+0x3a>
 80049e0:	2900      	cmp	r1, #0
 80049e2:	f000 80b9 	beq.w	8004b58 <_printf_i+0x19c>
 80049e6:	2958      	cmp	r1, #88	; 0x58
 80049e8:	f000 8083 	beq.w	8004af2 <_printf_i+0x136>
 80049ec:	f104 0542 	add.w	r5, r4, #66	; 0x42
 80049f0:	f884 1042 	strb.w	r1, [r4, #66]	; 0x42
 80049f4:	e032      	b.n	8004a5c <_printf_i+0xa0>
 80049f6:	2964      	cmp	r1, #100	; 0x64
 80049f8:	d001      	beq.n	80049fe <_printf_i+0x42>
 80049fa:	2969      	cmp	r1, #105	; 0x69
 80049fc:	d1f6      	bne.n	80049ec <_printf_i+0x30>
 80049fe:	6820      	ldr	r0, [r4, #0]
 8004a00:	6813      	ldr	r3, [r2, #0]
 8004a02:	0605      	lsls	r5, r0, #24
 8004a04:	f103 0104 	add.w	r1, r3, #4
 8004a08:	d52a      	bpl.n	8004a60 <_printf_i+0xa4>
 8004a0a:	681b      	ldr	r3, [r3, #0]
 8004a0c:	6011      	str	r1, [r2, #0]
 8004a0e:	2b00      	cmp	r3, #0
 8004a10:	da03      	bge.n	8004a1a <_printf_i+0x5e>
 8004a12:	222d      	movs	r2, #45	; 0x2d
 8004a14:	425b      	negs	r3, r3
 8004a16:	f884 2043 	strb.w	r2, [r4, #67]	; 0x43
 8004a1a:	486f      	ldr	r0, [pc, #444]	; (8004bd8 <_printf_i+0x21c>)
 8004a1c:	220a      	movs	r2, #10
 8004a1e:	e039      	b.n	8004a94 <_printf_i+0xd8>
 8004a20:	2973      	cmp	r1, #115	; 0x73
 8004a22:	f000 809d 	beq.w	8004b60 <_printf_i+0x1a4>
 8004a26:	d808      	bhi.n	8004a3a <_printf_i+0x7e>
 8004a28:	296f      	cmp	r1, #111	; 0x6f
 8004a2a:	d020      	beq.n	8004a6e <_printf_i+0xb2>
 8004a2c:	2970      	cmp	r1, #112	; 0x70
 8004a2e:	d1dd      	bne.n	80049ec <_printf_i+0x30>
 8004a30:	6823      	ldr	r3, [r4, #0]
 8004a32:	f043 0320 	orr.w	r3, r3, #32
 8004a36:	6023      	str	r3, [r4, #0]
 8004a38:	e003      	b.n	8004a42 <_printf_i+0x86>
 8004a3a:	2975      	cmp	r1, #117	; 0x75
 8004a3c:	d017      	beq.n	8004a6e <_printf_i+0xb2>
 8004a3e:	2978      	cmp	r1, #120	; 0x78
 8004a40:	d1d4      	bne.n	80049ec <_printf_i+0x30>
 8004a42:	2378      	movs	r3, #120	; 0x78
 8004a44:	f884 3045 	strb.w	r3, [r4, #69]	; 0x45
 8004a48:	4864      	ldr	r0, [pc, #400]	; (8004bdc <_printf_i+0x220>)
 8004a4a:	e055      	b.n	8004af8 <_printf_i+0x13c>
 8004a4c:	6813      	ldr	r3, [r2, #0]
 8004a4e:	1d19      	adds	r1, r3, #4
 8004a50:	681b      	ldr	r3, [r3, #0]
 8004a52:	6011      	str	r1, [r2, #0]
 8004a54:	f104 0542 	add.w	r5, r4, #66	; 0x42
 8004a58:	f884 3042 	strb.w	r3, [r4, #66]	; 0x42
 8004a5c:	2301      	movs	r3, #1
 8004a5e:	e08c      	b.n	8004b7a <_printf_i+0x1be>
 8004a60:	681b      	ldr	r3, [r3, #0]
 8004a62:	6011      	str	r1, [r2, #0]
 8004a64:	f010 0f40 	tst.w	r0, #64	; 0x40
 8004a68:	bf18      	it	ne
 8004a6a:	b21b      	sxthne	r3, r3
 8004a6c:	e7cf      	b.n	8004a0e <_printf_i+0x52>
 8004a6e:	6813      	ldr	r3, [r2, #0]
 8004a70:	6825      	ldr	r5, [r4, #0]
 8004a72:	1d18      	adds	r0, r3, #4
 8004a74:	6010      	str	r0, [r2, #0]
 8004a76:	0628      	lsls	r0, r5, #24
 8004a78:	d501      	bpl.n	8004a7e <_printf_i+0xc2>
 8004a7a:	681b      	ldr	r3, [r3, #0]
 8004a7c:	e002      	b.n	8004a84 <_printf_i+0xc8>
 8004a7e:	0668      	lsls	r0, r5, #25
 8004a80:	d5fb      	bpl.n	8004a7a <_printf_i+0xbe>
 8004a82:	881b      	ldrh	r3, [r3, #0]
 8004a84:	4854      	ldr	r0, [pc, #336]	; (8004bd8 <_printf_i+0x21c>)
 8004a86:	296f      	cmp	r1, #111	; 0x6f
 8004a88:	bf14      	ite	ne
 8004a8a:	220a      	movne	r2, #10
 8004a8c:	2208      	moveq	r2, #8
 8004a8e:	2100      	movs	r1, #0
 8004a90:	f884 1043 	strb.w	r1, [r4, #67]	; 0x43
 8004a94:	6865      	ldr	r5, [r4, #4]
 8004a96:	60a5      	str	r5, [r4, #8]
 8004a98:	2d00      	cmp	r5, #0
 8004a9a:	f2c0 8095 	blt.w	8004bc8 <_printf_i+0x20c>
 8004a9e:	6821      	ldr	r1, [r4, #0]
 8004aa0:	f021 0104 	bic.w	r1, r1, #4
 8004aa4:	6021      	str	r1, [r4, #0]
 8004aa6:	2b00      	cmp	r3, #0
 8004aa8:	d13d      	bne.n	8004b26 <_printf_i+0x16a>
 8004aaa:	2d00      	cmp	r5, #0
 8004aac:	f040 808e 	bne.w	8004bcc <_printf_i+0x210>
 8004ab0:	4665      	mov	r5, ip
 8004ab2:	2a08      	cmp	r2, #8
 8004ab4:	d10b      	bne.n	8004ace <_printf_i+0x112>
 8004ab6:	6823      	ldr	r3, [r4, #0]
 8004ab8:	07db      	lsls	r3, r3, #31
 8004aba:	d508      	bpl.n	8004ace <_printf_i+0x112>
 8004abc:	6923      	ldr	r3, [r4, #16]
 8004abe:	6862      	ldr	r2, [r4, #4]
 8004ac0:	429a      	cmp	r2, r3
 8004ac2:	bfde      	ittt	le
 8004ac4:	2330      	movle	r3, #48	; 0x30
 8004ac6:	f805 3c01 	strble.w	r3, [r5, #-1]
 8004aca:	f105 35ff 	addle.w	r5, r5, #4294967295
 8004ace:	ebac 0305 	sub.w	r3, ip, r5
 8004ad2:	6123      	str	r3, [r4, #16]
 8004ad4:	f8cd 8000 	str.w	r8, [sp]
 8004ad8:	463b      	mov	r3, r7
 8004ada:	aa03      	add	r2, sp, #12
 8004adc:	4621      	mov	r1, r4
 8004ade:	4630      	mov	r0, r6
 8004ae0:	f7ff fef6 	bl	80048d0 <_printf_common>
 8004ae4:	3001      	adds	r0, #1
 8004ae6:	d14d      	bne.n	8004b84 <_printf_i+0x1c8>
 8004ae8:	f04f 30ff 	mov.w	r0, #4294967295
 8004aec:	b005      	add	sp, #20
 8004aee:	e8bd 83f0 	ldmia.w	sp!, {r4, r5, r6, r7, r8, r9, pc}
 8004af2:	4839      	ldr	r0, [pc, #228]	; (8004bd8 <_printf_i+0x21c>)
 8004af4:	f884 1045 	strb.w	r1, [r4, #69]	; 0x45
 8004af8:	6813      	ldr	r3, [r2, #0]
 8004afa:	6821      	ldr	r1, [r4, #0]
 8004afc:	1d1d      	adds	r5, r3, #4
 8004afe:	681b      	ldr	r3, [r3, #0]
 8004b00:	6015      	str	r5, [r2, #0]
 8004b02:	060a      	lsls	r2, r1, #24
 8004b04:	d50b      	bpl.n	8004b1e <_printf_i+0x162>
 8004b06:	07ca      	lsls	r2, r1, #31
 8004b08:	bf44      	itt	mi
 8004b0a:	f041 0120 	orrmi.w	r1, r1, #32
 8004b0e:	6021      	strmi	r1, [r4, #0]
 8004b10:	b91b      	cbnz	r3, 8004b1a <_printf_i+0x15e>
 8004b12:	6822      	ldr	r2, [r4, #0]
 8004b14:	f022 0220 	bic.w	r2, r2, #32
 8004b18:	6022      	str	r2, [r4, #0]
 8004b1a:	2210      	movs	r2, #16
 8004b1c:	e7b7      	b.n	8004a8e <_printf_i+0xd2>
 8004b1e:	064d      	lsls	r5, r1, #25
 8004b20:	bf48      	it	mi
 8004b22:	b29b      	uxthmi	r3, r3
 8004b24:	e7ef      	b.n	8004b06 <_printf_i+0x14a>
 8004b26:	4665      	mov	r5, ip
 8004b28:	fbb3 f1f2 	udiv	r1, r3, r2
 8004b2c:	fb02 3311 	mls	r3, r2, r1, r3
 8004b30:	5cc3      	ldrb	r3, [r0, r3]
 8004b32:	f805 3d01 	strb.w	r3, [r5, #-1]!
 8004b36:	460b      	mov	r3, r1
 8004b38:	2900      	cmp	r1, #0
 8004b3a:	d1f5      	bne.n	8004b28 <_printf_i+0x16c>
 8004b3c:	e7b9      	b.n	8004ab2 <_printf_i+0xf6>
 8004b3e:	6813      	ldr	r3, [r2, #0]
 8004b40:	6825      	ldr	r5, [r4, #0]
 8004b42:	6961      	ldr	r1, [r4, #20]
 8004b44:	1d18      	adds	r0, r3, #4
 8004b46:	6010      	str	r0, [r2, #0]
 8004b48:	0628      	lsls	r0, r5, #24
 8004b4a:	681b      	ldr	r3, [r3, #0]
 8004b4c:	d501      	bpl.n	8004b52 <_printf_i+0x196>
 8004b4e:	6019      	str	r1, [r3, #0]
 8004b50:	e002      	b.n	8004b58 <_printf_i+0x19c>
 8004b52:	066a      	lsls	r2, r5, #25
 8004b54:	d5fb      	bpl.n	8004b4e <_printf_i+0x192>
 8004b56:	8019      	strh	r1, [r3, #0]
 8004b58:	2300      	movs	r3, #0
 8004b5a:	6123      	str	r3, [r4, #16]
 8004b5c:	4665      	mov	r5, ip
 8004b5e:	e7b9      	b.n	8004ad4 <_printf_i+0x118>
 8004b60:	6813      	ldr	r3, [r2, #0]
 8004b62:	1d19      	adds	r1, r3, #4
 8004b64:	6011      	str	r1, [r2, #0]
 8004b66:	681d      	ldr	r5, [r3, #0]
 8004b68:	6862      	ldr	r2, [r4, #4]
 8004b6a:	2100      	movs	r1, #0
 8004b6c:	4628      	mov	r0, r5
 8004b6e:	f7fb fb57 	bl	8000220 <memchr>
 8004b72:	b108      	cbz	r0, 8004b78 <_printf_i+0x1bc>
 8004b74:	1b40      	subs	r0, r0, r5
 8004b76:	6060      	str	r0, [r4, #4]
 8004b78:	6863      	ldr	r3, [r4, #4]
 8004b7a:	6123      	str	r3, [r4, #16]
 8004b7c:	2300      	movs	r3, #0
 8004b7e:	f884 3043 	strb.w	r3, [r4, #67]	; 0x43
 8004b82:	e7a7      	b.n	8004ad4 <_printf_i+0x118>
 8004b84:	6923      	ldr	r3, [r4, #16]
 8004b86:	462a      	mov	r2, r5
 8004b88:	4639      	mov	r1, r7
 8004b8a:	4630      	mov	r0, r6
 8004b8c:	47c0      	blx	r8
 8004b8e:	3001      	adds	r0, #1
 8004b90:	d0aa      	beq.n	8004ae8 <_printf_i+0x12c>
 8004b92:	6823      	ldr	r3, [r4, #0]
 8004b94:	079b      	lsls	r3, r3, #30
 8004b96:	d413      	bmi.n	8004bc0 <_printf_i+0x204>
 8004b98:	68e0      	ldr	r0, [r4, #12]
 8004b9a:	9b03      	ldr	r3, [sp, #12]
 8004b9c:	4298      	cmp	r0, r3
 8004b9e:	bfb8      	it	lt
 8004ba0:	4618      	movlt	r0, r3
 8004ba2:	e7a3      	b.n	8004aec <_printf_i+0x130>
 8004ba4:	2301      	movs	r3, #1
 8004ba6:	464a      	mov	r2, r9
 8004ba8:	4639      	mov	r1, r7
 8004baa:	4630      	mov	r0, r6
 8004bac:	47c0      	blx	r8
 8004bae:	3001      	adds	r0, #1
 8004bb0:	d09a      	beq.n	8004ae8 <_printf_i+0x12c>
 8004bb2:	3501      	adds	r5, #1
 8004bb4:	68e3      	ldr	r3, [r4, #12]
 8004bb6:	9a03      	ldr	r2, [sp, #12]
 8004bb8:	1a9b      	subs	r3, r3, r2
 8004bba:	42ab      	cmp	r3, r5
 8004bbc:	dcf2      	bgt.n	8004ba4 <_printf_i+0x1e8>
 8004bbe:	e7eb      	b.n	8004b98 <_printf_i+0x1dc>
 8004bc0:	2500      	movs	r5, #0
 8004bc2:	f104 0919 	add.w	r9, r4, #25
 8004bc6:	e7f5      	b.n	8004bb4 <_printf_i+0x1f8>
 8004bc8:	2b00      	cmp	r3, #0
 8004bca:	d1ac      	bne.n	8004b26 <_printf_i+0x16a>
 8004bcc:	7803      	ldrb	r3, [r0, #0]
 8004bce:	f884 3042 	strb.w	r3, [r4, #66]	; 0x42
 8004bd2:	f104 0542 	add.w	r5, r4, #66	; 0x42
 8004bd6:	e76c      	b.n	8004ab2 <_printf_i+0xf6>
 8004bd8:	080063ee 	.word	0x080063ee
 8004bdc:	080063ff 	.word	0x080063ff

08004be0 <siprintf>:
 8004be0:	b40e      	push	{r1, r2, r3}
 8004be2:	b500      	push	{lr}
 8004be4:	b09c      	sub	sp, #112	; 0x70
 8004be6:	ab1d      	add	r3, sp, #116	; 0x74
 8004be8:	9002      	str	r0, [sp, #8]
 8004bea:	9006      	str	r0, [sp, #24]
 8004bec:	f06f 4100 	mvn.w	r1, #2147483648	; 0x80000000
 8004bf0:	4809      	ldr	r0, [pc, #36]	; (8004c18 <siprintf+0x38>)
 8004bf2:	9107      	str	r1, [sp, #28]
 8004bf4:	9104      	str	r1, [sp, #16]
 8004bf6:	4909      	ldr	r1, [pc, #36]	; (8004c1c <siprintf+0x3c>)
 8004bf8:	f853 2b04 	ldr.w	r2, [r3], #4
 8004bfc:	9105      	str	r1, [sp, #20]
 8004bfe:	6800      	ldr	r0, [r0, #0]
 8004c00:	9301      	str	r3, [sp, #4]
 8004c02:	a902      	add	r1, sp, #8
 8004c04:	f001 fa5c 	bl	80060c0 <_svfiprintf_r>
 8004c08:	9b02      	ldr	r3, [sp, #8]
 8004c0a:	2200      	movs	r2, #0
 8004c0c:	701a      	strb	r2, [r3, #0]
 8004c0e:	b01c      	add	sp, #112	; 0x70
 8004c10:	f85d eb04 	ldr.w	lr, [sp], #4
 8004c14:	b003      	add	sp, #12
 8004c16:	4770      	bx	lr
 8004c18:	2000000c 	.word	0x2000000c
 8004c1c:	ffff0208 	.word	0xffff0208

08004c20 <quorem>:
 8004c20:	e92d 4ff7 	stmdb	sp!, {r0, r1, r2, r4, r5, r6, r7, r8, r9, sl, fp, lr}
 8004c24:	6903      	ldr	r3, [r0, #16]
 8004c26:	690c      	ldr	r4, [r1, #16]
 8004c28:	42a3      	cmp	r3, r4
 8004c2a:	4680      	mov	r8, r0
 8004c2c:	f2c0 8082 	blt.w	8004d34 <quorem+0x114>
 8004c30:	3c01      	subs	r4, #1
 8004c32:	f101 0714 	add.w	r7, r1, #20
 8004c36:	ea4f 0c84 	mov.w	ip, r4, lsl #2
 8004c3a:	f100 0614 	add.w	r6, r0, #20
 8004c3e:	f857 5024 	ldr.w	r5, [r7, r4, lsl #2]
 8004c42:	f856 0024 	ldr.w	r0, [r6, r4, lsl #2]
 8004c46:	eb06 030c 	add.w	r3, r6, ip
 8004c4a:	3501      	adds	r5, #1
 8004c4c:	eb07 090c 	add.w	r9, r7, ip
 8004c50:	9301      	str	r3, [sp, #4]
 8004c52:	fbb0 f5f5 	udiv	r5, r0, r5
 8004c56:	b395      	cbz	r5, 8004cbe <quorem+0x9e>
 8004c58:	f04f 0a00 	mov.w	sl, #0
 8004c5c:	4638      	mov	r0, r7
 8004c5e:	46b6      	mov	lr, r6
 8004c60:	46d3      	mov	fp, sl
 8004c62:	f850 2b04 	ldr.w	r2, [r0], #4
 8004c66:	b293      	uxth	r3, r2
 8004c68:	fb05 a303 	mla	r3, r5, r3, sl
 8004c6c:	ea4f 4a13 	mov.w	sl, r3, lsr #16
 8004c70:	b29b      	uxth	r3, r3
 8004c72:	ebab 0303 	sub.w	r3, fp, r3
 8004c76:	0c12      	lsrs	r2, r2, #16
 8004c78:	f8de b000 	ldr.w	fp, [lr]
 8004c7c:	fb05 a202 	mla	r2, r5, r2, sl
 8004c80:	fa13 f38b 	uxtah	r3, r3, fp
 8004c84:	ea4f 4a12 	mov.w	sl, r2, lsr #16
 8004c88:	fa1f fb82 	uxth.w	fp, r2
 8004c8c:	f8de 2000 	ldr.w	r2, [lr]
 8004c90:	ebcb 4212 	rsb	r2, fp, r2, lsr #16
 8004c94:	eb02 4223 	add.w	r2, r2, r3, asr #16
 8004c98:	b29b      	uxth	r3, r3
 8004c9a:	ea43 4302 	orr.w	r3, r3, r2, lsl #16
 8004c9e:	4581      	cmp	r9, r0
 8004ca0:	ea4f 4b22 	mov.w	fp, r2, asr #16
 8004ca4:	f84e 3b04 	str.w	r3, [lr], #4
 8004ca8:	d2db      	bcs.n	8004c62 <quorem+0x42>
 8004caa:	f856 300c 	ldr.w	r3, [r6, ip]
 8004cae:	b933      	cbnz	r3, 8004cbe <quorem+0x9e>
 8004cb0:	9b01      	ldr	r3, [sp, #4]
 8004cb2:	3b04      	subs	r3, #4
 8004cb4:	429e      	cmp	r6, r3
 8004cb6:	461a      	mov	r2, r3
 8004cb8:	d330      	bcc.n	8004d1c <quorem+0xfc>
 8004cba:	f8c8 4010 	str.w	r4, [r8, #16]
 8004cbe:	4640      	mov	r0, r8
 8004cc0:	f001 f828 	bl	8005d14 <__mcmp>
 8004cc4:	2800      	cmp	r0, #0
 8004cc6:	db25      	blt.n	8004d14 <quorem+0xf4>
 8004cc8:	3501      	adds	r5, #1
 8004cca:	4630      	mov	r0, r6
 8004ccc:	f04f 0c00 	mov.w	ip, #0
 8004cd0:	f857 2b04 	ldr.w	r2, [r7], #4
 8004cd4:	f8d0 e000 	ldr.w	lr, [r0]
 8004cd8:	b293      	uxth	r3, r2
 8004cda:	ebac 0303 	sub.w	r3, ip, r3
 8004cde:	0c12      	lsrs	r2, r2, #16
 8004ce0:	fa13 f38e 	uxtah	r3, r3, lr
 8004ce4:	ebc2 421e 	rsb	r2, r2, lr, lsr #16
 8004ce8:	eb02 4223 	add.w	r2, r2, r3, asr #16
 8004cec:	b29b      	uxth	r3, r3
 8004cee:	ea43 4302 	orr.w	r3, r3, r2, lsl #16
 8004cf2:	45b9      	cmp	r9, r7
 8004cf4:	ea4f 4c22 	mov.w	ip, r2, asr #16
 8004cf8:	f840 3b04 	str.w	r3, [r0], #4
 8004cfc:	d2e8      	bcs.n	8004cd0 <quorem+0xb0>
 8004cfe:	f856 2024 	ldr.w	r2, [r6, r4, lsl #2]
 8004d02:	eb06 0384 	add.w	r3, r6, r4, lsl #2
 8004d06:	b92a      	cbnz	r2, 8004d14 <quorem+0xf4>
 8004d08:	3b04      	subs	r3, #4
 8004d0a:	429e      	cmp	r6, r3
 8004d0c:	461a      	mov	r2, r3
 8004d0e:	d30b      	bcc.n	8004d28 <quorem+0x108>
 8004d10:	f8c8 4010 	str.w	r4, [r8, #16]
 8004d14:	4628      	mov	r0, r5
 8004d16:	b003      	add	sp, #12
 8004d18:	e8bd 8ff0 	ldmia.w	sp!, {r4, r5, r6, r7, r8, r9, sl, fp, pc}
 8004d1c:	6812      	ldr	r2, [r2, #0]
 8004d1e:	3b04      	subs	r3, #4
 8004d20:	2a00      	cmp	r2, #0
 8004d22:	d1ca      	bne.n	8004cba <quorem+0x9a>
 8004d24:	3c01      	subs	r4, #1
 8004d26:	e7c5      	b.n	8004cb4 <quorem+0x94>
 8004d28:	6812      	ldr	r2, [r2, #0]
 8004d2a:	3b04      	subs	r3, #4
 8004d2c:	2a00      	cmp	r2, #0
 8004d2e:	d1ef      	bne.n	8004d10 <quorem+0xf0>
 8004d30:	3c01      	subs	r4, #1
 8004d32:	e7ea      	b.n	8004d0a <quorem+0xea>
 8004d34:	2000      	movs	r0, #0
 8004d36:	e7ee      	b.n	8004d16 <quorem+0xf6>

08004d38 <_dtoa_r>:
 8004d38:	e92d 4ff0 	stmdb	sp!, {r4, r5, r6, r7, r8, r9, sl, fp, lr}
 8004d3c:	ec57 6b10 	vmov	r6, r7, d0
 8004d40:	b097      	sub	sp, #92	; 0x5c
 8004d42:	6a45      	ldr	r5, [r0, #36]	; 0x24
 8004d44:	9106      	str	r1, [sp, #24]
 8004d46:	4604      	mov	r4, r0
 8004d48:	920b      	str	r2, [sp, #44]	; 0x2c
 8004d4a:	9312      	str	r3, [sp, #72]	; 0x48
 8004d4c:	f8dd 8080 	ldr.w	r8, [sp, #128]	; 0x80
 8004d50:	e9cd 6700 	strd	r6, r7, [sp]
 8004d54:	b93d      	cbnz	r5, 8004d66 <_dtoa_r+0x2e>
 8004d56:	2010      	movs	r0, #16
 8004d58:	f000 fdb4 	bl	80058c4 <malloc>
 8004d5c:	6260      	str	r0, [r4, #36]	; 0x24
 8004d5e:	e9c0 5501 	strd	r5, r5, [r0, #4]
 8004d62:	6005      	str	r5, [r0, #0]
 8004d64:	60c5      	str	r5, [r0, #12]
 8004d66:	6a63      	ldr	r3, [r4, #36]	; 0x24
 8004d68:	6819      	ldr	r1, [r3, #0]
 8004d6a:	b151      	cbz	r1, 8004d82 <_dtoa_r+0x4a>
 8004d6c:	685a      	ldr	r2, [r3, #4]
 8004d6e:	604a      	str	r2, [r1, #4]
 8004d70:	2301      	movs	r3, #1
 8004d72:	4093      	lsls	r3, r2
 8004d74:	608b      	str	r3, [r1, #8]
 8004d76:	4620      	mov	r0, r4
 8004d78:	f000 fdeb 	bl	8005952 <_Bfree>
 8004d7c:	6a63      	ldr	r3, [r4, #36]	; 0x24
 8004d7e:	2200      	movs	r2, #0
 8004d80:	601a      	str	r2, [r3, #0]
 8004d82:	1e3b      	subs	r3, r7, #0
 8004d84:	bfbb      	ittet	lt
 8004d86:	f023 4300 	biclt.w	r3, r3, #2147483648	; 0x80000000
 8004d8a:	9301      	strlt	r3, [sp, #4]
 8004d8c:	2300      	movge	r3, #0
 8004d8e:	2201      	movlt	r2, #1
 8004d90:	bfac      	ite	ge
 8004d92:	f8c8 3000 	strge.w	r3, [r8]
 8004d96:	f8c8 2000 	strlt.w	r2, [r8]
 8004d9a:	4baf      	ldr	r3, [pc, #700]	; (8005058 <_dtoa_r+0x320>)
 8004d9c:	f8dd 8004 	ldr.w	r8, [sp, #4]
 8004da0:	ea33 0308 	bics.w	r3, r3, r8
 8004da4:	d114      	bne.n	8004dd0 <_dtoa_r+0x98>
 8004da6:	9a12      	ldr	r2, [sp, #72]	; 0x48
 8004da8:	f242 730f 	movw	r3, #9999	; 0x270f
 8004dac:	6013      	str	r3, [r2, #0]
 8004dae:	9b00      	ldr	r3, [sp, #0]
 8004db0:	b923      	cbnz	r3, 8004dbc <_dtoa_r+0x84>
 8004db2:	f3c8 0013 	ubfx	r0, r8, #0, #20
 8004db6:	2800      	cmp	r0, #0
 8004db8:	f000 8542 	beq.w	8005840 <_dtoa_r+0xb08>
 8004dbc:	9b21      	ldr	r3, [sp, #132]	; 0x84
 8004dbe:	f8df b2ac 	ldr.w	fp, [pc, #684]	; 800506c <_dtoa_r+0x334>
 8004dc2:	2b00      	cmp	r3, #0
 8004dc4:	f000 8544 	beq.w	8005850 <_dtoa_r+0xb18>
 8004dc8:	f10b 0303 	add.w	r3, fp, #3
 8004dcc:	f000 bd3e 	b.w	800584c <_dtoa_r+0xb14>
 8004dd0:	e9dd 6700 	ldrd	r6, r7, [sp]
 8004dd4:	2200      	movs	r2, #0
 8004dd6:	2300      	movs	r3, #0
 8004dd8:	4630      	mov	r0, r6
 8004dda:	4639      	mov	r1, r7
 8004ddc:	f7fb fe94 	bl	8000b08 <__aeabi_dcmpeq>
 8004de0:	4681      	mov	r9, r0
 8004de2:	b168      	cbz	r0, 8004e00 <_dtoa_r+0xc8>
 8004de4:	9a12      	ldr	r2, [sp, #72]	; 0x48
 8004de6:	2301      	movs	r3, #1
 8004de8:	6013      	str	r3, [r2, #0]
 8004dea:	9b21      	ldr	r3, [sp, #132]	; 0x84
 8004dec:	2b00      	cmp	r3, #0
 8004dee:	f000 8524 	beq.w	800583a <_dtoa_r+0xb02>
 8004df2:	4b9a      	ldr	r3, [pc, #616]	; (800505c <_dtoa_r+0x324>)
 8004df4:	9a21      	ldr	r2, [sp, #132]	; 0x84
 8004df6:	f103 3bff 	add.w	fp, r3, #4294967295
 8004dfa:	6013      	str	r3, [r2, #0]
 8004dfc:	f000 bd28 	b.w	8005850 <_dtoa_r+0xb18>
 8004e00:	aa14      	add	r2, sp, #80	; 0x50
 8004e02:	a915      	add	r1, sp, #84	; 0x54
 8004e04:	ec47 6b10 	vmov	d0, r6, r7
 8004e08:	4620      	mov	r0, r4
 8004e0a:	f000 fffa 	bl	8005e02 <__d2b>
 8004e0e:	f3c8 550a 	ubfx	r5, r8, #20, #11
 8004e12:	9004      	str	r0, [sp, #16]
 8004e14:	2d00      	cmp	r5, #0
 8004e16:	d07c      	beq.n	8004f12 <_dtoa_r+0x1da>
 8004e18:	f3c7 0313 	ubfx	r3, r7, #0, #20
 8004e1c:	f043 5b7f 	orr.w	fp, r3, #1069547520	; 0x3fc00000
 8004e20:	46b2      	mov	sl, r6
 8004e22:	f44b 1b40 	orr.w	fp, fp, #3145728	; 0x300000
 8004e26:	f2a5 35ff 	subw	r5, r5, #1023	; 0x3ff
 8004e2a:	f8cd 904c 	str.w	r9, [sp, #76]	; 0x4c
 8004e2e:	2200      	movs	r2, #0
 8004e30:	4b8b      	ldr	r3, [pc, #556]	; (8005060 <_dtoa_r+0x328>)
 8004e32:	4650      	mov	r0, sl
 8004e34:	4659      	mov	r1, fp
 8004e36:	f7fb fa47 	bl	80002c8 <__aeabi_dsub>
 8004e3a:	a381      	add	r3, pc, #516	; (adr r3, 8005040 <_dtoa_r+0x308>)
 8004e3c:	e9d3 2300 	ldrd	r2, r3, [r3]
 8004e40:	f7fb fbfa 	bl	8000638 <__aeabi_dmul>
 8004e44:	a380      	add	r3, pc, #512	; (adr r3, 8005048 <_dtoa_r+0x310>)
 8004e46:	e9d3 2300 	ldrd	r2, r3, [r3]
 8004e4a:	f7fb fa3f 	bl	80002cc <__adddf3>
 8004e4e:	4606      	mov	r6, r0
 8004e50:	4628      	mov	r0, r5
 8004e52:	460f      	mov	r7, r1
 8004e54:	f7fb fb86 	bl	8000564 <__aeabi_i2d>
 8004e58:	a37d      	add	r3, pc, #500	; (adr r3, 8005050 <_dtoa_r+0x318>)
 8004e5a:	e9d3 2300 	ldrd	r2, r3, [r3]
 8004e5e:	f7fb fbeb 	bl	8000638 <__aeabi_dmul>
 8004e62:	4602      	mov	r2, r0
 8004e64:	460b      	mov	r3, r1
 8004e66:	4630      	mov	r0, r6
 8004e68:	4639      	mov	r1, r7
 8004e6a:	f7fb fa2f 	bl	80002cc <__adddf3>
 8004e6e:	4606      	mov	r6, r0
 8004e70:	460f      	mov	r7, r1
 8004e72:	f7fb fe91 	bl	8000b98 <__aeabi_d2iz>
 8004e76:	2200      	movs	r2, #0
 8004e78:	4682      	mov	sl, r0
 8004e7a:	2300      	movs	r3, #0
 8004e7c:	4630      	mov	r0, r6
 8004e7e:	4639      	mov	r1, r7
 8004e80:	f7fb fe4c 	bl	8000b1c <__aeabi_dcmplt>
 8004e84:	b148      	cbz	r0, 8004e9a <_dtoa_r+0x162>
 8004e86:	4650      	mov	r0, sl
 8004e88:	f7fb fb6c 	bl	8000564 <__aeabi_i2d>
 8004e8c:	4632      	mov	r2, r6
 8004e8e:	463b      	mov	r3, r7
 8004e90:	f7fb fe3a 	bl	8000b08 <__aeabi_dcmpeq>
 8004e94:	b908      	cbnz	r0, 8004e9a <_dtoa_r+0x162>
 8004e96:	f10a 3aff 	add.w	sl, sl, #4294967295
 8004e9a:	f1ba 0f16 	cmp.w	sl, #22
 8004e9e:	d859      	bhi.n	8004f54 <_dtoa_r+0x21c>
 8004ea0:	4970      	ldr	r1, [pc, #448]	; (8005064 <_dtoa_r+0x32c>)
 8004ea2:	eb01 01ca 	add.w	r1, r1, sl, lsl #3
 8004ea6:	e9dd 2300 	ldrd	r2, r3, [sp]
 8004eaa:	e9d1 0100 	ldrd	r0, r1, [r1]
 8004eae:	f7fb fe53 	bl	8000b58 <__aeabi_dcmpgt>
 8004eb2:	2800      	cmp	r0, #0
 8004eb4:	d050      	beq.n	8004f58 <_dtoa_r+0x220>
 8004eb6:	f10a 3aff 	add.w	sl, sl, #4294967295
 8004eba:	2300      	movs	r3, #0
 8004ebc:	930f      	str	r3, [sp, #60]	; 0x3c
 8004ebe:	9b14      	ldr	r3, [sp, #80]	; 0x50
 8004ec0:	1b5d      	subs	r5, r3, r5
 8004ec2:	f1b5 0801 	subs.w	r8, r5, #1
 8004ec6:	bf49      	itett	mi
 8004ec8:	f1c5 0301 	rsbmi	r3, r5, #1
 8004ecc:	2300      	movpl	r3, #0
 8004ece:	9305      	strmi	r3, [sp, #20]
 8004ed0:	f04f 0800 	movmi.w	r8, #0
 8004ed4:	bf58      	it	pl
 8004ed6:	9305      	strpl	r3, [sp, #20]
 8004ed8:	f1ba 0f00 	cmp.w	sl, #0
 8004edc:	db3e      	blt.n	8004f5c <_dtoa_r+0x224>
 8004ede:	2300      	movs	r3, #0
 8004ee0:	44d0      	add	r8, sl
 8004ee2:	f8cd a038 	str.w	sl, [sp, #56]	; 0x38
 8004ee6:	9307      	str	r3, [sp, #28]
 8004ee8:	9b06      	ldr	r3, [sp, #24]
 8004eea:	2b09      	cmp	r3, #9
 8004eec:	f200 8090 	bhi.w	8005010 <_dtoa_r+0x2d8>
 8004ef0:	2b05      	cmp	r3, #5
 8004ef2:	bfc4      	itt	gt
 8004ef4:	3b04      	subgt	r3, #4
 8004ef6:	9306      	strgt	r3, [sp, #24]
 8004ef8:	9b06      	ldr	r3, [sp, #24]
 8004efa:	f1a3 0302 	sub.w	r3, r3, #2
 8004efe:	bfcc      	ite	gt
 8004f00:	2500      	movgt	r5, #0
 8004f02:	2501      	movle	r5, #1
 8004f04:	2b03      	cmp	r3, #3
 8004f06:	f200 808f 	bhi.w	8005028 <_dtoa_r+0x2f0>
 8004f0a:	e8df f003 	tbb	[pc, r3]
 8004f0e:	7f7d      	.short	0x7f7d
 8004f10:	7131      	.short	0x7131
 8004f12:	e9dd 5314 	ldrd	r5, r3, [sp, #80]	; 0x50
 8004f16:	441d      	add	r5, r3
 8004f18:	f205 4032 	addw	r0, r5, #1074	; 0x432
 8004f1c:	2820      	cmp	r0, #32
 8004f1e:	dd13      	ble.n	8004f48 <_dtoa_r+0x210>
 8004f20:	f1c0 0040 	rsb	r0, r0, #64	; 0x40
 8004f24:	9b00      	ldr	r3, [sp, #0]
 8004f26:	fa08 f800 	lsl.w	r8, r8, r0
 8004f2a:	f205 4012 	addw	r0, r5, #1042	; 0x412
 8004f2e:	fa23 f000 	lsr.w	r0, r3, r0
 8004f32:	ea48 0000 	orr.w	r0, r8, r0
 8004f36:	f7fb fb05 	bl	8000544 <__aeabi_ui2d>
 8004f3a:	2301      	movs	r3, #1
 8004f3c:	4682      	mov	sl, r0
 8004f3e:	f1a1 7bf8 	sub.w	fp, r1, #32505856	; 0x1f00000
 8004f42:	3d01      	subs	r5, #1
 8004f44:	9313      	str	r3, [sp, #76]	; 0x4c
 8004f46:	e772      	b.n	8004e2e <_dtoa_r+0xf6>
 8004f48:	9b00      	ldr	r3, [sp, #0]
 8004f4a:	f1c0 0020 	rsb	r0, r0, #32
 8004f4e:	fa03 f000 	lsl.w	r0, r3, r0
 8004f52:	e7f0      	b.n	8004f36 <_dtoa_r+0x1fe>
 8004f54:	2301      	movs	r3, #1
 8004f56:	e7b1      	b.n	8004ebc <_dtoa_r+0x184>
 8004f58:	900f      	str	r0, [sp, #60]	; 0x3c
 8004f5a:	e7b0      	b.n	8004ebe <_dtoa_r+0x186>
 8004f5c:	9b05      	ldr	r3, [sp, #20]
 8004f5e:	eba3 030a 	sub.w	r3, r3, sl
 8004f62:	9305      	str	r3, [sp, #20]
 8004f64:	f1ca 0300 	rsb	r3, sl, #0
 8004f68:	9307      	str	r3, [sp, #28]
 8004f6a:	2300      	movs	r3, #0
 8004f6c:	930e      	str	r3, [sp, #56]	; 0x38
 8004f6e:	e7bb      	b.n	8004ee8 <_dtoa_r+0x1b0>
 8004f70:	2301      	movs	r3, #1
 8004f72:	930a      	str	r3, [sp, #40]	; 0x28
 8004f74:	9b0b      	ldr	r3, [sp, #44]	; 0x2c
 8004f76:	2b00      	cmp	r3, #0
 8004f78:	dd59      	ble.n	800502e <_dtoa_r+0x2f6>
 8004f7a:	9302      	str	r3, [sp, #8]
 8004f7c:	4699      	mov	r9, r3
 8004f7e:	6a66      	ldr	r6, [r4, #36]	; 0x24
 8004f80:	2200      	movs	r2, #0
 8004f82:	6072      	str	r2, [r6, #4]
 8004f84:	2204      	movs	r2, #4
 8004f86:	f102 0014 	add.w	r0, r2, #20
 8004f8a:	4298      	cmp	r0, r3
 8004f8c:	6871      	ldr	r1, [r6, #4]
 8004f8e:	d953      	bls.n	8005038 <_dtoa_r+0x300>
 8004f90:	4620      	mov	r0, r4
 8004f92:	f000 fcaa 	bl	80058ea <_Balloc>
 8004f96:	6a63      	ldr	r3, [r4, #36]	; 0x24
 8004f98:	6030      	str	r0, [r6, #0]
 8004f9a:	f1b9 0f0e 	cmp.w	r9, #14
 8004f9e:	f8d3 b000 	ldr.w	fp, [r3]
 8004fa2:	f200 80e6 	bhi.w	8005172 <_dtoa_r+0x43a>
 8004fa6:	2d00      	cmp	r5, #0
 8004fa8:	f000 80e3 	beq.w	8005172 <_dtoa_r+0x43a>
 8004fac:	ed9d 7b00 	vldr	d7, [sp]
 8004fb0:	f1ba 0f00 	cmp.w	sl, #0
 8004fb4:	ed8d 7b10 	vstr	d7, [sp, #64]	; 0x40
 8004fb8:	dd74      	ble.n	80050a4 <_dtoa_r+0x36c>
 8004fba:	4a2a      	ldr	r2, [pc, #168]	; (8005064 <_dtoa_r+0x32c>)
 8004fbc:	f00a 030f 	and.w	r3, sl, #15
 8004fc0:	eb02 03c3 	add.w	r3, r2, r3, lsl #3
 8004fc4:	ed93 7b00 	vldr	d7, [r3]
 8004fc8:	ea4f 162a 	mov.w	r6, sl, asr #4
 8004fcc:	06f0      	lsls	r0, r6, #27
 8004fce:	ed8d 7b08 	vstr	d7, [sp, #32]
 8004fd2:	d565      	bpl.n	80050a0 <_dtoa_r+0x368>
 8004fd4:	4b24      	ldr	r3, [pc, #144]	; (8005068 <_dtoa_r+0x330>)
 8004fd6:	e9dd 0110 	ldrd	r0, r1, [sp, #64]	; 0x40
 8004fda:	e9d3 2308 	ldrd	r2, r3, [r3, #32]
 8004fde:	f7fb fc55 	bl	800088c <__aeabi_ddiv>
 8004fe2:	e9cd 0100 	strd	r0, r1, [sp]
 8004fe6:	f006 060f 	and.w	r6, r6, #15
 8004fea:	2503      	movs	r5, #3
 8004fec:	4f1e      	ldr	r7, [pc, #120]	; (8005068 <_dtoa_r+0x330>)
 8004fee:	e04c      	b.n	800508a <_dtoa_r+0x352>
 8004ff0:	2301      	movs	r3, #1
 8004ff2:	930a      	str	r3, [sp, #40]	; 0x28
 8004ff4:	9b0b      	ldr	r3, [sp, #44]	; 0x2c
 8004ff6:	4453      	add	r3, sl
 8004ff8:	f103 0901 	add.w	r9, r3, #1
 8004ffc:	9302      	str	r3, [sp, #8]
 8004ffe:	464b      	mov	r3, r9
 8005000:	2b01      	cmp	r3, #1
 8005002:	bfb8      	it	lt
 8005004:	2301      	movlt	r3, #1
 8005006:	e7ba      	b.n	8004f7e <_dtoa_r+0x246>
 8005008:	2300      	movs	r3, #0
 800500a:	e7b2      	b.n	8004f72 <_dtoa_r+0x23a>
 800500c:	2300      	movs	r3, #0
 800500e:	e7f0      	b.n	8004ff2 <_dtoa_r+0x2ba>
 8005010:	2501      	movs	r5, #1
 8005012:	2300      	movs	r3, #0
 8005014:	9306      	str	r3, [sp, #24]
 8005016:	950a      	str	r5, [sp, #40]	; 0x28
 8005018:	f04f 33ff 	mov.w	r3, #4294967295
 800501c:	9302      	str	r3, [sp, #8]
 800501e:	4699      	mov	r9, r3
 8005020:	2200      	movs	r2, #0
 8005022:	2312      	movs	r3, #18
 8005024:	920b      	str	r2, [sp, #44]	; 0x2c
 8005026:	e7aa      	b.n	8004f7e <_dtoa_r+0x246>
 8005028:	2301      	movs	r3, #1
 800502a:	930a      	str	r3, [sp, #40]	; 0x28
 800502c:	e7f4      	b.n	8005018 <_dtoa_r+0x2e0>
 800502e:	2301      	movs	r3, #1
 8005030:	9302      	str	r3, [sp, #8]
 8005032:	4699      	mov	r9, r3
 8005034:	461a      	mov	r2, r3
 8005036:	e7f5      	b.n	8005024 <_dtoa_r+0x2ec>
 8005038:	3101      	adds	r1, #1
 800503a:	6071      	str	r1, [r6, #4]
 800503c:	0052      	lsls	r2, r2, #1
 800503e:	e7a2      	b.n	8004f86 <_dtoa_r+0x24e>
 8005040:	636f4361 	.word	0x636f4361
 8005044:	3fd287a7 	.word	0x3fd287a7
 8005048:	8b60c8b3 	.word	0x8b60c8b3
 800504c:	3fc68a28 	.word	0x3fc68a28
 8005050:	509f79fb 	.word	0x509f79fb
 8005054:	3fd34413 	.word	0x3fd34413
 8005058:	7ff00000 	.word	0x7ff00000
 800505c:	080063ed 	.word	0x080063ed
 8005060:	3ff80000 	.word	0x3ff80000
 8005064:	08006448 	.word	0x08006448
 8005068:	08006420 	.word	0x08006420
 800506c:	08006419 	.word	0x08006419
 8005070:	07f1      	lsls	r1, r6, #31
 8005072:	d508      	bpl.n	8005086 <_dtoa_r+0x34e>
 8005074:	e9dd 0108 	ldrd	r0, r1, [sp, #32]
 8005078:	e9d7 2300 	ldrd	r2, r3, [r7]
 800507c:	f7fb fadc 	bl	8000638 <__aeabi_dmul>
 8005080:	e9cd 0108 	strd	r0, r1, [sp, #32]
 8005084:	3501      	adds	r5, #1
 8005086:	1076      	asrs	r6, r6, #1
 8005088:	3708      	adds	r7, #8
 800508a:	2e00      	cmp	r6, #0
 800508c:	d1f0      	bne.n	8005070 <_dtoa_r+0x338>
 800508e:	e9dd 2308 	ldrd	r2, r3, [sp, #32]
 8005092:	e9dd 0100 	ldrd	r0, r1, [sp]
 8005096:	f7fb fbf9 	bl	800088c <__aeabi_ddiv>
 800509a:	e9cd 0100 	strd	r0, r1, [sp]
 800509e:	e01a      	b.n	80050d6 <_dtoa_r+0x39e>
 80050a0:	2502      	movs	r5, #2
 80050a2:	e7a3      	b.n	8004fec <_dtoa_r+0x2b4>
 80050a4:	f000 80a0 	beq.w	80051e8 <_dtoa_r+0x4b0>
 80050a8:	f1ca 0600 	rsb	r6, sl, #0
 80050ac:	4b9f      	ldr	r3, [pc, #636]	; (800532c <_dtoa_r+0x5f4>)
 80050ae:	4fa0      	ldr	r7, [pc, #640]	; (8005330 <_dtoa_r+0x5f8>)
 80050b0:	f006 020f 	and.w	r2, r6, #15
 80050b4:	eb03 03c2 	add.w	r3, r3, r2, lsl #3
 80050b8:	e9d3 2300 	ldrd	r2, r3, [r3]
 80050bc:	e9dd 0110 	ldrd	r0, r1, [sp, #64]	; 0x40
 80050c0:	f7fb faba 	bl	8000638 <__aeabi_dmul>
 80050c4:	e9cd 0100 	strd	r0, r1, [sp]
 80050c8:	1136      	asrs	r6, r6, #4
 80050ca:	2300      	movs	r3, #0
 80050cc:	2502      	movs	r5, #2
 80050ce:	2e00      	cmp	r6, #0
 80050d0:	d17f      	bne.n	80051d2 <_dtoa_r+0x49a>
 80050d2:	2b00      	cmp	r3, #0
 80050d4:	d1e1      	bne.n	800509a <_dtoa_r+0x362>
 80050d6:	9b0f      	ldr	r3, [sp, #60]	; 0x3c
 80050d8:	2b00      	cmp	r3, #0
 80050da:	f000 8087 	beq.w	80051ec <_dtoa_r+0x4b4>
 80050de:	e9dd 6700 	ldrd	r6, r7, [sp]
 80050e2:	2200      	movs	r2, #0
 80050e4:	4b93      	ldr	r3, [pc, #588]	; (8005334 <_dtoa_r+0x5fc>)
 80050e6:	4630      	mov	r0, r6
 80050e8:	4639      	mov	r1, r7
 80050ea:	f7fb fd17 	bl	8000b1c <__aeabi_dcmplt>
 80050ee:	2800      	cmp	r0, #0
 80050f0:	d07c      	beq.n	80051ec <_dtoa_r+0x4b4>
 80050f2:	f1b9 0f00 	cmp.w	r9, #0
 80050f6:	d079      	beq.n	80051ec <_dtoa_r+0x4b4>
 80050f8:	9b02      	ldr	r3, [sp, #8]
 80050fa:	2b00      	cmp	r3, #0
 80050fc:	dd35      	ble.n	800516a <_dtoa_r+0x432>
 80050fe:	f10a 33ff 	add.w	r3, sl, #4294967295
 8005102:	9308      	str	r3, [sp, #32]
 8005104:	4639      	mov	r1, r7
 8005106:	2200      	movs	r2, #0
 8005108:	4b8b      	ldr	r3, [pc, #556]	; (8005338 <_dtoa_r+0x600>)
 800510a:	4630      	mov	r0, r6
 800510c:	f7fb fa94 	bl	8000638 <__aeabi_dmul>
 8005110:	e9cd 0100 	strd	r0, r1, [sp]
 8005114:	9f02      	ldr	r7, [sp, #8]
 8005116:	3501      	adds	r5, #1
 8005118:	4628      	mov	r0, r5
 800511a:	f7fb fa23 	bl	8000564 <__aeabi_i2d>
 800511e:	e9dd 2300 	ldrd	r2, r3, [sp]
 8005122:	f7fb fa89 	bl	8000638 <__aeabi_dmul>
 8005126:	2200      	movs	r2, #0
 8005128:	4b84      	ldr	r3, [pc, #528]	; (800533c <_dtoa_r+0x604>)
 800512a:	f7fb f8cf 	bl	80002cc <__adddf3>
 800512e:	4605      	mov	r5, r0
 8005130:	f1a1 7650 	sub.w	r6, r1, #54525952	; 0x3400000
 8005134:	2f00      	cmp	r7, #0
 8005136:	d15d      	bne.n	80051f4 <_dtoa_r+0x4bc>
 8005138:	2200      	movs	r2, #0
 800513a:	4b81      	ldr	r3, [pc, #516]	; (8005340 <_dtoa_r+0x608>)
 800513c:	e9dd 0100 	ldrd	r0, r1, [sp]
 8005140:	f7fb f8c2 	bl	80002c8 <__aeabi_dsub>
 8005144:	462a      	mov	r2, r5
 8005146:	4633      	mov	r3, r6
 8005148:	e9cd 0100 	strd	r0, r1, [sp]
 800514c:	f7fb fd04 	bl	8000b58 <__aeabi_dcmpgt>
 8005150:	2800      	cmp	r0, #0
 8005152:	f040 8288 	bne.w	8005666 <_dtoa_r+0x92e>
 8005156:	462a      	mov	r2, r5
 8005158:	f106 4300 	add.w	r3, r6, #2147483648	; 0x80000000
 800515c:	e9dd 0100 	ldrd	r0, r1, [sp]
 8005160:	f7fb fcdc 	bl	8000b1c <__aeabi_dcmplt>
 8005164:	2800      	cmp	r0, #0
 8005166:	f040 827c 	bne.w	8005662 <_dtoa_r+0x92a>
 800516a:	e9dd 2310 	ldrd	r2, r3, [sp, #64]	; 0x40
 800516e:	e9cd 2300 	strd	r2, r3, [sp]
 8005172:	9b15      	ldr	r3, [sp, #84]	; 0x54
 8005174:	2b00      	cmp	r3, #0
 8005176:	f2c0 8150 	blt.w	800541a <_dtoa_r+0x6e2>
 800517a:	f1ba 0f0e 	cmp.w	sl, #14
 800517e:	f300 814c 	bgt.w	800541a <_dtoa_r+0x6e2>
 8005182:	4b6a      	ldr	r3, [pc, #424]	; (800532c <_dtoa_r+0x5f4>)
 8005184:	eb03 03ca 	add.w	r3, r3, sl, lsl #3
 8005188:	ed93 7b00 	vldr	d7, [r3]
 800518c:	9b0b      	ldr	r3, [sp, #44]	; 0x2c
 800518e:	2b00      	cmp	r3, #0
 8005190:	ed8d 7b02 	vstr	d7, [sp, #8]
 8005194:	f280 80d8 	bge.w	8005348 <_dtoa_r+0x610>
 8005198:	f1b9 0f00 	cmp.w	r9, #0
 800519c:	f300 80d4 	bgt.w	8005348 <_dtoa_r+0x610>
 80051a0:	f040 825e 	bne.w	8005660 <_dtoa_r+0x928>
 80051a4:	2200      	movs	r2, #0
 80051a6:	4b66      	ldr	r3, [pc, #408]	; (8005340 <_dtoa_r+0x608>)
 80051a8:	ec51 0b17 	vmov	r0, r1, d7
 80051ac:	f7fb fa44 	bl	8000638 <__aeabi_dmul>
 80051b0:	e9dd 2300 	ldrd	r2, r3, [sp]
 80051b4:	f7fb fcc6 	bl	8000b44 <__aeabi_dcmpge>
 80051b8:	464f      	mov	r7, r9
 80051ba:	464e      	mov	r6, r9
 80051bc:	2800      	cmp	r0, #0
 80051be:	f040 8234 	bne.w	800562a <_dtoa_r+0x8f2>
 80051c2:	2331      	movs	r3, #49	; 0x31
 80051c4:	f10b 0501 	add.w	r5, fp, #1
 80051c8:	f88b 3000 	strb.w	r3, [fp]
 80051cc:	f10a 0a01 	add.w	sl, sl, #1
 80051d0:	e22f      	b.n	8005632 <_dtoa_r+0x8fa>
 80051d2:	07f2      	lsls	r2, r6, #31
 80051d4:	d505      	bpl.n	80051e2 <_dtoa_r+0x4aa>
 80051d6:	e9d7 2300 	ldrd	r2, r3, [r7]
 80051da:	f7fb fa2d 	bl	8000638 <__aeabi_dmul>
 80051de:	3501      	adds	r5, #1
 80051e0:	2301      	movs	r3, #1
 80051e2:	1076      	asrs	r6, r6, #1
 80051e4:	3708      	adds	r7, #8
 80051e6:	e772      	b.n	80050ce <_dtoa_r+0x396>
 80051e8:	2502      	movs	r5, #2
 80051ea:	e774      	b.n	80050d6 <_dtoa_r+0x39e>
 80051ec:	f8cd a020 	str.w	sl, [sp, #32]
 80051f0:	464f      	mov	r7, r9
 80051f2:	e791      	b.n	8005118 <_dtoa_r+0x3e0>
 80051f4:	4b4d      	ldr	r3, [pc, #308]	; (800532c <_dtoa_r+0x5f4>)
 80051f6:	eb03 03c7 	add.w	r3, r3, r7, lsl #3
 80051fa:	e953 0102 	ldrd	r0, r1, [r3, #-8]
 80051fe:	9b0a      	ldr	r3, [sp, #40]	; 0x28
 8005200:	2b00      	cmp	r3, #0
 8005202:	d047      	beq.n	8005294 <_dtoa_r+0x55c>
 8005204:	4602      	mov	r2, r0
 8005206:	460b      	mov	r3, r1
 8005208:	2000      	movs	r0, #0
 800520a:	494e      	ldr	r1, [pc, #312]	; (8005344 <_dtoa_r+0x60c>)
 800520c:	f7fb fb3e 	bl	800088c <__aeabi_ddiv>
 8005210:	462a      	mov	r2, r5
 8005212:	4633      	mov	r3, r6
 8005214:	f7fb f858 	bl	80002c8 <__aeabi_dsub>
 8005218:	e9cd 010c 	strd	r0, r1, [sp, #48]	; 0x30
 800521c:	465d      	mov	r5, fp
 800521e:	e9dd 0100 	ldrd	r0, r1, [sp]
 8005222:	f7fb fcb9 	bl	8000b98 <__aeabi_d2iz>
 8005226:	4606      	mov	r6, r0
 8005228:	f7fb f99c 	bl	8000564 <__aeabi_i2d>
 800522c:	4602      	mov	r2, r0
 800522e:	460b      	mov	r3, r1
 8005230:	e9dd 0100 	ldrd	r0, r1, [sp]
 8005234:	f7fb f848 	bl	80002c8 <__aeabi_dsub>
 8005238:	3630      	adds	r6, #48	; 0x30
 800523a:	f805 6b01 	strb.w	r6, [r5], #1
 800523e:	e9dd 230c 	ldrd	r2, r3, [sp, #48]	; 0x30
 8005242:	e9cd 0100 	strd	r0, r1, [sp]
 8005246:	f7fb fc69 	bl	8000b1c <__aeabi_dcmplt>
 800524a:	2800      	cmp	r0, #0
 800524c:	d163      	bne.n	8005316 <_dtoa_r+0x5de>
 800524e:	e9dd 2300 	ldrd	r2, r3, [sp]
 8005252:	2000      	movs	r0, #0
 8005254:	4937      	ldr	r1, [pc, #220]	; (8005334 <_dtoa_r+0x5fc>)
 8005256:	f7fb f837 	bl	80002c8 <__aeabi_dsub>
 800525a:	e9dd 230c 	ldrd	r2, r3, [sp, #48]	; 0x30
 800525e:	f7fb fc5d 	bl	8000b1c <__aeabi_dcmplt>
 8005262:	2800      	cmp	r0, #0
 8005264:	f040 80b7 	bne.w	80053d6 <_dtoa_r+0x69e>
 8005268:	eba5 030b 	sub.w	r3, r5, fp
 800526c:	429f      	cmp	r7, r3
 800526e:	f77f af7c 	ble.w	800516a <_dtoa_r+0x432>
 8005272:	2200      	movs	r2, #0
 8005274:	4b30      	ldr	r3, [pc, #192]	; (8005338 <_dtoa_r+0x600>)
 8005276:	e9dd 010c 	ldrd	r0, r1, [sp, #48]	; 0x30
 800527a:	f7fb f9dd 	bl	8000638 <__aeabi_dmul>
 800527e:	2200      	movs	r2, #0
 8005280:	e9cd 010c 	strd	r0, r1, [sp, #48]	; 0x30
 8005284:	4b2c      	ldr	r3, [pc, #176]	; (8005338 <_dtoa_r+0x600>)
 8005286:	e9dd 0100 	ldrd	r0, r1, [sp]
 800528a:	f7fb f9d5 	bl	8000638 <__aeabi_dmul>
 800528e:	e9cd 0100 	strd	r0, r1, [sp]
 8005292:	e7c4      	b.n	800521e <_dtoa_r+0x4e6>
 8005294:	462a      	mov	r2, r5
 8005296:	4633      	mov	r3, r6
 8005298:	f7fb f9ce 	bl	8000638 <__aeabi_dmul>
 800529c:	e9cd 010c 	strd	r0, r1, [sp, #48]	; 0x30
 80052a0:	eb0b 0507 	add.w	r5, fp, r7
 80052a4:	465e      	mov	r6, fp
 80052a6:	e9dd 0100 	ldrd	r0, r1, [sp]
 80052aa:	f7fb fc75 	bl	8000b98 <__aeabi_d2iz>
 80052ae:	4607      	mov	r7, r0
 80052b0:	f7fb f958 	bl	8000564 <__aeabi_i2d>
 80052b4:	3730      	adds	r7, #48	; 0x30
 80052b6:	4602      	mov	r2, r0
 80052b8:	460b      	mov	r3, r1
 80052ba:	e9dd 0100 	ldrd	r0, r1, [sp]
 80052be:	f7fb f803 	bl	80002c8 <__aeabi_dsub>
 80052c2:	f806 7b01 	strb.w	r7, [r6], #1
 80052c6:	42ae      	cmp	r6, r5
 80052c8:	e9cd 0100 	strd	r0, r1, [sp]
 80052cc:	f04f 0200 	mov.w	r2, #0
 80052d0:	d126      	bne.n	8005320 <_dtoa_r+0x5e8>
 80052d2:	4b1c      	ldr	r3, [pc, #112]	; (8005344 <_dtoa_r+0x60c>)
 80052d4:	e9dd 010c 	ldrd	r0, r1, [sp, #48]	; 0x30
 80052d8:	f7fa fff8 	bl	80002cc <__adddf3>
 80052dc:	4602      	mov	r2, r0
 80052de:	460b      	mov	r3, r1
 80052e0:	e9dd 0100 	ldrd	r0, r1, [sp]
 80052e4:	f7fb fc38 	bl	8000b58 <__aeabi_dcmpgt>
 80052e8:	2800      	cmp	r0, #0
 80052ea:	d174      	bne.n	80053d6 <_dtoa_r+0x69e>
 80052ec:	e9dd 230c 	ldrd	r2, r3, [sp, #48]	; 0x30
 80052f0:	2000      	movs	r0, #0
 80052f2:	4914      	ldr	r1, [pc, #80]	; (8005344 <_dtoa_r+0x60c>)
 80052f4:	f7fa ffe8 	bl	80002c8 <__aeabi_dsub>
 80052f8:	4602      	mov	r2, r0
 80052fa:	460b      	mov	r3, r1
 80052fc:	e9dd 0100 	ldrd	r0, r1, [sp]
 8005300:	f7fb fc0c 	bl	8000b1c <__aeabi_dcmplt>
 8005304:	2800      	cmp	r0, #0
 8005306:	f43f af30 	beq.w	800516a <_dtoa_r+0x432>
 800530a:	f815 3c01 	ldrb.w	r3, [r5, #-1]
 800530e:	2b30      	cmp	r3, #48	; 0x30
 8005310:	f105 32ff 	add.w	r2, r5, #4294967295
 8005314:	d002      	beq.n	800531c <_dtoa_r+0x5e4>
 8005316:	f8dd a020 	ldr.w	sl, [sp, #32]
 800531a:	e04a      	b.n	80053b2 <_dtoa_r+0x67a>
 800531c:	4615      	mov	r5, r2
 800531e:	e7f4      	b.n	800530a <_dtoa_r+0x5d2>
 8005320:	4b05      	ldr	r3, [pc, #20]	; (8005338 <_dtoa_r+0x600>)
 8005322:	f7fb f989 	bl	8000638 <__aeabi_dmul>
 8005326:	e9cd 0100 	strd	r0, r1, [sp]
 800532a:	e7bc      	b.n	80052a6 <_dtoa_r+0x56e>
 800532c:	08006448 	.word	0x08006448
 8005330:	08006420 	.word	0x08006420
 8005334:	3ff00000 	.word	0x3ff00000
 8005338:	40240000 	.word	0x40240000
 800533c:	401c0000 	.word	0x401c0000
 8005340:	40140000 	.word	0x40140000
 8005344:	3fe00000 	.word	0x3fe00000
 8005348:	e9dd 6700 	ldrd	r6, r7, [sp]
 800534c:	465d      	mov	r5, fp
 800534e:	e9dd 2302 	ldrd	r2, r3, [sp, #8]
 8005352:	4630      	mov	r0, r6
 8005354:	4639      	mov	r1, r7
 8005356:	f7fb fa99 	bl	800088c <__aeabi_ddiv>
 800535a:	f7fb fc1d 	bl	8000b98 <__aeabi_d2iz>
 800535e:	4680      	mov	r8, r0
 8005360:	f7fb f900 	bl	8000564 <__aeabi_i2d>
 8005364:	e9dd 2302 	ldrd	r2, r3, [sp, #8]
 8005368:	f7fb f966 	bl	8000638 <__aeabi_dmul>
 800536c:	4602      	mov	r2, r0
 800536e:	460b      	mov	r3, r1
 8005370:	4630      	mov	r0, r6
 8005372:	4639      	mov	r1, r7
 8005374:	f108 0630 	add.w	r6, r8, #48	; 0x30
 8005378:	f7fa ffa6 	bl	80002c8 <__aeabi_dsub>
 800537c:	f805 6b01 	strb.w	r6, [r5], #1
 8005380:	eba5 060b 	sub.w	r6, r5, fp
 8005384:	45b1      	cmp	r9, r6
 8005386:	4602      	mov	r2, r0
 8005388:	460b      	mov	r3, r1
 800538a:	d139      	bne.n	8005400 <_dtoa_r+0x6c8>
 800538c:	f7fa ff9e 	bl	80002cc <__adddf3>
 8005390:	e9dd 2302 	ldrd	r2, r3, [sp, #8]
 8005394:	4606      	mov	r6, r0
 8005396:	460f      	mov	r7, r1
 8005398:	f7fb fbde 	bl	8000b58 <__aeabi_dcmpgt>
 800539c:	b9c8      	cbnz	r0, 80053d2 <_dtoa_r+0x69a>
 800539e:	e9dd 2302 	ldrd	r2, r3, [sp, #8]
 80053a2:	4630      	mov	r0, r6
 80053a4:	4639      	mov	r1, r7
 80053a6:	f7fb fbaf 	bl	8000b08 <__aeabi_dcmpeq>
 80053aa:	b110      	cbz	r0, 80053b2 <_dtoa_r+0x67a>
 80053ac:	f018 0f01 	tst.w	r8, #1
 80053b0:	d10f      	bne.n	80053d2 <_dtoa_r+0x69a>
 80053b2:	9904      	ldr	r1, [sp, #16]
 80053b4:	4620      	mov	r0, r4
 80053b6:	f000 facc 	bl	8005952 <_Bfree>
 80053ba:	2300      	movs	r3, #0
 80053bc:	9a12      	ldr	r2, [sp, #72]	; 0x48
 80053be:	702b      	strb	r3, [r5, #0]
 80053c0:	f10a 0301 	add.w	r3, sl, #1
 80053c4:	6013      	str	r3, [r2, #0]
 80053c6:	9b21      	ldr	r3, [sp, #132]	; 0x84
 80053c8:	2b00      	cmp	r3, #0
 80053ca:	f000 8241 	beq.w	8005850 <_dtoa_r+0xb18>
 80053ce:	601d      	str	r5, [r3, #0]
 80053d0:	e23e      	b.n	8005850 <_dtoa_r+0xb18>
 80053d2:	f8cd a020 	str.w	sl, [sp, #32]
 80053d6:	f815 2c01 	ldrb.w	r2, [r5, #-1]
 80053da:	2a39      	cmp	r2, #57	; 0x39
 80053dc:	f105 33ff 	add.w	r3, r5, #4294967295
 80053e0:	d108      	bne.n	80053f4 <_dtoa_r+0x6bc>
 80053e2:	459b      	cmp	fp, r3
 80053e4:	d10a      	bne.n	80053fc <_dtoa_r+0x6c4>
 80053e6:	9b08      	ldr	r3, [sp, #32]
 80053e8:	3301      	adds	r3, #1
 80053ea:	9308      	str	r3, [sp, #32]
 80053ec:	2330      	movs	r3, #48	; 0x30
 80053ee:	f88b 3000 	strb.w	r3, [fp]
 80053f2:	465b      	mov	r3, fp
 80053f4:	781a      	ldrb	r2, [r3, #0]
 80053f6:	3201      	adds	r2, #1
 80053f8:	701a      	strb	r2, [r3, #0]
 80053fa:	e78c      	b.n	8005316 <_dtoa_r+0x5de>
 80053fc:	461d      	mov	r5, r3
 80053fe:	e7ea      	b.n	80053d6 <_dtoa_r+0x69e>
 8005400:	2200      	movs	r2, #0
 8005402:	4b9b      	ldr	r3, [pc, #620]	; (8005670 <_dtoa_r+0x938>)
 8005404:	f7fb f918 	bl	8000638 <__aeabi_dmul>
 8005408:	2200      	movs	r2, #0
 800540a:	2300      	movs	r3, #0
 800540c:	4606      	mov	r6, r0
 800540e:	460f      	mov	r7, r1
 8005410:	f7fb fb7a 	bl	8000b08 <__aeabi_dcmpeq>
 8005414:	2800      	cmp	r0, #0
 8005416:	d09a      	beq.n	800534e <_dtoa_r+0x616>
 8005418:	e7cb      	b.n	80053b2 <_dtoa_r+0x67a>
 800541a:	9a0a      	ldr	r2, [sp, #40]	; 0x28
 800541c:	2a00      	cmp	r2, #0
 800541e:	f000 808b 	beq.w	8005538 <_dtoa_r+0x800>
 8005422:	9a06      	ldr	r2, [sp, #24]
 8005424:	2a01      	cmp	r2, #1
 8005426:	dc6e      	bgt.n	8005506 <_dtoa_r+0x7ce>
 8005428:	9a13      	ldr	r2, [sp, #76]	; 0x4c
 800542a:	2a00      	cmp	r2, #0
 800542c:	d067      	beq.n	80054fe <_dtoa_r+0x7c6>
 800542e:	f203 4333 	addw	r3, r3, #1075	; 0x433
 8005432:	9f07      	ldr	r7, [sp, #28]
 8005434:	9d05      	ldr	r5, [sp, #20]
 8005436:	9a05      	ldr	r2, [sp, #20]
 8005438:	2101      	movs	r1, #1
 800543a:	441a      	add	r2, r3
 800543c:	4620      	mov	r0, r4
 800543e:	9205      	str	r2, [sp, #20]
 8005440:	4498      	add	r8, r3
 8005442:	f000 fb26 	bl	8005a92 <__i2b>
 8005446:	4606      	mov	r6, r0
 8005448:	2d00      	cmp	r5, #0
 800544a:	dd0c      	ble.n	8005466 <_dtoa_r+0x72e>
 800544c:	f1b8 0f00 	cmp.w	r8, #0
 8005450:	dd09      	ble.n	8005466 <_dtoa_r+0x72e>
 8005452:	4545      	cmp	r5, r8
 8005454:	9a05      	ldr	r2, [sp, #20]
 8005456:	462b      	mov	r3, r5
 8005458:	bfa8      	it	ge
 800545a:	4643      	movge	r3, r8
 800545c:	1ad2      	subs	r2, r2, r3
 800545e:	9205      	str	r2, [sp, #20]
 8005460:	1aed      	subs	r5, r5, r3
 8005462:	eba8 0803 	sub.w	r8, r8, r3
 8005466:	9b07      	ldr	r3, [sp, #28]
 8005468:	b1eb      	cbz	r3, 80054a6 <_dtoa_r+0x76e>
 800546a:	9b0a      	ldr	r3, [sp, #40]	; 0x28
 800546c:	2b00      	cmp	r3, #0
 800546e:	d067      	beq.n	8005540 <_dtoa_r+0x808>
 8005470:	b18f      	cbz	r7, 8005496 <_dtoa_r+0x75e>
 8005472:	4631      	mov	r1, r6
 8005474:	463a      	mov	r2, r7
 8005476:	4620      	mov	r0, r4
 8005478:	f000 fbaa 	bl	8005bd0 <__pow5mult>
 800547c:	9a04      	ldr	r2, [sp, #16]
 800547e:	4601      	mov	r1, r0
 8005480:	4606      	mov	r6, r0
 8005482:	4620      	mov	r0, r4
 8005484:	f000 fb0e 	bl	8005aa4 <__multiply>
 8005488:	9904      	ldr	r1, [sp, #16]
 800548a:	9008      	str	r0, [sp, #32]
 800548c:	4620      	mov	r0, r4
 800548e:	f000 fa60 	bl	8005952 <_Bfree>
 8005492:	9b08      	ldr	r3, [sp, #32]
 8005494:	9304      	str	r3, [sp, #16]
 8005496:	9b07      	ldr	r3, [sp, #28]
 8005498:	1bda      	subs	r2, r3, r7
 800549a:	d004      	beq.n	80054a6 <_dtoa_r+0x76e>
 800549c:	9904      	ldr	r1, [sp, #16]
 800549e:	4620      	mov	r0, r4
 80054a0:	f000 fb96 	bl	8005bd0 <__pow5mult>
 80054a4:	9004      	str	r0, [sp, #16]
 80054a6:	2101      	movs	r1, #1
 80054a8:	4620      	mov	r0, r4
 80054aa:	f000 faf2 	bl	8005a92 <__i2b>
 80054ae:	9b0e      	ldr	r3, [sp, #56]	; 0x38
 80054b0:	4607      	mov	r7, r0
 80054b2:	2b00      	cmp	r3, #0
 80054b4:	f000 81d0 	beq.w	8005858 <_dtoa_r+0xb20>
 80054b8:	461a      	mov	r2, r3
 80054ba:	4601      	mov	r1, r0
 80054bc:	4620      	mov	r0, r4
 80054be:	f000 fb87 	bl	8005bd0 <__pow5mult>
 80054c2:	9b06      	ldr	r3, [sp, #24]
 80054c4:	2b01      	cmp	r3, #1
 80054c6:	4607      	mov	r7, r0
 80054c8:	dc40      	bgt.n	800554c <_dtoa_r+0x814>
 80054ca:	9b00      	ldr	r3, [sp, #0]
 80054cc:	2b00      	cmp	r3, #0
 80054ce:	d139      	bne.n	8005544 <_dtoa_r+0x80c>
 80054d0:	9b01      	ldr	r3, [sp, #4]
 80054d2:	f3c3 0313 	ubfx	r3, r3, #0, #20
 80054d6:	2b00      	cmp	r3, #0
 80054d8:	d136      	bne.n	8005548 <_dtoa_r+0x810>
 80054da:	9b01      	ldr	r3, [sp, #4]
 80054dc:	f023 4300 	bic.w	r3, r3, #2147483648	; 0x80000000
 80054e0:	0d1b      	lsrs	r3, r3, #20
 80054e2:	051b      	lsls	r3, r3, #20
 80054e4:	b12b      	cbz	r3, 80054f2 <_dtoa_r+0x7ba>
 80054e6:	9b05      	ldr	r3, [sp, #20]
 80054e8:	3301      	adds	r3, #1
 80054ea:	9305      	str	r3, [sp, #20]
 80054ec:	f108 0801 	add.w	r8, r8, #1
 80054f0:	2301      	movs	r3, #1
 80054f2:	9307      	str	r3, [sp, #28]
 80054f4:	9b0e      	ldr	r3, [sp, #56]	; 0x38
 80054f6:	2b00      	cmp	r3, #0
 80054f8:	d12a      	bne.n	8005550 <_dtoa_r+0x818>
 80054fa:	2001      	movs	r0, #1
 80054fc:	e030      	b.n	8005560 <_dtoa_r+0x828>
 80054fe:	9b14      	ldr	r3, [sp, #80]	; 0x50
 8005500:	f1c3 0336 	rsb	r3, r3, #54	; 0x36
 8005504:	e795      	b.n	8005432 <_dtoa_r+0x6fa>
 8005506:	9b07      	ldr	r3, [sp, #28]
 8005508:	f109 37ff 	add.w	r7, r9, #4294967295
 800550c:	42bb      	cmp	r3, r7
 800550e:	bfbf      	itttt	lt
 8005510:	9b07      	ldrlt	r3, [sp, #28]
 8005512:	9707      	strlt	r7, [sp, #28]
 8005514:	1afa      	sublt	r2, r7, r3
 8005516:	9b0e      	ldrlt	r3, [sp, #56]	; 0x38
 8005518:	bfbb      	ittet	lt
 800551a:	189b      	addlt	r3, r3, r2
 800551c:	930e      	strlt	r3, [sp, #56]	; 0x38
 800551e:	1bdf      	subge	r7, r3, r7
 8005520:	2700      	movlt	r7, #0
 8005522:	f1b9 0f00 	cmp.w	r9, #0
 8005526:	bfb5      	itete	lt
 8005528:	9b05      	ldrlt	r3, [sp, #20]
 800552a:	9d05      	ldrge	r5, [sp, #20]
 800552c:	eba3 0509 	sublt.w	r5, r3, r9
 8005530:	464b      	movge	r3, r9
 8005532:	bfb8      	it	lt
 8005534:	2300      	movlt	r3, #0
 8005536:	e77e      	b.n	8005436 <_dtoa_r+0x6fe>
 8005538:	9f07      	ldr	r7, [sp, #28]
 800553a:	9d05      	ldr	r5, [sp, #20]
 800553c:	9e0a      	ldr	r6, [sp, #40]	; 0x28
 800553e:	e783      	b.n	8005448 <_dtoa_r+0x710>
 8005540:	9a07      	ldr	r2, [sp, #28]
 8005542:	e7ab      	b.n	800549c <_dtoa_r+0x764>
 8005544:	2300      	movs	r3, #0
 8005546:	e7d4      	b.n	80054f2 <_dtoa_r+0x7ba>
 8005548:	9b00      	ldr	r3, [sp, #0]
 800554a:	e7d2      	b.n	80054f2 <_dtoa_r+0x7ba>
 800554c:	2300      	movs	r3, #0
 800554e:	9307      	str	r3, [sp, #28]
 8005550:	693b      	ldr	r3, [r7, #16]
 8005552:	eb07 0383 	add.w	r3, r7, r3, lsl #2
 8005556:	6918      	ldr	r0, [r3, #16]
 8005558:	f000 fa4d 	bl	80059f6 <__hi0bits>
 800555c:	f1c0 0020 	rsb	r0, r0, #32
 8005560:	4440      	add	r0, r8
 8005562:	f010 001f 	ands.w	r0, r0, #31
 8005566:	d047      	beq.n	80055f8 <_dtoa_r+0x8c0>
 8005568:	f1c0 0320 	rsb	r3, r0, #32
 800556c:	2b04      	cmp	r3, #4
 800556e:	dd3b      	ble.n	80055e8 <_dtoa_r+0x8b0>
 8005570:	9b05      	ldr	r3, [sp, #20]
 8005572:	f1c0 001c 	rsb	r0, r0, #28
 8005576:	4403      	add	r3, r0
 8005578:	9305      	str	r3, [sp, #20]
 800557a:	4405      	add	r5, r0
 800557c:	4480      	add	r8, r0
 800557e:	9b05      	ldr	r3, [sp, #20]
 8005580:	2b00      	cmp	r3, #0
 8005582:	dd05      	ble.n	8005590 <_dtoa_r+0x858>
 8005584:	461a      	mov	r2, r3
 8005586:	9904      	ldr	r1, [sp, #16]
 8005588:	4620      	mov	r0, r4
 800558a:	f000 fb6f 	bl	8005c6c <__lshift>
 800558e:	9004      	str	r0, [sp, #16]
 8005590:	f1b8 0f00 	cmp.w	r8, #0
 8005594:	dd05      	ble.n	80055a2 <_dtoa_r+0x86a>
 8005596:	4639      	mov	r1, r7
 8005598:	4642      	mov	r2, r8
 800559a:	4620      	mov	r0, r4
 800559c:	f000 fb66 	bl	8005c6c <__lshift>
 80055a0:	4607      	mov	r7, r0
 80055a2:	9b0f      	ldr	r3, [sp, #60]	; 0x3c
 80055a4:	b353      	cbz	r3, 80055fc <_dtoa_r+0x8c4>
 80055a6:	4639      	mov	r1, r7
 80055a8:	9804      	ldr	r0, [sp, #16]
 80055aa:	f000 fbb3 	bl	8005d14 <__mcmp>
 80055ae:	2800      	cmp	r0, #0
 80055b0:	da24      	bge.n	80055fc <_dtoa_r+0x8c4>
 80055b2:	2300      	movs	r3, #0
 80055b4:	220a      	movs	r2, #10
 80055b6:	9904      	ldr	r1, [sp, #16]
 80055b8:	4620      	mov	r0, r4
 80055ba:	f000 f9e1 	bl	8005980 <__multadd>
 80055be:	9b0a      	ldr	r3, [sp, #40]	; 0x28
 80055c0:	9004      	str	r0, [sp, #16]
 80055c2:	f10a 3aff 	add.w	sl, sl, #4294967295
 80055c6:	2b00      	cmp	r3, #0
 80055c8:	f000 814d 	beq.w	8005866 <_dtoa_r+0xb2e>
 80055cc:	2300      	movs	r3, #0
 80055ce:	4631      	mov	r1, r6
 80055d0:	220a      	movs	r2, #10
 80055d2:	4620      	mov	r0, r4
 80055d4:	f000 f9d4 	bl	8005980 <__multadd>
 80055d8:	9b02      	ldr	r3, [sp, #8]
 80055da:	2b00      	cmp	r3, #0
 80055dc:	4606      	mov	r6, r0
 80055de:	dc4f      	bgt.n	8005680 <_dtoa_r+0x948>
 80055e0:	9b06      	ldr	r3, [sp, #24]
 80055e2:	2b02      	cmp	r3, #2
 80055e4:	dd4c      	ble.n	8005680 <_dtoa_r+0x948>
 80055e6:	e011      	b.n	800560c <_dtoa_r+0x8d4>
 80055e8:	d0c9      	beq.n	800557e <_dtoa_r+0x846>
 80055ea:	9a05      	ldr	r2, [sp, #20]
 80055ec:	331c      	adds	r3, #28
 80055ee:	441a      	add	r2, r3
 80055f0:	9205      	str	r2, [sp, #20]
 80055f2:	441d      	add	r5, r3
 80055f4:	4498      	add	r8, r3
 80055f6:	e7c2      	b.n	800557e <_dtoa_r+0x846>
 80055f8:	4603      	mov	r3, r0
 80055fa:	e7f6      	b.n	80055ea <_dtoa_r+0x8b2>
 80055fc:	f1b9 0f00 	cmp.w	r9, #0
 8005600:	dc38      	bgt.n	8005674 <_dtoa_r+0x93c>
 8005602:	9b06      	ldr	r3, [sp, #24]
 8005604:	2b02      	cmp	r3, #2
 8005606:	dd35      	ble.n	8005674 <_dtoa_r+0x93c>
 8005608:	f8cd 9008 	str.w	r9, [sp, #8]
 800560c:	9b02      	ldr	r3, [sp, #8]
 800560e:	b963      	cbnz	r3, 800562a <_dtoa_r+0x8f2>
 8005610:	4639      	mov	r1, r7
 8005612:	2205      	movs	r2, #5
 8005614:	4620      	mov	r0, r4
 8005616:	f000 f9b3 	bl	8005980 <__multadd>
 800561a:	4601      	mov	r1, r0
 800561c:	4607      	mov	r7, r0
 800561e:	9804      	ldr	r0, [sp, #16]
 8005620:	f000 fb78 	bl	8005d14 <__mcmp>
 8005624:	2800      	cmp	r0, #0
 8005626:	f73f adcc 	bgt.w	80051c2 <_dtoa_r+0x48a>
 800562a:	9b0b      	ldr	r3, [sp, #44]	; 0x2c
 800562c:	465d      	mov	r5, fp
 800562e:	ea6f 0a03 	mvn.w	sl, r3
 8005632:	f04f 0900 	mov.w	r9, #0
 8005636:	4639      	mov	r1, r7
 8005638:	4620      	mov	r0, r4
 800563a:	f000 f98a 	bl	8005952 <_Bfree>
 800563e:	2e00      	cmp	r6, #0
 8005640:	f43f aeb7 	beq.w	80053b2 <_dtoa_r+0x67a>
 8005644:	f1b9 0f00 	cmp.w	r9, #0
 8005648:	d005      	beq.n	8005656 <_dtoa_r+0x91e>
 800564a:	45b1      	cmp	r9, r6
 800564c:	d003      	beq.n	8005656 <_dtoa_r+0x91e>
 800564e:	4649      	mov	r1, r9
 8005650:	4620      	mov	r0, r4
 8005652:	f000 f97e 	bl	8005952 <_Bfree>
 8005656:	4631      	mov	r1, r6
 8005658:	4620      	mov	r0, r4
 800565a:	f000 f97a 	bl	8005952 <_Bfree>
 800565e:	e6a8      	b.n	80053b2 <_dtoa_r+0x67a>
 8005660:	2700      	movs	r7, #0
 8005662:	463e      	mov	r6, r7
 8005664:	e7e1      	b.n	800562a <_dtoa_r+0x8f2>
 8005666:	f8dd a020 	ldr.w	sl, [sp, #32]
 800566a:	463e      	mov	r6, r7
 800566c:	e5a9      	b.n	80051c2 <_dtoa_r+0x48a>
 800566e:	bf00      	nop
 8005670:	40240000 	.word	0x40240000
 8005674:	9b0a      	ldr	r3, [sp, #40]	; 0x28
 8005676:	f8cd 9008 	str.w	r9, [sp, #8]
 800567a:	2b00      	cmp	r3, #0
 800567c:	f000 80fa 	beq.w	8005874 <_dtoa_r+0xb3c>
 8005680:	2d00      	cmp	r5, #0
 8005682:	dd05      	ble.n	8005690 <_dtoa_r+0x958>
 8005684:	4631      	mov	r1, r6
 8005686:	462a      	mov	r2, r5
 8005688:	4620      	mov	r0, r4
 800568a:	f000 faef 	bl	8005c6c <__lshift>
 800568e:	4606      	mov	r6, r0
 8005690:	9b07      	ldr	r3, [sp, #28]
 8005692:	2b00      	cmp	r3, #0
 8005694:	d04c      	beq.n	8005730 <_dtoa_r+0x9f8>
 8005696:	6871      	ldr	r1, [r6, #4]
 8005698:	4620      	mov	r0, r4
 800569a:	f000 f926 	bl	80058ea <_Balloc>
 800569e:	6932      	ldr	r2, [r6, #16]
 80056a0:	3202      	adds	r2, #2
 80056a2:	4605      	mov	r5, r0
 80056a4:	0092      	lsls	r2, r2, #2
 80056a6:	f106 010c 	add.w	r1, r6, #12
 80056aa:	300c      	adds	r0, #12
 80056ac:	f000 f912 	bl	80058d4 <memcpy>
 80056b0:	2201      	movs	r2, #1
 80056b2:	4629      	mov	r1, r5
 80056b4:	4620      	mov	r0, r4
 80056b6:	f000 fad9 	bl	8005c6c <__lshift>
 80056ba:	9b00      	ldr	r3, [sp, #0]
 80056bc:	f8cd b014 	str.w	fp, [sp, #20]
 80056c0:	f003 0301 	and.w	r3, r3, #1
 80056c4:	46b1      	mov	r9, r6
 80056c6:	9307      	str	r3, [sp, #28]
 80056c8:	4606      	mov	r6, r0
 80056ca:	4639      	mov	r1, r7
 80056cc:	9804      	ldr	r0, [sp, #16]
 80056ce:	f7ff faa7 	bl	8004c20 <quorem>
 80056d2:	4649      	mov	r1, r9
 80056d4:	4605      	mov	r5, r0
 80056d6:	f100 0830 	add.w	r8, r0, #48	; 0x30
 80056da:	9804      	ldr	r0, [sp, #16]
 80056dc:	f000 fb1a 	bl	8005d14 <__mcmp>
 80056e0:	4632      	mov	r2, r6
 80056e2:	9000      	str	r0, [sp, #0]
 80056e4:	4639      	mov	r1, r7
 80056e6:	4620      	mov	r0, r4
 80056e8:	f000 fb2e 	bl	8005d48 <__mdiff>
 80056ec:	68c3      	ldr	r3, [r0, #12]
 80056ee:	4602      	mov	r2, r0
 80056f0:	bb03      	cbnz	r3, 8005734 <_dtoa_r+0x9fc>
 80056f2:	4601      	mov	r1, r0
 80056f4:	9008      	str	r0, [sp, #32]
 80056f6:	9804      	ldr	r0, [sp, #16]
 80056f8:	f000 fb0c 	bl	8005d14 <__mcmp>
 80056fc:	9a08      	ldr	r2, [sp, #32]
 80056fe:	4603      	mov	r3, r0
 8005700:	4611      	mov	r1, r2
 8005702:	4620      	mov	r0, r4
 8005704:	9308      	str	r3, [sp, #32]
 8005706:	f000 f924 	bl	8005952 <_Bfree>
 800570a:	9b08      	ldr	r3, [sp, #32]
 800570c:	b9a3      	cbnz	r3, 8005738 <_dtoa_r+0xa00>
 800570e:	9a06      	ldr	r2, [sp, #24]
 8005710:	b992      	cbnz	r2, 8005738 <_dtoa_r+0xa00>
 8005712:	9a07      	ldr	r2, [sp, #28]
 8005714:	b982      	cbnz	r2, 8005738 <_dtoa_r+0xa00>
 8005716:	f1b8 0f39 	cmp.w	r8, #57	; 0x39
 800571a:	d029      	beq.n	8005770 <_dtoa_r+0xa38>
 800571c:	9b00      	ldr	r3, [sp, #0]
 800571e:	2b00      	cmp	r3, #0
 8005720:	dd01      	ble.n	8005726 <_dtoa_r+0x9ee>
 8005722:	f105 0831 	add.w	r8, r5, #49	; 0x31
 8005726:	9b05      	ldr	r3, [sp, #20]
 8005728:	1c5d      	adds	r5, r3, #1
 800572a:	f883 8000 	strb.w	r8, [r3]
 800572e:	e782      	b.n	8005636 <_dtoa_r+0x8fe>
 8005730:	4630      	mov	r0, r6
 8005732:	e7c2      	b.n	80056ba <_dtoa_r+0x982>
 8005734:	2301      	movs	r3, #1
 8005736:	e7e3      	b.n	8005700 <_dtoa_r+0x9c8>
 8005738:	9a00      	ldr	r2, [sp, #0]
 800573a:	2a00      	cmp	r2, #0
 800573c:	db04      	blt.n	8005748 <_dtoa_r+0xa10>
 800573e:	d125      	bne.n	800578c <_dtoa_r+0xa54>
 8005740:	9a06      	ldr	r2, [sp, #24]
 8005742:	bb1a      	cbnz	r2, 800578c <_dtoa_r+0xa54>
 8005744:	9a07      	ldr	r2, [sp, #28]
 8005746:	bb0a      	cbnz	r2, 800578c <_dtoa_r+0xa54>
 8005748:	2b00      	cmp	r3, #0
 800574a:	ddec      	ble.n	8005726 <_dtoa_r+0x9ee>
 800574c:	2201      	movs	r2, #1
 800574e:	9904      	ldr	r1, [sp, #16]
 8005750:	4620      	mov	r0, r4
 8005752:	f000 fa8b 	bl	8005c6c <__lshift>
 8005756:	4639      	mov	r1, r7
 8005758:	9004      	str	r0, [sp, #16]
 800575a:	f000 fadb 	bl	8005d14 <__mcmp>
 800575e:	2800      	cmp	r0, #0
 8005760:	dc03      	bgt.n	800576a <_dtoa_r+0xa32>
 8005762:	d1e0      	bne.n	8005726 <_dtoa_r+0x9ee>
 8005764:	f018 0f01 	tst.w	r8, #1
 8005768:	d0dd      	beq.n	8005726 <_dtoa_r+0x9ee>
 800576a:	f1b8 0f39 	cmp.w	r8, #57	; 0x39
 800576e:	d1d8      	bne.n	8005722 <_dtoa_r+0x9ea>
 8005770:	9b05      	ldr	r3, [sp, #20]
 8005772:	9a05      	ldr	r2, [sp, #20]
 8005774:	1c5d      	adds	r5, r3, #1
 8005776:	2339      	movs	r3, #57	; 0x39
 8005778:	7013      	strb	r3, [r2, #0]
 800577a:	f815 3c01 	ldrb.w	r3, [r5, #-1]
 800577e:	2b39      	cmp	r3, #57	; 0x39
 8005780:	f105 32ff 	add.w	r2, r5, #4294967295
 8005784:	d04f      	beq.n	8005826 <_dtoa_r+0xaee>
 8005786:	3301      	adds	r3, #1
 8005788:	7013      	strb	r3, [r2, #0]
 800578a:	e754      	b.n	8005636 <_dtoa_r+0x8fe>
 800578c:	9a05      	ldr	r2, [sp, #20]
 800578e:	2b00      	cmp	r3, #0
 8005790:	f102 0501 	add.w	r5, r2, #1
 8005794:	dd06      	ble.n	80057a4 <_dtoa_r+0xa6c>
 8005796:	f1b8 0f39 	cmp.w	r8, #57	; 0x39
 800579a:	d0e9      	beq.n	8005770 <_dtoa_r+0xa38>
 800579c:	f108 0801 	add.w	r8, r8, #1
 80057a0:	9b05      	ldr	r3, [sp, #20]
 80057a2:	e7c2      	b.n	800572a <_dtoa_r+0x9f2>
 80057a4:	9a02      	ldr	r2, [sp, #8]
 80057a6:	f805 8c01 	strb.w	r8, [r5, #-1]
 80057aa:	eba5 030b 	sub.w	r3, r5, fp
 80057ae:	4293      	cmp	r3, r2
 80057b0:	d021      	beq.n	80057f6 <_dtoa_r+0xabe>
 80057b2:	2300      	movs	r3, #0
 80057b4:	220a      	movs	r2, #10
 80057b6:	9904      	ldr	r1, [sp, #16]
 80057b8:	4620      	mov	r0, r4
 80057ba:	f000 f8e1 	bl	8005980 <__multadd>
 80057be:	45b1      	cmp	r9, r6
 80057c0:	9004      	str	r0, [sp, #16]
 80057c2:	f04f 0300 	mov.w	r3, #0
 80057c6:	f04f 020a 	mov.w	r2, #10
 80057ca:	4649      	mov	r1, r9
 80057cc:	4620      	mov	r0, r4
 80057ce:	d105      	bne.n	80057dc <_dtoa_r+0xaa4>
 80057d0:	f000 f8d6 	bl	8005980 <__multadd>
 80057d4:	4681      	mov	r9, r0
 80057d6:	4606      	mov	r6, r0
 80057d8:	9505      	str	r5, [sp, #20]
 80057da:	e776      	b.n	80056ca <_dtoa_r+0x992>
 80057dc:	f000 f8d0 	bl	8005980 <__multadd>
 80057e0:	4631      	mov	r1, r6
 80057e2:	4681      	mov	r9, r0
 80057e4:	2300      	movs	r3, #0
 80057e6:	220a      	movs	r2, #10
 80057e8:	4620      	mov	r0, r4
 80057ea:	f000 f8c9 	bl	8005980 <__multadd>
 80057ee:	4606      	mov	r6, r0
 80057f0:	e7f2      	b.n	80057d8 <_dtoa_r+0xaa0>
 80057f2:	f04f 0900 	mov.w	r9, #0
 80057f6:	2201      	movs	r2, #1
 80057f8:	9904      	ldr	r1, [sp, #16]
 80057fa:	4620      	mov	r0, r4
 80057fc:	f000 fa36 	bl	8005c6c <__lshift>
 8005800:	4639      	mov	r1, r7
 8005802:	9004      	str	r0, [sp, #16]
 8005804:	f000 fa86 	bl	8005d14 <__mcmp>
 8005808:	2800      	cmp	r0, #0
 800580a:	dcb6      	bgt.n	800577a <_dtoa_r+0xa42>
 800580c:	d102      	bne.n	8005814 <_dtoa_r+0xadc>
 800580e:	f018 0f01 	tst.w	r8, #1
 8005812:	d1b2      	bne.n	800577a <_dtoa_r+0xa42>
 8005814:	f815 3c01 	ldrb.w	r3, [r5, #-1]
 8005818:	2b30      	cmp	r3, #48	; 0x30
 800581a:	f105 32ff 	add.w	r2, r5, #4294967295
 800581e:	f47f af0a 	bne.w	8005636 <_dtoa_r+0x8fe>
 8005822:	4615      	mov	r5, r2
 8005824:	e7f6      	b.n	8005814 <_dtoa_r+0xadc>
 8005826:	4593      	cmp	fp, r2
 8005828:	d105      	bne.n	8005836 <_dtoa_r+0xafe>
 800582a:	2331      	movs	r3, #49	; 0x31
 800582c:	f10a 0a01 	add.w	sl, sl, #1
 8005830:	f88b 3000 	strb.w	r3, [fp]
 8005834:	e6ff      	b.n	8005636 <_dtoa_r+0x8fe>
 8005836:	4615      	mov	r5, r2
 8005838:	e79f      	b.n	800577a <_dtoa_r+0xa42>
 800583a:	f8df b064 	ldr.w	fp, [pc, #100]	; 80058a0 <_dtoa_r+0xb68>
 800583e:	e007      	b.n	8005850 <_dtoa_r+0xb18>
 8005840:	9b21      	ldr	r3, [sp, #132]	; 0x84
 8005842:	f8df b060 	ldr.w	fp, [pc, #96]	; 80058a4 <_dtoa_r+0xb6c>
 8005846:	b11b      	cbz	r3, 8005850 <_dtoa_r+0xb18>
 8005848:	f10b 0308 	add.w	r3, fp, #8
 800584c:	9a21      	ldr	r2, [sp, #132]	; 0x84
 800584e:	6013      	str	r3, [r2, #0]
 8005850:	4658      	mov	r0, fp
 8005852:	b017      	add	sp, #92	; 0x5c
 8005854:	e8bd 8ff0 	ldmia.w	sp!, {r4, r5, r6, r7, r8, r9, sl, fp, pc}
 8005858:	9b06      	ldr	r3, [sp, #24]
 800585a:	2b01      	cmp	r3, #1
 800585c:	f77f ae35 	ble.w	80054ca <_dtoa_r+0x792>
 8005860:	9b0e      	ldr	r3, [sp, #56]	; 0x38
 8005862:	9307      	str	r3, [sp, #28]
 8005864:	e649      	b.n	80054fa <_dtoa_r+0x7c2>
 8005866:	9b02      	ldr	r3, [sp, #8]
 8005868:	2b00      	cmp	r3, #0
 800586a:	dc03      	bgt.n	8005874 <_dtoa_r+0xb3c>
 800586c:	9b06      	ldr	r3, [sp, #24]
 800586e:	2b02      	cmp	r3, #2
 8005870:	f73f aecc 	bgt.w	800560c <_dtoa_r+0x8d4>
 8005874:	465d      	mov	r5, fp
 8005876:	4639      	mov	r1, r7
 8005878:	9804      	ldr	r0, [sp, #16]
 800587a:	f7ff f9d1 	bl	8004c20 <quorem>
 800587e:	f100 0830 	add.w	r8, r0, #48	; 0x30
 8005882:	f805 8b01 	strb.w	r8, [r5], #1
 8005886:	9a02      	ldr	r2, [sp, #8]
 8005888:	eba5 030b 	sub.w	r3, r5, fp
 800588c:	429a      	cmp	r2, r3
 800588e:	ddb0      	ble.n	80057f2 <_dtoa_r+0xaba>
 8005890:	2300      	movs	r3, #0
 8005892:	220a      	movs	r2, #10
 8005894:	9904      	ldr	r1, [sp, #16]
 8005896:	4620      	mov	r0, r4
 8005898:	f000 f872 	bl	8005980 <__multadd>
 800589c:	9004      	str	r0, [sp, #16]
 800589e:	e7ea      	b.n	8005876 <_dtoa_r+0xb3e>
 80058a0:	080063ec 	.word	0x080063ec
 80058a4:	08006410 	.word	0x08006410

080058a8 <_localeconv_r>:
 80058a8:	4b04      	ldr	r3, [pc, #16]	; (80058bc <_localeconv_r+0x14>)
 80058aa:	681b      	ldr	r3, [r3, #0]
 80058ac:	6a18      	ldr	r0, [r3, #32]
 80058ae:	4b04      	ldr	r3, [pc, #16]	; (80058c0 <_localeconv_r+0x18>)
 80058b0:	2800      	cmp	r0, #0
 80058b2:	bf08      	it	eq
 80058b4:	4618      	moveq	r0, r3
 80058b6:	30f0      	adds	r0, #240	; 0xf0
 80058b8:	4770      	bx	lr
 80058ba:	bf00      	nop
 80058bc:	2000000c 	.word	0x2000000c
 80058c0:	20000070 	.word	0x20000070

080058c4 <malloc>:
 80058c4:	4b02      	ldr	r3, [pc, #8]	; (80058d0 <malloc+0xc>)
 80058c6:	4601      	mov	r1, r0
 80058c8:	6818      	ldr	r0, [r3, #0]
 80058ca:	f000 bb45 	b.w	8005f58 <_malloc_r>
 80058ce:	bf00      	nop
 80058d0:	2000000c 	.word	0x2000000c

080058d4 <memcpy>:
 80058d4:	b510      	push	{r4, lr}
 80058d6:	1e43      	subs	r3, r0, #1
 80058d8:	440a      	add	r2, r1
 80058da:	4291      	cmp	r1, r2
 80058dc:	d100      	bne.n	80058e0 <memcpy+0xc>
 80058de:	bd10      	pop	{r4, pc}
 80058e0:	f811 4b01 	ldrb.w	r4, [r1], #1
 80058e4:	f803 4f01 	strb.w	r4, [r3, #1]!
 80058e8:	e7f7      	b.n	80058da <memcpy+0x6>

080058ea <_Balloc>:
 80058ea:	b570      	push	{r4, r5, r6, lr}
 80058ec:	6a45      	ldr	r5, [r0, #36]	; 0x24
 80058ee:	4604      	mov	r4, r0
 80058f0:	460e      	mov	r6, r1
 80058f2:	b93d      	cbnz	r5, 8005904 <_Balloc+0x1a>
 80058f4:	2010      	movs	r0, #16
 80058f6:	f7ff ffe5 	bl	80058c4 <malloc>
 80058fa:	6260      	str	r0, [r4, #36]	; 0x24
 80058fc:	e9c0 5501 	strd	r5, r5, [r0, #4]
 8005900:	6005      	str	r5, [r0, #0]
 8005902:	60c5      	str	r5, [r0, #12]
 8005904:	6a65      	ldr	r5, [r4, #36]	; 0x24
 8005906:	68eb      	ldr	r3, [r5, #12]
 8005908:	b183      	cbz	r3, 800592c <_Balloc+0x42>
 800590a:	6a63      	ldr	r3, [r4, #36]	; 0x24
 800590c:	68db      	ldr	r3, [r3, #12]
 800590e:	f853 0026 	ldr.w	r0, [r3, r6, lsl #2]
 8005912:	b9b8      	cbnz	r0, 8005944 <_Balloc+0x5a>
 8005914:	2101      	movs	r1, #1
 8005916:	fa01 f506 	lsl.w	r5, r1, r6
 800591a:	1d6a      	adds	r2, r5, #5
 800591c:	0092      	lsls	r2, r2, #2
 800591e:	4620      	mov	r0, r4
 8005920:	f000 fabe 	bl	8005ea0 <_calloc_r>
 8005924:	b160      	cbz	r0, 8005940 <_Balloc+0x56>
 8005926:	e9c0 6501 	strd	r6, r5, [r0, #4]
 800592a:	e00e      	b.n	800594a <_Balloc+0x60>
 800592c:	2221      	movs	r2, #33	; 0x21
 800592e:	2104      	movs	r1, #4
 8005930:	4620      	mov	r0, r4
 8005932:	f000 fab5 	bl	8005ea0 <_calloc_r>
 8005936:	6a63      	ldr	r3, [r4, #36]	; 0x24
 8005938:	60e8      	str	r0, [r5, #12]
 800593a:	68db      	ldr	r3, [r3, #12]
 800593c:	2b00      	cmp	r3, #0
 800593e:	d1e4      	bne.n	800590a <_Balloc+0x20>
 8005940:	2000      	movs	r0, #0
 8005942:	bd70      	pop	{r4, r5, r6, pc}
 8005944:	6802      	ldr	r2, [r0, #0]
 8005946:	f843 2026 	str.w	r2, [r3, r6, lsl #2]
 800594a:	2300      	movs	r3, #0
 800594c:	e9c0 3303 	strd	r3, r3, [r0, #12]
 8005950:	e7f7      	b.n	8005942 <_Balloc+0x58>

08005952 <_Bfree>:
 8005952:	b570      	push	{r4, r5, r6, lr}
 8005954:	6a44      	ldr	r4, [r0, #36]	; 0x24
 8005956:	4606      	mov	r6, r0
 8005958:	460d      	mov	r5, r1
 800595a:	b93c      	cbnz	r4, 800596c <_Bfree+0x1a>
 800595c:	2010      	movs	r0, #16
 800595e:	f7ff ffb1 	bl	80058c4 <malloc>
 8005962:	6270      	str	r0, [r6, #36]	; 0x24
 8005964:	e9c0 4401 	strd	r4, r4, [r0, #4]
 8005968:	6004      	str	r4, [r0, #0]
 800596a:	60c4      	str	r4, [r0, #12]
 800596c:	b13d      	cbz	r5, 800597e <_Bfree+0x2c>
 800596e:	6a73      	ldr	r3, [r6, #36]	; 0x24
 8005970:	686a      	ldr	r2, [r5, #4]
 8005972:	68db      	ldr	r3, [r3, #12]
 8005974:	f853 1022 	ldr.w	r1, [r3, r2, lsl #2]
 8005978:	6029      	str	r1, [r5, #0]
 800597a:	f843 5022 	str.w	r5, [r3, r2, lsl #2]
 800597e:	bd70      	pop	{r4, r5, r6, pc}

08005980 <__multadd>:
 8005980:	e92d 41f0 	stmdb	sp!, {r4, r5, r6, r7, r8, lr}
 8005984:	690d      	ldr	r5, [r1, #16]
 8005986:	461f      	mov	r7, r3
 8005988:	4606      	mov	r6, r0
 800598a:	460c      	mov	r4, r1
 800598c:	f101 0c14 	add.w	ip, r1, #20
 8005990:	2300      	movs	r3, #0
 8005992:	f8dc 0000 	ldr.w	r0, [ip]
 8005996:	b281      	uxth	r1, r0
 8005998:	fb02 7101 	mla	r1, r2, r1, r7
 800599c:	0c0f      	lsrs	r7, r1, #16
 800599e:	0c00      	lsrs	r0, r0, #16
 80059a0:	fb02 7000 	mla	r0, r2, r0, r7
 80059a4:	b289      	uxth	r1, r1
 80059a6:	3301      	adds	r3, #1
 80059a8:	eb01 4100 	add.w	r1, r1, r0, lsl #16
 80059ac:	429d      	cmp	r5, r3
 80059ae:	ea4f 4710 	mov.w	r7, r0, lsr #16
 80059b2:	f84c 1b04 	str.w	r1, [ip], #4
 80059b6:	dcec      	bgt.n	8005992 <__multadd+0x12>
 80059b8:	b1d7      	cbz	r7, 80059f0 <__multadd+0x70>
 80059ba:	68a3      	ldr	r3, [r4, #8]
 80059bc:	42ab      	cmp	r3, r5
 80059be:	dc12      	bgt.n	80059e6 <__multadd+0x66>
 80059c0:	6861      	ldr	r1, [r4, #4]
 80059c2:	4630      	mov	r0, r6
 80059c4:	3101      	adds	r1, #1
 80059c6:	f7ff ff90 	bl	80058ea <_Balloc>
 80059ca:	6922      	ldr	r2, [r4, #16]
 80059cc:	3202      	adds	r2, #2
 80059ce:	f104 010c 	add.w	r1, r4, #12
 80059d2:	4680      	mov	r8, r0
 80059d4:	0092      	lsls	r2, r2, #2
 80059d6:	300c      	adds	r0, #12
 80059d8:	f7ff ff7c 	bl	80058d4 <memcpy>
 80059dc:	4621      	mov	r1, r4
 80059de:	4630      	mov	r0, r6
 80059e0:	f7ff ffb7 	bl	8005952 <_Bfree>
 80059e4:	4644      	mov	r4, r8
 80059e6:	eb04 0385 	add.w	r3, r4, r5, lsl #2
 80059ea:	3501      	adds	r5, #1
 80059ec:	615f      	str	r7, [r3, #20]
 80059ee:	6125      	str	r5, [r4, #16]
 80059f0:	4620      	mov	r0, r4
 80059f2:	e8bd 81f0 	ldmia.w	sp!, {r4, r5, r6, r7, r8, pc}

080059f6 <__hi0bits>:
 80059f6:	0c02      	lsrs	r2, r0, #16
 80059f8:	0412      	lsls	r2, r2, #16
 80059fa:	4603      	mov	r3, r0
 80059fc:	b9b2      	cbnz	r2, 8005a2c <__hi0bits+0x36>
 80059fe:	0403      	lsls	r3, r0, #16
 8005a00:	2010      	movs	r0, #16
 8005a02:	f013 4f7f 	tst.w	r3, #4278190080	; 0xff000000
 8005a06:	bf04      	itt	eq
 8005a08:	021b      	lsleq	r3, r3, #8
 8005a0a:	3008      	addeq	r0, #8
 8005a0c:	f013 4f70 	tst.w	r3, #4026531840	; 0xf0000000
 8005a10:	bf04      	itt	eq
 8005a12:	011b      	lsleq	r3, r3, #4
 8005a14:	3004      	addeq	r0, #4
 8005a16:	f013 4f40 	tst.w	r3, #3221225472	; 0xc0000000
 8005a1a:	bf04      	itt	eq
 8005a1c:	009b      	lsleq	r3, r3, #2
 8005a1e:	3002      	addeq	r0, #2
 8005a20:	2b00      	cmp	r3, #0
 8005a22:	db06      	blt.n	8005a32 <__hi0bits+0x3c>
 8005a24:	005b      	lsls	r3, r3, #1
 8005a26:	d503      	bpl.n	8005a30 <__hi0bits+0x3a>
 8005a28:	3001      	adds	r0, #1
 8005a2a:	4770      	bx	lr
 8005a2c:	2000      	movs	r0, #0
 8005a2e:	e7e8      	b.n	8005a02 <__hi0bits+0xc>
 8005a30:	2020      	movs	r0, #32
 8005a32:	4770      	bx	lr

08005a34 <__lo0bits>:
 8005a34:	6803      	ldr	r3, [r0, #0]
 8005a36:	f013 0207 	ands.w	r2, r3, #7
 8005a3a:	4601      	mov	r1, r0
 8005a3c:	d00b      	beq.n	8005a56 <__lo0bits+0x22>
 8005a3e:	07da      	lsls	r2, r3, #31
 8005a40:	d423      	bmi.n	8005a8a <__lo0bits+0x56>
 8005a42:	0798      	lsls	r0, r3, #30
 8005a44:	bf49      	itett	mi
 8005a46:	085b      	lsrmi	r3, r3, #1
 8005a48:	089b      	lsrpl	r3, r3, #2
 8005a4a:	2001      	movmi	r0, #1
 8005a4c:	600b      	strmi	r3, [r1, #0]
 8005a4e:	bf5c      	itt	pl
 8005a50:	600b      	strpl	r3, [r1, #0]
 8005a52:	2002      	movpl	r0, #2
 8005a54:	4770      	bx	lr
 8005a56:	b298      	uxth	r0, r3
 8005a58:	b9a8      	cbnz	r0, 8005a86 <__lo0bits+0x52>
 8005a5a:	0c1b      	lsrs	r3, r3, #16
 8005a5c:	2010      	movs	r0, #16
 8005a5e:	f013 0fff 	tst.w	r3, #255	; 0xff
 8005a62:	bf04      	itt	eq
 8005a64:	0a1b      	lsreq	r3, r3, #8
 8005a66:	3008      	addeq	r0, #8
 8005a68:	071a      	lsls	r2, r3, #28
 8005a6a:	bf04      	itt	eq
 8005a6c:	091b      	lsreq	r3, r3, #4
 8005a6e:	3004      	addeq	r0, #4
 8005a70:	079a      	lsls	r2, r3, #30
 8005a72:	bf04      	itt	eq
 8005a74:	089b      	lsreq	r3, r3, #2
 8005a76:	3002      	addeq	r0, #2
 8005a78:	07da      	lsls	r2, r3, #31
 8005a7a:	d402      	bmi.n	8005a82 <__lo0bits+0x4e>
 8005a7c:	085b      	lsrs	r3, r3, #1
 8005a7e:	d006      	beq.n	8005a8e <__lo0bits+0x5a>
 8005a80:	3001      	adds	r0, #1
 8005a82:	600b      	str	r3, [r1, #0]
 8005a84:	4770      	bx	lr
 8005a86:	4610      	mov	r0, r2
 8005a88:	e7e9      	b.n	8005a5e <__lo0bits+0x2a>
 8005a8a:	2000      	movs	r0, #0
 8005a8c:	4770      	bx	lr
 8005a8e:	2020      	movs	r0, #32
 8005a90:	4770      	bx	lr

08005a92 <__i2b>:
 8005a92:	b510      	push	{r4, lr}
 8005a94:	460c      	mov	r4, r1
 8005a96:	2101      	movs	r1, #1
 8005a98:	f7ff ff27 	bl	80058ea <_Balloc>
 8005a9c:	2201      	movs	r2, #1
 8005a9e:	6144      	str	r4, [r0, #20]
 8005aa0:	6102      	str	r2, [r0, #16]
 8005aa2:	bd10      	pop	{r4, pc}

08005aa4 <__multiply>:
 8005aa4:	e92d 4ff7 	stmdb	sp!, {r0, r1, r2, r4, r5, r6, r7, r8, r9, sl, fp, lr}
 8005aa8:	4614      	mov	r4, r2
 8005aaa:	690a      	ldr	r2, [r1, #16]
 8005aac:	6923      	ldr	r3, [r4, #16]
 8005aae:	429a      	cmp	r2, r3
 8005ab0:	bfb8      	it	lt
 8005ab2:	460b      	movlt	r3, r1
 8005ab4:	4688      	mov	r8, r1
 8005ab6:	bfbc      	itt	lt
 8005ab8:	46a0      	movlt	r8, r4
 8005aba:	461c      	movlt	r4, r3
 8005abc:	f8d8 7010 	ldr.w	r7, [r8, #16]
 8005ac0:	f8d4 9010 	ldr.w	r9, [r4, #16]
 8005ac4:	f8d8 3008 	ldr.w	r3, [r8, #8]
 8005ac8:	f8d8 1004 	ldr.w	r1, [r8, #4]
 8005acc:	eb07 0609 	add.w	r6, r7, r9
 8005ad0:	42b3      	cmp	r3, r6
 8005ad2:	bfb8      	it	lt
 8005ad4:	3101      	addlt	r1, #1
 8005ad6:	f7ff ff08 	bl	80058ea <_Balloc>
 8005ada:	f100 0514 	add.w	r5, r0, #20
 8005ade:	eb05 0e86 	add.w	lr, r5, r6, lsl #2
 8005ae2:	462b      	mov	r3, r5
 8005ae4:	2200      	movs	r2, #0
 8005ae6:	4573      	cmp	r3, lr
 8005ae8:	d316      	bcc.n	8005b18 <__multiply+0x74>
 8005aea:	f104 0214 	add.w	r2, r4, #20
 8005aee:	f108 0114 	add.w	r1, r8, #20
 8005af2:	eb02 0389 	add.w	r3, r2, r9, lsl #2
 8005af6:	eb01 0787 	add.w	r7, r1, r7, lsl #2
 8005afa:	9300      	str	r3, [sp, #0]
 8005afc:	9b00      	ldr	r3, [sp, #0]
 8005afe:	9201      	str	r2, [sp, #4]
 8005b00:	4293      	cmp	r3, r2
 8005b02:	d80c      	bhi.n	8005b1e <__multiply+0x7a>
 8005b04:	2e00      	cmp	r6, #0
 8005b06:	dd03      	ble.n	8005b10 <__multiply+0x6c>
 8005b08:	f85e 3d04 	ldr.w	r3, [lr, #-4]!
 8005b0c:	2b00      	cmp	r3, #0
 8005b0e:	d05d      	beq.n	8005bcc <__multiply+0x128>
 8005b10:	6106      	str	r6, [r0, #16]
 8005b12:	b003      	add	sp, #12
 8005b14:	e8bd 8ff0 	ldmia.w	sp!, {r4, r5, r6, r7, r8, r9, sl, fp, pc}
 8005b18:	f843 2b04 	str.w	r2, [r3], #4
 8005b1c:	e7e3      	b.n	8005ae6 <__multiply+0x42>
 8005b1e:	f8b2 b000 	ldrh.w	fp, [r2]
 8005b22:	f1bb 0f00 	cmp.w	fp, #0
 8005b26:	d023      	beq.n	8005b70 <__multiply+0xcc>
 8005b28:	4689      	mov	r9, r1
 8005b2a:	46ac      	mov	ip, r5
 8005b2c:	f04f 0800 	mov.w	r8, #0
 8005b30:	f859 4b04 	ldr.w	r4, [r9], #4
 8005b34:	f8dc a000 	ldr.w	sl, [ip]
 8005b38:	b2a3      	uxth	r3, r4
 8005b3a:	fa1f fa8a 	uxth.w	sl, sl
 8005b3e:	fb0b a303 	mla	r3, fp, r3, sl
 8005b42:	ea4f 4a14 	mov.w	sl, r4, lsr #16
 8005b46:	f8dc 4000 	ldr.w	r4, [ip]
 8005b4a:	4443      	add	r3, r8
 8005b4c:	ea4f 4814 	mov.w	r8, r4, lsr #16
 8005b50:	fb0b 840a 	mla	r4, fp, sl, r8
 8005b54:	eb04 4413 	add.w	r4, r4, r3, lsr #16
 8005b58:	46e2      	mov	sl, ip
 8005b5a:	b29b      	uxth	r3, r3
 8005b5c:	ea43 4304 	orr.w	r3, r3, r4, lsl #16
 8005b60:	454f      	cmp	r7, r9
 8005b62:	ea4f 4814 	mov.w	r8, r4, lsr #16
 8005b66:	f84a 3b04 	str.w	r3, [sl], #4
 8005b6a:	d82b      	bhi.n	8005bc4 <__multiply+0x120>
 8005b6c:	f8cc 8004 	str.w	r8, [ip, #4]
 8005b70:	9b01      	ldr	r3, [sp, #4]
 8005b72:	f8b3 a002 	ldrh.w	sl, [r3, #2]
 8005b76:	3204      	adds	r2, #4
 8005b78:	f1ba 0f00 	cmp.w	sl, #0
 8005b7c:	d020      	beq.n	8005bc0 <__multiply+0x11c>
 8005b7e:	682b      	ldr	r3, [r5, #0]
 8005b80:	4689      	mov	r9, r1
 8005b82:	46a8      	mov	r8, r5
 8005b84:	f04f 0b00 	mov.w	fp, #0
 8005b88:	f8b9 c000 	ldrh.w	ip, [r9]
 8005b8c:	f8b8 4002 	ldrh.w	r4, [r8, #2]
 8005b90:	fb0a 440c 	mla	r4, sl, ip, r4
 8005b94:	445c      	add	r4, fp
 8005b96:	46c4      	mov	ip, r8
 8005b98:	b29b      	uxth	r3, r3
 8005b9a:	ea43 4304 	orr.w	r3, r3, r4, lsl #16
 8005b9e:	f84c 3b04 	str.w	r3, [ip], #4
 8005ba2:	f859 3b04 	ldr.w	r3, [r9], #4
 8005ba6:	f8b8 b004 	ldrh.w	fp, [r8, #4]
 8005baa:	0c1b      	lsrs	r3, r3, #16
 8005bac:	fb0a b303 	mla	r3, sl, r3, fp
 8005bb0:	eb03 4314 	add.w	r3, r3, r4, lsr #16
 8005bb4:	454f      	cmp	r7, r9
 8005bb6:	ea4f 4b13 	mov.w	fp, r3, lsr #16
 8005bba:	d805      	bhi.n	8005bc8 <__multiply+0x124>
 8005bbc:	f8c8 3004 	str.w	r3, [r8, #4]
 8005bc0:	3504      	adds	r5, #4
 8005bc2:	e79b      	b.n	8005afc <__multiply+0x58>
 8005bc4:	46d4      	mov	ip, sl
 8005bc6:	e7b3      	b.n	8005b30 <__multiply+0x8c>
 8005bc8:	46e0      	mov	r8, ip
 8005bca:	e7dd      	b.n	8005b88 <__multiply+0xe4>
 8005bcc:	3e01      	subs	r6, #1
 8005bce:	e799      	b.n	8005b04 <__multiply+0x60>

08005bd0 <__pow5mult>:
 8005bd0:	e92d 43f8 	stmdb	sp!, {r3, r4, r5, r6, r7, r8, r9, lr}
 8005bd4:	4615      	mov	r5, r2
 8005bd6:	f012 0203 	ands.w	r2, r2, #3
 8005bda:	4606      	mov	r6, r0
 8005bdc:	460f      	mov	r7, r1
 8005bde:	d007      	beq.n	8005bf0 <__pow5mult+0x20>
 8005be0:	3a01      	subs	r2, #1
 8005be2:	4c21      	ldr	r4, [pc, #132]	; (8005c68 <__pow5mult+0x98>)
 8005be4:	2300      	movs	r3, #0
 8005be6:	f854 2022 	ldr.w	r2, [r4, r2, lsl #2]
 8005bea:	f7ff fec9 	bl	8005980 <__multadd>
 8005bee:	4607      	mov	r7, r0
 8005bf0:	10ad      	asrs	r5, r5, #2
 8005bf2:	d035      	beq.n	8005c60 <__pow5mult+0x90>
 8005bf4:	6a74      	ldr	r4, [r6, #36]	; 0x24
 8005bf6:	b93c      	cbnz	r4, 8005c08 <__pow5mult+0x38>
 8005bf8:	2010      	movs	r0, #16
 8005bfa:	f7ff fe63 	bl	80058c4 <malloc>
 8005bfe:	6270      	str	r0, [r6, #36]	; 0x24
 8005c00:	e9c0 4401 	strd	r4, r4, [r0, #4]
 8005c04:	6004      	str	r4, [r0, #0]
 8005c06:	60c4      	str	r4, [r0, #12]
 8005c08:	f8d6 8024 	ldr.w	r8, [r6, #36]	; 0x24
 8005c0c:	f8d8 4008 	ldr.w	r4, [r8, #8]
 8005c10:	b94c      	cbnz	r4, 8005c26 <__pow5mult+0x56>
 8005c12:	f240 2171 	movw	r1, #625	; 0x271
 8005c16:	4630      	mov	r0, r6
 8005c18:	f7ff ff3b 	bl	8005a92 <__i2b>
 8005c1c:	2300      	movs	r3, #0
 8005c1e:	f8c8 0008 	str.w	r0, [r8, #8]
 8005c22:	4604      	mov	r4, r0
 8005c24:	6003      	str	r3, [r0, #0]
 8005c26:	f04f 0800 	mov.w	r8, #0
 8005c2a:	07eb      	lsls	r3, r5, #31
 8005c2c:	d50a      	bpl.n	8005c44 <__pow5mult+0x74>
 8005c2e:	4639      	mov	r1, r7
 8005c30:	4622      	mov	r2, r4
 8005c32:	4630      	mov	r0, r6
 8005c34:	f7ff ff36 	bl	8005aa4 <__multiply>
 8005c38:	4639      	mov	r1, r7
 8005c3a:	4681      	mov	r9, r0
 8005c3c:	4630      	mov	r0, r6
 8005c3e:	f7ff fe88 	bl	8005952 <_Bfree>
 8005c42:	464f      	mov	r7, r9
 8005c44:	106d      	asrs	r5, r5, #1
 8005c46:	d00b      	beq.n	8005c60 <__pow5mult+0x90>
 8005c48:	6820      	ldr	r0, [r4, #0]
 8005c4a:	b938      	cbnz	r0, 8005c5c <__pow5mult+0x8c>
 8005c4c:	4622      	mov	r2, r4
 8005c4e:	4621      	mov	r1, r4
 8005c50:	4630      	mov	r0, r6
 8005c52:	f7ff ff27 	bl	8005aa4 <__multiply>
 8005c56:	6020      	str	r0, [r4, #0]
 8005c58:	f8c0 8000 	str.w	r8, [r0]
 8005c5c:	4604      	mov	r4, r0
 8005c5e:	e7e4      	b.n	8005c2a <__pow5mult+0x5a>
 8005c60:	4638      	mov	r0, r7
 8005c62:	e8bd 83f8 	ldmia.w	sp!, {r3, r4, r5, r6, r7, r8, r9, pc}
 8005c66:	bf00      	nop
 8005c68:	08006510 	.word	0x08006510

08005c6c <__lshift>:
 8005c6c:	e92d 47f0 	stmdb	sp!, {r4, r5, r6, r7, r8, r9, sl, lr}
 8005c70:	460c      	mov	r4, r1
 8005c72:	ea4f 1a62 	mov.w	sl, r2, asr #5
 8005c76:	6923      	ldr	r3, [r4, #16]
 8005c78:	6849      	ldr	r1, [r1, #4]
 8005c7a:	eb0a 0903 	add.w	r9, sl, r3
 8005c7e:	68a3      	ldr	r3, [r4, #8]
 8005c80:	4607      	mov	r7, r0
 8005c82:	4616      	mov	r6, r2
 8005c84:	f109 0501 	add.w	r5, r9, #1
 8005c88:	42ab      	cmp	r3, r5
 8005c8a:	db32      	blt.n	8005cf2 <__lshift+0x86>
 8005c8c:	4638      	mov	r0, r7
 8005c8e:	f7ff fe2c 	bl	80058ea <_Balloc>
 8005c92:	2300      	movs	r3, #0
 8005c94:	4680      	mov	r8, r0
 8005c96:	f100 0114 	add.w	r1, r0, #20
 8005c9a:	461a      	mov	r2, r3
 8005c9c:	4553      	cmp	r3, sl
 8005c9e:	db2b      	blt.n	8005cf8 <__lshift+0x8c>
 8005ca0:	6920      	ldr	r0, [r4, #16]
 8005ca2:	ea2a 7aea 	bic.w	sl, sl, sl, asr #31
 8005ca6:	f104 0314 	add.w	r3, r4, #20
 8005caa:	f016 021f 	ands.w	r2, r6, #31
 8005cae:	eb01 018a 	add.w	r1, r1, sl, lsl #2
 8005cb2:	eb03 0c80 	add.w	ip, r3, r0, lsl #2
 8005cb6:	d025      	beq.n	8005d04 <__lshift+0x98>
 8005cb8:	f1c2 0e20 	rsb	lr, r2, #32
 8005cbc:	2000      	movs	r0, #0
 8005cbe:	681e      	ldr	r6, [r3, #0]
 8005cc0:	468a      	mov	sl, r1
 8005cc2:	4096      	lsls	r6, r2
 8005cc4:	4330      	orrs	r0, r6
 8005cc6:	f84a 0b04 	str.w	r0, [sl], #4
 8005cca:	f853 0b04 	ldr.w	r0, [r3], #4
 8005cce:	459c      	cmp	ip, r3
 8005cd0:	fa20 f00e 	lsr.w	r0, r0, lr
 8005cd4:	d814      	bhi.n	8005d00 <__lshift+0x94>
 8005cd6:	6048      	str	r0, [r1, #4]
 8005cd8:	b108      	cbz	r0, 8005cde <__lshift+0x72>
 8005cda:	f109 0502 	add.w	r5, r9, #2
 8005cde:	3d01      	subs	r5, #1
 8005ce0:	4638      	mov	r0, r7
 8005ce2:	f8c8 5010 	str.w	r5, [r8, #16]
 8005ce6:	4621      	mov	r1, r4
 8005ce8:	f7ff fe33 	bl	8005952 <_Bfree>
 8005cec:	4640      	mov	r0, r8
 8005cee:	e8bd 87f0 	ldmia.w	sp!, {r4, r5, r6, r7, r8, r9, sl, pc}
 8005cf2:	3101      	adds	r1, #1
 8005cf4:	005b      	lsls	r3, r3, #1
 8005cf6:	e7c7      	b.n	8005c88 <__lshift+0x1c>
 8005cf8:	f841 2023 	str.w	r2, [r1, r3, lsl #2]
 8005cfc:	3301      	adds	r3, #1
 8005cfe:	e7cd      	b.n	8005c9c <__lshift+0x30>
 8005d00:	4651      	mov	r1, sl
 8005d02:	e7dc      	b.n	8005cbe <__lshift+0x52>
 8005d04:	3904      	subs	r1, #4
 8005d06:	f853 2b04 	ldr.w	r2, [r3], #4
 8005d0a:	f841 2f04 	str.w	r2, [r1, #4]!
 8005d0e:	459c      	cmp	ip, r3
 8005d10:	d8f9      	bhi.n	8005d06 <__lshift+0x9a>
 8005d12:	e7e4      	b.n	8005cde <__lshift+0x72>

08005d14 <__mcmp>:
 8005d14:	6903      	ldr	r3, [r0, #16]
 8005d16:	690a      	ldr	r2, [r1, #16]
 8005d18:	1a9b      	subs	r3, r3, r2
 8005d1a:	b530      	push	{r4, r5, lr}
 8005d1c:	d10c      	bne.n	8005d38 <__mcmp+0x24>
 8005d1e:	0092      	lsls	r2, r2, #2
 8005d20:	3014      	adds	r0, #20
 8005d22:	3114      	adds	r1, #20
 8005d24:	1884      	adds	r4, r0, r2
 8005d26:	4411      	add	r1, r2
 8005d28:	f854 5d04 	ldr.w	r5, [r4, #-4]!
 8005d2c:	f851 2d04 	ldr.w	r2, [r1, #-4]!
 8005d30:	4295      	cmp	r5, r2
 8005d32:	d003      	beq.n	8005d3c <__mcmp+0x28>
 8005d34:	d305      	bcc.n	8005d42 <__mcmp+0x2e>
 8005d36:	2301      	movs	r3, #1
 8005d38:	4618      	mov	r0, r3
 8005d3a:	bd30      	pop	{r4, r5, pc}
 8005d3c:	42a0      	cmp	r0, r4
 8005d3e:	d3f3      	bcc.n	8005d28 <__mcmp+0x14>
 8005d40:	e7fa      	b.n	8005d38 <__mcmp+0x24>
 8005d42:	f04f 33ff 	mov.w	r3, #4294967295
 8005d46:	e7f7      	b.n	8005d38 <__mcmp+0x24>

08005d48 <__mdiff>:
 8005d48:	e92d 47f0 	stmdb	sp!, {r4, r5, r6, r7, r8, r9, sl, lr}
 8005d4c:	460d      	mov	r5, r1
 8005d4e:	4607      	mov	r7, r0
 8005d50:	4611      	mov	r1, r2
 8005d52:	4628      	mov	r0, r5
 8005d54:	4614      	mov	r4, r2
 8005d56:	f7ff ffdd 	bl	8005d14 <__mcmp>
 8005d5a:	1e06      	subs	r6, r0, #0
 8005d5c:	d108      	bne.n	8005d70 <__mdiff+0x28>
 8005d5e:	4631      	mov	r1, r6
 8005d60:	4638      	mov	r0, r7
 8005d62:	f7ff fdc2 	bl	80058ea <_Balloc>
 8005d66:	2301      	movs	r3, #1
 8005d68:	e9c0 3604 	strd	r3, r6, [r0, #16]
 8005d6c:	e8bd 87f0 	ldmia.w	sp!, {r4, r5, r6, r7, r8, r9, sl, pc}
 8005d70:	bfa4      	itt	ge
 8005d72:	4623      	movge	r3, r4
 8005d74:	462c      	movge	r4, r5
 8005d76:	4638      	mov	r0, r7
 8005d78:	6861      	ldr	r1, [r4, #4]
 8005d7a:	bfa6      	itte	ge
 8005d7c:	461d      	movge	r5, r3
 8005d7e:	2600      	movge	r6, #0
 8005d80:	2601      	movlt	r6, #1
 8005d82:	f7ff fdb2 	bl	80058ea <_Balloc>
 8005d86:	692b      	ldr	r3, [r5, #16]
 8005d88:	60c6      	str	r6, [r0, #12]
 8005d8a:	6926      	ldr	r6, [r4, #16]
 8005d8c:	f105 0914 	add.w	r9, r5, #20
 8005d90:	f104 0214 	add.w	r2, r4, #20
 8005d94:	eb02 0786 	add.w	r7, r2, r6, lsl #2
 8005d98:	eb09 0883 	add.w	r8, r9, r3, lsl #2
 8005d9c:	f100 0514 	add.w	r5, r0, #20
 8005da0:	f04f 0e00 	mov.w	lr, #0
 8005da4:	f852 ab04 	ldr.w	sl, [r2], #4
 8005da8:	f859 4b04 	ldr.w	r4, [r9], #4
 8005dac:	fa1e f18a 	uxtah	r1, lr, sl
 8005db0:	b2a3      	uxth	r3, r4
 8005db2:	1ac9      	subs	r1, r1, r3
 8005db4:	0c23      	lsrs	r3, r4, #16
 8005db6:	ebc3 431a 	rsb	r3, r3, sl, lsr #16
 8005dba:	eb03 4321 	add.w	r3, r3, r1, asr #16
 8005dbe:	b289      	uxth	r1, r1
 8005dc0:	ea4f 4e23 	mov.w	lr, r3, asr #16
 8005dc4:	45c8      	cmp	r8, r9
 8005dc6:	ea41 4303 	orr.w	r3, r1, r3, lsl #16
 8005dca:	4694      	mov	ip, r2
 8005dcc:	f845 3b04 	str.w	r3, [r5], #4
 8005dd0:	d8e8      	bhi.n	8005da4 <__mdiff+0x5c>
 8005dd2:	45bc      	cmp	ip, r7
 8005dd4:	d304      	bcc.n	8005de0 <__mdiff+0x98>
 8005dd6:	f855 3d04 	ldr.w	r3, [r5, #-4]!
 8005dda:	b183      	cbz	r3, 8005dfe <__mdiff+0xb6>
 8005ddc:	6106      	str	r6, [r0, #16]
 8005dde:	e7c5      	b.n	8005d6c <__mdiff+0x24>
 8005de0:	f85c 1b04 	ldr.w	r1, [ip], #4
 8005de4:	fa1e f381 	uxtah	r3, lr, r1
 8005de8:	141a      	asrs	r2, r3, #16
 8005dea:	eb02 4211 	add.w	r2, r2, r1, lsr #16
 8005dee:	b29b      	uxth	r3, r3
 8005df0:	ea43 4302 	orr.w	r3, r3, r2, lsl #16
 8005df4:	ea4f 4e22 	mov.w	lr, r2, asr #16
 8005df8:	f845 3b04 	str.w	r3, [r5], #4
 8005dfc:	e7e9      	b.n	8005dd2 <__mdiff+0x8a>
 8005dfe:	3e01      	subs	r6, #1
 8005e00:	e7e9      	b.n	8005dd6 <__mdiff+0x8e>

08005e02 <__d2b>:
 8005e02:	e92d 43f7 	stmdb	sp!, {r0, r1, r2, r4, r5, r6, r7, r8, r9, lr}
 8005e06:	460e      	mov	r6, r1
 8005e08:	2101      	movs	r1, #1
 8005e0a:	ec59 8b10 	vmov	r8, r9, d0
 8005e0e:	4615      	mov	r5, r2
 8005e10:	f7ff fd6b 	bl	80058ea <_Balloc>
 8005e14:	f3c9 540a 	ubfx	r4, r9, #20, #11
 8005e18:	4607      	mov	r7, r0
 8005e1a:	f3c9 0313 	ubfx	r3, r9, #0, #20
 8005e1e:	bb34      	cbnz	r4, 8005e6e <__d2b+0x6c>
 8005e20:	9301      	str	r3, [sp, #4]
 8005e22:	f1b8 0300 	subs.w	r3, r8, #0
 8005e26:	d027      	beq.n	8005e78 <__d2b+0x76>
 8005e28:	a802      	add	r0, sp, #8
 8005e2a:	f840 3d08 	str.w	r3, [r0, #-8]!
 8005e2e:	f7ff fe01 	bl	8005a34 <__lo0bits>
 8005e32:	9900      	ldr	r1, [sp, #0]
 8005e34:	b1f0      	cbz	r0, 8005e74 <__d2b+0x72>
 8005e36:	9a01      	ldr	r2, [sp, #4]
 8005e38:	f1c0 0320 	rsb	r3, r0, #32
 8005e3c:	fa02 f303 	lsl.w	r3, r2, r3
 8005e40:	430b      	orrs	r3, r1
 8005e42:	40c2      	lsrs	r2, r0
 8005e44:	617b      	str	r3, [r7, #20]
 8005e46:	9201      	str	r2, [sp, #4]
 8005e48:	9b01      	ldr	r3, [sp, #4]
 8005e4a:	61bb      	str	r3, [r7, #24]
 8005e4c:	2b00      	cmp	r3, #0
 8005e4e:	bf14      	ite	ne
 8005e50:	2102      	movne	r1, #2
 8005e52:	2101      	moveq	r1, #1
 8005e54:	6139      	str	r1, [r7, #16]
 8005e56:	b1c4      	cbz	r4, 8005e8a <__d2b+0x88>
 8005e58:	f2a4 4433 	subw	r4, r4, #1075	; 0x433
 8005e5c:	4404      	add	r4, r0
 8005e5e:	6034      	str	r4, [r6, #0]
 8005e60:	f1c0 0035 	rsb	r0, r0, #53	; 0x35
 8005e64:	6028      	str	r0, [r5, #0]
 8005e66:	4638      	mov	r0, r7
 8005e68:	b003      	add	sp, #12
 8005e6a:	e8bd 83f0 	ldmia.w	sp!, {r4, r5, r6, r7, r8, r9, pc}
 8005e6e:	f443 1380 	orr.w	r3, r3, #1048576	; 0x100000
 8005e72:	e7d5      	b.n	8005e20 <__d2b+0x1e>
 8005e74:	6179      	str	r1, [r7, #20]
 8005e76:	e7e7      	b.n	8005e48 <__d2b+0x46>
 8005e78:	a801      	add	r0, sp, #4
 8005e7a:	f7ff fddb 	bl	8005a34 <__lo0bits>
 8005e7e:	9b01      	ldr	r3, [sp, #4]
 8005e80:	617b      	str	r3, [r7, #20]
 8005e82:	2101      	movs	r1, #1
 8005e84:	6139      	str	r1, [r7, #16]
 8005e86:	3020      	adds	r0, #32
 8005e88:	e7e5      	b.n	8005e56 <__d2b+0x54>
 8005e8a:	eb07 0381 	add.w	r3, r7, r1, lsl #2
 8005e8e:	f2a0 4032 	subw	r0, r0, #1074	; 0x432
 8005e92:	6030      	str	r0, [r6, #0]
 8005e94:	6918      	ldr	r0, [r3, #16]
 8005e96:	f7ff fdae 	bl	80059f6 <__hi0bits>
 8005e9a:	ebc0 1041 	rsb	r0, r0, r1, lsl #5
 8005e9e:	e7e1      	b.n	8005e64 <__d2b+0x62>

08005ea0 <_calloc_r>:
 8005ea0:	b538      	push	{r3, r4, r5, lr}
 8005ea2:	fb02 f401 	mul.w	r4, r2, r1
 8005ea6:	4621      	mov	r1, r4
 8005ea8:	f000 f856 	bl	8005f58 <_malloc_r>
 8005eac:	4605      	mov	r5, r0
 8005eae:	b118      	cbz	r0, 8005eb8 <_calloc_r+0x18>
 8005eb0:	4622      	mov	r2, r4
 8005eb2:	2100      	movs	r1, #0
 8005eb4:	f7fe fa30 	bl	8004318 <memset>
 8005eb8:	4628      	mov	r0, r5
 8005eba:	bd38      	pop	{r3, r4, r5, pc}

08005ebc <_free_r>:
 8005ebc:	b538      	push	{r3, r4, r5, lr}
 8005ebe:	4605      	mov	r5, r0
 8005ec0:	2900      	cmp	r1, #0
 8005ec2:	d045      	beq.n	8005f50 <_free_r+0x94>
 8005ec4:	f851 3c04 	ldr.w	r3, [r1, #-4]
 8005ec8:	1f0c      	subs	r4, r1, #4
 8005eca:	2b00      	cmp	r3, #0
 8005ecc:	bfb8      	it	lt
 8005ece:	18e4      	addlt	r4, r4, r3
 8005ed0:	f000 fa29 	bl	8006326 <__malloc_lock>
 8005ed4:	4a1f      	ldr	r2, [pc, #124]	; (8005f54 <_free_r+0x98>)
 8005ed6:	6813      	ldr	r3, [r2, #0]
 8005ed8:	4610      	mov	r0, r2
 8005eda:	b933      	cbnz	r3, 8005eea <_free_r+0x2e>
 8005edc:	6063      	str	r3, [r4, #4]
 8005ede:	6014      	str	r4, [r2, #0]
 8005ee0:	4628      	mov	r0, r5
 8005ee2:	e8bd 4038 	ldmia.w	sp!, {r3, r4, r5, lr}
 8005ee6:	f000 ba1f 	b.w	8006328 <__malloc_unlock>
 8005eea:	42a3      	cmp	r3, r4
 8005eec:	d90c      	bls.n	8005f08 <_free_r+0x4c>
 8005eee:	6821      	ldr	r1, [r4, #0]
 8005ef0:	1862      	adds	r2, r4, r1
 8005ef2:	4293      	cmp	r3, r2
 8005ef4:	bf04      	itt	eq
 8005ef6:	681a      	ldreq	r2, [r3, #0]
 8005ef8:	685b      	ldreq	r3, [r3, #4]
 8005efa:	6063      	str	r3, [r4, #4]
 8005efc:	bf04      	itt	eq
 8005efe:	1852      	addeq	r2, r2, r1
 8005f00:	6022      	streq	r2, [r4, #0]
 8005f02:	6004      	str	r4, [r0, #0]
 8005f04:	e7ec      	b.n	8005ee0 <_free_r+0x24>
 8005f06:	4613      	mov	r3, r2
 8005f08:	685a      	ldr	r2, [r3, #4]
 8005f0a:	b10a      	cbz	r2, 8005f10 <_free_r+0x54>
 8005f0c:	42a2      	cmp	r2, r4
 8005f0e:	d9fa      	bls.n	8005f06 <_free_r+0x4a>
 8005f10:	6819      	ldr	r1, [r3, #0]
 8005f12:	1858      	adds	r0, r3, r1
 8005f14:	42a0      	cmp	r0, r4
 8005f16:	d10b      	bne.n	8005f30 <_free_r+0x74>
 8005f18:	6820      	ldr	r0, [r4, #0]
 8005f1a:	4401      	add	r1, r0
 8005f1c:	1858      	adds	r0, r3, r1
 8005f1e:	4282      	cmp	r2, r0
 8005f20:	6019      	str	r1, [r3, #0]
 8005f22:	d1dd      	bne.n	8005ee0 <_free_r+0x24>
 8005f24:	6810      	ldr	r0, [r2, #0]
 8005f26:	6852      	ldr	r2, [r2, #4]
 8005f28:	605a      	str	r2, [r3, #4]
 8005f2a:	4401      	add	r1, r0
 8005f2c:	6019      	str	r1, [r3, #0]
 8005f2e:	e7d7      	b.n	8005ee0 <_free_r+0x24>
 8005f30:	d902      	bls.n	8005f38 <_free_r+0x7c>
 8005f32:	230c      	movs	r3, #12
 8005f34:	602b      	str	r3, [r5, #0]
 8005f36:	e7d3      	b.n	8005ee0 <_free_r+0x24>
 8005f38:	6820      	ldr	r0, [r4, #0]
 8005f3a:	1821      	adds	r1, r4, r0
 8005f3c:	428a      	cmp	r2, r1
 8005f3e:	bf04      	itt	eq
 8005f40:	6811      	ldreq	r1, [r2, #0]
 8005f42:	6852      	ldreq	r2, [r2, #4]
 8005f44:	6062      	str	r2, [r4, #4]
 8005f46:	bf04      	itt	eq
 8005f48:	1809      	addeq	r1, r1, r0
 8005f4a:	6021      	streq	r1, [r4, #0]
 8005f4c:	605c      	str	r4, [r3, #4]
 8005f4e:	e7c7      	b.n	8005ee0 <_free_r+0x24>
 8005f50:	bd38      	pop	{r3, r4, r5, pc}
 8005f52:	bf00      	nop
 8005f54:	2000020c 	.word	0x2000020c

08005f58 <_malloc_r>:
 8005f58:	b570      	push	{r4, r5, r6, lr}
 8005f5a:	1ccd      	adds	r5, r1, #3
 8005f5c:	f025 0503 	bic.w	r5, r5, #3
 8005f60:	3508      	adds	r5, #8
 8005f62:	2d0c      	cmp	r5, #12
 8005f64:	bf38      	it	cc
 8005f66:	250c      	movcc	r5, #12
 8005f68:	2d00      	cmp	r5, #0
 8005f6a:	4606      	mov	r6, r0
 8005f6c:	db01      	blt.n	8005f72 <_malloc_r+0x1a>
 8005f6e:	42a9      	cmp	r1, r5
 8005f70:	d903      	bls.n	8005f7a <_malloc_r+0x22>
 8005f72:	230c      	movs	r3, #12
 8005f74:	6033      	str	r3, [r6, #0]
 8005f76:	2000      	movs	r0, #0
 8005f78:	bd70      	pop	{r4, r5, r6, pc}
 8005f7a:	f000 f9d4 	bl	8006326 <__malloc_lock>
 8005f7e:	4a21      	ldr	r2, [pc, #132]	; (8006004 <_malloc_r+0xac>)
 8005f80:	6814      	ldr	r4, [r2, #0]
 8005f82:	4621      	mov	r1, r4
 8005f84:	b991      	cbnz	r1, 8005fac <_malloc_r+0x54>
 8005f86:	4c20      	ldr	r4, [pc, #128]	; (8006008 <_malloc_r+0xb0>)
 8005f88:	6823      	ldr	r3, [r4, #0]
 8005f8a:	b91b      	cbnz	r3, 8005f94 <_malloc_r+0x3c>
 8005f8c:	4630      	mov	r0, r6
 8005f8e:	f000 f98f 	bl	80062b0 <_sbrk_r>
 8005f92:	6020      	str	r0, [r4, #0]
 8005f94:	4629      	mov	r1, r5
 8005f96:	4630      	mov	r0, r6
 8005f98:	f000 f98a 	bl	80062b0 <_sbrk_r>
 8005f9c:	1c43      	adds	r3, r0, #1
 8005f9e:	d124      	bne.n	8005fea <_malloc_r+0x92>
 8005fa0:	230c      	movs	r3, #12
 8005fa2:	6033      	str	r3, [r6, #0]
 8005fa4:	4630      	mov	r0, r6
 8005fa6:	f000 f9bf 	bl	8006328 <__malloc_unlock>
 8005faa:	e7e4      	b.n	8005f76 <_malloc_r+0x1e>
 8005fac:	680b      	ldr	r3, [r1, #0]
 8005fae:	1b5b      	subs	r3, r3, r5
 8005fb0:	d418      	bmi.n	8005fe4 <_malloc_r+0x8c>
 8005fb2:	2b0b      	cmp	r3, #11
 8005fb4:	d90f      	bls.n	8005fd6 <_malloc_r+0x7e>
 8005fb6:	600b      	str	r3, [r1, #0]
 8005fb8:	50cd      	str	r5, [r1, r3]
 8005fba:	18cc      	adds	r4, r1, r3
 8005fbc:	4630      	mov	r0, r6
 8005fbe:	f000 f9b3 	bl	8006328 <__malloc_unlock>
 8005fc2:	f104 000b 	add.w	r0, r4, #11
 8005fc6:	1d23      	adds	r3, r4, #4
 8005fc8:	f020 0007 	bic.w	r0, r0, #7
 8005fcc:	1ac3      	subs	r3, r0, r3
 8005fce:	d0d3      	beq.n	8005f78 <_malloc_r+0x20>
 8005fd0:	425a      	negs	r2, r3
 8005fd2:	50e2      	str	r2, [r4, r3]
 8005fd4:	e7d0      	b.n	8005f78 <_malloc_r+0x20>
 8005fd6:	428c      	cmp	r4, r1
 8005fd8:	684b      	ldr	r3, [r1, #4]
 8005fda:	bf16      	itet	ne
 8005fdc:	6063      	strne	r3, [r4, #4]
 8005fde:	6013      	streq	r3, [r2, #0]
 8005fe0:	460c      	movne	r4, r1
 8005fe2:	e7eb      	b.n	8005fbc <_malloc_r+0x64>
 8005fe4:	460c      	mov	r4, r1
 8005fe6:	6849      	ldr	r1, [r1, #4]
 8005fe8:	e7cc      	b.n	8005f84 <_malloc_r+0x2c>
 8005fea:	1cc4      	adds	r4, r0, #3
 8005fec:	f024 0403 	bic.w	r4, r4, #3
 8005ff0:	42a0      	cmp	r0, r4
 8005ff2:	d005      	beq.n	8006000 <_malloc_r+0xa8>
 8005ff4:	1a21      	subs	r1, r4, r0
 8005ff6:	4630      	mov	r0, r6
 8005ff8:	f000 f95a 	bl	80062b0 <_sbrk_r>
 8005ffc:	3001      	adds	r0, #1
 8005ffe:	d0cf      	beq.n	8005fa0 <_malloc_r+0x48>
 8006000:	6025      	str	r5, [r4, #0]
 8006002:	e7db      	b.n	8005fbc <_malloc_r+0x64>
 8006004:	2000020c 	.word	0x2000020c
 8006008:	20000210 	.word	0x20000210

0800600c <__ssputs_r>:
 800600c:	e92d 47f0 	stmdb	sp!, {r4, r5, r6, r7, r8, r9, sl, lr}
 8006010:	688e      	ldr	r6, [r1, #8]
 8006012:	429e      	cmp	r6, r3
 8006014:	4682      	mov	sl, r0
 8006016:	460c      	mov	r4, r1
 8006018:	4690      	mov	r8, r2
 800601a:	4699      	mov	r9, r3
 800601c:	d837      	bhi.n	800608e <__ssputs_r+0x82>
 800601e:	898a      	ldrh	r2, [r1, #12]
 8006020:	f412 6f90 	tst.w	r2, #1152	; 0x480
 8006024:	d031      	beq.n	800608a <__ssputs_r+0x7e>
 8006026:	6825      	ldr	r5, [r4, #0]
 8006028:	6909      	ldr	r1, [r1, #16]
 800602a:	1a6f      	subs	r7, r5, r1
 800602c:	6965      	ldr	r5, [r4, #20]
 800602e:	2302      	movs	r3, #2
 8006030:	eb05 0545 	add.w	r5, r5, r5, lsl #1
 8006034:	fb95 f5f3 	sdiv	r5, r5, r3
 8006038:	f109 0301 	add.w	r3, r9, #1
 800603c:	443b      	add	r3, r7
 800603e:	429d      	cmp	r5, r3
 8006040:	bf38      	it	cc
 8006042:	461d      	movcc	r5, r3
 8006044:	0553      	lsls	r3, r2, #21
 8006046:	d530      	bpl.n	80060aa <__ssputs_r+0x9e>
 8006048:	4629      	mov	r1, r5
 800604a:	f7ff ff85 	bl	8005f58 <_malloc_r>
 800604e:	4606      	mov	r6, r0
 8006050:	b950      	cbnz	r0, 8006068 <__ssputs_r+0x5c>
 8006052:	230c      	movs	r3, #12
 8006054:	f8ca 3000 	str.w	r3, [sl]
 8006058:	89a3      	ldrh	r3, [r4, #12]
 800605a:	f043 0340 	orr.w	r3, r3, #64	; 0x40
 800605e:	81a3      	strh	r3, [r4, #12]
 8006060:	f04f 30ff 	mov.w	r0, #4294967295
 8006064:	e8bd 87f0 	ldmia.w	sp!, {r4, r5, r6, r7, r8, r9, sl, pc}
 8006068:	463a      	mov	r2, r7
 800606a:	6921      	ldr	r1, [r4, #16]
 800606c:	f7ff fc32 	bl	80058d4 <memcpy>
 8006070:	89a3      	ldrh	r3, [r4, #12]
 8006072:	f423 6390 	bic.w	r3, r3, #1152	; 0x480
 8006076:	f043 0380 	orr.w	r3, r3, #128	; 0x80
 800607a:	81a3      	strh	r3, [r4, #12]
 800607c:	6126      	str	r6, [r4, #16]
 800607e:	6165      	str	r5, [r4, #20]
 8006080:	443e      	add	r6, r7
 8006082:	1bed      	subs	r5, r5, r7
 8006084:	6026      	str	r6, [r4, #0]
 8006086:	60a5      	str	r5, [r4, #8]
 8006088:	464e      	mov	r6, r9
 800608a:	454e      	cmp	r6, r9
 800608c:	d900      	bls.n	8006090 <__ssputs_r+0x84>
 800608e:	464e      	mov	r6, r9
 8006090:	4632      	mov	r2, r6
 8006092:	4641      	mov	r1, r8
 8006094:	6820      	ldr	r0, [r4, #0]
 8006096:	f000 f92d 	bl	80062f4 <memmove>
 800609a:	68a3      	ldr	r3, [r4, #8]
 800609c:	1b9b      	subs	r3, r3, r6
 800609e:	60a3      	str	r3, [r4, #8]
 80060a0:	6823      	ldr	r3, [r4, #0]
 80060a2:	441e      	add	r6, r3
 80060a4:	6026      	str	r6, [r4, #0]
 80060a6:	2000      	movs	r0, #0
 80060a8:	e7dc      	b.n	8006064 <__ssputs_r+0x58>
 80060aa:	462a      	mov	r2, r5
 80060ac:	f000 f93d 	bl	800632a <_realloc_r>
 80060b0:	4606      	mov	r6, r0
 80060b2:	2800      	cmp	r0, #0
 80060b4:	d1e2      	bne.n	800607c <__ssputs_r+0x70>
 80060b6:	6921      	ldr	r1, [r4, #16]
 80060b8:	4650      	mov	r0, sl
 80060ba:	f7ff feff 	bl	8005ebc <_free_r>
 80060be:	e7c8      	b.n	8006052 <__ssputs_r+0x46>

080060c0 <_svfiprintf_r>:
 80060c0:	e92d 4ff0 	stmdb	sp!, {r4, r5, r6, r7, r8, r9, sl, fp, lr}
 80060c4:	461d      	mov	r5, r3
 80060c6:	898b      	ldrh	r3, [r1, #12]
 80060c8:	061f      	lsls	r7, r3, #24
 80060ca:	b09d      	sub	sp, #116	; 0x74
 80060cc:	4680      	mov	r8, r0
 80060ce:	460c      	mov	r4, r1
 80060d0:	4616      	mov	r6, r2
 80060d2:	d50f      	bpl.n	80060f4 <_svfiprintf_r+0x34>
 80060d4:	690b      	ldr	r3, [r1, #16]
 80060d6:	b96b      	cbnz	r3, 80060f4 <_svfiprintf_r+0x34>
 80060d8:	2140      	movs	r1, #64	; 0x40
 80060da:	f7ff ff3d 	bl	8005f58 <_malloc_r>
 80060de:	6020      	str	r0, [r4, #0]
 80060e0:	6120      	str	r0, [r4, #16]
 80060e2:	b928      	cbnz	r0, 80060f0 <_svfiprintf_r+0x30>
 80060e4:	230c      	movs	r3, #12
 80060e6:	f8c8 3000 	str.w	r3, [r8]
 80060ea:	f04f 30ff 	mov.w	r0, #4294967295
 80060ee:	e0c8      	b.n	8006282 <_svfiprintf_r+0x1c2>
 80060f0:	2340      	movs	r3, #64	; 0x40
 80060f2:	6163      	str	r3, [r4, #20]
 80060f4:	2300      	movs	r3, #0
 80060f6:	9309      	str	r3, [sp, #36]	; 0x24
 80060f8:	2320      	movs	r3, #32
 80060fa:	f88d 3029 	strb.w	r3, [sp, #41]	; 0x29
 80060fe:	2330      	movs	r3, #48	; 0x30
 8006100:	f88d 302a 	strb.w	r3, [sp, #42]	; 0x2a
 8006104:	9503      	str	r5, [sp, #12]
 8006106:	f04f 0b01 	mov.w	fp, #1
 800610a:	4637      	mov	r7, r6
 800610c:	463d      	mov	r5, r7
 800610e:	f815 3b01 	ldrb.w	r3, [r5], #1
 8006112:	b10b      	cbz	r3, 8006118 <_svfiprintf_r+0x58>
 8006114:	2b25      	cmp	r3, #37	; 0x25
 8006116:	d13e      	bne.n	8006196 <_svfiprintf_r+0xd6>
 8006118:	ebb7 0a06 	subs.w	sl, r7, r6
 800611c:	d00b      	beq.n	8006136 <_svfiprintf_r+0x76>
 800611e:	4653      	mov	r3, sl
 8006120:	4632      	mov	r2, r6
 8006122:	4621      	mov	r1, r4
 8006124:	4640      	mov	r0, r8
 8006126:	f7ff ff71 	bl	800600c <__ssputs_r>
 800612a:	3001      	adds	r0, #1
 800612c:	f000 80a4 	beq.w	8006278 <_svfiprintf_r+0x1b8>
 8006130:	9b09      	ldr	r3, [sp, #36]	; 0x24
 8006132:	4453      	add	r3, sl
 8006134:	9309      	str	r3, [sp, #36]	; 0x24
 8006136:	783b      	ldrb	r3, [r7, #0]
 8006138:	2b00      	cmp	r3, #0
 800613a:	f000 809d 	beq.w	8006278 <_svfiprintf_r+0x1b8>
 800613e:	2300      	movs	r3, #0
 8006140:	f04f 32ff 	mov.w	r2, #4294967295
 8006144:	e9cd 2305 	strd	r2, r3, [sp, #20]
 8006148:	9304      	str	r3, [sp, #16]
 800614a:	9307      	str	r3, [sp, #28]
 800614c:	f88d 3053 	strb.w	r3, [sp, #83]	; 0x53
 8006150:	931a      	str	r3, [sp, #104]	; 0x68
 8006152:	462f      	mov	r7, r5
 8006154:	2205      	movs	r2, #5
 8006156:	f817 1b01 	ldrb.w	r1, [r7], #1
 800615a:	4850      	ldr	r0, [pc, #320]	; (800629c <_svfiprintf_r+0x1dc>)
 800615c:	f7fa f860 	bl	8000220 <memchr>
 8006160:	9b04      	ldr	r3, [sp, #16]
 8006162:	b9d0      	cbnz	r0, 800619a <_svfiprintf_r+0xda>
 8006164:	06d9      	lsls	r1, r3, #27
 8006166:	bf44      	itt	mi
 8006168:	2220      	movmi	r2, #32
 800616a:	f88d 2053 	strbmi.w	r2, [sp, #83]	; 0x53
 800616e:	071a      	lsls	r2, r3, #28
 8006170:	bf44      	itt	mi
 8006172:	222b      	movmi	r2, #43	; 0x2b
 8006174:	f88d 2053 	strbmi.w	r2, [sp, #83]	; 0x53
 8006178:	782a      	ldrb	r2, [r5, #0]
 800617a:	2a2a      	cmp	r2, #42	; 0x2a
 800617c:	d015      	beq.n	80061aa <_svfiprintf_r+0xea>
 800617e:	9a07      	ldr	r2, [sp, #28]
 8006180:	462f      	mov	r7, r5
 8006182:	2000      	movs	r0, #0
 8006184:	250a      	movs	r5, #10
 8006186:	4639      	mov	r1, r7
 8006188:	f811 3b01 	ldrb.w	r3, [r1], #1
 800618c:	3b30      	subs	r3, #48	; 0x30
 800618e:	2b09      	cmp	r3, #9
 8006190:	d94d      	bls.n	800622e <_svfiprintf_r+0x16e>
 8006192:	b1b8      	cbz	r0, 80061c4 <_svfiprintf_r+0x104>
 8006194:	e00f      	b.n	80061b6 <_svfiprintf_r+0xf6>
 8006196:	462f      	mov	r7, r5
 8006198:	e7b8      	b.n	800610c <_svfiprintf_r+0x4c>
 800619a:	4a40      	ldr	r2, [pc, #256]	; (800629c <_svfiprintf_r+0x1dc>)
 800619c:	1a80      	subs	r0, r0, r2
 800619e:	fa0b f000 	lsl.w	r0, fp, r0
 80061a2:	4318      	orrs	r0, r3
 80061a4:	9004      	str	r0, [sp, #16]
 80061a6:	463d      	mov	r5, r7
 80061a8:	e7d3      	b.n	8006152 <_svfiprintf_r+0x92>
 80061aa:	9a03      	ldr	r2, [sp, #12]
 80061ac:	1d11      	adds	r1, r2, #4
 80061ae:	6812      	ldr	r2, [r2, #0]
 80061b0:	9103      	str	r1, [sp, #12]
 80061b2:	2a00      	cmp	r2, #0
 80061b4:	db01      	blt.n	80061ba <_svfiprintf_r+0xfa>
 80061b6:	9207      	str	r2, [sp, #28]
 80061b8:	e004      	b.n	80061c4 <_svfiprintf_r+0x104>
 80061ba:	4252      	negs	r2, r2
 80061bc:	f043 0302 	orr.w	r3, r3, #2
 80061c0:	9207      	str	r2, [sp, #28]
 80061c2:	9304      	str	r3, [sp, #16]
 80061c4:	783b      	ldrb	r3, [r7, #0]
 80061c6:	2b2e      	cmp	r3, #46	; 0x2e
 80061c8:	d10c      	bne.n	80061e4 <_svfiprintf_r+0x124>
 80061ca:	787b      	ldrb	r3, [r7, #1]
 80061cc:	2b2a      	cmp	r3, #42	; 0x2a
 80061ce:	d133      	bne.n	8006238 <_svfiprintf_r+0x178>
 80061d0:	9b03      	ldr	r3, [sp, #12]
 80061d2:	1d1a      	adds	r2, r3, #4
 80061d4:	681b      	ldr	r3, [r3, #0]
 80061d6:	9203      	str	r2, [sp, #12]
 80061d8:	2b00      	cmp	r3, #0
 80061da:	bfb8      	it	lt
 80061dc:	f04f 33ff 	movlt.w	r3, #4294967295
 80061e0:	3702      	adds	r7, #2
 80061e2:	9305      	str	r3, [sp, #20]
 80061e4:	4d2e      	ldr	r5, [pc, #184]	; (80062a0 <_svfiprintf_r+0x1e0>)
 80061e6:	7839      	ldrb	r1, [r7, #0]
 80061e8:	2203      	movs	r2, #3
 80061ea:	4628      	mov	r0, r5
 80061ec:	f7fa f818 	bl	8000220 <memchr>
 80061f0:	b138      	cbz	r0, 8006202 <_svfiprintf_r+0x142>
 80061f2:	2340      	movs	r3, #64	; 0x40
 80061f4:	1b40      	subs	r0, r0, r5
 80061f6:	fa03 f000 	lsl.w	r0, r3, r0
 80061fa:	9b04      	ldr	r3, [sp, #16]
 80061fc:	4303      	orrs	r3, r0
 80061fe:	3701      	adds	r7, #1
 8006200:	9304      	str	r3, [sp, #16]
 8006202:	7839      	ldrb	r1, [r7, #0]
 8006204:	4827      	ldr	r0, [pc, #156]	; (80062a4 <_svfiprintf_r+0x1e4>)
 8006206:	f88d 1028 	strb.w	r1, [sp, #40]	; 0x28
 800620a:	2206      	movs	r2, #6
 800620c:	1c7e      	adds	r6, r7, #1
 800620e:	f7fa f807 	bl	8000220 <memchr>
 8006212:	2800      	cmp	r0, #0
 8006214:	d038      	beq.n	8006288 <_svfiprintf_r+0x1c8>
 8006216:	4b24      	ldr	r3, [pc, #144]	; (80062a8 <_svfiprintf_r+0x1e8>)
 8006218:	bb13      	cbnz	r3, 8006260 <_svfiprintf_r+0x1a0>
 800621a:	9b03      	ldr	r3, [sp, #12]
 800621c:	3307      	adds	r3, #7
 800621e:	f023 0307 	bic.w	r3, r3, #7
 8006222:	3308      	adds	r3, #8
 8006224:	9303      	str	r3, [sp, #12]
 8006226:	9b09      	ldr	r3, [sp, #36]	; 0x24
 8006228:	444b      	add	r3, r9
 800622a:	9309      	str	r3, [sp, #36]	; 0x24
 800622c:	e76d      	b.n	800610a <_svfiprintf_r+0x4a>
 800622e:	fb05 3202 	mla	r2, r5, r2, r3
 8006232:	2001      	movs	r0, #1
 8006234:	460f      	mov	r7, r1
 8006236:	e7a6      	b.n	8006186 <_svfiprintf_r+0xc6>
 8006238:	2300      	movs	r3, #0
 800623a:	3701      	adds	r7, #1
 800623c:	9305      	str	r3, [sp, #20]
 800623e:	4619      	mov	r1, r3
 8006240:	250a      	movs	r5, #10
 8006242:	4638      	mov	r0, r7
 8006244:	f810 2b01 	ldrb.w	r2, [r0], #1
 8006248:	3a30      	subs	r2, #48	; 0x30
 800624a:	2a09      	cmp	r2, #9
 800624c:	d903      	bls.n	8006256 <_svfiprintf_r+0x196>
 800624e:	2b00      	cmp	r3, #0
 8006250:	d0c8      	beq.n	80061e4 <_svfiprintf_r+0x124>
 8006252:	9105      	str	r1, [sp, #20]
 8006254:	e7c6      	b.n	80061e4 <_svfiprintf_r+0x124>
 8006256:	fb05 2101 	mla	r1, r5, r1, r2
 800625a:	2301      	movs	r3, #1
 800625c:	4607      	mov	r7, r0
 800625e:	e7f0      	b.n	8006242 <_svfiprintf_r+0x182>
 8006260:	ab03      	add	r3, sp, #12
 8006262:	9300      	str	r3, [sp, #0]
 8006264:	4622      	mov	r2, r4
 8006266:	4b11      	ldr	r3, [pc, #68]	; (80062ac <_svfiprintf_r+0x1ec>)
 8006268:	a904      	add	r1, sp, #16
 800626a:	4640      	mov	r0, r8
 800626c:	f7fe f8f0 	bl	8004450 <_printf_float>
 8006270:	f1b0 3fff 	cmp.w	r0, #4294967295
 8006274:	4681      	mov	r9, r0
 8006276:	d1d6      	bne.n	8006226 <_svfiprintf_r+0x166>
 8006278:	89a3      	ldrh	r3, [r4, #12]
 800627a:	065b      	lsls	r3, r3, #25
 800627c:	f53f af35 	bmi.w	80060ea <_svfiprintf_r+0x2a>
 8006280:	9809      	ldr	r0, [sp, #36]	; 0x24
 8006282:	b01d      	add	sp, #116	; 0x74
 8006284:	e8bd 8ff0 	ldmia.w	sp!, {r4, r5, r6, r7, r8, r9, sl, fp, pc}
 8006288:	ab03      	add	r3, sp, #12
 800628a:	9300      	str	r3, [sp, #0]
 800628c:	4622      	mov	r2, r4
 800628e:	4b07      	ldr	r3, [pc, #28]	; (80062ac <_svfiprintf_r+0x1ec>)
 8006290:	a904      	add	r1, sp, #16
 8006292:	4640      	mov	r0, r8
 8006294:	f7fe fb92 	bl	80049bc <_printf_i>
 8006298:	e7ea      	b.n	8006270 <_svfiprintf_r+0x1b0>
 800629a:	bf00      	nop
 800629c:	0800651c 	.word	0x0800651c
 80062a0:	08006522 	.word	0x08006522
 80062a4:	08006526 	.word	0x08006526
 80062a8:	08004451 	.word	0x08004451
 80062ac:	0800600d 	.word	0x0800600d

080062b0 <_sbrk_r>:
 80062b0:	b538      	push	{r3, r4, r5, lr}
 80062b2:	4c06      	ldr	r4, [pc, #24]	; (80062cc <_sbrk_r+0x1c>)
 80062b4:	2300      	movs	r3, #0
 80062b6:	4605      	mov	r5, r0
 80062b8:	4608      	mov	r0, r1
 80062ba:	6023      	str	r3, [r4, #0]
 80062bc:	f7fb faa8 	bl	8001810 <_sbrk>
 80062c0:	1c43      	adds	r3, r0, #1
 80062c2:	d102      	bne.n	80062ca <_sbrk_r+0x1a>
 80062c4:	6823      	ldr	r3, [r4, #0]
 80062c6:	b103      	cbz	r3, 80062ca <_sbrk_r+0x1a>
 80062c8:	602b      	str	r3, [r5, #0]
 80062ca:	bd38      	pop	{r3, r4, r5, pc}
 80062cc:	20013bbc 	.word	0x20013bbc

080062d0 <__ascii_mbtowc>:
 80062d0:	b082      	sub	sp, #8
 80062d2:	b901      	cbnz	r1, 80062d6 <__ascii_mbtowc+0x6>
 80062d4:	a901      	add	r1, sp, #4
 80062d6:	b142      	cbz	r2, 80062ea <__ascii_mbtowc+0x1a>
 80062d8:	b14b      	cbz	r3, 80062ee <__ascii_mbtowc+0x1e>
 80062da:	7813      	ldrb	r3, [r2, #0]
 80062dc:	600b      	str	r3, [r1, #0]
 80062de:	7812      	ldrb	r2, [r2, #0]
 80062e0:	1c10      	adds	r0, r2, #0
 80062e2:	bf18      	it	ne
 80062e4:	2001      	movne	r0, #1
 80062e6:	b002      	add	sp, #8
 80062e8:	4770      	bx	lr
 80062ea:	4610      	mov	r0, r2
 80062ec:	e7fb      	b.n	80062e6 <__ascii_mbtowc+0x16>
 80062ee:	f06f 0001 	mvn.w	r0, #1
 80062f2:	e7f8      	b.n	80062e6 <__ascii_mbtowc+0x16>

080062f4 <memmove>:
 80062f4:	4288      	cmp	r0, r1
 80062f6:	b510      	push	{r4, lr}
 80062f8:	eb01 0302 	add.w	r3, r1, r2
 80062fc:	d807      	bhi.n	800630e <memmove+0x1a>
 80062fe:	1e42      	subs	r2, r0, #1
 8006300:	4299      	cmp	r1, r3
 8006302:	d00a      	beq.n	800631a <memmove+0x26>
 8006304:	f811 4b01 	ldrb.w	r4, [r1], #1
 8006308:	f802 4f01 	strb.w	r4, [r2, #1]!
 800630c:	e7f8      	b.n	8006300 <memmove+0xc>
 800630e:	4283      	cmp	r3, r0
 8006310:	d9f5      	bls.n	80062fe <memmove+0xa>
 8006312:	1881      	adds	r1, r0, r2
 8006314:	1ad2      	subs	r2, r2, r3
 8006316:	42d3      	cmn	r3, r2
 8006318:	d100      	bne.n	800631c <memmove+0x28>
 800631a:	bd10      	pop	{r4, pc}
 800631c:	f813 4d01 	ldrb.w	r4, [r3, #-1]!
 8006320:	f801 4d01 	strb.w	r4, [r1, #-1]!
 8006324:	e7f7      	b.n	8006316 <memmove+0x22>

08006326 <__malloc_lock>:
 8006326:	4770      	bx	lr

08006328 <__malloc_unlock>:
 8006328:	4770      	bx	lr

0800632a <_realloc_r>:
 800632a:	b5f8      	push	{r3, r4, r5, r6, r7, lr}
 800632c:	4607      	mov	r7, r0
 800632e:	4614      	mov	r4, r2
 8006330:	460e      	mov	r6, r1
 8006332:	b921      	cbnz	r1, 800633e <_realloc_r+0x14>
 8006334:	4611      	mov	r1, r2
 8006336:	e8bd 40f8 	ldmia.w	sp!, {r3, r4, r5, r6, r7, lr}
 800633a:	f7ff be0d 	b.w	8005f58 <_malloc_r>
 800633e:	b922      	cbnz	r2, 800634a <_realloc_r+0x20>
 8006340:	f7ff fdbc 	bl	8005ebc <_free_r>
 8006344:	4625      	mov	r5, r4
 8006346:	4628      	mov	r0, r5
 8006348:	bdf8      	pop	{r3, r4, r5, r6, r7, pc}
 800634a:	f000 f821 	bl	8006390 <_malloc_usable_size_r>
 800634e:	42a0      	cmp	r0, r4
 8006350:	d20f      	bcs.n	8006372 <_realloc_r+0x48>
 8006352:	4621      	mov	r1, r4
 8006354:	4638      	mov	r0, r7
 8006356:	f7ff fdff 	bl	8005f58 <_malloc_r>
 800635a:	4605      	mov	r5, r0
 800635c:	2800      	cmp	r0, #0
 800635e:	d0f2      	beq.n	8006346 <_realloc_r+0x1c>
 8006360:	4631      	mov	r1, r6
 8006362:	4622      	mov	r2, r4
 8006364:	f7ff fab6 	bl	80058d4 <memcpy>
 8006368:	4631      	mov	r1, r6
 800636a:	4638      	mov	r0, r7
 800636c:	f7ff fda6 	bl	8005ebc <_free_r>
 8006370:	e7e9      	b.n	8006346 <_realloc_r+0x1c>
 8006372:	4635      	mov	r5, r6
 8006374:	e7e7      	b.n	8006346 <_realloc_r+0x1c>

08006376 <__ascii_wctomb>:
 8006376:	b149      	cbz	r1, 800638c <__ascii_wctomb+0x16>
 8006378:	2aff      	cmp	r2, #255	; 0xff
 800637a:	bf85      	ittet	hi
 800637c:	238a      	movhi	r3, #138	; 0x8a
 800637e:	6003      	strhi	r3, [r0, #0]
 8006380:	700a      	strbls	r2, [r1, #0]
 8006382:	f04f 30ff 	movhi.w	r0, #4294967295
 8006386:	bf98      	it	ls
 8006388:	2001      	movls	r0, #1
 800638a:	4770      	bx	lr
 800638c:	4608      	mov	r0, r1
 800638e:	4770      	bx	lr

08006390 <_malloc_usable_size_r>:
 8006390:	f851 3c04 	ldr.w	r3, [r1, #-4]
 8006394:	1f18      	subs	r0, r3, #4
 8006396:	2b00      	cmp	r3, #0
 8006398:	bfbc      	itt	lt
 800639a:	580b      	ldrlt	r3, [r1, r0]
 800639c:	18c0      	addlt	r0, r0, r3
 800639e:	4770      	bx	lr

080063a0 <_init>:
 80063a0:	b5f8      	push	{r3, r4, r5, r6, r7, lr}
 80063a2:	bf00      	nop
 80063a4:	bcf8      	pop	{r3, r4, r5, r6, r7}
 80063a6:	bc08      	pop	{r3}
 80063a8:	469e      	mov	lr, r3
 80063aa:	4770      	bx	lr

080063ac <_fini>:
 80063ac:	b5f8      	push	{r3, r4, r5, r6, r7, lr}
 80063ae:	bf00      	nop
 80063b0:	bcf8      	pop	{r3, r4, r5, r6, r7}
 80063b2:	bc08      	pop	{r3}
 80063b4:	469e      	mov	lr, r3
 80063b6:	4770      	bx	lr
