
ADC_F446_V2.elf:     file format elf32-littlearm

Sections:
Idx Name          Size      VMA       LMA       File off  Algn
  0 .isr_vector   000001c4  08000000  08000000  00010000  2**0
                  CONTENTS, ALLOC, LOAD, READONLY, DATA
  1 .text         0000706c  080001d0  080001d0  000101d0  2**4
                  CONTENTS, ALLOC, LOAD, READONLY, CODE
  2 .rodata       00000404  08007240  08007240  00017240  2**3
                  CONTENTS, ALLOC, LOAD, READONLY, DATA
  3 .ARM.extab    00000000  08007644  08007644  000201dc  2**0
                  CONTENTS
  4 .ARM          00000008  08007644  08007644  00017644  2**2
                  CONTENTS, ALLOC, LOAD, READONLY, DATA
  5 .preinit_array 00000000  0800764c  0800764c  000201dc  2**0
                  CONTENTS, ALLOC, LOAD, DATA
  6 .init_array   00000004  0800764c  0800764c  0001764c  2**2
                  CONTENTS, ALLOC, LOAD, DATA
  7 .fini_array   00000004  08007650  08007650  00017650  2**2
                  CONTENTS, ALLOC, LOAD, DATA
  8 .data         000001dc  20000000  08007654  00020000  2**2
                  CONTENTS, ALLOC, LOAD, DATA
  9 .bss          00013a10  200001dc  08007830  000201dc  2**2
                  ALLOC
 10 ._user_heap_stack 00000604  20013bec  08007830  00023bec  2**0
                  ALLOC
 11 .ARM.attributes 00000030  00000000  00000000  000201dc  2**0
                  CONTENTS, READONLY
 12 .debug_info   000106f2  00000000  00000000  0002020c  2**0
                  CONTENTS, READONLY, DEBUGGING, OCTETS
 13 .debug_abbrev 0000253b  00000000  00000000  000308fe  2**0
                  CONTENTS, READONLY, DEBUGGING, OCTETS
 14 .debug_aranges 00000eb0  00000000  00000000  00032e40  2**3
                  CONTENTS, READONLY, DEBUGGING, OCTETS
 15 .debug_ranges 00000dc8  00000000  00000000  00033cf0  2**3
                  CONTENTS, READONLY, DEBUGGING, OCTETS
 16 .debug_macro  000244d6  00000000  00000000  00034ab8  2**0
                  CONTENTS, READONLY, DEBUGGING, OCTETS
 17 .debug_line   0001158e  00000000  00000000  00058f8e  2**0
                  CONTENTS, READONLY, DEBUGGING, OCTETS
 18 .debug_str    000de9ac  00000000  00000000  0006a51c  2**0
                  CONTENTS, READONLY, DEBUGGING, OCTETS
 19 .comment      00000053  00000000  00000000  00148ec8  2**0
                  CONTENTS, READONLY
 20 .debug_frame  00004f3c  00000000  00000000  00148f1c  2**2
                  CONTENTS, READONLY, DEBUGGING, OCTETS

Disassembly of section .text:

080001d0 <__do_global_dtors_aux>:
 80001d0:	b510      	push	{r4, lr}
 80001d2:	4c05      	ldr	r4, [pc, #20]	; (80001e8 <__do_global_dtors_aux+0x18>)
 80001d4:	7823      	ldrb	r3, [r4, #0]
 80001d6:	b933      	cbnz	r3, 80001e6 <__do_global_dtors_aux+0x16>
 80001d8:	4b04      	ldr	r3, [pc, #16]	; (80001ec <__do_global_dtors_aux+0x1c>)
 80001da:	b113      	cbz	r3, 80001e2 <__do_global_dtors_aux+0x12>
 80001dc:	4804      	ldr	r0, [pc, #16]	; (80001f0 <__do_global_dtors_aux+0x20>)
 80001de:	f3af 8000 	nop.w
 80001e2:	2301      	movs	r3, #1
 80001e4:	7023      	strb	r3, [r4, #0]
 80001e6:	bd10      	pop	{r4, pc}
 80001e8:	200001dc 	.word	0x200001dc
 80001ec:	00000000 	.word	0x00000000
 80001f0:	08007224 	.word	0x08007224

080001f4 <frame_dummy>:
 80001f4:	b508      	push	{r3, lr}
 80001f6:	4b03      	ldr	r3, [pc, #12]	; (8000204 <frame_dummy+0x10>)
 80001f8:	b11b      	cbz	r3, 8000202 <frame_dummy+0xe>
 80001fa:	4903      	ldr	r1, [pc, #12]	; (8000208 <frame_dummy+0x14>)
 80001fc:	4803      	ldr	r0, [pc, #12]	; (800020c <frame_dummy+0x18>)
 80001fe:	f3af 8000 	nop.w
 8000202:	bd08      	pop	{r3, pc}
 8000204:	00000000 	.word	0x00000000
 8000208:	200001e0 	.word	0x200001e0
 800020c:	08007224 	.word	0x08007224

08000210 <strlen>:
 8000210:	4603      	mov	r3, r0
 8000212:	f813 2b01 	ldrb.w	r2, [r3], #1
 8000216:	2a00      	cmp	r2, #0
 8000218:	d1fb      	bne.n	8000212 <strlen+0x2>
 800021a:	1a18      	subs	r0, r3, r0
 800021c:	3801      	subs	r0, #1
 800021e:	4770      	bx	lr

08000220 <memchr>:
 8000220:	f001 01ff 	and.w	r1, r1, #255	; 0xff
 8000224:	2a10      	cmp	r2, #16
 8000226:	db2b      	blt.n	8000280 <memchr+0x60>
 8000228:	f010 0f07 	tst.w	r0, #7
 800022c:	d008      	beq.n	8000240 <memchr+0x20>
 800022e:	f810 3b01 	ldrb.w	r3, [r0], #1
 8000232:	3a01      	subs	r2, #1
 8000234:	428b      	cmp	r3, r1
 8000236:	d02d      	beq.n	8000294 <memchr+0x74>
 8000238:	f010 0f07 	tst.w	r0, #7
 800023c:	b342      	cbz	r2, 8000290 <memchr+0x70>
 800023e:	d1f6      	bne.n	800022e <memchr+0xe>
 8000240:	b4f0      	push	{r4, r5, r6, r7}
 8000242:	ea41 2101 	orr.w	r1, r1, r1, lsl #8
 8000246:	ea41 4101 	orr.w	r1, r1, r1, lsl #16
 800024a:	f022 0407 	bic.w	r4, r2, #7
 800024e:	f07f 0700 	mvns.w	r7, #0
 8000252:	2300      	movs	r3, #0
 8000254:	e8f0 5602 	ldrd	r5, r6, [r0], #8
 8000258:	3c08      	subs	r4, #8
 800025a:	ea85 0501 	eor.w	r5, r5, r1
 800025e:	ea86 0601 	eor.w	r6, r6, r1
 8000262:	fa85 f547 	uadd8	r5, r5, r7
 8000266:	faa3 f587 	sel	r5, r3, r7
 800026a:	fa86 f647 	uadd8	r6, r6, r7
 800026e:	faa5 f687 	sel	r6, r5, r7
 8000272:	b98e      	cbnz	r6, 8000298 <memchr+0x78>
 8000274:	d1ee      	bne.n	8000254 <memchr+0x34>
 8000276:	bcf0      	pop	{r4, r5, r6, r7}
 8000278:	f001 01ff 	and.w	r1, r1, #255	; 0xff
 800027c:	f002 0207 	and.w	r2, r2, #7
 8000280:	b132      	cbz	r2, 8000290 <memchr+0x70>
 8000282:	f810 3b01 	ldrb.w	r3, [r0], #1
 8000286:	3a01      	subs	r2, #1
 8000288:	ea83 0301 	eor.w	r3, r3, r1
 800028c:	b113      	cbz	r3, 8000294 <memchr+0x74>
 800028e:	d1f8      	bne.n	8000282 <memchr+0x62>
 8000290:	2000      	movs	r0, #0
 8000292:	4770      	bx	lr
 8000294:	3801      	subs	r0, #1
 8000296:	4770      	bx	lr
 8000298:	2d00      	cmp	r5, #0
 800029a:	bf06      	itte	eq
 800029c:	4635      	moveq	r5, r6
 800029e:	3803      	subeq	r0, #3
 80002a0:	3807      	subne	r0, #7
 80002a2:	f015 0f01 	tst.w	r5, #1
 80002a6:	d107      	bne.n	80002b8 <memchr+0x98>
 80002a8:	3001      	adds	r0, #1
 80002aa:	f415 7f80 	tst.w	r5, #256	; 0x100
 80002ae:	bf02      	ittt	eq
 80002b0:	3001      	addeq	r0, #1
 80002b2:	f415 3fc0 	tsteq.w	r5, #98304	; 0x18000
 80002b6:	3001      	addeq	r0, #1
 80002b8:	bcf0      	pop	{r4, r5, r6, r7}
 80002ba:	3801      	subs	r0, #1
 80002bc:	4770      	bx	lr
 80002be:	bf00      	nop

080002c0 <__aeabi_drsub>:
 80002c0:	f081 4100 	eor.w	r1, r1, #2147483648	; 0x80000000
 80002c4:	e002      	b.n	80002cc <__adddf3>
 80002c6:	bf00      	nop

080002c8 <__aeabi_dsub>:
 80002c8:	f083 4300 	eor.w	r3, r3, #2147483648	; 0x80000000

080002cc <__adddf3>:
 80002cc:	b530      	push	{r4, r5, lr}
 80002ce:	ea4f 0441 	mov.w	r4, r1, lsl #1
 80002d2:	ea4f 0543 	mov.w	r5, r3, lsl #1
 80002d6:	ea94 0f05 	teq	r4, r5
 80002da:	bf08      	it	eq
 80002dc:	ea90 0f02 	teqeq	r0, r2
 80002e0:	bf1f      	itttt	ne
 80002e2:	ea54 0c00 	orrsne.w	ip, r4, r0
 80002e6:	ea55 0c02 	orrsne.w	ip, r5, r2
 80002ea:	ea7f 5c64 	mvnsne.w	ip, r4, asr #21
 80002ee:	ea7f 5c65 	mvnsne.w	ip, r5, asr #21
 80002f2:	f000 80e2 	beq.w	80004ba <__adddf3+0x1ee>
 80002f6:	ea4f 5454 	mov.w	r4, r4, lsr #21
 80002fa:	ebd4 5555 	rsbs	r5, r4, r5, lsr #21
 80002fe:	bfb8      	it	lt
 8000300:	426d      	neglt	r5, r5
 8000302:	dd0c      	ble.n	800031e <__adddf3+0x52>
 8000304:	442c      	add	r4, r5
 8000306:	ea80 0202 	eor.w	r2, r0, r2
 800030a:	ea81 0303 	eor.w	r3, r1, r3
 800030e:	ea82 0000 	eor.w	r0, r2, r0
 8000312:	ea83 0101 	eor.w	r1, r3, r1
 8000316:	ea80 0202 	eor.w	r2, r0, r2
 800031a:	ea81 0303 	eor.w	r3, r1, r3
 800031e:	2d36      	cmp	r5, #54	; 0x36
 8000320:	bf88      	it	hi
 8000322:	bd30      	pophi	{r4, r5, pc}
 8000324:	f011 4f00 	tst.w	r1, #2147483648	; 0x80000000
 8000328:	ea4f 3101 	mov.w	r1, r1, lsl #12
 800032c:	f44f 1c80 	mov.w	ip, #1048576	; 0x100000
 8000330:	ea4c 3111 	orr.w	r1, ip, r1, lsr #12
 8000334:	d002      	beq.n	800033c <__adddf3+0x70>
 8000336:	4240      	negs	r0, r0
 8000338:	eb61 0141 	sbc.w	r1, r1, r1, lsl #1
 800033c:	f013 4f00 	tst.w	r3, #2147483648	; 0x80000000
 8000340:	ea4f 3303 	mov.w	r3, r3, lsl #12
 8000344:	ea4c 3313 	orr.w	r3, ip, r3, lsr #12
 8000348:	d002      	beq.n	8000350 <__adddf3+0x84>
 800034a:	4252      	negs	r2, r2
 800034c:	eb63 0343 	sbc.w	r3, r3, r3, lsl #1
 8000350:	ea94 0f05 	teq	r4, r5
 8000354:	f000 80a7 	beq.w	80004a6 <__adddf3+0x1da>
 8000358:	f1a4 0401 	sub.w	r4, r4, #1
 800035c:	f1d5 0e20 	rsbs	lr, r5, #32
 8000360:	db0d      	blt.n	800037e <__adddf3+0xb2>
 8000362:	fa02 fc0e 	lsl.w	ip, r2, lr
 8000366:	fa22 f205 	lsr.w	r2, r2, r5
 800036a:	1880      	adds	r0, r0, r2
 800036c:	f141 0100 	adc.w	r1, r1, #0
 8000370:	fa03 f20e 	lsl.w	r2, r3, lr
 8000374:	1880      	adds	r0, r0, r2
 8000376:	fa43 f305 	asr.w	r3, r3, r5
 800037a:	4159      	adcs	r1, r3
 800037c:	e00e      	b.n	800039c <__adddf3+0xd0>
 800037e:	f1a5 0520 	sub.w	r5, r5, #32
 8000382:	f10e 0e20 	add.w	lr, lr, #32
 8000386:	2a01      	cmp	r2, #1
 8000388:	fa03 fc0e 	lsl.w	ip, r3, lr
 800038c:	bf28      	it	cs
 800038e:	f04c 0c02 	orrcs.w	ip, ip, #2
 8000392:	fa43 f305 	asr.w	r3, r3, r5
 8000396:	18c0      	adds	r0, r0, r3
 8000398:	eb51 71e3 	adcs.w	r1, r1, r3, asr #31
 800039c:	f001 4500 	and.w	r5, r1, #2147483648	; 0x80000000
 80003a0:	d507      	bpl.n	80003b2 <__adddf3+0xe6>
 80003a2:	f04f 0e00 	mov.w	lr, #0
 80003a6:	f1dc 0c00 	rsbs	ip, ip, #0
 80003aa:	eb7e 0000 	sbcs.w	r0, lr, r0
 80003ae:	eb6e 0101 	sbc.w	r1, lr, r1
 80003b2:	f5b1 1f80 	cmp.w	r1, #1048576	; 0x100000
 80003b6:	d31b      	bcc.n	80003f0 <__adddf3+0x124>
 80003b8:	f5b1 1f00 	cmp.w	r1, #2097152	; 0x200000
 80003bc:	d30c      	bcc.n	80003d8 <__adddf3+0x10c>
 80003be:	0849      	lsrs	r1, r1, #1
 80003c0:	ea5f 0030 	movs.w	r0, r0, rrx
 80003c4:	ea4f 0c3c 	mov.w	ip, ip, rrx
 80003c8:	f104 0401 	add.w	r4, r4, #1
 80003cc:	ea4f 5244 	mov.w	r2, r4, lsl #21
 80003d0:	f512 0f80 	cmn.w	r2, #4194304	; 0x400000
 80003d4:	f080 809a 	bcs.w	800050c <__adddf3+0x240>
 80003d8:	f1bc 4f00 	cmp.w	ip, #2147483648	; 0x80000000
 80003dc:	bf08      	it	eq
 80003de:	ea5f 0c50 	movseq.w	ip, r0, lsr #1
 80003e2:	f150 0000 	adcs.w	r0, r0, #0
 80003e6:	eb41 5104 	adc.w	r1, r1, r4, lsl #20
 80003ea:	ea41 0105 	orr.w	r1, r1, r5
 80003ee:	bd30      	pop	{r4, r5, pc}
 80003f0:	ea5f 0c4c 	movs.w	ip, ip, lsl #1
 80003f4:	4140      	adcs	r0, r0
 80003f6:	eb41 0101 	adc.w	r1, r1, r1
 80003fa:	3c01      	subs	r4, #1
 80003fc:	bf28      	it	cs
 80003fe:	f5b1 1f80 	cmpcs.w	r1, #1048576	; 0x100000
 8000402:	d2e9      	bcs.n	80003d8 <__adddf3+0x10c>
 8000404:	f091 0f00 	teq	r1, #0
 8000408:	bf04      	itt	eq
 800040a:	4601      	moveq	r1, r0
 800040c:	2000      	moveq	r0, #0
 800040e:	fab1 f381 	clz	r3, r1
 8000412:	bf08      	it	eq
 8000414:	3320      	addeq	r3, #32
 8000416:	f1a3 030b 	sub.w	r3, r3, #11
 800041a:	f1b3 0220 	subs.w	r2, r3, #32
 800041e:	da0c      	bge.n	800043a <__adddf3+0x16e>
 8000420:	320c      	adds	r2, #12
 8000422:	dd08      	ble.n	8000436 <__adddf3+0x16a>
 8000424:	f102 0c14 	add.w	ip, r2, #20
 8000428:	f1c2 020c 	rsb	r2, r2, #12
 800042c:	fa01 f00c 	lsl.w	r0, r1, ip
 8000430:	fa21 f102 	lsr.w	r1, r1, r2
 8000434:	e00c      	b.n	8000450 <__adddf3+0x184>
 8000436:	f102 0214 	add.w	r2, r2, #20
 800043a:	bfd8      	it	le
 800043c:	f1c2 0c20 	rsble	ip, r2, #32
 8000440:	fa01 f102 	lsl.w	r1, r1, r2
 8000444:	fa20 fc0c 	lsr.w	ip, r0, ip
 8000448:	bfdc      	itt	le
 800044a:	ea41 010c 	orrle.w	r1, r1, ip
 800044e:	4090      	lslle	r0, r2
 8000450:	1ae4      	subs	r4, r4, r3
 8000452:	bfa2      	ittt	ge
 8000454:	eb01 5104 	addge.w	r1, r1, r4, lsl #20
 8000458:	4329      	orrge	r1, r5
 800045a:	bd30      	popge	{r4, r5, pc}
 800045c:	ea6f 0404 	mvn.w	r4, r4
 8000460:	3c1f      	subs	r4, #31
 8000462:	da1c      	bge.n	800049e <__adddf3+0x1d2>
 8000464:	340c      	adds	r4, #12
 8000466:	dc0e      	bgt.n	8000486 <__adddf3+0x1ba>
 8000468:	f104 0414 	add.w	r4, r4, #20
 800046c:	f1c4 0220 	rsb	r2, r4, #32
 8000470:	fa20 f004 	lsr.w	r0, r0, r4
 8000474:	fa01 f302 	lsl.w	r3, r1, r2
 8000478:	ea40 0003 	orr.w	r0, r0, r3
 800047c:	fa21 f304 	lsr.w	r3, r1, r4
 8000480:	ea45 0103 	orr.w	r1, r5, r3
 8000484:	bd30      	pop	{r4, r5, pc}
 8000486:	f1c4 040c 	rsb	r4, r4, #12
 800048a:	f1c4 0220 	rsb	r2, r4, #32
 800048e:	fa20 f002 	lsr.w	r0, r0, r2
 8000492:	fa01 f304 	lsl.w	r3, r1, r4
 8000496:	ea40 0003 	orr.w	r0, r0, r3
 800049a:	4629      	mov	r1, r5
 800049c:	bd30      	pop	{r4, r5, pc}
 800049e:	fa21 f004 	lsr.w	r0, r1, r4
 80004a2:	4629      	mov	r1, r5
 80004a4:	bd30      	pop	{r4, r5, pc}
 80004a6:	f094 0f00 	teq	r4, #0
 80004aa:	f483 1380 	eor.w	r3, r3, #1048576	; 0x100000
 80004ae:	bf06      	itte	eq
 80004b0:	f481 1180 	eoreq.w	r1, r1, #1048576	; 0x100000
 80004b4:	3401      	addeq	r4, #1
 80004b6:	3d01      	subne	r5, #1
 80004b8:	e74e      	b.n	8000358 <__adddf3+0x8c>
 80004ba:	ea7f 5c64 	mvns.w	ip, r4, asr #21
 80004be:	bf18      	it	ne
 80004c0:	ea7f 5c65 	mvnsne.w	ip, r5, asr #21
 80004c4:	d029      	beq.n	800051a <__adddf3+0x24e>
 80004c6:	ea94 0f05 	teq	r4, r5
 80004ca:	bf08      	it	eq
 80004cc:	ea90 0f02 	teqeq	r0, r2
 80004d0:	d005      	beq.n	80004de <__adddf3+0x212>
 80004d2:	ea54 0c00 	orrs.w	ip, r4, r0
 80004d6:	bf04      	itt	eq
 80004d8:	4619      	moveq	r1, r3
 80004da:	4610      	moveq	r0, r2
 80004dc:	bd30      	pop	{r4, r5, pc}
 80004de:	ea91 0f03 	teq	r1, r3
 80004e2:	bf1e      	ittt	ne
 80004e4:	2100      	movne	r1, #0
 80004e6:	2000      	movne	r0, #0
 80004e8:	bd30      	popne	{r4, r5, pc}
 80004ea:	ea5f 5c54 	movs.w	ip, r4, lsr #21
 80004ee:	d105      	bne.n	80004fc <__adddf3+0x230>
 80004f0:	0040      	lsls	r0, r0, #1
 80004f2:	4149      	adcs	r1, r1
 80004f4:	bf28      	it	cs
 80004f6:	f041 4100 	orrcs.w	r1, r1, #2147483648	; 0x80000000
 80004fa:	bd30      	pop	{r4, r5, pc}
 80004fc:	f514 0480 	adds.w	r4, r4, #4194304	; 0x400000
 8000500:	bf3c      	itt	cc
 8000502:	f501 1180 	addcc.w	r1, r1, #1048576	; 0x100000
 8000506:	bd30      	popcc	{r4, r5, pc}
 8000508:	f001 4500 	and.w	r5, r1, #2147483648	; 0x80000000
 800050c:	f045 41fe 	orr.w	r1, r5, #2130706432	; 0x7f000000
 8000510:	f441 0170 	orr.w	r1, r1, #15728640	; 0xf00000
 8000514:	f04f 0000 	mov.w	r0, #0
 8000518:	bd30      	pop	{r4, r5, pc}
 800051a:	ea7f 5c64 	mvns.w	ip, r4, asr #21
 800051e:	bf1a      	itte	ne
 8000520:	4619      	movne	r1, r3
 8000522:	4610      	movne	r0, r2
 8000524:	ea7f 5c65 	mvnseq.w	ip, r5, asr #21
 8000528:	bf1c      	itt	ne
 800052a:	460b      	movne	r3, r1
 800052c:	4602      	movne	r2, r0
 800052e:	ea50 3401 	orrs.w	r4, r0, r1, lsl #12
 8000532:	bf06      	itte	eq
 8000534:	ea52 3503 	orrseq.w	r5, r2, r3, lsl #12
 8000538:	ea91 0f03 	teqeq	r1, r3
 800053c:	f441 2100 	orrne.w	r1, r1, #524288	; 0x80000
 8000540:	bd30      	pop	{r4, r5, pc}
 8000542:	bf00      	nop

08000544 <__aeabi_ui2d>:
 8000544:	f090 0f00 	teq	r0, #0
 8000548:	bf04      	itt	eq
 800054a:	2100      	moveq	r1, #0
 800054c:	4770      	bxeq	lr
 800054e:	b530      	push	{r4, r5, lr}
 8000550:	f44f 6480 	mov.w	r4, #1024	; 0x400
 8000554:	f104 0432 	add.w	r4, r4, #50	; 0x32
 8000558:	f04f 0500 	mov.w	r5, #0
 800055c:	f04f 0100 	mov.w	r1, #0
 8000560:	e750      	b.n	8000404 <__adddf3+0x138>
 8000562:	bf00      	nop

08000564 <__aeabi_i2d>:
 8000564:	f090 0f00 	teq	r0, #0
 8000568:	bf04      	itt	eq
 800056a:	2100      	moveq	r1, #0
 800056c:	4770      	bxeq	lr
 800056e:	b530      	push	{r4, r5, lr}
 8000570:	f44f 6480 	mov.w	r4, #1024	; 0x400
 8000574:	f104 0432 	add.w	r4, r4, #50	; 0x32
 8000578:	f010 4500 	ands.w	r5, r0, #2147483648	; 0x80000000
 800057c:	bf48      	it	mi
 800057e:	4240      	negmi	r0, r0
 8000580:	f04f 0100 	mov.w	r1, #0
 8000584:	e73e      	b.n	8000404 <__adddf3+0x138>
 8000586:	bf00      	nop

08000588 <__aeabi_f2d>:
 8000588:	0042      	lsls	r2, r0, #1
 800058a:	ea4f 01e2 	mov.w	r1, r2, asr #3
 800058e:	ea4f 0131 	mov.w	r1, r1, rrx
 8000592:	ea4f 7002 	mov.w	r0, r2, lsl #28
 8000596:	bf1f      	itttt	ne
 8000598:	f012 437f 	andsne.w	r3, r2, #4278190080	; 0xff000000
 800059c:	f093 4f7f 	teqne	r3, #4278190080	; 0xff000000
 80005a0:	f081 5160 	eorne.w	r1, r1, #939524096	; 0x38000000
 80005a4:	4770      	bxne	lr
 80005a6:	f032 427f 	bics.w	r2, r2, #4278190080	; 0xff000000
 80005aa:	bf08      	it	eq
 80005ac:	4770      	bxeq	lr
 80005ae:	f093 4f7f 	teq	r3, #4278190080	; 0xff000000
 80005b2:	bf04      	itt	eq
 80005b4:	f441 2100 	orreq.w	r1, r1, #524288	; 0x80000
 80005b8:	4770      	bxeq	lr
 80005ba:	b530      	push	{r4, r5, lr}
 80005bc:	f44f 7460 	mov.w	r4, #896	; 0x380
 80005c0:	f001 4500 	and.w	r5, r1, #2147483648	; 0x80000000
 80005c4:	f021 4100 	bic.w	r1, r1, #2147483648	; 0x80000000
 80005c8:	e71c      	b.n	8000404 <__adddf3+0x138>
 80005ca:	bf00      	nop

080005cc <__aeabi_ul2d>:
 80005cc:	ea50 0201 	orrs.w	r2, r0, r1
 80005d0:	bf08      	it	eq
 80005d2:	4770      	bxeq	lr
 80005d4:	b530      	push	{r4, r5, lr}
 80005d6:	f04f 0500 	mov.w	r5, #0
 80005da:	e00a      	b.n	80005f2 <__aeabi_l2d+0x16>

080005dc <__aeabi_l2d>:
 80005dc:	ea50 0201 	orrs.w	r2, r0, r1
 80005e0:	bf08      	it	eq
 80005e2:	4770      	bxeq	lr
 80005e4:	b530      	push	{r4, r5, lr}
 80005e6:	f011 4500 	ands.w	r5, r1, #2147483648	; 0x80000000
 80005ea:	d502      	bpl.n	80005f2 <__aeabi_l2d+0x16>
 80005ec:	4240      	negs	r0, r0
 80005ee:	eb61 0141 	sbc.w	r1, r1, r1, lsl #1
 80005f2:	f44f 6480 	mov.w	r4, #1024	; 0x400
 80005f6:	f104 0432 	add.w	r4, r4, #50	; 0x32
 80005fa:	ea5f 5c91 	movs.w	ip, r1, lsr #22
 80005fe:	f43f aed8 	beq.w	80003b2 <__adddf3+0xe6>
 8000602:	f04f 0203 	mov.w	r2, #3
 8000606:	ea5f 0cdc 	movs.w	ip, ip, lsr #3
 800060a:	bf18      	it	ne
 800060c:	3203      	addne	r2, #3
 800060e:	ea5f 0cdc 	movs.w	ip, ip, lsr #3
 8000612:	bf18      	it	ne
 8000614:	3203      	addne	r2, #3
 8000616:	eb02 02dc 	add.w	r2, r2, ip, lsr #3
 800061a:	f1c2 0320 	rsb	r3, r2, #32
 800061e:	fa00 fc03 	lsl.w	ip, r0, r3
 8000622:	fa20 f002 	lsr.w	r0, r0, r2
 8000626:	fa01 fe03 	lsl.w	lr, r1, r3
 800062a:	ea40 000e 	orr.w	r0, r0, lr
 800062e:	fa21 f102 	lsr.w	r1, r1, r2
 8000632:	4414      	add	r4, r2
 8000634:	e6bd      	b.n	80003b2 <__adddf3+0xe6>
 8000636:	bf00      	nop

08000638 <__aeabi_dmul>:
 8000638:	b570      	push	{r4, r5, r6, lr}
 800063a:	f04f 0cff 	mov.w	ip, #255	; 0xff
 800063e:	f44c 6ce0 	orr.w	ip, ip, #1792	; 0x700
 8000642:	ea1c 5411 	ands.w	r4, ip, r1, lsr #20
 8000646:	bf1d      	ittte	ne
 8000648:	ea1c 5513 	andsne.w	r5, ip, r3, lsr #20
 800064c:	ea94 0f0c 	teqne	r4, ip
 8000650:	ea95 0f0c 	teqne	r5, ip
 8000654:	f000 f8de 	bleq	8000814 <__aeabi_dmul+0x1dc>
 8000658:	442c      	add	r4, r5
 800065a:	ea81 0603 	eor.w	r6, r1, r3
 800065e:	ea21 514c 	bic.w	r1, r1, ip, lsl #21
 8000662:	ea23 534c 	bic.w	r3, r3, ip, lsl #21
 8000666:	ea50 3501 	orrs.w	r5, r0, r1, lsl #12
 800066a:	bf18      	it	ne
 800066c:	ea52 3503 	orrsne.w	r5, r2, r3, lsl #12
 8000670:	f441 1180 	orr.w	r1, r1, #1048576	; 0x100000
 8000674:	f443 1380 	orr.w	r3, r3, #1048576	; 0x100000
 8000678:	d038      	beq.n	80006ec <__aeabi_dmul+0xb4>
 800067a:	fba0 ce02 	umull	ip, lr, r0, r2
 800067e:	f04f 0500 	mov.w	r5, #0
 8000682:	fbe1 e502 	umlal	lr, r5, r1, r2
 8000686:	f006 4200 	and.w	r2, r6, #2147483648	; 0x80000000
 800068a:	fbe0 e503 	umlal	lr, r5, r0, r3
 800068e:	f04f 0600 	mov.w	r6, #0
 8000692:	fbe1 5603 	umlal	r5, r6, r1, r3
 8000696:	f09c 0f00 	teq	ip, #0
 800069a:	bf18      	it	ne
 800069c:	f04e 0e01 	orrne.w	lr, lr, #1
 80006a0:	f1a4 04ff 	sub.w	r4, r4, #255	; 0xff
 80006a4:	f5b6 7f00 	cmp.w	r6, #512	; 0x200
 80006a8:	f564 7440 	sbc.w	r4, r4, #768	; 0x300
 80006ac:	d204      	bcs.n	80006b8 <__aeabi_dmul+0x80>
 80006ae:	ea5f 0e4e 	movs.w	lr, lr, lsl #1
 80006b2:	416d      	adcs	r5, r5
 80006b4:	eb46 0606 	adc.w	r6, r6, r6
 80006b8:	ea42 21c6 	orr.w	r1, r2, r6, lsl #11
 80006bc:	ea41 5155 	orr.w	r1, r1, r5, lsr #21
 80006c0:	ea4f 20c5 	mov.w	r0, r5, lsl #11
 80006c4:	ea40 505e 	orr.w	r0, r0, lr, lsr #21
 80006c8:	ea4f 2ece 	mov.w	lr, lr, lsl #11
 80006cc:	f1b4 0cfd 	subs.w	ip, r4, #253	; 0xfd
 80006d0:	bf88      	it	hi
 80006d2:	f5bc 6fe0 	cmphi.w	ip, #1792	; 0x700
 80006d6:	d81e      	bhi.n	8000716 <__aeabi_dmul+0xde>
 80006d8:	f1be 4f00 	cmp.w	lr, #2147483648	; 0x80000000
 80006dc:	bf08      	it	eq
 80006de:	ea5f 0e50 	movseq.w	lr, r0, lsr #1
 80006e2:	f150 0000 	adcs.w	r0, r0, #0
 80006e6:	eb41 5104 	adc.w	r1, r1, r4, lsl #20
 80006ea:	bd70      	pop	{r4, r5, r6, pc}
 80006ec:	f006 4600 	and.w	r6, r6, #2147483648	; 0x80000000
 80006f0:	ea46 0101 	orr.w	r1, r6, r1
 80006f4:	ea40 0002 	orr.w	r0, r0, r2
 80006f8:	ea81 0103 	eor.w	r1, r1, r3
 80006fc:	ebb4 045c 	subs.w	r4, r4, ip, lsr #1
 8000700:	bfc2      	ittt	gt
 8000702:	ebd4 050c 	rsbsgt	r5, r4, ip
 8000706:	ea41 5104 	orrgt.w	r1, r1, r4, lsl #20
 800070a:	bd70      	popgt	{r4, r5, r6, pc}
 800070c:	f441 1180 	orr.w	r1, r1, #1048576	; 0x100000
 8000710:	f04f 0e00 	mov.w	lr, #0
 8000714:	3c01      	subs	r4, #1
 8000716:	f300 80ab 	bgt.w	8000870 <__aeabi_dmul+0x238>
 800071a:	f114 0f36 	cmn.w	r4, #54	; 0x36
 800071e:	bfde      	ittt	le
 8000720:	2000      	movle	r0, #0
 8000722:	f001 4100 	andle.w	r1, r1, #2147483648	; 0x80000000
 8000726:	bd70      	pople	{r4, r5, r6, pc}
 8000728:	f1c4 0400 	rsb	r4, r4, #0
 800072c:	3c20      	subs	r4, #32
 800072e:	da35      	bge.n	800079c <__aeabi_dmul+0x164>
 8000730:	340c      	adds	r4, #12
 8000732:	dc1b      	bgt.n	800076c <__aeabi_dmul+0x134>
 8000734:	f104 0414 	add.w	r4, r4, #20
 8000738:	f1c4 0520 	rsb	r5, r4, #32
 800073c:	fa00 f305 	lsl.w	r3, r0, r5
 8000740:	fa20 f004 	lsr.w	r0, r0, r4
 8000744:	fa01 f205 	lsl.w	r2, r1, r5
 8000748:	ea40 0002 	orr.w	r0, r0, r2
 800074c:	f001 4200 	and.w	r2, r1, #2147483648	; 0x80000000
 8000750:	f021 4100 	bic.w	r1, r1, #2147483648	; 0x80000000
 8000754:	eb10 70d3 	adds.w	r0, r0, r3, lsr #31
 8000758:	fa21 f604 	lsr.w	r6, r1, r4
 800075c:	eb42 0106 	adc.w	r1, r2, r6
 8000760:	ea5e 0e43 	orrs.w	lr, lr, r3, lsl #1
 8000764:	bf08      	it	eq
 8000766:	ea20 70d3 	biceq.w	r0, r0, r3, lsr #31
 800076a:	bd70      	pop	{r4, r5, r6, pc}
 800076c:	f1c4 040c 	rsb	r4, r4, #12
 8000770:	f1c4 0520 	rsb	r5, r4, #32
 8000774:	fa00 f304 	lsl.w	r3, r0, r4
 8000778:	fa20 f005 	lsr.w	r0, r0, r5
 800077c:	fa01 f204 	lsl.w	r2, r1, r4
 8000780:	ea40 0002 	orr.w	r0, r0, r2
 8000784:	f001 4100 	and.w	r1, r1, #2147483648	; 0x80000000
 8000788:	eb10 70d3 	adds.w	r0, r0, r3, lsr #31
 800078c:	f141 0100 	adc.w	r1, r1, #0
 8000790:	ea5e 0e43 	orrs.w	lr, lr, r3, lsl #1
 8000794:	bf08      	it	eq
 8000796:	ea20 70d3 	biceq.w	r0, r0, r3, lsr #31
 800079a:	bd70      	pop	{r4, r5, r6, pc}
 800079c:	f1c4 0520 	rsb	r5, r4, #32
 80007a0:	fa00 f205 	lsl.w	r2, r0, r5
 80007a4:	ea4e 0e02 	orr.w	lr, lr, r2
 80007a8:	fa20 f304 	lsr.w	r3, r0, r4
 80007ac:	fa01 f205 	lsl.w	r2, r1, r5
 80007b0:	ea43 0302 	orr.w	r3, r3, r2
 80007b4:	fa21 f004 	lsr.w	r0, r1, r4
 80007b8:	f001 4100 	and.w	r1, r1, #2147483648	; 0x80000000
 80007bc:	fa21 f204 	lsr.w	r2, r1, r4
 80007c0:	ea20 0002 	bic.w	r0, r0, r2
 80007c4:	eb00 70d3 	add.w	r0, r0, r3, lsr #31
 80007c8:	ea5e 0e43 	orrs.w	lr, lr, r3, lsl #1
 80007cc:	bf08      	it	eq
 80007ce:	ea20 70d3 	biceq.w	r0, r0, r3, lsr #31
 80007d2:	bd70      	pop	{r4, r5, r6, pc}
 80007d4:	f094 0f00 	teq	r4, #0
 80007d8:	d10f      	bne.n	80007fa <__aeabi_dmul+0x1c2>
 80007da:	f001 4600 	and.w	r6, r1, #2147483648	; 0x80000000
 80007de:	0040      	lsls	r0, r0, #1
 80007e0:	eb41 0101 	adc.w	r1, r1, r1
 80007e4:	f411 1f80 	tst.w	r1, #1048576	; 0x100000
 80007e8:	bf08      	it	eq
 80007ea:	3c01      	subeq	r4, #1
 80007ec:	d0f7      	beq.n	80007de <__aeabi_dmul+0x1a6>
 80007ee:	ea41 0106 	orr.w	r1, r1, r6
 80007f2:	f095 0f00 	teq	r5, #0
 80007f6:	bf18      	it	ne
 80007f8:	4770      	bxne	lr
 80007fa:	f003 4600 	and.w	r6, r3, #2147483648	; 0x80000000
 80007fe:	0052      	lsls	r2, r2, #1
 8000800:	eb43 0303 	adc.w	r3, r3, r3
 8000804:	f413 1f80 	tst.w	r3, #1048576	; 0x100000
 8000808:	bf08      	it	eq
 800080a:	3d01      	subeq	r5, #1
 800080c:	d0f7      	beq.n	80007fe <__aeabi_dmul+0x1c6>
 800080e:	ea43 0306 	orr.w	r3, r3, r6
 8000812:	4770      	bx	lr
 8000814:	ea94 0f0c 	teq	r4, ip
 8000818:	ea0c 5513 	and.w	r5, ip, r3, lsr #20
 800081c:	bf18      	it	ne
 800081e:	ea95 0f0c 	teqne	r5, ip
 8000822:	d00c      	beq.n	800083e <__aeabi_dmul+0x206>
 8000824:	ea50 0641 	orrs.w	r6, r0, r1, lsl #1
 8000828:	bf18      	it	ne
 800082a:	ea52 0643 	orrsne.w	r6, r2, r3, lsl #1
 800082e:	d1d1      	bne.n	80007d4 <__aeabi_dmul+0x19c>
 8000830:	ea81 0103 	eor.w	r1, r1, r3
 8000834:	f001 4100 	and.w	r1, r1, #2147483648	; 0x80000000
 8000838:	f04f 0000 	mov.w	r0, #0
 800083c:	bd70      	pop	{r4, r5, r6, pc}
 800083e:	ea50 0641 	orrs.w	r6, r0, r1, lsl #1
 8000842:	bf06      	itte	eq
 8000844:	4610      	moveq	r0, r2
 8000846:	4619      	moveq	r1, r3
 8000848:	ea52 0643 	orrsne.w	r6, r2, r3, lsl #1
 800084c:	d019      	beq.n	8000882 <__aeabi_dmul+0x24a>
 800084e:	ea94 0f0c 	teq	r4, ip
 8000852:	d102      	bne.n	800085a <__aeabi_dmul+0x222>
 8000854:	ea50 3601 	orrs.w	r6, r0, r1, lsl #12
 8000858:	d113      	bne.n	8000882 <__aeabi_dmul+0x24a>
 800085a:	ea95 0f0c 	teq	r5, ip
 800085e:	d105      	bne.n	800086c <__aeabi_dmul+0x234>
 8000860:	ea52 3603 	orrs.w	r6, r2, r3, lsl #12
 8000864:	bf1c      	itt	ne
 8000866:	4610      	movne	r0, r2
 8000868:	4619      	movne	r1, r3
 800086a:	d10a      	bne.n	8000882 <__aeabi_dmul+0x24a>
 800086c:	ea81 0103 	eor.w	r1, r1, r3
 8000870:	f001 4100 	and.w	r1, r1, #2147483648	; 0x80000000
 8000874:	f041 41fe 	orr.w	r1, r1, #2130706432	; 0x7f000000
 8000878:	f441 0170 	orr.w	r1, r1, #15728640	; 0xf00000
 800087c:	f04f 0000 	mov.w	r0, #0
 8000880:	bd70      	pop	{r4, r5, r6, pc}
 8000882:	f041 41fe 	orr.w	r1, r1, #2130706432	; 0x7f000000
 8000886:	f441 0178 	orr.w	r1, r1, #16252928	; 0xf80000
 800088a:	bd70      	pop	{r4, r5, r6, pc}

0800088c <__aeabi_ddiv>:
 800088c:	b570      	push	{r4, r5, r6, lr}
 800088e:	f04f 0cff 	mov.w	ip, #255	; 0xff
 8000892:	f44c 6ce0 	orr.w	ip, ip, #1792	; 0x700
 8000896:	ea1c 5411 	ands.w	r4, ip, r1, lsr #20
 800089a:	bf1d      	ittte	ne
 800089c:	ea1c 5513 	andsne.w	r5, ip, r3, lsr #20
 80008a0:	ea94 0f0c 	teqne	r4, ip
 80008a4:	ea95 0f0c 	teqne	r5, ip
 80008a8:	f000 f8a7 	bleq	80009fa <__aeabi_ddiv+0x16e>
 80008ac:	eba4 0405 	sub.w	r4, r4, r5
 80008b0:	ea81 0e03 	eor.w	lr, r1, r3
 80008b4:	ea52 3503 	orrs.w	r5, r2, r3, lsl #12
 80008b8:	ea4f 3101 	mov.w	r1, r1, lsl #12
 80008bc:	f000 8088 	beq.w	80009d0 <__aeabi_ddiv+0x144>
 80008c0:	ea4f 3303 	mov.w	r3, r3, lsl #12
 80008c4:	f04f 5580 	mov.w	r5, #268435456	; 0x10000000
 80008c8:	ea45 1313 	orr.w	r3, r5, r3, lsr #4
 80008cc:	ea43 6312 	orr.w	r3, r3, r2, lsr #24
 80008d0:	ea4f 2202 	mov.w	r2, r2, lsl #8
 80008d4:	ea45 1511 	orr.w	r5, r5, r1, lsr #4
 80008d8:	ea45 6510 	orr.w	r5, r5, r0, lsr #24
 80008dc:	ea4f 2600 	mov.w	r6, r0, lsl #8
 80008e0:	f00e 4100 	and.w	r1, lr, #2147483648	; 0x80000000
 80008e4:	429d      	cmp	r5, r3
 80008e6:	bf08      	it	eq
 80008e8:	4296      	cmpeq	r6, r2
 80008ea:	f144 04fd 	adc.w	r4, r4, #253	; 0xfd
 80008ee:	f504 7440 	add.w	r4, r4, #768	; 0x300
 80008f2:	d202      	bcs.n	80008fa <__aeabi_ddiv+0x6e>
 80008f4:	085b      	lsrs	r3, r3, #1
 80008f6:	ea4f 0232 	mov.w	r2, r2, rrx
 80008fa:	1ab6      	subs	r6, r6, r2
 80008fc:	eb65 0503 	sbc.w	r5, r5, r3
 8000900:	085b      	lsrs	r3, r3, #1
 8000902:	ea4f 0232 	mov.w	r2, r2, rrx
 8000906:	f44f 1080 	mov.w	r0, #1048576	; 0x100000
 800090a:	f44f 2c00 	mov.w	ip, #524288	; 0x80000
 800090e:	ebb6 0e02 	subs.w	lr, r6, r2
 8000912:	eb75 0e03 	sbcs.w	lr, r5, r3
 8000916:	bf22      	ittt	cs
 8000918:	1ab6      	subcs	r6, r6, r2
 800091a:	4675      	movcs	r5, lr
 800091c:	ea40 000c 	orrcs.w	r0, r0, ip
 8000920:	085b      	lsrs	r3, r3, #1
 8000922:	ea4f 0232 	mov.w	r2, r2, rrx
 8000926:	ebb6 0e02 	subs.w	lr, r6, r2
 800092a:	eb75 0e03 	sbcs.w	lr, r5, r3
 800092e:	bf22      	ittt	cs
 8000930:	1ab6      	subcs	r6, r6, r2
 8000932:	4675      	movcs	r5, lr
 8000934:	ea40 005c 	orrcs.w	r0, r0, ip, lsr #1
 8000938:	085b      	lsrs	r3, r3, #1
 800093a:	ea4f 0232 	mov.w	r2, r2, rrx
 800093e:	ebb6 0e02 	subs.w	lr, r6, r2
 8000942:	eb75 0e03 	sbcs.w	lr, r5, r3
 8000946:	bf22      	ittt	cs
 8000948:	1ab6      	subcs	r6, r6, r2
 800094a:	4675      	movcs	r5, lr
 800094c:	ea40 009c 	orrcs.w	r0, r0, ip, lsr #2
 8000950:	085b      	lsrs	r3, r3, #1
 8000952:	ea4f 0232 	mov.w	r2, r2, rrx
 8000956:	ebb6 0e02 	subs.w	lr, r6, r2
 800095a:	eb75 0e03 	sbcs.w	lr, r5, r3
 800095e:	bf22      	ittt	cs
 8000960:	1ab6      	subcs	r6, r6, r2
 8000962:	4675      	movcs	r5, lr
 8000964:	ea40 00dc 	orrcs.w	r0, r0, ip, lsr #3
 8000968:	ea55 0e06 	orrs.w	lr, r5, r6
 800096c:	d018      	beq.n	80009a0 <__aeabi_ddiv+0x114>
 800096e:	ea4f 1505 	mov.w	r5, r5, lsl #4
 8000972:	ea45 7516 	orr.w	r5, r5, r6, lsr #28
 8000976:	ea4f 1606 	mov.w	r6, r6, lsl #4
 800097a:	ea4f 03c3 	mov.w	r3, r3, lsl #3
 800097e:	ea43 7352 	orr.w	r3, r3, r2, lsr #29
 8000982:	ea4f 02c2 	mov.w	r2, r2, lsl #3
 8000986:	ea5f 1c1c 	movs.w	ip, ip, lsr #4
 800098a:	d1c0      	bne.n	800090e <__aeabi_ddiv+0x82>
 800098c:	f411 1f80 	tst.w	r1, #1048576	; 0x100000
 8000990:	d10b      	bne.n	80009aa <__aeabi_ddiv+0x11e>
 8000992:	ea41 0100 	orr.w	r1, r1, r0
 8000996:	f04f 0000 	mov.w	r0, #0
 800099a:	f04f 4c00 	mov.w	ip, #2147483648	; 0x80000000
 800099e:	e7b6      	b.n	800090e <__aeabi_ddiv+0x82>
 80009a0:	f411 1f80 	tst.w	r1, #1048576	; 0x100000
 80009a4:	bf04      	itt	eq
 80009a6:	4301      	orreq	r1, r0
 80009a8:	2000      	moveq	r0, #0
 80009aa:	f1b4 0cfd 	subs.w	ip, r4, #253	; 0xfd
 80009ae:	bf88      	it	hi
 80009b0:	f5bc 6fe0 	cmphi.w	ip, #1792	; 0x700
 80009b4:	f63f aeaf 	bhi.w	8000716 <__aeabi_dmul+0xde>
 80009b8:	ebb5 0c03 	subs.w	ip, r5, r3
 80009bc:	bf04      	itt	eq
 80009be:	ebb6 0c02 	subseq.w	ip, r6, r2
 80009c2:	ea5f 0c50 	movseq.w	ip, r0, lsr #1
 80009c6:	f150 0000 	adcs.w	r0, r0, #0
 80009ca:	eb41 5104 	adc.w	r1, r1, r4, lsl #20
 80009ce:	bd70      	pop	{r4, r5, r6, pc}
 80009d0:	f00e 4e00 	and.w	lr, lr, #2147483648	; 0x80000000
 80009d4:	ea4e 3111 	orr.w	r1, lr, r1, lsr #12
 80009d8:	eb14 045c 	adds.w	r4, r4, ip, lsr #1
 80009dc:	bfc2      	ittt	gt
 80009de:	ebd4 050c 	rsbsgt	r5, r4, ip
 80009e2:	ea41 5104 	orrgt.w	r1, r1, r4, lsl #20
 80009e6:	bd70      	popgt	{r4, r5, r6, pc}
 80009e8:	f441 1180 	orr.w	r1, r1, #1048576	; 0x100000
 80009ec:	f04f 0e00 	mov.w	lr, #0
 80009f0:	3c01      	subs	r4, #1
 80009f2:	e690      	b.n	8000716 <__aeabi_dmul+0xde>
 80009f4:	ea45 0e06 	orr.w	lr, r5, r6
 80009f8:	e68d      	b.n	8000716 <__aeabi_dmul+0xde>
 80009fa:	ea0c 5513 	and.w	r5, ip, r3, lsr #20
 80009fe:	ea94 0f0c 	teq	r4, ip
 8000a02:	bf08      	it	eq
 8000a04:	ea95 0f0c 	teqeq	r5, ip
 8000a08:	f43f af3b 	beq.w	8000882 <__aeabi_dmul+0x24a>
 8000a0c:	ea94 0f0c 	teq	r4, ip
 8000a10:	d10a      	bne.n	8000a28 <__aeabi_ddiv+0x19c>
 8000a12:	ea50 3401 	orrs.w	r4, r0, r1, lsl #12
 8000a16:	f47f af34 	bne.w	8000882 <__aeabi_dmul+0x24a>
 8000a1a:	ea95 0f0c 	teq	r5, ip
 8000a1e:	f47f af25 	bne.w	800086c <__aeabi_dmul+0x234>
 8000a22:	4610      	mov	r0, r2
 8000a24:	4619      	mov	r1, r3
 8000a26:	e72c      	b.n	8000882 <__aeabi_dmul+0x24a>
 8000a28:	ea95 0f0c 	teq	r5, ip
 8000a2c:	d106      	bne.n	8000a3c <__aeabi_ddiv+0x1b0>
 8000a2e:	ea52 3503 	orrs.w	r5, r2, r3, lsl #12
 8000a32:	f43f aefd 	beq.w	8000830 <__aeabi_dmul+0x1f8>
 8000a36:	4610      	mov	r0, r2
 8000a38:	4619      	mov	r1, r3
 8000a3a:	e722      	b.n	8000882 <__aeabi_dmul+0x24a>
 8000a3c:	ea50 0641 	orrs.w	r6, r0, r1, lsl #1
 8000a40:	bf18      	it	ne
 8000a42:	ea52 0643 	orrsne.w	r6, r2, r3, lsl #1
 8000a46:	f47f aec5 	bne.w	80007d4 <__aeabi_dmul+0x19c>
 8000a4a:	ea50 0441 	orrs.w	r4, r0, r1, lsl #1
 8000a4e:	f47f af0d 	bne.w	800086c <__aeabi_dmul+0x234>
 8000a52:	ea52 0543 	orrs.w	r5, r2, r3, lsl #1
 8000a56:	f47f aeeb 	bne.w	8000830 <__aeabi_dmul+0x1f8>
 8000a5a:	e712      	b.n	8000882 <__aeabi_dmul+0x24a>

08000a5c <__gedf2>:
 8000a5c:	f04f 3cff 	mov.w	ip, #4294967295
 8000a60:	e006      	b.n	8000a70 <__cmpdf2+0x4>
 8000a62:	bf00      	nop

08000a64 <__ledf2>:
 8000a64:	f04f 0c01 	mov.w	ip, #1
 8000a68:	e002      	b.n	8000a70 <__cmpdf2+0x4>
 8000a6a:	bf00      	nop

08000a6c <__cmpdf2>:
 8000a6c:	f04f 0c01 	mov.w	ip, #1
 8000a70:	f84d cd04 	str.w	ip, [sp, #-4]!
 8000a74:	ea4f 0c41 	mov.w	ip, r1, lsl #1
 8000a78:	ea7f 5c6c 	mvns.w	ip, ip, asr #21
 8000a7c:	ea4f 0c43 	mov.w	ip, r3, lsl #1
 8000a80:	bf18      	it	ne
 8000a82:	ea7f 5c6c 	mvnsne.w	ip, ip, asr #21
 8000a86:	d01b      	beq.n	8000ac0 <__cmpdf2+0x54>
 8000a88:	b001      	add	sp, #4
 8000a8a:	ea50 0c41 	orrs.w	ip, r0, r1, lsl #1
 8000a8e:	bf0c      	ite	eq
 8000a90:	ea52 0c43 	orrseq.w	ip, r2, r3, lsl #1
 8000a94:	ea91 0f03 	teqne	r1, r3
 8000a98:	bf02      	ittt	eq
 8000a9a:	ea90 0f02 	teqeq	r0, r2
 8000a9e:	2000      	moveq	r0, #0
 8000aa0:	4770      	bxeq	lr
 8000aa2:	f110 0f00 	cmn.w	r0, #0
 8000aa6:	ea91 0f03 	teq	r1, r3
 8000aaa:	bf58      	it	pl
 8000aac:	4299      	cmppl	r1, r3
 8000aae:	bf08      	it	eq
 8000ab0:	4290      	cmpeq	r0, r2
 8000ab2:	bf2c      	ite	cs
 8000ab4:	17d8      	asrcs	r0, r3, #31
 8000ab6:	ea6f 70e3 	mvncc.w	r0, r3, asr #31
 8000aba:	f040 0001 	orr.w	r0, r0, #1
 8000abe:	4770      	bx	lr
 8000ac0:	ea4f 0c41 	mov.w	ip, r1, lsl #1
 8000ac4:	ea7f 5c6c 	mvns.w	ip, ip, asr #21
 8000ac8:	d102      	bne.n	8000ad0 <__cmpdf2+0x64>
 8000aca:	ea50 3c01 	orrs.w	ip, r0, r1, lsl #12
 8000ace:	d107      	bne.n	8000ae0 <__cmpdf2+0x74>
 8000ad0:	ea4f 0c43 	mov.w	ip, r3, lsl #1
 8000ad4:	ea7f 5c6c 	mvns.w	ip, ip, asr #21
 8000ad8:	d1d6      	bne.n	8000a88 <__cmpdf2+0x1c>
 8000ada:	ea52 3c03 	orrs.w	ip, r2, r3, lsl #12
 8000ade:	d0d3      	beq.n	8000a88 <__cmpdf2+0x1c>
 8000ae0:	f85d 0b04 	ldr.w	r0, [sp], #4
 8000ae4:	4770      	bx	lr
 8000ae6:	bf00      	nop

08000ae8 <__aeabi_cdrcmple>:
 8000ae8:	4684      	mov	ip, r0
 8000aea:	4610      	mov	r0, r2
 8000aec:	4662      	mov	r2, ip
 8000aee:	468c      	mov	ip, r1
 8000af0:	4619      	mov	r1, r3
 8000af2:	4663      	mov	r3, ip
 8000af4:	e000      	b.n	8000af8 <__aeabi_cdcmpeq>
 8000af6:	bf00      	nop

08000af8 <__aeabi_cdcmpeq>:
 8000af8:	b501      	push	{r0, lr}
 8000afa:	f7ff ffb7 	bl	8000a6c <__cmpdf2>
 8000afe:	2800      	cmp	r0, #0
 8000b00:	bf48      	it	mi
 8000b02:	f110 0f00 	cmnmi.w	r0, #0
 8000b06:	bd01      	pop	{r0, pc}

08000b08 <__aeabi_dcmpeq>:
 8000b08:	f84d ed08 	str.w	lr, [sp, #-8]!
 8000b0c:	f7ff fff4 	bl	8000af8 <__aeabi_cdcmpeq>
 8000b10:	bf0c      	ite	eq
 8000b12:	2001      	moveq	r0, #1
 8000b14:	2000      	movne	r0, #0
 8000b16:	f85d fb08 	ldr.w	pc, [sp], #8
 8000b1a:	bf00      	nop

08000b1c <__aeabi_dcmplt>:
 8000b1c:	f84d ed08 	str.w	lr, [sp, #-8]!
 8000b20:	f7ff ffea 	bl	8000af8 <__aeabi_cdcmpeq>
 8000b24:	bf34      	ite	cc
 8000b26:	2001      	movcc	r0, #1
 8000b28:	2000      	movcs	r0, #0
 8000b2a:	f85d fb08 	ldr.w	pc, [sp], #8
 8000b2e:	bf00      	nop

08000b30 <__aeabi_dcmple>:
 8000b30:	f84d ed08 	str.w	lr, [sp, #-8]!
 8000b34:	f7ff ffe0 	bl	8000af8 <__aeabi_cdcmpeq>
 8000b38:	bf94      	ite	ls
 8000b3a:	2001      	movls	r0, #1
 8000b3c:	2000      	movhi	r0, #0
 8000b3e:	f85d fb08 	ldr.w	pc, [sp], #8
 8000b42:	bf00      	nop

08000b44 <__aeabi_dcmpge>:
 8000b44:	f84d ed08 	str.w	lr, [sp, #-8]!
 8000b48:	f7ff ffce 	bl	8000ae8 <__aeabi_cdrcmple>
 8000b4c:	bf94      	ite	ls
 8000b4e:	2001      	movls	r0, #1
 8000b50:	2000      	movhi	r0, #0
 8000b52:	f85d fb08 	ldr.w	pc, [sp], #8
 8000b56:	bf00      	nop

08000b58 <__aeabi_dcmpgt>:
 8000b58:	f84d ed08 	str.w	lr, [sp, #-8]!
 8000b5c:	f7ff ffc4 	bl	8000ae8 <__aeabi_cdrcmple>
 8000b60:	bf34      	ite	cc
 8000b62:	2001      	movcc	r0, #1
 8000b64:	2000      	movcs	r0, #0
 8000b66:	f85d fb08 	ldr.w	pc, [sp], #8
 8000b6a:	bf00      	nop

08000b6c <__aeabi_dcmpun>:
 8000b6c:	ea4f 0c41 	mov.w	ip, r1, lsl #1
 8000b70:	ea7f 5c6c 	mvns.w	ip, ip, asr #21
 8000b74:	d102      	bne.n	8000b7c <__aeabi_dcmpun+0x10>
 8000b76:	ea50 3c01 	orrs.w	ip, r0, r1, lsl #12
 8000b7a:	d10a      	bne.n	8000b92 <__aeabi_dcmpun+0x26>
 8000b7c:	ea4f 0c43 	mov.w	ip, r3, lsl #1
 8000b80:	ea7f 5c6c 	mvns.w	ip, ip, asr #21
 8000b84:	d102      	bne.n	8000b8c <__aeabi_dcmpun+0x20>
 8000b86:	ea52 3c03 	orrs.w	ip, r2, r3, lsl #12
 8000b8a:	d102      	bne.n	8000b92 <__aeabi_dcmpun+0x26>
 8000b8c:	f04f 0000 	mov.w	r0, #0
 8000b90:	4770      	bx	lr
 8000b92:	f04f 0001 	mov.w	r0, #1
 8000b96:	4770      	bx	lr

08000b98 <__aeabi_d2iz>:
 8000b98:	ea4f 0241 	mov.w	r2, r1, lsl #1
 8000b9c:	f512 1200 	adds.w	r2, r2, #2097152	; 0x200000
 8000ba0:	d215      	bcs.n	8000bce <__aeabi_d2iz+0x36>
 8000ba2:	d511      	bpl.n	8000bc8 <__aeabi_d2iz+0x30>
 8000ba4:	f46f 7378 	mvn.w	r3, #992	; 0x3e0
 8000ba8:	ebb3 5262 	subs.w	r2, r3, r2, asr #21
 8000bac:	d912      	bls.n	8000bd4 <__aeabi_d2iz+0x3c>
 8000bae:	ea4f 23c1 	mov.w	r3, r1, lsl #11
 8000bb2:	f043 4300 	orr.w	r3, r3, #2147483648	; 0x80000000
 8000bb6:	ea43 5350 	orr.w	r3, r3, r0, lsr #21
 8000bba:	f011 4f00 	tst.w	r1, #2147483648	; 0x80000000
 8000bbe:	fa23 f002 	lsr.w	r0, r3, r2
 8000bc2:	bf18      	it	ne
 8000bc4:	4240      	negne	r0, r0
 8000bc6:	4770      	bx	lr
 8000bc8:	f04f 0000 	mov.w	r0, #0
 8000bcc:	4770      	bx	lr
 8000bce:	ea50 3001 	orrs.w	r0, r0, r1, lsl #12
 8000bd2:	d105      	bne.n	8000be0 <__aeabi_d2iz+0x48>
 8000bd4:	f011 4000 	ands.w	r0, r1, #2147483648	; 0x80000000
 8000bd8:	bf08      	it	eq
 8000bda:	f06f 4000 	mvneq.w	r0, #2147483648	; 0x80000000
 8000bde:	4770      	bx	lr
 8000be0:	f04f 0000 	mov.w	r0, #0
 8000be4:	4770      	bx	lr
 8000be6:	bf00      	nop

08000be8 <__aeabi_d2f>:
 8000be8:	ea4f 0241 	mov.w	r2, r1, lsl #1
 8000bec:	f1b2 43e0 	subs.w	r3, r2, #1879048192	; 0x70000000
 8000bf0:	bf24      	itt	cs
 8000bf2:	f5b3 1c00 	subscs.w	ip, r3, #2097152	; 0x200000
 8000bf6:	f1dc 5cfe 	rsbscs	ip, ip, #532676608	; 0x1fc00000
 8000bfa:	d90d      	bls.n	8000c18 <__aeabi_d2f+0x30>
 8000bfc:	f001 4c00 	and.w	ip, r1, #2147483648	; 0x80000000
 8000c00:	ea4f 02c0 	mov.w	r2, r0, lsl #3
 8000c04:	ea4c 7050 	orr.w	r0, ip, r0, lsr #29
 8000c08:	f1b2 4f00 	cmp.w	r2, #2147483648	; 0x80000000
 8000c0c:	eb40 0083 	adc.w	r0, r0, r3, lsl #2
 8000c10:	bf08      	it	eq
 8000c12:	f020 0001 	biceq.w	r0, r0, #1
 8000c16:	4770      	bx	lr
 8000c18:	f011 4f80 	tst.w	r1, #1073741824	; 0x40000000
 8000c1c:	d121      	bne.n	8000c62 <__aeabi_d2f+0x7a>
 8000c1e:	f113 7238 	adds.w	r2, r3, #48234496	; 0x2e00000
 8000c22:	bfbc      	itt	lt
 8000c24:	f001 4000 	andlt.w	r0, r1, #2147483648	; 0x80000000
 8000c28:	4770      	bxlt	lr
 8000c2a:	f441 1180 	orr.w	r1, r1, #1048576	; 0x100000
 8000c2e:	ea4f 5252 	mov.w	r2, r2, lsr #21
 8000c32:	f1c2 0218 	rsb	r2, r2, #24
 8000c36:	f1c2 0c20 	rsb	ip, r2, #32
 8000c3a:	fa10 f30c 	lsls.w	r3, r0, ip
 8000c3e:	fa20 f002 	lsr.w	r0, r0, r2
 8000c42:	bf18      	it	ne
 8000c44:	f040 0001 	orrne.w	r0, r0, #1
 8000c48:	ea4f 23c1 	mov.w	r3, r1, lsl #11
 8000c4c:	ea4f 23d3 	mov.w	r3, r3, lsr #11
 8000c50:	fa03 fc0c 	lsl.w	ip, r3, ip
 8000c54:	ea40 000c 	orr.w	r0, r0, ip
 8000c58:	fa23 f302 	lsr.w	r3, r3, r2
 8000c5c:	ea4f 0343 	mov.w	r3, r3, lsl #1
 8000c60:	e7cc      	b.n	8000bfc <__aeabi_d2f+0x14>
 8000c62:	ea7f 5362 	mvns.w	r3, r2, asr #21
 8000c66:	d107      	bne.n	8000c78 <__aeabi_d2f+0x90>
 8000c68:	ea50 3301 	orrs.w	r3, r0, r1, lsl #12
 8000c6c:	bf1e      	ittt	ne
 8000c6e:	f04f 40fe 	movne.w	r0, #2130706432	; 0x7f000000
 8000c72:	f440 0040 	orrne.w	r0, r0, #12582912	; 0xc00000
 8000c76:	4770      	bxne	lr
 8000c78:	f001 4000 	and.w	r0, r1, #2147483648	; 0x80000000
 8000c7c:	f040 40fe 	orr.w	r0, r0, #2130706432	; 0x7f000000
 8000c80:	f440 0000 	orr.w	r0, r0, #8388608	; 0x800000
 8000c84:	4770      	bx	lr
 8000c86:	bf00      	nop

08000c88 <__aeabi_uldivmod>:
 8000c88:	b953      	cbnz	r3, 8000ca0 <__aeabi_uldivmod+0x18>
 8000c8a:	b94a      	cbnz	r2, 8000ca0 <__aeabi_uldivmod+0x18>
 8000c8c:	2900      	cmp	r1, #0
 8000c8e:	bf08      	it	eq
 8000c90:	2800      	cmpeq	r0, #0
 8000c92:	bf1c      	itt	ne
 8000c94:	f04f 31ff 	movne.w	r1, #4294967295
 8000c98:	f04f 30ff 	movne.w	r0, #4294967295
 8000c9c:	f000 b96e 	b.w	8000f7c <__aeabi_idiv0>
 8000ca0:	f1ad 0c08 	sub.w	ip, sp, #8
 8000ca4:	e96d ce04 	strd	ip, lr, [sp, #-16]!
 8000ca8:	f000 f806 	bl	8000cb8 <__udivmoddi4>
 8000cac:	f8dd e004 	ldr.w	lr, [sp, #4]
 8000cb0:	e9dd 2302 	ldrd	r2, r3, [sp, #8]
 8000cb4:	b004      	add	sp, #16
 8000cb6:	4770      	bx	lr

08000cb8 <__udivmoddi4>:
 8000cb8:	e92d 47f0 	stmdb	sp!, {r4, r5, r6, r7, r8, r9, sl, lr}
 8000cbc:	9d08      	ldr	r5, [sp, #32]
 8000cbe:	4604      	mov	r4, r0
 8000cc0:	468c      	mov	ip, r1
 8000cc2:	2b00      	cmp	r3, #0
 8000cc4:	f040 8083 	bne.w	8000dce <__udivmoddi4+0x116>
 8000cc8:	428a      	cmp	r2, r1
 8000cca:	4617      	mov	r7, r2
 8000ccc:	d947      	bls.n	8000d5e <__udivmoddi4+0xa6>
 8000cce:	fab2 f282 	clz	r2, r2
 8000cd2:	b142      	cbz	r2, 8000ce6 <__udivmoddi4+0x2e>
 8000cd4:	f1c2 0020 	rsb	r0, r2, #32
 8000cd8:	fa24 f000 	lsr.w	r0, r4, r0
 8000cdc:	4091      	lsls	r1, r2
 8000cde:	4097      	lsls	r7, r2
 8000ce0:	ea40 0c01 	orr.w	ip, r0, r1
 8000ce4:	4094      	lsls	r4, r2
 8000ce6:	ea4f 4817 	mov.w	r8, r7, lsr #16
 8000cea:	0c23      	lsrs	r3, r4, #16
 8000cec:	fbbc f6f8 	udiv	r6, ip, r8
 8000cf0:	fa1f fe87 	uxth.w	lr, r7
 8000cf4:	fb08 c116 	mls	r1, r8, r6, ip
 8000cf8:	ea43 4301 	orr.w	r3, r3, r1, lsl #16
 8000cfc:	fb06 f10e 	mul.w	r1, r6, lr
 8000d00:	4299      	cmp	r1, r3
 8000d02:	d909      	bls.n	8000d18 <__udivmoddi4+0x60>
 8000d04:	18fb      	adds	r3, r7, r3
 8000d06:	f106 30ff 	add.w	r0, r6, #4294967295
 8000d0a:	f080 8119 	bcs.w	8000f40 <__udivmoddi4+0x288>
 8000d0e:	4299      	cmp	r1, r3
 8000d10:	f240 8116 	bls.w	8000f40 <__udivmoddi4+0x288>
 8000d14:	3e02      	subs	r6, #2
 8000d16:	443b      	add	r3, r7
 8000d18:	1a5b      	subs	r3, r3, r1
 8000d1a:	b2a4      	uxth	r4, r4
 8000d1c:	fbb3 f0f8 	udiv	r0, r3, r8
 8000d20:	fb08 3310 	mls	r3, r8, r0, r3
 8000d24:	ea44 4403 	orr.w	r4, r4, r3, lsl #16
 8000d28:	fb00 fe0e 	mul.w	lr, r0, lr
 8000d2c:	45a6      	cmp	lr, r4
 8000d2e:	d909      	bls.n	8000d44 <__udivmoddi4+0x8c>
 8000d30:	193c      	adds	r4, r7, r4
 8000d32:	f100 33ff 	add.w	r3, r0, #4294967295
 8000d36:	f080 8105 	bcs.w	8000f44 <__udivmoddi4+0x28c>
 8000d3a:	45a6      	cmp	lr, r4
 8000d3c:	f240 8102 	bls.w	8000f44 <__udivmoddi4+0x28c>
 8000d40:	3802      	subs	r0, #2
 8000d42:	443c      	add	r4, r7
 8000d44:	ea40 4006 	orr.w	r0, r0, r6, lsl #16
 8000d48:	eba4 040e 	sub.w	r4, r4, lr
 8000d4c:	2600      	movs	r6, #0
 8000d4e:	b11d      	cbz	r5, 8000d58 <__udivmoddi4+0xa0>
 8000d50:	40d4      	lsrs	r4, r2
 8000d52:	2300      	movs	r3, #0
 8000d54:	e9c5 4300 	strd	r4, r3, [r5]
 8000d58:	4631      	mov	r1, r6
 8000d5a:	e8bd 87f0 	ldmia.w	sp!, {r4, r5, r6, r7, r8, r9, sl, pc}
 8000d5e:	b902      	cbnz	r2, 8000d62 <__udivmoddi4+0xaa>
 8000d60:	deff      	udf	#255	; 0xff
 8000d62:	fab2 f282 	clz	r2, r2
 8000d66:	2a00      	cmp	r2, #0
 8000d68:	d150      	bne.n	8000e0c <__udivmoddi4+0x154>
 8000d6a:	1bcb      	subs	r3, r1, r7
 8000d6c:	ea4f 4e17 	mov.w	lr, r7, lsr #16
 8000d70:	fa1f f887 	uxth.w	r8, r7
 8000d74:	2601      	movs	r6, #1
 8000d76:	fbb3 fcfe 	udiv	ip, r3, lr
 8000d7a:	0c21      	lsrs	r1, r4, #16
 8000d7c:	fb0e 331c 	mls	r3, lr, ip, r3
 8000d80:	ea41 4103 	orr.w	r1, r1, r3, lsl #16
 8000d84:	fb08 f30c 	mul.w	r3, r8, ip
 8000d88:	428b      	cmp	r3, r1
 8000d8a:	d907      	bls.n	8000d9c <__udivmoddi4+0xe4>
 8000d8c:	1879      	adds	r1, r7, r1
 8000d8e:	f10c 30ff 	add.w	r0, ip, #4294967295
 8000d92:	d202      	bcs.n	8000d9a <__udivmoddi4+0xe2>
 8000d94:	428b      	cmp	r3, r1
 8000d96:	f200 80e9 	bhi.w	8000f6c <__udivmoddi4+0x2b4>
 8000d9a:	4684      	mov	ip, r0
 8000d9c:	1ac9      	subs	r1, r1, r3
 8000d9e:	b2a3      	uxth	r3, r4
 8000da0:	fbb1 f0fe 	udiv	r0, r1, lr
 8000da4:	fb0e 1110 	mls	r1, lr, r0, r1
 8000da8:	ea43 4401 	orr.w	r4, r3, r1, lsl #16
 8000dac:	fb08 f800 	mul.w	r8, r8, r0
 8000db0:	45a0      	cmp	r8, r4
 8000db2:	d907      	bls.n	8000dc4 <__udivmoddi4+0x10c>
 8000db4:	193c      	adds	r4, r7, r4
 8000db6:	f100 33ff 	add.w	r3, r0, #4294967295
 8000dba:	d202      	bcs.n	8000dc2 <__udivmoddi4+0x10a>
 8000dbc:	45a0      	cmp	r8, r4
 8000dbe:	f200 80d9 	bhi.w	8000f74 <__udivmoddi4+0x2bc>
 8000dc2:	4618      	mov	r0, r3
 8000dc4:	eba4 0408 	sub.w	r4, r4, r8
 8000dc8:	ea40 400c 	orr.w	r0, r0, ip, lsl #16
 8000dcc:	e7bf      	b.n	8000d4e <__udivmoddi4+0x96>
 8000dce:	428b      	cmp	r3, r1
 8000dd0:	d909      	bls.n	8000de6 <__udivmoddi4+0x12e>
 8000dd2:	2d00      	cmp	r5, #0
 8000dd4:	f000 80b1 	beq.w	8000f3a <__udivmoddi4+0x282>
 8000dd8:	2600      	movs	r6, #0
 8000dda:	e9c5 0100 	strd	r0, r1, [r5]
 8000dde:	4630      	mov	r0, r6
 8000de0:	4631      	mov	r1, r6
 8000de2:	e8bd 87f0 	ldmia.w	sp!, {r4, r5, r6, r7, r8, r9, sl, pc}
 8000de6:	fab3 f683 	clz	r6, r3
 8000dea:	2e00      	cmp	r6, #0
 8000dec:	d14a      	bne.n	8000e84 <__udivmoddi4+0x1cc>
 8000dee:	428b      	cmp	r3, r1
 8000df0:	d302      	bcc.n	8000df8 <__udivmoddi4+0x140>
 8000df2:	4282      	cmp	r2, r0
 8000df4:	f200 80b8 	bhi.w	8000f68 <__udivmoddi4+0x2b0>
 8000df8:	1a84      	subs	r4, r0, r2
 8000dfa:	eb61 0103 	sbc.w	r1, r1, r3
 8000dfe:	2001      	movs	r0, #1
 8000e00:	468c      	mov	ip, r1
 8000e02:	2d00      	cmp	r5, #0
 8000e04:	d0a8      	beq.n	8000d58 <__udivmoddi4+0xa0>
 8000e06:	e9c5 4c00 	strd	r4, ip, [r5]
 8000e0a:	e7a5      	b.n	8000d58 <__udivmoddi4+0xa0>
 8000e0c:	f1c2 0320 	rsb	r3, r2, #32
 8000e10:	fa20 f603 	lsr.w	r6, r0, r3
 8000e14:	4097      	lsls	r7, r2
 8000e16:	fa01 f002 	lsl.w	r0, r1, r2
 8000e1a:	ea4f 4e17 	mov.w	lr, r7, lsr #16
 8000e1e:	40d9      	lsrs	r1, r3
 8000e20:	4330      	orrs	r0, r6
 8000e22:	0c03      	lsrs	r3, r0, #16
 8000e24:	fbb1 f6fe 	udiv	r6, r1, lr
 8000e28:	fa1f f887 	uxth.w	r8, r7
 8000e2c:	fb0e 1116 	mls	r1, lr, r6, r1
 8000e30:	ea43 4301 	orr.w	r3, r3, r1, lsl #16
 8000e34:	fb06 f108 	mul.w	r1, r6, r8
 8000e38:	4299      	cmp	r1, r3
 8000e3a:	fa04 f402 	lsl.w	r4, r4, r2
 8000e3e:	d909      	bls.n	8000e54 <__udivmoddi4+0x19c>
 8000e40:	18fb      	adds	r3, r7, r3
 8000e42:	f106 3cff 	add.w	ip, r6, #4294967295
 8000e46:	f080 808d 	bcs.w	8000f64 <__udivmoddi4+0x2ac>
 8000e4a:	4299      	cmp	r1, r3
 8000e4c:	f240 808a 	bls.w	8000f64 <__udivmoddi4+0x2ac>
 8000e50:	3e02      	subs	r6, #2
 8000e52:	443b      	add	r3, r7
 8000e54:	1a5b      	subs	r3, r3, r1
 8000e56:	b281      	uxth	r1, r0
 8000e58:	fbb3 f0fe 	udiv	r0, r3, lr
 8000e5c:	fb0e 3310 	mls	r3, lr, r0, r3
 8000e60:	ea41 4103 	orr.w	r1, r1, r3, lsl #16
 8000e64:	fb00 f308 	mul.w	r3, r0, r8
 8000e68:	428b      	cmp	r3, r1
 8000e6a:	d907      	bls.n	8000e7c <__udivmoddi4+0x1c4>
 8000e6c:	1879      	adds	r1, r7, r1
 8000e6e:	f100 3cff 	add.w	ip, r0, #4294967295
 8000e72:	d273      	bcs.n	8000f5c <__udivmoddi4+0x2a4>
 8000e74:	428b      	cmp	r3, r1
 8000e76:	d971      	bls.n	8000f5c <__udivmoddi4+0x2a4>
 8000e78:	3802      	subs	r0, #2
 8000e7a:	4439      	add	r1, r7
 8000e7c:	1acb      	subs	r3, r1, r3
 8000e7e:	ea40 4606 	orr.w	r6, r0, r6, lsl #16
 8000e82:	e778      	b.n	8000d76 <__udivmoddi4+0xbe>
 8000e84:	f1c6 0c20 	rsb	ip, r6, #32
 8000e88:	fa03 f406 	lsl.w	r4, r3, r6
 8000e8c:	fa22 f30c 	lsr.w	r3, r2, ip
 8000e90:	431c      	orrs	r4, r3
 8000e92:	fa20 f70c 	lsr.w	r7, r0, ip
 8000e96:	fa01 f306 	lsl.w	r3, r1, r6
 8000e9a:	ea4f 4e14 	mov.w	lr, r4, lsr #16
 8000e9e:	fa21 f10c 	lsr.w	r1, r1, ip
 8000ea2:	431f      	orrs	r7, r3
 8000ea4:	0c3b      	lsrs	r3, r7, #16
 8000ea6:	fbb1 f9fe 	udiv	r9, r1, lr
 8000eaa:	fa1f f884 	uxth.w	r8, r4
 8000eae:	fb0e 1119 	mls	r1, lr, r9, r1
 8000eb2:	ea43 4101 	orr.w	r1, r3, r1, lsl #16
 8000eb6:	fb09 fa08 	mul.w	sl, r9, r8
 8000eba:	458a      	cmp	sl, r1
 8000ebc:	fa02 f206 	lsl.w	r2, r2, r6
 8000ec0:	fa00 f306 	lsl.w	r3, r0, r6
 8000ec4:	d908      	bls.n	8000ed8 <__udivmoddi4+0x220>
 8000ec6:	1861      	adds	r1, r4, r1
 8000ec8:	f109 30ff 	add.w	r0, r9, #4294967295
 8000ecc:	d248      	bcs.n	8000f60 <__udivmoddi4+0x2a8>
 8000ece:	458a      	cmp	sl, r1
 8000ed0:	d946      	bls.n	8000f60 <__udivmoddi4+0x2a8>
 8000ed2:	f1a9 0902 	sub.w	r9, r9, #2
 8000ed6:	4421      	add	r1, r4
 8000ed8:	eba1 010a 	sub.w	r1, r1, sl
 8000edc:	b2bf      	uxth	r7, r7
 8000ede:	fbb1 f0fe 	udiv	r0, r1, lr
 8000ee2:	fb0e 1110 	mls	r1, lr, r0, r1
 8000ee6:	ea47 4701 	orr.w	r7, r7, r1, lsl #16
 8000eea:	fb00 f808 	mul.w	r8, r0, r8
 8000eee:	45b8      	cmp	r8, r7
 8000ef0:	d907      	bls.n	8000f02 <__udivmoddi4+0x24a>
 8000ef2:	19e7      	adds	r7, r4, r7
 8000ef4:	f100 31ff 	add.w	r1, r0, #4294967295
 8000ef8:	d22e      	bcs.n	8000f58 <__udivmoddi4+0x2a0>
 8000efa:	45b8      	cmp	r8, r7
 8000efc:	d92c      	bls.n	8000f58 <__udivmoddi4+0x2a0>
 8000efe:	3802      	subs	r0, #2
 8000f00:	4427      	add	r7, r4
 8000f02:	ea40 4009 	orr.w	r0, r0, r9, lsl #16
 8000f06:	eba7 0708 	sub.w	r7, r7, r8
 8000f0a:	fba0 8902 	umull	r8, r9, r0, r2
 8000f0e:	454f      	cmp	r7, r9
 8000f10:	46c6      	mov	lr, r8
 8000f12:	4649      	mov	r1, r9
 8000f14:	d31a      	bcc.n	8000f4c <__udivmoddi4+0x294>
 8000f16:	d017      	beq.n	8000f48 <__udivmoddi4+0x290>
 8000f18:	b15d      	cbz	r5, 8000f32 <__udivmoddi4+0x27a>
 8000f1a:	ebb3 020e 	subs.w	r2, r3, lr
 8000f1e:	eb67 0701 	sbc.w	r7, r7, r1
 8000f22:	fa07 fc0c 	lsl.w	ip, r7, ip
 8000f26:	40f2      	lsrs	r2, r6
 8000f28:	ea4c 0202 	orr.w	r2, ip, r2
 8000f2c:	40f7      	lsrs	r7, r6
 8000f2e:	e9c5 2700 	strd	r2, r7, [r5]
 8000f32:	2600      	movs	r6, #0
 8000f34:	4631      	mov	r1, r6
 8000f36:	e8bd 87f0 	ldmia.w	sp!, {r4, r5, r6, r7, r8, r9, sl, pc}
 8000f3a:	462e      	mov	r6, r5
 8000f3c:	4628      	mov	r0, r5
 8000f3e:	e70b      	b.n	8000d58 <__udivmoddi4+0xa0>
 8000f40:	4606      	mov	r6, r0
 8000f42:	e6e9      	b.n	8000d18 <__udivmoddi4+0x60>
 8000f44:	4618      	mov	r0, r3
 8000f46:	e6fd      	b.n	8000d44 <__udivmoddi4+0x8c>
 8000f48:	4543      	cmp	r3, r8
 8000f4a:	d2e5      	bcs.n	8000f18 <__udivmoddi4+0x260>
 8000f4c:	ebb8 0e02 	subs.w	lr, r8, r2
 8000f50:	eb69 0104 	sbc.w	r1, r9, r4
 8000f54:	3801      	subs	r0, #1
 8000f56:	e7df      	b.n	8000f18 <__udivmoddi4+0x260>
 8000f58:	4608      	mov	r0, r1
 8000f5a:	e7d2      	b.n	8000f02 <__udivmoddi4+0x24a>
 8000f5c:	4660      	mov	r0, ip
 8000f5e:	e78d      	b.n	8000e7c <__udivmoddi4+0x1c4>
 8000f60:	4681      	mov	r9, r0
 8000f62:	e7b9      	b.n	8000ed8 <__udivmoddi4+0x220>
 8000f64:	4666      	mov	r6, ip
 8000f66:	e775      	b.n	8000e54 <__udivmoddi4+0x19c>
 8000f68:	4630      	mov	r0, r6
 8000f6a:	e74a      	b.n	8000e02 <__udivmoddi4+0x14a>
 8000f6c:	f1ac 0c02 	sub.w	ip, ip, #2
 8000f70:	4439      	add	r1, r7
 8000f72:	e713      	b.n	8000d9c <__udivmoddi4+0xe4>
 8000f74:	3802      	subs	r0, #2
 8000f76:	443c      	add	r4, r7
 8000f78:	e724      	b.n	8000dc4 <__udivmoddi4+0x10c>
 8000f7a:	bf00      	nop

08000f7c <__aeabi_idiv0>:
 8000f7c:	4770      	bx	lr
 8000f7e:	bf00      	nop

08000f80 <main>:
/**
  * @brief  The application entry point.
  * @retval int
  */
int main(void)
{
 8000f80:	b580      	push	{r7, lr}
 8000f82:	b08c      	sub	sp, #48	; 0x30
 8000f84:	af00      	add	r7, sp, #0
  /* USER CODE BEGIN 1 */
  char msg[16];
//  char test_msg[16];
  uint32_t time1 = 0;
 8000f86:	2300      	movs	r3, #0
 8000f88:	61bb      	str	r3, [r7, #24]
  /* USER CODE END 1 */

  /* MCU Configuration--------------------------------------------------------*/

  /* Reset of all peripherals, Initializes the Flash interface and the Systick. */
  HAL_Init();
 8000f8a:	f000 fdf5 	bl	8001b78 <HAL_Init>
  /* USER CODE BEGIN Init */

  /* USER CODE END Init */

  /* Configure the system clock */
  SystemClock_Config();
 8000f8e:	f000 f9b9 	bl	8001304 <SystemClock_Config>
  /* USER CODE BEGIN SysInit */

  /* USER CODE END SysInit */

  /* Initialize all configured peripherals */
  MX_GPIO_Init();
 8000f92:	f000 faed 	bl	8001570 <MX_GPIO_Init>
  MX_DMA_Init();
 8000f96:	f000 facb 	bl	8001530 <MX_DMA_Init>
  MX_USART2_UART_Init();
 8000f9a:	f000 fa9f 	bl	80014dc <MX_USART2_UART_Init>
  MX_ADC1_Init();
 8000f9e:	f000 fa29 	bl	80013f4 <MX_ADC1_Init>
  MX_TIM14_Init();
 8000fa2:	f000 fa79 	bl	8001498 <MX_TIM14_Init>
  /* USER CODE BEGIN 2 */
  //HAL_GPIO_WritePin(GPIOA, GPIO_PIN_10, GPIO_PIN_RESET);
  //HAL_Delay(WARMUP);
  //HAL_GPIO_WritePin(GPIOA, GPIO_PIN_10, GPIO_PIN_SET);
  //HAL_Delay(COOLDOWN);
  HAL_TIM_Base_Start_IT(&htim14);
 8000fa6:	489e      	ldr	r0, [pc, #632]	; (8001220 <main+0x2a0>)
 8000fa8:	f002 fd00 	bl	80039ac <HAL_TIM_Base_Start_IT>
  HAL_GPIO_WritePin(GPIOA, LD2_Pin, GPIO_PIN_SET);
 8000fac:	2201      	movs	r2, #1
 8000fae:	2120      	movs	r1, #32
 8000fb0:	489c      	ldr	r0, [pc, #624]	; (8001224 <main+0x2a4>)
 8000fb2:	f001 fe55 	bl	8002c60 <HAL_GPIO_WritePin>
  HAL_GPIO_WritePin(GPIOA, GPIO_PIN_10, GPIO_PIN_RESET);
 8000fb6:	2200      	movs	r2, #0
 8000fb8:	f44f 6180 	mov.w	r1, #1024	; 0x400
 8000fbc:	4899      	ldr	r0, [pc, #612]	; (8001224 <main+0x2a4>)
 8000fbe:	f001 fe4f 	bl	8002c60 <HAL_GPIO_WritePin>
  delay = 1;
 8000fc2:	4b99      	ldr	r3, [pc, #612]	; (8001228 <main+0x2a8>)
 8000fc4:	2201      	movs	r2, #1
 8000fc6:	601a      	str	r2, [r3, #0]
  while (delay == 1) {
 8000fc8:	bf00      	nop
 8000fca:	4b97      	ldr	r3, [pc, #604]	; (8001228 <main+0x2a8>)
 8000fcc:	681b      	ldr	r3, [r3, #0]
 8000fce:	2b01      	cmp	r3, #1
 8000fd0:	d0fb      	beq.n	8000fca <main+0x4a>

  }
  //HAL_ADC_Start_DMA(&hadc1, (uint32_t*)adc_buf, ADC_BUF_LEN);
  state = 1;
 8000fd2:	4b96      	ldr	r3, [pc, #600]	; (800122c <main+0x2ac>)
 8000fd4:	2201      	movs	r2, #1
 8000fd6:	601a      	str	r2, [r3, #0]

  /* Infinite loop */
  /* USER CODE BEGIN WHILE */
  while (1)
    {
  	if (state == 1) {
 8000fd8:	4b94      	ldr	r3, [pc, #592]	; (800122c <main+0x2ac>)
 8000fda:	681b      	ldr	r3, [r3, #0]
 8000fdc:	2b01      	cmp	r3, #1
 8000fde:	d168      	bne.n	80010b2 <main+0x132>
  		HAL_GPIO_WritePin(GPIOA, GPIO_PIN_10, GPIO_PIN_SET);
 8000fe0:	2201      	movs	r2, #1
 8000fe2:	f44f 6180 	mov.w	r1, #1024	; 0x400
 8000fe6:	488f      	ldr	r0, [pc, #572]	; (8001224 <main+0x2a4>)
 8000fe8:	f001 fe3a 	bl	8002c60 <HAL_GPIO_WritePin>
  		//delay_us(COOLDOWN);
  		delay = 2;
 8000fec:	4b8e      	ldr	r3, [pc, #568]	; (8001228 <main+0x2a8>)
 8000fee:	2202      	movs	r2, #2
 8000ff0:	601a      	str	r2, [r3, #0]
  		__HAL_TIM_SET_COUNTER(&htim14, 0);
 8000ff2:	4b8b      	ldr	r3, [pc, #556]	; (8001220 <main+0x2a0>)
 8000ff4:	681b      	ldr	r3, [r3, #0]
 8000ff6:	2200      	movs	r2, #0
 8000ff8:	625a      	str	r2, [r3, #36]	; 0x24
//  		time1 = (uint32_t) __HAL_TIM_GET_COUNTER(&htim14);
  		while (delay == 2) {
 8000ffa:	bf00      	nop
 8000ffc:	4b8a      	ldr	r3, [pc, #552]	; (8001228 <main+0x2a8>)
 8000ffe:	681b      	ldr	r3, [r3, #0]
 8001000:	2b02      	cmp	r3, #2
 8001002:	d0fb      	beq.n	8000ffc <main+0x7c>

  		}
//  		time1 = (uint32_t) __HAL_TIM_GET_COUNTER(&htim14) - time1;
//  		sprintf(msg, "%f\n", time1);
//  		HAL_UART_Transmit(&huart2, (uint8_t*)msg, strlen(msg), HAL_MAX_DELAY);
  		HAL_TIM_Base_Stop_IT(&htim14);
 8001004:	4886      	ldr	r0, [pc, #536]	; (8001220 <main+0x2a0>)
 8001006:	f002 fd41 	bl	8003a8c <HAL_TIM_Base_Stop_IT>
  		for (int j = 0; j < ADC_BUF_LEN; j++) {
 800100a:	2300      	movs	r3, #0
 800100c:	62fb      	str	r3, [r7, #44]	; 0x2c
 800100e:	e029      	b.n	8001064 <main+0xe4>
  			avgs[j] = (avgs[j] * pass + adc_buf[j]) / (pass + 1);
 8001010:	4a87      	ldr	r2, [pc, #540]	; (8001230 <main+0x2b0>)
 8001012:	6afb      	ldr	r3, [r7, #44]	; 0x2c
 8001014:	009b      	lsls	r3, r3, #2
 8001016:	4413      	add	r3, r2
 8001018:	ed93 7a00 	vldr	s14, [r3]
 800101c:	4b85      	ldr	r3, [pc, #532]	; (8001234 <main+0x2b4>)
 800101e:	681b      	ldr	r3, [r3, #0]
 8001020:	ee07 3a90 	vmov	s15, r3
 8001024:	eef8 7ae7 	vcvt.f32.s32	s15, s15
 8001028:	ee27 7a27 	vmul.f32	s14, s14, s15
 800102c:	4a82      	ldr	r2, [pc, #520]	; (8001238 <main+0x2b8>)
 800102e:	6afb      	ldr	r3, [r7, #44]	; 0x2c
 8001030:	f832 3013 	ldrh.w	r3, [r2, r3, lsl #1]
 8001034:	ee07 3a90 	vmov	s15, r3
 8001038:	eef8 7ae7 	vcvt.f32.s32	s15, s15
 800103c:	ee77 6a27 	vadd.f32	s13, s14, s15
 8001040:	4b7c      	ldr	r3, [pc, #496]	; (8001234 <main+0x2b4>)
 8001042:	681b      	ldr	r3, [r3, #0]
 8001044:	3301      	adds	r3, #1
 8001046:	ee07 3a90 	vmov	s15, r3
 800104a:	eeb8 7ae7 	vcvt.f32.s32	s14, s15
 800104e:	eec6 7a87 	vdiv.f32	s15, s13, s14
 8001052:	4a77      	ldr	r2, [pc, #476]	; (8001230 <main+0x2b0>)
 8001054:	6afb      	ldr	r3, [r7, #44]	; 0x2c
 8001056:	009b      	lsls	r3, r3, #2
 8001058:	4413      	add	r3, r2
 800105a:	edc3 7a00 	vstr	s15, [r3]
  		for (int j = 0; j < ADC_BUF_LEN; j++) {
 800105e:	6afb      	ldr	r3, [r7, #44]	; 0x2c
 8001060:	3301      	adds	r3, #1
 8001062:	62fb      	str	r3, [r7, #44]	; 0x2c
 8001064:	6afb      	ldr	r3, [r7, #44]	; 0x2c
 8001066:	2b00      	cmp	r3, #0
 8001068:	ddd2      	ble.n	8001010 <main+0x90>
  		}
  		pass += 1;
 800106a:	4b72      	ldr	r3, [pc, #456]	; (8001234 <main+0x2b4>)
 800106c:	681b      	ldr	r3, [r3, #0]
 800106e:	3301      	adds	r3, #1
 8001070:	4a70      	ldr	r2, [pc, #448]	; (8001234 <main+0x2b4>)
 8001072:	6013      	str	r3, [r2, #0]
  		if (pass == NUM_PASSES) {
 8001074:	4b6f      	ldr	r3, [pc, #444]	; (8001234 <main+0x2b4>)
 8001076:	681b      	ldr	r3, [r3, #0]
 8001078:	2b01      	cmp	r3, #1
 800107a:	d103      	bne.n	8001084 <main+0x104>
  			state = 2;
 800107c:	4b6b      	ldr	r3, [pc, #428]	; (800122c <main+0x2ac>)
 800107e:	2202      	movs	r2, #2
 8001080:	601a      	str	r2, [r3, #0]
 8001082:	e016      	b.n	80010b2 <main+0x132>
  		} else {
  			state = 0;
 8001084:	4b69      	ldr	r3, [pc, #420]	; (800122c <main+0x2ac>)
 8001086:	2200      	movs	r2, #0
 8001088:	601a      	str	r2, [r3, #0]
  			HAL_GPIO_WritePin(GPIOA, GPIO_PIN_10, GPIO_PIN_RESET);
 800108a:	2200      	movs	r2, #0
 800108c:	f44f 6180 	mov.w	r1, #1024	; 0x400
 8001090:	4864      	ldr	r0, [pc, #400]	; (8001224 <main+0x2a4>)
 8001092:	f001 fde5 	bl	8002c60 <HAL_GPIO_WritePin>
  			//delay_us(LASER_DELAY);
  			delay = 1;
 8001096:	4b64      	ldr	r3, [pc, #400]	; (8001228 <main+0x2a8>)
 8001098:	2201      	movs	r2, #1
 800109a:	601a      	str	r2, [r3, #0]
  			HAL_TIM_Base_Start_IT(&htim14);
 800109c:	4860      	ldr	r0, [pc, #384]	; (8001220 <main+0x2a0>)
 800109e:	f002 fc85 	bl	80039ac <HAL_TIM_Base_Start_IT>
  			while (delay == 1) {
 80010a2:	bf00      	nop
 80010a4:	4b60      	ldr	r3, [pc, #384]	; (8001228 <main+0x2a8>)
 80010a6:	681b      	ldr	r3, [r3, #0]
 80010a8:	2b01      	cmp	r3, #1
 80010aa:	d0fb      	beq.n	80010a4 <main+0x124>

  			}
  			//HAL_ADC_Start_DMA(&hadc1, (uint32_t*)adc_buf, ADC_BUF_LEN);
  			state = 1;
 80010ac:	4b5f      	ldr	r3, [pc, #380]	; (800122c <main+0x2ac>)
 80010ae:	2201      	movs	r2, #1
 80010b0:	601a      	str	r2, [r3, #0]

  		}
  	}
  	if (state == 2) {
 80010b2:	4b5e      	ldr	r3, [pc, #376]	; (800122c <main+0x2ac>)
 80010b4:	681b      	ldr	r3, [r3, #0]
 80010b6:	2b02      	cmp	r3, #2
 80010b8:	d16c      	bne.n	8001194 <main+0x214>
  			}
  			while(1) {

  			}
  		} else {
  			HAL_GPIO_TogglePin(GPIOA, LD2_Pin);
 80010ba:	2120      	movs	r1, #32
 80010bc:	4859      	ldr	r0, [pc, #356]	; (8001224 <main+0x2a4>)
 80010be:	f001 fde8 	bl	8002c92 <HAL_GPIO_TogglePin>
  			float average = 0;
 80010c2:	f04f 0300 	mov.w	r3, #0
 80010c6:	617b      	str	r3, [r7, #20]
  			int total = 0;
 80010c8:	2300      	movs	r3, #0
 80010ca:	62bb      	str	r3, [r7, #40]	; 0x28
  			for (int j = 0; j < ADC_BUF_LEN; j++) {
 80010cc:	2300      	movs	r3, #0
 80010ce:	627b      	str	r3, [r7, #36]	; 0x24
 80010d0:	e014      	b.n	80010fc <main+0x17c>
  				total += avgs[j];
 80010d2:	6abb      	ldr	r3, [r7, #40]	; 0x28
 80010d4:	ee07 3a90 	vmov	s15, r3
 80010d8:	eeb8 7ae7 	vcvt.f32.s32	s14, s15
 80010dc:	4a54      	ldr	r2, [pc, #336]	; (8001230 <main+0x2b0>)
 80010de:	6a7b      	ldr	r3, [r7, #36]	; 0x24
 80010e0:	009b      	lsls	r3, r3, #2
 80010e2:	4413      	add	r3, r2
 80010e4:	edd3 7a00 	vldr	s15, [r3]
 80010e8:	ee77 7a27 	vadd.f32	s15, s14, s15
 80010ec:	eefd 7ae7 	vcvt.s32.f32	s15, s15
 80010f0:	ee17 3a90 	vmov	r3, s15
 80010f4:	62bb      	str	r3, [r7, #40]	; 0x28
  			for (int j = 0; j < ADC_BUF_LEN; j++) {
 80010f6:	6a7b      	ldr	r3, [r7, #36]	; 0x24
 80010f8:	3301      	adds	r3, #1
 80010fa:	627b      	str	r3, [r7, #36]	; 0x24
 80010fc:	6a7b      	ldr	r3, [r7, #36]	; 0x24
 80010fe:	2b00      	cmp	r3, #0
 8001100:	dde7      	ble.n	80010d2 <main+0x152>
  			}
  			average = 3.3 * (total / ADC_BUF_LEN) / 4096;
 8001102:	6ab8      	ldr	r0, [r7, #40]	; 0x28
 8001104:	f7ff fa2e 	bl	8000564 <__aeabi_i2d>
 8001108:	a343      	add	r3, pc, #268	; (adr r3, 8001218 <main+0x298>)
 800110a:	e9d3 2300 	ldrd	r2, r3, [r3]
 800110e:	f7ff fa93 	bl	8000638 <__aeabi_dmul>
 8001112:	4602      	mov	r2, r0
 8001114:	460b      	mov	r3, r1
 8001116:	4610      	mov	r0, r2
 8001118:	4619      	mov	r1, r3
 800111a:	f04f 0200 	mov.w	r2, #0
 800111e:	4b47      	ldr	r3, [pc, #284]	; (800123c <main+0x2bc>)
 8001120:	f7ff fbb4 	bl	800088c <__aeabi_ddiv>
 8001124:	4602      	mov	r2, r0
 8001126:	460b      	mov	r3, r1
 8001128:	4610      	mov	r0, r2
 800112a:	4619      	mov	r1, r3
 800112c:	f7ff fd5c 	bl	8000be8 <__aeabi_d2f>
 8001130:	4603      	mov	r3, r0
 8001132:	617b      	str	r3, [r7, #20]
  			freqs[freq] = average;
 8001134:	4b42      	ldr	r3, [pc, #264]	; (8001240 <main+0x2c0>)
 8001136:	681b      	ldr	r3, [r3, #0]
 8001138:	4a42      	ldr	r2, [pc, #264]	; (8001244 <main+0x2c4>)
 800113a:	009b      	lsls	r3, r3, #2
 800113c:	4413      	add	r3, r2
 800113e:	697a      	ldr	r2, [r7, #20]
 8001140:	601a      	str	r2, [r3, #0]
  			freq += 1;
 8001142:	4b3f      	ldr	r3, [pc, #252]	; (8001240 <main+0x2c0>)
 8001144:	681b      	ldr	r3, [r3, #0]
 8001146:	3301      	adds	r3, #1
 8001148:	4a3d      	ldr	r2, [pc, #244]	; (8001240 <main+0x2c0>)
 800114a:	6013      	str	r3, [r2, #0]
  			if (freq == NUM_FREQS) {
 800114c:	4b3c      	ldr	r3, [pc, #240]	; (8001240 <main+0x2c0>)
 800114e:	681b      	ldr	r3, [r3, #0]
 8001150:	f242 7210 	movw	r2, #10000	; 0x2710
 8001154:	4293      	cmp	r3, r2
 8001156:	d103      	bne.n	8001160 <main+0x1e0>
  				state = 3;
 8001158:	4b34      	ldr	r3, [pc, #208]	; (800122c <main+0x2ac>)
 800115a:	2203      	movs	r2, #3
 800115c:	601a      	str	r2, [r3, #0]
 800115e:	e019      	b.n	8001194 <main+0x214>
  			} else {
  				pass = 0;
 8001160:	4b34      	ldr	r3, [pc, #208]	; (8001234 <main+0x2b4>)
 8001162:	2200      	movs	r2, #0
 8001164:	601a      	str	r2, [r3, #0]
  				state = 0;
 8001166:	4b31      	ldr	r3, [pc, #196]	; (800122c <main+0x2ac>)
 8001168:	2200      	movs	r2, #0
 800116a:	601a      	str	r2, [r3, #0]
  				if (freq % mod == 0) {
  					HAL_GPIO_WritePin(GPIOA, GPIO_PIN_10, GPIO_PIN_RESET);
 800116c:	2200      	movs	r2, #0
 800116e:	f44f 6180 	mov.w	r1, #1024	; 0x400
 8001172:	482c      	ldr	r0, [pc, #176]	; (8001224 <main+0x2a4>)
 8001174:	f001 fd74 	bl	8002c60 <HAL_GPIO_WritePin>
  				}else {
  					HAL_GPIO_WritePin(GPIOA, GPIO_PIN_10, GPIO_PIN_SET);
  				}
  				//delay_us(LASER_DELAY);
  				delay = 1;
 8001178:	4b2b      	ldr	r3, [pc, #172]	; (8001228 <main+0x2a8>)
 800117a:	2201      	movs	r2, #1
 800117c:	601a      	str	r2, [r3, #0]
  				//__HAL_TIM_SET_COUNTER(&htim14, 0);
  				HAL_TIM_Base_Start_IT(&htim14);
 800117e:	4828      	ldr	r0, [pc, #160]	; (8001220 <main+0x2a0>)
 8001180:	f002 fc14 	bl	80039ac <HAL_TIM_Base_Start_IT>
  				while (delay == 1) {
 8001184:	bf00      	nop
 8001186:	4b28      	ldr	r3, [pc, #160]	; (8001228 <main+0x2a8>)
 8001188:	681b      	ldr	r3, [r3, #0]
 800118a:	2b01      	cmp	r3, #1
 800118c:	d0fb      	beq.n	8001186 <main+0x206>

  				}
  				//HAL_ADC_Start_DMA(&hadc1, (uint32_t*)adc_buf, ADC_BUF_LEN);
  				state = 1;
 800118e:	4b27      	ldr	r3, [pc, #156]	; (800122c <main+0x2ac>)
 8001190:	2201      	movs	r2, #1
 8001192:	601a      	str	r2, [r3, #0]
  			}
  		}

  	}
  	if (state == 3) {
 8001194:	4b25      	ldr	r3, [pc, #148]	; (800122c <main+0x2ac>)
 8001196:	681b      	ldr	r3, [r3, #0]
 8001198:	2b03      	cmp	r3, #3
 800119a:	d176      	bne.n	800128a <main+0x30a>
  		for (int j = 0; j < NUM_FREQS; j++) {
 800119c:	2300      	movs	r3, #0
 800119e:	623b      	str	r3, [r7, #32]
 80011a0:	e027      	b.n	80011f2 <main+0x272>
  			avg_freqs[j] = (avg_freqs[j] * num_freq + freqs[j]) / (num_freq + 1);
 80011a2:	4a29      	ldr	r2, [pc, #164]	; (8001248 <main+0x2c8>)
 80011a4:	6a3b      	ldr	r3, [r7, #32]
 80011a6:	009b      	lsls	r3, r3, #2
 80011a8:	4413      	add	r3, r2
 80011aa:	ed93 7a00 	vldr	s14, [r3]
 80011ae:	4b27      	ldr	r3, [pc, #156]	; (800124c <main+0x2cc>)
 80011b0:	681b      	ldr	r3, [r3, #0]
 80011b2:	ee07 3a90 	vmov	s15, r3
 80011b6:	eef8 7ae7 	vcvt.f32.s32	s15, s15
 80011ba:	ee27 7a27 	vmul.f32	s14, s14, s15
 80011be:	4a21      	ldr	r2, [pc, #132]	; (8001244 <main+0x2c4>)
 80011c0:	6a3b      	ldr	r3, [r7, #32]
 80011c2:	009b      	lsls	r3, r3, #2
 80011c4:	4413      	add	r3, r2
 80011c6:	edd3 7a00 	vldr	s15, [r3]
 80011ca:	ee77 6a27 	vadd.f32	s13, s14, s15
 80011ce:	4b1f      	ldr	r3, [pc, #124]	; (800124c <main+0x2cc>)
 80011d0:	681b      	ldr	r3, [r3, #0]
 80011d2:	3301      	adds	r3, #1
 80011d4:	ee07 3a90 	vmov	s15, r3
 80011d8:	eeb8 7ae7 	vcvt.f32.s32	s14, s15
 80011dc:	eec6 7a87 	vdiv.f32	s15, s13, s14
 80011e0:	4a19      	ldr	r2, [pc, #100]	; (8001248 <main+0x2c8>)
 80011e2:	6a3b      	ldr	r3, [r7, #32]
 80011e4:	009b      	lsls	r3, r3, #2
 80011e6:	4413      	add	r3, r2
 80011e8:	edc3 7a00 	vstr	s15, [r3]
  		for (int j = 0; j < NUM_FREQS; j++) {
 80011ec:	6a3b      	ldr	r3, [r7, #32]
 80011ee:	3301      	adds	r3, #1
 80011f0:	623b      	str	r3, [r7, #32]
 80011f2:	6a3b      	ldr	r3, [r7, #32]
 80011f4:	f242 720f 	movw	r2, #9999	; 0x270f
 80011f8:	4293      	cmp	r3, r2
 80011fa:	ddd2      	ble.n	80011a2 <main+0x222>
  		}
  		num_freq += 1;
 80011fc:	4b13      	ldr	r3, [pc, #76]	; (800124c <main+0x2cc>)
 80011fe:	681b      	ldr	r3, [r3, #0]
 8001200:	3301      	adds	r3, #1
 8001202:	4a12      	ldr	r2, [pc, #72]	; (800124c <main+0x2cc>)
 8001204:	6013      	str	r3, [r2, #0]
  		if (num_freq == FREQ_PASS) {
 8001206:	4b11      	ldr	r3, [pc, #68]	; (800124c <main+0x2cc>)
 8001208:	681b      	ldr	r3, [r3, #0]
 800120a:	2b64      	cmp	r3, #100	; 0x64
 800120c:	d120      	bne.n	8001250 <main+0x2d0>
  			state = 4;
 800120e:	4b07      	ldr	r3, [pc, #28]	; (800122c <main+0x2ac>)
 8001210:	2204      	movs	r2, #4
 8001212:	601a      	str	r2, [r3, #0]
 8001214:	e039      	b.n	800128a <main+0x30a>
 8001216:	bf00      	nop
 8001218:	66666666 	.word	0x66666666
 800121c:	400a6666 	.word	0x400a6666
 8001220:	20013b90 	.word	0x20013b90
 8001224:	40020000 	.word	0x40020000
 8001228:	20000204 	.word	0x20000204
 800122c:	200001fc 	.word	0x200001fc
 8001230:	2000021c 	.word	0x2000021c
 8001234:	20000208 	.word	0x20000208
 8001238:	20009f08 	.word	0x20009f08
 800123c:	40b00000 	.word	0x40b00000
 8001240:	200001f8 	.word	0x200001f8
 8001244:	20009f0c 	.word	0x20009f0c
 8001248:	20000268 	.word	0x20000268
 800124c:	2000020c 	.word	0x2000020c
  		}else {
  			pass = 0;
 8001250:	4b23      	ldr	r3, [pc, #140]	; (80012e0 <main+0x360>)
 8001252:	2200      	movs	r2, #0
 8001254:	601a      	str	r2, [r3, #0]
  			state = 0;
 8001256:	4b23      	ldr	r3, [pc, #140]	; (80012e4 <main+0x364>)
 8001258:	2200      	movs	r2, #0
 800125a:	601a      	str	r2, [r3, #0]
  			freq = 0;
 800125c:	4b22      	ldr	r3, [pc, #136]	; (80012e8 <main+0x368>)
 800125e:	2200      	movs	r2, #0
 8001260:	601a      	str	r2, [r3, #0]
  			HAL_GPIO_WritePin(GPIOA, GPIO_PIN_10, GPIO_PIN_RESET);
 8001262:	2200      	movs	r2, #0
 8001264:	f44f 6180 	mov.w	r1, #1024	; 0x400
 8001268:	4820      	ldr	r0, [pc, #128]	; (80012ec <main+0x36c>)
 800126a:	f001 fcf9 	bl	8002c60 <HAL_GPIO_WritePin>
  			// laser delay
  			delay = 1;
 800126e:	4b20      	ldr	r3, [pc, #128]	; (80012f0 <main+0x370>)
 8001270:	2201      	movs	r2, #1
 8001272:	601a      	str	r2, [r3, #0]
  			//__HAL_TIM_SET_COUNTER(&htim14, 0);
  			HAL_TIM_Base_Start_IT(&htim14);
 8001274:	481f      	ldr	r0, [pc, #124]	; (80012f4 <main+0x374>)
 8001276:	f002 fb99 	bl	80039ac <HAL_TIM_Base_Start_IT>
  			while (delay == 1) {
 800127a:	bf00      	nop
 800127c:	4b1c      	ldr	r3, [pc, #112]	; (80012f0 <main+0x370>)
 800127e:	681b      	ldr	r3, [r3, #0]
 8001280:	2b01      	cmp	r3, #1
 8001282:	d0fb      	beq.n	800127c <main+0x2fc>

  			}
  			//HAL_ADC_Start_DMA(&hadc1, (uint32_t*)adc_buf, ADC_BUF_LEN);
  			state = 1;
 8001284:	4b17      	ldr	r3, [pc, #92]	; (80012e4 <main+0x364>)
 8001286:	2201      	movs	r2, #1
 8001288:	601a      	str	r2, [r3, #0]
  		}
  	}
  	if (state == 4) {
 800128a:	4b16      	ldr	r3, [pc, #88]	; (80012e4 <main+0x364>)
 800128c:	681b      	ldr	r3, [r3, #0]
 800128e:	2b04      	cmp	r3, #4
 8001290:	f47f aea2 	bne.w	8000fd8 <main+0x58>
  		for (int j = 0; j < NUM_FREQS; j++) {
 8001294:	2300      	movs	r3, #0
 8001296:	61fb      	str	r3, [r7, #28]
 8001298:	e01c      	b.n	80012d4 <main+0x354>
  			sprintf(msg, "%f\n", avg_freqs[j]);
 800129a:	4a17      	ldr	r2, [pc, #92]	; (80012f8 <main+0x378>)
 800129c:	69fb      	ldr	r3, [r7, #28]
 800129e:	009b      	lsls	r3, r3, #2
 80012a0:	4413      	add	r3, r2
 80012a2:	681b      	ldr	r3, [r3, #0]
 80012a4:	4618      	mov	r0, r3
 80012a6:	f7ff f96f 	bl	8000588 <__aeabi_f2d>
 80012aa:	4602      	mov	r2, r0
 80012ac:	460b      	mov	r3, r1
 80012ae:	1d38      	adds	r0, r7, #4
 80012b0:	4912      	ldr	r1, [pc, #72]	; (80012fc <main+0x37c>)
 80012b2:	f003 fd8d 	bl	8004dd0 <siprintf>
  			HAL_UART_Transmit(&huart2, (uint8_t*)msg, strlen(msg), HAL_MAX_DELAY);
 80012b6:	1d3b      	adds	r3, r7, #4
 80012b8:	4618      	mov	r0, r3
 80012ba:	f7fe ffa9 	bl	8000210 <strlen>
 80012be:	4603      	mov	r3, r0
 80012c0:	b29a      	uxth	r2, r3
 80012c2:	1d39      	adds	r1, r7, #4
 80012c4:	f04f 33ff 	mov.w	r3, #4294967295
 80012c8:	480d      	ldr	r0, [pc, #52]	; (8001300 <main+0x380>)
 80012ca:	f002 fe40 	bl	8003f4e <HAL_UART_Transmit>
  		for (int j = 0; j < NUM_FREQS; j++) {
 80012ce:	69fb      	ldr	r3, [r7, #28]
 80012d0:	3301      	adds	r3, #1
 80012d2:	61fb      	str	r3, [r7, #28]
 80012d4:	69fb      	ldr	r3, [r7, #28]
 80012d6:	f242 720f 	movw	r2, #9999	; 0x270f
 80012da:	4293      	cmp	r3, r2
 80012dc:	dddd      	ble.n	800129a <main+0x31a>
  		}
  		while (1) {
 80012de:	e7fe      	b.n	80012de <main+0x35e>
 80012e0:	20000208 	.word	0x20000208
 80012e4:	200001fc 	.word	0x200001fc
 80012e8:	200001f8 	.word	0x200001f8
 80012ec:	40020000 	.word	0x40020000
 80012f0:	20000204 	.word	0x20000204
 80012f4:	20013b90 	.word	0x20013b90
 80012f8:	20000268 	.word	0x20000268
 80012fc:	08007240 	.word	0x08007240
 8001300:	20013b4c 	.word	0x20013b4c

08001304 <SystemClock_Config>:
/**
  * @brief System Clock Configuration
  * @retval None
  */
void SystemClock_Config(void)
{
 8001304:	b580      	push	{r7, lr}
 8001306:	b094      	sub	sp, #80	; 0x50
 8001308:	af00      	add	r7, sp, #0
  RCC_OscInitTypeDef RCC_OscInitStruct = {0};
 800130a:	f107 031c 	add.w	r3, r7, #28
 800130e:	2234      	movs	r2, #52	; 0x34
 8001310:	2100      	movs	r1, #0
 8001312:	4618      	mov	r0, r3
 8001314:	f003 f8ea 	bl	80044ec <memset>
  RCC_ClkInitTypeDef RCC_ClkInitStruct = {0};
 8001318:	f107 0308 	add.w	r3, r7, #8
 800131c:	2200      	movs	r2, #0
 800131e:	601a      	str	r2, [r3, #0]
 8001320:	605a      	str	r2, [r3, #4]
 8001322:	609a      	str	r2, [r3, #8]
 8001324:	60da      	str	r2, [r3, #12]
 8001326:	611a      	str	r2, [r3, #16]

  /** Configure the main internal regulator output voltage
  */
  __HAL_RCC_PWR_CLK_ENABLE();
 8001328:	2300      	movs	r3, #0
 800132a:	607b      	str	r3, [r7, #4]
 800132c:	4b2f      	ldr	r3, [pc, #188]	; (80013ec <SystemClock_Config+0xe8>)
 800132e:	6c1b      	ldr	r3, [r3, #64]	; 0x40
 8001330:	4a2e      	ldr	r2, [pc, #184]	; (80013ec <SystemClock_Config+0xe8>)
 8001332:	f043 5380 	orr.w	r3, r3, #268435456	; 0x10000000
 8001336:	6413      	str	r3, [r2, #64]	; 0x40
 8001338:	4b2c      	ldr	r3, [pc, #176]	; (80013ec <SystemClock_Config+0xe8>)
 800133a:	6c1b      	ldr	r3, [r3, #64]	; 0x40
 800133c:	f003 5380 	and.w	r3, r3, #268435456	; 0x10000000
 8001340:	607b      	str	r3, [r7, #4]
 8001342:	687b      	ldr	r3, [r7, #4]
  __HAL_PWR_VOLTAGESCALING_CONFIG(PWR_REGULATOR_VOLTAGE_SCALE1);
 8001344:	2300      	movs	r3, #0
 8001346:	603b      	str	r3, [r7, #0]
 8001348:	4b29      	ldr	r3, [pc, #164]	; (80013f0 <SystemClock_Config+0xec>)
 800134a:	681b      	ldr	r3, [r3, #0]
 800134c:	4a28      	ldr	r2, [pc, #160]	; (80013f0 <SystemClock_Config+0xec>)
 800134e:	f443 4340 	orr.w	r3, r3, #49152	; 0xc000
 8001352:	6013      	str	r3, [r2, #0]
 8001354:	4b26      	ldr	r3, [pc, #152]	; (80013f0 <SystemClock_Config+0xec>)
 8001356:	681b      	ldr	r3, [r3, #0]
 8001358:	f403 4340 	and.w	r3, r3, #49152	; 0xc000
 800135c:	603b      	str	r3, [r7, #0]
 800135e:	683b      	ldr	r3, [r7, #0]
  /** Initializes the RCC Oscillators according to the specified parameters
  * in the RCC_OscInitTypeDef structure.
  */
  RCC_OscInitStruct.OscillatorType = RCC_OSCILLATORTYPE_HSI;
 8001360:	2302      	movs	r3, #2
 8001362:	61fb      	str	r3, [r7, #28]
  RCC_OscInitStruct.HSIState = RCC_HSI_ON;
 8001364:	2301      	movs	r3, #1
 8001366:	62bb      	str	r3, [r7, #40]	; 0x28
  RCC_OscInitStruct.HSICalibrationValue = RCC_HSICALIBRATION_DEFAULT;
 8001368:	2310      	movs	r3, #16
 800136a:	62fb      	str	r3, [r7, #44]	; 0x2c
  RCC_OscInitStruct.PLL.PLLState = RCC_PLL_ON;
 800136c:	2302      	movs	r3, #2
 800136e:	637b      	str	r3, [r7, #52]	; 0x34
  RCC_OscInitStruct.PLL.PLLSource = RCC_PLLSOURCE_HSI;
 8001370:	2300      	movs	r3, #0
 8001372:	63bb      	str	r3, [r7, #56]	; 0x38
  RCC_OscInitStruct.PLL.PLLM = 8;
 8001374:	2308      	movs	r3, #8
 8001376:	63fb      	str	r3, [r7, #60]	; 0x3c
  RCC_OscInitStruct.PLL.PLLN = 180;
 8001378:	23b4      	movs	r3, #180	; 0xb4
 800137a:	643b      	str	r3, [r7, #64]	; 0x40
  RCC_OscInitStruct.PLL.PLLP = RCC_PLLP_DIV2;
 800137c:	2302      	movs	r3, #2
 800137e:	647b      	str	r3, [r7, #68]	; 0x44
  RCC_OscInitStruct.PLL.PLLQ = 2;
 8001380:	2302      	movs	r3, #2
 8001382:	64bb      	str	r3, [r7, #72]	; 0x48
  RCC_OscInitStruct.PLL.PLLR = 2;
 8001384:	2302      	movs	r3, #2
 8001386:	64fb      	str	r3, [r7, #76]	; 0x4c
  if (HAL_RCC_OscConfig(&RCC_OscInitStruct) != HAL_OK)
 8001388:	f107 031c 	add.w	r3, r7, #28
 800138c:	4618      	mov	r0, r3
 800138e:	f002 f81f 	bl	80033d0 <HAL_RCC_OscConfig>
 8001392:	4603      	mov	r3, r0
 8001394:	2b00      	cmp	r3, #0
 8001396:	d001      	beq.n	800139c <SystemClock_Config+0x98>
  {
    Error_Handler();
 8001398:	f000 f996 	bl	80016c8 <Error_Handler>
  }
  /** Activate the Over-Drive mode
  */
  if (HAL_PWREx_EnableOverDrive() != HAL_OK)
 800139c:	f001 fc94 	bl	8002cc8 <HAL_PWREx_EnableOverDrive>
 80013a0:	4603      	mov	r3, r0
 80013a2:	2b00      	cmp	r3, #0
 80013a4:	d001      	beq.n	80013aa <SystemClock_Config+0xa6>
  {
    Error_Handler();
 80013a6:	f000 f98f 	bl	80016c8 <Error_Handler>
  }
  /** Initializes the CPU, AHB and APB buses clocks
  */
  RCC_ClkInitStruct.ClockType = RCC_CLOCKTYPE_HCLK|RCC_CLOCKTYPE_SYSCLK
 80013aa:	230f      	movs	r3, #15
 80013ac:	60bb      	str	r3, [r7, #8]
                              |RCC_CLOCKTYPE_PCLK1|RCC_CLOCKTYPE_PCLK2;
  RCC_ClkInitStruct.SYSCLKSource = RCC_SYSCLKSOURCE_PLLCLK;
 80013ae:	2302      	movs	r3, #2
 80013b0:	60fb      	str	r3, [r7, #12]
  RCC_ClkInitStruct.AHBCLKDivider = RCC_SYSCLK_DIV1;
 80013b2:	2300      	movs	r3, #0
 80013b4:	613b      	str	r3, [r7, #16]
  RCC_ClkInitStruct.APB1CLKDivider = RCC_HCLK_DIV4;
 80013b6:	f44f 53a0 	mov.w	r3, #5120	; 0x1400
 80013ba:	617b      	str	r3, [r7, #20]
  RCC_ClkInitStruct.APB2CLKDivider = RCC_HCLK_DIV2;
 80013bc:	f44f 5380 	mov.w	r3, #4096	; 0x1000
 80013c0:	61bb      	str	r3, [r7, #24]

  if (HAL_RCC_ClockConfig(&RCC_ClkInitStruct, FLASH_LATENCY_5) != HAL_OK)
 80013c2:	f107 0308 	add.w	r3, r7, #8
 80013c6:	2105      	movs	r1, #5
 80013c8:	4618      	mov	r0, r3
 80013ca:	f001 fccd 	bl	8002d68 <HAL_RCC_ClockConfig>
 80013ce:	4603      	mov	r3, r0
 80013d0:	2b00      	cmp	r3, #0
 80013d2:	d001      	beq.n	80013d8 <SystemClock_Config+0xd4>
  {
    Error_Handler();
 80013d4:	f000 f978 	bl	80016c8 <Error_Handler>
  }
  HAL_RCC_MCOConfig(RCC_MCO1, RCC_MCO1SOURCE_HSI, RCC_MCODIV_1);
 80013d8:	2200      	movs	r2, #0
 80013da:	2100      	movs	r1, #0
 80013dc:	2000      	movs	r0, #0
 80013de:	f001 fda9 	bl	8002f34 <HAL_RCC_MCOConfig>
}
 80013e2:	bf00      	nop
 80013e4:	3750      	adds	r7, #80	; 0x50
 80013e6:	46bd      	mov	sp, r7
 80013e8:	bd80      	pop	{r7, pc}
 80013ea:	bf00      	nop
 80013ec:	40023800 	.word	0x40023800
 80013f0:	40007000 	.word	0x40007000

080013f4 <MX_ADC1_Init>:
  * @brief ADC1 Initialization Function
  * @param None
  * @retval None
  */
static void MX_ADC1_Init(void)
{
 80013f4:	b580      	push	{r7, lr}
 80013f6:	b084      	sub	sp, #16
 80013f8:	af00      	add	r7, sp, #0

  /* USER CODE BEGIN ADC1_Init 0 */

  /* USER CODE END ADC1_Init 0 */

  ADC_ChannelConfTypeDef sConfig = {0};
 80013fa:	463b      	mov	r3, r7
 80013fc:	2200      	movs	r2, #0
 80013fe:	601a      	str	r2, [r3, #0]
 8001400:	605a      	str	r2, [r3, #4]
 8001402:	609a      	str	r2, [r3, #8]
 8001404:	60da      	str	r2, [r3, #12]
  /* USER CODE BEGIN ADC1_Init 1 */

  /* USER CODE END ADC1_Init 1 */
  /** Configure the global features of the ADC (Clock, Resolution, Data Alignment and number of conversion)
  */
  hadc1.Instance = ADC1;
 8001406:	4b21      	ldr	r3, [pc, #132]	; (800148c <MX_ADC1_Init+0x98>)
 8001408:	4a21      	ldr	r2, [pc, #132]	; (8001490 <MX_ADC1_Init+0x9c>)
 800140a:	601a      	str	r2, [r3, #0]
  hadc1.Init.ClockPrescaler = ADC_CLOCK_SYNC_PCLK_DIV4;
 800140c:	4b1f      	ldr	r3, [pc, #124]	; (800148c <MX_ADC1_Init+0x98>)
 800140e:	f44f 3280 	mov.w	r2, #65536	; 0x10000
 8001412:	605a      	str	r2, [r3, #4]
  hadc1.Init.Resolution = ADC_RESOLUTION_12B;
 8001414:	4b1d      	ldr	r3, [pc, #116]	; (800148c <MX_ADC1_Init+0x98>)
 8001416:	2200      	movs	r2, #0
 8001418:	609a      	str	r2, [r3, #8]
  hadc1.Init.ScanConvMode = DISABLE;
 800141a:	4b1c      	ldr	r3, [pc, #112]	; (800148c <MX_ADC1_Init+0x98>)
 800141c:	2200      	movs	r2, #0
 800141e:	611a      	str	r2, [r3, #16]
  hadc1.Init.ContinuousConvMode = ENABLE;
 8001420:	4b1a      	ldr	r3, [pc, #104]	; (800148c <MX_ADC1_Init+0x98>)
 8001422:	2201      	movs	r2, #1
 8001424:	761a      	strb	r2, [r3, #24]
  hadc1.Init.DiscontinuousConvMode = DISABLE;
 8001426:	4b19      	ldr	r3, [pc, #100]	; (800148c <MX_ADC1_Init+0x98>)
 8001428:	2200      	movs	r2, #0
 800142a:	f883 2020 	strb.w	r2, [r3, #32]
  hadc1.Init.ExternalTrigConvEdge = ADC_EXTERNALTRIGCONVEDGE_NONE;
 800142e:	4b17      	ldr	r3, [pc, #92]	; (800148c <MX_ADC1_Init+0x98>)
 8001430:	2200      	movs	r2, #0
 8001432:	62da      	str	r2, [r3, #44]	; 0x2c
  hadc1.Init.ExternalTrigConv = ADC_SOFTWARE_START;
 8001434:	4b15      	ldr	r3, [pc, #84]	; (800148c <MX_ADC1_Init+0x98>)
 8001436:	4a17      	ldr	r2, [pc, #92]	; (8001494 <MX_ADC1_Init+0xa0>)
 8001438:	629a      	str	r2, [r3, #40]	; 0x28
  hadc1.Init.DataAlign = ADC_DATAALIGN_RIGHT;
 800143a:	4b14      	ldr	r3, [pc, #80]	; (800148c <MX_ADC1_Init+0x98>)
 800143c:	2200      	movs	r2, #0
 800143e:	60da      	str	r2, [r3, #12]
  hadc1.Init.NbrOfConversion = 1;
 8001440:	4b12      	ldr	r3, [pc, #72]	; (800148c <MX_ADC1_Init+0x98>)
 8001442:	2201      	movs	r2, #1
 8001444:	61da      	str	r2, [r3, #28]
  hadc1.Init.DMAContinuousRequests = ENABLE;
 8001446:	4b11      	ldr	r3, [pc, #68]	; (800148c <MX_ADC1_Init+0x98>)
 8001448:	2201      	movs	r2, #1
 800144a:	f883 2030 	strb.w	r2, [r3, #48]	; 0x30
  hadc1.Init.EOCSelection = ADC_EOC_SINGLE_CONV;
 800144e:	4b0f      	ldr	r3, [pc, #60]	; (800148c <MX_ADC1_Init+0x98>)
 8001450:	2201      	movs	r2, #1
 8001452:	615a      	str	r2, [r3, #20]
  if (HAL_ADC_Init(&hadc1) != HAL_OK)
 8001454:	480d      	ldr	r0, [pc, #52]	; (800148c <MX_ADC1_Init+0x98>)
 8001456:	f000 fc01 	bl	8001c5c <HAL_ADC_Init>
 800145a:	4603      	mov	r3, r0
 800145c:	2b00      	cmp	r3, #0
 800145e:	d001      	beq.n	8001464 <MX_ADC1_Init+0x70>
  {
    Error_Handler();
 8001460:	f000 f932 	bl	80016c8 <Error_Handler>
  }
  /** Configure for the selected ADC regular channel its corresponding rank in the sequencer and its sample time.
  */
  sConfig.Channel = ADC_CHANNEL_1;
 8001464:	2301      	movs	r3, #1
 8001466:	603b      	str	r3, [r7, #0]
  sConfig.Rank = 1;
 8001468:	2301      	movs	r3, #1
 800146a:	607b      	str	r3, [r7, #4]
  sConfig.SamplingTime = ADC_SAMPLETIME_3CYCLES;
 800146c:	2300      	movs	r3, #0
 800146e:	60bb      	str	r3, [r7, #8]
  if (HAL_ADC_ConfigChannel(&hadc1, &sConfig) != HAL_OK)
 8001470:	463b      	mov	r3, r7
 8001472:	4619      	mov	r1, r3
 8001474:	4805      	ldr	r0, [pc, #20]	; (800148c <MX_ADC1_Init+0x98>)
 8001476:	f000 fc35 	bl	8001ce4 <HAL_ADC_ConfigChannel>
 800147a:	4603      	mov	r3, r0
 800147c:	2b00      	cmp	r3, #0
 800147e:	d001      	beq.n	8001484 <MX_ADC1_Init+0x90>
  {
    Error_Handler();
 8001480:	f000 f922 	bl	80016c8 <Error_Handler>
  }
  /* USER CODE BEGIN ADC1_Init 2 */

  /* USER CODE END ADC1_Init 2 */

}
 8001484:	bf00      	nop
 8001486:	3710      	adds	r7, #16
 8001488:	46bd      	mov	sp, r7
 800148a:	bd80      	pop	{r7, pc}
 800148c:	20000220 	.word	0x20000220
 8001490:	40012000 	.word	0x40012000
 8001494:	0f000001 	.word	0x0f000001

08001498 <MX_TIM14_Init>:
  * @brief TIM14 Initialization Function
  * @param None
  * @retval None
  */
static void MX_TIM14_Init(void)
{
 8001498:	b580      	push	{r7, lr}
 800149a:	af00      	add	r7, sp, #0
  /* USER CODE END TIM14_Init 0 */

  /* USER CODE BEGIN TIM14_Init 1 */

  /* USER CODE END TIM14_Init 1 */
  htim14.Instance = TIM14;
 800149c:	4b0d      	ldr	r3, [pc, #52]	; (80014d4 <MX_TIM14_Init+0x3c>)
 800149e:	4a0e      	ldr	r2, [pc, #56]	; (80014d8 <MX_TIM14_Init+0x40>)
 80014a0:	601a      	str	r2, [r3, #0]
  htim14.Init.Prescaler = 90-1;
 80014a2:	4b0c      	ldr	r3, [pc, #48]	; (80014d4 <MX_TIM14_Init+0x3c>)
 80014a4:	2259      	movs	r2, #89	; 0x59
 80014a6:	605a      	str	r2, [r3, #4]
  htim14.Init.CounterMode = TIM_COUNTERMODE_UP;
 80014a8:	4b0a      	ldr	r3, [pc, #40]	; (80014d4 <MX_TIM14_Init+0x3c>)
 80014aa:	2200      	movs	r2, #0
 80014ac:	609a      	str	r2, [r3, #8]
  htim14.Init.Period = 10-1;
 80014ae:	4b09      	ldr	r3, [pc, #36]	; (80014d4 <MX_TIM14_Init+0x3c>)
 80014b0:	2209      	movs	r2, #9
 80014b2:	60da      	str	r2, [r3, #12]
  htim14.Init.ClockDivision = TIM_CLOCKDIVISION_DIV1;
 80014b4:	4b07      	ldr	r3, [pc, #28]	; (80014d4 <MX_TIM14_Init+0x3c>)
 80014b6:	2200      	movs	r2, #0
 80014b8:	611a      	str	r2, [r3, #16]
  htim14.Init.AutoReloadPreload = TIM_AUTORELOAD_PRELOAD_ENABLE;
 80014ba:	4b06      	ldr	r3, [pc, #24]	; (80014d4 <MX_TIM14_Init+0x3c>)
 80014bc:	2280      	movs	r2, #128	; 0x80
 80014be:	619a      	str	r2, [r3, #24]
  if (HAL_TIM_Base_Init(&htim14) != HAL_OK)
 80014c0:	4804      	ldr	r0, [pc, #16]	; (80014d4 <MX_TIM14_Init+0x3c>)
 80014c2:	f002 fa23 	bl	800390c <HAL_TIM_Base_Init>
 80014c6:	4603      	mov	r3, r0
 80014c8:	2b00      	cmp	r3, #0
 80014ca:	d001      	beq.n	80014d0 <MX_TIM14_Init+0x38>
  {
    Error_Handler();
 80014cc:	f000 f8fc 	bl	80016c8 <Error_Handler>
  }
  /* USER CODE BEGIN TIM14_Init 2 */

  /* USER CODE END TIM14_Init 2 */

}
 80014d0:	bf00      	nop
 80014d2:	bd80      	pop	{r7, pc}
 80014d4:	20013b90 	.word	0x20013b90
 80014d8:	40002000 	.word	0x40002000

080014dc <MX_USART2_UART_Init>:
  * @brief USART2 Initialization Function
  * @param None
  * @retval None
  */
static void MX_USART2_UART_Init(void)
{
 80014dc:	b580      	push	{r7, lr}
 80014de:	af00      	add	r7, sp, #0
  /* USER CODE END USART2_Init 0 */

  /* USER CODE BEGIN USART2_Init 1 */

  /* USER CODE END USART2_Init 1 */
  huart2.Instance = USART2;
 80014e0:	4b11      	ldr	r3, [pc, #68]	; (8001528 <MX_USART2_UART_Init+0x4c>)
 80014e2:	4a12      	ldr	r2, [pc, #72]	; (800152c <MX_USART2_UART_Init+0x50>)
 80014e4:	601a      	str	r2, [r3, #0]
  huart2.Init.BaudRate = 115200;
 80014e6:	4b10      	ldr	r3, [pc, #64]	; (8001528 <MX_USART2_UART_Init+0x4c>)
 80014e8:	f44f 32e1 	mov.w	r2, #115200	; 0x1c200
 80014ec:	605a      	str	r2, [r3, #4]
  huart2.Init.WordLength = UART_WORDLENGTH_8B;
 80014ee:	4b0e      	ldr	r3, [pc, #56]	; (8001528 <MX_USART2_UART_Init+0x4c>)
 80014f0:	2200      	movs	r2, #0
 80014f2:	609a      	str	r2, [r3, #8]
  huart2.Init.StopBits = UART_STOPBITS_1;
 80014f4:	4b0c      	ldr	r3, [pc, #48]	; (8001528 <MX_USART2_UART_Init+0x4c>)
 80014f6:	2200      	movs	r2, #0
 80014f8:	60da      	str	r2, [r3, #12]
  huart2.Init.Parity = UART_PARITY_NONE;
 80014fa:	4b0b      	ldr	r3, [pc, #44]	; (8001528 <MX_USART2_UART_Init+0x4c>)
 80014fc:	2200      	movs	r2, #0
 80014fe:	611a      	str	r2, [r3, #16]
  huart2.Init.Mode = UART_MODE_TX_RX;
 8001500:	4b09      	ldr	r3, [pc, #36]	; (8001528 <MX_USART2_UART_Init+0x4c>)
 8001502:	220c      	movs	r2, #12
 8001504:	615a      	str	r2, [r3, #20]
  huart2.Init.HwFlowCtl = UART_HWCONTROL_NONE;
 8001506:	4b08      	ldr	r3, [pc, #32]	; (8001528 <MX_USART2_UART_Init+0x4c>)
 8001508:	2200      	movs	r2, #0
 800150a:	619a      	str	r2, [r3, #24]
  huart2.Init.OverSampling = UART_OVERSAMPLING_16;
 800150c:	4b06      	ldr	r3, [pc, #24]	; (8001528 <MX_USART2_UART_Init+0x4c>)
 800150e:	2200      	movs	r2, #0
 8001510:	61da      	str	r2, [r3, #28]
  if (HAL_UART_Init(&huart2) != HAL_OK)
 8001512:	4805      	ldr	r0, [pc, #20]	; (8001528 <MX_USART2_UART_Init+0x4c>)
 8001514:	f002 fcce 	bl	8003eb4 <HAL_UART_Init>
 8001518:	4603      	mov	r3, r0
 800151a:	2b00      	cmp	r3, #0
 800151c:	d001      	beq.n	8001522 <MX_USART2_UART_Init+0x46>
  {
    Error_Handler();
 800151e:	f000 f8d3 	bl	80016c8 <Error_Handler>
  }
  /* USER CODE BEGIN USART2_Init 2 */

  /* USER CODE END USART2_Init 2 */

}
 8001522:	bf00      	nop
 8001524:	bd80      	pop	{r7, pc}
 8001526:	bf00      	nop
 8001528:	20013b4c 	.word	0x20013b4c
 800152c:	40004400 	.word	0x40004400

08001530 <MX_DMA_Init>:

/**
  * Enable DMA controller clock
  */
static void MX_DMA_Init(void)
{
 8001530:	b580      	push	{r7, lr}
 8001532:	b082      	sub	sp, #8
 8001534:	af00      	add	r7, sp, #0

  /* DMA controller clock enable */
  __HAL_RCC_DMA2_CLK_ENABLE();
 8001536:	2300      	movs	r3, #0
 8001538:	607b      	str	r3, [r7, #4]
 800153a:	4b0c      	ldr	r3, [pc, #48]	; (800156c <MX_DMA_Init+0x3c>)
 800153c:	6b1b      	ldr	r3, [r3, #48]	; 0x30
 800153e:	4a0b      	ldr	r2, [pc, #44]	; (800156c <MX_DMA_Init+0x3c>)
 8001540:	f443 0380 	orr.w	r3, r3, #4194304	; 0x400000
 8001544:	6313      	str	r3, [r2, #48]	; 0x30
 8001546:	4b09      	ldr	r3, [pc, #36]	; (800156c <MX_DMA_Init+0x3c>)
 8001548:	6b1b      	ldr	r3, [r3, #48]	; 0x30
 800154a:	f403 0380 	and.w	r3, r3, #4194304	; 0x400000
 800154e:	607b      	str	r3, [r7, #4]
 8001550:	687b      	ldr	r3, [r7, #4]

  /* DMA interrupt init */
  /* DMA2_Stream0_IRQn interrupt configuration */
  HAL_NVIC_SetPriority(DMA2_Stream0_IRQn, 0, 0);
 8001552:	2200      	movs	r2, #0
 8001554:	2100      	movs	r1, #0
 8001556:	2038      	movs	r0, #56	; 0x38
 8001558:	f000 fecd 	bl	80022f6 <HAL_NVIC_SetPriority>
  HAL_NVIC_EnableIRQ(DMA2_Stream0_IRQn);
 800155c:	2038      	movs	r0, #56	; 0x38
 800155e:	f000 fee6 	bl	800232e <HAL_NVIC_EnableIRQ>

}
 8001562:	bf00      	nop
 8001564:	3708      	adds	r7, #8
 8001566:	46bd      	mov	sp, r7
 8001568:	bd80      	pop	{r7, pc}
 800156a:	bf00      	nop
 800156c:	40023800 	.word	0x40023800

08001570 <MX_GPIO_Init>:
  * @brief GPIO Initialization Function
  * @param None
  * @retval None
  */
static void MX_GPIO_Init(void)
{
 8001570:	b580      	push	{r7, lr}
 8001572:	b08a      	sub	sp, #40	; 0x28
 8001574:	af00      	add	r7, sp, #0
  GPIO_InitTypeDef GPIO_InitStruct = {0};
 8001576:	f107 0314 	add.w	r3, r7, #20
 800157a:	2200      	movs	r2, #0
 800157c:	601a      	str	r2, [r3, #0]
 800157e:	605a      	str	r2, [r3, #4]
 8001580:	609a      	str	r2, [r3, #8]
 8001582:	60da      	str	r2, [r3, #12]
 8001584:	611a      	str	r2, [r3, #16]

  /* GPIO Ports Clock Enable */
  __HAL_RCC_GPIOC_CLK_ENABLE();
 8001586:	2300      	movs	r3, #0
 8001588:	613b      	str	r3, [r7, #16]
 800158a:	4b36      	ldr	r3, [pc, #216]	; (8001664 <MX_GPIO_Init+0xf4>)
 800158c:	6b1b      	ldr	r3, [r3, #48]	; 0x30
 800158e:	4a35      	ldr	r2, [pc, #212]	; (8001664 <MX_GPIO_Init+0xf4>)
 8001590:	f043 0304 	orr.w	r3, r3, #4
 8001594:	6313      	str	r3, [r2, #48]	; 0x30
 8001596:	4b33      	ldr	r3, [pc, #204]	; (8001664 <MX_GPIO_Init+0xf4>)
 8001598:	6b1b      	ldr	r3, [r3, #48]	; 0x30
 800159a:	f003 0304 	and.w	r3, r3, #4
 800159e:	613b      	str	r3, [r7, #16]
 80015a0:	693b      	ldr	r3, [r7, #16]
  __HAL_RCC_GPIOH_CLK_ENABLE();
 80015a2:	2300      	movs	r3, #0
 80015a4:	60fb      	str	r3, [r7, #12]
 80015a6:	4b2f      	ldr	r3, [pc, #188]	; (8001664 <MX_GPIO_Init+0xf4>)
 80015a8:	6b1b      	ldr	r3, [r3, #48]	; 0x30
 80015aa:	4a2e      	ldr	r2, [pc, #184]	; (8001664 <MX_GPIO_Init+0xf4>)
 80015ac:	f043 0380 	orr.w	r3, r3, #128	; 0x80
 80015b0:	6313      	str	r3, [r2, #48]	; 0x30
 80015b2:	4b2c      	ldr	r3, [pc, #176]	; (8001664 <MX_GPIO_Init+0xf4>)
 80015b4:	6b1b      	ldr	r3, [r3, #48]	; 0x30
 80015b6:	f003 0380 	and.w	r3, r3, #128	; 0x80
 80015ba:	60fb      	str	r3, [r7, #12]
 80015bc:	68fb      	ldr	r3, [r7, #12]
  __HAL_RCC_GPIOA_CLK_ENABLE();
 80015be:	2300      	movs	r3, #0
 80015c0:	60bb      	str	r3, [r7, #8]
 80015c2:	4b28      	ldr	r3, [pc, #160]	; (8001664 <MX_GPIO_Init+0xf4>)
 80015c4:	6b1b      	ldr	r3, [r3, #48]	; 0x30
 80015c6:	4a27      	ldr	r2, [pc, #156]	; (8001664 <MX_GPIO_Init+0xf4>)
 80015c8:	f043 0301 	orr.w	r3, r3, #1
 80015cc:	6313      	str	r3, [r2, #48]	; 0x30
 80015ce:	4b25      	ldr	r3, [pc, #148]	; (8001664 <MX_GPIO_Init+0xf4>)
 80015d0:	6b1b      	ldr	r3, [r3, #48]	; 0x30
 80015d2:	f003 0301 	and.w	r3, r3, #1
 80015d6:	60bb      	str	r3, [r7, #8]
 80015d8:	68bb      	ldr	r3, [r7, #8]
  __HAL_RCC_GPIOB_CLK_ENABLE();
 80015da:	2300      	movs	r3, #0
 80015dc:	607b      	str	r3, [r7, #4]
 80015de:	4b21      	ldr	r3, [pc, #132]	; (8001664 <MX_GPIO_Init+0xf4>)
 80015e0:	6b1b      	ldr	r3, [r3, #48]	; 0x30
 80015e2:	4a20      	ldr	r2, [pc, #128]	; (8001664 <MX_GPIO_Init+0xf4>)
 80015e4:	f043 0302 	orr.w	r3, r3, #2
 80015e8:	6313      	str	r3, [r2, #48]	; 0x30
 80015ea:	4b1e      	ldr	r3, [pc, #120]	; (8001664 <MX_GPIO_Init+0xf4>)
 80015ec:	6b1b      	ldr	r3, [r3, #48]	; 0x30
 80015ee:	f003 0302 	and.w	r3, r3, #2
 80015f2:	607b      	str	r3, [r7, #4]
 80015f4:	687b      	ldr	r3, [r7, #4]

  /*Configure GPIO pin Output Level */
  HAL_GPIO_WritePin(GPIOA, LD2_Pin|GPIO_PIN_10, GPIO_PIN_RESET);
 80015f6:	2200      	movs	r2, #0
 80015f8:	f44f 6184 	mov.w	r1, #1056	; 0x420
 80015fc:	481a      	ldr	r0, [pc, #104]	; (8001668 <MX_GPIO_Init+0xf8>)
 80015fe:	f001 fb2f 	bl	8002c60 <HAL_GPIO_WritePin>

  /*Configure GPIO pin : B1_Pin */
  GPIO_InitStruct.Pin = B1_Pin;
 8001602:	f44f 5300 	mov.w	r3, #8192	; 0x2000
 8001606:	617b      	str	r3, [r7, #20]
  GPIO_InitStruct.Mode = GPIO_MODE_IT_FALLING;
 8001608:	4b18      	ldr	r3, [pc, #96]	; (800166c <MX_GPIO_Init+0xfc>)
 800160a:	61bb      	str	r3, [r7, #24]
  GPIO_InitStruct.Pull = GPIO_NOPULL;
 800160c:	2300      	movs	r3, #0
 800160e:	61fb      	str	r3, [r7, #28]
  HAL_GPIO_Init(B1_GPIO_Port, &GPIO_InitStruct);
 8001610:	f107 0314 	add.w	r3, r7, #20
 8001614:	4619      	mov	r1, r3
 8001616:	4816      	ldr	r0, [pc, #88]	; (8001670 <MX_GPIO_Init+0x100>)
 8001618:	f001 f98e 	bl	8002938 <HAL_GPIO_Init>

  /*Configure GPIO pins : LD2_Pin PA10 */
  GPIO_InitStruct.Pin = LD2_Pin|GPIO_PIN_10;
 800161c:	f44f 6384 	mov.w	r3, #1056	; 0x420
 8001620:	617b      	str	r3, [r7, #20]
  GPIO_InitStruct.Mode = GPIO_MODE_OUTPUT_PP;
 8001622:	2301      	movs	r3, #1
 8001624:	61bb      	str	r3, [r7, #24]
  GPIO_InitStruct.Pull = GPIO_NOPULL;
 8001626:	2300      	movs	r3, #0
 8001628:	61fb      	str	r3, [r7, #28]
  GPIO_InitStruct.Speed = GPIO_SPEED_FREQ_LOW;
 800162a:	2300      	movs	r3, #0
 800162c:	623b      	str	r3, [r7, #32]
  HAL_GPIO_Init(GPIOA, &GPIO_InitStruct);
 800162e:	f107 0314 	add.w	r3, r7, #20
 8001632:	4619      	mov	r1, r3
 8001634:	480c      	ldr	r0, [pc, #48]	; (8001668 <MX_GPIO_Init+0xf8>)
 8001636:	f001 f97f 	bl	8002938 <HAL_GPIO_Init>

  /*Configure GPIO pin : PA8 */
  GPIO_InitStruct.Pin = GPIO_PIN_8;
 800163a:	f44f 7380 	mov.w	r3, #256	; 0x100
 800163e:	617b      	str	r3, [r7, #20]
  GPIO_InitStruct.Mode = GPIO_MODE_AF_PP;
 8001640:	2302      	movs	r3, #2
 8001642:	61bb      	str	r3, [r7, #24]
  GPIO_InitStruct.Pull = GPIO_NOPULL;
 8001644:	2300      	movs	r3, #0
 8001646:	61fb      	str	r3, [r7, #28]
  GPIO_InitStruct.Speed = GPIO_SPEED_FREQ_LOW;
 8001648:	2300      	movs	r3, #0
 800164a:	623b      	str	r3, [r7, #32]
  GPIO_InitStruct.Alternate = GPIO_AF0_MCO;
 800164c:	2300      	movs	r3, #0
 800164e:	627b      	str	r3, [r7, #36]	; 0x24
  HAL_GPIO_Init(GPIOA, &GPIO_InitStruct);
 8001650:	f107 0314 	add.w	r3, r7, #20
 8001654:	4619      	mov	r1, r3
 8001656:	4804      	ldr	r0, [pc, #16]	; (8001668 <MX_GPIO_Init+0xf8>)
 8001658:	f001 f96e 	bl	8002938 <HAL_GPIO_Init>

}
 800165c:	bf00      	nop
 800165e:	3728      	adds	r7, #40	; 0x28
 8001660:	46bd      	mov	sp, r7
 8001662:	bd80      	pop	{r7, pc}
 8001664:	40023800 	.word	0x40023800
 8001668:	40020000 	.word	0x40020000
 800166c:	10210000 	.word	0x10210000
 8001670:	40020800 	.word	0x40020800

08001674 <HAL_TIM_PeriodElapsedCallback>:
void HAL_ADC_ConvCpltCallback(ADC_HandleTypeDef* hadc) {
	//HAL_GPIO_WritePin(LD2_GPIO_Port, LD2_Pin, GPIO_PIN_RESET);
	state = 1;
}

void HAL_TIM_PeriodElapsedCallback(TIM_HandleTypeDef* htim) {
 8001674:	b480      	push	{r7}
 8001676:	b083      	sub	sp, #12
 8001678:	af00      	add	r7, sp, #0
 800167a:	6078      	str	r0, [r7, #4]
	if (delay == 1) {
 800167c:	4b10      	ldr	r3, [pc, #64]	; (80016c0 <HAL_TIM_PeriodElapsedCallback+0x4c>)
 800167e:	681b      	ldr	r3, [r3, #0]
 8001680:	2b01      	cmp	r3, #1
 8001682:	d102      	bne.n	800168a <HAL_TIM_PeriodElapsedCallback+0x16>
		//char delay_msg[16];
		//sprintf(delay_msg, "%d\n", -1);
		//HAL_UART_Transmit(&huart2, (uint8_t*)delay_msg, strlen(delay_msg), HAL_MAX_DELAY);
//		HAL_Delay(LASER_DELAY);
		delay = 0;
 8001684:	4b0e      	ldr	r3, [pc, #56]	; (80016c0 <HAL_TIM_PeriodElapsedCallback+0x4c>)
 8001686:	2200      	movs	r2, #0
 8001688:	601a      	str	r2, [r3, #0]
//		state = next_state;
	}
	if (delay == 2) {
 800168a:	4b0d      	ldr	r3, [pc, #52]	; (80016c0 <HAL_TIM_PeriodElapsedCallback+0x4c>)
 800168c:	681b      	ldr	r3, [r3, #0]
 800168e:	2b02      	cmp	r3, #2
 8001690:	d10f      	bne.n	80016b2 <HAL_TIM_PeriodElapsedCallback+0x3e>
		//char delay_msg[16];
		//sprintf(delay_msg, "%d\n", -2);
		//HAL_UART_Transmit(&huart2, (uint8_t*)delay_msg, strlen(delay_msg), HAL_MAX_DELAY);
//		HAL_Delay(COOLDOWN);
		if (cooldown_count == COOLDOWN - 1) {
 8001692:	4b0c      	ldr	r3, [pc, #48]	; (80016c4 <HAL_TIM_PeriodElapsedCallback+0x50>)
 8001694:	681b      	ldr	r3, [r3, #0]
 8001696:	2b09      	cmp	r3, #9
 8001698:	d106      	bne.n	80016a8 <HAL_TIM_PeriodElapsedCallback+0x34>
			delay = 0;
 800169a:	4b09      	ldr	r3, [pc, #36]	; (80016c0 <HAL_TIM_PeriodElapsedCallback+0x4c>)
 800169c:	2200      	movs	r2, #0
 800169e:	601a      	str	r2, [r3, #0]
			cooldown_count = 0;
 80016a0:	4b08      	ldr	r3, [pc, #32]	; (80016c4 <HAL_TIM_PeriodElapsedCallback+0x50>)
 80016a2:	2200      	movs	r2, #0
 80016a4:	601a      	str	r2, [r3, #0]
		} else {
			cooldown_count += 1;
		}
	}
}
 80016a6:	e004      	b.n	80016b2 <HAL_TIM_PeriodElapsedCallback+0x3e>
			cooldown_count += 1;
 80016a8:	4b06      	ldr	r3, [pc, #24]	; (80016c4 <HAL_TIM_PeriodElapsedCallback+0x50>)
 80016aa:	681b      	ldr	r3, [r3, #0]
 80016ac:	3301      	adds	r3, #1
 80016ae:	4a05      	ldr	r2, [pc, #20]	; (80016c4 <HAL_TIM_PeriodElapsedCallback+0x50>)
 80016b0:	6013      	str	r3, [r2, #0]
}
 80016b2:	bf00      	nop
 80016b4:	370c      	adds	r7, #12
 80016b6:	46bd      	mov	sp, r7
 80016b8:	f85d 7b04 	ldr.w	r7, [sp], #4
 80016bc:	4770      	bx	lr
 80016be:	bf00      	nop
 80016c0:	20000204 	.word	0x20000204
 80016c4:	20000200 	.word	0x20000200

080016c8 <Error_Handler>:
/**
  * @brief  This function is executed in case of error occurrence.
  * @retval None
  */
void Error_Handler(void)
{
 80016c8:	b480      	push	{r7}
 80016ca:	af00      	add	r7, sp, #0
  \details Disables IRQ interrupts by setting the I-bit in the CPSR.
           Can only be executed in Privileged modes.
 */
__STATIC_FORCEINLINE void __disable_irq(void)
{
  __ASM volatile ("cpsid i" : : : "memory");
 80016cc:	b672      	cpsid	i
}
 80016ce:	bf00      	nop
  /* USER CODE BEGIN Error_Handler_Debug */
  /* User can add his own implementation to report the HAL error return state */
  __disable_irq();
  while (1)
 80016d0:	e7fe      	b.n	80016d0 <Error_Handler+0x8>
	...

080016d4 <HAL_MspInit>:
/* USER CODE END 0 */
/**
  * Initializes the Global MSP.
  */
void HAL_MspInit(void)
{
 80016d4:	b580      	push	{r7, lr}
 80016d6:	b082      	sub	sp, #8
 80016d8:	af00      	add	r7, sp, #0
  /* USER CODE BEGIN MspInit 0 */

  /* USER CODE END MspInit 0 */

  __HAL_RCC_SYSCFG_CLK_ENABLE();
 80016da:	2300      	movs	r3, #0
 80016dc:	607b      	str	r3, [r7, #4]
 80016de:	4b10      	ldr	r3, [pc, #64]	; (8001720 <HAL_MspInit+0x4c>)
 80016e0:	6c5b      	ldr	r3, [r3, #68]	; 0x44
 80016e2:	4a0f      	ldr	r2, [pc, #60]	; (8001720 <HAL_MspInit+0x4c>)
 80016e4:	f443 4380 	orr.w	r3, r3, #16384	; 0x4000
 80016e8:	6453      	str	r3, [r2, #68]	; 0x44
 80016ea:	4b0d      	ldr	r3, [pc, #52]	; (8001720 <HAL_MspInit+0x4c>)
 80016ec:	6c5b      	ldr	r3, [r3, #68]	; 0x44
 80016ee:	f403 4380 	and.w	r3, r3, #16384	; 0x4000
 80016f2:	607b      	str	r3, [r7, #4]
 80016f4:	687b      	ldr	r3, [r7, #4]
  __HAL_RCC_PWR_CLK_ENABLE();
 80016f6:	2300      	movs	r3, #0
 80016f8:	603b      	str	r3, [r7, #0]
 80016fa:	4b09      	ldr	r3, [pc, #36]	; (8001720 <HAL_MspInit+0x4c>)
 80016fc:	6c1b      	ldr	r3, [r3, #64]	; 0x40
 80016fe:	4a08      	ldr	r2, [pc, #32]	; (8001720 <HAL_MspInit+0x4c>)
 8001700:	f043 5380 	orr.w	r3, r3, #268435456	; 0x10000000
 8001704:	6413      	str	r3, [r2, #64]	; 0x40
 8001706:	4b06      	ldr	r3, [pc, #24]	; (8001720 <HAL_MspInit+0x4c>)
 8001708:	6c1b      	ldr	r3, [r3, #64]	; 0x40
 800170a:	f003 5380 	and.w	r3, r3, #268435456	; 0x10000000
 800170e:	603b      	str	r3, [r7, #0]
 8001710:	683b      	ldr	r3, [r7, #0]

  HAL_NVIC_SetPriorityGrouping(NVIC_PRIORITYGROUP_0);
 8001712:	2007      	movs	r0, #7
 8001714:	f000 fde4 	bl	80022e0 <HAL_NVIC_SetPriorityGrouping>
  /* System interrupt init*/

  /* USER CODE BEGIN MspInit 1 */

  /* USER CODE END MspInit 1 */
}
 8001718:	bf00      	nop
 800171a:	3708      	adds	r7, #8
 800171c:	46bd      	mov	sp, r7
 800171e:	bd80      	pop	{r7, pc}
 8001720:	40023800 	.word	0x40023800

08001724 <HAL_ADC_MspInit>:
* This function configures the hardware resources used in this example
* @param hadc: ADC handle pointer
* @retval None
*/
void HAL_ADC_MspInit(ADC_HandleTypeDef* hadc)
{
 8001724:	b580      	push	{r7, lr}
 8001726:	b08a      	sub	sp, #40	; 0x28
 8001728:	af00      	add	r7, sp, #0
 800172a:	6078      	str	r0, [r7, #4]
  GPIO_InitTypeDef GPIO_InitStruct = {0};
 800172c:	f107 0314 	add.w	r3, r7, #20
 8001730:	2200      	movs	r2, #0
 8001732:	601a      	str	r2, [r3, #0]
 8001734:	605a      	str	r2, [r3, #4]
 8001736:	609a      	str	r2, [r3, #8]
 8001738:	60da      	str	r2, [r3, #12]
 800173a:	611a      	str	r2, [r3, #16]
  if(hadc->Instance==ADC1)
 800173c:	687b      	ldr	r3, [r7, #4]
 800173e:	681b      	ldr	r3, [r3, #0]
 8001740:	4a2e      	ldr	r2, [pc, #184]	; (80017fc <HAL_ADC_MspInit+0xd8>)
 8001742:	4293      	cmp	r3, r2
 8001744:	d156      	bne.n	80017f4 <HAL_ADC_MspInit+0xd0>
  {
  /* USER CODE BEGIN ADC1_MspInit 0 */

  /* USER CODE END ADC1_MspInit 0 */
    /* Peripheral clock enable */
    __HAL_RCC_ADC1_CLK_ENABLE();
 8001746:	2300      	movs	r3, #0
 8001748:	613b      	str	r3, [r7, #16]
 800174a:	4b2d      	ldr	r3, [pc, #180]	; (8001800 <HAL_ADC_MspInit+0xdc>)
 800174c:	6c5b      	ldr	r3, [r3, #68]	; 0x44
 800174e:	4a2c      	ldr	r2, [pc, #176]	; (8001800 <HAL_ADC_MspInit+0xdc>)
 8001750:	f443 7380 	orr.w	r3, r3, #256	; 0x100
 8001754:	6453      	str	r3, [r2, #68]	; 0x44
 8001756:	4b2a      	ldr	r3, [pc, #168]	; (8001800 <HAL_ADC_MspInit+0xdc>)
 8001758:	6c5b      	ldr	r3, [r3, #68]	; 0x44
 800175a:	f403 7380 	and.w	r3, r3, #256	; 0x100
 800175e:	613b      	str	r3, [r7, #16]
 8001760:	693b      	ldr	r3, [r7, #16]

    __HAL_RCC_GPIOA_CLK_ENABLE();
 8001762:	2300      	movs	r3, #0
 8001764:	60fb      	str	r3, [r7, #12]
 8001766:	4b26      	ldr	r3, [pc, #152]	; (8001800 <HAL_ADC_MspInit+0xdc>)
 8001768:	6b1b      	ldr	r3, [r3, #48]	; 0x30
 800176a:	4a25      	ldr	r2, [pc, #148]	; (8001800 <HAL_ADC_MspInit+0xdc>)
 800176c:	f043 0301 	orr.w	r3, r3, #1
 8001770:	6313      	str	r3, [r2, #48]	; 0x30
 8001772:	4b23      	ldr	r3, [pc, #140]	; (8001800 <HAL_ADC_MspInit+0xdc>)
 8001774:	6b1b      	ldr	r3, [r3, #48]	; 0x30
 8001776:	f003 0301 	and.w	r3, r3, #1
 800177a:	60fb      	str	r3, [r7, #12]
 800177c:	68fb      	ldr	r3, [r7, #12]
    /**ADC1 GPIO Configuration
    PA1     ------> ADC1_IN1
    */
    GPIO_InitStruct.Pin = GPIO_PIN_1;
 800177e:	2302      	movs	r3, #2
 8001780:	617b      	str	r3, [r7, #20]
    GPIO_InitStruct.Mode = GPIO_MODE_ANALOG;
 8001782:	2303      	movs	r3, #3
 8001784:	61bb      	str	r3, [r7, #24]
    GPIO_InitStruct.Pull = GPIO_NOPULL;
 8001786:	2300      	movs	r3, #0
 8001788:	61fb      	str	r3, [r7, #28]
    HAL_GPIO_Init(GPIOA, &GPIO_InitStruct);
 800178a:	f107 0314 	add.w	r3, r7, #20
 800178e:	4619      	mov	r1, r3
 8001790:	481c      	ldr	r0, [pc, #112]	; (8001804 <HAL_ADC_MspInit+0xe0>)
 8001792:	f001 f8d1 	bl	8002938 <HAL_GPIO_Init>

    /* ADC1 DMA Init */
    /* ADC1 Init */
    hdma_adc1.Instance = DMA2_Stream0;
 8001796:	4b1c      	ldr	r3, [pc, #112]	; (8001808 <HAL_ADC_MspInit+0xe4>)
 8001798:	4a1c      	ldr	r2, [pc, #112]	; (800180c <HAL_ADC_MspInit+0xe8>)
 800179a:	601a      	str	r2, [r3, #0]
    hdma_adc1.Init.Channel = DMA_CHANNEL_0;
 800179c:	4b1a      	ldr	r3, [pc, #104]	; (8001808 <HAL_ADC_MspInit+0xe4>)
 800179e:	2200      	movs	r2, #0
 80017a0:	605a      	str	r2, [r3, #4]
    hdma_adc1.Init.Direction = DMA_PERIPH_TO_MEMORY;
 80017a2:	4b19      	ldr	r3, [pc, #100]	; (8001808 <HAL_ADC_MspInit+0xe4>)
 80017a4:	2200      	movs	r2, #0
 80017a6:	609a      	str	r2, [r3, #8]
    hdma_adc1.Init.PeriphInc = DMA_PINC_DISABLE;
 80017a8:	4b17      	ldr	r3, [pc, #92]	; (8001808 <HAL_ADC_MspInit+0xe4>)
 80017aa:	2200      	movs	r2, #0
 80017ac:	60da      	str	r2, [r3, #12]
    hdma_adc1.Init.MemInc = DMA_MINC_ENABLE;
 80017ae:	4b16      	ldr	r3, [pc, #88]	; (8001808 <HAL_ADC_MspInit+0xe4>)
 80017b0:	f44f 6280 	mov.w	r2, #1024	; 0x400
 80017b4:	611a      	str	r2, [r3, #16]
    hdma_adc1.Init.PeriphDataAlignment = DMA_PDATAALIGN_HALFWORD;
 80017b6:	4b14      	ldr	r3, [pc, #80]	; (8001808 <HAL_ADC_MspInit+0xe4>)
 80017b8:	f44f 6200 	mov.w	r2, #2048	; 0x800
 80017bc:	615a      	str	r2, [r3, #20]
    hdma_adc1.Init.MemDataAlignment = DMA_MDATAALIGN_HALFWORD;
 80017be:	4b12      	ldr	r3, [pc, #72]	; (8001808 <HAL_ADC_MspInit+0xe4>)
 80017c0:	f44f 5200 	mov.w	r2, #8192	; 0x2000
 80017c4:	619a      	str	r2, [r3, #24]
    hdma_adc1.Init.Mode = DMA_NORMAL;
 80017c6:	4b10      	ldr	r3, [pc, #64]	; (8001808 <HAL_ADC_MspInit+0xe4>)
 80017c8:	2200      	movs	r2, #0
 80017ca:	61da      	str	r2, [r3, #28]
    hdma_adc1.Init.Priority = DMA_PRIORITY_LOW;
 80017cc:	4b0e      	ldr	r3, [pc, #56]	; (8001808 <HAL_ADC_MspInit+0xe4>)
 80017ce:	2200      	movs	r2, #0
 80017d0:	621a      	str	r2, [r3, #32]
    hdma_adc1.Init.FIFOMode = DMA_FIFOMODE_DISABLE;
 80017d2:	4b0d      	ldr	r3, [pc, #52]	; (8001808 <HAL_ADC_MspInit+0xe4>)
 80017d4:	2200      	movs	r2, #0
 80017d6:	625a      	str	r2, [r3, #36]	; 0x24
    if (HAL_DMA_Init(&hdma_adc1) != HAL_OK)
 80017d8:	480b      	ldr	r0, [pc, #44]	; (8001808 <HAL_ADC_MspInit+0xe4>)
 80017da:	f000 fdc3 	bl	8002364 <HAL_DMA_Init>
 80017de:	4603      	mov	r3, r0
 80017e0:	2b00      	cmp	r3, #0
 80017e2:	d001      	beq.n	80017e8 <HAL_ADC_MspInit+0xc4>
    {
      Error_Handler();
 80017e4:	f7ff ff70 	bl	80016c8 <Error_Handler>
    }

    __HAL_LINKDMA(hadc,DMA_Handle,hdma_adc1);
 80017e8:	687b      	ldr	r3, [r7, #4]
 80017ea:	4a07      	ldr	r2, [pc, #28]	; (8001808 <HAL_ADC_MspInit+0xe4>)
 80017ec:	639a      	str	r2, [r3, #56]	; 0x38
 80017ee:	4a06      	ldr	r2, [pc, #24]	; (8001808 <HAL_ADC_MspInit+0xe4>)
 80017f0:	687b      	ldr	r3, [r7, #4]
 80017f2:	6393      	str	r3, [r2, #56]	; 0x38
  /* USER CODE BEGIN ADC1_MspInit 1 */

  /* USER CODE END ADC1_MspInit 1 */
  }

}
 80017f4:	bf00      	nop
 80017f6:	3728      	adds	r7, #40	; 0x28
 80017f8:	46bd      	mov	sp, r7
 80017fa:	bd80      	pop	{r7, pc}
 80017fc:	40012000 	.word	0x40012000
 8001800:	40023800 	.word	0x40023800
 8001804:	40020000 	.word	0x40020000
 8001808:	20009ea8 	.word	0x20009ea8
 800180c:	40026410 	.word	0x40026410

08001810 <HAL_TIM_Base_MspInit>:
* This function configures the hardware resources used in this example
* @param htim_base: TIM_Base handle pointer
* @retval None
*/
void HAL_TIM_Base_MspInit(TIM_HandleTypeDef* htim_base)
{
 8001810:	b580      	push	{r7, lr}
 8001812:	b084      	sub	sp, #16
 8001814:	af00      	add	r7, sp, #0
 8001816:	6078      	str	r0, [r7, #4]
  if(htim_base->Instance==TIM14)
 8001818:	687b      	ldr	r3, [r7, #4]
 800181a:	681b      	ldr	r3, [r3, #0]
 800181c:	4a0e      	ldr	r2, [pc, #56]	; (8001858 <HAL_TIM_Base_MspInit+0x48>)
 800181e:	4293      	cmp	r3, r2
 8001820:	d115      	bne.n	800184e <HAL_TIM_Base_MspInit+0x3e>
  {
  /* USER CODE BEGIN TIM14_MspInit 0 */

  /* USER CODE END TIM14_MspInit 0 */
    /* Peripheral clock enable */
    __HAL_RCC_TIM14_CLK_ENABLE();
 8001822:	2300      	movs	r3, #0
 8001824:	60fb      	str	r3, [r7, #12]
 8001826:	4b0d      	ldr	r3, [pc, #52]	; (800185c <HAL_TIM_Base_MspInit+0x4c>)
 8001828:	6c1b      	ldr	r3, [r3, #64]	; 0x40
 800182a:	4a0c      	ldr	r2, [pc, #48]	; (800185c <HAL_TIM_Base_MspInit+0x4c>)
 800182c:	f443 7380 	orr.w	r3, r3, #256	; 0x100
 8001830:	6413      	str	r3, [r2, #64]	; 0x40
 8001832:	4b0a      	ldr	r3, [pc, #40]	; (800185c <HAL_TIM_Base_MspInit+0x4c>)
 8001834:	6c1b      	ldr	r3, [r3, #64]	; 0x40
 8001836:	f403 7380 	and.w	r3, r3, #256	; 0x100
 800183a:	60fb      	str	r3, [r7, #12]
 800183c:	68fb      	ldr	r3, [r7, #12]
    /* TIM14 interrupt Init */
    HAL_NVIC_SetPriority(TIM8_TRG_COM_TIM14_IRQn, 0, 0);
 800183e:	2200      	movs	r2, #0
 8001840:	2100      	movs	r1, #0
 8001842:	202d      	movs	r0, #45	; 0x2d
 8001844:	f000 fd57 	bl	80022f6 <HAL_NVIC_SetPriority>
    HAL_NVIC_EnableIRQ(TIM8_TRG_COM_TIM14_IRQn);
 8001848:	202d      	movs	r0, #45	; 0x2d
 800184a:	f000 fd70 	bl	800232e <HAL_NVIC_EnableIRQ>
  /* USER CODE BEGIN TIM14_MspInit 1 */

  /* USER CODE END TIM14_MspInit 1 */
  }

}
 800184e:	bf00      	nop
 8001850:	3710      	adds	r7, #16
 8001852:	46bd      	mov	sp, r7
 8001854:	bd80      	pop	{r7, pc}
 8001856:	bf00      	nop
 8001858:	40002000 	.word	0x40002000
 800185c:	40023800 	.word	0x40023800

08001860 <HAL_UART_MspInit>:
* This function configures the hardware resources used in this example
* @param huart: UART handle pointer
* @retval None
*/
void HAL_UART_MspInit(UART_HandleTypeDef* huart)
{
 8001860:	b580      	push	{r7, lr}
 8001862:	b08a      	sub	sp, #40	; 0x28
 8001864:	af00      	add	r7, sp, #0
 8001866:	6078      	str	r0, [r7, #4]
  GPIO_InitTypeDef GPIO_InitStruct = {0};
 8001868:	f107 0314 	add.w	r3, r7, #20
 800186c:	2200      	movs	r2, #0
 800186e:	601a      	str	r2, [r3, #0]
 8001870:	605a      	str	r2, [r3, #4]
 8001872:	609a      	str	r2, [r3, #8]
 8001874:	60da      	str	r2, [r3, #12]
 8001876:	611a      	str	r2, [r3, #16]
  if(huart->Instance==USART2)
 8001878:	687b      	ldr	r3, [r7, #4]
 800187a:	681b      	ldr	r3, [r3, #0]
 800187c:	4a19      	ldr	r2, [pc, #100]	; (80018e4 <HAL_UART_MspInit+0x84>)
 800187e:	4293      	cmp	r3, r2
 8001880:	d12b      	bne.n	80018da <HAL_UART_MspInit+0x7a>
  {
  /* USER CODE BEGIN USART2_MspInit 0 */

  /* USER CODE END USART2_MspInit 0 */
    /* Peripheral clock enable */
    __HAL_RCC_USART2_CLK_ENABLE();
 8001882:	2300      	movs	r3, #0
 8001884:	613b      	str	r3, [r7, #16]
 8001886:	4b18      	ldr	r3, [pc, #96]	; (80018e8 <HAL_UART_MspInit+0x88>)
 8001888:	6c1b      	ldr	r3, [r3, #64]	; 0x40
 800188a:	4a17      	ldr	r2, [pc, #92]	; (80018e8 <HAL_UART_MspInit+0x88>)
 800188c:	f443 3300 	orr.w	r3, r3, #131072	; 0x20000
 8001890:	6413      	str	r3, [r2, #64]	; 0x40
 8001892:	4b15      	ldr	r3, [pc, #84]	; (80018e8 <HAL_UART_MspInit+0x88>)
 8001894:	6c1b      	ldr	r3, [r3, #64]	; 0x40
 8001896:	f403 3300 	and.w	r3, r3, #131072	; 0x20000
 800189a:	613b      	str	r3, [r7, #16]
 800189c:	693b      	ldr	r3, [r7, #16]

    __HAL_RCC_GPIOA_CLK_ENABLE();
 800189e:	2300      	movs	r3, #0
 80018a0:	60fb      	str	r3, [r7, #12]
 80018a2:	4b11      	ldr	r3, [pc, #68]	; (80018e8 <HAL_UART_MspInit+0x88>)
 80018a4:	6b1b      	ldr	r3, [r3, #48]	; 0x30
 80018a6:	4a10      	ldr	r2, [pc, #64]	; (80018e8 <HAL_UART_MspInit+0x88>)
 80018a8:	f043 0301 	orr.w	r3, r3, #1
 80018ac:	6313      	str	r3, [r2, #48]	; 0x30
 80018ae:	4b0e      	ldr	r3, [pc, #56]	; (80018e8 <HAL_UART_MspInit+0x88>)
 80018b0:	6b1b      	ldr	r3, [r3, #48]	; 0x30
 80018b2:	f003 0301 	and.w	r3, r3, #1
 80018b6:	60fb      	str	r3, [r7, #12]
 80018b8:	68fb      	ldr	r3, [r7, #12]
    /**USART2 GPIO Configuration
    PA2     ------> USART2_TX
    PA3     ------> USART2_RX
    */
    GPIO_InitStruct.Pin = USART_TX_Pin|USART_RX_Pin;
 80018ba:	230c      	movs	r3, #12
 80018bc:	617b      	str	r3, [r7, #20]
    GPIO_InitStruct.Mode = GPIO_MODE_AF_PP;
 80018be:	2302      	movs	r3, #2
 80018c0:	61bb      	str	r3, [r7, #24]
    GPIO_InitStruct.Pull = GPIO_NOPULL;
 80018c2:	2300      	movs	r3, #0
 80018c4:	61fb      	str	r3, [r7, #28]
    GPIO_InitStruct.Speed = GPIO_SPEED_FREQ_VERY_HIGH;
 80018c6:	2303      	movs	r3, #3
 80018c8:	623b      	str	r3, [r7, #32]
    GPIO_InitStruct.Alternate = GPIO_AF7_USART2;
 80018ca:	2307      	movs	r3, #7
 80018cc:	627b      	str	r3, [r7, #36]	; 0x24
    HAL_GPIO_Init(GPIOA, &GPIO_InitStruct);
 80018ce:	f107 0314 	add.w	r3, r7, #20
 80018d2:	4619      	mov	r1, r3
 80018d4:	4805      	ldr	r0, [pc, #20]	; (80018ec <HAL_UART_MspInit+0x8c>)
 80018d6:	f001 f82f 	bl	8002938 <HAL_GPIO_Init>
  /* USER CODE BEGIN USART2_MspInit 1 */

  /* USER CODE END USART2_MspInit 1 */
  }

}
 80018da:	bf00      	nop
 80018dc:	3728      	adds	r7, #40	; 0x28
 80018de:	46bd      	mov	sp, r7
 80018e0:	bd80      	pop	{r7, pc}
 80018e2:	bf00      	nop
 80018e4:	40004400 	.word	0x40004400
 80018e8:	40023800 	.word	0x40023800
 80018ec:	40020000 	.word	0x40020000

080018f0 <NMI_Handler>:
/******************************************************************************/
/**
  * @brief This function handles Non maskable interrupt.
  */
void NMI_Handler(void)
{
 80018f0:	b480      	push	{r7}
 80018f2:	af00      	add	r7, sp, #0
  /* USER CODE BEGIN NonMaskableInt_IRQn 0 */

  /* USER CODE END NonMaskableInt_IRQn 0 */
  /* USER CODE BEGIN NonMaskableInt_IRQn 1 */
  while (1)
 80018f4:	e7fe      	b.n	80018f4 <NMI_Handler+0x4>

080018f6 <HardFault_Handler>:

/**
  * @brief This function handles Hard fault interrupt.
  */
void HardFault_Handler(void)
{
 80018f6:	b480      	push	{r7}
 80018f8:	af00      	add	r7, sp, #0
  /* USER CODE BEGIN HardFault_IRQn 0 */

  /* USER CODE END HardFault_IRQn 0 */
  while (1)
 80018fa:	e7fe      	b.n	80018fa <HardFault_Handler+0x4>

080018fc <MemManage_Handler>:

/**
  * @brief This function handles Memory management fault.
  */
void MemManage_Handler(void)
{
 80018fc:	b480      	push	{r7}
 80018fe:	af00      	add	r7, sp, #0
  /* USER CODE BEGIN MemoryManagement_IRQn 0 */

  /* USER CODE END MemoryManagement_IRQn 0 */
  while (1)
 8001900:	e7fe      	b.n	8001900 <MemManage_Handler+0x4>

08001902 <BusFault_Handler>:

/**
  * @brief This function handles Pre-fetch fault, memory access fault.
  */
void BusFault_Handler(void)
{
 8001902:	b480      	push	{r7}
 8001904:	af00      	add	r7, sp, #0
  /* USER CODE BEGIN BusFault_IRQn 0 */

  /* USER CODE END BusFault_IRQn 0 */
  while (1)
 8001906:	e7fe      	b.n	8001906 <BusFault_Handler+0x4>

08001908 <UsageFault_Handler>:

/**
  * @brief This function handles Undefined instruction or illegal state.
  */
void UsageFault_Handler(void)
{
 8001908:	b480      	push	{r7}
 800190a:	af00      	add	r7, sp, #0
  /* USER CODE BEGIN UsageFault_IRQn 0 */

  /* USER CODE END UsageFault_IRQn 0 */
  while (1)
 800190c:	e7fe      	b.n	800190c <UsageFault_Handler+0x4>

0800190e <SVC_Handler>:

/**
  * @brief This function handles System service call via SWI instruction.
  */
void SVC_Handler(void)
{
 800190e:	b480      	push	{r7}
 8001910:	af00      	add	r7, sp, #0

  /* USER CODE END SVCall_IRQn 0 */
  /* USER CODE BEGIN SVCall_IRQn 1 */

  /* USER CODE END SVCall_IRQn 1 */
}
 8001912:	bf00      	nop
 8001914:	46bd      	mov	sp, r7
 8001916:	f85d 7b04 	ldr.w	r7, [sp], #4
 800191a:	4770      	bx	lr

0800191c <DebugMon_Handler>:

/**
  * @brief This function handles Debug monitor.
  */
void DebugMon_Handler(void)
{
 800191c:	b480      	push	{r7}
 800191e:	af00      	add	r7, sp, #0

  /* USER CODE END DebugMonitor_IRQn 0 */
  /* USER CODE BEGIN DebugMonitor_IRQn 1 */

  /* USER CODE END DebugMonitor_IRQn 1 */
}
 8001920:	bf00      	nop
 8001922:	46bd      	mov	sp, r7
 8001924:	f85d 7b04 	ldr.w	r7, [sp], #4
 8001928:	4770      	bx	lr

0800192a <PendSV_Handler>:

/**
  * @brief This function handles Pendable request for system service.
  */
void PendSV_Handler(void)
{
 800192a:	b480      	push	{r7}
 800192c:	af00      	add	r7, sp, #0

  /* USER CODE END PendSV_IRQn 0 */
  /* USER CODE BEGIN PendSV_IRQn 1 */

  /* USER CODE END PendSV_IRQn 1 */
}
 800192e:	bf00      	nop
 8001930:	46bd      	mov	sp, r7
 8001932:	f85d 7b04 	ldr.w	r7, [sp], #4
 8001936:	4770      	bx	lr

08001938 <SysTick_Handler>:

/**
  * @brief This function handles System tick timer.
  */
void SysTick_Handler(void)
{
 8001938:	b580      	push	{r7, lr}
 800193a:	af00      	add	r7, sp, #0
  /* USER CODE BEGIN SysTick_IRQn 0 */

  /* USER CODE END SysTick_IRQn 0 */
  HAL_IncTick();
 800193c:	f000 f96e 	bl	8001c1c <HAL_IncTick>
  /* USER CODE BEGIN SysTick_IRQn 1 */

  /* USER CODE END SysTick_IRQn 1 */
}
 8001940:	bf00      	nop
 8001942:	bd80      	pop	{r7, pc}

08001944 <TIM8_TRG_COM_TIM14_IRQHandler>:

/**
  * @brief This function handles TIM8 trigger and commutation interrupts and TIM14 global interrupt.
  */
void TIM8_TRG_COM_TIM14_IRQHandler(void)
{
 8001944:	b580      	push	{r7, lr}
 8001946:	af00      	add	r7, sp, #0
  /* USER CODE BEGIN TIM8_TRG_COM_TIM14_IRQn 0 */

  /* USER CODE END TIM8_TRG_COM_TIM14_IRQn 0 */
  HAL_TIM_IRQHandler(&htim14);
 8001948:	4802      	ldr	r0, [pc, #8]	; (8001954 <TIM8_TRG_COM_TIM14_IRQHandler+0x10>)
 800194a:	f002 f8ce 	bl	8003aea <HAL_TIM_IRQHandler>
  /* USER CODE BEGIN TIM8_TRG_COM_TIM14_IRQn 1 */

  /* USER CODE END TIM8_TRG_COM_TIM14_IRQn 1 */
}
 800194e:	bf00      	nop
 8001950:	bd80      	pop	{r7, pc}
 8001952:	bf00      	nop
 8001954:	20013b90 	.word	0x20013b90

08001958 <DMA2_Stream0_IRQHandler>:

/**
  * @brief This function handles DMA2 stream0 global interrupt.
  */
void DMA2_Stream0_IRQHandler(void)
{
 8001958:	b580      	push	{r7, lr}
 800195a:	af00      	add	r7, sp, #0
  /* USER CODE BEGIN DMA2_Stream0_IRQn 0 */

  /* USER CODE END DMA2_Stream0_IRQn 0 */
  HAL_DMA_IRQHandler(&hdma_adc1);
 800195c:	4802      	ldr	r0, [pc, #8]	; (8001968 <DMA2_Stream0_IRQHandler+0x10>)
 800195e:	f000 fdaf 	bl	80024c0 <HAL_DMA_IRQHandler>
  /* USER CODE BEGIN DMA2_Stream0_IRQn 1 */

  /* USER CODE END DMA2_Stream0_IRQn 1 */
}
 8001962:	bf00      	nop
 8001964:	bd80      	pop	{r7, pc}
 8001966:	bf00      	nop
 8001968:	20009ea8 	.word	0x20009ea8

0800196c <_getpid>:
void initialise_monitor_handles()
{
}

int _getpid(void)
{
 800196c:	b480      	push	{r7}
 800196e:	af00      	add	r7, sp, #0
	return 1;
 8001970:	2301      	movs	r3, #1
}
 8001972:	4618      	mov	r0, r3
 8001974:	46bd      	mov	sp, r7
 8001976:	f85d 7b04 	ldr.w	r7, [sp], #4
 800197a:	4770      	bx	lr

0800197c <_kill>:

int _kill(int pid, int sig)
{
 800197c:	b580      	push	{r7, lr}
 800197e:	b082      	sub	sp, #8
 8001980:	af00      	add	r7, sp, #0
 8001982:	6078      	str	r0, [r7, #4]
 8001984:	6039      	str	r1, [r7, #0]
	errno = EINVAL;
 8001986:	f002 fd87 	bl	8004498 <__errno>
 800198a:	4603      	mov	r3, r0
 800198c:	2216      	movs	r2, #22
 800198e:	601a      	str	r2, [r3, #0]
	return -1;
 8001990:	f04f 33ff 	mov.w	r3, #4294967295
}
 8001994:	4618      	mov	r0, r3
 8001996:	3708      	adds	r7, #8
 8001998:	46bd      	mov	sp, r7
 800199a:	bd80      	pop	{r7, pc}

0800199c <_exit>:

void _exit (int status)
{
 800199c:	b580      	push	{r7, lr}
 800199e:	b082      	sub	sp, #8
 80019a0:	af00      	add	r7, sp, #0
 80019a2:	6078      	str	r0, [r7, #4]
	_kill(status, -1);
 80019a4:	f04f 31ff 	mov.w	r1, #4294967295
 80019a8:	6878      	ldr	r0, [r7, #4]
 80019aa:	f7ff ffe7 	bl	800197c <_kill>
	while (1) {}		/* Make sure we hang here */
 80019ae:	e7fe      	b.n	80019ae <_exit+0x12>

080019b0 <_read>:
}

__attribute__((weak)) int _read(int file, char *ptr, int len)
{
 80019b0:	b580      	push	{r7, lr}
 80019b2:	b086      	sub	sp, #24
 80019b4:	af00      	add	r7, sp, #0
 80019b6:	60f8      	str	r0, [r7, #12]
 80019b8:	60b9      	str	r1, [r7, #8]
 80019ba:	607a      	str	r2, [r7, #4]
	int DataIdx;

	for (DataIdx = 0; DataIdx < len; DataIdx++)
 80019bc:	2300      	movs	r3, #0
 80019be:	617b      	str	r3, [r7, #20]
 80019c0:	e00a      	b.n	80019d8 <_read+0x28>
	{
		*ptr++ = __io_getchar();
 80019c2:	f3af 8000 	nop.w
 80019c6:	4601      	mov	r1, r0
 80019c8:	68bb      	ldr	r3, [r7, #8]
 80019ca:	1c5a      	adds	r2, r3, #1
 80019cc:	60ba      	str	r2, [r7, #8]
 80019ce:	b2ca      	uxtb	r2, r1
 80019d0:	701a      	strb	r2, [r3, #0]
	for (DataIdx = 0; DataIdx < len; DataIdx++)
 80019d2:	697b      	ldr	r3, [r7, #20]
 80019d4:	3301      	adds	r3, #1
 80019d6:	617b      	str	r3, [r7, #20]
 80019d8:	697a      	ldr	r2, [r7, #20]
 80019da:	687b      	ldr	r3, [r7, #4]
 80019dc:	429a      	cmp	r2, r3
 80019de:	dbf0      	blt.n	80019c2 <_read+0x12>
	}

return len;
 80019e0:	687b      	ldr	r3, [r7, #4]
}
 80019e2:	4618      	mov	r0, r3
 80019e4:	3718      	adds	r7, #24
 80019e6:	46bd      	mov	sp, r7
 80019e8:	bd80      	pop	{r7, pc}

080019ea <_write>:

__attribute__((weak)) int _write(int file, char *ptr, int len)
{
 80019ea:	b580      	push	{r7, lr}
 80019ec:	b086      	sub	sp, #24
 80019ee:	af00      	add	r7, sp, #0
 80019f0:	60f8      	str	r0, [r7, #12]
 80019f2:	60b9      	str	r1, [r7, #8]
 80019f4:	607a      	str	r2, [r7, #4]
	int DataIdx;

	for (DataIdx = 0; DataIdx < len; DataIdx++)
 80019f6:	2300      	movs	r3, #0
 80019f8:	617b      	str	r3, [r7, #20]
 80019fa:	e009      	b.n	8001a10 <_write+0x26>
	{
		__io_putchar(*ptr++);
 80019fc:	68bb      	ldr	r3, [r7, #8]
 80019fe:	1c5a      	adds	r2, r3, #1
 8001a00:	60ba      	str	r2, [r7, #8]
 8001a02:	781b      	ldrb	r3, [r3, #0]
 8001a04:	4618      	mov	r0, r3
 8001a06:	f3af 8000 	nop.w
	for (DataIdx = 0; DataIdx < len; DataIdx++)
 8001a0a:	697b      	ldr	r3, [r7, #20]
 8001a0c:	3301      	adds	r3, #1
 8001a0e:	617b      	str	r3, [r7, #20]
 8001a10:	697a      	ldr	r2, [r7, #20]
 8001a12:	687b      	ldr	r3, [r7, #4]
 8001a14:	429a      	cmp	r2, r3
 8001a16:	dbf1      	blt.n	80019fc <_write+0x12>
	}
	return len;
 8001a18:	687b      	ldr	r3, [r7, #4]
}
 8001a1a:	4618      	mov	r0, r3
 8001a1c:	3718      	adds	r7, #24
 8001a1e:	46bd      	mov	sp, r7
 8001a20:	bd80      	pop	{r7, pc}

08001a22 <_close>:

int _close(int file)
{
 8001a22:	b480      	push	{r7}
 8001a24:	b083      	sub	sp, #12
 8001a26:	af00      	add	r7, sp, #0
 8001a28:	6078      	str	r0, [r7, #4]
	return -1;
 8001a2a:	f04f 33ff 	mov.w	r3, #4294967295
}
 8001a2e:	4618      	mov	r0, r3
 8001a30:	370c      	adds	r7, #12
 8001a32:	46bd      	mov	sp, r7
 8001a34:	f85d 7b04 	ldr.w	r7, [sp], #4
 8001a38:	4770      	bx	lr

08001a3a <_fstat>:


int _fstat(int file, struct stat *st)
{
 8001a3a:	b480      	push	{r7}
 8001a3c:	b083      	sub	sp, #12
 8001a3e:	af00      	add	r7, sp, #0
 8001a40:	6078      	str	r0, [r7, #4]
 8001a42:	6039      	str	r1, [r7, #0]
	st->st_mode = S_IFCHR;
 8001a44:	683b      	ldr	r3, [r7, #0]
 8001a46:	f44f 5200 	mov.w	r2, #8192	; 0x2000
 8001a4a:	605a      	str	r2, [r3, #4]
	return 0;
 8001a4c:	2300      	movs	r3, #0
}
 8001a4e:	4618      	mov	r0, r3
 8001a50:	370c      	adds	r7, #12
 8001a52:	46bd      	mov	sp, r7
 8001a54:	f85d 7b04 	ldr.w	r7, [sp], #4
 8001a58:	4770      	bx	lr

08001a5a <_isatty>:

int _isatty(int file)
{
 8001a5a:	b480      	push	{r7}
 8001a5c:	b083      	sub	sp, #12
 8001a5e:	af00      	add	r7, sp, #0
 8001a60:	6078      	str	r0, [r7, #4]
	return 1;
 8001a62:	2301      	movs	r3, #1
}
 8001a64:	4618      	mov	r0, r3
 8001a66:	370c      	adds	r7, #12
 8001a68:	46bd      	mov	sp, r7
 8001a6a:	f85d 7b04 	ldr.w	r7, [sp], #4
 8001a6e:	4770      	bx	lr

08001a70 <_lseek>:

int _lseek(int file, int ptr, int dir)
{
 8001a70:	b480      	push	{r7}
 8001a72:	b085      	sub	sp, #20
 8001a74:	af00      	add	r7, sp, #0
 8001a76:	60f8      	str	r0, [r7, #12]
 8001a78:	60b9      	str	r1, [r7, #8]
 8001a7a:	607a      	str	r2, [r7, #4]
	return 0;
 8001a7c:	2300      	movs	r3, #0
}
 8001a7e:	4618      	mov	r0, r3
 8001a80:	3714      	adds	r7, #20
 8001a82:	46bd      	mov	sp, r7
 8001a84:	f85d 7b04 	ldr.w	r7, [sp], #4
 8001a88:	4770      	bx	lr
	...

08001a8c <_sbrk>:
 *
 * @param incr Memory size
 * @return Pointer to allocated memory
 */
void *_sbrk(ptrdiff_t incr)
{
 8001a8c:	b580      	push	{r7, lr}
 8001a8e:	b086      	sub	sp, #24
 8001a90:	af00      	add	r7, sp, #0
 8001a92:	6078      	str	r0, [r7, #4]
  extern uint8_t _end; /* Symbol defined in the linker script */
  extern uint8_t _estack; /* Symbol defined in the linker script */
  extern uint32_t _Min_Stack_Size; /* Symbol defined in the linker script */
  const uint32_t stack_limit = (uint32_t)&_estack - (uint32_t)&_Min_Stack_Size;
 8001a94:	4a14      	ldr	r2, [pc, #80]	; (8001ae8 <_sbrk+0x5c>)
 8001a96:	4b15      	ldr	r3, [pc, #84]	; (8001aec <_sbrk+0x60>)
 8001a98:	1ad3      	subs	r3, r2, r3
 8001a9a:	617b      	str	r3, [r7, #20]
  const uint8_t *max_heap = (uint8_t *)stack_limit;
 8001a9c:	697b      	ldr	r3, [r7, #20]
 8001a9e:	613b      	str	r3, [r7, #16]
  uint8_t *prev_heap_end;

  /* Initialize heap end at first call */
  if (NULL == __sbrk_heap_end)
 8001aa0:	4b13      	ldr	r3, [pc, #76]	; (8001af0 <_sbrk+0x64>)
 8001aa2:	681b      	ldr	r3, [r3, #0]
 8001aa4:	2b00      	cmp	r3, #0
 8001aa6:	d102      	bne.n	8001aae <_sbrk+0x22>
  {
    __sbrk_heap_end = &_end;
 8001aa8:	4b11      	ldr	r3, [pc, #68]	; (8001af0 <_sbrk+0x64>)
 8001aaa:	4a12      	ldr	r2, [pc, #72]	; (8001af4 <_sbrk+0x68>)
 8001aac:	601a      	str	r2, [r3, #0]
  }

  /* Protect heap from growing into the reserved MSP stack */
  if (__sbrk_heap_end + incr > max_heap)
 8001aae:	4b10      	ldr	r3, [pc, #64]	; (8001af0 <_sbrk+0x64>)
 8001ab0:	681a      	ldr	r2, [r3, #0]
 8001ab2:	687b      	ldr	r3, [r7, #4]
 8001ab4:	4413      	add	r3, r2
 8001ab6:	693a      	ldr	r2, [r7, #16]
 8001ab8:	429a      	cmp	r2, r3
 8001aba:	d207      	bcs.n	8001acc <_sbrk+0x40>
  {
    errno = ENOMEM;
 8001abc:	f002 fcec 	bl	8004498 <__errno>
 8001ac0:	4603      	mov	r3, r0
 8001ac2:	220c      	movs	r2, #12
 8001ac4:	601a      	str	r2, [r3, #0]
    return (void *)-1;
 8001ac6:	f04f 33ff 	mov.w	r3, #4294967295
 8001aca:	e009      	b.n	8001ae0 <_sbrk+0x54>
  }

  prev_heap_end = __sbrk_heap_end;
 8001acc:	4b08      	ldr	r3, [pc, #32]	; (8001af0 <_sbrk+0x64>)
 8001ace:	681b      	ldr	r3, [r3, #0]
 8001ad0:	60fb      	str	r3, [r7, #12]
  __sbrk_heap_end += incr;
 8001ad2:	4b07      	ldr	r3, [pc, #28]	; (8001af0 <_sbrk+0x64>)
 8001ad4:	681a      	ldr	r2, [r3, #0]
 8001ad6:	687b      	ldr	r3, [r7, #4]
 8001ad8:	4413      	add	r3, r2
 8001ada:	4a05      	ldr	r2, [pc, #20]	; (8001af0 <_sbrk+0x64>)
 8001adc:	6013      	str	r3, [r2, #0]

  return (void *)prev_heap_end;
 8001ade:	68fb      	ldr	r3, [r7, #12]
}
 8001ae0:	4618      	mov	r0, r3
 8001ae2:	3718      	adds	r7, #24
 8001ae4:	46bd      	mov	sp, r7
 8001ae6:	bd80      	pop	{r7, pc}
 8001ae8:	20020000 	.word	0x20020000
 8001aec:	00000400 	.word	0x00000400
 8001af0:	20000210 	.word	0x20000210
 8001af4:	20013bf0 	.word	0x20013bf0

08001af8 <SystemInit>:
  *         configuration.
  * @param  None
  * @retval None
  */
void SystemInit(void)
{
 8001af8:	b480      	push	{r7}
 8001afa:	af00      	add	r7, sp, #0
  /* FPU settings ------------------------------------------------------------*/
  #if (__FPU_PRESENT == 1) && (__FPU_USED == 1)
    SCB->CPACR |= ((3UL << 10*2)|(3UL << 11*2));  /* set CP10 and CP11 Full Access */
 8001afc:	4b08      	ldr	r3, [pc, #32]	; (8001b20 <SystemInit+0x28>)
 8001afe:	f8d3 3088 	ldr.w	r3, [r3, #136]	; 0x88
 8001b02:	4a07      	ldr	r2, [pc, #28]	; (8001b20 <SystemInit+0x28>)
 8001b04:	f443 0370 	orr.w	r3, r3, #15728640	; 0xf00000
 8001b08:	f8c2 3088 	str.w	r3, [r2, #136]	; 0x88

  /* Configure the Vector Table location add offset address ------------------*/
#ifdef VECT_TAB_SRAM
  SCB->VTOR = SRAM_BASE | VECT_TAB_OFFSET; /* Vector Table Relocation in Internal SRAM */
#else
  SCB->VTOR = FLASH_BASE | VECT_TAB_OFFSET; /* Vector Table Relocation in Internal FLASH */
 8001b0c:	4b04      	ldr	r3, [pc, #16]	; (8001b20 <SystemInit+0x28>)
 8001b0e:	f04f 6200 	mov.w	r2, #134217728	; 0x8000000
 8001b12:	609a      	str	r2, [r3, #8]
#endif
}
 8001b14:	bf00      	nop
 8001b16:	46bd      	mov	sp, r7
 8001b18:	f85d 7b04 	ldr.w	r7, [sp], #4
 8001b1c:	4770      	bx	lr
 8001b1e:	bf00      	nop
 8001b20:	e000ed00 	.word	0xe000ed00

08001b24 <Reset_Handler>:

    .section  .text.Reset_Handler
  .weak  Reset_Handler
  .type  Reset_Handler, %function
Reset_Handler:  
  ldr   sp, =_estack      /* set stack pointer */
 8001b24:	f8df d034 	ldr.w	sp, [pc, #52]	; 8001b5c <LoopFillZerobss+0x14>

/* Copy the data segment initializers from flash to SRAM */  
  movs  r1, #0
 8001b28:	2100      	movs	r1, #0
  b  LoopCopyDataInit
 8001b2a:	e003      	b.n	8001b34 <LoopCopyDataInit>

08001b2c <CopyDataInit>:

CopyDataInit:
  ldr  r3, =_sidata
 8001b2c:	4b0c      	ldr	r3, [pc, #48]	; (8001b60 <LoopFillZerobss+0x18>)
  ldr  r3, [r3, r1]
 8001b2e:	585b      	ldr	r3, [r3, r1]
  str  r3, [r0, r1]
 8001b30:	5043      	str	r3, [r0, r1]
  adds  r1, r1, #4
 8001b32:	3104      	adds	r1, #4

08001b34 <LoopCopyDataInit>:
    
LoopCopyDataInit:
  ldr  r0, =_sdata
 8001b34:	480b      	ldr	r0, [pc, #44]	; (8001b64 <LoopFillZerobss+0x1c>)
  ldr  r3, =_edata
 8001b36:	4b0c      	ldr	r3, [pc, #48]	; (8001b68 <LoopFillZerobss+0x20>)
  adds  r2, r0, r1
 8001b38:	1842      	adds	r2, r0, r1
  cmp  r2, r3
 8001b3a:	429a      	cmp	r2, r3
  bcc  CopyDataInit
 8001b3c:	d3f6      	bcc.n	8001b2c <CopyDataInit>
  ldr  r2, =_sbss
 8001b3e:	4a0b      	ldr	r2, [pc, #44]	; (8001b6c <LoopFillZerobss+0x24>)
  b  LoopFillZerobss
 8001b40:	e002      	b.n	8001b48 <LoopFillZerobss>

08001b42 <FillZerobss>:
/* Zero fill the bss segment. */  
FillZerobss:
  movs  r3, #0
 8001b42:	2300      	movs	r3, #0
  str  r3, [r2], #4
 8001b44:	f842 3b04 	str.w	r3, [r2], #4

08001b48 <LoopFillZerobss>:
    
LoopFillZerobss:
  ldr  r3, = _ebss
 8001b48:	4b09      	ldr	r3, [pc, #36]	; (8001b70 <LoopFillZerobss+0x28>)
  cmp  r2, r3
 8001b4a:	429a      	cmp	r2, r3
  bcc  FillZerobss
 8001b4c:	d3f9      	bcc.n	8001b42 <FillZerobss>

/* Call the clock system intitialization function.*/
  bl  SystemInit   
 8001b4e:	f7ff ffd3 	bl	8001af8 <SystemInit>
/* Call static constructors */
    bl __libc_init_array
 8001b52:	f002 fca7 	bl	80044a4 <__libc_init_array>
/* Call the application's entry point.*/
  bl  main
 8001b56:	f7ff fa13 	bl	8000f80 <main>
  bx  lr    
 8001b5a:	4770      	bx	lr
  ldr   sp, =_estack      /* set stack pointer */
 8001b5c:	20020000 	.word	0x20020000
  ldr  r3, =_sidata
 8001b60:	08007654 	.word	0x08007654
  ldr  r0, =_sdata
 8001b64:	20000000 	.word	0x20000000
  ldr  r3, =_edata
 8001b68:	200001dc 	.word	0x200001dc
  ldr  r2, =_sbss
 8001b6c:	200001dc 	.word	0x200001dc
  ldr  r3, = _ebss
 8001b70:	20013bec 	.word	0x20013bec

08001b74 <ADC_IRQHandler>:
 * @retval None       
*/
    .section  .text.Default_Handler,"ax",%progbits
Default_Handler:
Infinite_Loop:
  b  Infinite_Loop
 8001b74:	e7fe      	b.n	8001b74 <ADC_IRQHandler>
	...

08001b78 <HAL_Init>:
  *         need to ensure that the SysTick time base is always set to 1 millisecond
  *         to have correct HAL operation.
  * @retval HAL status
  */
HAL_StatusTypeDef HAL_Init(void)
{
 8001b78:	b580      	push	{r7, lr}
 8001b7a:	af00      	add	r7, sp, #0
  /* Configure Flash prefetch, Instruction cache, Data cache */ 
#if (INSTRUCTION_CACHE_ENABLE != 0U)
  __HAL_FLASH_INSTRUCTION_CACHE_ENABLE();
 8001b7c:	4b0e      	ldr	r3, [pc, #56]	; (8001bb8 <HAL_Init+0x40>)
 8001b7e:	681b      	ldr	r3, [r3, #0]
 8001b80:	4a0d      	ldr	r2, [pc, #52]	; (8001bb8 <HAL_Init+0x40>)
 8001b82:	f443 7300 	orr.w	r3, r3, #512	; 0x200
 8001b86:	6013      	str	r3, [r2, #0]
#endif /* INSTRUCTION_CACHE_ENABLE */

#if (DATA_CACHE_ENABLE != 0U)
  __HAL_FLASH_DATA_CACHE_ENABLE();
 8001b88:	4b0b      	ldr	r3, [pc, #44]	; (8001bb8 <HAL_Init+0x40>)
 8001b8a:	681b      	ldr	r3, [r3, #0]
 8001b8c:	4a0a      	ldr	r2, [pc, #40]	; (8001bb8 <HAL_Init+0x40>)
 8001b8e:	f443 6380 	orr.w	r3, r3, #1024	; 0x400
 8001b92:	6013      	str	r3, [r2, #0]
#endif /* DATA_CACHE_ENABLE */

#if (PREFETCH_ENABLE != 0U)
  __HAL_FLASH_PREFETCH_BUFFER_ENABLE();
 8001b94:	4b08      	ldr	r3, [pc, #32]	; (8001bb8 <HAL_Init+0x40>)
 8001b96:	681b      	ldr	r3, [r3, #0]
 8001b98:	4a07      	ldr	r2, [pc, #28]	; (8001bb8 <HAL_Init+0x40>)
 8001b9a:	f443 7380 	orr.w	r3, r3, #256	; 0x100
 8001b9e:	6013      	str	r3, [r2, #0]
#endif /* PREFETCH_ENABLE */

  /* Set Interrupt Group Priority */
  HAL_NVIC_SetPriorityGrouping(NVIC_PRIORITYGROUP_4);
 8001ba0:	2003      	movs	r0, #3
 8001ba2:	f000 fb9d 	bl	80022e0 <HAL_NVIC_SetPriorityGrouping>

  /* Use systick as time base source and configure 1ms tick (default clock after Reset is HSI) */
  HAL_InitTick(TICK_INT_PRIORITY);
 8001ba6:	2000      	movs	r0, #0
 8001ba8:	f000 f808 	bl	8001bbc <HAL_InitTick>

  /* Init the low level hardware */
  HAL_MspInit();
 8001bac:	f7ff fd92 	bl	80016d4 <HAL_MspInit>

  /* Return function status */
  return HAL_OK;
 8001bb0:	2300      	movs	r3, #0
}
 8001bb2:	4618      	mov	r0, r3
 8001bb4:	bd80      	pop	{r7, pc}
 8001bb6:	bf00      	nop
 8001bb8:	40023c00 	.word	0x40023c00

08001bbc <HAL_InitTick>:
  *       implementation  in user file.
  * @param TickPriority Tick interrupt priority.
  * @retval HAL status
  */
__weak HAL_StatusTypeDef HAL_InitTick(uint32_t TickPriority)
{
 8001bbc:	b580      	push	{r7, lr}
 8001bbe:	b082      	sub	sp, #8
 8001bc0:	af00      	add	r7, sp, #0
 8001bc2:	6078      	str	r0, [r7, #4]
  /* Configure the SysTick to have interrupt in 1ms time basis*/
  if (HAL_SYSTICK_Config(SystemCoreClock / (1000U / uwTickFreq)) > 0U)
 8001bc4:	4b12      	ldr	r3, [pc, #72]	; (8001c10 <HAL_InitTick+0x54>)
 8001bc6:	681a      	ldr	r2, [r3, #0]
 8001bc8:	4b12      	ldr	r3, [pc, #72]	; (8001c14 <HAL_InitTick+0x58>)
 8001bca:	781b      	ldrb	r3, [r3, #0]
 8001bcc:	4619      	mov	r1, r3
 8001bce:	f44f 737a 	mov.w	r3, #1000	; 0x3e8
 8001bd2:	fbb3 f3f1 	udiv	r3, r3, r1
 8001bd6:	fbb2 f3f3 	udiv	r3, r2, r3
 8001bda:	4618      	mov	r0, r3
 8001bdc:	f000 fbb5 	bl	800234a <HAL_SYSTICK_Config>
 8001be0:	4603      	mov	r3, r0
 8001be2:	2b00      	cmp	r3, #0
 8001be4:	d001      	beq.n	8001bea <HAL_InitTick+0x2e>
  {
    return HAL_ERROR;
 8001be6:	2301      	movs	r3, #1
 8001be8:	e00e      	b.n	8001c08 <HAL_InitTick+0x4c>
  }

  /* Configure the SysTick IRQ priority */
  if (TickPriority < (1UL << __NVIC_PRIO_BITS))
 8001bea:	687b      	ldr	r3, [r7, #4]
 8001bec:	2b0f      	cmp	r3, #15
 8001bee:	d80a      	bhi.n	8001c06 <HAL_InitTick+0x4a>
  {
    HAL_NVIC_SetPriority(SysTick_IRQn, TickPriority, 0U);
 8001bf0:	2200      	movs	r2, #0
 8001bf2:	6879      	ldr	r1, [r7, #4]
 8001bf4:	f04f 30ff 	mov.w	r0, #4294967295
 8001bf8:	f000 fb7d 	bl	80022f6 <HAL_NVIC_SetPriority>
    uwTickPrio = TickPriority;
 8001bfc:	4a06      	ldr	r2, [pc, #24]	; (8001c18 <HAL_InitTick+0x5c>)
 8001bfe:	687b      	ldr	r3, [r7, #4]
 8001c00:	6013      	str	r3, [r2, #0]
  {
    return HAL_ERROR;
  }

  /* Return function status */
  return HAL_OK;
 8001c02:	2300      	movs	r3, #0
 8001c04:	e000      	b.n	8001c08 <HAL_InitTick+0x4c>
    return HAL_ERROR;
 8001c06:	2301      	movs	r3, #1
}
 8001c08:	4618      	mov	r0, r3
 8001c0a:	3708      	adds	r7, #8
 8001c0c:	46bd      	mov	sp, r7
 8001c0e:	bd80      	pop	{r7, pc}
 8001c10:	20000000 	.word	0x20000000
 8001c14:	20000008 	.word	0x20000008
 8001c18:	20000004 	.word	0x20000004

08001c1c <HAL_IncTick>:
 * @note This function is declared as __weak to be overwritten in case of other 
  *      implementations in user file.
  * @retval None
  */
__weak void HAL_IncTick(void)
{
 8001c1c:	b480      	push	{r7}
 8001c1e:	af00      	add	r7, sp, #0
  uwTick += uwTickFreq;
 8001c20:	4b06      	ldr	r3, [pc, #24]	; (8001c3c <HAL_IncTick+0x20>)
 8001c22:	781b      	ldrb	r3, [r3, #0]
 8001c24:	461a      	mov	r2, r3
 8001c26:	4b06      	ldr	r3, [pc, #24]	; (8001c40 <HAL_IncTick+0x24>)
 8001c28:	681b      	ldr	r3, [r3, #0]
 8001c2a:	4413      	add	r3, r2
 8001c2c:	4a04      	ldr	r2, [pc, #16]	; (8001c40 <HAL_IncTick+0x24>)
 8001c2e:	6013      	str	r3, [r2, #0]
}
 8001c30:	bf00      	nop
 8001c32:	46bd      	mov	sp, r7
 8001c34:	f85d 7b04 	ldr.w	r7, [sp], #4
 8001c38:	4770      	bx	lr
 8001c3a:	bf00      	nop
 8001c3c:	20000008 	.word	0x20000008
 8001c40:	20013bd8 	.word	0x20013bd8

08001c44 <HAL_GetTick>:
  * @note This function is declared as __weak to be overwritten in case of other 
  *       implementations in user file.
  * @retval tick value
  */
__weak uint32_t HAL_GetTick(void)
{
 8001c44:	b480      	push	{r7}
 8001c46:	af00      	add	r7, sp, #0
  return uwTick;
 8001c48:	4b03      	ldr	r3, [pc, #12]	; (8001c58 <HAL_GetTick+0x14>)
 8001c4a:	681b      	ldr	r3, [r3, #0]
}
 8001c4c:	4618      	mov	r0, r3
 8001c4e:	46bd      	mov	sp, r7
 8001c50:	f85d 7b04 	ldr.w	r7, [sp], #4
 8001c54:	4770      	bx	lr
 8001c56:	bf00      	nop
 8001c58:	20013bd8 	.word	0x20013bd8

08001c5c <HAL_ADC_Init>:
  * @param  hadc pointer to a ADC_HandleTypeDef structure that contains
  *         the configuration information for the specified ADC.  
  * @retval HAL status
  */
HAL_StatusTypeDef HAL_ADC_Init(ADC_HandleTypeDef* hadc)
{
 8001c5c:	b580      	push	{r7, lr}
 8001c5e:	b084      	sub	sp, #16
 8001c60:	af00      	add	r7, sp, #0
 8001c62:	6078      	str	r0, [r7, #4]
  HAL_StatusTypeDef tmp_hal_status = HAL_OK;
 8001c64:	2300      	movs	r3, #0
 8001c66:	73fb      	strb	r3, [r7, #15]
  
  /* Check ADC handle */
  if(hadc == NULL)
 8001c68:	687b      	ldr	r3, [r7, #4]
 8001c6a:	2b00      	cmp	r3, #0
 8001c6c:	d101      	bne.n	8001c72 <HAL_ADC_Init+0x16>
  {
    return HAL_ERROR;
 8001c6e:	2301      	movs	r3, #1
 8001c70:	e033      	b.n	8001cda <HAL_ADC_Init+0x7e>
  if(hadc->Init.ExternalTrigConv != ADC_SOFTWARE_START)
  {
    assert_param(IS_ADC_EXT_TRIG_EDGE(hadc->Init.ExternalTrigConvEdge));
  }
  
  if(hadc->State == HAL_ADC_STATE_RESET)
 8001c72:	687b      	ldr	r3, [r7, #4]
 8001c74:	6c1b      	ldr	r3, [r3, #64]	; 0x40
 8001c76:	2b00      	cmp	r3, #0
 8001c78:	d109      	bne.n	8001c8e <HAL_ADC_Init+0x32>

    /* Init the low level hardware */
    hadc->MspInitCallback(hadc);
#else
    /* Init the low level hardware */
    HAL_ADC_MspInit(hadc);
 8001c7a:	6878      	ldr	r0, [r7, #4]
 8001c7c:	f7ff fd52 	bl	8001724 <HAL_ADC_MspInit>
#endif /* USE_HAL_ADC_REGISTER_CALLBACKS */

    /* Initialize ADC error code */
    ADC_CLEAR_ERRORCODE(hadc);
 8001c80:	687b      	ldr	r3, [r7, #4]
 8001c82:	2200      	movs	r2, #0
 8001c84:	645a      	str	r2, [r3, #68]	; 0x44
    
    /* Allocate lock resource and initialize it */
    hadc->Lock = HAL_UNLOCKED;
 8001c86:	687b      	ldr	r3, [r7, #4]
 8001c88:	2200      	movs	r2, #0
 8001c8a:	f883 203c 	strb.w	r2, [r3, #60]	; 0x3c
  }
  
  /* Configuration of ADC parameters if previous preliminary actions are      */ 
  /* correctly completed.                                                     */
  if (HAL_IS_BIT_CLR(hadc->State, HAL_ADC_STATE_ERROR_INTERNAL))
 8001c8e:	687b      	ldr	r3, [r7, #4]
 8001c90:	6c1b      	ldr	r3, [r3, #64]	; 0x40
 8001c92:	f003 0310 	and.w	r3, r3, #16
 8001c96:	2b00      	cmp	r3, #0
 8001c98:	d118      	bne.n	8001ccc <HAL_ADC_Init+0x70>
  {
    /* Set ADC state */
    ADC_STATE_CLR_SET(hadc->State,
 8001c9a:	687b      	ldr	r3, [r7, #4]
 8001c9c:	6c1b      	ldr	r3, [r3, #64]	; 0x40
 8001c9e:	f423 5388 	bic.w	r3, r3, #4352	; 0x1100
 8001ca2:	f023 0302 	bic.w	r3, r3, #2
 8001ca6:	f043 0202 	orr.w	r2, r3, #2
 8001caa:	687b      	ldr	r3, [r7, #4]
 8001cac:	641a      	str	r2, [r3, #64]	; 0x40
                      HAL_ADC_STATE_REG_BUSY | HAL_ADC_STATE_INJ_BUSY,
                      HAL_ADC_STATE_BUSY_INTERNAL);
    
    /* Set ADC parameters */
    ADC_Init(hadc);
 8001cae:	6878      	ldr	r0, [r7, #4]
 8001cb0:	f000 f94a 	bl	8001f48 <ADC_Init>
    
    /* Set ADC error code to none */
    ADC_CLEAR_ERRORCODE(hadc);
 8001cb4:	687b      	ldr	r3, [r7, #4]
 8001cb6:	2200      	movs	r2, #0
 8001cb8:	645a      	str	r2, [r3, #68]	; 0x44
    
    /* Set the ADC state */
    ADC_STATE_CLR_SET(hadc->State,
 8001cba:	687b      	ldr	r3, [r7, #4]
 8001cbc:	6c1b      	ldr	r3, [r3, #64]	; 0x40
 8001cbe:	f023 0303 	bic.w	r3, r3, #3
 8001cc2:	f043 0201 	orr.w	r2, r3, #1
 8001cc6:	687b      	ldr	r3, [r7, #4]
 8001cc8:	641a      	str	r2, [r3, #64]	; 0x40
 8001cca:	e001      	b.n	8001cd0 <HAL_ADC_Init+0x74>
                      HAL_ADC_STATE_BUSY_INTERNAL,
                      HAL_ADC_STATE_READY);
  }
  else
  {
    tmp_hal_status = HAL_ERROR;
 8001ccc:	2301      	movs	r3, #1
 8001cce:	73fb      	strb	r3, [r7, #15]
  }
  
  /* Release Lock */
  __HAL_UNLOCK(hadc);
 8001cd0:	687b      	ldr	r3, [r7, #4]
 8001cd2:	2200      	movs	r2, #0
 8001cd4:	f883 203c 	strb.w	r2, [r3, #60]	; 0x3c

  /* Return function status */
  return tmp_hal_status;
 8001cd8:	7bfb      	ldrb	r3, [r7, #15]
}
 8001cda:	4618      	mov	r0, r3
 8001cdc:	3710      	adds	r7, #16
 8001cde:	46bd      	mov	sp, r7
 8001ce0:	bd80      	pop	{r7, pc}
	...

08001ce4 <HAL_ADC_ConfigChannel>:
  *         the configuration information for the specified ADC.
  * @param  sConfig ADC configuration structure. 
  * @retval HAL status
  */
HAL_StatusTypeDef HAL_ADC_ConfigChannel(ADC_HandleTypeDef* hadc, ADC_ChannelConfTypeDef* sConfig)
{
 8001ce4:	b480      	push	{r7}
 8001ce6:	b085      	sub	sp, #20
 8001ce8:	af00      	add	r7, sp, #0
 8001cea:	6078      	str	r0, [r7, #4]
 8001cec:	6039      	str	r1, [r7, #0]
  __IO uint32_t counter = 0U;
 8001cee:	2300      	movs	r3, #0
 8001cf0:	60bb      	str	r3, [r7, #8]
  assert_param(IS_ADC_CHANNEL(sConfig->Channel));
  assert_param(IS_ADC_REGULAR_RANK(sConfig->Rank));
  assert_param(IS_ADC_SAMPLE_TIME(sConfig->SamplingTime));
  
  /* Process locked */
  __HAL_LOCK(hadc);
 8001cf2:	687b      	ldr	r3, [r7, #4]
 8001cf4:	f893 303c 	ldrb.w	r3, [r3, #60]	; 0x3c
 8001cf8:	2b01      	cmp	r3, #1
 8001cfa:	d101      	bne.n	8001d00 <HAL_ADC_ConfigChannel+0x1c>
 8001cfc:	2302      	movs	r3, #2
 8001cfe:	e113      	b.n	8001f28 <HAL_ADC_ConfigChannel+0x244>
 8001d00:	687b      	ldr	r3, [r7, #4]
 8001d02:	2201      	movs	r2, #1
 8001d04:	f883 203c 	strb.w	r2, [r3, #60]	; 0x3c
    
  /* if ADC_Channel_10 ... ADC_Channel_18 is selected */
  if (sConfig->Channel > ADC_CHANNEL_9)
 8001d08:	683b      	ldr	r3, [r7, #0]
 8001d0a:	681b      	ldr	r3, [r3, #0]
 8001d0c:	2b09      	cmp	r3, #9
 8001d0e:	d925      	bls.n	8001d5c <HAL_ADC_ConfigChannel+0x78>
  {
    /* Clear the old sample time */
    hadc->Instance->SMPR1 &= ~ADC_SMPR1(ADC_SMPR1_SMP10, sConfig->Channel);
 8001d10:	687b      	ldr	r3, [r7, #4]
 8001d12:	681b      	ldr	r3, [r3, #0]
 8001d14:	68d9      	ldr	r1, [r3, #12]
 8001d16:	683b      	ldr	r3, [r7, #0]
 8001d18:	681b      	ldr	r3, [r3, #0]
 8001d1a:	b29b      	uxth	r3, r3
 8001d1c:	461a      	mov	r2, r3
 8001d1e:	4613      	mov	r3, r2
 8001d20:	005b      	lsls	r3, r3, #1
 8001d22:	4413      	add	r3, r2
 8001d24:	3b1e      	subs	r3, #30
 8001d26:	2207      	movs	r2, #7
 8001d28:	fa02 f303 	lsl.w	r3, r2, r3
 8001d2c:	43da      	mvns	r2, r3
 8001d2e:	687b      	ldr	r3, [r7, #4]
 8001d30:	681b      	ldr	r3, [r3, #0]
 8001d32:	400a      	ands	r2, r1
 8001d34:	60da      	str	r2, [r3, #12]
    
    /* Set the new sample time */
    hadc->Instance->SMPR1 |= ADC_SMPR1(sConfig->SamplingTime, sConfig->Channel);
 8001d36:	687b      	ldr	r3, [r7, #4]
 8001d38:	681b      	ldr	r3, [r3, #0]
 8001d3a:	68d9      	ldr	r1, [r3, #12]
 8001d3c:	683b      	ldr	r3, [r7, #0]
 8001d3e:	689a      	ldr	r2, [r3, #8]
 8001d40:	683b      	ldr	r3, [r7, #0]
 8001d42:	681b      	ldr	r3, [r3, #0]
 8001d44:	b29b      	uxth	r3, r3
 8001d46:	4618      	mov	r0, r3
 8001d48:	4603      	mov	r3, r0
 8001d4a:	005b      	lsls	r3, r3, #1
 8001d4c:	4403      	add	r3, r0
 8001d4e:	3b1e      	subs	r3, #30
 8001d50:	409a      	lsls	r2, r3
 8001d52:	687b      	ldr	r3, [r7, #4]
 8001d54:	681b      	ldr	r3, [r3, #0]
 8001d56:	430a      	orrs	r2, r1
 8001d58:	60da      	str	r2, [r3, #12]
 8001d5a:	e022      	b.n	8001da2 <HAL_ADC_ConfigChannel+0xbe>
  }
  else /* ADC_Channel include in ADC_Channel_[0..9] */
  {
    /* Clear the old sample time */
    hadc->Instance->SMPR2 &= ~ADC_SMPR2(ADC_SMPR2_SMP0, sConfig->Channel);
 8001d5c:	687b      	ldr	r3, [r7, #4]
 8001d5e:	681b      	ldr	r3, [r3, #0]
 8001d60:	6919      	ldr	r1, [r3, #16]
 8001d62:	683b      	ldr	r3, [r7, #0]
 8001d64:	681b      	ldr	r3, [r3, #0]
 8001d66:	b29b      	uxth	r3, r3
 8001d68:	461a      	mov	r2, r3
 8001d6a:	4613      	mov	r3, r2
 8001d6c:	005b      	lsls	r3, r3, #1
 8001d6e:	4413      	add	r3, r2
 8001d70:	2207      	movs	r2, #7
 8001d72:	fa02 f303 	lsl.w	r3, r2, r3
 8001d76:	43da      	mvns	r2, r3
 8001d78:	687b      	ldr	r3, [r7, #4]
 8001d7a:	681b      	ldr	r3, [r3, #0]
 8001d7c:	400a      	ands	r2, r1
 8001d7e:	611a      	str	r2, [r3, #16]
    
    /* Set the new sample time */
    hadc->Instance->SMPR2 |= ADC_SMPR2(sConfig->SamplingTime, sConfig->Channel);
 8001d80:	687b      	ldr	r3, [r7, #4]
 8001d82:	681b      	ldr	r3, [r3, #0]
 8001d84:	6919      	ldr	r1, [r3, #16]
 8001d86:	683b      	ldr	r3, [r7, #0]
 8001d88:	689a      	ldr	r2, [r3, #8]
 8001d8a:	683b      	ldr	r3, [r7, #0]
 8001d8c:	681b      	ldr	r3, [r3, #0]
 8001d8e:	b29b      	uxth	r3, r3
 8001d90:	4618      	mov	r0, r3
 8001d92:	4603      	mov	r3, r0
 8001d94:	005b      	lsls	r3, r3, #1
 8001d96:	4403      	add	r3, r0
 8001d98:	409a      	lsls	r2, r3
 8001d9a:	687b      	ldr	r3, [r7, #4]
 8001d9c:	681b      	ldr	r3, [r3, #0]
 8001d9e:	430a      	orrs	r2, r1
 8001da0:	611a      	str	r2, [r3, #16]
  }
  
  /* For Rank 1 to 6 */
  if (sConfig->Rank < 7U)
 8001da2:	683b      	ldr	r3, [r7, #0]
 8001da4:	685b      	ldr	r3, [r3, #4]
 8001da6:	2b06      	cmp	r3, #6
 8001da8:	d824      	bhi.n	8001df4 <HAL_ADC_ConfigChannel+0x110>
  {
    /* Clear the old SQx bits for the selected rank */
    hadc->Instance->SQR3 &= ~ADC_SQR3_RK(ADC_SQR3_SQ1, sConfig->Rank);
 8001daa:	687b      	ldr	r3, [r7, #4]
 8001dac:	681b      	ldr	r3, [r3, #0]
 8001dae:	6b59      	ldr	r1, [r3, #52]	; 0x34
 8001db0:	683b      	ldr	r3, [r7, #0]
 8001db2:	685a      	ldr	r2, [r3, #4]
 8001db4:	4613      	mov	r3, r2
 8001db6:	009b      	lsls	r3, r3, #2
 8001db8:	4413      	add	r3, r2
 8001dba:	3b05      	subs	r3, #5
 8001dbc:	221f      	movs	r2, #31
 8001dbe:	fa02 f303 	lsl.w	r3, r2, r3
 8001dc2:	43da      	mvns	r2, r3
 8001dc4:	687b      	ldr	r3, [r7, #4]
 8001dc6:	681b      	ldr	r3, [r3, #0]
 8001dc8:	400a      	ands	r2, r1
 8001dca:	635a      	str	r2, [r3, #52]	; 0x34
    
    /* Set the SQx bits for the selected rank */
    hadc->Instance->SQR3 |= ADC_SQR3_RK(sConfig->Channel, sConfig->Rank);
 8001dcc:	687b      	ldr	r3, [r7, #4]
 8001dce:	681b      	ldr	r3, [r3, #0]
 8001dd0:	6b59      	ldr	r1, [r3, #52]	; 0x34
 8001dd2:	683b      	ldr	r3, [r7, #0]
 8001dd4:	681b      	ldr	r3, [r3, #0]
 8001dd6:	b29b      	uxth	r3, r3
 8001dd8:	4618      	mov	r0, r3
 8001dda:	683b      	ldr	r3, [r7, #0]
 8001ddc:	685a      	ldr	r2, [r3, #4]
 8001dde:	4613      	mov	r3, r2
 8001de0:	009b      	lsls	r3, r3, #2
 8001de2:	4413      	add	r3, r2
 8001de4:	3b05      	subs	r3, #5
 8001de6:	fa00 f203 	lsl.w	r2, r0, r3
 8001dea:	687b      	ldr	r3, [r7, #4]
 8001dec:	681b      	ldr	r3, [r3, #0]
 8001dee:	430a      	orrs	r2, r1
 8001df0:	635a      	str	r2, [r3, #52]	; 0x34
 8001df2:	e04c      	b.n	8001e8e <HAL_ADC_ConfigChannel+0x1aa>
  }
  /* For Rank 7 to 12 */
  else if (sConfig->Rank < 13U)
 8001df4:	683b      	ldr	r3, [r7, #0]
 8001df6:	685b      	ldr	r3, [r3, #4]
 8001df8:	2b0c      	cmp	r3, #12
 8001dfa:	d824      	bhi.n	8001e46 <HAL_ADC_ConfigChannel+0x162>
  {
    /* Clear the old SQx bits for the selected rank */
    hadc->Instance->SQR2 &= ~ADC_SQR2_RK(ADC_SQR2_SQ7, sConfig->Rank);
 8001dfc:	687b      	ldr	r3, [r7, #4]
 8001dfe:	681b      	ldr	r3, [r3, #0]
 8001e00:	6b19      	ldr	r1, [r3, #48]	; 0x30
 8001e02:	683b      	ldr	r3, [r7, #0]
 8001e04:	685a      	ldr	r2, [r3, #4]
 8001e06:	4613      	mov	r3, r2
 8001e08:	009b      	lsls	r3, r3, #2
 8001e0a:	4413      	add	r3, r2
 8001e0c:	3b23      	subs	r3, #35	; 0x23
 8001e0e:	221f      	movs	r2, #31
 8001e10:	fa02 f303 	lsl.w	r3, r2, r3
 8001e14:	43da      	mvns	r2, r3
 8001e16:	687b      	ldr	r3, [r7, #4]
 8001e18:	681b      	ldr	r3, [r3, #0]
 8001e1a:	400a      	ands	r2, r1
 8001e1c:	631a      	str	r2, [r3, #48]	; 0x30
    
    /* Set the SQx bits for the selected rank */
    hadc->Instance->SQR2 |= ADC_SQR2_RK(sConfig->Channel, sConfig->Rank);
 8001e1e:	687b      	ldr	r3, [r7, #4]
 8001e20:	681b      	ldr	r3, [r3, #0]
 8001e22:	6b19      	ldr	r1, [r3, #48]	; 0x30
 8001e24:	683b      	ldr	r3, [r7, #0]
 8001e26:	681b      	ldr	r3, [r3, #0]
 8001e28:	b29b      	uxth	r3, r3
 8001e2a:	4618      	mov	r0, r3
 8001e2c:	683b      	ldr	r3, [r7, #0]
 8001e2e:	685a      	ldr	r2, [r3, #4]
 8001e30:	4613      	mov	r3, r2
 8001e32:	009b      	lsls	r3, r3, #2
 8001e34:	4413      	add	r3, r2
 8001e36:	3b23      	subs	r3, #35	; 0x23
 8001e38:	fa00 f203 	lsl.w	r2, r0, r3
 8001e3c:	687b      	ldr	r3, [r7, #4]
 8001e3e:	681b      	ldr	r3, [r3, #0]
 8001e40:	430a      	orrs	r2, r1
 8001e42:	631a      	str	r2, [r3, #48]	; 0x30
 8001e44:	e023      	b.n	8001e8e <HAL_ADC_ConfigChannel+0x1aa>
  }
  /* For Rank 13 to 16 */
  else
  {
    /* Clear the old SQx bits for the selected rank */
    hadc->Instance->SQR1 &= ~ADC_SQR1_RK(ADC_SQR1_SQ13, sConfig->Rank);
 8001e46:	687b      	ldr	r3, [r7, #4]
 8001e48:	681b      	ldr	r3, [r3, #0]
 8001e4a:	6ad9      	ldr	r1, [r3, #44]	; 0x2c
 8001e4c:	683b      	ldr	r3, [r7, #0]
 8001e4e:	685a      	ldr	r2, [r3, #4]
 8001e50:	4613      	mov	r3, r2
 8001e52:	009b      	lsls	r3, r3, #2
 8001e54:	4413      	add	r3, r2
 8001e56:	3b41      	subs	r3, #65	; 0x41
 8001e58:	221f      	movs	r2, #31
 8001e5a:	fa02 f303 	lsl.w	r3, r2, r3
 8001e5e:	43da      	mvns	r2, r3
 8001e60:	687b      	ldr	r3, [r7, #4]
 8001e62:	681b      	ldr	r3, [r3, #0]
 8001e64:	400a      	ands	r2, r1
 8001e66:	62da      	str	r2, [r3, #44]	; 0x2c
    
    /* Set the SQx bits for the selected rank */
    hadc->Instance->SQR1 |= ADC_SQR1_RK(sConfig->Channel, sConfig->Rank);
 8001e68:	687b      	ldr	r3, [r7, #4]
 8001e6a:	681b      	ldr	r3, [r3, #0]
 8001e6c:	6ad9      	ldr	r1, [r3, #44]	; 0x2c
 8001e6e:	683b      	ldr	r3, [r7, #0]
 8001e70:	681b      	ldr	r3, [r3, #0]
 8001e72:	b29b      	uxth	r3, r3
 8001e74:	4618      	mov	r0, r3
 8001e76:	683b      	ldr	r3, [r7, #0]
 8001e78:	685a      	ldr	r2, [r3, #4]
 8001e7a:	4613      	mov	r3, r2
 8001e7c:	009b      	lsls	r3, r3, #2
 8001e7e:	4413      	add	r3, r2
 8001e80:	3b41      	subs	r3, #65	; 0x41
 8001e82:	fa00 f203 	lsl.w	r2, r0, r3
 8001e86:	687b      	ldr	r3, [r7, #4]
 8001e88:	681b      	ldr	r3, [r3, #0]
 8001e8a:	430a      	orrs	r2, r1
 8001e8c:	62da      	str	r2, [r3, #44]	; 0x2c
  }

    /* Pointer to the common control register to which is belonging hadc    */
    /* (Depending on STM32F4 product, there may be up to 3 ADCs and 1 common */
    /* control register)                                                    */
    tmpADC_Common = ADC_COMMON_REGISTER(hadc);
 8001e8e:	4b29      	ldr	r3, [pc, #164]	; (8001f34 <HAL_ADC_ConfigChannel+0x250>)
 8001e90:	60fb      	str	r3, [r7, #12]

  /* if ADC1 Channel_18 is selected for VBAT Channel ennable VBATE */
  if ((hadc->Instance == ADC1) && (sConfig->Channel == ADC_CHANNEL_VBAT))
 8001e92:	687b      	ldr	r3, [r7, #4]
 8001e94:	681b      	ldr	r3, [r3, #0]
 8001e96:	4a28      	ldr	r2, [pc, #160]	; (8001f38 <HAL_ADC_ConfigChannel+0x254>)
 8001e98:	4293      	cmp	r3, r2
 8001e9a:	d10f      	bne.n	8001ebc <HAL_ADC_ConfigChannel+0x1d8>
 8001e9c:	683b      	ldr	r3, [r7, #0]
 8001e9e:	681b      	ldr	r3, [r3, #0]
 8001ea0:	2b12      	cmp	r3, #18
 8001ea2:	d10b      	bne.n	8001ebc <HAL_ADC_ConfigChannel+0x1d8>
  {
    /* Disable the TEMPSENSOR channel in case of using board with multiplixed ADC_CHANNEL_VBAT & ADC_CHANNEL_TEMPSENSOR*/    
    if ((uint16_t)ADC_CHANNEL_TEMPSENSOR == (uint16_t)ADC_CHANNEL_VBAT)
    {
      tmpADC_Common->CCR &= ~ADC_CCR_TSVREFE;
 8001ea4:	68fb      	ldr	r3, [r7, #12]
 8001ea6:	685b      	ldr	r3, [r3, #4]
 8001ea8:	f423 0200 	bic.w	r2, r3, #8388608	; 0x800000
 8001eac:	68fb      	ldr	r3, [r7, #12]
 8001eae:	605a      	str	r2, [r3, #4]
    }
    /* Enable the VBAT channel*/
    tmpADC_Common->CCR |= ADC_CCR_VBATE;
 8001eb0:	68fb      	ldr	r3, [r7, #12]
 8001eb2:	685b      	ldr	r3, [r3, #4]
 8001eb4:	f443 0280 	orr.w	r2, r3, #4194304	; 0x400000
 8001eb8:	68fb      	ldr	r3, [r7, #12]
 8001eba:	605a      	str	r2, [r3, #4]
  }
  
  /* if ADC1 Channel_16 or Channel_18 is selected for Temperature sensor or 
     Channel_17 is selected for VREFINT enable TSVREFE */
  if ((hadc->Instance == ADC1) && ((sConfig->Channel == ADC_CHANNEL_TEMPSENSOR) || (sConfig->Channel == ADC_CHANNEL_VREFINT)))
 8001ebc:	687b      	ldr	r3, [r7, #4]
 8001ebe:	681b      	ldr	r3, [r3, #0]
 8001ec0:	4a1d      	ldr	r2, [pc, #116]	; (8001f38 <HAL_ADC_ConfigChannel+0x254>)
 8001ec2:	4293      	cmp	r3, r2
 8001ec4:	d12b      	bne.n	8001f1e <HAL_ADC_ConfigChannel+0x23a>
 8001ec6:	683b      	ldr	r3, [r7, #0]
 8001ec8:	681b      	ldr	r3, [r3, #0]
 8001eca:	4a1c      	ldr	r2, [pc, #112]	; (8001f3c <HAL_ADC_ConfigChannel+0x258>)
 8001ecc:	4293      	cmp	r3, r2
 8001ece:	d003      	beq.n	8001ed8 <HAL_ADC_ConfigChannel+0x1f4>
 8001ed0:	683b      	ldr	r3, [r7, #0]
 8001ed2:	681b      	ldr	r3, [r3, #0]
 8001ed4:	2b11      	cmp	r3, #17
 8001ed6:	d122      	bne.n	8001f1e <HAL_ADC_ConfigChannel+0x23a>
  {
    /* Disable the VBAT channel in case of using board with multiplixed ADC_CHANNEL_VBAT & ADC_CHANNEL_TEMPSENSOR*/
    if ((uint16_t)ADC_CHANNEL_TEMPSENSOR == (uint16_t)ADC_CHANNEL_VBAT)
    {
      tmpADC_Common->CCR &= ~ADC_CCR_VBATE;
 8001ed8:	68fb      	ldr	r3, [r7, #12]
 8001eda:	685b      	ldr	r3, [r3, #4]
 8001edc:	f423 0280 	bic.w	r2, r3, #4194304	; 0x400000
 8001ee0:	68fb      	ldr	r3, [r7, #12]
 8001ee2:	605a      	str	r2, [r3, #4]
    }
    /* Enable the Temperature sensor and VREFINT channel*/
    tmpADC_Common->CCR |= ADC_CCR_TSVREFE;
 8001ee4:	68fb      	ldr	r3, [r7, #12]
 8001ee6:	685b      	ldr	r3, [r3, #4]
 8001ee8:	f443 0200 	orr.w	r2, r3, #8388608	; 0x800000
 8001eec:	68fb      	ldr	r3, [r7, #12]
 8001eee:	605a      	str	r2, [r3, #4]
    
    if((sConfig->Channel == ADC_CHANNEL_TEMPSENSOR))
 8001ef0:	683b      	ldr	r3, [r7, #0]
 8001ef2:	681b      	ldr	r3, [r3, #0]
 8001ef4:	4a11      	ldr	r2, [pc, #68]	; (8001f3c <HAL_ADC_ConfigChannel+0x258>)
 8001ef6:	4293      	cmp	r3, r2
 8001ef8:	d111      	bne.n	8001f1e <HAL_ADC_ConfigChannel+0x23a>
    {
      /* Delay for temperature sensor stabilization time */
      /* Compute number of CPU cycles to wait for */
      counter = (ADC_TEMPSENSOR_DELAY_US * (SystemCoreClock / 1000000U));
 8001efa:	4b11      	ldr	r3, [pc, #68]	; (8001f40 <HAL_ADC_ConfigChannel+0x25c>)
 8001efc:	681b      	ldr	r3, [r3, #0]
 8001efe:	4a11      	ldr	r2, [pc, #68]	; (8001f44 <HAL_ADC_ConfigChannel+0x260>)
 8001f00:	fba2 2303 	umull	r2, r3, r2, r3
 8001f04:	0c9a      	lsrs	r2, r3, #18
 8001f06:	4613      	mov	r3, r2
 8001f08:	009b      	lsls	r3, r3, #2
 8001f0a:	4413      	add	r3, r2
 8001f0c:	005b      	lsls	r3, r3, #1
 8001f0e:	60bb      	str	r3, [r7, #8]
      while(counter != 0U)
 8001f10:	e002      	b.n	8001f18 <HAL_ADC_ConfigChannel+0x234>
      {
        counter--;
 8001f12:	68bb      	ldr	r3, [r7, #8]
 8001f14:	3b01      	subs	r3, #1
 8001f16:	60bb      	str	r3, [r7, #8]
      while(counter != 0U)
 8001f18:	68bb      	ldr	r3, [r7, #8]
 8001f1a:	2b00      	cmp	r3, #0
 8001f1c:	d1f9      	bne.n	8001f12 <HAL_ADC_ConfigChannel+0x22e>
      }
    }
  }
  
  /* Process unlocked */
  __HAL_UNLOCK(hadc);
 8001f1e:	687b      	ldr	r3, [r7, #4]
 8001f20:	2200      	movs	r2, #0
 8001f22:	f883 203c 	strb.w	r2, [r3, #60]	; 0x3c
  
  /* Return function status */
  return HAL_OK;
 8001f26:	2300      	movs	r3, #0
}
 8001f28:	4618      	mov	r0, r3
 8001f2a:	3714      	adds	r7, #20
 8001f2c:	46bd      	mov	sp, r7
 8001f2e:	f85d 7b04 	ldr.w	r7, [sp], #4
 8001f32:	4770      	bx	lr
 8001f34:	40012300 	.word	0x40012300
 8001f38:	40012000 	.word	0x40012000
 8001f3c:	10000012 	.word	0x10000012
 8001f40:	20000000 	.word	0x20000000
 8001f44:	431bde83 	.word	0x431bde83

08001f48 <ADC_Init>:
  * @param  hadc pointer to a ADC_HandleTypeDef structure that contains
  *         the configuration information for the specified ADC.  
  * @retval None
  */
static void ADC_Init(ADC_HandleTypeDef* hadc)
{
 8001f48:	b480      	push	{r7}
 8001f4a:	b085      	sub	sp, #20
 8001f4c:	af00      	add	r7, sp, #0
 8001f4e:	6078      	str	r0, [r7, #4]
  
  /* Set ADC parameters */
  /* Pointer to the common control register to which is belonging hadc    */
  /* (Depending on STM32F4 product, there may be up to 3 ADCs and 1 common */
  /* control register)                                                    */
  tmpADC_Common = ADC_COMMON_REGISTER(hadc);
 8001f50:	4b79      	ldr	r3, [pc, #484]	; (8002138 <ADC_Init+0x1f0>)
 8001f52:	60fb      	str	r3, [r7, #12]
  
  /* Set the ADC clock prescaler */
  tmpADC_Common->CCR &= ~(ADC_CCR_ADCPRE);
 8001f54:	68fb      	ldr	r3, [r7, #12]
 8001f56:	685b      	ldr	r3, [r3, #4]
 8001f58:	f423 3240 	bic.w	r2, r3, #196608	; 0x30000
 8001f5c:	68fb      	ldr	r3, [r7, #12]
 8001f5e:	605a      	str	r2, [r3, #4]
  tmpADC_Common->CCR |=  hadc->Init.ClockPrescaler;
 8001f60:	68fb      	ldr	r3, [r7, #12]
 8001f62:	685a      	ldr	r2, [r3, #4]
 8001f64:	687b      	ldr	r3, [r7, #4]
 8001f66:	685b      	ldr	r3, [r3, #4]
 8001f68:	431a      	orrs	r2, r3
 8001f6a:	68fb      	ldr	r3, [r7, #12]
 8001f6c:	605a      	str	r2, [r3, #4]
  
  /* Set ADC scan mode */
  hadc->Instance->CR1 &= ~(ADC_CR1_SCAN);
 8001f6e:	687b      	ldr	r3, [r7, #4]
 8001f70:	681b      	ldr	r3, [r3, #0]
 8001f72:	685a      	ldr	r2, [r3, #4]
 8001f74:	687b      	ldr	r3, [r7, #4]
 8001f76:	681b      	ldr	r3, [r3, #0]
 8001f78:	f422 7280 	bic.w	r2, r2, #256	; 0x100
 8001f7c:	605a      	str	r2, [r3, #4]
  hadc->Instance->CR1 |=  ADC_CR1_SCANCONV(hadc->Init.ScanConvMode);
 8001f7e:	687b      	ldr	r3, [r7, #4]
 8001f80:	681b      	ldr	r3, [r3, #0]
 8001f82:	6859      	ldr	r1, [r3, #4]
 8001f84:	687b      	ldr	r3, [r7, #4]
 8001f86:	691b      	ldr	r3, [r3, #16]
 8001f88:	021a      	lsls	r2, r3, #8
 8001f8a:	687b      	ldr	r3, [r7, #4]
 8001f8c:	681b      	ldr	r3, [r3, #0]
 8001f8e:	430a      	orrs	r2, r1
 8001f90:	605a      	str	r2, [r3, #4]
  
  /* Set ADC resolution */
  hadc->Instance->CR1 &= ~(ADC_CR1_RES);
 8001f92:	687b      	ldr	r3, [r7, #4]
 8001f94:	681b      	ldr	r3, [r3, #0]
 8001f96:	685a      	ldr	r2, [r3, #4]
 8001f98:	687b      	ldr	r3, [r7, #4]
 8001f9a:	681b      	ldr	r3, [r3, #0]
 8001f9c:	f022 7240 	bic.w	r2, r2, #50331648	; 0x3000000
 8001fa0:	605a      	str	r2, [r3, #4]
  hadc->Instance->CR1 |=  hadc->Init.Resolution;
 8001fa2:	687b      	ldr	r3, [r7, #4]
 8001fa4:	681b      	ldr	r3, [r3, #0]
 8001fa6:	6859      	ldr	r1, [r3, #4]
 8001fa8:	687b      	ldr	r3, [r7, #4]
 8001faa:	689a      	ldr	r2, [r3, #8]
 8001fac:	687b      	ldr	r3, [r7, #4]
 8001fae:	681b      	ldr	r3, [r3, #0]
 8001fb0:	430a      	orrs	r2, r1
 8001fb2:	605a      	str	r2, [r3, #4]
  
  /* Set ADC data alignment */
  hadc->Instance->CR2 &= ~(ADC_CR2_ALIGN);
 8001fb4:	687b      	ldr	r3, [r7, #4]
 8001fb6:	681b      	ldr	r3, [r3, #0]
 8001fb8:	689a      	ldr	r2, [r3, #8]
 8001fba:	687b      	ldr	r3, [r7, #4]
 8001fbc:	681b      	ldr	r3, [r3, #0]
 8001fbe:	f422 6200 	bic.w	r2, r2, #2048	; 0x800
 8001fc2:	609a      	str	r2, [r3, #8]
  hadc->Instance->CR2 |= hadc->Init.DataAlign;
 8001fc4:	687b      	ldr	r3, [r7, #4]
 8001fc6:	681b      	ldr	r3, [r3, #0]
 8001fc8:	6899      	ldr	r1, [r3, #8]
 8001fca:	687b      	ldr	r3, [r7, #4]
 8001fcc:	68da      	ldr	r2, [r3, #12]
 8001fce:	687b      	ldr	r3, [r7, #4]
 8001fd0:	681b      	ldr	r3, [r3, #0]
 8001fd2:	430a      	orrs	r2, r1
 8001fd4:	609a      	str	r2, [r3, #8]
  /* Enable external trigger if trigger selection is different of software  */
  /* start.                                                                 */
  /* Note: This configuration keeps the hardware feature of parameter       */
  /*       ExternalTrigConvEdge "trigger edge none" equivalent to           */
  /*       software start.                                                  */
  if(hadc->Init.ExternalTrigConv != ADC_SOFTWARE_START)
 8001fd6:	687b      	ldr	r3, [r7, #4]
 8001fd8:	6a9b      	ldr	r3, [r3, #40]	; 0x28
 8001fda:	4a58      	ldr	r2, [pc, #352]	; (800213c <ADC_Init+0x1f4>)
 8001fdc:	4293      	cmp	r3, r2
 8001fde:	d022      	beq.n	8002026 <ADC_Init+0xde>
  {
    /* Select external trigger to start conversion */
    hadc->Instance->CR2 &= ~(ADC_CR2_EXTSEL);
 8001fe0:	687b      	ldr	r3, [r7, #4]
 8001fe2:	681b      	ldr	r3, [r3, #0]
 8001fe4:	689a      	ldr	r2, [r3, #8]
 8001fe6:	687b      	ldr	r3, [r7, #4]
 8001fe8:	681b      	ldr	r3, [r3, #0]
 8001fea:	f022 6270 	bic.w	r2, r2, #251658240	; 0xf000000
 8001fee:	609a      	str	r2, [r3, #8]
    hadc->Instance->CR2 |= hadc->Init.ExternalTrigConv;
 8001ff0:	687b      	ldr	r3, [r7, #4]
 8001ff2:	681b      	ldr	r3, [r3, #0]
 8001ff4:	6899      	ldr	r1, [r3, #8]
 8001ff6:	687b      	ldr	r3, [r7, #4]
 8001ff8:	6a9a      	ldr	r2, [r3, #40]	; 0x28
 8001ffa:	687b      	ldr	r3, [r7, #4]
 8001ffc:	681b      	ldr	r3, [r3, #0]
 8001ffe:	430a      	orrs	r2, r1
 8002000:	609a      	str	r2, [r3, #8]
    
    /* Select external trigger polarity */
    hadc->Instance->CR2 &= ~(ADC_CR2_EXTEN);
 8002002:	687b      	ldr	r3, [r7, #4]
 8002004:	681b      	ldr	r3, [r3, #0]
 8002006:	689a      	ldr	r2, [r3, #8]
 8002008:	687b      	ldr	r3, [r7, #4]
 800200a:	681b      	ldr	r3, [r3, #0]
 800200c:	f022 5240 	bic.w	r2, r2, #805306368	; 0x30000000
 8002010:	609a      	str	r2, [r3, #8]
    hadc->Instance->CR2 |= hadc->Init.ExternalTrigConvEdge;
 8002012:	687b      	ldr	r3, [r7, #4]
 8002014:	681b      	ldr	r3, [r3, #0]
 8002016:	6899      	ldr	r1, [r3, #8]
 8002018:	687b      	ldr	r3, [r7, #4]
 800201a:	6ada      	ldr	r2, [r3, #44]	; 0x2c
 800201c:	687b      	ldr	r3, [r7, #4]
 800201e:	681b      	ldr	r3, [r3, #0]
 8002020:	430a      	orrs	r2, r1
 8002022:	609a      	str	r2, [r3, #8]
 8002024:	e00f      	b.n	8002046 <ADC_Init+0xfe>
  }
  else
  {
    /* Reset the external trigger */
    hadc->Instance->CR2 &= ~(ADC_CR2_EXTSEL);
 8002026:	687b      	ldr	r3, [r7, #4]
 8002028:	681b      	ldr	r3, [r3, #0]
 800202a:	689a      	ldr	r2, [r3, #8]
 800202c:	687b      	ldr	r3, [r7, #4]
 800202e:	681b      	ldr	r3, [r3, #0]
 8002030:	f022 6270 	bic.w	r2, r2, #251658240	; 0xf000000
 8002034:	609a      	str	r2, [r3, #8]
    hadc->Instance->CR2 &= ~(ADC_CR2_EXTEN);
 8002036:	687b      	ldr	r3, [r7, #4]
 8002038:	681b      	ldr	r3, [r3, #0]
 800203a:	689a      	ldr	r2, [r3, #8]
 800203c:	687b      	ldr	r3, [r7, #4]
 800203e:	681b      	ldr	r3, [r3, #0]
 8002040:	f022 5240 	bic.w	r2, r2, #805306368	; 0x30000000
 8002044:	609a      	str	r2, [r3, #8]
  }
  
  /* Enable or disable ADC continuous conversion mode */
  hadc->Instance->CR2 &= ~(ADC_CR2_CONT);
 8002046:	687b      	ldr	r3, [r7, #4]
 8002048:	681b      	ldr	r3, [r3, #0]
 800204a:	689a      	ldr	r2, [r3, #8]
 800204c:	687b      	ldr	r3, [r7, #4]
 800204e:	681b      	ldr	r3, [r3, #0]
 8002050:	f022 0202 	bic.w	r2, r2, #2
 8002054:	609a      	str	r2, [r3, #8]
  hadc->Instance->CR2 |= ADC_CR2_CONTINUOUS((uint32_t)hadc->Init.ContinuousConvMode);
 8002056:	687b      	ldr	r3, [r7, #4]
 8002058:	681b      	ldr	r3, [r3, #0]
 800205a:	6899      	ldr	r1, [r3, #8]
 800205c:	687b      	ldr	r3, [r7, #4]
 800205e:	7e1b      	ldrb	r3, [r3, #24]
 8002060:	005a      	lsls	r2, r3, #1
 8002062:	687b      	ldr	r3, [r7, #4]
 8002064:	681b      	ldr	r3, [r3, #0]
 8002066:	430a      	orrs	r2, r1
 8002068:	609a      	str	r2, [r3, #8]
  
  if(hadc->Init.DiscontinuousConvMode != DISABLE)
 800206a:	687b      	ldr	r3, [r7, #4]
 800206c:	f893 3020 	ldrb.w	r3, [r3, #32]
 8002070:	2b00      	cmp	r3, #0
 8002072:	d01b      	beq.n	80020ac <ADC_Init+0x164>
  {
    assert_param(IS_ADC_REGULAR_DISC_NUMBER(hadc->Init.NbrOfDiscConversion));
  
    /* Enable the selected ADC regular discontinuous mode */
    hadc->Instance->CR1 |= (uint32_t)ADC_CR1_DISCEN;
 8002074:	687b      	ldr	r3, [r7, #4]
 8002076:	681b      	ldr	r3, [r3, #0]
 8002078:	685a      	ldr	r2, [r3, #4]
 800207a:	687b      	ldr	r3, [r7, #4]
 800207c:	681b      	ldr	r3, [r3, #0]
 800207e:	f442 6200 	orr.w	r2, r2, #2048	; 0x800
 8002082:	605a      	str	r2, [r3, #4]
    
    /* Set the number of channels to be converted in discontinuous mode */
    hadc->Instance->CR1 &= ~(ADC_CR1_DISCNUM);
 8002084:	687b      	ldr	r3, [r7, #4]
 8002086:	681b      	ldr	r3, [r3, #0]
 8002088:	685a      	ldr	r2, [r3, #4]
 800208a:	687b      	ldr	r3, [r7, #4]
 800208c:	681b      	ldr	r3, [r3, #0]
 800208e:	f422 4260 	bic.w	r2, r2, #57344	; 0xe000
 8002092:	605a      	str	r2, [r3, #4]
    hadc->Instance->CR1 |=  ADC_CR1_DISCONTINUOUS(hadc->Init.NbrOfDiscConversion);
 8002094:	687b      	ldr	r3, [r7, #4]
 8002096:	681b      	ldr	r3, [r3, #0]
 8002098:	6859      	ldr	r1, [r3, #4]
 800209a:	687b      	ldr	r3, [r7, #4]
 800209c:	6a5b      	ldr	r3, [r3, #36]	; 0x24
 800209e:	3b01      	subs	r3, #1
 80020a0:	035a      	lsls	r2, r3, #13
 80020a2:	687b      	ldr	r3, [r7, #4]
 80020a4:	681b      	ldr	r3, [r3, #0]
 80020a6:	430a      	orrs	r2, r1
 80020a8:	605a      	str	r2, [r3, #4]
 80020aa:	e007      	b.n	80020bc <ADC_Init+0x174>
  }
  else
  {
    /* Disable the selected ADC regular discontinuous mode */
    hadc->Instance->CR1 &= ~(ADC_CR1_DISCEN);
 80020ac:	687b      	ldr	r3, [r7, #4]
 80020ae:	681b      	ldr	r3, [r3, #0]
 80020b0:	685a      	ldr	r2, [r3, #4]
 80020b2:	687b      	ldr	r3, [r7, #4]
 80020b4:	681b      	ldr	r3, [r3, #0]
 80020b6:	f422 6200 	bic.w	r2, r2, #2048	; 0x800
 80020ba:	605a      	str	r2, [r3, #4]
  }
  
  /* Set ADC number of conversion */
  hadc->Instance->SQR1 &= ~(ADC_SQR1_L);
 80020bc:	687b      	ldr	r3, [r7, #4]
 80020be:	681b      	ldr	r3, [r3, #0]
 80020c0:	6ada      	ldr	r2, [r3, #44]	; 0x2c
 80020c2:	687b      	ldr	r3, [r7, #4]
 80020c4:	681b      	ldr	r3, [r3, #0]
 80020c6:	f422 0270 	bic.w	r2, r2, #15728640	; 0xf00000
 80020ca:	62da      	str	r2, [r3, #44]	; 0x2c
  hadc->Instance->SQR1 |=  ADC_SQR1(hadc->Init.NbrOfConversion);
 80020cc:	687b      	ldr	r3, [r7, #4]
 80020ce:	681b      	ldr	r3, [r3, #0]
 80020d0:	6ad9      	ldr	r1, [r3, #44]	; 0x2c
 80020d2:	687b      	ldr	r3, [r7, #4]
 80020d4:	69db      	ldr	r3, [r3, #28]
 80020d6:	3b01      	subs	r3, #1
 80020d8:	051a      	lsls	r2, r3, #20
 80020da:	687b      	ldr	r3, [r7, #4]
 80020dc:	681b      	ldr	r3, [r3, #0]
 80020de:	430a      	orrs	r2, r1
 80020e0:	62da      	str	r2, [r3, #44]	; 0x2c
  
  /* Enable or disable ADC DMA continuous request */
  hadc->Instance->CR2 &= ~(ADC_CR2_DDS);
 80020e2:	687b      	ldr	r3, [r7, #4]
 80020e4:	681b      	ldr	r3, [r3, #0]
 80020e6:	689a      	ldr	r2, [r3, #8]
 80020e8:	687b      	ldr	r3, [r7, #4]
 80020ea:	681b      	ldr	r3, [r3, #0]
 80020ec:	f422 7200 	bic.w	r2, r2, #512	; 0x200
 80020f0:	609a      	str	r2, [r3, #8]
  hadc->Instance->CR2 |= ADC_CR2_DMAContReq((uint32_t)hadc->Init.DMAContinuousRequests);
 80020f2:	687b      	ldr	r3, [r7, #4]
 80020f4:	681b      	ldr	r3, [r3, #0]
 80020f6:	6899      	ldr	r1, [r3, #8]
 80020f8:	687b      	ldr	r3, [r7, #4]
 80020fa:	f893 3030 	ldrb.w	r3, [r3, #48]	; 0x30
 80020fe:	025a      	lsls	r2, r3, #9
 8002100:	687b      	ldr	r3, [r7, #4]
 8002102:	681b      	ldr	r3, [r3, #0]
 8002104:	430a      	orrs	r2, r1
 8002106:	609a      	str	r2, [r3, #8]
  
  /* Enable or disable ADC end of conversion selection */
  hadc->Instance->CR2 &= ~(ADC_CR2_EOCS);
 8002108:	687b      	ldr	r3, [r7, #4]
 800210a:	681b      	ldr	r3, [r3, #0]
 800210c:	689a      	ldr	r2, [r3, #8]
 800210e:	687b      	ldr	r3, [r7, #4]
 8002110:	681b      	ldr	r3, [r3, #0]
 8002112:	f422 6280 	bic.w	r2, r2, #1024	; 0x400
 8002116:	609a      	str	r2, [r3, #8]
  hadc->Instance->CR2 |= ADC_CR2_EOCSelection(hadc->Init.EOCSelection);
 8002118:	687b      	ldr	r3, [r7, #4]
 800211a:	681b      	ldr	r3, [r3, #0]
 800211c:	6899      	ldr	r1, [r3, #8]
 800211e:	687b      	ldr	r3, [r7, #4]
 8002120:	695b      	ldr	r3, [r3, #20]
 8002122:	029a      	lsls	r2, r3, #10
 8002124:	687b      	ldr	r3, [r7, #4]
 8002126:	681b      	ldr	r3, [r3, #0]
 8002128:	430a      	orrs	r2, r1
 800212a:	609a      	str	r2, [r3, #8]
}
 800212c:	bf00      	nop
 800212e:	3714      	adds	r7, #20
 8002130:	46bd      	mov	sp, r7
 8002132:	f85d 7b04 	ldr.w	r7, [sp], #4
 8002136:	4770      	bx	lr
 8002138:	40012300 	.word	0x40012300
 800213c:	0f000001 	.word	0x0f000001

08002140 <__NVIC_SetPriorityGrouping>:
           In case of a conflict between priority grouping and available
           priority bits (__NVIC_PRIO_BITS), the smallest possible priority group is set.
  \param [in]      PriorityGroup  Priority grouping field.
 */
__STATIC_INLINE void __NVIC_SetPriorityGrouping(uint32_t PriorityGroup)
{
 8002140:	b480      	push	{r7}
 8002142:	b085      	sub	sp, #20
 8002144:	af00      	add	r7, sp, #0
 8002146:	6078      	str	r0, [r7, #4]
  uint32_t reg_value;
  uint32_t PriorityGroupTmp = (PriorityGroup & (uint32_t)0x07UL);             /* only values 0..7 are used          */
 8002148:	687b      	ldr	r3, [r7, #4]
 800214a:	f003 0307 	and.w	r3, r3, #7
 800214e:	60fb      	str	r3, [r7, #12]

  reg_value  =  SCB->AIRCR;                                                   /* read old register configuration    */
 8002150:	4b0c      	ldr	r3, [pc, #48]	; (8002184 <__NVIC_SetPriorityGrouping+0x44>)
 8002152:	68db      	ldr	r3, [r3, #12]
 8002154:	60bb      	str	r3, [r7, #8]
  reg_value &= ~((uint32_t)(SCB_AIRCR_VECTKEY_Msk | SCB_AIRCR_PRIGROUP_Msk)); /* clear bits to change               */
 8002156:	68ba      	ldr	r2, [r7, #8]
 8002158:	f64f 03ff 	movw	r3, #63743	; 0xf8ff
 800215c:	4013      	ands	r3, r2
 800215e:	60bb      	str	r3, [r7, #8]
  reg_value  =  (reg_value                                   |
                ((uint32_t)0x5FAUL << SCB_AIRCR_VECTKEY_Pos) |
                (PriorityGroupTmp << SCB_AIRCR_PRIGROUP_Pos)  );              /* Insert write key and priority group */
 8002160:	68fb      	ldr	r3, [r7, #12]
 8002162:	021a      	lsls	r2, r3, #8
                ((uint32_t)0x5FAUL << SCB_AIRCR_VECTKEY_Pos) |
 8002164:	68bb      	ldr	r3, [r7, #8]
 8002166:	4313      	orrs	r3, r2
  reg_value  =  (reg_value                                   |
 8002168:	f043 63bf 	orr.w	r3, r3, #100139008	; 0x5f80000
 800216c:	f443 3300 	orr.w	r3, r3, #131072	; 0x20000
 8002170:	60bb      	str	r3, [r7, #8]
  SCB->AIRCR =  reg_value;
 8002172:	4a04      	ldr	r2, [pc, #16]	; (8002184 <__NVIC_SetPriorityGrouping+0x44>)
 8002174:	68bb      	ldr	r3, [r7, #8]
 8002176:	60d3      	str	r3, [r2, #12]
}
 8002178:	bf00      	nop
 800217a:	3714      	adds	r7, #20
 800217c:	46bd      	mov	sp, r7
 800217e:	f85d 7b04 	ldr.w	r7, [sp], #4
 8002182:	4770      	bx	lr
 8002184:	e000ed00 	.word	0xe000ed00

08002188 <__NVIC_GetPriorityGrouping>:
  \brief   Get Priority Grouping
  \details Reads the priority grouping field from the NVIC Interrupt Controller.
  \return                Priority grouping field (SCB->AIRCR [10:8] PRIGROUP field).
 */
__STATIC_INLINE uint32_t __NVIC_GetPriorityGrouping(void)
{
 8002188:	b480      	push	{r7}
 800218a:	af00      	add	r7, sp, #0
  return ((uint32_t)((SCB->AIRCR & SCB_AIRCR_PRIGROUP_Msk) >> SCB_AIRCR_PRIGROUP_Pos));
 800218c:	4b04      	ldr	r3, [pc, #16]	; (80021a0 <__NVIC_GetPriorityGrouping+0x18>)
 800218e:	68db      	ldr	r3, [r3, #12]
 8002190:	0a1b      	lsrs	r3, r3, #8
 8002192:	f003 0307 	and.w	r3, r3, #7
}
 8002196:	4618      	mov	r0, r3
 8002198:	46bd      	mov	sp, r7
 800219a:	f85d 7b04 	ldr.w	r7, [sp], #4
 800219e:	4770      	bx	lr
 80021a0:	e000ed00 	.word	0xe000ed00

080021a4 <__NVIC_EnableIRQ>:
  \details Enables a device specific interrupt in the NVIC interrupt controller.
  \param [in]      IRQn  Device specific interrupt number.
  \note    IRQn must not be negative.
 */
__STATIC_INLINE void __NVIC_EnableIRQ(IRQn_Type IRQn)
{
 80021a4:	b480      	push	{r7}
 80021a6:	b083      	sub	sp, #12
 80021a8:	af00      	add	r7, sp, #0
 80021aa:	4603      	mov	r3, r0
 80021ac:	71fb      	strb	r3, [r7, #7]
  if ((int32_t)(IRQn) >= 0)
 80021ae:	f997 3007 	ldrsb.w	r3, [r7, #7]
 80021b2:	2b00      	cmp	r3, #0
 80021b4:	db0b      	blt.n	80021ce <__NVIC_EnableIRQ+0x2a>
  {
    NVIC->ISER[(((uint32_t)IRQn) >> 5UL)] = (uint32_t)(1UL << (((uint32_t)IRQn) & 0x1FUL));
 80021b6:	79fb      	ldrb	r3, [r7, #7]
 80021b8:	f003 021f 	and.w	r2, r3, #31
 80021bc:	4907      	ldr	r1, [pc, #28]	; (80021dc <__NVIC_EnableIRQ+0x38>)
 80021be:	f997 3007 	ldrsb.w	r3, [r7, #7]
 80021c2:	095b      	lsrs	r3, r3, #5
 80021c4:	2001      	movs	r0, #1
 80021c6:	fa00 f202 	lsl.w	r2, r0, r2
 80021ca:	f841 2023 	str.w	r2, [r1, r3, lsl #2]
  }
}
 80021ce:	bf00      	nop
 80021d0:	370c      	adds	r7, #12
 80021d2:	46bd      	mov	sp, r7
 80021d4:	f85d 7b04 	ldr.w	r7, [sp], #4
 80021d8:	4770      	bx	lr
 80021da:	bf00      	nop
 80021dc:	e000e100 	.word	0xe000e100

080021e0 <__NVIC_SetPriority>:
  \param [in]      IRQn  Interrupt number.
  \param [in]  priority  Priority to set.
  \note    The priority cannot be set for every processor exception.
 */
__STATIC_INLINE void __NVIC_SetPriority(IRQn_Type IRQn, uint32_t priority)
{
 80021e0:	b480      	push	{r7}
 80021e2:	b083      	sub	sp, #12
 80021e4:	af00      	add	r7, sp, #0
 80021e6:	4603      	mov	r3, r0
 80021e8:	6039      	str	r1, [r7, #0]
 80021ea:	71fb      	strb	r3, [r7, #7]
  if ((int32_t)(IRQn) >= 0)
 80021ec:	f997 3007 	ldrsb.w	r3, [r7, #7]
 80021f0:	2b00      	cmp	r3, #0
 80021f2:	db0a      	blt.n	800220a <__NVIC_SetPriority+0x2a>
  {
    NVIC->IP[((uint32_t)IRQn)]               = (uint8_t)((priority << (8U - __NVIC_PRIO_BITS)) & (uint32_t)0xFFUL);
 80021f4:	683b      	ldr	r3, [r7, #0]
 80021f6:	b2da      	uxtb	r2, r3
 80021f8:	490c      	ldr	r1, [pc, #48]	; (800222c <__NVIC_SetPriority+0x4c>)
 80021fa:	f997 3007 	ldrsb.w	r3, [r7, #7]
 80021fe:	0112      	lsls	r2, r2, #4
 8002200:	b2d2      	uxtb	r2, r2
 8002202:	440b      	add	r3, r1
 8002204:	f883 2300 	strb.w	r2, [r3, #768]	; 0x300
  }
  else
  {
    SCB->SHP[(((uint32_t)IRQn) & 0xFUL)-4UL] = (uint8_t)((priority << (8U - __NVIC_PRIO_BITS)) & (uint32_t)0xFFUL);
  }
}
 8002208:	e00a      	b.n	8002220 <__NVIC_SetPriority+0x40>
    SCB->SHP[(((uint32_t)IRQn) & 0xFUL)-4UL] = (uint8_t)((priority << (8U - __NVIC_PRIO_BITS)) & (uint32_t)0xFFUL);
 800220a:	683b      	ldr	r3, [r7, #0]
 800220c:	b2da      	uxtb	r2, r3
 800220e:	4908      	ldr	r1, [pc, #32]	; (8002230 <__NVIC_SetPriority+0x50>)
 8002210:	79fb      	ldrb	r3, [r7, #7]
 8002212:	f003 030f 	and.w	r3, r3, #15
 8002216:	3b04      	subs	r3, #4
 8002218:	0112      	lsls	r2, r2, #4
 800221a:	b2d2      	uxtb	r2, r2
 800221c:	440b      	add	r3, r1
 800221e:	761a      	strb	r2, [r3, #24]
}
 8002220:	bf00      	nop
 8002222:	370c      	adds	r7, #12
 8002224:	46bd      	mov	sp, r7
 8002226:	f85d 7b04 	ldr.w	r7, [sp], #4
 800222a:	4770      	bx	lr
 800222c:	e000e100 	.word	0xe000e100
 8002230:	e000ed00 	.word	0xe000ed00

08002234 <NVIC_EncodePriority>:
  \param [in]   PreemptPriority  Preemptive priority value (starting from 0).
  \param [in]       SubPriority  Subpriority value (starting from 0).
  \return                        Encoded priority. Value can be used in the function \ref NVIC_SetPriority().
 */
__STATIC_INLINE uint32_t NVIC_EncodePriority (uint32_t PriorityGroup, uint32_t PreemptPriority, uint32_t SubPriority)
{
 8002234:	b480      	push	{r7}
 8002236:	b089      	sub	sp, #36	; 0x24
 8002238:	af00      	add	r7, sp, #0
 800223a:	60f8      	str	r0, [r7, #12]
 800223c:	60b9      	str	r1, [r7, #8]
 800223e:	607a      	str	r2, [r7, #4]
  uint32_t PriorityGroupTmp = (PriorityGroup & (uint32_t)0x07UL);   /* only values 0..7 are used          */
 8002240:	68fb      	ldr	r3, [r7, #12]
 8002242:	f003 0307 	and.w	r3, r3, #7
 8002246:	61fb      	str	r3, [r7, #28]
  uint32_t PreemptPriorityBits;
  uint32_t SubPriorityBits;

  PreemptPriorityBits = ((7UL - PriorityGroupTmp) > (uint32_t)(__NVIC_PRIO_BITS)) ? (uint32_t)(__NVIC_PRIO_BITS) : (uint32_t)(7UL - PriorityGroupTmp);
 8002248:	69fb      	ldr	r3, [r7, #28]
 800224a:	f1c3 0307 	rsb	r3, r3, #7
 800224e:	2b04      	cmp	r3, #4
 8002250:	bf28      	it	cs
 8002252:	2304      	movcs	r3, #4
 8002254:	61bb      	str	r3, [r7, #24]
  SubPriorityBits     = ((PriorityGroupTmp + (uint32_t)(__NVIC_PRIO_BITS)) < (uint32_t)7UL) ? (uint32_t)0UL : (uint32_t)((PriorityGroupTmp - 7UL) + (uint32_t)(__NVIC_PRIO_BITS));
 8002256:	69fb      	ldr	r3, [r7, #28]
 8002258:	3304      	adds	r3, #4
 800225a:	2b06      	cmp	r3, #6
 800225c:	d902      	bls.n	8002264 <NVIC_EncodePriority+0x30>
 800225e:	69fb      	ldr	r3, [r7, #28]
 8002260:	3b03      	subs	r3, #3
 8002262:	e000      	b.n	8002266 <NVIC_EncodePriority+0x32>
 8002264:	2300      	movs	r3, #0
 8002266:	617b      	str	r3, [r7, #20]

  return (
           ((PreemptPriority & (uint32_t)((1UL << (PreemptPriorityBits)) - 1UL)) << SubPriorityBits) |
 8002268:	f04f 32ff 	mov.w	r2, #4294967295
 800226c:	69bb      	ldr	r3, [r7, #24]
 800226e:	fa02 f303 	lsl.w	r3, r2, r3
 8002272:	43da      	mvns	r2, r3
 8002274:	68bb      	ldr	r3, [r7, #8]
 8002276:	401a      	ands	r2, r3
 8002278:	697b      	ldr	r3, [r7, #20]
 800227a:	409a      	lsls	r2, r3
           ((SubPriority     & (uint32_t)((1UL << (SubPriorityBits    )) - 1UL)))
 800227c:	f04f 31ff 	mov.w	r1, #4294967295
 8002280:	697b      	ldr	r3, [r7, #20]
 8002282:	fa01 f303 	lsl.w	r3, r1, r3
 8002286:	43d9      	mvns	r1, r3
 8002288:	687b      	ldr	r3, [r7, #4]
 800228a:	400b      	ands	r3, r1
           ((PreemptPriority & (uint32_t)((1UL << (PreemptPriorityBits)) - 1UL)) << SubPriorityBits) |
 800228c:	4313      	orrs	r3, r2
         );
}
 800228e:	4618      	mov	r0, r3
 8002290:	3724      	adds	r7, #36	; 0x24
 8002292:	46bd      	mov	sp, r7
 8002294:	f85d 7b04 	ldr.w	r7, [sp], #4
 8002298:	4770      	bx	lr
	...

0800229c <SysTick_Config>:
  \note    When the variable <b>__Vendor_SysTickConfig</b> is set to 1, then the
           function <b>SysTick_Config</b> is not included. In this case, the file <b><i>device</i>.h</b>
           must contain a vendor-specific implementation of this function.
 */
__STATIC_INLINE uint32_t SysTick_Config(uint32_t ticks)
{
 800229c:	b580      	push	{r7, lr}
 800229e:	b082      	sub	sp, #8
 80022a0:	af00      	add	r7, sp, #0
 80022a2:	6078      	str	r0, [r7, #4]
  if ((ticks - 1UL) > SysTick_LOAD_RELOAD_Msk)
 80022a4:	687b      	ldr	r3, [r7, #4]
 80022a6:	3b01      	subs	r3, #1
 80022a8:	f1b3 7f80 	cmp.w	r3, #16777216	; 0x1000000
 80022ac:	d301      	bcc.n	80022b2 <SysTick_Config+0x16>
  {
    return (1UL);                                                   /* Reload value impossible */
 80022ae:	2301      	movs	r3, #1
 80022b0:	e00f      	b.n	80022d2 <SysTick_Config+0x36>
  }

  SysTick->LOAD  = (uint32_t)(ticks - 1UL);                         /* set reload register */
 80022b2:	4a0a      	ldr	r2, [pc, #40]	; (80022dc <SysTick_Config+0x40>)
 80022b4:	687b      	ldr	r3, [r7, #4]
 80022b6:	3b01      	subs	r3, #1
 80022b8:	6053      	str	r3, [r2, #4]
  NVIC_SetPriority (SysTick_IRQn, (1UL << __NVIC_PRIO_BITS) - 1UL); /* set Priority for Systick Interrupt */
 80022ba:	210f      	movs	r1, #15
 80022bc:	f04f 30ff 	mov.w	r0, #4294967295
 80022c0:	f7ff ff8e 	bl	80021e0 <__NVIC_SetPriority>
  SysTick->VAL   = 0UL;                                             /* Load the SysTick Counter Value */
 80022c4:	4b05      	ldr	r3, [pc, #20]	; (80022dc <SysTick_Config+0x40>)
 80022c6:	2200      	movs	r2, #0
 80022c8:	609a      	str	r2, [r3, #8]
  SysTick->CTRL  = SysTick_CTRL_CLKSOURCE_Msk |
 80022ca:	4b04      	ldr	r3, [pc, #16]	; (80022dc <SysTick_Config+0x40>)
 80022cc:	2207      	movs	r2, #7
 80022ce:	601a      	str	r2, [r3, #0]
                   SysTick_CTRL_TICKINT_Msk   |
                   SysTick_CTRL_ENABLE_Msk;                         /* Enable SysTick IRQ and SysTick Timer */
  return (0UL);                                                     /* Function successful */
 80022d0:	2300      	movs	r3, #0
}
 80022d2:	4618      	mov	r0, r3
 80022d4:	3708      	adds	r7, #8
 80022d6:	46bd      	mov	sp, r7
 80022d8:	bd80      	pop	{r7, pc}
 80022da:	bf00      	nop
 80022dc:	e000e010 	.word	0xe000e010

080022e0 <HAL_NVIC_SetPriorityGrouping>:
  * @note   When the NVIC_PriorityGroup_0 is selected, IRQ preemption is no more possible. 
  *         The pending IRQ priority will be managed only by the subpriority. 
  * @retval None
  */
void HAL_NVIC_SetPriorityGrouping(uint32_t PriorityGroup)
{
 80022e0:	b580      	push	{r7, lr}
 80022e2:	b082      	sub	sp, #8
 80022e4:	af00      	add	r7, sp, #0
 80022e6:	6078      	str	r0, [r7, #4]
  /* Check the parameters */
  assert_param(IS_NVIC_PRIORITY_GROUP(PriorityGroup));
  
  /* Set the PRIGROUP[10:8] bits according to the PriorityGroup parameter value */
  NVIC_SetPriorityGrouping(PriorityGroup);
 80022e8:	6878      	ldr	r0, [r7, #4]
 80022ea:	f7ff ff29 	bl	8002140 <__NVIC_SetPriorityGrouping>
}
 80022ee:	bf00      	nop
 80022f0:	3708      	adds	r7, #8
 80022f2:	46bd      	mov	sp, r7
 80022f4:	bd80      	pop	{r7, pc}

080022f6 <HAL_NVIC_SetPriority>:
  *         This parameter can be a value between 0 and 15
  *         A lower priority value indicates a higher priority.          
  * @retval None
  */
void HAL_NVIC_SetPriority(IRQn_Type IRQn, uint32_t PreemptPriority, uint32_t SubPriority)
{ 
 80022f6:	b580      	push	{r7, lr}
 80022f8:	b086      	sub	sp, #24
 80022fa:	af00      	add	r7, sp, #0
 80022fc:	4603      	mov	r3, r0
 80022fe:	60b9      	str	r1, [r7, #8]
 8002300:	607a      	str	r2, [r7, #4]
 8002302:	73fb      	strb	r3, [r7, #15]
  uint32_t prioritygroup = 0x00U;
 8002304:	2300      	movs	r3, #0
 8002306:	617b      	str	r3, [r7, #20]
  
  /* Check the parameters */
  assert_param(IS_NVIC_SUB_PRIORITY(SubPriority));
  assert_param(IS_NVIC_PREEMPTION_PRIORITY(PreemptPriority));
  
  prioritygroup = NVIC_GetPriorityGrouping();
 8002308:	f7ff ff3e 	bl	8002188 <__NVIC_GetPriorityGrouping>
 800230c:	6178      	str	r0, [r7, #20]
  
  NVIC_SetPriority(IRQn, NVIC_EncodePriority(prioritygroup, PreemptPriority, SubPriority));
 800230e:	687a      	ldr	r2, [r7, #4]
 8002310:	68b9      	ldr	r1, [r7, #8]
 8002312:	6978      	ldr	r0, [r7, #20]
 8002314:	f7ff ff8e 	bl	8002234 <NVIC_EncodePriority>
 8002318:	4602      	mov	r2, r0
 800231a:	f997 300f 	ldrsb.w	r3, [r7, #15]
 800231e:	4611      	mov	r1, r2
 8002320:	4618      	mov	r0, r3
 8002322:	f7ff ff5d 	bl	80021e0 <__NVIC_SetPriority>
}
 8002326:	bf00      	nop
 8002328:	3718      	adds	r7, #24
 800232a:	46bd      	mov	sp, r7
 800232c:	bd80      	pop	{r7, pc}

0800232e <HAL_NVIC_EnableIRQ>:
  *         This parameter can be an enumerator of IRQn_Type enumeration
  *         (For the complete STM32 Devices IRQ Channels list, please refer to the appropriate CMSIS device file (stm32f4xxxx.h))
  * @retval None
  */
void HAL_NVIC_EnableIRQ(IRQn_Type IRQn)
{
 800232e:	b580      	push	{r7, lr}
 8002330:	b082      	sub	sp, #8
 8002332:	af00      	add	r7, sp, #0
 8002334:	4603      	mov	r3, r0
 8002336:	71fb      	strb	r3, [r7, #7]
  /* Check the parameters */
  assert_param(IS_NVIC_DEVICE_IRQ(IRQn));
  
  /* Enable interrupt */
  NVIC_EnableIRQ(IRQn);
 8002338:	f997 3007 	ldrsb.w	r3, [r7, #7]
 800233c:	4618      	mov	r0, r3
 800233e:	f7ff ff31 	bl	80021a4 <__NVIC_EnableIRQ>
}
 8002342:	bf00      	nop
 8002344:	3708      	adds	r7, #8
 8002346:	46bd      	mov	sp, r7
 8002348:	bd80      	pop	{r7, pc}

0800234a <HAL_SYSTICK_Config>:
  * @param  TicksNumb Specifies the ticks Number of ticks between two interrupts.
  * @retval status:  - 0  Function succeeded.
  *                  - 1  Function failed.
  */
uint32_t HAL_SYSTICK_Config(uint32_t TicksNumb)
{
 800234a:	b580      	push	{r7, lr}
 800234c:	b082      	sub	sp, #8
 800234e:	af00      	add	r7, sp, #0
 8002350:	6078      	str	r0, [r7, #4]
   return SysTick_Config(TicksNumb);
 8002352:	6878      	ldr	r0, [r7, #4]
 8002354:	f7ff ffa2 	bl	800229c <SysTick_Config>
 8002358:	4603      	mov	r3, r0
}
 800235a:	4618      	mov	r0, r3
 800235c:	3708      	adds	r7, #8
 800235e:	46bd      	mov	sp, r7
 8002360:	bd80      	pop	{r7, pc}
	...

08002364 <HAL_DMA_Init>:
  * @param  hdma Pointer to a DMA_HandleTypeDef structure that contains
  *               the configuration information for the specified DMA Stream.  
  * @retval HAL status
  */
HAL_StatusTypeDef HAL_DMA_Init(DMA_HandleTypeDef *hdma)
{
 8002364:	b580      	push	{r7, lr}
 8002366:	b086      	sub	sp, #24
 8002368:	af00      	add	r7, sp, #0
 800236a:	6078      	str	r0, [r7, #4]
  uint32_t tmp = 0U;
 800236c:	2300      	movs	r3, #0
 800236e:	617b      	str	r3, [r7, #20]
  uint32_t tickstart = HAL_GetTick();
 8002370:	f7ff fc68 	bl	8001c44 <HAL_GetTick>
 8002374:	6138      	str	r0, [r7, #16]
  DMA_Base_Registers *regs;

  /* Check the DMA peripheral state */
  if(hdma == NULL)
 8002376:	687b      	ldr	r3, [r7, #4]
 8002378:	2b00      	cmp	r3, #0
 800237a:	d101      	bne.n	8002380 <HAL_DMA_Init+0x1c>
  {
    return HAL_ERROR;
 800237c:	2301      	movs	r3, #1
 800237e:	e099      	b.n	80024b4 <HAL_DMA_Init+0x150>
    assert_param(IS_DMA_MEMORY_BURST(hdma->Init.MemBurst));
    assert_param(IS_DMA_PERIPHERAL_BURST(hdma->Init.PeriphBurst));
  }
  
  /* Allocate lock resource */
  __HAL_UNLOCK(hdma);
 8002380:	687b      	ldr	r3, [r7, #4]
 8002382:	2200      	movs	r2, #0
 8002384:	f883 2034 	strb.w	r2, [r3, #52]	; 0x34

  /* Change DMA peripheral state */
  hdma->State = HAL_DMA_STATE_BUSY;
 8002388:	687b      	ldr	r3, [r7, #4]
 800238a:	2202      	movs	r2, #2
 800238c:	f883 2035 	strb.w	r2, [r3, #53]	; 0x35
  
  /* Disable the peripheral */
  __HAL_DMA_DISABLE(hdma);
 8002390:	687b      	ldr	r3, [r7, #4]
 8002392:	681b      	ldr	r3, [r3, #0]
 8002394:	681a      	ldr	r2, [r3, #0]
 8002396:	687b      	ldr	r3, [r7, #4]
 8002398:	681b      	ldr	r3, [r3, #0]
 800239a:	f022 0201 	bic.w	r2, r2, #1
 800239e:	601a      	str	r2, [r3, #0]
  
  /* Check if the DMA Stream is effectively disabled */
  while((hdma->Instance->CR & DMA_SxCR_EN) != RESET)
 80023a0:	e00f      	b.n	80023c2 <HAL_DMA_Init+0x5e>
  {
    /* Check for the Timeout */
    if((HAL_GetTick() - tickstart ) > HAL_TIMEOUT_DMA_ABORT)
 80023a2:	f7ff fc4f 	bl	8001c44 <HAL_GetTick>
 80023a6:	4602      	mov	r2, r0
 80023a8:	693b      	ldr	r3, [r7, #16]
 80023aa:	1ad3      	subs	r3, r2, r3
 80023ac:	2b05      	cmp	r3, #5
 80023ae:	d908      	bls.n	80023c2 <HAL_DMA_Init+0x5e>
    {
      /* Update error code */
      hdma->ErrorCode = HAL_DMA_ERROR_TIMEOUT;
 80023b0:	687b      	ldr	r3, [r7, #4]
 80023b2:	2220      	movs	r2, #32
 80023b4:	655a      	str	r2, [r3, #84]	; 0x54
      
      /* Change the DMA state */
      hdma->State = HAL_DMA_STATE_TIMEOUT;
 80023b6:	687b      	ldr	r3, [r7, #4]
 80023b8:	2203      	movs	r2, #3
 80023ba:	f883 2035 	strb.w	r2, [r3, #53]	; 0x35
      
      return HAL_TIMEOUT;
 80023be:	2303      	movs	r3, #3
 80023c0:	e078      	b.n	80024b4 <HAL_DMA_Init+0x150>
  while((hdma->Instance->CR & DMA_SxCR_EN) != RESET)
 80023c2:	687b      	ldr	r3, [r7, #4]
 80023c4:	681b      	ldr	r3, [r3, #0]
 80023c6:	681b      	ldr	r3, [r3, #0]
 80023c8:	f003 0301 	and.w	r3, r3, #1
 80023cc:	2b00      	cmp	r3, #0
 80023ce:	d1e8      	bne.n	80023a2 <HAL_DMA_Init+0x3e>
    }
  }
  
  /* Get the CR register value */
  tmp = hdma->Instance->CR;
 80023d0:	687b      	ldr	r3, [r7, #4]
 80023d2:	681b      	ldr	r3, [r3, #0]
 80023d4:	681b      	ldr	r3, [r3, #0]
 80023d6:	617b      	str	r3, [r7, #20]

  /* Clear CHSEL, MBURST, PBURST, PL, MSIZE, PSIZE, MINC, PINC, CIRC, DIR, CT and DBM bits */
  tmp &= ((uint32_t)~(DMA_SxCR_CHSEL | DMA_SxCR_MBURST | DMA_SxCR_PBURST | \
 80023d8:	697a      	ldr	r2, [r7, #20]
 80023da:	4b38      	ldr	r3, [pc, #224]	; (80024bc <HAL_DMA_Init+0x158>)
 80023dc:	4013      	ands	r3, r2
 80023de:	617b      	str	r3, [r7, #20]
                      DMA_SxCR_PL    | DMA_SxCR_MSIZE  | DMA_SxCR_PSIZE  | \
                      DMA_SxCR_MINC  | DMA_SxCR_PINC   | DMA_SxCR_CIRC   | \
                      DMA_SxCR_DIR   | DMA_SxCR_CT     | DMA_SxCR_DBM));

  /* Prepare the DMA Stream configuration */
  tmp |=  hdma->Init.Channel             | hdma->Init.Direction        |
 80023e0:	687b      	ldr	r3, [r7, #4]
 80023e2:	685a      	ldr	r2, [r3, #4]
 80023e4:	687b      	ldr	r3, [r7, #4]
 80023e6:	689b      	ldr	r3, [r3, #8]
 80023e8:	431a      	orrs	r2, r3
          hdma->Init.PeriphInc           | hdma->Init.MemInc           |
 80023ea:	687b      	ldr	r3, [r7, #4]
 80023ec:	68db      	ldr	r3, [r3, #12]
  tmp |=  hdma->Init.Channel             | hdma->Init.Direction        |
 80023ee:	431a      	orrs	r2, r3
          hdma->Init.PeriphInc           | hdma->Init.MemInc           |
 80023f0:	687b      	ldr	r3, [r7, #4]
 80023f2:	691b      	ldr	r3, [r3, #16]
 80023f4:	431a      	orrs	r2, r3
          hdma->Init.PeriphDataAlignment | hdma->Init.MemDataAlignment |
 80023f6:	687b      	ldr	r3, [r7, #4]
 80023f8:	695b      	ldr	r3, [r3, #20]
          hdma->Init.PeriphInc           | hdma->Init.MemInc           |
 80023fa:	431a      	orrs	r2, r3
          hdma->Init.PeriphDataAlignment | hdma->Init.MemDataAlignment |
 80023fc:	687b      	ldr	r3, [r7, #4]
 80023fe:	699b      	ldr	r3, [r3, #24]
 8002400:	431a      	orrs	r2, r3
          hdma->Init.Mode                | hdma->Init.Priority;
 8002402:	687b      	ldr	r3, [r7, #4]
 8002404:	69db      	ldr	r3, [r3, #28]
          hdma->Init.PeriphDataAlignment | hdma->Init.MemDataAlignment |
 8002406:	431a      	orrs	r2, r3
          hdma->Init.Mode                | hdma->Init.Priority;
 8002408:	687b      	ldr	r3, [r7, #4]
 800240a:	6a1b      	ldr	r3, [r3, #32]
 800240c:	4313      	orrs	r3, r2
  tmp |=  hdma->Init.Channel             | hdma->Init.Direction        |
 800240e:	697a      	ldr	r2, [r7, #20]
 8002410:	4313      	orrs	r3, r2
 8002412:	617b      	str	r3, [r7, #20]

  /* the Memory burst and peripheral burst are not used when the FIFO is disabled */
  if(hdma->Init.FIFOMode == DMA_FIFOMODE_ENABLE)
 8002414:	687b      	ldr	r3, [r7, #4]
 8002416:	6a5b      	ldr	r3, [r3, #36]	; 0x24
 8002418:	2b04      	cmp	r3, #4
 800241a:	d107      	bne.n	800242c <HAL_DMA_Init+0xc8>
  {
    /* Get memory burst and peripheral burst */
    tmp |=  hdma->Init.MemBurst | hdma->Init.PeriphBurst;
 800241c:	687b      	ldr	r3, [r7, #4]
 800241e:	6ada      	ldr	r2, [r3, #44]	; 0x2c
 8002420:	687b      	ldr	r3, [r7, #4]
 8002422:	6b1b      	ldr	r3, [r3, #48]	; 0x30
 8002424:	4313      	orrs	r3, r2
 8002426:	697a      	ldr	r2, [r7, #20]
 8002428:	4313      	orrs	r3, r2
 800242a:	617b      	str	r3, [r7, #20]
  }
  
  /* Write to DMA Stream CR register */
  hdma->Instance->CR = tmp;  
 800242c:	687b      	ldr	r3, [r7, #4]
 800242e:	681b      	ldr	r3, [r3, #0]
 8002430:	697a      	ldr	r2, [r7, #20]
 8002432:	601a      	str	r2, [r3, #0]

  /* Get the FCR register value */
  tmp = hdma->Instance->FCR;
 8002434:	687b      	ldr	r3, [r7, #4]
 8002436:	681b      	ldr	r3, [r3, #0]
 8002438:	695b      	ldr	r3, [r3, #20]
 800243a:	617b      	str	r3, [r7, #20]

  /* Clear Direct mode and FIFO threshold bits */
  tmp &= (uint32_t)~(DMA_SxFCR_DMDIS | DMA_SxFCR_FTH);
 800243c:	697b      	ldr	r3, [r7, #20]
 800243e:	f023 0307 	bic.w	r3, r3, #7
 8002442:	617b      	str	r3, [r7, #20]

  /* Prepare the DMA Stream FIFO configuration */
  tmp |= hdma->Init.FIFOMode;
 8002444:	687b      	ldr	r3, [r7, #4]
 8002446:	6a5b      	ldr	r3, [r3, #36]	; 0x24
 8002448:	697a      	ldr	r2, [r7, #20]
 800244a:	4313      	orrs	r3, r2
 800244c:	617b      	str	r3, [r7, #20]

  /* The FIFO threshold is not used when the FIFO mode is disabled */
  if(hdma->Init.FIFOMode == DMA_FIFOMODE_ENABLE)
 800244e:	687b      	ldr	r3, [r7, #4]
 8002450:	6a5b      	ldr	r3, [r3, #36]	; 0x24
 8002452:	2b04      	cmp	r3, #4
 8002454:	d117      	bne.n	8002486 <HAL_DMA_Init+0x122>
  {
    /* Get the FIFO threshold */
    tmp |= hdma->Init.FIFOThreshold;
 8002456:	687b      	ldr	r3, [r7, #4]
 8002458:	6a9b      	ldr	r3, [r3, #40]	; 0x28
 800245a:	697a      	ldr	r2, [r7, #20]
 800245c:	4313      	orrs	r3, r2
 800245e:	617b      	str	r3, [r7, #20]
    
    /* Check compatibility between FIFO threshold level and size of the memory burst */
    /* for INCR4, INCR8, INCR16 bursts */
    if (hdma->Init.MemBurst != DMA_MBURST_SINGLE)
 8002460:	687b      	ldr	r3, [r7, #4]
 8002462:	6adb      	ldr	r3, [r3, #44]	; 0x2c
 8002464:	2b00      	cmp	r3, #0
 8002466:	d00e      	beq.n	8002486 <HAL_DMA_Init+0x122>
    {
      if (DMA_CheckFifoParam(hdma) != HAL_OK)
 8002468:	6878      	ldr	r0, [r7, #4]
 800246a:	f000 f9e9 	bl	8002840 <DMA_CheckFifoParam>
 800246e:	4603      	mov	r3, r0
 8002470:	2b00      	cmp	r3, #0
 8002472:	d008      	beq.n	8002486 <HAL_DMA_Init+0x122>
      {
        /* Update error code */
        hdma->ErrorCode = HAL_DMA_ERROR_PARAM;
 8002474:	687b      	ldr	r3, [r7, #4]
 8002476:	2240      	movs	r2, #64	; 0x40
 8002478:	655a      	str	r2, [r3, #84]	; 0x54
        
        /* Change the DMA state */
        hdma->State = HAL_DMA_STATE_READY;
 800247a:	687b      	ldr	r3, [r7, #4]
 800247c:	2201      	movs	r2, #1
 800247e:	f883 2035 	strb.w	r2, [r3, #53]	; 0x35
        
        return HAL_ERROR; 
 8002482:	2301      	movs	r3, #1
 8002484:	e016      	b.n	80024b4 <HAL_DMA_Init+0x150>
      }
    }
  }
  
  /* Write to DMA Stream FCR */
  hdma->Instance->FCR = tmp;
 8002486:	687b      	ldr	r3, [r7, #4]
 8002488:	681b      	ldr	r3, [r3, #0]
 800248a:	697a      	ldr	r2, [r7, #20]
 800248c:	615a      	str	r2, [r3, #20]

  /* Initialize StreamBaseAddress and StreamIndex parameters to be used to calculate
     DMA steam Base Address needed by HAL_DMA_IRQHandler() and HAL_DMA_PollForTransfer() */
  regs = (DMA_Base_Registers *)DMA_CalcBaseAndBitshift(hdma);
 800248e:	6878      	ldr	r0, [r7, #4]
 8002490:	f000 f9a0 	bl	80027d4 <DMA_CalcBaseAndBitshift>
 8002494:	4603      	mov	r3, r0
 8002496:	60fb      	str	r3, [r7, #12]
  
  /* Clear all interrupt flags */
  regs->IFCR = 0x3FU << hdma->StreamIndex;
 8002498:	687b      	ldr	r3, [r7, #4]
 800249a:	6ddb      	ldr	r3, [r3, #92]	; 0x5c
 800249c:	223f      	movs	r2, #63	; 0x3f
 800249e:	409a      	lsls	r2, r3
 80024a0:	68fb      	ldr	r3, [r7, #12]
 80024a2:	609a      	str	r2, [r3, #8]

  /* Initialize the error code */
  hdma->ErrorCode = HAL_DMA_ERROR_NONE;
 80024a4:	687b      	ldr	r3, [r7, #4]
 80024a6:	2200      	movs	r2, #0
 80024a8:	655a      	str	r2, [r3, #84]	; 0x54
                                                                                     
  /* Initialize the DMA state */
  hdma->State = HAL_DMA_STATE_READY;
 80024aa:	687b      	ldr	r3, [r7, #4]
 80024ac:	2201      	movs	r2, #1
 80024ae:	f883 2035 	strb.w	r2, [r3, #53]	; 0x35

  return HAL_OK;
 80024b2:	2300      	movs	r3, #0
}
 80024b4:	4618      	mov	r0, r3
 80024b6:	3718      	adds	r7, #24
 80024b8:	46bd      	mov	sp, r7
 80024ba:	bd80      	pop	{r7, pc}
 80024bc:	f010803f 	.word	0xf010803f

080024c0 <HAL_DMA_IRQHandler>:
  * @param  hdma pointer to a DMA_HandleTypeDef structure that contains
  *               the configuration information for the specified DMA Stream.  
  * @retval None
  */
void HAL_DMA_IRQHandler(DMA_HandleTypeDef *hdma)
{
 80024c0:	b580      	push	{r7, lr}
 80024c2:	b086      	sub	sp, #24
 80024c4:	af00      	add	r7, sp, #0
 80024c6:	6078      	str	r0, [r7, #4]
  uint32_t tmpisr;
  __IO uint32_t count = 0U;
 80024c8:	2300      	movs	r3, #0
 80024ca:	60bb      	str	r3, [r7, #8]
  uint32_t timeout = SystemCoreClock / 9600U;
 80024cc:	4b92      	ldr	r3, [pc, #584]	; (8002718 <HAL_DMA_IRQHandler+0x258>)
 80024ce:	681b      	ldr	r3, [r3, #0]
 80024d0:	4a92      	ldr	r2, [pc, #584]	; (800271c <HAL_DMA_IRQHandler+0x25c>)
 80024d2:	fba2 2303 	umull	r2, r3, r2, r3
 80024d6:	0a9b      	lsrs	r3, r3, #10
 80024d8:	617b      	str	r3, [r7, #20]

  /* calculate DMA base and stream number */
  DMA_Base_Registers *regs = (DMA_Base_Registers *)hdma->StreamBaseAddress;
 80024da:	687b      	ldr	r3, [r7, #4]
 80024dc:	6d9b      	ldr	r3, [r3, #88]	; 0x58
 80024de:	613b      	str	r3, [r7, #16]

  tmpisr = regs->ISR;
 80024e0:	693b      	ldr	r3, [r7, #16]
 80024e2:	681b      	ldr	r3, [r3, #0]
 80024e4:	60fb      	str	r3, [r7, #12]

  /* Transfer Error Interrupt management ***************************************/
  if ((tmpisr & (DMA_FLAG_TEIF0_4 << hdma->StreamIndex)) != RESET)
 80024e6:	687b      	ldr	r3, [r7, #4]
 80024e8:	6ddb      	ldr	r3, [r3, #92]	; 0x5c
 80024ea:	2208      	movs	r2, #8
 80024ec:	409a      	lsls	r2, r3
 80024ee:	68fb      	ldr	r3, [r7, #12]
 80024f0:	4013      	ands	r3, r2
 80024f2:	2b00      	cmp	r3, #0
 80024f4:	d01a      	beq.n	800252c <HAL_DMA_IRQHandler+0x6c>
  {
    if(__HAL_DMA_GET_IT_SOURCE(hdma, DMA_IT_TE) != RESET)
 80024f6:	687b      	ldr	r3, [r7, #4]
 80024f8:	681b      	ldr	r3, [r3, #0]
 80024fa:	681b      	ldr	r3, [r3, #0]
 80024fc:	f003 0304 	and.w	r3, r3, #4
 8002500:	2b00      	cmp	r3, #0
 8002502:	d013      	beq.n	800252c <HAL_DMA_IRQHandler+0x6c>
    {
      /* Disable the transfer error interrupt */
      hdma->Instance->CR  &= ~(DMA_IT_TE);
 8002504:	687b      	ldr	r3, [r7, #4]
 8002506:	681b      	ldr	r3, [r3, #0]
 8002508:	681a      	ldr	r2, [r3, #0]
 800250a:	687b      	ldr	r3, [r7, #4]
 800250c:	681b      	ldr	r3, [r3, #0]
 800250e:	f022 0204 	bic.w	r2, r2, #4
 8002512:	601a      	str	r2, [r3, #0]
      
      /* Clear the transfer error flag */
      regs->IFCR = DMA_FLAG_TEIF0_4 << hdma->StreamIndex;
 8002514:	687b      	ldr	r3, [r7, #4]
 8002516:	6ddb      	ldr	r3, [r3, #92]	; 0x5c
 8002518:	2208      	movs	r2, #8
 800251a:	409a      	lsls	r2, r3
 800251c:	693b      	ldr	r3, [r7, #16]
 800251e:	609a      	str	r2, [r3, #8]
      
      /* Update error code */
      hdma->ErrorCode |= HAL_DMA_ERROR_TE;
 8002520:	687b      	ldr	r3, [r7, #4]
 8002522:	6d5b      	ldr	r3, [r3, #84]	; 0x54
 8002524:	f043 0201 	orr.w	r2, r3, #1
 8002528:	687b      	ldr	r3, [r7, #4]
 800252a:	655a      	str	r2, [r3, #84]	; 0x54
    }
  }
  /* FIFO Error Interrupt management ******************************************/
  if ((tmpisr & (DMA_FLAG_FEIF0_4 << hdma->StreamIndex)) != RESET)
 800252c:	687b      	ldr	r3, [r7, #4]
 800252e:	6ddb      	ldr	r3, [r3, #92]	; 0x5c
 8002530:	2201      	movs	r2, #1
 8002532:	409a      	lsls	r2, r3
 8002534:	68fb      	ldr	r3, [r7, #12]
 8002536:	4013      	ands	r3, r2
 8002538:	2b00      	cmp	r3, #0
 800253a:	d012      	beq.n	8002562 <HAL_DMA_IRQHandler+0xa2>
  {
    if(__HAL_DMA_GET_IT_SOURCE(hdma, DMA_IT_FE) != RESET)
 800253c:	687b      	ldr	r3, [r7, #4]
 800253e:	681b      	ldr	r3, [r3, #0]
 8002540:	695b      	ldr	r3, [r3, #20]
 8002542:	f003 0380 	and.w	r3, r3, #128	; 0x80
 8002546:	2b00      	cmp	r3, #0
 8002548:	d00b      	beq.n	8002562 <HAL_DMA_IRQHandler+0xa2>
    {
      /* Clear the FIFO error flag */
      regs->IFCR = DMA_FLAG_FEIF0_4 << hdma->StreamIndex;
 800254a:	687b      	ldr	r3, [r7, #4]
 800254c:	6ddb      	ldr	r3, [r3, #92]	; 0x5c
 800254e:	2201      	movs	r2, #1
 8002550:	409a      	lsls	r2, r3
 8002552:	693b      	ldr	r3, [r7, #16]
 8002554:	609a      	str	r2, [r3, #8]

      /* Update error code */
      hdma->ErrorCode |= HAL_DMA_ERROR_FE;
 8002556:	687b      	ldr	r3, [r7, #4]
 8002558:	6d5b      	ldr	r3, [r3, #84]	; 0x54
 800255a:	f043 0202 	orr.w	r2, r3, #2
 800255e:	687b      	ldr	r3, [r7, #4]
 8002560:	655a      	str	r2, [r3, #84]	; 0x54
    }
  }
  /* Direct Mode Error Interrupt management ***********************************/
  if ((tmpisr & (DMA_FLAG_DMEIF0_4 << hdma->StreamIndex)) != RESET)
 8002562:	687b      	ldr	r3, [r7, #4]
 8002564:	6ddb      	ldr	r3, [r3, #92]	; 0x5c
 8002566:	2204      	movs	r2, #4
 8002568:	409a      	lsls	r2, r3
 800256a:	68fb      	ldr	r3, [r7, #12]
 800256c:	4013      	ands	r3, r2
 800256e:	2b00      	cmp	r3, #0
 8002570:	d012      	beq.n	8002598 <HAL_DMA_IRQHandler+0xd8>
  {
    if(__HAL_DMA_GET_IT_SOURCE(hdma, DMA_IT_DME) != RESET)
 8002572:	687b      	ldr	r3, [r7, #4]
 8002574:	681b      	ldr	r3, [r3, #0]
 8002576:	681b      	ldr	r3, [r3, #0]
 8002578:	f003 0302 	and.w	r3, r3, #2
 800257c:	2b00      	cmp	r3, #0
 800257e:	d00b      	beq.n	8002598 <HAL_DMA_IRQHandler+0xd8>
    {
      /* Clear the direct mode error flag */
      regs->IFCR = DMA_FLAG_DMEIF0_4 << hdma->StreamIndex;
 8002580:	687b      	ldr	r3, [r7, #4]
 8002582:	6ddb      	ldr	r3, [r3, #92]	; 0x5c
 8002584:	2204      	movs	r2, #4
 8002586:	409a      	lsls	r2, r3
 8002588:	693b      	ldr	r3, [r7, #16]
 800258a:	609a      	str	r2, [r3, #8]

      /* Update error code */
      hdma->ErrorCode |= HAL_DMA_ERROR_DME;
 800258c:	687b      	ldr	r3, [r7, #4]
 800258e:	6d5b      	ldr	r3, [r3, #84]	; 0x54
 8002590:	f043 0204 	orr.w	r2, r3, #4
 8002594:	687b      	ldr	r3, [r7, #4]
 8002596:	655a      	str	r2, [r3, #84]	; 0x54
    }
  }
  /* Half Transfer Complete Interrupt management ******************************/
  if ((tmpisr & (DMA_FLAG_HTIF0_4 << hdma->StreamIndex)) != RESET)
 8002598:	687b      	ldr	r3, [r7, #4]
 800259a:	6ddb      	ldr	r3, [r3, #92]	; 0x5c
 800259c:	2210      	movs	r2, #16
 800259e:	409a      	lsls	r2, r3
 80025a0:	68fb      	ldr	r3, [r7, #12]
 80025a2:	4013      	ands	r3, r2
 80025a4:	2b00      	cmp	r3, #0
 80025a6:	d043      	beq.n	8002630 <HAL_DMA_IRQHandler+0x170>
  {
    if(__HAL_DMA_GET_IT_SOURCE(hdma, DMA_IT_HT) != RESET)
 80025a8:	687b      	ldr	r3, [r7, #4]
 80025aa:	681b      	ldr	r3, [r3, #0]
 80025ac:	681b      	ldr	r3, [r3, #0]
 80025ae:	f003 0308 	and.w	r3, r3, #8
 80025b2:	2b00      	cmp	r3, #0
 80025b4:	d03c      	beq.n	8002630 <HAL_DMA_IRQHandler+0x170>
    {
      /* Clear the half transfer complete flag */
      regs->IFCR = DMA_FLAG_HTIF0_4 << hdma->StreamIndex;
 80025b6:	687b      	ldr	r3, [r7, #4]
 80025b8:	6ddb      	ldr	r3, [r3, #92]	; 0x5c
 80025ba:	2210      	movs	r2, #16
 80025bc:	409a      	lsls	r2, r3
 80025be:	693b      	ldr	r3, [r7, #16]
 80025c0:	609a      	str	r2, [r3, #8]
      
      /* Multi_Buffering mode enabled */
      if(((hdma->Instance->CR) & (uint32_t)(DMA_SxCR_DBM)) != RESET)
 80025c2:	687b      	ldr	r3, [r7, #4]
 80025c4:	681b      	ldr	r3, [r3, #0]
 80025c6:	681b      	ldr	r3, [r3, #0]
 80025c8:	f403 2380 	and.w	r3, r3, #262144	; 0x40000
 80025cc:	2b00      	cmp	r3, #0
 80025ce:	d018      	beq.n	8002602 <HAL_DMA_IRQHandler+0x142>
      {
        /* Current memory buffer used is Memory 0 */
        if((hdma->Instance->CR & DMA_SxCR_CT) == RESET)
 80025d0:	687b      	ldr	r3, [r7, #4]
 80025d2:	681b      	ldr	r3, [r3, #0]
 80025d4:	681b      	ldr	r3, [r3, #0]
 80025d6:	f403 2300 	and.w	r3, r3, #524288	; 0x80000
 80025da:	2b00      	cmp	r3, #0
 80025dc:	d108      	bne.n	80025f0 <HAL_DMA_IRQHandler+0x130>
        {
          if(hdma->XferHalfCpltCallback != NULL)
 80025de:	687b      	ldr	r3, [r7, #4]
 80025e0:	6c1b      	ldr	r3, [r3, #64]	; 0x40
 80025e2:	2b00      	cmp	r3, #0
 80025e4:	d024      	beq.n	8002630 <HAL_DMA_IRQHandler+0x170>
          {
            /* Half transfer callback */
            hdma->XferHalfCpltCallback(hdma);
 80025e6:	687b      	ldr	r3, [r7, #4]
 80025e8:	6c1b      	ldr	r3, [r3, #64]	; 0x40
 80025ea:	6878      	ldr	r0, [r7, #4]
 80025ec:	4798      	blx	r3
 80025ee:	e01f      	b.n	8002630 <HAL_DMA_IRQHandler+0x170>
          }
        }
        /* Current memory buffer used is Memory 1 */
        else
        {
          if(hdma->XferM1HalfCpltCallback != NULL)
 80025f0:	687b      	ldr	r3, [r7, #4]
 80025f2:	6c9b      	ldr	r3, [r3, #72]	; 0x48
 80025f4:	2b00      	cmp	r3, #0
 80025f6:	d01b      	beq.n	8002630 <HAL_DMA_IRQHandler+0x170>
          {
            /* Half transfer callback */
            hdma->XferM1HalfCpltCallback(hdma);
 80025f8:	687b      	ldr	r3, [r7, #4]
 80025fa:	6c9b      	ldr	r3, [r3, #72]	; 0x48
 80025fc:	6878      	ldr	r0, [r7, #4]
 80025fe:	4798      	blx	r3
 8002600:	e016      	b.n	8002630 <HAL_DMA_IRQHandler+0x170>
        }
      }
      else
      {
        /* Disable the half transfer interrupt if the DMA mode is not CIRCULAR */
        if((hdma->Instance->CR & DMA_SxCR_CIRC) == RESET)
 8002602:	687b      	ldr	r3, [r7, #4]
 8002604:	681b      	ldr	r3, [r3, #0]
 8002606:	681b      	ldr	r3, [r3, #0]
 8002608:	f403 7380 	and.w	r3, r3, #256	; 0x100
 800260c:	2b00      	cmp	r3, #0
 800260e:	d107      	bne.n	8002620 <HAL_DMA_IRQHandler+0x160>
        {
          /* Disable the half transfer interrupt */
          hdma->Instance->CR  &= ~(DMA_IT_HT);
 8002610:	687b      	ldr	r3, [r7, #4]
 8002612:	681b      	ldr	r3, [r3, #0]
 8002614:	681a      	ldr	r2, [r3, #0]
 8002616:	687b      	ldr	r3, [r7, #4]
 8002618:	681b      	ldr	r3, [r3, #0]
 800261a:	f022 0208 	bic.w	r2, r2, #8
 800261e:	601a      	str	r2, [r3, #0]
        }
        
        if(hdma->XferHalfCpltCallback != NULL)
 8002620:	687b      	ldr	r3, [r7, #4]
 8002622:	6c1b      	ldr	r3, [r3, #64]	; 0x40
 8002624:	2b00      	cmp	r3, #0
 8002626:	d003      	beq.n	8002630 <HAL_DMA_IRQHandler+0x170>
        {
          /* Half transfer callback */
          hdma->XferHalfCpltCallback(hdma);
 8002628:	687b      	ldr	r3, [r7, #4]
 800262a:	6c1b      	ldr	r3, [r3, #64]	; 0x40
 800262c:	6878      	ldr	r0, [r7, #4]
 800262e:	4798      	blx	r3
        }
      }
    }
  }
  /* Transfer Complete Interrupt management ***********************************/
  if ((tmpisr & (DMA_FLAG_TCIF0_4 << hdma->StreamIndex)) != RESET)
 8002630:	687b      	ldr	r3, [r7, #4]
 8002632:	6ddb      	ldr	r3, [r3, #92]	; 0x5c
 8002634:	2220      	movs	r2, #32
 8002636:	409a      	lsls	r2, r3
 8002638:	68fb      	ldr	r3, [r7, #12]
 800263a:	4013      	ands	r3, r2
 800263c:	2b00      	cmp	r3, #0
 800263e:	f000 808e 	beq.w	800275e <HAL_DMA_IRQHandler+0x29e>
  {
    if(__HAL_DMA_GET_IT_SOURCE(hdma, DMA_IT_TC) != RESET)
 8002642:	687b      	ldr	r3, [r7, #4]
 8002644:	681b      	ldr	r3, [r3, #0]
 8002646:	681b      	ldr	r3, [r3, #0]
 8002648:	f003 0310 	and.w	r3, r3, #16
 800264c:	2b00      	cmp	r3, #0
 800264e:	f000 8086 	beq.w	800275e <HAL_DMA_IRQHandler+0x29e>
    {
      /* Clear the transfer complete flag */
      regs->IFCR = DMA_FLAG_TCIF0_4 << hdma->StreamIndex;
 8002652:	687b      	ldr	r3, [r7, #4]
 8002654:	6ddb      	ldr	r3, [r3, #92]	; 0x5c
 8002656:	2220      	movs	r2, #32
 8002658:	409a      	lsls	r2, r3
 800265a:	693b      	ldr	r3, [r7, #16]
 800265c:	609a      	str	r2, [r3, #8]
      
      if(HAL_DMA_STATE_ABORT == hdma->State)
 800265e:	687b      	ldr	r3, [r7, #4]
 8002660:	f893 3035 	ldrb.w	r3, [r3, #53]	; 0x35
 8002664:	b2db      	uxtb	r3, r3
 8002666:	2b05      	cmp	r3, #5
 8002668:	d136      	bne.n	80026d8 <HAL_DMA_IRQHandler+0x218>
      {
        /* Disable all the transfer interrupts */
        hdma->Instance->CR  &= ~(DMA_IT_TC | DMA_IT_TE | DMA_IT_DME);
 800266a:	687b      	ldr	r3, [r7, #4]
 800266c:	681b      	ldr	r3, [r3, #0]
 800266e:	681a      	ldr	r2, [r3, #0]
 8002670:	687b      	ldr	r3, [r7, #4]
 8002672:	681b      	ldr	r3, [r3, #0]
 8002674:	f022 0216 	bic.w	r2, r2, #22
 8002678:	601a      	str	r2, [r3, #0]
        hdma->Instance->FCR &= ~(DMA_IT_FE);
 800267a:	687b      	ldr	r3, [r7, #4]
 800267c:	681b      	ldr	r3, [r3, #0]
 800267e:	695a      	ldr	r2, [r3, #20]
 8002680:	687b      	ldr	r3, [r7, #4]
 8002682:	681b      	ldr	r3, [r3, #0]
 8002684:	f022 0280 	bic.w	r2, r2, #128	; 0x80
 8002688:	615a      	str	r2, [r3, #20]
        
        if((hdma->XferHalfCpltCallback != NULL) || (hdma->XferM1HalfCpltCallback != NULL))
 800268a:	687b      	ldr	r3, [r7, #4]
 800268c:	6c1b      	ldr	r3, [r3, #64]	; 0x40
 800268e:	2b00      	cmp	r3, #0
 8002690:	d103      	bne.n	800269a <HAL_DMA_IRQHandler+0x1da>
 8002692:	687b      	ldr	r3, [r7, #4]
 8002694:	6c9b      	ldr	r3, [r3, #72]	; 0x48
 8002696:	2b00      	cmp	r3, #0
 8002698:	d007      	beq.n	80026aa <HAL_DMA_IRQHandler+0x1ea>
        {
          hdma->Instance->CR  &= ~(DMA_IT_HT);
 800269a:	687b      	ldr	r3, [r7, #4]
 800269c:	681b      	ldr	r3, [r3, #0]
 800269e:	681a      	ldr	r2, [r3, #0]
 80026a0:	687b      	ldr	r3, [r7, #4]
 80026a2:	681b      	ldr	r3, [r3, #0]
 80026a4:	f022 0208 	bic.w	r2, r2, #8
 80026a8:	601a      	str	r2, [r3, #0]
        }

        /* Clear all interrupt flags at correct offset within the register */
        regs->IFCR = 0x3FU << hdma->StreamIndex;
 80026aa:	687b      	ldr	r3, [r7, #4]
 80026ac:	6ddb      	ldr	r3, [r3, #92]	; 0x5c
 80026ae:	223f      	movs	r2, #63	; 0x3f
 80026b0:	409a      	lsls	r2, r3
 80026b2:	693b      	ldr	r3, [r7, #16]
 80026b4:	609a      	str	r2, [r3, #8]

        /* Process Unlocked */
        __HAL_UNLOCK(hdma);
 80026b6:	687b      	ldr	r3, [r7, #4]
 80026b8:	2200      	movs	r2, #0
 80026ba:	f883 2034 	strb.w	r2, [r3, #52]	; 0x34

        /* Change the DMA state */
        hdma->State = HAL_DMA_STATE_READY;
 80026be:	687b      	ldr	r3, [r7, #4]
 80026c0:	2201      	movs	r2, #1
 80026c2:	f883 2035 	strb.w	r2, [r3, #53]	; 0x35

        if(hdma->XferAbortCallback != NULL)
 80026c6:	687b      	ldr	r3, [r7, #4]
 80026c8:	6d1b      	ldr	r3, [r3, #80]	; 0x50
 80026ca:	2b00      	cmp	r3, #0
 80026cc:	d07d      	beq.n	80027ca <HAL_DMA_IRQHandler+0x30a>
        {
          hdma->XferAbortCallback(hdma);
 80026ce:	687b      	ldr	r3, [r7, #4]
 80026d0:	6d1b      	ldr	r3, [r3, #80]	; 0x50
 80026d2:	6878      	ldr	r0, [r7, #4]
 80026d4:	4798      	blx	r3
        }
        return;
 80026d6:	e078      	b.n	80027ca <HAL_DMA_IRQHandler+0x30a>
      }

      if(((hdma->Instance->CR) & (uint32_t)(DMA_SxCR_DBM)) != RESET)
 80026d8:	687b      	ldr	r3, [r7, #4]
 80026da:	681b      	ldr	r3, [r3, #0]
 80026dc:	681b      	ldr	r3, [r3, #0]
 80026de:	f403 2380 	and.w	r3, r3, #262144	; 0x40000
 80026e2:	2b00      	cmp	r3, #0
 80026e4:	d01c      	beq.n	8002720 <HAL_DMA_IRQHandler+0x260>
      {
        /* Current memory buffer used is Memory 0 */
        if((hdma->Instance->CR & DMA_SxCR_CT) == RESET)
 80026e6:	687b      	ldr	r3, [r7, #4]
 80026e8:	681b      	ldr	r3, [r3, #0]
 80026ea:	681b      	ldr	r3, [r3, #0]
 80026ec:	f403 2300 	and.w	r3, r3, #524288	; 0x80000
 80026f0:	2b00      	cmp	r3, #0
 80026f2:	d108      	bne.n	8002706 <HAL_DMA_IRQHandler+0x246>
        {
          if(hdma->XferM1CpltCallback != NULL)
 80026f4:	687b      	ldr	r3, [r7, #4]
 80026f6:	6c5b      	ldr	r3, [r3, #68]	; 0x44
 80026f8:	2b00      	cmp	r3, #0
 80026fa:	d030      	beq.n	800275e <HAL_DMA_IRQHandler+0x29e>
          {
            /* Transfer complete Callback for memory1 */
            hdma->XferM1CpltCallback(hdma);
 80026fc:	687b      	ldr	r3, [r7, #4]
 80026fe:	6c5b      	ldr	r3, [r3, #68]	; 0x44
 8002700:	6878      	ldr	r0, [r7, #4]
 8002702:	4798      	blx	r3
 8002704:	e02b      	b.n	800275e <HAL_DMA_IRQHandler+0x29e>
          }
        }
        /* Current memory buffer used is Memory 1 */
        else
        {
          if(hdma->XferCpltCallback != NULL)
 8002706:	687b      	ldr	r3, [r7, #4]
 8002708:	6bdb      	ldr	r3, [r3, #60]	; 0x3c
 800270a:	2b00      	cmp	r3, #0
 800270c:	d027      	beq.n	800275e <HAL_DMA_IRQHandler+0x29e>
          {
            /* Transfer complete Callback for memory0 */
            hdma->XferCpltCallback(hdma);
 800270e:	687b      	ldr	r3, [r7, #4]
 8002710:	6bdb      	ldr	r3, [r3, #60]	; 0x3c
 8002712:	6878      	ldr	r0, [r7, #4]
 8002714:	4798      	blx	r3
 8002716:	e022      	b.n	800275e <HAL_DMA_IRQHandler+0x29e>
 8002718:	20000000 	.word	0x20000000
 800271c:	1b4e81b5 	.word	0x1b4e81b5
        }
      }
      /* Disable the transfer complete interrupt if the DMA mode is not CIRCULAR */
      else
      {
        if((hdma->Instance->CR & DMA_SxCR_CIRC) == RESET)
 8002720:	687b      	ldr	r3, [r7, #4]
 8002722:	681b      	ldr	r3, [r3, #0]
 8002724:	681b      	ldr	r3, [r3, #0]
 8002726:	f403 7380 	and.w	r3, r3, #256	; 0x100
 800272a:	2b00      	cmp	r3, #0
 800272c:	d10f      	bne.n	800274e <HAL_DMA_IRQHandler+0x28e>
        {
          /* Disable the transfer complete interrupt */
          hdma->Instance->CR  &= ~(DMA_IT_TC);
 800272e:	687b      	ldr	r3, [r7, #4]
 8002730:	681b      	ldr	r3, [r3, #0]
 8002732:	681a      	ldr	r2, [r3, #0]
 8002734:	687b      	ldr	r3, [r7, #4]
 8002736:	681b      	ldr	r3, [r3, #0]
 8002738:	f022 0210 	bic.w	r2, r2, #16
 800273c:	601a      	str	r2, [r3, #0]

          /* Process Unlocked */
          __HAL_UNLOCK(hdma);
 800273e:	687b      	ldr	r3, [r7, #4]
 8002740:	2200      	movs	r2, #0
 8002742:	f883 2034 	strb.w	r2, [r3, #52]	; 0x34

          /* Change the DMA state */
          hdma->State = HAL_DMA_STATE_READY;
 8002746:	687b      	ldr	r3, [r7, #4]
 8002748:	2201      	movs	r2, #1
 800274a:	f883 2035 	strb.w	r2, [r3, #53]	; 0x35
        }

        if(hdma->XferCpltCallback != NULL)
 800274e:	687b      	ldr	r3, [r7, #4]
 8002750:	6bdb      	ldr	r3, [r3, #60]	; 0x3c
 8002752:	2b00      	cmp	r3, #0
 8002754:	d003      	beq.n	800275e <HAL_DMA_IRQHandler+0x29e>
        {
          /* Transfer complete callback */
          hdma->XferCpltCallback(hdma);
 8002756:	687b      	ldr	r3, [r7, #4]
 8002758:	6bdb      	ldr	r3, [r3, #60]	; 0x3c
 800275a:	6878      	ldr	r0, [r7, #4]
 800275c:	4798      	blx	r3
      }
    }
  }
  
  /* manage error case */
  if(hdma->ErrorCode != HAL_DMA_ERROR_NONE)
 800275e:	687b      	ldr	r3, [r7, #4]
 8002760:	6d5b      	ldr	r3, [r3, #84]	; 0x54
 8002762:	2b00      	cmp	r3, #0
 8002764:	d032      	beq.n	80027cc <HAL_DMA_IRQHandler+0x30c>
  {
    if((hdma->ErrorCode & HAL_DMA_ERROR_TE) != RESET)
 8002766:	687b      	ldr	r3, [r7, #4]
 8002768:	6d5b      	ldr	r3, [r3, #84]	; 0x54
 800276a:	f003 0301 	and.w	r3, r3, #1
 800276e:	2b00      	cmp	r3, #0
 8002770:	d022      	beq.n	80027b8 <HAL_DMA_IRQHandler+0x2f8>
    {
      hdma->State = HAL_DMA_STATE_ABORT;
 8002772:	687b      	ldr	r3, [r7, #4]
 8002774:	2205      	movs	r2, #5
 8002776:	f883 2035 	strb.w	r2, [r3, #53]	; 0x35

      /* Disable the stream */
      __HAL_DMA_DISABLE(hdma);
 800277a:	687b      	ldr	r3, [r7, #4]
 800277c:	681b      	ldr	r3, [r3, #0]
 800277e:	681a      	ldr	r2, [r3, #0]
 8002780:	687b      	ldr	r3, [r7, #4]
 8002782:	681b      	ldr	r3, [r3, #0]
 8002784:	f022 0201 	bic.w	r2, r2, #1
 8002788:	601a      	str	r2, [r3, #0]

      do
      {
        if (++count > timeout)
 800278a:	68bb      	ldr	r3, [r7, #8]
 800278c:	3301      	adds	r3, #1
 800278e:	60bb      	str	r3, [r7, #8]
 8002790:	697a      	ldr	r2, [r7, #20]
 8002792:	429a      	cmp	r2, r3
 8002794:	d307      	bcc.n	80027a6 <HAL_DMA_IRQHandler+0x2e6>
        {
          break;
        }
      }
      while((hdma->Instance->CR & DMA_SxCR_EN) != RESET);
 8002796:	687b      	ldr	r3, [r7, #4]
 8002798:	681b      	ldr	r3, [r3, #0]
 800279a:	681b      	ldr	r3, [r3, #0]
 800279c:	f003 0301 	and.w	r3, r3, #1
 80027a0:	2b00      	cmp	r3, #0
 80027a2:	d1f2      	bne.n	800278a <HAL_DMA_IRQHandler+0x2ca>
 80027a4:	e000      	b.n	80027a8 <HAL_DMA_IRQHandler+0x2e8>
          break;
 80027a6:	bf00      	nop

      /* Process Unlocked */
      __HAL_UNLOCK(hdma);
 80027a8:	687b      	ldr	r3, [r7, #4]
 80027aa:	2200      	movs	r2, #0
 80027ac:	f883 2034 	strb.w	r2, [r3, #52]	; 0x34

      /* Change the DMA state */
      hdma->State = HAL_DMA_STATE_READY;
 80027b0:	687b      	ldr	r3, [r7, #4]
 80027b2:	2201      	movs	r2, #1
 80027b4:	f883 2035 	strb.w	r2, [r3, #53]	; 0x35
    }

    if(hdma->XferErrorCallback != NULL)
 80027b8:	687b      	ldr	r3, [r7, #4]
 80027ba:	6cdb      	ldr	r3, [r3, #76]	; 0x4c
 80027bc:	2b00      	cmp	r3, #0
 80027be:	d005      	beq.n	80027cc <HAL_DMA_IRQHandler+0x30c>
    {
      /* Transfer error callback */
      hdma->XferErrorCallback(hdma);
 80027c0:	687b      	ldr	r3, [r7, #4]
 80027c2:	6cdb      	ldr	r3, [r3, #76]	; 0x4c
 80027c4:	6878      	ldr	r0, [r7, #4]
 80027c6:	4798      	blx	r3
 80027c8:	e000      	b.n	80027cc <HAL_DMA_IRQHandler+0x30c>
        return;
 80027ca:	bf00      	nop
    }
  }
}
 80027cc:	3718      	adds	r7, #24
 80027ce:	46bd      	mov	sp, r7
 80027d0:	bd80      	pop	{r7, pc}
 80027d2:	bf00      	nop

080027d4 <DMA_CalcBaseAndBitshift>:
  * @param  hdma       pointer to a DMA_HandleTypeDef structure that contains
  *                     the configuration information for the specified DMA Stream. 
  * @retval Stream base address
  */
static uint32_t DMA_CalcBaseAndBitshift(DMA_HandleTypeDef *hdma)
{
 80027d4:	b480      	push	{r7}
 80027d6:	b085      	sub	sp, #20
 80027d8:	af00      	add	r7, sp, #0
 80027da:	6078      	str	r0, [r7, #4]
  uint32_t stream_number = (((uint32_t)hdma->Instance & 0xFFU) - 16U) / 24U;
 80027dc:	687b      	ldr	r3, [r7, #4]
 80027de:	681b      	ldr	r3, [r3, #0]
 80027e0:	b2db      	uxtb	r3, r3
 80027e2:	3b10      	subs	r3, #16
 80027e4:	4a14      	ldr	r2, [pc, #80]	; (8002838 <DMA_CalcBaseAndBitshift+0x64>)
 80027e6:	fba2 2303 	umull	r2, r3, r2, r3
 80027ea:	091b      	lsrs	r3, r3, #4
 80027ec:	60fb      	str	r3, [r7, #12]
  
  /* lookup table for necessary bitshift of flags within status registers */
  static const uint8_t flagBitshiftOffset[8U] = {0U, 6U, 16U, 22U, 0U, 6U, 16U, 22U};
  hdma->StreamIndex = flagBitshiftOffset[stream_number];
 80027ee:	4a13      	ldr	r2, [pc, #76]	; (800283c <DMA_CalcBaseAndBitshift+0x68>)
 80027f0:	68fb      	ldr	r3, [r7, #12]
 80027f2:	4413      	add	r3, r2
 80027f4:	781b      	ldrb	r3, [r3, #0]
 80027f6:	461a      	mov	r2, r3
 80027f8:	687b      	ldr	r3, [r7, #4]
 80027fa:	65da      	str	r2, [r3, #92]	; 0x5c
  
  if (stream_number > 3U)
 80027fc:	68fb      	ldr	r3, [r7, #12]
 80027fe:	2b03      	cmp	r3, #3
 8002800:	d909      	bls.n	8002816 <DMA_CalcBaseAndBitshift+0x42>
  {
    /* return pointer to HISR and HIFCR */
    hdma->StreamBaseAddress = (((uint32_t)hdma->Instance & (uint32_t)(~0x3FFU)) + 4U);
 8002802:	687b      	ldr	r3, [r7, #4]
 8002804:	681b      	ldr	r3, [r3, #0]
 8002806:	f423 737f 	bic.w	r3, r3, #1020	; 0x3fc
 800280a:	f023 0303 	bic.w	r3, r3, #3
 800280e:	1d1a      	adds	r2, r3, #4
 8002810:	687b      	ldr	r3, [r7, #4]
 8002812:	659a      	str	r2, [r3, #88]	; 0x58
 8002814:	e007      	b.n	8002826 <DMA_CalcBaseAndBitshift+0x52>
  }
  else
  {
    /* return pointer to LISR and LIFCR */
    hdma->StreamBaseAddress = ((uint32_t)hdma->Instance & (uint32_t)(~0x3FFU));
 8002816:	687b      	ldr	r3, [r7, #4]
 8002818:	681b      	ldr	r3, [r3, #0]
 800281a:	f423 737f 	bic.w	r3, r3, #1020	; 0x3fc
 800281e:	f023 0303 	bic.w	r3, r3, #3
 8002822:	687a      	ldr	r2, [r7, #4]
 8002824:	6593      	str	r3, [r2, #88]	; 0x58
  }
  
  return hdma->StreamBaseAddress;
 8002826:	687b      	ldr	r3, [r7, #4]
 8002828:	6d9b      	ldr	r3, [r3, #88]	; 0x58
}
 800282a:	4618      	mov	r0, r3
 800282c:	3714      	adds	r7, #20
 800282e:	46bd      	mov	sp, r7
 8002830:	f85d 7b04 	ldr.w	r7, [sp], #4
 8002834:	4770      	bx	lr
 8002836:	bf00      	nop
 8002838:	aaaaaaab 	.word	0xaaaaaaab
 800283c:	0800725c 	.word	0x0800725c

08002840 <DMA_CheckFifoParam>:
  * @param  hdma       pointer to a DMA_HandleTypeDef structure that contains
  *                     the configuration information for the specified DMA Stream. 
  * @retval HAL status
  */
static HAL_StatusTypeDef DMA_CheckFifoParam(DMA_HandleTypeDef *hdma)
{
 8002840:	b480      	push	{r7}
 8002842:	b085      	sub	sp, #20
 8002844:	af00      	add	r7, sp, #0
 8002846:	6078      	str	r0, [r7, #4]
  HAL_StatusTypeDef status = HAL_OK;
 8002848:	2300      	movs	r3, #0
 800284a:	73fb      	strb	r3, [r7, #15]
  uint32_t tmp = hdma->Init.FIFOThreshold;
 800284c:	687b      	ldr	r3, [r7, #4]
 800284e:	6a9b      	ldr	r3, [r3, #40]	; 0x28
 8002850:	60bb      	str	r3, [r7, #8]
  
  /* Memory Data size equal to Byte */
  if(hdma->Init.MemDataAlignment == DMA_MDATAALIGN_BYTE)
 8002852:	687b      	ldr	r3, [r7, #4]
 8002854:	699b      	ldr	r3, [r3, #24]
 8002856:	2b00      	cmp	r3, #0
 8002858:	d11f      	bne.n	800289a <DMA_CheckFifoParam+0x5a>
 800285a:	68bb      	ldr	r3, [r7, #8]
 800285c:	2b03      	cmp	r3, #3
 800285e:	d856      	bhi.n	800290e <DMA_CheckFifoParam+0xce>
 8002860:	a201      	add	r2, pc, #4	; (adr r2, 8002868 <DMA_CheckFifoParam+0x28>)
 8002862:	f852 f023 	ldr.w	pc, [r2, r3, lsl #2]
 8002866:	bf00      	nop
 8002868:	08002879 	.word	0x08002879
 800286c:	0800288b 	.word	0x0800288b
 8002870:	08002879 	.word	0x08002879
 8002874:	0800290f 	.word	0x0800290f
  {
    switch (tmp)
    {
    case DMA_FIFO_THRESHOLD_1QUARTERFULL:
    case DMA_FIFO_THRESHOLD_3QUARTERSFULL:
      if ((hdma->Init.MemBurst & DMA_SxCR_MBURST_1) == DMA_SxCR_MBURST_1)
 8002878:	687b      	ldr	r3, [r7, #4]
 800287a:	6adb      	ldr	r3, [r3, #44]	; 0x2c
 800287c:	f003 7380 	and.w	r3, r3, #16777216	; 0x1000000
 8002880:	2b00      	cmp	r3, #0
 8002882:	d046      	beq.n	8002912 <DMA_CheckFifoParam+0xd2>
      {
        status = HAL_ERROR;
 8002884:	2301      	movs	r3, #1
 8002886:	73fb      	strb	r3, [r7, #15]
      }
      break;
 8002888:	e043      	b.n	8002912 <DMA_CheckFifoParam+0xd2>
    case DMA_FIFO_THRESHOLD_HALFFULL:
      if (hdma->Init.MemBurst == DMA_MBURST_INC16)
 800288a:	687b      	ldr	r3, [r7, #4]
 800288c:	6adb      	ldr	r3, [r3, #44]	; 0x2c
 800288e:	f1b3 7fc0 	cmp.w	r3, #25165824	; 0x1800000
 8002892:	d140      	bne.n	8002916 <DMA_CheckFifoParam+0xd6>
      {
        status = HAL_ERROR;
 8002894:	2301      	movs	r3, #1
 8002896:	73fb      	strb	r3, [r7, #15]
      }
      break;
 8002898:	e03d      	b.n	8002916 <DMA_CheckFifoParam+0xd6>
      break;
    }
  }
  
  /* Memory Data size equal to Half-Word */
  else if (hdma->Init.MemDataAlignment == DMA_MDATAALIGN_HALFWORD)
 800289a:	687b      	ldr	r3, [r7, #4]
 800289c:	699b      	ldr	r3, [r3, #24]
 800289e:	f5b3 5f00 	cmp.w	r3, #8192	; 0x2000
 80028a2:	d121      	bne.n	80028e8 <DMA_CheckFifoParam+0xa8>
 80028a4:	68bb      	ldr	r3, [r7, #8]
 80028a6:	2b03      	cmp	r3, #3
 80028a8:	d837      	bhi.n	800291a <DMA_CheckFifoParam+0xda>
 80028aa:	a201      	add	r2, pc, #4	; (adr r2, 80028b0 <DMA_CheckFifoParam+0x70>)
 80028ac:	f852 f023 	ldr.w	pc, [r2, r3, lsl #2]
 80028b0:	080028c1 	.word	0x080028c1
 80028b4:	080028c7 	.word	0x080028c7
 80028b8:	080028c1 	.word	0x080028c1
 80028bc:	080028d9 	.word	0x080028d9
  {
    switch (tmp)
    {
    case DMA_FIFO_THRESHOLD_1QUARTERFULL:
    case DMA_FIFO_THRESHOLD_3QUARTERSFULL:
      status = HAL_ERROR;
 80028c0:	2301      	movs	r3, #1
 80028c2:	73fb      	strb	r3, [r7, #15]
      break;
 80028c4:	e030      	b.n	8002928 <DMA_CheckFifoParam+0xe8>
    case DMA_FIFO_THRESHOLD_HALFFULL:
      if ((hdma->Init.MemBurst & DMA_SxCR_MBURST_1) == DMA_SxCR_MBURST_1)
 80028c6:	687b      	ldr	r3, [r7, #4]
 80028c8:	6adb      	ldr	r3, [r3, #44]	; 0x2c
 80028ca:	f003 7380 	and.w	r3, r3, #16777216	; 0x1000000
 80028ce:	2b00      	cmp	r3, #0
 80028d0:	d025      	beq.n	800291e <DMA_CheckFifoParam+0xde>
      {
        status = HAL_ERROR;
 80028d2:	2301      	movs	r3, #1
 80028d4:	73fb      	strb	r3, [r7, #15]
      }
      break;
 80028d6:	e022      	b.n	800291e <DMA_CheckFifoParam+0xde>
    case DMA_FIFO_THRESHOLD_FULL:
      if (hdma->Init.MemBurst == DMA_MBURST_INC16)
 80028d8:	687b      	ldr	r3, [r7, #4]
 80028da:	6adb      	ldr	r3, [r3, #44]	; 0x2c
 80028dc:	f1b3 7fc0 	cmp.w	r3, #25165824	; 0x1800000
 80028e0:	d11f      	bne.n	8002922 <DMA_CheckFifoParam+0xe2>
      {
        status = HAL_ERROR;
 80028e2:	2301      	movs	r3, #1
 80028e4:	73fb      	strb	r3, [r7, #15]
      }
      break;   
 80028e6:	e01c      	b.n	8002922 <DMA_CheckFifoParam+0xe2>
  }
  
  /* Memory Data size equal to Word */
  else
  {
    switch (tmp)
 80028e8:	68bb      	ldr	r3, [r7, #8]
 80028ea:	2b02      	cmp	r3, #2
 80028ec:	d903      	bls.n	80028f6 <DMA_CheckFifoParam+0xb6>
 80028ee:	68bb      	ldr	r3, [r7, #8]
 80028f0:	2b03      	cmp	r3, #3
 80028f2:	d003      	beq.n	80028fc <DMA_CheckFifoParam+0xbc>
      {
        status = HAL_ERROR;
      }
      break;
    default:
      break;
 80028f4:	e018      	b.n	8002928 <DMA_CheckFifoParam+0xe8>
      status = HAL_ERROR;
 80028f6:	2301      	movs	r3, #1
 80028f8:	73fb      	strb	r3, [r7, #15]
      break;
 80028fa:	e015      	b.n	8002928 <DMA_CheckFifoParam+0xe8>
      if ((hdma->Init.MemBurst & DMA_SxCR_MBURST_1) == DMA_SxCR_MBURST_1)
 80028fc:	687b      	ldr	r3, [r7, #4]
 80028fe:	6adb      	ldr	r3, [r3, #44]	; 0x2c
 8002900:	f003 7380 	and.w	r3, r3, #16777216	; 0x1000000
 8002904:	2b00      	cmp	r3, #0
 8002906:	d00e      	beq.n	8002926 <DMA_CheckFifoParam+0xe6>
        status = HAL_ERROR;
 8002908:	2301      	movs	r3, #1
 800290a:	73fb      	strb	r3, [r7, #15]
      break;
 800290c:	e00b      	b.n	8002926 <DMA_CheckFifoParam+0xe6>
      break;
 800290e:	bf00      	nop
 8002910:	e00a      	b.n	8002928 <DMA_CheckFifoParam+0xe8>
      break;
 8002912:	bf00      	nop
 8002914:	e008      	b.n	8002928 <DMA_CheckFifoParam+0xe8>
      break;
 8002916:	bf00      	nop
 8002918:	e006      	b.n	8002928 <DMA_CheckFifoParam+0xe8>
      break;
 800291a:	bf00      	nop
 800291c:	e004      	b.n	8002928 <DMA_CheckFifoParam+0xe8>
      break;
 800291e:	bf00      	nop
 8002920:	e002      	b.n	8002928 <DMA_CheckFifoParam+0xe8>
      break;   
 8002922:	bf00      	nop
 8002924:	e000      	b.n	8002928 <DMA_CheckFifoParam+0xe8>
      break;
 8002926:	bf00      	nop
    }
  } 
  
  return status; 
 8002928:	7bfb      	ldrb	r3, [r7, #15]
}
 800292a:	4618      	mov	r0, r3
 800292c:	3714      	adds	r7, #20
 800292e:	46bd      	mov	sp, r7
 8002930:	f85d 7b04 	ldr.w	r7, [sp], #4
 8002934:	4770      	bx	lr
 8002936:	bf00      	nop

08002938 <HAL_GPIO_Init>:
  * @param  GPIO_Init pointer to a GPIO_InitTypeDef structure that contains
  *         the configuration information for the specified GPIO peripheral.
  * @retval None
  */
void HAL_GPIO_Init(GPIO_TypeDef  *GPIOx, GPIO_InitTypeDef *GPIO_Init)
{
 8002938:	b480      	push	{r7}
 800293a:	b089      	sub	sp, #36	; 0x24
 800293c:	af00      	add	r7, sp, #0
 800293e:	6078      	str	r0, [r7, #4]
 8002940:	6039      	str	r1, [r7, #0]
  uint32_t position;
  uint32_t ioposition = 0x00U;
 8002942:	2300      	movs	r3, #0
 8002944:	617b      	str	r3, [r7, #20]
  uint32_t iocurrent = 0x00U;
 8002946:	2300      	movs	r3, #0
 8002948:	613b      	str	r3, [r7, #16]
  uint32_t temp = 0x00U;
 800294a:	2300      	movs	r3, #0
 800294c:	61bb      	str	r3, [r7, #24]
  assert_param(IS_GPIO_PIN(GPIO_Init->Pin));
  assert_param(IS_GPIO_MODE(GPIO_Init->Mode));
  assert_param(IS_GPIO_PULL(GPIO_Init->Pull));

  /* Configure the port pins */
  for(position = 0U; position < GPIO_NUMBER; position++)
 800294e:	2300      	movs	r3, #0
 8002950:	61fb      	str	r3, [r7, #28]
 8002952:	e165      	b.n	8002c20 <HAL_GPIO_Init+0x2e8>
  {
    /* Get the IO position */
    ioposition = 0x01U << position;
 8002954:	2201      	movs	r2, #1
 8002956:	69fb      	ldr	r3, [r7, #28]
 8002958:	fa02 f303 	lsl.w	r3, r2, r3
 800295c:	617b      	str	r3, [r7, #20]
    /* Get the current IO position */
    iocurrent = (uint32_t)(GPIO_Init->Pin) & ioposition;
 800295e:	683b      	ldr	r3, [r7, #0]
 8002960:	681b      	ldr	r3, [r3, #0]
 8002962:	697a      	ldr	r2, [r7, #20]
 8002964:	4013      	ands	r3, r2
 8002966:	613b      	str	r3, [r7, #16]

    if(iocurrent == ioposition)
 8002968:	693a      	ldr	r2, [r7, #16]
 800296a:	697b      	ldr	r3, [r7, #20]
 800296c:	429a      	cmp	r2, r3
 800296e:	f040 8154 	bne.w	8002c1a <HAL_GPIO_Init+0x2e2>
    {
      /*--------------------- GPIO Mode Configuration ------------------------*/
      /* In case of Output or Alternate function mode selection */
      if(((GPIO_Init->Mode & GPIO_MODE) == MODE_OUTPUT) || \
 8002972:	683b      	ldr	r3, [r7, #0]
 8002974:	685b      	ldr	r3, [r3, #4]
 8002976:	f003 0303 	and.w	r3, r3, #3
 800297a:	2b01      	cmp	r3, #1
 800297c:	d005      	beq.n	800298a <HAL_GPIO_Init+0x52>
          (GPIO_Init->Mode & GPIO_MODE) == MODE_AF)
 800297e:	683b      	ldr	r3, [r7, #0]
 8002980:	685b      	ldr	r3, [r3, #4]
 8002982:	f003 0303 	and.w	r3, r3, #3
      if(((GPIO_Init->Mode & GPIO_MODE) == MODE_OUTPUT) || \
 8002986:	2b02      	cmp	r3, #2
 8002988:	d130      	bne.n	80029ec <HAL_GPIO_Init+0xb4>
      {
        /* Check the Speed parameter */
        assert_param(IS_GPIO_SPEED(GPIO_Init->Speed));
        /* Configure the IO Speed */
        temp = GPIOx->OSPEEDR; 
 800298a:	687b      	ldr	r3, [r7, #4]
 800298c:	689b      	ldr	r3, [r3, #8]
 800298e:	61bb      	str	r3, [r7, #24]
        temp &= ~(GPIO_OSPEEDER_OSPEEDR0 << (position * 2U));
 8002990:	69fb      	ldr	r3, [r7, #28]
 8002992:	005b      	lsls	r3, r3, #1
 8002994:	2203      	movs	r2, #3
 8002996:	fa02 f303 	lsl.w	r3, r2, r3
 800299a:	43db      	mvns	r3, r3
 800299c:	69ba      	ldr	r2, [r7, #24]
 800299e:	4013      	ands	r3, r2
 80029a0:	61bb      	str	r3, [r7, #24]
        temp |= (GPIO_Init->Speed << (position * 2U));
 80029a2:	683b      	ldr	r3, [r7, #0]
 80029a4:	68da      	ldr	r2, [r3, #12]
 80029a6:	69fb      	ldr	r3, [r7, #28]
 80029a8:	005b      	lsls	r3, r3, #1
 80029aa:	fa02 f303 	lsl.w	r3, r2, r3
 80029ae:	69ba      	ldr	r2, [r7, #24]
 80029b0:	4313      	orrs	r3, r2
 80029b2:	61bb      	str	r3, [r7, #24]
        GPIOx->OSPEEDR = temp;
 80029b4:	687b      	ldr	r3, [r7, #4]
 80029b6:	69ba      	ldr	r2, [r7, #24]
 80029b8:	609a      	str	r2, [r3, #8]

        /* Configure the IO Output Type */
        temp = GPIOx->OTYPER;
 80029ba:	687b      	ldr	r3, [r7, #4]
 80029bc:	685b      	ldr	r3, [r3, #4]
 80029be:	61bb      	str	r3, [r7, #24]
        temp &= ~(GPIO_OTYPER_OT_0 << position) ;
 80029c0:	2201      	movs	r2, #1
 80029c2:	69fb      	ldr	r3, [r7, #28]
 80029c4:	fa02 f303 	lsl.w	r3, r2, r3
 80029c8:	43db      	mvns	r3, r3
 80029ca:	69ba      	ldr	r2, [r7, #24]
 80029cc:	4013      	ands	r3, r2
 80029ce:	61bb      	str	r3, [r7, #24]
        temp |= (((GPIO_Init->Mode & GPIO_OUTPUT_TYPE) >> 4U) << position);
 80029d0:	683b      	ldr	r3, [r7, #0]
 80029d2:	685b      	ldr	r3, [r3, #4]
 80029d4:	091b      	lsrs	r3, r3, #4
 80029d6:	f003 0201 	and.w	r2, r3, #1
 80029da:	69fb      	ldr	r3, [r7, #28]
 80029dc:	fa02 f303 	lsl.w	r3, r2, r3
 80029e0:	69ba      	ldr	r2, [r7, #24]
 80029e2:	4313      	orrs	r3, r2
 80029e4:	61bb      	str	r3, [r7, #24]
        GPIOx->OTYPER = temp;
 80029e6:	687b      	ldr	r3, [r7, #4]
 80029e8:	69ba      	ldr	r2, [r7, #24]
 80029ea:	605a      	str	r2, [r3, #4]
       }

      if((GPIO_Init->Mode & GPIO_MODE) != MODE_ANALOG)
 80029ec:	683b      	ldr	r3, [r7, #0]
 80029ee:	685b      	ldr	r3, [r3, #4]
 80029f0:	f003 0303 	and.w	r3, r3, #3
 80029f4:	2b03      	cmp	r3, #3
 80029f6:	d017      	beq.n	8002a28 <HAL_GPIO_Init+0xf0>
      {
        /* Activate the Pull-up or Pull down resistor for the current IO */
        temp = GPIOx->PUPDR;
 80029f8:	687b      	ldr	r3, [r7, #4]
 80029fa:	68db      	ldr	r3, [r3, #12]
 80029fc:	61bb      	str	r3, [r7, #24]
        temp &= ~(GPIO_PUPDR_PUPDR0 << (position * 2U));
 80029fe:	69fb      	ldr	r3, [r7, #28]
 8002a00:	005b      	lsls	r3, r3, #1
 8002a02:	2203      	movs	r2, #3
 8002a04:	fa02 f303 	lsl.w	r3, r2, r3
 8002a08:	43db      	mvns	r3, r3
 8002a0a:	69ba      	ldr	r2, [r7, #24]
 8002a0c:	4013      	ands	r3, r2
 8002a0e:	61bb      	str	r3, [r7, #24]
        temp |= ((GPIO_Init->Pull) << (position * 2U));
 8002a10:	683b      	ldr	r3, [r7, #0]
 8002a12:	689a      	ldr	r2, [r3, #8]
 8002a14:	69fb      	ldr	r3, [r7, #28]
 8002a16:	005b      	lsls	r3, r3, #1
 8002a18:	fa02 f303 	lsl.w	r3, r2, r3
 8002a1c:	69ba      	ldr	r2, [r7, #24]
 8002a1e:	4313      	orrs	r3, r2
 8002a20:	61bb      	str	r3, [r7, #24]
        GPIOx->PUPDR = temp;
 8002a22:	687b      	ldr	r3, [r7, #4]
 8002a24:	69ba      	ldr	r2, [r7, #24]
 8002a26:	60da      	str	r2, [r3, #12]
      }

      /* In case of Alternate function mode selection */
      if((GPIO_Init->Mode & GPIO_MODE) == MODE_AF)
 8002a28:	683b      	ldr	r3, [r7, #0]
 8002a2a:	685b      	ldr	r3, [r3, #4]
 8002a2c:	f003 0303 	and.w	r3, r3, #3
 8002a30:	2b02      	cmp	r3, #2
 8002a32:	d123      	bne.n	8002a7c <HAL_GPIO_Init+0x144>
      {
        /* Check the Alternate function parameter */
        assert_param(IS_GPIO_AF(GPIO_Init->Alternate));
        /* Configure Alternate function mapped with the current IO */
        temp = GPIOx->AFR[position >> 3U];
 8002a34:	69fb      	ldr	r3, [r7, #28]
 8002a36:	08da      	lsrs	r2, r3, #3
 8002a38:	687b      	ldr	r3, [r7, #4]
 8002a3a:	3208      	adds	r2, #8
 8002a3c:	f853 3022 	ldr.w	r3, [r3, r2, lsl #2]
 8002a40:	61bb      	str	r3, [r7, #24]
        temp &= ~(0xFU << ((uint32_t)(position & 0x07U) * 4U)) ;
 8002a42:	69fb      	ldr	r3, [r7, #28]
 8002a44:	f003 0307 	and.w	r3, r3, #7
 8002a48:	009b      	lsls	r3, r3, #2
 8002a4a:	220f      	movs	r2, #15
 8002a4c:	fa02 f303 	lsl.w	r3, r2, r3
 8002a50:	43db      	mvns	r3, r3
 8002a52:	69ba      	ldr	r2, [r7, #24]
 8002a54:	4013      	ands	r3, r2
 8002a56:	61bb      	str	r3, [r7, #24]
        temp |= ((uint32_t)(GPIO_Init->Alternate) << (((uint32_t)position & 0x07U) * 4U));
 8002a58:	683b      	ldr	r3, [r7, #0]
 8002a5a:	691a      	ldr	r2, [r3, #16]
 8002a5c:	69fb      	ldr	r3, [r7, #28]
 8002a5e:	f003 0307 	and.w	r3, r3, #7
 8002a62:	009b      	lsls	r3, r3, #2
 8002a64:	fa02 f303 	lsl.w	r3, r2, r3
 8002a68:	69ba      	ldr	r2, [r7, #24]
 8002a6a:	4313      	orrs	r3, r2
 8002a6c:	61bb      	str	r3, [r7, #24]
        GPIOx->AFR[position >> 3U] = temp;
 8002a6e:	69fb      	ldr	r3, [r7, #28]
 8002a70:	08da      	lsrs	r2, r3, #3
 8002a72:	687b      	ldr	r3, [r7, #4]
 8002a74:	3208      	adds	r2, #8
 8002a76:	69b9      	ldr	r1, [r7, #24]
 8002a78:	f843 1022 	str.w	r1, [r3, r2, lsl #2]
      }

      /* Configure IO Direction mode (Input, Output, Alternate or Analog) */
      temp = GPIOx->MODER;
 8002a7c:	687b      	ldr	r3, [r7, #4]
 8002a7e:	681b      	ldr	r3, [r3, #0]
 8002a80:	61bb      	str	r3, [r7, #24]
      temp &= ~(GPIO_MODER_MODER0 << (position * 2U));
 8002a82:	69fb      	ldr	r3, [r7, #28]
 8002a84:	005b      	lsls	r3, r3, #1
 8002a86:	2203      	movs	r2, #3
 8002a88:	fa02 f303 	lsl.w	r3, r2, r3
 8002a8c:	43db      	mvns	r3, r3
 8002a8e:	69ba      	ldr	r2, [r7, #24]
 8002a90:	4013      	ands	r3, r2
 8002a92:	61bb      	str	r3, [r7, #24]
      temp |= ((GPIO_Init->Mode & GPIO_MODE) << (position * 2U));
 8002a94:	683b      	ldr	r3, [r7, #0]
 8002a96:	685b      	ldr	r3, [r3, #4]
 8002a98:	f003 0203 	and.w	r2, r3, #3
 8002a9c:	69fb      	ldr	r3, [r7, #28]
 8002a9e:	005b      	lsls	r3, r3, #1
 8002aa0:	fa02 f303 	lsl.w	r3, r2, r3
 8002aa4:	69ba      	ldr	r2, [r7, #24]
 8002aa6:	4313      	orrs	r3, r2
 8002aa8:	61bb      	str	r3, [r7, #24]
      GPIOx->MODER = temp;
 8002aaa:	687b      	ldr	r3, [r7, #4]
 8002aac:	69ba      	ldr	r2, [r7, #24]
 8002aae:	601a      	str	r2, [r3, #0]

      /*--------------------- EXTI Mode Configuration ------------------------*/
      /* Configure the External Interrupt or event for the current IO */
      if((GPIO_Init->Mode & EXTI_MODE) == EXTI_MODE)
 8002ab0:	683b      	ldr	r3, [r7, #0]
 8002ab2:	685b      	ldr	r3, [r3, #4]
 8002ab4:	f003 5380 	and.w	r3, r3, #268435456	; 0x10000000
 8002ab8:	2b00      	cmp	r3, #0
 8002aba:	f000 80ae 	beq.w	8002c1a <HAL_GPIO_Init+0x2e2>
      {
        /* Enable SYSCFG Clock */
        __HAL_RCC_SYSCFG_CLK_ENABLE();
 8002abe:	2300      	movs	r3, #0
 8002ac0:	60fb      	str	r3, [r7, #12]
 8002ac2:	4b5d      	ldr	r3, [pc, #372]	; (8002c38 <HAL_GPIO_Init+0x300>)
 8002ac4:	6c5b      	ldr	r3, [r3, #68]	; 0x44
 8002ac6:	4a5c      	ldr	r2, [pc, #368]	; (8002c38 <HAL_GPIO_Init+0x300>)
 8002ac8:	f443 4380 	orr.w	r3, r3, #16384	; 0x4000
 8002acc:	6453      	str	r3, [r2, #68]	; 0x44
 8002ace:	4b5a      	ldr	r3, [pc, #360]	; (8002c38 <HAL_GPIO_Init+0x300>)
 8002ad0:	6c5b      	ldr	r3, [r3, #68]	; 0x44
 8002ad2:	f403 4380 	and.w	r3, r3, #16384	; 0x4000
 8002ad6:	60fb      	str	r3, [r7, #12]
 8002ad8:	68fb      	ldr	r3, [r7, #12]

        temp = SYSCFG->EXTICR[position >> 2U];
 8002ada:	4a58      	ldr	r2, [pc, #352]	; (8002c3c <HAL_GPIO_Init+0x304>)
 8002adc:	69fb      	ldr	r3, [r7, #28]
 8002ade:	089b      	lsrs	r3, r3, #2
 8002ae0:	3302      	adds	r3, #2
 8002ae2:	f852 3023 	ldr.w	r3, [r2, r3, lsl #2]
 8002ae6:	61bb      	str	r3, [r7, #24]
        temp &= ~(0x0FU << (4U * (position & 0x03U)));
 8002ae8:	69fb      	ldr	r3, [r7, #28]
 8002aea:	f003 0303 	and.w	r3, r3, #3
 8002aee:	009b      	lsls	r3, r3, #2
 8002af0:	220f      	movs	r2, #15
 8002af2:	fa02 f303 	lsl.w	r3, r2, r3
 8002af6:	43db      	mvns	r3, r3
 8002af8:	69ba      	ldr	r2, [r7, #24]
 8002afa:	4013      	ands	r3, r2
 8002afc:	61bb      	str	r3, [r7, #24]
        temp |= ((uint32_t)(GPIO_GET_INDEX(GPIOx)) << (4U * (position & 0x03U)));
 8002afe:	687b      	ldr	r3, [r7, #4]
 8002b00:	4a4f      	ldr	r2, [pc, #316]	; (8002c40 <HAL_GPIO_Init+0x308>)
 8002b02:	4293      	cmp	r3, r2
 8002b04:	d025      	beq.n	8002b52 <HAL_GPIO_Init+0x21a>
 8002b06:	687b      	ldr	r3, [r7, #4]
 8002b08:	4a4e      	ldr	r2, [pc, #312]	; (8002c44 <HAL_GPIO_Init+0x30c>)
 8002b0a:	4293      	cmp	r3, r2
 8002b0c:	d01f      	beq.n	8002b4e <HAL_GPIO_Init+0x216>
 8002b0e:	687b      	ldr	r3, [r7, #4]
 8002b10:	4a4d      	ldr	r2, [pc, #308]	; (8002c48 <HAL_GPIO_Init+0x310>)
 8002b12:	4293      	cmp	r3, r2
 8002b14:	d019      	beq.n	8002b4a <HAL_GPIO_Init+0x212>
 8002b16:	687b      	ldr	r3, [r7, #4]
 8002b18:	4a4c      	ldr	r2, [pc, #304]	; (8002c4c <HAL_GPIO_Init+0x314>)
 8002b1a:	4293      	cmp	r3, r2
 8002b1c:	d013      	beq.n	8002b46 <HAL_GPIO_Init+0x20e>
 8002b1e:	687b      	ldr	r3, [r7, #4]
 8002b20:	4a4b      	ldr	r2, [pc, #300]	; (8002c50 <HAL_GPIO_Init+0x318>)
 8002b22:	4293      	cmp	r3, r2
 8002b24:	d00d      	beq.n	8002b42 <HAL_GPIO_Init+0x20a>
 8002b26:	687b      	ldr	r3, [r7, #4]
 8002b28:	4a4a      	ldr	r2, [pc, #296]	; (8002c54 <HAL_GPIO_Init+0x31c>)
 8002b2a:	4293      	cmp	r3, r2
 8002b2c:	d007      	beq.n	8002b3e <HAL_GPIO_Init+0x206>
 8002b2e:	687b      	ldr	r3, [r7, #4]
 8002b30:	4a49      	ldr	r2, [pc, #292]	; (8002c58 <HAL_GPIO_Init+0x320>)
 8002b32:	4293      	cmp	r3, r2
 8002b34:	d101      	bne.n	8002b3a <HAL_GPIO_Init+0x202>
 8002b36:	2306      	movs	r3, #6
 8002b38:	e00c      	b.n	8002b54 <HAL_GPIO_Init+0x21c>
 8002b3a:	2307      	movs	r3, #7
 8002b3c:	e00a      	b.n	8002b54 <HAL_GPIO_Init+0x21c>
 8002b3e:	2305      	movs	r3, #5
 8002b40:	e008      	b.n	8002b54 <HAL_GPIO_Init+0x21c>
 8002b42:	2304      	movs	r3, #4
 8002b44:	e006      	b.n	8002b54 <HAL_GPIO_Init+0x21c>
 8002b46:	2303      	movs	r3, #3
 8002b48:	e004      	b.n	8002b54 <HAL_GPIO_Init+0x21c>
 8002b4a:	2302      	movs	r3, #2
 8002b4c:	e002      	b.n	8002b54 <HAL_GPIO_Init+0x21c>
 8002b4e:	2301      	movs	r3, #1
 8002b50:	e000      	b.n	8002b54 <HAL_GPIO_Init+0x21c>
 8002b52:	2300      	movs	r3, #0
 8002b54:	69fa      	ldr	r2, [r7, #28]
 8002b56:	f002 0203 	and.w	r2, r2, #3
 8002b5a:	0092      	lsls	r2, r2, #2
 8002b5c:	4093      	lsls	r3, r2
 8002b5e:	69ba      	ldr	r2, [r7, #24]
 8002b60:	4313      	orrs	r3, r2
 8002b62:	61bb      	str	r3, [r7, #24]
        SYSCFG->EXTICR[position >> 2U] = temp;
 8002b64:	4935      	ldr	r1, [pc, #212]	; (8002c3c <HAL_GPIO_Init+0x304>)
 8002b66:	69fb      	ldr	r3, [r7, #28]
 8002b68:	089b      	lsrs	r3, r3, #2
 8002b6a:	3302      	adds	r3, #2
 8002b6c:	69ba      	ldr	r2, [r7, #24]
 8002b6e:	f841 2023 	str.w	r2, [r1, r3, lsl #2]

        /* Clear EXTI line configuration */
        temp = EXTI->IMR;
 8002b72:	4b3a      	ldr	r3, [pc, #232]	; (8002c5c <HAL_GPIO_Init+0x324>)
 8002b74:	681b      	ldr	r3, [r3, #0]
 8002b76:	61bb      	str	r3, [r7, #24]
        temp &= ~((uint32_t)iocurrent);
 8002b78:	693b      	ldr	r3, [r7, #16]
 8002b7a:	43db      	mvns	r3, r3
 8002b7c:	69ba      	ldr	r2, [r7, #24]
 8002b7e:	4013      	ands	r3, r2
 8002b80:	61bb      	str	r3, [r7, #24]
        if((GPIO_Init->Mode & GPIO_MODE_IT) == GPIO_MODE_IT)
 8002b82:	683b      	ldr	r3, [r7, #0]
 8002b84:	685b      	ldr	r3, [r3, #4]
 8002b86:	f403 3380 	and.w	r3, r3, #65536	; 0x10000
 8002b8a:	2b00      	cmp	r3, #0
 8002b8c:	d003      	beq.n	8002b96 <HAL_GPIO_Init+0x25e>
        {
          temp |= iocurrent;
 8002b8e:	69ba      	ldr	r2, [r7, #24]
 8002b90:	693b      	ldr	r3, [r7, #16]
 8002b92:	4313      	orrs	r3, r2
 8002b94:	61bb      	str	r3, [r7, #24]
        }
        EXTI->IMR = temp;
 8002b96:	4a31      	ldr	r2, [pc, #196]	; (8002c5c <HAL_GPIO_Init+0x324>)
 8002b98:	69bb      	ldr	r3, [r7, #24]
 8002b9a:	6013      	str	r3, [r2, #0]

        temp = EXTI->EMR;
 8002b9c:	4b2f      	ldr	r3, [pc, #188]	; (8002c5c <HAL_GPIO_Init+0x324>)
 8002b9e:	685b      	ldr	r3, [r3, #4]
 8002ba0:	61bb      	str	r3, [r7, #24]
        temp &= ~((uint32_t)iocurrent);
 8002ba2:	693b      	ldr	r3, [r7, #16]
 8002ba4:	43db      	mvns	r3, r3
 8002ba6:	69ba      	ldr	r2, [r7, #24]
 8002ba8:	4013      	ands	r3, r2
 8002baa:	61bb      	str	r3, [r7, #24]
        if((GPIO_Init->Mode & GPIO_MODE_EVT) == GPIO_MODE_EVT)
 8002bac:	683b      	ldr	r3, [r7, #0]
 8002bae:	685b      	ldr	r3, [r3, #4]
 8002bb0:	f403 3300 	and.w	r3, r3, #131072	; 0x20000
 8002bb4:	2b00      	cmp	r3, #0
 8002bb6:	d003      	beq.n	8002bc0 <HAL_GPIO_Init+0x288>
        {
          temp |= iocurrent;
 8002bb8:	69ba      	ldr	r2, [r7, #24]
 8002bba:	693b      	ldr	r3, [r7, #16]
 8002bbc:	4313      	orrs	r3, r2
 8002bbe:	61bb      	str	r3, [r7, #24]
        }
        EXTI->EMR = temp;
 8002bc0:	4a26      	ldr	r2, [pc, #152]	; (8002c5c <HAL_GPIO_Init+0x324>)
 8002bc2:	69bb      	ldr	r3, [r7, #24]
 8002bc4:	6053      	str	r3, [r2, #4]

        /* Clear Rising Falling edge configuration */
        temp = EXTI->RTSR;
 8002bc6:	4b25      	ldr	r3, [pc, #148]	; (8002c5c <HAL_GPIO_Init+0x324>)
 8002bc8:	689b      	ldr	r3, [r3, #8]
 8002bca:	61bb      	str	r3, [r7, #24]
        temp &= ~((uint32_t)iocurrent);
 8002bcc:	693b      	ldr	r3, [r7, #16]
 8002bce:	43db      	mvns	r3, r3
 8002bd0:	69ba      	ldr	r2, [r7, #24]
 8002bd2:	4013      	ands	r3, r2
 8002bd4:	61bb      	str	r3, [r7, #24]
        if((GPIO_Init->Mode & RISING_EDGE) == RISING_EDGE)
 8002bd6:	683b      	ldr	r3, [r7, #0]
 8002bd8:	685b      	ldr	r3, [r3, #4]
 8002bda:	f403 1380 	and.w	r3, r3, #1048576	; 0x100000
 8002bde:	2b00      	cmp	r3, #0
 8002be0:	d003      	beq.n	8002bea <HAL_GPIO_Init+0x2b2>
        {
          temp |= iocurrent;
 8002be2:	69ba      	ldr	r2, [r7, #24]
 8002be4:	693b      	ldr	r3, [r7, #16]
 8002be6:	4313      	orrs	r3, r2
 8002be8:	61bb      	str	r3, [r7, #24]
        }
        EXTI->RTSR = temp;
 8002bea:	4a1c      	ldr	r2, [pc, #112]	; (8002c5c <HAL_GPIO_Init+0x324>)
 8002bec:	69bb      	ldr	r3, [r7, #24]
 8002bee:	6093      	str	r3, [r2, #8]

        temp = EXTI->FTSR;
 8002bf0:	4b1a      	ldr	r3, [pc, #104]	; (8002c5c <HAL_GPIO_Init+0x324>)
 8002bf2:	68db      	ldr	r3, [r3, #12]
 8002bf4:	61bb      	str	r3, [r7, #24]
        temp &= ~((uint32_t)iocurrent);
 8002bf6:	693b      	ldr	r3, [r7, #16]
 8002bf8:	43db      	mvns	r3, r3
 8002bfa:	69ba      	ldr	r2, [r7, #24]
 8002bfc:	4013      	ands	r3, r2
 8002bfe:	61bb      	str	r3, [r7, #24]
        if((GPIO_Init->Mode & FALLING_EDGE) == FALLING_EDGE)
 8002c00:	683b      	ldr	r3, [r7, #0]
 8002c02:	685b      	ldr	r3, [r3, #4]
 8002c04:	f403 1300 	and.w	r3, r3, #2097152	; 0x200000
 8002c08:	2b00      	cmp	r3, #0
 8002c0a:	d003      	beq.n	8002c14 <HAL_GPIO_Init+0x2dc>
        {
          temp |= iocurrent;
 8002c0c:	69ba      	ldr	r2, [r7, #24]
 8002c0e:	693b      	ldr	r3, [r7, #16]
 8002c10:	4313      	orrs	r3, r2
 8002c12:	61bb      	str	r3, [r7, #24]
        }
        EXTI->FTSR = temp;
 8002c14:	4a11      	ldr	r2, [pc, #68]	; (8002c5c <HAL_GPIO_Init+0x324>)
 8002c16:	69bb      	ldr	r3, [r7, #24]
 8002c18:	60d3      	str	r3, [r2, #12]
  for(position = 0U; position < GPIO_NUMBER; position++)
 8002c1a:	69fb      	ldr	r3, [r7, #28]
 8002c1c:	3301      	adds	r3, #1
 8002c1e:	61fb      	str	r3, [r7, #28]
 8002c20:	69fb      	ldr	r3, [r7, #28]
 8002c22:	2b0f      	cmp	r3, #15
 8002c24:	f67f ae96 	bls.w	8002954 <HAL_GPIO_Init+0x1c>
      }
    }
  }
}
 8002c28:	bf00      	nop
 8002c2a:	bf00      	nop
 8002c2c:	3724      	adds	r7, #36	; 0x24
 8002c2e:	46bd      	mov	sp, r7
 8002c30:	f85d 7b04 	ldr.w	r7, [sp], #4
 8002c34:	4770      	bx	lr
 8002c36:	bf00      	nop
 8002c38:	40023800 	.word	0x40023800
 8002c3c:	40013800 	.word	0x40013800
 8002c40:	40020000 	.word	0x40020000
 8002c44:	40020400 	.word	0x40020400
 8002c48:	40020800 	.word	0x40020800
 8002c4c:	40020c00 	.word	0x40020c00
 8002c50:	40021000 	.word	0x40021000
 8002c54:	40021400 	.word	0x40021400
 8002c58:	40021800 	.word	0x40021800
 8002c5c:	40013c00 	.word	0x40013c00

08002c60 <HAL_GPIO_WritePin>:
  *            @arg GPIO_PIN_RESET: to clear the port pin
  *            @arg GPIO_PIN_SET: to set the port pin
  * @retval None
  */
void HAL_GPIO_WritePin(GPIO_TypeDef* GPIOx, uint16_t GPIO_Pin, GPIO_PinState PinState)
{
 8002c60:	b480      	push	{r7}
 8002c62:	b083      	sub	sp, #12
 8002c64:	af00      	add	r7, sp, #0
 8002c66:	6078      	str	r0, [r7, #4]
 8002c68:	460b      	mov	r3, r1
 8002c6a:	807b      	strh	r3, [r7, #2]
 8002c6c:	4613      	mov	r3, r2
 8002c6e:	707b      	strb	r3, [r7, #1]
  /* Check the parameters */
  assert_param(IS_GPIO_PIN(GPIO_Pin));
  assert_param(IS_GPIO_PIN_ACTION(PinState));

  if(PinState != GPIO_PIN_RESET)
 8002c70:	787b      	ldrb	r3, [r7, #1]
 8002c72:	2b00      	cmp	r3, #0
 8002c74:	d003      	beq.n	8002c7e <HAL_GPIO_WritePin+0x1e>
  {
    GPIOx->BSRR = GPIO_Pin;
 8002c76:	887a      	ldrh	r2, [r7, #2]
 8002c78:	687b      	ldr	r3, [r7, #4]
 8002c7a:	619a      	str	r2, [r3, #24]
  }
  else
  {
    GPIOx->BSRR = (uint32_t)GPIO_Pin << 16U;
  }
}
 8002c7c:	e003      	b.n	8002c86 <HAL_GPIO_WritePin+0x26>
    GPIOx->BSRR = (uint32_t)GPIO_Pin << 16U;
 8002c7e:	887b      	ldrh	r3, [r7, #2]
 8002c80:	041a      	lsls	r2, r3, #16
 8002c82:	687b      	ldr	r3, [r7, #4]
 8002c84:	619a      	str	r2, [r3, #24]
}
 8002c86:	bf00      	nop
 8002c88:	370c      	adds	r7, #12
 8002c8a:	46bd      	mov	sp, r7
 8002c8c:	f85d 7b04 	ldr.w	r7, [sp], #4
 8002c90:	4770      	bx	lr

08002c92 <HAL_GPIO_TogglePin>:
  *                      x can be (A..I) to select the GPIO peripheral for STM32F40XX and STM32F427X devices.
  * @param  GPIO_Pin Specifies the pins to be toggled.
  * @retval None
  */
void HAL_GPIO_TogglePin(GPIO_TypeDef* GPIOx, uint16_t GPIO_Pin)
{
 8002c92:	b480      	push	{r7}
 8002c94:	b085      	sub	sp, #20
 8002c96:	af00      	add	r7, sp, #0
 8002c98:	6078      	str	r0, [r7, #4]
 8002c9a:	460b      	mov	r3, r1
 8002c9c:	807b      	strh	r3, [r7, #2]

  /* Check the parameters */
  assert_param(IS_GPIO_PIN(GPIO_Pin));

  /* get current Ouput Data Register value */
  odr = GPIOx->ODR;
 8002c9e:	687b      	ldr	r3, [r7, #4]
 8002ca0:	695b      	ldr	r3, [r3, #20]
 8002ca2:	60fb      	str	r3, [r7, #12]

  /* Set selected pins that were at low level, and reset ones that were high */
  GPIOx->BSRR = ((odr & GPIO_Pin) << GPIO_NUMBER) | (~odr & GPIO_Pin);
 8002ca4:	887a      	ldrh	r2, [r7, #2]
 8002ca6:	68fb      	ldr	r3, [r7, #12]
 8002ca8:	4013      	ands	r3, r2
 8002caa:	041a      	lsls	r2, r3, #16
 8002cac:	68fb      	ldr	r3, [r7, #12]
 8002cae:	43d9      	mvns	r1, r3
 8002cb0:	887b      	ldrh	r3, [r7, #2]
 8002cb2:	400b      	ands	r3, r1
 8002cb4:	431a      	orrs	r2, r3
 8002cb6:	687b      	ldr	r3, [r7, #4]
 8002cb8:	619a      	str	r2, [r3, #24]
}
 8002cba:	bf00      	nop
 8002cbc:	3714      	adds	r7, #20
 8002cbe:	46bd      	mov	sp, r7
 8002cc0:	f85d 7b04 	ldr.w	r7, [sp], #4
 8002cc4:	4770      	bx	lr
	...

08002cc8 <HAL_PWREx_EnableOverDrive>:
  *         During the Over-drive switch activation, no peripheral clocks should be enabled.   
  *         The peripheral clocks must be enabled once the Over-drive mode is activated.   
  * @retval HAL status
  */
HAL_StatusTypeDef HAL_PWREx_EnableOverDrive(void)
{
 8002cc8:	b580      	push	{r7, lr}
 8002cca:	b082      	sub	sp, #8
 8002ccc:	af00      	add	r7, sp, #0
  uint32_t tickstart = 0U;
 8002cce:	2300      	movs	r3, #0
 8002cd0:	607b      	str	r3, [r7, #4]

  __HAL_RCC_PWR_CLK_ENABLE();
 8002cd2:	2300      	movs	r3, #0
 8002cd4:	603b      	str	r3, [r7, #0]
 8002cd6:	4b20      	ldr	r3, [pc, #128]	; (8002d58 <HAL_PWREx_EnableOverDrive+0x90>)
 8002cd8:	6c1b      	ldr	r3, [r3, #64]	; 0x40
 8002cda:	4a1f      	ldr	r2, [pc, #124]	; (8002d58 <HAL_PWREx_EnableOverDrive+0x90>)
 8002cdc:	f043 5380 	orr.w	r3, r3, #268435456	; 0x10000000
 8002ce0:	6413      	str	r3, [r2, #64]	; 0x40
 8002ce2:	4b1d      	ldr	r3, [pc, #116]	; (8002d58 <HAL_PWREx_EnableOverDrive+0x90>)
 8002ce4:	6c1b      	ldr	r3, [r3, #64]	; 0x40
 8002ce6:	f003 5380 	and.w	r3, r3, #268435456	; 0x10000000
 8002cea:	603b      	str	r3, [r7, #0]
 8002cec:	683b      	ldr	r3, [r7, #0]
  
  /* Enable the Over-drive to extend the clock frequency to 180 Mhz */
  __HAL_PWR_OVERDRIVE_ENABLE();
 8002cee:	4b1b      	ldr	r3, [pc, #108]	; (8002d5c <HAL_PWREx_EnableOverDrive+0x94>)
 8002cf0:	2201      	movs	r2, #1
 8002cf2:	601a      	str	r2, [r3, #0]

  /* Get tick */
  tickstart = HAL_GetTick();
 8002cf4:	f7fe ffa6 	bl	8001c44 <HAL_GetTick>
 8002cf8:	6078      	str	r0, [r7, #4]

  while(!__HAL_PWR_GET_FLAG(PWR_FLAG_ODRDY))
 8002cfa:	e009      	b.n	8002d10 <HAL_PWREx_EnableOverDrive+0x48>
  {
    if((HAL_GetTick() - tickstart) > PWR_OVERDRIVE_TIMEOUT_VALUE)
 8002cfc:	f7fe ffa2 	bl	8001c44 <HAL_GetTick>
 8002d00:	4602      	mov	r2, r0
 8002d02:	687b      	ldr	r3, [r7, #4]
 8002d04:	1ad3      	subs	r3, r2, r3
 8002d06:	f5b3 7f7a 	cmp.w	r3, #1000	; 0x3e8
 8002d0a:	d901      	bls.n	8002d10 <HAL_PWREx_EnableOverDrive+0x48>
    {
      return HAL_TIMEOUT;
 8002d0c:	2303      	movs	r3, #3
 8002d0e:	e01f      	b.n	8002d50 <HAL_PWREx_EnableOverDrive+0x88>
  while(!__HAL_PWR_GET_FLAG(PWR_FLAG_ODRDY))
 8002d10:	4b13      	ldr	r3, [pc, #76]	; (8002d60 <HAL_PWREx_EnableOverDrive+0x98>)
 8002d12:	685b      	ldr	r3, [r3, #4]
 8002d14:	f403 3380 	and.w	r3, r3, #65536	; 0x10000
 8002d18:	f5b3 3f80 	cmp.w	r3, #65536	; 0x10000
 8002d1c:	d1ee      	bne.n	8002cfc <HAL_PWREx_EnableOverDrive+0x34>
    }
  }
  
  /* Enable the Over-drive switch */
  __HAL_PWR_OVERDRIVESWITCHING_ENABLE();
 8002d1e:	4b11      	ldr	r3, [pc, #68]	; (8002d64 <HAL_PWREx_EnableOverDrive+0x9c>)
 8002d20:	2201      	movs	r2, #1
 8002d22:	601a      	str	r2, [r3, #0]

  /* Get tick */
  tickstart = HAL_GetTick();
 8002d24:	f7fe ff8e 	bl	8001c44 <HAL_GetTick>
 8002d28:	6078      	str	r0, [r7, #4]

  while(!__HAL_PWR_GET_FLAG(PWR_FLAG_ODSWRDY))
 8002d2a:	e009      	b.n	8002d40 <HAL_PWREx_EnableOverDrive+0x78>
  {
    if((HAL_GetTick() - tickstart ) > PWR_OVERDRIVE_TIMEOUT_VALUE)
 8002d2c:	f7fe ff8a 	bl	8001c44 <HAL_GetTick>
 8002d30:	4602      	mov	r2, r0
 8002d32:	687b      	ldr	r3, [r7, #4]
 8002d34:	1ad3      	subs	r3, r2, r3
 8002d36:	f5b3 7f7a 	cmp.w	r3, #1000	; 0x3e8
 8002d3a:	d901      	bls.n	8002d40 <HAL_PWREx_EnableOverDrive+0x78>
    {
      return HAL_TIMEOUT;
 8002d3c:	2303      	movs	r3, #3
 8002d3e:	e007      	b.n	8002d50 <HAL_PWREx_EnableOverDrive+0x88>
  while(!__HAL_PWR_GET_FLAG(PWR_FLAG_ODSWRDY))
 8002d40:	4b07      	ldr	r3, [pc, #28]	; (8002d60 <HAL_PWREx_EnableOverDrive+0x98>)
 8002d42:	685b      	ldr	r3, [r3, #4]
 8002d44:	f403 3300 	and.w	r3, r3, #131072	; 0x20000
 8002d48:	f5b3 3f00 	cmp.w	r3, #131072	; 0x20000
 8002d4c:	d1ee      	bne.n	8002d2c <HAL_PWREx_EnableOverDrive+0x64>
    }
  } 
  return HAL_OK;
 8002d4e:	2300      	movs	r3, #0
}
 8002d50:	4618      	mov	r0, r3
 8002d52:	3708      	adds	r7, #8
 8002d54:	46bd      	mov	sp, r7
 8002d56:	bd80      	pop	{r7, pc}
 8002d58:	40023800 	.word	0x40023800
 8002d5c:	420e0040 	.word	0x420e0040
 8002d60:	40007000 	.word	0x40007000
 8002d64:	420e0044 	.word	0x420e0044

08002d68 <HAL_RCC_ClockConfig>:
  *         HPRE[3:0] bits to ensure that HCLK not exceed the maximum allowed frequency
  *         (for more details refer to section above "Initialization/de-initialization functions")
  * @retval None
  */
HAL_StatusTypeDef HAL_RCC_ClockConfig(RCC_ClkInitTypeDef  *RCC_ClkInitStruct, uint32_t FLatency)
{
 8002d68:	b580      	push	{r7, lr}
 8002d6a:	b084      	sub	sp, #16
 8002d6c:	af00      	add	r7, sp, #0
 8002d6e:	6078      	str	r0, [r7, #4]
 8002d70:	6039      	str	r1, [r7, #0]
  uint32_t tickstart;

  /* Check Null pointer */
  if(RCC_ClkInitStruct == NULL)
 8002d72:	687b      	ldr	r3, [r7, #4]
 8002d74:	2b00      	cmp	r3, #0
 8002d76:	d101      	bne.n	8002d7c <HAL_RCC_ClockConfig+0x14>
  {
    return HAL_ERROR;
 8002d78:	2301      	movs	r3, #1
 8002d7a:	e0cc      	b.n	8002f16 <HAL_RCC_ClockConfig+0x1ae>
  /* To correctly read data from FLASH memory, the number of wait states (LATENCY)
    must be correctly programmed according to the frequency of the CPU clock
    (HCLK) and the supply voltage of the device. */

  /* Increasing the number of wait states because of higher CPU frequency */
  if(FLatency > __HAL_FLASH_GET_LATENCY())
 8002d7c:	4b68      	ldr	r3, [pc, #416]	; (8002f20 <HAL_RCC_ClockConfig+0x1b8>)
 8002d7e:	681b      	ldr	r3, [r3, #0]
 8002d80:	f003 030f 	and.w	r3, r3, #15
 8002d84:	683a      	ldr	r2, [r7, #0]
 8002d86:	429a      	cmp	r2, r3
 8002d88:	d90c      	bls.n	8002da4 <HAL_RCC_ClockConfig+0x3c>
  {
    /* Program the new number of wait states to the LATENCY bits in the FLASH_ACR register */
    __HAL_FLASH_SET_LATENCY(FLatency);
 8002d8a:	4b65      	ldr	r3, [pc, #404]	; (8002f20 <HAL_RCC_ClockConfig+0x1b8>)
 8002d8c:	683a      	ldr	r2, [r7, #0]
 8002d8e:	b2d2      	uxtb	r2, r2
 8002d90:	701a      	strb	r2, [r3, #0]

    /* Check that the new number of wait states is taken into account to access the Flash
    memory by reading the FLASH_ACR register */
    if(__HAL_FLASH_GET_LATENCY() != FLatency)
 8002d92:	4b63      	ldr	r3, [pc, #396]	; (8002f20 <HAL_RCC_ClockConfig+0x1b8>)
 8002d94:	681b      	ldr	r3, [r3, #0]
 8002d96:	f003 030f 	and.w	r3, r3, #15
 8002d9a:	683a      	ldr	r2, [r7, #0]
 8002d9c:	429a      	cmp	r2, r3
 8002d9e:	d001      	beq.n	8002da4 <HAL_RCC_ClockConfig+0x3c>
    {
      return HAL_ERROR;
 8002da0:	2301      	movs	r3, #1
 8002da2:	e0b8      	b.n	8002f16 <HAL_RCC_ClockConfig+0x1ae>
    }
  }

  /*-------------------------- HCLK Configuration --------------------------*/
  if(((RCC_ClkInitStruct->ClockType) & RCC_CLOCKTYPE_HCLK) == RCC_CLOCKTYPE_HCLK)
 8002da4:	687b      	ldr	r3, [r7, #4]
 8002da6:	681b      	ldr	r3, [r3, #0]
 8002da8:	f003 0302 	and.w	r3, r3, #2
 8002dac:	2b00      	cmp	r3, #0
 8002dae:	d020      	beq.n	8002df2 <HAL_RCC_ClockConfig+0x8a>
  {
    /* Set the highest APBx dividers in order to ensure that we do not go through
       a non-spec phase whatever we decrease or increase HCLK. */
    if(((RCC_ClkInitStruct->ClockType) & RCC_CLOCKTYPE_PCLK1) == RCC_CLOCKTYPE_PCLK1)
 8002db0:	687b      	ldr	r3, [r7, #4]
 8002db2:	681b      	ldr	r3, [r3, #0]
 8002db4:	f003 0304 	and.w	r3, r3, #4
 8002db8:	2b00      	cmp	r3, #0
 8002dba:	d005      	beq.n	8002dc8 <HAL_RCC_ClockConfig+0x60>
    {
      MODIFY_REG(RCC->CFGR, RCC_CFGR_PPRE1, RCC_HCLK_DIV16);
 8002dbc:	4b59      	ldr	r3, [pc, #356]	; (8002f24 <HAL_RCC_ClockConfig+0x1bc>)
 8002dbe:	689b      	ldr	r3, [r3, #8]
 8002dc0:	4a58      	ldr	r2, [pc, #352]	; (8002f24 <HAL_RCC_ClockConfig+0x1bc>)
 8002dc2:	f443 53e0 	orr.w	r3, r3, #7168	; 0x1c00
 8002dc6:	6093      	str	r3, [r2, #8]
    }

    if(((RCC_ClkInitStruct->ClockType) & RCC_CLOCKTYPE_PCLK2) == RCC_CLOCKTYPE_PCLK2)
 8002dc8:	687b      	ldr	r3, [r7, #4]
 8002dca:	681b      	ldr	r3, [r3, #0]
 8002dcc:	f003 0308 	and.w	r3, r3, #8
 8002dd0:	2b00      	cmp	r3, #0
 8002dd2:	d005      	beq.n	8002de0 <HAL_RCC_ClockConfig+0x78>
    {
      MODIFY_REG(RCC->CFGR, RCC_CFGR_PPRE2, (RCC_HCLK_DIV16 << 3));
 8002dd4:	4b53      	ldr	r3, [pc, #332]	; (8002f24 <HAL_RCC_ClockConfig+0x1bc>)
 8002dd6:	689b      	ldr	r3, [r3, #8]
 8002dd8:	4a52      	ldr	r2, [pc, #328]	; (8002f24 <HAL_RCC_ClockConfig+0x1bc>)
 8002dda:	f443 4360 	orr.w	r3, r3, #57344	; 0xe000
 8002dde:	6093      	str	r3, [r2, #8]
    }

    assert_param(IS_RCC_HCLK(RCC_ClkInitStruct->AHBCLKDivider));
    MODIFY_REG(RCC->CFGR, RCC_CFGR_HPRE, RCC_ClkInitStruct->AHBCLKDivider);
 8002de0:	4b50      	ldr	r3, [pc, #320]	; (8002f24 <HAL_RCC_ClockConfig+0x1bc>)
 8002de2:	689b      	ldr	r3, [r3, #8]
 8002de4:	f023 02f0 	bic.w	r2, r3, #240	; 0xf0
 8002de8:	687b      	ldr	r3, [r7, #4]
 8002dea:	689b      	ldr	r3, [r3, #8]
 8002dec:	494d      	ldr	r1, [pc, #308]	; (8002f24 <HAL_RCC_ClockConfig+0x1bc>)
 8002dee:	4313      	orrs	r3, r2
 8002df0:	608b      	str	r3, [r1, #8]
  }

  /*------------------------- SYSCLK Configuration ---------------------------*/
  if(((RCC_ClkInitStruct->ClockType) & RCC_CLOCKTYPE_SYSCLK) == RCC_CLOCKTYPE_SYSCLK)
 8002df2:	687b      	ldr	r3, [r7, #4]
 8002df4:	681b      	ldr	r3, [r3, #0]
 8002df6:	f003 0301 	and.w	r3, r3, #1
 8002dfa:	2b00      	cmp	r3, #0
 8002dfc:	d044      	beq.n	8002e88 <HAL_RCC_ClockConfig+0x120>
  {
    assert_param(IS_RCC_SYSCLKSOURCE(RCC_ClkInitStruct->SYSCLKSource));

    /* HSE is selected as System Clock Source */
    if(RCC_ClkInitStruct->SYSCLKSource == RCC_SYSCLKSOURCE_HSE)
 8002dfe:	687b      	ldr	r3, [r7, #4]
 8002e00:	685b      	ldr	r3, [r3, #4]
 8002e02:	2b01      	cmp	r3, #1
 8002e04:	d107      	bne.n	8002e16 <HAL_RCC_ClockConfig+0xae>
    {
      /* Check the HSE ready flag */
      if(__HAL_RCC_GET_FLAG(RCC_FLAG_HSERDY) == RESET)
 8002e06:	4b47      	ldr	r3, [pc, #284]	; (8002f24 <HAL_RCC_ClockConfig+0x1bc>)
 8002e08:	681b      	ldr	r3, [r3, #0]
 8002e0a:	f403 3300 	and.w	r3, r3, #131072	; 0x20000
 8002e0e:	2b00      	cmp	r3, #0
 8002e10:	d119      	bne.n	8002e46 <HAL_RCC_ClockConfig+0xde>
      {
        return HAL_ERROR;
 8002e12:	2301      	movs	r3, #1
 8002e14:	e07f      	b.n	8002f16 <HAL_RCC_ClockConfig+0x1ae>
      }
    }
    /* PLL is selected as System Clock Source */
    else if((RCC_ClkInitStruct->SYSCLKSource == RCC_SYSCLKSOURCE_PLLCLK)   ||
 8002e16:	687b      	ldr	r3, [r7, #4]
 8002e18:	685b      	ldr	r3, [r3, #4]
 8002e1a:	2b02      	cmp	r3, #2
 8002e1c:	d003      	beq.n	8002e26 <HAL_RCC_ClockConfig+0xbe>
            (RCC_ClkInitStruct->SYSCLKSource == RCC_SYSCLKSOURCE_PLLRCLK))
 8002e1e:	687b      	ldr	r3, [r7, #4]
 8002e20:	685b      	ldr	r3, [r3, #4]
    else if((RCC_ClkInitStruct->SYSCLKSource == RCC_SYSCLKSOURCE_PLLCLK)   ||
 8002e22:	2b03      	cmp	r3, #3
 8002e24:	d107      	bne.n	8002e36 <HAL_RCC_ClockConfig+0xce>
    {
      /* Check the PLL ready flag */
      if(__HAL_RCC_GET_FLAG(RCC_FLAG_PLLRDY) == RESET)
 8002e26:	4b3f      	ldr	r3, [pc, #252]	; (8002f24 <HAL_RCC_ClockConfig+0x1bc>)
 8002e28:	681b      	ldr	r3, [r3, #0]
 8002e2a:	f003 7300 	and.w	r3, r3, #33554432	; 0x2000000
 8002e2e:	2b00      	cmp	r3, #0
 8002e30:	d109      	bne.n	8002e46 <HAL_RCC_ClockConfig+0xde>
      {
        return HAL_ERROR;
 8002e32:	2301      	movs	r3, #1
 8002e34:	e06f      	b.n	8002f16 <HAL_RCC_ClockConfig+0x1ae>
    }
    /* HSI is selected as System Clock Source */
    else
    {
      /* Check the HSI ready flag */
      if(__HAL_RCC_GET_FLAG(RCC_FLAG_HSIRDY) == RESET)
 8002e36:	4b3b      	ldr	r3, [pc, #236]	; (8002f24 <HAL_RCC_ClockConfig+0x1bc>)
 8002e38:	681b      	ldr	r3, [r3, #0]
 8002e3a:	f003 0302 	and.w	r3, r3, #2
 8002e3e:	2b00      	cmp	r3, #0
 8002e40:	d101      	bne.n	8002e46 <HAL_RCC_ClockConfig+0xde>
      {
        return HAL_ERROR;
 8002e42:	2301      	movs	r3, #1
 8002e44:	e067      	b.n	8002f16 <HAL_RCC_ClockConfig+0x1ae>
      }
    }

    __HAL_RCC_SYSCLK_CONFIG(RCC_ClkInitStruct->SYSCLKSource);
 8002e46:	4b37      	ldr	r3, [pc, #220]	; (8002f24 <HAL_RCC_ClockConfig+0x1bc>)
 8002e48:	689b      	ldr	r3, [r3, #8]
 8002e4a:	f023 0203 	bic.w	r2, r3, #3
 8002e4e:	687b      	ldr	r3, [r7, #4]
 8002e50:	685b      	ldr	r3, [r3, #4]
 8002e52:	4934      	ldr	r1, [pc, #208]	; (8002f24 <HAL_RCC_ClockConfig+0x1bc>)
 8002e54:	4313      	orrs	r3, r2
 8002e56:	608b      	str	r3, [r1, #8]

    /* Get Start Tick */
    tickstart = HAL_GetTick();
 8002e58:	f7fe fef4 	bl	8001c44 <HAL_GetTick>
 8002e5c:	60f8      	str	r0, [r7, #12]

    while (__HAL_RCC_GET_SYSCLK_SOURCE() != (RCC_ClkInitStruct->SYSCLKSource << RCC_CFGR_SWS_Pos))
 8002e5e:	e00a      	b.n	8002e76 <HAL_RCC_ClockConfig+0x10e>
    {
      if ((HAL_GetTick() - tickstart) > CLOCKSWITCH_TIMEOUT_VALUE)
 8002e60:	f7fe fef0 	bl	8001c44 <HAL_GetTick>
 8002e64:	4602      	mov	r2, r0
 8002e66:	68fb      	ldr	r3, [r7, #12]
 8002e68:	1ad3      	subs	r3, r2, r3
 8002e6a:	f241 3288 	movw	r2, #5000	; 0x1388
 8002e6e:	4293      	cmp	r3, r2
 8002e70:	d901      	bls.n	8002e76 <HAL_RCC_ClockConfig+0x10e>
      {
        return HAL_TIMEOUT;
 8002e72:	2303      	movs	r3, #3
 8002e74:	e04f      	b.n	8002f16 <HAL_RCC_ClockConfig+0x1ae>
    while (__HAL_RCC_GET_SYSCLK_SOURCE() != (RCC_ClkInitStruct->SYSCLKSource << RCC_CFGR_SWS_Pos))
 8002e76:	4b2b      	ldr	r3, [pc, #172]	; (8002f24 <HAL_RCC_ClockConfig+0x1bc>)
 8002e78:	689b      	ldr	r3, [r3, #8]
 8002e7a:	f003 020c 	and.w	r2, r3, #12
 8002e7e:	687b      	ldr	r3, [r7, #4]
 8002e80:	685b      	ldr	r3, [r3, #4]
 8002e82:	009b      	lsls	r3, r3, #2
 8002e84:	429a      	cmp	r2, r3
 8002e86:	d1eb      	bne.n	8002e60 <HAL_RCC_ClockConfig+0xf8>
      }
    }
  }

  /* Decreasing the number of wait states because of lower CPU frequency */
  if(FLatency < __HAL_FLASH_GET_LATENCY())
 8002e88:	4b25      	ldr	r3, [pc, #148]	; (8002f20 <HAL_RCC_ClockConfig+0x1b8>)
 8002e8a:	681b      	ldr	r3, [r3, #0]
 8002e8c:	f003 030f 	and.w	r3, r3, #15
 8002e90:	683a      	ldr	r2, [r7, #0]
 8002e92:	429a      	cmp	r2, r3
 8002e94:	d20c      	bcs.n	8002eb0 <HAL_RCC_ClockConfig+0x148>
  {
     /* Program the new number of wait states to the LATENCY bits in the FLASH_ACR register */
    __HAL_FLASH_SET_LATENCY(FLatency);
 8002e96:	4b22      	ldr	r3, [pc, #136]	; (8002f20 <HAL_RCC_ClockConfig+0x1b8>)
 8002e98:	683a      	ldr	r2, [r7, #0]
 8002e9a:	b2d2      	uxtb	r2, r2
 8002e9c:	701a      	strb	r2, [r3, #0]

    /* Check that the new number of wait states is taken into account to access the Flash
    memory by reading the FLASH_ACR register */
    if(__HAL_FLASH_GET_LATENCY() != FLatency)
 8002e9e:	4b20      	ldr	r3, [pc, #128]	; (8002f20 <HAL_RCC_ClockConfig+0x1b8>)
 8002ea0:	681b      	ldr	r3, [r3, #0]
 8002ea2:	f003 030f 	and.w	r3, r3, #15
 8002ea6:	683a      	ldr	r2, [r7, #0]
 8002ea8:	429a      	cmp	r2, r3
 8002eaa:	d001      	beq.n	8002eb0 <HAL_RCC_ClockConfig+0x148>
    {
      return HAL_ERROR;
 8002eac:	2301      	movs	r3, #1
 8002eae:	e032      	b.n	8002f16 <HAL_RCC_ClockConfig+0x1ae>
    }
  }

  /*-------------------------- PCLK1 Configuration ---------------------------*/
  if(((RCC_ClkInitStruct->ClockType) & RCC_CLOCKTYPE_PCLK1) == RCC_CLOCKTYPE_PCLK1)
 8002eb0:	687b      	ldr	r3, [r7, #4]
 8002eb2:	681b      	ldr	r3, [r3, #0]
 8002eb4:	f003 0304 	and.w	r3, r3, #4
 8002eb8:	2b00      	cmp	r3, #0
 8002eba:	d008      	beq.n	8002ece <HAL_RCC_ClockConfig+0x166>
  {
    assert_param(IS_RCC_PCLK(RCC_ClkInitStruct->APB1CLKDivider));
    MODIFY_REG(RCC->CFGR, RCC_CFGR_PPRE1, RCC_ClkInitStruct->APB1CLKDivider);
 8002ebc:	4b19      	ldr	r3, [pc, #100]	; (8002f24 <HAL_RCC_ClockConfig+0x1bc>)
 8002ebe:	689b      	ldr	r3, [r3, #8]
 8002ec0:	f423 52e0 	bic.w	r2, r3, #7168	; 0x1c00
 8002ec4:	687b      	ldr	r3, [r7, #4]
 8002ec6:	68db      	ldr	r3, [r3, #12]
 8002ec8:	4916      	ldr	r1, [pc, #88]	; (8002f24 <HAL_RCC_ClockConfig+0x1bc>)
 8002eca:	4313      	orrs	r3, r2
 8002ecc:	608b      	str	r3, [r1, #8]
  }

  /*-------------------------- PCLK2 Configuration ---------------------------*/
  if(((RCC_ClkInitStruct->ClockType) & RCC_CLOCKTYPE_PCLK2) == RCC_CLOCKTYPE_PCLK2)
 8002ece:	687b      	ldr	r3, [r7, #4]
 8002ed0:	681b      	ldr	r3, [r3, #0]
 8002ed2:	f003 0308 	and.w	r3, r3, #8
 8002ed6:	2b00      	cmp	r3, #0
 8002ed8:	d009      	beq.n	8002eee <HAL_RCC_ClockConfig+0x186>
  {
    assert_param(IS_RCC_PCLK(RCC_ClkInitStruct->APB2CLKDivider));
    MODIFY_REG(RCC->CFGR, RCC_CFGR_PPRE2, ((RCC_ClkInitStruct->APB2CLKDivider) << 3U));
 8002eda:	4b12      	ldr	r3, [pc, #72]	; (8002f24 <HAL_RCC_ClockConfig+0x1bc>)
 8002edc:	689b      	ldr	r3, [r3, #8]
 8002ede:	f423 4260 	bic.w	r2, r3, #57344	; 0xe000
 8002ee2:	687b      	ldr	r3, [r7, #4]
 8002ee4:	691b      	ldr	r3, [r3, #16]
 8002ee6:	00db      	lsls	r3, r3, #3
 8002ee8:	490e      	ldr	r1, [pc, #56]	; (8002f24 <HAL_RCC_ClockConfig+0x1bc>)
 8002eea:	4313      	orrs	r3, r2
 8002eec:	608b      	str	r3, [r1, #8]
  }

  /* Update the SystemCoreClock global variable */
  SystemCoreClock = HAL_RCC_GetSysClockFreq() >> AHBPrescTable[(RCC->CFGR & RCC_CFGR_HPRE)>> RCC_CFGR_HPRE_Pos];
 8002eee:	f000 f8bd 	bl	800306c <HAL_RCC_GetSysClockFreq>
 8002ef2:	4602      	mov	r2, r0
 8002ef4:	4b0b      	ldr	r3, [pc, #44]	; (8002f24 <HAL_RCC_ClockConfig+0x1bc>)
 8002ef6:	689b      	ldr	r3, [r3, #8]
 8002ef8:	091b      	lsrs	r3, r3, #4
 8002efa:	f003 030f 	and.w	r3, r3, #15
 8002efe:	490a      	ldr	r1, [pc, #40]	; (8002f28 <HAL_RCC_ClockConfig+0x1c0>)
 8002f00:	5ccb      	ldrb	r3, [r1, r3]
 8002f02:	fa22 f303 	lsr.w	r3, r2, r3
 8002f06:	4a09      	ldr	r2, [pc, #36]	; (8002f2c <HAL_RCC_ClockConfig+0x1c4>)
 8002f08:	6013      	str	r3, [r2, #0]

  /* Configure the source of time base considering new system clocks settings */
  HAL_InitTick (uwTickPrio);
 8002f0a:	4b09      	ldr	r3, [pc, #36]	; (8002f30 <HAL_RCC_ClockConfig+0x1c8>)
 8002f0c:	681b      	ldr	r3, [r3, #0]
 8002f0e:	4618      	mov	r0, r3
 8002f10:	f7fe fe54 	bl	8001bbc <HAL_InitTick>

  return HAL_OK;
 8002f14:	2300      	movs	r3, #0
}
 8002f16:	4618      	mov	r0, r3
 8002f18:	3710      	adds	r7, #16
 8002f1a:	46bd      	mov	sp, r7
 8002f1c:	bd80      	pop	{r7, pc}
 8002f1e:	bf00      	nop
 8002f20:	40023c00 	.word	0x40023c00
 8002f24:	40023800 	.word	0x40023800
 8002f28:	08007244 	.word	0x08007244
 8002f2c:	20000000 	.word	0x20000000
 8002f30:	20000004 	.word	0x20000004

08002f34 <HAL_RCC_MCOConfig>:
  * @note  For STM32F410Rx devices to output I2SCLK clock on MCO2 you should have
  *        at last one of the SPI clocks enabled (SPI1, SPI2 or SPI5).
  * @retval None
  */
void HAL_RCC_MCOConfig(uint32_t RCC_MCOx, uint32_t RCC_MCOSource, uint32_t RCC_MCODiv)
{
 8002f34:	b580      	push	{r7, lr}
 8002f36:	b08c      	sub	sp, #48	; 0x30
 8002f38:	af00      	add	r7, sp, #0
 8002f3a:	60f8      	str	r0, [r7, #12]
 8002f3c:	60b9      	str	r1, [r7, #8]
 8002f3e:	607a      	str	r2, [r7, #4]
  GPIO_InitTypeDef GPIO_InitStruct;
  /* Check the parameters */
  assert_param(IS_RCC_MCO(RCC_MCOx));
  assert_param(IS_RCC_MCODIV(RCC_MCODiv));
  /* RCC_MCO1 */
  if(RCC_MCOx == RCC_MCO1)
 8002f40:	68fb      	ldr	r3, [r7, #12]
 8002f42:	2b00      	cmp	r3, #0
 8002f44:	d129      	bne.n	8002f9a <HAL_RCC_MCOConfig+0x66>
  {
    assert_param(IS_RCC_MCO1SOURCE(RCC_MCOSource));

    /* MCO1 Clock Enable */
    __MCO1_CLK_ENABLE();
 8002f46:	2300      	movs	r3, #0
 8002f48:	61bb      	str	r3, [r7, #24]
 8002f4a:	4b2b      	ldr	r3, [pc, #172]	; (8002ff8 <HAL_RCC_MCOConfig+0xc4>)
 8002f4c:	6b1b      	ldr	r3, [r3, #48]	; 0x30
 8002f4e:	4a2a      	ldr	r2, [pc, #168]	; (8002ff8 <HAL_RCC_MCOConfig+0xc4>)
 8002f50:	f043 0301 	orr.w	r3, r3, #1
 8002f54:	6313      	str	r3, [r2, #48]	; 0x30
 8002f56:	4b28      	ldr	r3, [pc, #160]	; (8002ff8 <HAL_RCC_MCOConfig+0xc4>)
 8002f58:	6b1b      	ldr	r3, [r3, #48]	; 0x30
 8002f5a:	f003 0301 	and.w	r3, r3, #1
 8002f5e:	61bb      	str	r3, [r7, #24]
 8002f60:	69bb      	ldr	r3, [r7, #24]

    /* Configure the MCO1 pin in alternate function mode */
    GPIO_InitStruct.Pin = MCO1_PIN;
 8002f62:	f44f 7380 	mov.w	r3, #256	; 0x100
 8002f66:	61fb      	str	r3, [r7, #28]
    GPIO_InitStruct.Mode = GPIO_MODE_AF_PP;
 8002f68:	2302      	movs	r3, #2
 8002f6a:	623b      	str	r3, [r7, #32]
    GPIO_InitStruct.Speed = GPIO_SPEED_FREQ_VERY_HIGH;
 8002f6c:	2303      	movs	r3, #3
 8002f6e:	62bb      	str	r3, [r7, #40]	; 0x28
    GPIO_InitStruct.Pull = GPIO_NOPULL;
 8002f70:	2300      	movs	r3, #0
 8002f72:	627b      	str	r3, [r7, #36]	; 0x24
    GPIO_InitStruct.Alternate = GPIO_AF0_MCO;
 8002f74:	2300      	movs	r3, #0
 8002f76:	62fb      	str	r3, [r7, #44]	; 0x2c
    HAL_GPIO_Init(MCO1_GPIO_PORT, &GPIO_InitStruct);
 8002f78:	f107 031c 	add.w	r3, r7, #28
 8002f7c:	4619      	mov	r1, r3
 8002f7e:	481f      	ldr	r0, [pc, #124]	; (8002ffc <HAL_RCC_MCOConfig+0xc8>)
 8002f80:	f7ff fcda 	bl	8002938 <HAL_GPIO_Init>

    /* Mask MCO1 and MCO1PRE[2:0] bits then Select MCO1 clock source and prescaler */
    MODIFY_REG(RCC->CFGR, (RCC_CFGR_MCO1 | RCC_CFGR_MCO1PRE), (RCC_MCOSource | RCC_MCODiv));
 8002f84:	4b1c      	ldr	r3, [pc, #112]	; (8002ff8 <HAL_RCC_MCOConfig+0xc4>)
 8002f86:	689b      	ldr	r3, [r3, #8]
 8002f88:	f023 62ec 	bic.w	r2, r3, #123731968	; 0x7600000
 8002f8c:	68b9      	ldr	r1, [r7, #8]
 8002f8e:	687b      	ldr	r3, [r7, #4]
 8002f90:	430b      	orrs	r3, r1
 8002f92:	4919      	ldr	r1, [pc, #100]	; (8002ff8 <HAL_RCC_MCOConfig+0xc4>)
 8002f94:	4313      	orrs	r3, r2
 8002f96:	608b      	str	r3, [r1, #8]
#if defined(RCC_CFGR_MCO2EN)
    __HAL_RCC_MCO2_ENABLE();
#endif /* RCC_CFGR_MCO2EN */
  }
#endif /* RCC_CFGR_MCO2 */
}
 8002f98:	e029      	b.n	8002fee <HAL_RCC_MCOConfig+0xba>
    __MCO2_CLK_ENABLE();
 8002f9a:	2300      	movs	r3, #0
 8002f9c:	617b      	str	r3, [r7, #20]
 8002f9e:	4b16      	ldr	r3, [pc, #88]	; (8002ff8 <HAL_RCC_MCOConfig+0xc4>)
 8002fa0:	6b1b      	ldr	r3, [r3, #48]	; 0x30
 8002fa2:	4a15      	ldr	r2, [pc, #84]	; (8002ff8 <HAL_RCC_MCOConfig+0xc4>)
 8002fa4:	f043 0304 	orr.w	r3, r3, #4
 8002fa8:	6313      	str	r3, [r2, #48]	; 0x30
 8002faa:	4b13      	ldr	r3, [pc, #76]	; (8002ff8 <HAL_RCC_MCOConfig+0xc4>)
 8002fac:	6b1b      	ldr	r3, [r3, #48]	; 0x30
 8002fae:	f003 0304 	and.w	r3, r3, #4
 8002fb2:	617b      	str	r3, [r7, #20]
 8002fb4:	697b      	ldr	r3, [r7, #20]
    GPIO_InitStruct.Pin = MCO2_PIN;
 8002fb6:	f44f 7300 	mov.w	r3, #512	; 0x200
 8002fba:	61fb      	str	r3, [r7, #28]
    GPIO_InitStruct.Mode = GPIO_MODE_AF_PP;
 8002fbc:	2302      	movs	r3, #2
 8002fbe:	623b      	str	r3, [r7, #32]
    GPIO_InitStruct.Speed = GPIO_SPEED_FREQ_VERY_HIGH;
 8002fc0:	2303      	movs	r3, #3
 8002fc2:	62bb      	str	r3, [r7, #40]	; 0x28
    GPIO_InitStruct.Pull = GPIO_NOPULL;
 8002fc4:	2300      	movs	r3, #0
 8002fc6:	627b      	str	r3, [r7, #36]	; 0x24
    GPIO_InitStruct.Alternate = GPIO_AF0_MCO;
 8002fc8:	2300      	movs	r3, #0
 8002fca:	62fb      	str	r3, [r7, #44]	; 0x2c
    HAL_GPIO_Init(MCO2_GPIO_PORT, &GPIO_InitStruct);
 8002fcc:	f107 031c 	add.w	r3, r7, #28
 8002fd0:	4619      	mov	r1, r3
 8002fd2:	480b      	ldr	r0, [pc, #44]	; (8003000 <HAL_RCC_MCOConfig+0xcc>)
 8002fd4:	f7ff fcb0 	bl	8002938 <HAL_GPIO_Init>
    MODIFY_REG(RCC->CFGR, (RCC_CFGR_MCO2 | RCC_CFGR_MCO2PRE), (RCC_MCOSource | (RCC_MCODiv << 3U)));
 8002fd8:	4b07      	ldr	r3, [pc, #28]	; (8002ff8 <HAL_RCC_MCOConfig+0xc4>)
 8002fda:	689b      	ldr	r3, [r3, #8]
 8002fdc:	f023 4278 	bic.w	r2, r3, #4160749568	; 0xf8000000
 8002fe0:	687b      	ldr	r3, [r7, #4]
 8002fe2:	00d9      	lsls	r1, r3, #3
 8002fe4:	68bb      	ldr	r3, [r7, #8]
 8002fe6:	430b      	orrs	r3, r1
 8002fe8:	4903      	ldr	r1, [pc, #12]	; (8002ff8 <HAL_RCC_MCOConfig+0xc4>)
 8002fea:	4313      	orrs	r3, r2
 8002fec:	608b      	str	r3, [r1, #8]
}
 8002fee:	bf00      	nop
 8002ff0:	3730      	adds	r7, #48	; 0x30
 8002ff2:	46bd      	mov	sp, r7
 8002ff4:	bd80      	pop	{r7, pc}
 8002ff6:	bf00      	nop
 8002ff8:	40023800 	.word	0x40023800
 8002ffc:	40020000 	.word	0x40020000
 8003000:	40020800 	.word	0x40020800

08003004 <HAL_RCC_GetHCLKFreq>:
  * @note   The SystemCoreClock CMSIS variable is used to store System Clock Frequency
  *         and updated within this function
  * @retval HCLK frequency
  */
uint32_t HAL_RCC_GetHCLKFreq(void)
{
 8003004:	b480      	push	{r7}
 8003006:	af00      	add	r7, sp, #0
  return SystemCoreClock;
 8003008:	4b03      	ldr	r3, [pc, #12]	; (8003018 <HAL_RCC_GetHCLKFreq+0x14>)
 800300a:	681b      	ldr	r3, [r3, #0]
}
 800300c:	4618      	mov	r0, r3
 800300e:	46bd      	mov	sp, r7
 8003010:	f85d 7b04 	ldr.w	r7, [sp], #4
 8003014:	4770      	bx	lr
 8003016:	bf00      	nop
 8003018:	20000000 	.word	0x20000000

0800301c <HAL_RCC_GetPCLK1Freq>:
  * @note   Each time PCLK1 changes, this function must be called to update the
  *         right PCLK1 value. Otherwise, any configuration based on this function will be incorrect.
  * @retval PCLK1 frequency
  */
uint32_t HAL_RCC_GetPCLK1Freq(void)
{
 800301c:	b580      	push	{r7, lr}
 800301e:	af00      	add	r7, sp, #0
  /* Get HCLK source and Compute PCLK1 frequency ---------------------------*/
  return (HAL_RCC_GetHCLKFreq() >> APBPrescTable[(RCC->CFGR & RCC_CFGR_PPRE1)>> RCC_CFGR_PPRE1_Pos]);
 8003020:	f7ff fff0 	bl	8003004 <HAL_RCC_GetHCLKFreq>
 8003024:	4602      	mov	r2, r0
 8003026:	4b05      	ldr	r3, [pc, #20]	; (800303c <HAL_RCC_GetPCLK1Freq+0x20>)
 8003028:	689b      	ldr	r3, [r3, #8]
 800302a:	0a9b      	lsrs	r3, r3, #10
 800302c:	f003 0307 	and.w	r3, r3, #7
 8003030:	4903      	ldr	r1, [pc, #12]	; (8003040 <HAL_RCC_GetPCLK1Freq+0x24>)
 8003032:	5ccb      	ldrb	r3, [r1, r3]
 8003034:	fa22 f303 	lsr.w	r3, r2, r3
}
 8003038:	4618      	mov	r0, r3
 800303a:	bd80      	pop	{r7, pc}
 800303c:	40023800 	.word	0x40023800
 8003040:	08007254 	.word	0x08007254

08003044 <HAL_RCC_GetPCLK2Freq>:
  * @note   Each time PCLK2 changes, this function must be called to update the
  *         right PCLK2 value. Otherwise, any configuration based on this function will be incorrect.
  * @retval PCLK2 frequency
  */
uint32_t HAL_RCC_GetPCLK2Freq(void)
{
 8003044:	b580      	push	{r7, lr}
 8003046:	af00      	add	r7, sp, #0
  /* Get HCLK source and Compute PCLK2 frequency ---------------------------*/
  return (HAL_RCC_GetHCLKFreq()>> APBPrescTable[(RCC->CFGR & RCC_CFGR_PPRE2)>> RCC_CFGR_PPRE2_Pos]);
 8003048:	f7ff ffdc 	bl	8003004 <HAL_RCC_GetHCLKFreq>
 800304c:	4602      	mov	r2, r0
 800304e:	4b05      	ldr	r3, [pc, #20]	; (8003064 <HAL_RCC_GetPCLK2Freq+0x20>)
 8003050:	689b      	ldr	r3, [r3, #8]
 8003052:	0b5b      	lsrs	r3, r3, #13
 8003054:	f003 0307 	and.w	r3, r3, #7
 8003058:	4903      	ldr	r1, [pc, #12]	; (8003068 <HAL_RCC_GetPCLK2Freq+0x24>)
 800305a:	5ccb      	ldrb	r3, [r1, r3]
 800305c:	fa22 f303 	lsr.w	r3, r2, r3
}
 8003060:	4618      	mov	r0, r3
 8003062:	bd80      	pop	{r7, pc}
 8003064:	40023800 	.word	0x40023800
 8003068:	08007254 	.word	0x08007254

0800306c <HAL_RCC_GetSysClockFreq>:
  *
  *
  * @retval SYSCLK frequency
  */
uint32_t HAL_RCC_GetSysClockFreq(void)
{
 800306c:	e92d 4fb0 	stmdb	sp!, {r4, r5, r7, r8, r9, sl, fp, lr}
 8003070:	b088      	sub	sp, #32
 8003072:	af00      	add	r7, sp, #0
  uint32_t pllm = 0U;
 8003074:	2300      	movs	r3, #0
 8003076:	617b      	str	r3, [r7, #20]
  uint32_t pllvco = 0U;
 8003078:	2300      	movs	r3, #0
 800307a:	61fb      	str	r3, [r7, #28]
  uint32_t pllp = 0U;
 800307c:	2300      	movs	r3, #0
 800307e:	613b      	str	r3, [r7, #16]
  uint32_t pllr = 0U;
 8003080:	2300      	movs	r3, #0
 8003082:	60fb      	str	r3, [r7, #12]
  uint32_t sysclockfreq = 0U;
 8003084:	2300      	movs	r3, #0
 8003086:	61bb      	str	r3, [r7, #24]

  /* Get SYSCLK source -------------------------------------------------------*/
  switch (RCC->CFGR & RCC_CFGR_SWS)
 8003088:	4bce      	ldr	r3, [pc, #824]	; (80033c4 <HAL_RCC_GetSysClockFreq+0x358>)
 800308a:	689b      	ldr	r3, [r3, #8]
 800308c:	f003 030c 	and.w	r3, r3, #12
 8003090:	2b0c      	cmp	r3, #12
 8003092:	f200 818d 	bhi.w	80033b0 <HAL_RCC_GetSysClockFreq+0x344>
 8003096:	a201      	add	r2, pc, #4	; (adr r2, 800309c <HAL_RCC_GetSysClockFreq+0x30>)
 8003098:	f852 f023 	ldr.w	pc, [r2, r3, lsl #2]
 800309c:	080030d1 	.word	0x080030d1
 80030a0:	080033b1 	.word	0x080033b1
 80030a4:	080033b1 	.word	0x080033b1
 80030a8:	080033b1 	.word	0x080033b1
 80030ac:	080030d7 	.word	0x080030d7
 80030b0:	080033b1 	.word	0x080033b1
 80030b4:	080033b1 	.word	0x080033b1
 80030b8:	080033b1 	.word	0x080033b1
 80030bc:	080030dd 	.word	0x080030dd
 80030c0:	080033b1 	.word	0x080033b1
 80030c4:	080033b1 	.word	0x080033b1
 80030c8:	080033b1 	.word	0x080033b1
 80030cc:	08003251 	.word	0x08003251
  {
    case RCC_CFGR_SWS_HSI:  /* HSI used as system clock source */
    {
      sysclockfreq = HSI_VALUE;
 80030d0:	4bbd      	ldr	r3, [pc, #756]	; (80033c8 <HAL_RCC_GetSysClockFreq+0x35c>)
 80030d2:	61bb      	str	r3, [r7, #24]
       break;
 80030d4:	e16f      	b.n	80033b6 <HAL_RCC_GetSysClockFreq+0x34a>
    }
    case RCC_CFGR_SWS_HSE:  /* HSE used as system clock  source */
    {
      sysclockfreq = HSE_VALUE;
 80030d6:	4bbd      	ldr	r3, [pc, #756]	; (80033cc <HAL_RCC_GetSysClockFreq+0x360>)
 80030d8:	61bb      	str	r3, [r7, #24]
      break;
 80030da:	e16c      	b.n	80033b6 <HAL_RCC_GetSysClockFreq+0x34a>
    }
    case RCC_CFGR_SWS_PLL:  /* PLL/PLLP used as system clock  source */
    {
      /* PLL_VCO = (HSE_VALUE or HSI_VALUE / PLLM) * PLLN
      SYSCLK = PLL_VCO / PLLP */
      pllm = RCC->PLLCFGR & RCC_PLLCFGR_PLLM;
 80030dc:	4bb9      	ldr	r3, [pc, #740]	; (80033c4 <HAL_RCC_GetSysClockFreq+0x358>)
 80030de:	685b      	ldr	r3, [r3, #4]
 80030e0:	f003 033f 	and.w	r3, r3, #63	; 0x3f
 80030e4:	617b      	str	r3, [r7, #20]
      if(__HAL_RCC_GET_PLL_OSCSOURCE() != RCC_PLLSOURCE_HSI)
 80030e6:	4bb7      	ldr	r3, [pc, #732]	; (80033c4 <HAL_RCC_GetSysClockFreq+0x358>)
 80030e8:	685b      	ldr	r3, [r3, #4]
 80030ea:	f403 0380 	and.w	r3, r3, #4194304	; 0x400000
 80030ee:	2b00      	cmp	r3, #0
 80030f0:	d053      	beq.n	800319a <HAL_RCC_GetSysClockFreq+0x12e>
      {
        /* HSE used as PLL clock source */
        pllvco = (uint32_t) ((((uint64_t) HSE_VALUE * ((uint64_t) ((RCC->PLLCFGR & RCC_PLLCFGR_PLLN) >> RCC_PLLCFGR_PLLN_Pos)))) / (uint64_t)pllm);
 80030f2:	4bb4      	ldr	r3, [pc, #720]	; (80033c4 <HAL_RCC_GetSysClockFreq+0x358>)
 80030f4:	685b      	ldr	r3, [r3, #4]
 80030f6:	099b      	lsrs	r3, r3, #6
 80030f8:	461a      	mov	r2, r3
 80030fa:	f04f 0300 	mov.w	r3, #0
 80030fe:	f240 10ff 	movw	r0, #511	; 0x1ff
 8003102:	f04f 0100 	mov.w	r1, #0
 8003106:	ea02 0400 	and.w	r4, r2, r0
 800310a:	603c      	str	r4, [r7, #0]
 800310c:	400b      	ands	r3, r1
 800310e:	607b      	str	r3, [r7, #4]
 8003110:	e9d7 4500 	ldrd	r4, r5, [r7]
 8003114:	4620      	mov	r0, r4
 8003116:	4629      	mov	r1, r5
 8003118:	f04f 0200 	mov.w	r2, #0
 800311c:	f04f 0300 	mov.w	r3, #0
 8003120:	014b      	lsls	r3, r1, #5
 8003122:	ea43 63d0 	orr.w	r3, r3, r0, lsr #27
 8003126:	0142      	lsls	r2, r0, #5
 8003128:	4610      	mov	r0, r2
 800312a:	4619      	mov	r1, r3
 800312c:	4623      	mov	r3, r4
 800312e:	1ac0      	subs	r0, r0, r3
 8003130:	462b      	mov	r3, r5
 8003132:	eb61 0103 	sbc.w	r1, r1, r3
 8003136:	f04f 0200 	mov.w	r2, #0
 800313a:	f04f 0300 	mov.w	r3, #0
 800313e:	018b      	lsls	r3, r1, #6
 8003140:	ea43 6390 	orr.w	r3, r3, r0, lsr #26
 8003144:	0182      	lsls	r2, r0, #6
 8003146:	1a12      	subs	r2, r2, r0
 8003148:	eb63 0301 	sbc.w	r3, r3, r1
 800314c:	f04f 0000 	mov.w	r0, #0
 8003150:	f04f 0100 	mov.w	r1, #0
 8003154:	00d9      	lsls	r1, r3, #3
 8003156:	ea41 7152 	orr.w	r1, r1, r2, lsr #29
 800315a:	00d0      	lsls	r0, r2, #3
 800315c:	4602      	mov	r2, r0
 800315e:	460b      	mov	r3, r1
 8003160:	4621      	mov	r1, r4
 8003162:	1852      	adds	r2, r2, r1
 8003164:	4629      	mov	r1, r5
 8003166:	eb43 0101 	adc.w	r1, r3, r1
 800316a:	460b      	mov	r3, r1
 800316c:	f04f 0000 	mov.w	r0, #0
 8003170:	f04f 0100 	mov.w	r1, #0
 8003174:	0259      	lsls	r1, r3, #9
 8003176:	ea41 51d2 	orr.w	r1, r1, r2, lsr #23
 800317a:	0250      	lsls	r0, r2, #9
 800317c:	4602      	mov	r2, r0
 800317e:	460b      	mov	r3, r1
 8003180:	4610      	mov	r0, r2
 8003182:	4619      	mov	r1, r3
 8003184:	697b      	ldr	r3, [r7, #20]
 8003186:	461a      	mov	r2, r3
 8003188:	f04f 0300 	mov.w	r3, #0
 800318c:	f7fd fd7c 	bl	8000c88 <__aeabi_uldivmod>
 8003190:	4602      	mov	r2, r0
 8003192:	460b      	mov	r3, r1
 8003194:	4613      	mov	r3, r2
 8003196:	61fb      	str	r3, [r7, #28]
 8003198:	e04c      	b.n	8003234 <HAL_RCC_GetSysClockFreq+0x1c8>
      }
      else
      {
        /* HSI used as PLL clock source */
        pllvco = (uint32_t) ((((uint64_t) HSI_VALUE * ((uint64_t) ((RCC->PLLCFGR & RCC_PLLCFGR_PLLN) >> RCC_PLLCFGR_PLLN_Pos)))) / (uint64_t)pllm);
 800319a:	4b8a      	ldr	r3, [pc, #552]	; (80033c4 <HAL_RCC_GetSysClockFreq+0x358>)
 800319c:	685b      	ldr	r3, [r3, #4]
 800319e:	099b      	lsrs	r3, r3, #6
 80031a0:	461a      	mov	r2, r3
 80031a2:	f04f 0300 	mov.w	r3, #0
 80031a6:	f240 10ff 	movw	r0, #511	; 0x1ff
 80031aa:	f04f 0100 	mov.w	r1, #0
 80031ae:	ea02 0a00 	and.w	sl, r2, r0
 80031b2:	ea03 0b01 	and.w	fp, r3, r1
 80031b6:	4650      	mov	r0, sl
 80031b8:	4659      	mov	r1, fp
 80031ba:	f04f 0200 	mov.w	r2, #0
 80031be:	f04f 0300 	mov.w	r3, #0
 80031c2:	014b      	lsls	r3, r1, #5
 80031c4:	ea43 63d0 	orr.w	r3, r3, r0, lsr #27
 80031c8:	0142      	lsls	r2, r0, #5
 80031ca:	4610      	mov	r0, r2
 80031cc:	4619      	mov	r1, r3
 80031ce:	ebb0 000a 	subs.w	r0, r0, sl
 80031d2:	eb61 010b 	sbc.w	r1, r1, fp
 80031d6:	f04f 0200 	mov.w	r2, #0
 80031da:	f04f 0300 	mov.w	r3, #0
 80031de:	018b      	lsls	r3, r1, #6
 80031e0:	ea43 6390 	orr.w	r3, r3, r0, lsr #26
 80031e4:	0182      	lsls	r2, r0, #6
 80031e6:	1a12      	subs	r2, r2, r0
 80031e8:	eb63 0301 	sbc.w	r3, r3, r1
 80031ec:	f04f 0000 	mov.w	r0, #0
 80031f0:	f04f 0100 	mov.w	r1, #0
 80031f4:	00d9      	lsls	r1, r3, #3
 80031f6:	ea41 7152 	orr.w	r1, r1, r2, lsr #29
 80031fa:	00d0      	lsls	r0, r2, #3
 80031fc:	4602      	mov	r2, r0
 80031fe:	460b      	mov	r3, r1
 8003200:	eb12 020a 	adds.w	r2, r2, sl
 8003204:	eb43 030b 	adc.w	r3, r3, fp
 8003208:	f04f 0000 	mov.w	r0, #0
 800320c:	f04f 0100 	mov.w	r1, #0
 8003210:	0299      	lsls	r1, r3, #10
 8003212:	ea41 5192 	orr.w	r1, r1, r2, lsr #22
 8003216:	0290      	lsls	r0, r2, #10
 8003218:	4602      	mov	r2, r0
 800321a:	460b      	mov	r3, r1
 800321c:	4610      	mov	r0, r2
 800321e:	4619      	mov	r1, r3
 8003220:	697b      	ldr	r3, [r7, #20]
 8003222:	461a      	mov	r2, r3
 8003224:	f04f 0300 	mov.w	r3, #0
 8003228:	f7fd fd2e 	bl	8000c88 <__aeabi_uldivmod>
 800322c:	4602      	mov	r2, r0
 800322e:	460b      	mov	r3, r1
 8003230:	4613      	mov	r3, r2
 8003232:	61fb      	str	r3, [r7, #28]
      }
      pllp = ((((RCC->PLLCFGR & RCC_PLLCFGR_PLLP) >> RCC_PLLCFGR_PLLP_Pos) + 1U) *2U);
 8003234:	4b63      	ldr	r3, [pc, #396]	; (80033c4 <HAL_RCC_GetSysClockFreq+0x358>)
 8003236:	685b      	ldr	r3, [r3, #4]
 8003238:	0c1b      	lsrs	r3, r3, #16
 800323a:	f003 0303 	and.w	r3, r3, #3
 800323e:	3301      	adds	r3, #1
 8003240:	005b      	lsls	r3, r3, #1
 8003242:	613b      	str	r3, [r7, #16]

      sysclockfreq = pllvco/pllp;
 8003244:	69fa      	ldr	r2, [r7, #28]
 8003246:	693b      	ldr	r3, [r7, #16]
 8003248:	fbb2 f3f3 	udiv	r3, r2, r3
 800324c:	61bb      	str	r3, [r7, #24]
      break;
 800324e:	e0b2      	b.n	80033b6 <HAL_RCC_GetSysClockFreq+0x34a>
    }
    case RCC_CFGR_SWS_PLLR:  /* PLL/PLLR used as system clock  source */
    {
      /* PLL_VCO = (HSE_VALUE or HSI_VALUE / PLLM) * PLLN
      SYSCLK = PLL_VCO / PLLR */
      pllm = RCC->PLLCFGR & RCC_PLLCFGR_PLLM;
 8003250:	4b5c      	ldr	r3, [pc, #368]	; (80033c4 <HAL_RCC_GetSysClockFreq+0x358>)
 8003252:	685b      	ldr	r3, [r3, #4]
 8003254:	f003 033f 	and.w	r3, r3, #63	; 0x3f
 8003258:	617b      	str	r3, [r7, #20]
      if(__HAL_RCC_GET_PLL_OSCSOURCE() != RCC_PLLSOURCE_HSI)
 800325a:	4b5a      	ldr	r3, [pc, #360]	; (80033c4 <HAL_RCC_GetSysClockFreq+0x358>)
 800325c:	685b      	ldr	r3, [r3, #4]
 800325e:	f403 0380 	and.w	r3, r3, #4194304	; 0x400000
 8003262:	2b00      	cmp	r3, #0
 8003264:	d04d      	beq.n	8003302 <HAL_RCC_GetSysClockFreq+0x296>
      {
        /* HSE used as PLL clock source */
        pllvco = (uint32_t) ((((uint64_t) HSE_VALUE * ((uint64_t) ((RCC->PLLCFGR & RCC_PLLCFGR_PLLN) >> RCC_PLLCFGR_PLLN_Pos)))) / (uint64_t)pllm);
 8003266:	4b57      	ldr	r3, [pc, #348]	; (80033c4 <HAL_RCC_GetSysClockFreq+0x358>)
 8003268:	685b      	ldr	r3, [r3, #4]
 800326a:	099b      	lsrs	r3, r3, #6
 800326c:	461a      	mov	r2, r3
 800326e:	f04f 0300 	mov.w	r3, #0
 8003272:	f240 10ff 	movw	r0, #511	; 0x1ff
 8003276:	f04f 0100 	mov.w	r1, #0
 800327a:	ea02 0800 	and.w	r8, r2, r0
 800327e:	ea03 0901 	and.w	r9, r3, r1
 8003282:	4640      	mov	r0, r8
 8003284:	4649      	mov	r1, r9
 8003286:	f04f 0200 	mov.w	r2, #0
 800328a:	f04f 0300 	mov.w	r3, #0
 800328e:	014b      	lsls	r3, r1, #5
 8003290:	ea43 63d0 	orr.w	r3, r3, r0, lsr #27
 8003294:	0142      	lsls	r2, r0, #5
 8003296:	4610      	mov	r0, r2
 8003298:	4619      	mov	r1, r3
 800329a:	ebb0 0008 	subs.w	r0, r0, r8
 800329e:	eb61 0109 	sbc.w	r1, r1, r9
 80032a2:	f04f 0200 	mov.w	r2, #0
 80032a6:	f04f 0300 	mov.w	r3, #0
 80032aa:	018b      	lsls	r3, r1, #6
 80032ac:	ea43 6390 	orr.w	r3, r3, r0, lsr #26
 80032b0:	0182      	lsls	r2, r0, #6
 80032b2:	1a12      	subs	r2, r2, r0
 80032b4:	eb63 0301 	sbc.w	r3, r3, r1
 80032b8:	f04f 0000 	mov.w	r0, #0
 80032bc:	f04f 0100 	mov.w	r1, #0
 80032c0:	00d9      	lsls	r1, r3, #3
 80032c2:	ea41 7152 	orr.w	r1, r1, r2, lsr #29
 80032c6:	00d0      	lsls	r0, r2, #3
 80032c8:	4602      	mov	r2, r0
 80032ca:	460b      	mov	r3, r1
 80032cc:	eb12 0208 	adds.w	r2, r2, r8
 80032d0:	eb43 0309 	adc.w	r3, r3, r9
 80032d4:	f04f 0000 	mov.w	r0, #0
 80032d8:	f04f 0100 	mov.w	r1, #0
 80032dc:	0259      	lsls	r1, r3, #9
 80032de:	ea41 51d2 	orr.w	r1, r1, r2, lsr #23
 80032e2:	0250      	lsls	r0, r2, #9
 80032e4:	4602      	mov	r2, r0
 80032e6:	460b      	mov	r3, r1
 80032e8:	4610      	mov	r0, r2
 80032ea:	4619      	mov	r1, r3
 80032ec:	697b      	ldr	r3, [r7, #20]
 80032ee:	461a      	mov	r2, r3
 80032f0:	f04f 0300 	mov.w	r3, #0
 80032f4:	f7fd fcc8 	bl	8000c88 <__aeabi_uldivmod>
 80032f8:	4602      	mov	r2, r0
 80032fa:	460b      	mov	r3, r1
 80032fc:	4613      	mov	r3, r2
 80032fe:	61fb      	str	r3, [r7, #28]
 8003300:	e04a      	b.n	8003398 <HAL_RCC_GetSysClockFreq+0x32c>
      }
      else
      {
        /* HSI used as PLL clock source */
        pllvco = (uint32_t) ((((uint64_t) HSI_VALUE * ((uint64_t) ((RCC->PLLCFGR & RCC_PLLCFGR_PLLN) >> RCC_PLLCFGR_PLLN_Pos)))) / (uint64_t)pllm);
 8003302:	4b30      	ldr	r3, [pc, #192]	; (80033c4 <HAL_RCC_GetSysClockFreq+0x358>)
 8003304:	685b      	ldr	r3, [r3, #4]
 8003306:	099b      	lsrs	r3, r3, #6
 8003308:	461a      	mov	r2, r3
 800330a:	f04f 0300 	mov.w	r3, #0
 800330e:	f240 10ff 	movw	r0, #511	; 0x1ff
 8003312:	f04f 0100 	mov.w	r1, #0
 8003316:	ea02 0400 	and.w	r4, r2, r0
 800331a:	ea03 0501 	and.w	r5, r3, r1
 800331e:	4620      	mov	r0, r4
 8003320:	4629      	mov	r1, r5
 8003322:	f04f 0200 	mov.w	r2, #0
 8003326:	f04f 0300 	mov.w	r3, #0
 800332a:	014b      	lsls	r3, r1, #5
 800332c:	ea43 63d0 	orr.w	r3, r3, r0, lsr #27
 8003330:	0142      	lsls	r2, r0, #5
 8003332:	4610      	mov	r0, r2
 8003334:	4619      	mov	r1, r3
 8003336:	1b00      	subs	r0, r0, r4
 8003338:	eb61 0105 	sbc.w	r1, r1, r5
 800333c:	f04f 0200 	mov.w	r2, #0
 8003340:	f04f 0300 	mov.w	r3, #0
 8003344:	018b      	lsls	r3, r1, #6
 8003346:	ea43 6390 	orr.w	r3, r3, r0, lsr #26
 800334a:	0182      	lsls	r2, r0, #6
 800334c:	1a12      	subs	r2, r2, r0
 800334e:	eb63 0301 	sbc.w	r3, r3, r1
 8003352:	f04f 0000 	mov.w	r0, #0
 8003356:	f04f 0100 	mov.w	r1, #0
 800335a:	00d9      	lsls	r1, r3, #3
 800335c:	ea41 7152 	orr.w	r1, r1, r2, lsr #29
 8003360:	00d0      	lsls	r0, r2, #3
 8003362:	4602      	mov	r2, r0
 8003364:	460b      	mov	r3, r1
 8003366:	1912      	adds	r2, r2, r4
 8003368:	eb45 0303 	adc.w	r3, r5, r3
 800336c:	f04f 0000 	mov.w	r0, #0
 8003370:	f04f 0100 	mov.w	r1, #0
 8003374:	0299      	lsls	r1, r3, #10
 8003376:	ea41 5192 	orr.w	r1, r1, r2, lsr #22
 800337a:	0290      	lsls	r0, r2, #10
 800337c:	4602      	mov	r2, r0
 800337e:	460b      	mov	r3, r1
 8003380:	4610      	mov	r0, r2
 8003382:	4619      	mov	r1, r3
 8003384:	697b      	ldr	r3, [r7, #20]
 8003386:	461a      	mov	r2, r3
 8003388:	f04f 0300 	mov.w	r3, #0
 800338c:	f7fd fc7c 	bl	8000c88 <__aeabi_uldivmod>
 8003390:	4602      	mov	r2, r0
 8003392:	460b      	mov	r3, r1
 8003394:	4613      	mov	r3, r2
 8003396:	61fb      	str	r3, [r7, #28]
      }
      pllr = ((RCC->PLLCFGR & RCC_PLLCFGR_PLLR) >> RCC_PLLCFGR_PLLR_Pos);
 8003398:	4b0a      	ldr	r3, [pc, #40]	; (80033c4 <HAL_RCC_GetSysClockFreq+0x358>)
 800339a:	685b      	ldr	r3, [r3, #4]
 800339c:	0f1b      	lsrs	r3, r3, #28
 800339e:	f003 0307 	and.w	r3, r3, #7
 80033a2:	60fb      	str	r3, [r7, #12]

      sysclockfreq = pllvco/pllr;
 80033a4:	69fa      	ldr	r2, [r7, #28]
 80033a6:	68fb      	ldr	r3, [r7, #12]
 80033a8:	fbb2 f3f3 	udiv	r3, r2, r3
 80033ac:	61bb      	str	r3, [r7, #24]
      break;
 80033ae:	e002      	b.n	80033b6 <HAL_RCC_GetSysClockFreq+0x34a>
    }
    default:
    {
      sysclockfreq = HSI_VALUE;
 80033b0:	4b05      	ldr	r3, [pc, #20]	; (80033c8 <HAL_RCC_GetSysClockFreq+0x35c>)
 80033b2:	61bb      	str	r3, [r7, #24]
      break;
 80033b4:	bf00      	nop
    }
  }
  return sysclockfreq;
 80033b6:	69bb      	ldr	r3, [r7, #24]
}
 80033b8:	4618      	mov	r0, r3
 80033ba:	3720      	adds	r7, #32
 80033bc:	46bd      	mov	sp, r7
 80033be:	e8bd 8fb0 	ldmia.w	sp!, {r4, r5, r7, r8, r9, sl, fp, pc}
 80033c2:	bf00      	nop
 80033c4:	40023800 	.word	0x40023800
 80033c8:	00f42400 	.word	0x00f42400
 80033cc:	007a1200 	.word	0x007a1200

080033d0 <HAL_RCC_OscConfig>:
  * @note   This function add the PLL/PLLR factor management during PLL configuration this feature
  *         is only available in STM32F410xx/STM32F446xx/STM32F469xx/STM32F479xx/STM32F412Zx/STM32F412Vx/STM32F412Rx/STM32F412Cx devices
  * @retval HAL status
  */
HAL_StatusTypeDef HAL_RCC_OscConfig(RCC_OscInitTypeDef  *RCC_OscInitStruct)
{
 80033d0:	b580      	push	{r7, lr}
 80033d2:	b086      	sub	sp, #24
 80033d4:	af00      	add	r7, sp, #0
 80033d6:	6078      	str	r0, [r7, #4]
  uint32_t tickstart, pll_config;

  /* Check Null pointer */
  if(RCC_OscInitStruct == NULL)
 80033d8:	687b      	ldr	r3, [r7, #4]
 80033da:	2b00      	cmp	r3, #0
 80033dc:	d101      	bne.n	80033e2 <HAL_RCC_OscConfig+0x12>
  {
    return HAL_ERROR;
 80033de:	2301      	movs	r3, #1
 80033e0:	e28d      	b.n	80038fe <HAL_RCC_OscConfig+0x52e>
  }

  /* Check the parameters */
  assert_param(IS_RCC_OSCILLATORTYPE(RCC_OscInitStruct->OscillatorType));
  /*------------------------------- HSE Configuration ------------------------*/
  if(((RCC_OscInitStruct->OscillatorType) & RCC_OSCILLATORTYPE_HSE) == RCC_OSCILLATORTYPE_HSE)
 80033e2:	687b      	ldr	r3, [r7, #4]
 80033e4:	681b      	ldr	r3, [r3, #0]
 80033e6:	f003 0301 	and.w	r3, r3, #1
 80033ea:	2b00      	cmp	r3, #0
 80033ec:	f000 8083 	beq.w	80034f6 <HAL_RCC_OscConfig+0x126>
  {
    /* Check the parameters */
    assert_param(IS_RCC_HSE(RCC_OscInitStruct->HSEState));
    /* When the HSE is used as system clock or clock source for PLL in these cases HSE will not disabled */
#if defined(STM32F446xx)
    if((__HAL_RCC_GET_SYSCLK_SOURCE() == RCC_CFGR_SWS_HSE)                                                                     ||\
 80033f0:	4b94      	ldr	r3, [pc, #592]	; (8003644 <HAL_RCC_OscConfig+0x274>)
 80033f2:	689b      	ldr	r3, [r3, #8]
 80033f4:	f003 030c 	and.w	r3, r3, #12
 80033f8:	2b04      	cmp	r3, #4
 80033fa:	d019      	beq.n	8003430 <HAL_RCC_OscConfig+0x60>
      ((__HAL_RCC_GET_SYSCLK_SOURCE() == RCC_CFGR_SWS_PLL) && ((RCC->PLLCFGR & RCC_PLLCFGR_PLLSRC) == RCC_PLLCFGR_PLLSRC_HSE)) ||\
 80033fc:	4b91      	ldr	r3, [pc, #580]	; (8003644 <HAL_RCC_OscConfig+0x274>)
 80033fe:	689b      	ldr	r3, [r3, #8]
 8003400:	f003 030c 	and.w	r3, r3, #12
    if((__HAL_RCC_GET_SYSCLK_SOURCE() == RCC_CFGR_SWS_HSE)                                                                     ||\
 8003404:	2b08      	cmp	r3, #8
 8003406:	d106      	bne.n	8003416 <HAL_RCC_OscConfig+0x46>
      ((__HAL_RCC_GET_SYSCLK_SOURCE() == RCC_CFGR_SWS_PLL) && ((RCC->PLLCFGR & RCC_PLLCFGR_PLLSRC) == RCC_PLLCFGR_PLLSRC_HSE)) ||\
 8003408:	4b8e      	ldr	r3, [pc, #568]	; (8003644 <HAL_RCC_OscConfig+0x274>)
 800340a:	685b      	ldr	r3, [r3, #4]
 800340c:	f403 0380 	and.w	r3, r3, #4194304	; 0x400000
 8003410:	f5b3 0f80 	cmp.w	r3, #4194304	; 0x400000
 8003414:	d00c      	beq.n	8003430 <HAL_RCC_OscConfig+0x60>
      ((__HAL_RCC_GET_SYSCLK_SOURCE() == RCC_CFGR_SWS_PLLR) && ((RCC->PLLCFGR & RCC_PLLCFGR_PLLSRC) == RCC_PLLCFGR_PLLSRC_HSE)))
 8003416:	4b8b      	ldr	r3, [pc, #556]	; (8003644 <HAL_RCC_OscConfig+0x274>)
 8003418:	689b      	ldr	r3, [r3, #8]
 800341a:	f003 030c 	and.w	r3, r3, #12
      ((__HAL_RCC_GET_SYSCLK_SOURCE() == RCC_CFGR_SWS_PLL) && ((RCC->PLLCFGR & RCC_PLLCFGR_PLLSRC) == RCC_PLLCFGR_PLLSRC_HSE)) ||\
 800341e:	2b0c      	cmp	r3, #12
 8003420:	d112      	bne.n	8003448 <HAL_RCC_OscConfig+0x78>
      ((__HAL_RCC_GET_SYSCLK_SOURCE() == RCC_CFGR_SWS_PLLR) && ((RCC->PLLCFGR & RCC_PLLCFGR_PLLSRC) == RCC_PLLCFGR_PLLSRC_HSE)))
 8003422:	4b88      	ldr	r3, [pc, #544]	; (8003644 <HAL_RCC_OscConfig+0x274>)
 8003424:	685b      	ldr	r3, [r3, #4]
 8003426:	f403 0380 	and.w	r3, r3, #4194304	; 0x400000
 800342a:	f5b3 0f80 	cmp.w	r3, #4194304	; 0x400000
 800342e:	d10b      	bne.n	8003448 <HAL_RCC_OscConfig+0x78>
#else
    if((__HAL_RCC_GET_SYSCLK_SOURCE() == RCC_CFGR_SWS_HSE)                                                                     ||\
      ((__HAL_RCC_GET_SYSCLK_SOURCE() == RCC_CFGR_SWS_PLL) && ((RCC->PLLCFGR & RCC_PLLCFGR_PLLSRC) == RCC_PLLCFGR_PLLSRC_HSE)))
#endif /* STM32F446xx */
    {
      if((__HAL_RCC_GET_FLAG(RCC_FLAG_HSERDY) != RESET) && (RCC_OscInitStruct->HSEState == RCC_HSE_OFF))
 8003430:	4b84      	ldr	r3, [pc, #528]	; (8003644 <HAL_RCC_OscConfig+0x274>)
 8003432:	681b      	ldr	r3, [r3, #0]
 8003434:	f403 3300 	and.w	r3, r3, #131072	; 0x20000
 8003438:	2b00      	cmp	r3, #0
 800343a:	d05b      	beq.n	80034f4 <HAL_RCC_OscConfig+0x124>
 800343c:	687b      	ldr	r3, [r7, #4]
 800343e:	685b      	ldr	r3, [r3, #4]
 8003440:	2b00      	cmp	r3, #0
 8003442:	d157      	bne.n	80034f4 <HAL_RCC_OscConfig+0x124>
      {
        return HAL_ERROR;
 8003444:	2301      	movs	r3, #1
 8003446:	e25a      	b.n	80038fe <HAL_RCC_OscConfig+0x52e>
      }
    }
    else
    {
      /* Set the new HSE configuration ---------------------------------------*/
      __HAL_RCC_HSE_CONFIG(RCC_OscInitStruct->HSEState);
 8003448:	687b      	ldr	r3, [r7, #4]
 800344a:	685b      	ldr	r3, [r3, #4]
 800344c:	f5b3 3f80 	cmp.w	r3, #65536	; 0x10000
 8003450:	d106      	bne.n	8003460 <HAL_RCC_OscConfig+0x90>
 8003452:	4b7c      	ldr	r3, [pc, #496]	; (8003644 <HAL_RCC_OscConfig+0x274>)
 8003454:	681b      	ldr	r3, [r3, #0]
 8003456:	4a7b      	ldr	r2, [pc, #492]	; (8003644 <HAL_RCC_OscConfig+0x274>)
 8003458:	f443 3380 	orr.w	r3, r3, #65536	; 0x10000
 800345c:	6013      	str	r3, [r2, #0]
 800345e:	e01d      	b.n	800349c <HAL_RCC_OscConfig+0xcc>
 8003460:	687b      	ldr	r3, [r7, #4]
 8003462:	685b      	ldr	r3, [r3, #4]
 8003464:	f5b3 2fa0 	cmp.w	r3, #327680	; 0x50000
 8003468:	d10c      	bne.n	8003484 <HAL_RCC_OscConfig+0xb4>
 800346a:	4b76      	ldr	r3, [pc, #472]	; (8003644 <HAL_RCC_OscConfig+0x274>)
 800346c:	681b      	ldr	r3, [r3, #0]
 800346e:	4a75      	ldr	r2, [pc, #468]	; (8003644 <HAL_RCC_OscConfig+0x274>)
 8003470:	f443 2380 	orr.w	r3, r3, #262144	; 0x40000
 8003474:	6013      	str	r3, [r2, #0]
 8003476:	4b73      	ldr	r3, [pc, #460]	; (8003644 <HAL_RCC_OscConfig+0x274>)
 8003478:	681b      	ldr	r3, [r3, #0]
 800347a:	4a72      	ldr	r2, [pc, #456]	; (8003644 <HAL_RCC_OscConfig+0x274>)
 800347c:	f443 3380 	orr.w	r3, r3, #65536	; 0x10000
 8003480:	6013      	str	r3, [r2, #0]
 8003482:	e00b      	b.n	800349c <HAL_RCC_OscConfig+0xcc>
 8003484:	4b6f      	ldr	r3, [pc, #444]	; (8003644 <HAL_RCC_OscConfig+0x274>)
 8003486:	681b      	ldr	r3, [r3, #0]
 8003488:	4a6e      	ldr	r2, [pc, #440]	; (8003644 <HAL_RCC_OscConfig+0x274>)
 800348a:	f423 3380 	bic.w	r3, r3, #65536	; 0x10000
 800348e:	6013      	str	r3, [r2, #0]
 8003490:	4b6c      	ldr	r3, [pc, #432]	; (8003644 <HAL_RCC_OscConfig+0x274>)
 8003492:	681b      	ldr	r3, [r3, #0]
 8003494:	4a6b      	ldr	r2, [pc, #428]	; (8003644 <HAL_RCC_OscConfig+0x274>)
 8003496:	f423 2380 	bic.w	r3, r3, #262144	; 0x40000
 800349a:	6013      	str	r3, [r2, #0]

      /* Check the HSE State */
      if((RCC_OscInitStruct->HSEState) != RCC_HSE_OFF)
 800349c:	687b      	ldr	r3, [r7, #4]
 800349e:	685b      	ldr	r3, [r3, #4]
 80034a0:	2b00      	cmp	r3, #0
 80034a2:	d013      	beq.n	80034cc <HAL_RCC_OscConfig+0xfc>
      {
        /* Get Start Tick*/
        tickstart = HAL_GetTick();
 80034a4:	f7fe fbce 	bl	8001c44 <HAL_GetTick>
 80034a8:	6138      	str	r0, [r7, #16]

        /* Wait till HSE is ready */
        while(__HAL_RCC_GET_FLAG(RCC_FLAG_HSERDY) == RESET)
 80034aa:	e008      	b.n	80034be <HAL_RCC_OscConfig+0xee>
        {
          if((HAL_GetTick() - tickstart ) > HSE_TIMEOUT_VALUE)
 80034ac:	f7fe fbca 	bl	8001c44 <HAL_GetTick>
 80034b0:	4602      	mov	r2, r0
 80034b2:	693b      	ldr	r3, [r7, #16]
 80034b4:	1ad3      	subs	r3, r2, r3
 80034b6:	2b64      	cmp	r3, #100	; 0x64
 80034b8:	d901      	bls.n	80034be <HAL_RCC_OscConfig+0xee>
          {
            return HAL_TIMEOUT;
 80034ba:	2303      	movs	r3, #3
 80034bc:	e21f      	b.n	80038fe <HAL_RCC_OscConfig+0x52e>
        while(__HAL_RCC_GET_FLAG(RCC_FLAG_HSERDY) == RESET)
 80034be:	4b61      	ldr	r3, [pc, #388]	; (8003644 <HAL_RCC_OscConfig+0x274>)
 80034c0:	681b      	ldr	r3, [r3, #0]
 80034c2:	f403 3300 	and.w	r3, r3, #131072	; 0x20000
 80034c6:	2b00      	cmp	r3, #0
 80034c8:	d0f0      	beq.n	80034ac <HAL_RCC_OscConfig+0xdc>
 80034ca:	e014      	b.n	80034f6 <HAL_RCC_OscConfig+0x126>
        }
      }
      else
      {
        /* Get Start Tick*/
        tickstart = HAL_GetTick();
 80034cc:	f7fe fbba 	bl	8001c44 <HAL_GetTick>
 80034d0:	6138      	str	r0, [r7, #16]

        /* Wait till HSE is bypassed or disabled */
        while(__HAL_RCC_GET_FLAG(RCC_FLAG_HSERDY) != RESET)
 80034d2:	e008      	b.n	80034e6 <HAL_RCC_OscConfig+0x116>
        {
          if((HAL_GetTick() - tickstart ) > HSE_TIMEOUT_VALUE)
 80034d4:	f7fe fbb6 	bl	8001c44 <HAL_GetTick>
 80034d8:	4602      	mov	r2, r0
 80034da:	693b      	ldr	r3, [r7, #16]
 80034dc:	1ad3      	subs	r3, r2, r3
 80034de:	2b64      	cmp	r3, #100	; 0x64
 80034e0:	d901      	bls.n	80034e6 <HAL_RCC_OscConfig+0x116>
          {
            return HAL_TIMEOUT;
 80034e2:	2303      	movs	r3, #3
 80034e4:	e20b      	b.n	80038fe <HAL_RCC_OscConfig+0x52e>
        while(__HAL_RCC_GET_FLAG(RCC_FLAG_HSERDY) != RESET)
 80034e6:	4b57      	ldr	r3, [pc, #348]	; (8003644 <HAL_RCC_OscConfig+0x274>)
 80034e8:	681b      	ldr	r3, [r3, #0]
 80034ea:	f403 3300 	and.w	r3, r3, #131072	; 0x20000
 80034ee:	2b00      	cmp	r3, #0
 80034f0:	d1f0      	bne.n	80034d4 <HAL_RCC_OscConfig+0x104>
 80034f2:	e000      	b.n	80034f6 <HAL_RCC_OscConfig+0x126>
      if((__HAL_RCC_GET_FLAG(RCC_FLAG_HSERDY) != RESET) && (RCC_OscInitStruct->HSEState == RCC_HSE_OFF))
 80034f4:	bf00      	nop
        }
      }
    }
  }
  /*----------------------------- HSI Configuration --------------------------*/
  if(((RCC_OscInitStruct->OscillatorType) & RCC_OSCILLATORTYPE_HSI) == RCC_OSCILLATORTYPE_HSI)
 80034f6:	687b      	ldr	r3, [r7, #4]
 80034f8:	681b      	ldr	r3, [r3, #0]
 80034fa:	f003 0302 	and.w	r3, r3, #2
 80034fe:	2b00      	cmp	r3, #0
 8003500:	d06f      	beq.n	80035e2 <HAL_RCC_OscConfig+0x212>
    assert_param(IS_RCC_HSI(RCC_OscInitStruct->HSIState));
    assert_param(IS_RCC_CALIBRATION_VALUE(RCC_OscInitStruct->HSICalibrationValue));

    /* Check if HSI is used as system clock or as PLL source when PLL is selected as system clock */
#if defined(STM32F446xx)
    if((__HAL_RCC_GET_SYSCLK_SOURCE() == RCC_CFGR_SWS_HSI)                                                                     ||\
 8003502:	4b50      	ldr	r3, [pc, #320]	; (8003644 <HAL_RCC_OscConfig+0x274>)
 8003504:	689b      	ldr	r3, [r3, #8]
 8003506:	f003 030c 	and.w	r3, r3, #12
 800350a:	2b00      	cmp	r3, #0
 800350c:	d017      	beq.n	800353e <HAL_RCC_OscConfig+0x16e>
      ((__HAL_RCC_GET_SYSCLK_SOURCE() == RCC_CFGR_SWS_PLL) && ((RCC->PLLCFGR & RCC_PLLCFGR_PLLSRC) == RCC_PLLCFGR_PLLSRC_HSI)) ||\
 800350e:	4b4d      	ldr	r3, [pc, #308]	; (8003644 <HAL_RCC_OscConfig+0x274>)
 8003510:	689b      	ldr	r3, [r3, #8]
 8003512:	f003 030c 	and.w	r3, r3, #12
    if((__HAL_RCC_GET_SYSCLK_SOURCE() == RCC_CFGR_SWS_HSI)                                                                     ||\
 8003516:	2b08      	cmp	r3, #8
 8003518:	d105      	bne.n	8003526 <HAL_RCC_OscConfig+0x156>
      ((__HAL_RCC_GET_SYSCLK_SOURCE() == RCC_CFGR_SWS_PLL) && ((RCC->PLLCFGR & RCC_PLLCFGR_PLLSRC) == RCC_PLLCFGR_PLLSRC_HSI)) ||\
 800351a:	4b4a      	ldr	r3, [pc, #296]	; (8003644 <HAL_RCC_OscConfig+0x274>)
 800351c:	685b      	ldr	r3, [r3, #4]
 800351e:	f403 0380 	and.w	r3, r3, #4194304	; 0x400000
 8003522:	2b00      	cmp	r3, #0
 8003524:	d00b      	beq.n	800353e <HAL_RCC_OscConfig+0x16e>
      ((__HAL_RCC_GET_SYSCLK_SOURCE() == RCC_CFGR_SWS_PLLR) && ((RCC->PLLCFGR & RCC_PLLCFGR_PLLSRC) == RCC_PLLCFGR_PLLSRC_HSI)))
 8003526:	4b47      	ldr	r3, [pc, #284]	; (8003644 <HAL_RCC_OscConfig+0x274>)
 8003528:	689b      	ldr	r3, [r3, #8]
 800352a:	f003 030c 	and.w	r3, r3, #12
      ((__HAL_RCC_GET_SYSCLK_SOURCE() == RCC_CFGR_SWS_PLL) && ((RCC->PLLCFGR & RCC_PLLCFGR_PLLSRC) == RCC_PLLCFGR_PLLSRC_HSI)) ||\
 800352e:	2b0c      	cmp	r3, #12
 8003530:	d11c      	bne.n	800356c <HAL_RCC_OscConfig+0x19c>
      ((__HAL_RCC_GET_SYSCLK_SOURCE() == RCC_CFGR_SWS_PLLR) && ((RCC->PLLCFGR & RCC_PLLCFGR_PLLSRC) == RCC_PLLCFGR_PLLSRC_HSI)))
 8003532:	4b44      	ldr	r3, [pc, #272]	; (8003644 <HAL_RCC_OscConfig+0x274>)
 8003534:	685b      	ldr	r3, [r3, #4]
 8003536:	f403 0380 	and.w	r3, r3, #4194304	; 0x400000
 800353a:	2b00      	cmp	r3, #0
 800353c:	d116      	bne.n	800356c <HAL_RCC_OscConfig+0x19c>
    if((__HAL_RCC_GET_SYSCLK_SOURCE() == RCC_CFGR_SWS_HSI)                                                                     ||\
      ((__HAL_RCC_GET_SYSCLK_SOURCE() == RCC_CFGR_SWS_PLL) && ((RCC->PLLCFGR & RCC_PLLCFGR_PLLSRC) == RCC_PLLCFGR_PLLSRC_HSI)))
#endif /* STM32F446xx */
    {
      /* When HSI is used as system clock it will not disabled */
      if((__HAL_RCC_GET_FLAG(RCC_FLAG_HSIRDY) != RESET) && (RCC_OscInitStruct->HSIState != RCC_HSI_ON))
 800353e:	4b41      	ldr	r3, [pc, #260]	; (8003644 <HAL_RCC_OscConfig+0x274>)
 8003540:	681b      	ldr	r3, [r3, #0]
 8003542:	f003 0302 	and.w	r3, r3, #2
 8003546:	2b00      	cmp	r3, #0
 8003548:	d005      	beq.n	8003556 <HAL_RCC_OscConfig+0x186>
 800354a:	687b      	ldr	r3, [r7, #4]
 800354c:	68db      	ldr	r3, [r3, #12]
 800354e:	2b01      	cmp	r3, #1
 8003550:	d001      	beq.n	8003556 <HAL_RCC_OscConfig+0x186>
      {
        return HAL_ERROR;
 8003552:	2301      	movs	r3, #1
 8003554:	e1d3      	b.n	80038fe <HAL_RCC_OscConfig+0x52e>
      }
      /* Otherwise, just the calibration is allowed */
      else
      {
        /* Adjusts the Internal High Speed oscillator (HSI) calibration value.*/
        __HAL_RCC_HSI_CALIBRATIONVALUE_ADJUST(RCC_OscInitStruct->HSICalibrationValue);
 8003556:	4b3b      	ldr	r3, [pc, #236]	; (8003644 <HAL_RCC_OscConfig+0x274>)
 8003558:	681b      	ldr	r3, [r3, #0]
 800355a:	f023 02f8 	bic.w	r2, r3, #248	; 0xf8
 800355e:	687b      	ldr	r3, [r7, #4]
 8003560:	691b      	ldr	r3, [r3, #16]
 8003562:	00db      	lsls	r3, r3, #3
 8003564:	4937      	ldr	r1, [pc, #220]	; (8003644 <HAL_RCC_OscConfig+0x274>)
 8003566:	4313      	orrs	r3, r2
 8003568:	600b      	str	r3, [r1, #0]
      if((__HAL_RCC_GET_FLAG(RCC_FLAG_HSIRDY) != RESET) && (RCC_OscInitStruct->HSIState != RCC_HSI_ON))
 800356a:	e03a      	b.n	80035e2 <HAL_RCC_OscConfig+0x212>
      }
    }
    else
    {
      /* Check the HSI State */
      if((RCC_OscInitStruct->HSIState)!= RCC_HSI_OFF)
 800356c:	687b      	ldr	r3, [r7, #4]
 800356e:	68db      	ldr	r3, [r3, #12]
 8003570:	2b00      	cmp	r3, #0
 8003572:	d020      	beq.n	80035b6 <HAL_RCC_OscConfig+0x1e6>
      {
        /* Enable the Internal High Speed oscillator (HSI). */
        __HAL_RCC_HSI_ENABLE();
 8003574:	4b34      	ldr	r3, [pc, #208]	; (8003648 <HAL_RCC_OscConfig+0x278>)
 8003576:	2201      	movs	r2, #1
 8003578:	601a      	str	r2, [r3, #0]

        /* Get Start Tick*/
        tickstart = HAL_GetTick();
 800357a:	f7fe fb63 	bl	8001c44 <HAL_GetTick>
 800357e:	6138      	str	r0, [r7, #16]

        /* Wait till HSI is ready */
        while(__HAL_RCC_GET_FLAG(RCC_FLAG_HSIRDY) == RESET)
 8003580:	e008      	b.n	8003594 <HAL_RCC_OscConfig+0x1c4>
        {
          if((HAL_GetTick() - tickstart ) > HSI_TIMEOUT_VALUE)
 8003582:	f7fe fb5f 	bl	8001c44 <HAL_GetTick>
 8003586:	4602      	mov	r2, r0
 8003588:	693b      	ldr	r3, [r7, #16]
 800358a:	1ad3      	subs	r3, r2, r3
 800358c:	2b02      	cmp	r3, #2
 800358e:	d901      	bls.n	8003594 <HAL_RCC_OscConfig+0x1c4>
          {
            return HAL_TIMEOUT;
 8003590:	2303      	movs	r3, #3
 8003592:	e1b4      	b.n	80038fe <HAL_RCC_OscConfig+0x52e>
        while(__HAL_RCC_GET_FLAG(RCC_FLAG_HSIRDY) == RESET)
 8003594:	4b2b      	ldr	r3, [pc, #172]	; (8003644 <HAL_RCC_OscConfig+0x274>)
 8003596:	681b      	ldr	r3, [r3, #0]
 8003598:	f003 0302 	and.w	r3, r3, #2
 800359c:	2b00      	cmp	r3, #0
 800359e:	d0f0      	beq.n	8003582 <HAL_RCC_OscConfig+0x1b2>
          }
        }

        /* Adjusts the Internal High Speed oscillator (HSI) calibration value.*/
        __HAL_RCC_HSI_CALIBRATIONVALUE_ADJUST(RCC_OscInitStruct->HSICalibrationValue);
 80035a0:	4b28      	ldr	r3, [pc, #160]	; (8003644 <HAL_RCC_OscConfig+0x274>)
 80035a2:	681b      	ldr	r3, [r3, #0]
 80035a4:	f023 02f8 	bic.w	r2, r3, #248	; 0xf8
 80035a8:	687b      	ldr	r3, [r7, #4]
 80035aa:	691b      	ldr	r3, [r3, #16]
 80035ac:	00db      	lsls	r3, r3, #3
 80035ae:	4925      	ldr	r1, [pc, #148]	; (8003644 <HAL_RCC_OscConfig+0x274>)
 80035b0:	4313      	orrs	r3, r2
 80035b2:	600b      	str	r3, [r1, #0]
 80035b4:	e015      	b.n	80035e2 <HAL_RCC_OscConfig+0x212>
      }
      else
      {
        /* Disable the Internal High Speed oscillator (HSI). */
        __HAL_RCC_HSI_DISABLE();
 80035b6:	4b24      	ldr	r3, [pc, #144]	; (8003648 <HAL_RCC_OscConfig+0x278>)
 80035b8:	2200      	movs	r2, #0
 80035ba:	601a      	str	r2, [r3, #0]

        /* Get Start Tick*/
        tickstart = HAL_GetTick();
 80035bc:	f7fe fb42 	bl	8001c44 <HAL_GetTick>
 80035c0:	6138      	str	r0, [r7, #16]

        /* Wait till HSI is ready */
        while(__HAL_RCC_GET_FLAG(RCC_FLAG_HSIRDY) != RESET)
 80035c2:	e008      	b.n	80035d6 <HAL_RCC_OscConfig+0x206>
        {
          if((HAL_GetTick() - tickstart ) > HSI_TIMEOUT_VALUE)
 80035c4:	f7fe fb3e 	bl	8001c44 <HAL_GetTick>
 80035c8:	4602      	mov	r2, r0
 80035ca:	693b      	ldr	r3, [r7, #16]
 80035cc:	1ad3      	subs	r3, r2, r3
 80035ce:	2b02      	cmp	r3, #2
 80035d0:	d901      	bls.n	80035d6 <HAL_RCC_OscConfig+0x206>
          {
            return HAL_TIMEOUT;
 80035d2:	2303      	movs	r3, #3
 80035d4:	e193      	b.n	80038fe <HAL_RCC_OscConfig+0x52e>
        while(__HAL_RCC_GET_FLAG(RCC_FLAG_HSIRDY) != RESET)
 80035d6:	4b1b      	ldr	r3, [pc, #108]	; (8003644 <HAL_RCC_OscConfig+0x274>)
 80035d8:	681b      	ldr	r3, [r3, #0]
 80035da:	f003 0302 	and.w	r3, r3, #2
 80035de:	2b00      	cmp	r3, #0
 80035e0:	d1f0      	bne.n	80035c4 <HAL_RCC_OscConfig+0x1f4>
        }
      }
    }
  }
  /*------------------------------ LSI Configuration -------------------------*/
  if(((RCC_OscInitStruct->OscillatorType) & RCC_OSCILLATORTYPE_LSI) == RCC_OSCILLATORTYPE_LSI)
 80035e2:	687b      	ldr	r3, [r7, #4]
 80035e4:	681b      	ldr	r3, [r3, #0]
 80035e6:	f003 0308 	and.w	r3, r3, #8
 80035ea:	2b00      	cmp	r3, #0
 80035ec:	d036      	beq.n	800365c <HAL_RCC_OscConfig+0x28c>
  {
    /* Check the parameters */
    assert_param(IS_RCC_LSI(RCC_OscInitStruct->LSIState));

    /* Check the LSI State */
    if((RCC_OscInitStruct->LSIState)!= RCC_LSI_OFF)
 80035ee:	687b      	ldr	r3, [r7, #4]
 80035f0:	695b      	ldr	r3, [r3, #20]
 80035f2:	2b00      	cmp	r3, #0
 80035f4:	d016      	beq.n	8003624 <HAL_RCC_OscConfig+0x254>
    {
      /* Enable the Internal Low Speed oscillator (LSI). */
      __HAL_RCC_LSI_ENABLE();
 80035f6:	4b15      	ldr	r3, [pc, #84]	; (800364c <HAL_RCC_OscConfig+0x27c>)
 80035f8:	2201      	movs	r2, #1
 80035fa:	601a      	str	r2, [r3, #0]

      /* Get Start Tick*/
      tickstart = HAL_GetTick();
 80035fc:	f7fe fb22 	bl	8001c44 <HAL_GetTick>
 8003600:	6138      	str	r0, [r7, #16]

      /* Wait till LSI is ready */
      while(__HAL_RCC_GET_FLAG(RCC_FLAG_LSIRDY) == RESET)
 8003602:	e008      	b.n	8003616 <HAL_RCC_OscConfig+0x246>
      {
        if((HAL_GetTick() - tickstart ) > LSI_TIMEOUT_VALUE)
 8003604:	f7fe fb1e 	bl	8001c44 <HAL_GetTick>
 8003608:	4602      	mov	r2, r0
 800360a:	693b      	ldr	r3, [r7, #16]
 800360c:	1ad3      	subs	r3, r2, r3
 800360e:	2b02      	cmp	r3, #2
 8003610:	d901      	bls.n	8003616 <HAL_RCC_OscConfig+0x246>
        {
          return HAL_TIMEOUT;
 8003612:	2303      	movs	r3, #3
 8003614:	e173      	b.n	80038fe <HAL_RCC_OscConfig+0x52e>
      while(__HAL_RCC_GET_FLAG(RCC_FLAG_LSIRDY) == RESET)
 8003616:	4b0b      	ldr	r3, [pc, #44]	; (8003644 <HAL_RCC_OscConfig+0x274>)
 8003618:	6f5b      	ldr	r3, [r3, #116]	; 0x74
 800361a:	f003 0302 	and.w	r3, r3, #2
 800361e:	2b00      	cmp	r3, #0
 8003620:	d0f0      	beq.n	8003604 <HAL_RCC_OscConfig+0x234>
 8003622:	e01b      	b.n	800365c <HAL_RCC_OscConfig+0x28c>
      }
    }
    else
    {
      /* Disable the Internal Low Speed oscillator (LSI). */
      __HAL_RCC_LSI_DISABLE();
 8003624:	4b09      	ldr	r3, [pc, #36]	; (800364c <HAL_RCC_OscConfig+0x27c>)
 8003626:	2200      	movs	r2, #0
 8003628:	601a      	str	r2, [r3, #0]

      /* Get Start Tick*/
      tickstart = HAL_GetTick();
 800362a:	f7fe fb0b 	bl	8001c44 <HAL_GetTick>
 800362e:	6138      	str	r0, [r7, #16]

      /* Wait till LSI is ready */
      while(__HAL_RCC_GET_FLAG(RCC_FLAG_LSIRDY) != RESET)
 8003630:	e00e      	b.n	8003650 <HAL_RCC_OscConfig+0x280>
      {
        if((HAL_GetTick() - tickstart ) > LSI_TIMEOUT_VALUE)
 8003632:	f7fe fb07 	bl	8001c44 <HAL_GetTick>
 8003636:	4602      	mov	r2, r0
 8003638:	693b      	ldr	r3, [r7, #16]
 800363a:	1ad3      	subs	r3, r2, r3
 800363c:	2b02      	cmp	r3, #2
 800363e:	d907      	bls.n	8003650 <HAL_RCC_OscConfig+0x280>
        {
          return HAL_TIMEOUT;
 8003640:	2303      	movs	r3, #3
 8003642:	e15c      	b.n	80038fe <HAL_RCC_OscConfig+0x52e>
 8003644:	40023800 	.word	0x40023800
 8003648:	42470000 	.word	0x42470000
 800364c:	42470e80 	.word	0x42470e80
      while(__HAL_RCC_GET_FLAG(RCC_FLAG_LSIRDY) != RESET)
 8003650:	4b8a      	ldr	r3, [pc, #552]	; (800387c <HAL_RCC_OscConfig+0x4ac>)
 8003652:	6f5b      	ldr	r3, [r3, #116]	; 0x74
 8003654:	f003 0302 	and.w	r3, r3, #2
 8003658:	2b00      	cmp	r3, #0
 800365a:	d1ea      	bne.n	8003632 <HAL_RCC_OscConfig+0x262>
        }
      }
    }
  }
  /*------------------------------ LSE Configuration -------------------------*/
  if(((RCC_OscInitStruct->OscillatorType) & RCC_OSCILLATORTYPE_LSE) == RCC_OSCILLATORTYPE_LSE)
 800365c:	687b      	ldr	r3, [r7, #4]
 800365e:	681b      	ldr	r3, [r3, #0]
 8003660:	f003 0304 	and.w	r3, r3, #4
 8003664:	2b00      	cmp	r3, #0
 8003666:	f000 8097 	beq.w	8003798 <HAL_RCC_OscConfig+0x3c8>
  {
    FlagStatus       pwrclkchanged = RESET;
 800366a:	2300      	movs	r3, #0
 800366c:	75fb      	strb	r3, [r7, #23]
    /* Check the parameters */
    assert_param(IS_RCC_LSE(RCC_OscInitStruct->LSEState));

    /* Update LSE configuration in Backup Domain control register    */
    /* Requires to enable write access to Backup Domain of necessary */
    if(__HAL_RCC_PWR_IS_CLK_DISABLED())
 800366e:	4b83      	ldr	r3, [pc, #524]	; (800387c <HAL_RCC_OscConfig+0x4ac>)
 8003670:	6c1b      	ldr	r3, [r3, #64]	; 0x40
 8003672:	f003 5380 	and.w	r3, r3, #268435456	; 0x10000000
 8003676:	2b00      	cmp	r3, #0
 8003678:	d10f      	bne.n	800369a <HAL_RCC_OscConfig+0x2ca>
    {
      __HAL_RCC_PWR_CLK_ENABLE();
 800367a:	2300      	movs	r3, #0
 800367c:	60bb      	str	r3, [r7, #8]
 800367e:	4b7f      	ldr	r3, [pc, #508]	; (800387c <HAL_RCC_OscConfig+0x4ac>)
 8003680:	6c1b      	ldr	r3, [r3, #64]	; 0x40
 8003682:	4a7e      	ldr	r2, [pc, #504]	; (800387c <HAL_RCC_OscConfig+0x4ac>)
 8003684:	f043 5380 	orr.w	r3, r3, #268435456	; 0x10000000
 8003688:	6413      	str	r3, [r2, #64]	; 0x40
 800368a:	4b7c      	ldr	r3, [pc, #496]	; (800387c <HAL_RCC_OscConfig+0x4ac>)
 800368c:	6c1b      	ldr	r3, [r3, #64]	; 0x40
 800368e:	f003 5380 	and.w	r3, r3, #268435456	; 0x10000000
 8003692:	60bb      	str	r3, [r7, #8]
 8003694:	68bb      	ldr	r3, [r7, #8]
      pwrclkchanged = SET;
 8003696:	2301      	movs	r3, #1
 8003698:	75fb      	strb	r3, [r7, #23]
    }

    if(HAL_IS_BIT_CLR(PWR->CR, PWR_CR_DBP))
 800369a:	4b79      	ldr	r3, [pc, #484]	; (8003880 <HAL_RCC_OscConfig+0x4b0>)
 800369c:	681b      	ldr	r3, [r3, #0]
 800369e:	f403 7380 	and.w	r3, r3, #256	; 0x100
 80036a2:	2b00      	cmp	r3, #0
 80036a4:	d118      	bne.n	80036d8 <HAL_RCC_OscConfig+0x308>
    {
      /* Enable write access to Backup domain */
      SET_BIT(PWR->CR, PWR_CR_DBP);
 80036a6:	4b76      	ldr	r3, [pc, #472]	; (8003880 <HAL_RCC_OscConfig+0x4b0>)
 80036a8:	681b      	ldr	r3, [r3, #0]
 80036aa:	4a75      	ldr	r2, [pc, #468]	; (8003880 <HAL_RCC_OscConfig+0x4b0>)
 80036ac:	f443 7380 	orr.w	r3, r3, #256	; 0x100
 80036b0:	6013      	str	r3, [r2, #0]

      /* Wait for Backup domain Write protection disable */
      tickstart = HAL_GetTick();
 80036b2:	f7fe fac7 	bl	8001c44 <HAL_GetTick>
 80036b6:	6138      	str	r0, [r7, #16]

      while(HAL_IS_BIT_CLR(PWR->CR, PWR_CR_DBP))
 80036b8:	e008      	b.n	80036cc <HAL_RCC_OscConfig+0x2fc>
      {
        if((HAL_GetTick() - tickstart) > RCC_DBP_TIMEOUT_VALUE)
 80036ba:	f7fe fac3 	bl	8001c44 <HAL_GetTick>
 80036be:	4602      	mov	r2, r0
 80036c0:	693b      	ldr	r3, [r7, #16]
 80036c2:	1ad3      	subs	r3, r2, r3
 80036c4:	2b02      	cmp	r3, #2
 80036c6:	d901      	bls.n	80036cc <HAL_RCC_OscConfig+0x2fc>
        {
          return HAL_TIMEOUT;
 80036c8:	2303      	movs	r3, #3
 80036ca:	e118      	b.n	80038fe <HAL_RCC_OscConfig+0x52e>
      while(HAL_IS_BIT_CLR(PWR->CR, PWR_CR_DBP))
 80036cc:	4b6c      	ldr	r3, [pc, #432]	; (8003880 <HAL_RCC_OscConfig+0x4b0>)
 80036ce:	681b      	ldr	r3, [r3, #0]
 80036d0:	f403 7380 	and.w	r3, r3, #256	; 0x100
 80036d4:	2b00      	cmp	r3, #0
 80036d6:	d0f0      	beq.n	80036ba <HAL_RCC_OscConfig+0x2ea>
        }
      }
    }

    /* Set the new LSE configuration -----------------------------------------*/
    __HAL_RCC_LSE_CONFIG(RCC_OscInitStruct->LSEState);
 80036d8:	687b      	ldr	r3, [r7, #4]
 80036da:	689b      	ldr	r3, [r3, #8]
 80036dc:	2b01      	cmp	r3, #1
 80036de:	d106      	bne.n	80036ee <HAL_RCC_OscConfig+0x31e>
 80036e0:	4b66      	ldr	r3, [pc, #408]	; (800387c <HAL_RCC_OscConfig+0x4ac>)
 80036e2:	6f1b      	ldr	r3, [r3, #112]	; 0x70
 80036e4:	4a65      	ldr	r2, [pc, #404]	; (800387c <HAL_RCC_OscConfig+0x4ac>)
 80036e6:	f043 0301 	orr.w	r3, r3, #1
 80036ea:	6713      	str	r3, [r2, #112]	; 0x70
 80036ec:	e01c      	b.n	8003728 <HAL_RCC_OscConfig+0x358>
 80036ee:	687b      	ldr	r3, [r7, #4]
 80036f0:	689b      	ldr	r3, [r3, #8]
 80036f2:	2b05      	cmp	r3, #5
 80036f4:	d10c      	bne.n	8003710 <HAL_RCC_OscConfig+0x340>
 80036f6:	4b61      	ldr	r3, [pc, #388]	; (800387c <HAL_RCC_OscConfig+0x4ac>)
 80036f8:	6f1b      	ldr	r3, [r3, #112]	; 0x70
 80036fa:	4a60      	ldr	r2, [pc, #384]	; (800387c <HAL_RCC_OscConfig+0x4ac>)
 80036fc:	f043 0304 	orr.w	r3, r3, #4
 8003700:	6713      	str	r3, [r2, #112]	; 0x70
 8003702:	4b5e      	ldr	r3, [pc, #376]	; (800387c <HAL_RCC_OscConfig+0x4ac>)
 8003704:	6f1b      	ldr	r3, [r3, #112]	; 0x70
 8003706:	4a5d      	ldr	r2, [pc, #372]	; (800387c <HAL_RCC_OscConfig+0x4ac>)
 8003708:	f043 0301 	orr.w	r3, r3, #1
 800370c:	6713      	str	r3, [r2, #112]	; 0x70
 800370e:	e00b      	b.n	8003728 <HAL_RCC_OscConfig+0x358>
 8003710:	4b5a      	ldr	r3, [pc, #360]	; (800387c <HAL_RCC_OscConfig+0x4ac>)
 8003712:	6f1b      	ldr	r3, [r3, #112]	; 0x70
 8003714:	4a59      	ldr	r2, [pc, #356]	; (800387c <HAL_RCC_OscConfig+0x4ac>)
 8003716:	f023 0301 	bic.w	r3, r3, #1
 800371a:	6713      	str	r3, [r2, #112]	; 0x70
 800371c:	4b57      	ldr	r3, [pc, #348]	; (800387c <HAL_RCC_OscConfig+0x4ac>)
 800371e:	6f1b      	ldr	r3, [r3, #112]	; 0x70
 8003720:	4a56      	ldr	r2, [pc, #344]	; (800387c <HAL_RCC_OscConfig+0x4ac>)
 8003722:	f023 0304 	bic.w	r3, r3, #4
 8003726:	6713      	str	r3, [r2, #112]	; 0x70
    /* Check the LSE State */
    if((RCC_OscInitStruct->LSEState) != RCC_LSE_OFF)
 8003728:	687b      	ldr	r3, [r7, #4]
 800372a:	689b      	ldr	r3, [r3, #8]
 800372c:	2b00      	cmp	r3, #0
 800372e:	d015      	beq.n	800375c <HAL_RCC_OscConfig+0x38c>
    {
      /* Get Start Tick*/
      tickstart = HAL_GetTick();
 8003730:	f7fe fa88 	bl	8001c44 <HAL_GetTick>
 8003734:	6138      	str	r0, [r7, #16]

      /* Wait till LSE is ready */
      while(__HAL_RCC_GET_FLAG(RCC_FLAG_LSERDY) == RESET)
 8003736:	e00a      	b.n	800374e <HAL_RCC_OscConfig+0x37e>
      {
        if((HAL_GetTick() - tickstart ) > RCC_LSE_TIMEOUT_VALUE)
 8003738:	f7fe fa84 	bl	8001c44 <HAL_GetTick>
 800373c:	4602      	mov	r2, r0
 800373e:	693b      	ldr	r3, [r7, #16]
 8003740:	1ad3      	subs	r3, r2, r3
 8003742:	f241 3288 	movw	r2, #5000	; 0x1388
 8003746:	4293      	cmp	r3, r2
 8003748:	d901      	bls.n	800374e <HAL_RCC_OscConfig+0x37e>
        {
          return HAL_TIMEOUT;
 800374a:	2303      	movs	r3, #3
 800374c:	e0d7      	b.n	80038fe <HAL_RCC_OscConfig+0x52e>
      while(__HAL_RCC_GET_FLAG(RCC_FLAG_LSERDY) == RESET)
 800374e:	4b4b      	ldr	r3, [pc, #300]	; (800387c <HAL_RCC_OscConfig+0x4ac>)
 8003750:	6f1b      	ldr	r3, [r3, #112]	; 0x70
 8003752:	f003 0302 	and.w	r3, r3, #2
 8003756:	2b00      	cmp	r3, #0
 8003758:	d0ee      	beq.n	8003738 <HAL_RCC_OscConfig+0x368>
 800375a:	e014      	b.n	8003786 <HAL_RCC_OscConfig+0x3b6>
      }
    }
    else
    {
      /* Get Start Tick*/
      tickstart = HAL_GetTick();
 800375c:	f7fe fa72 	bl	8001c44 <HAL_GetTick>
 8003760:	6138      	str	r0, [r7, #16]

      /* Wait till LSE is ready */
      while(__HAL_RCC_GET_FLAG(RCC_FLAG_LSERDY) != RESET)
 8003762:	e00a      	b.n	800377a <HAL_RCC_OscConfig+0x3aa>
      {
        if((HAL_GetTick() - tickstart ) > RCC_LSE_TIMEOUT_VALUE)
 8003764:	f7fe fa6e 	bl	8001c44 <HAL_GetTick>
 8003768:	4602      	mov	r2, r0
 800376a:	693b      	ldr	r3, [r7, #16]
 800376c:	1ad3      	subs	r3, r2, r3
 800376e:	f241 3288 	movw	r2, #5000	; 0x1388
 8003772:	4293      	cmp	r3, r2
 8003774:	d901      	bls.n	800377a <HAL_RCC_OscConfig+0x3aa>
        {
          return HAL_TIMEOUT;
 8003776:	2303      	movs	r3, #3
 8003778:	e0c1      	b.n	80038fe <HAL_RCC_OscConfig+0x52e>
      while(__HAL_RCC_GET_FLAG(RCC_FLAG_LSERDY) != RESET)
 800377a:	4b40      	ldr	r3, [pc, #256]	; (800387c <HAL_RCC_OscConfig+0x4ac>)
 800377c:	6f1b      	ldr	r3, [r3, #112]	; 0x70
 800377e:	f003 0302 	and.w	r3, r3, #2
 8003782:	2b00      	cmp	r3, #0
 8003784:	d1ee      	bne.n	8003764 <HAL_RCC_OscConfig+0x394>
        }
      }
    }

    /* Restore clock configuration if changed */
    if(pwrclkchanged == SET)
 8003786:	7dfb      	ldrb	r3, [r7, #23]
 8003788:	2b01      	cmp	r3, #1
 800378a:	d105      	bne.n	8003798 <HAL_RCC_OscConfig+0x3c8>
    {
      __HAL_RCC_PWR_CLK_DISABLE();
 800378c:	4b3b      	ldr	r3, [pc, #236]	; (800387c <HAL_RCC_OscConfig+0x4ac>)
 800378e:	6c1b      	ldr	r3, [r3, #64]	; 0x40
 8003790:	4a3a      	ldr	r2, [pc, #232]	; (800387c <HAL_RCC_OscConfig+0x4ac>)
 8003792:	f023 5380 	bic.w	r3, r3, #268435456	; 0x10000000
 8003796:	6413      	str	r3, [r2, #64]	; 0x40
    }
  }
  /*-------------------------------- PLL Configuration -----------------------*/
  /* Check the parameters */
  assert_param(IS_RCC_PLL(RCC_OscInitStruct->PLL.PLLState));
  if ((RCC_OscInitStruct->PLL.PLLState) != RCC_PLL_NONE)
 8003798:	687b      	ldr	r3, [r7, #4]
 800379a:	699b      	ldr	r3, [r3, #24]
 800379c:	2b00      	cmp	r3, #0
 800379e:	f000 80ad 	beq.w	80038fc <HAL_RCC_OscConfig+0x52c>
  {
    /* Check if the PLL is used as system clock or not */
    if(__HAL_RCC_GET_SYSCLK_SOURCE() != RCC_CFGR_SWS_PLL)
 80037a2:	4b36      	ldr	r3, [pc, #216]	; (800387c <HAL_RCC_OscConfig+0x4ac>)
 80037a4:	689b      	ldr	r3, [r3, #8]
 80037a6:	f003 030c 	and.w	r3, r3, #12
 80037aa:	2b08      	cmp	r3, #8
 80037ac:	d060      	beq.n	8003870 <HAL_RCC_OscConfig+0x4a0>
    {
      if((RCC_OscInitStruct->PLL.PLLState) == RCC_PLL_ON)
 80037ae:	687b      	ldr	r3, [r7, #4]
 80037b0:	699b      	ldr	r3, [r3, #24]
 80037b2:	2b02      	cmp	r3, #2
 80037b4:	d145      	bne.n	8003842 <HAL_RCC_OscConfig+0x472>
        assert_param(IS_RCC_PLLP_VALUE(RCC_OscInitStruct->PLL.PLLP));
        assert_param(IS_RCC_PLLQ_VALUE(RCC_OscInitStruct->PLL.PLLQ));
        assert_param(IS_RCC_PLLR_VALUE(RCC_OscInitStruct->PLL.PLLR));

        /* Disable the main PLL. */
        __HAL_RCC_PLL_DISABLE();
 80037b6:	4b33      	ldr	r3, [pc, #204]	; (8003884 <HAL_RCC_OscConfig+0x4b4>)
 80037b8:	2200      	movs	r2, #0
 80037ba:	601a      	str	r2, [r3, #0]

        /* Get Start Tick*/
        tickstart = HAL_GetTick();
 80037bc:	f7fe fa42 	bl	8001c44 <HAL_GetTick>
 80037c0:	6138      	str	r0, [r7, #16]

        /* Wait till PLL is ready */
        while(__HAL_RCC_GET_FLAG(RCC_FLAG_PLLRDY) != RESET)
 80037c2:	e008      	b.n	80037d6 <HAL_RCC_OscConfig+0x406>
        {
          if((HAL_GetTick() - tickstart ) > PLL_TIMEOUT_VALUE)
 80037c4:	f7fe fa3e 	bl	8001c44 <HAL_GetTick>
 80037c8:	4602      	mov	r2, r0
 80037ca:	693b      	ldr	r3, [r7, #16]
 80037cc:	1ad3      	subs	r3, r2, r3
 80037ce:	2b02      	cmp	r3, #2
 80037d0:	d901      	bls.n	80037d6 <HAL_RCC_OscConfig+0x406>
          {
            return HAL_TIMEOUT;
 80037d2:	2303      	movs	r3, #3
 80037d4:	e093      	b.n	80038fe <HAL_RCC_OscConfig+0x52e>
        while(__HAL_RCC_GET_FLAG(RCC_FLAG_PLLRDY) != RESET)
 80037d6:	4b29      	ldr	r3, [pc, #164]	; (800387c <HAL_RCC_OscConfig+0x4ac>)
 80037d8:	681b      	ldr	r3, [r3, #0]
 80037da:	f003 7300 	and.w	r3, r3, #33554432	; 0x2000000
 80037de:	2b00      	cmp	r3, #0
 80037e0:	d1f0      	bne.n	80037c4 <HAL_RCC_OscConfig+0x3f4>
          }
        }

        /* Configure the main PLL clock source, multiplication and division factors. */
        WRITE_REG(RCC->PLLCFGR, (RCC_OscInitStruct->PLL.PLLSource                                            | \
 80037e2:	687b      	ldr	r3, [r7, #4]
 80037e4:	69da      	ldr	r2, [r3, #28]
 80037e6:	687b      	ldr	r3, [r7, #4]
 80037e8:	6a1b      	ldr	r3, [r3, #32]
 80037ea:	431a      	orrs	r2, r3
 80037ec:	687b      	ldr	r3, [r7, #4]
 80037ee:	6a5b      	ldr	r3, [r3, #36]	; 0x24
 80037f0:	019b      	lsls	r3, r3, #6
 80037f2:	431a      	orrs	r2, r3
 80037f4:	687b      	ldr	r3, [r7, #4]
 80037f6:	6a9b      	ldr	r3, [r3, #40]	; 0x28
 80037f8:	085b      	lsrs	r3, r3, #1
 80037fa:	3b01      	subs	r3, #1
 80037fc:	041b      	lsls	r3, r3, #16
 80037fe:	431a      	orrs	r2, r3
 8003800:	687b      	ldr	r3, [r7, #4]
 8003802:	6adb      	ldr	r3, [r3, #44]	; 0x2c
 8003804:	061b      	lsls	r3, r3, #24
 8003806:	431a      	orrs	r2, r3
 8003808:	687b      	ldr	r3, [r7, #4]
 800380a:	6b1b      	ldr	r3, [r3, #48]	; 0x30
 800380c:	071b      	lsls	r3, r3, #28
 800380e:	491b      	ldr	r1, [pc, #108]	; (800387c <HAL_RCC_OscConfig+0x4ac>)
 8003810:	4313      	orrs	r3, r2
 8003812:	604b      	str	r3, [r1, #4]
                                 (RCC_OscInitStruct->PLL.PLLN << RCC_PLLCFGR_PLLN_Pos)                       | \
                                 (((RCC_OscInitStruct->PLL.PLLP >> 1U) - 1U) << RCC_PLLCFGR_PLLP_Pos)        | \
                                 (RCC_OscInitStruct->PLL.PLLQ << RCC_PLLCFGR_PLLQ_Pos)                       | \
                                 (RCC_OscInitStruct->PLL.PLLR << RCC_PLLCFGR_PLLR_Pos)));
        /* Enable the main PLL. */
        __HAL_RCC_PLL_ENABLE();
 8003814:	4b1b      	ldr	r3, [pc, #108]	; (8003884 <HAL_RCC_OscConfig+0x4b4>)
 8003816:	2201      	movs	r2, #1
 8003818:	601a      	str	r2, [r3, #0]

        /* Get Start Tick*/
        tickstart = HAL_GetTick();
 800381a:	f7fe fa13 	bl	8001c44 <HAL_GetTick>
 800381e:	6138      	str	r0, [r7, #16]

        /* Wait till PLL is ready */
        while(__HAL_RCC_GET_FLAG(RCC_FLAG_PLLRDY) == RESET)
 8003820:	e008      	b.n	8003834 <HAL_RCC_OscConfig+0x464>
        {
          if((HAL_GetTick() - tickstart ) > PLL_TIMEOUT_VALUE)
 8003822:	f7fe fa0f 	bl	8001c44 <HAL_GetTick>
 8003826:	4602      	mov	r2, r0
 8003828:	693b      	ldr	r3, [r7, #16]
 800382a:	1ad3      	subs	r3, r2, r3
 800382c:	2b02      	cmp	r3, #2
 800382e:	d901      	bls.n	8003834 <HAL_RCC_OscConfig+0x464>
          {
            return HAL_TIMEOUT;
 8003830:	2303      	movs	r3, #3
 8003832:	e064      	b.n	80038fe <HAL_RCC_OscConfig+0x52e>
        while(__HAL_RCC_GET_FLAG(RCC_FLAG_PLLRDY) == RESET)
 8003834:	4b11      	ldr	r3, [pc, #68]	; (800387c <HAL_RCC_OscConfig+0x4ac>)
 8003836:	681b      	ldr	r3, [r3, #0]
 8003838:	f003 7300 	and.w	r3, r3, #33554432	; 0x2000000
 800383c:	2b00      	cmp	r3, #0
 800383e:	d0f0      	beq.n	8003822 <HAL_RCC_OscConfig+0x452>
 8003840:	e05c      	b.n	80038fc <HAL_RCC_OscConfig+0x52c>
        }
      }
      else
      {
        /* Disable the main PLL. */
        __HAL_RCC_PLL_DISABLE();
 8003842:	4b10      	ldr	r3, [pc, #64]	; (8003884 <HAL_RCC_OscConfig+0x4b4>)
 8003844:	2200      	movs	r2, #0
 8003846:	601a      	str	r2, [r3, #0]

        /* Get Start Tick*/
        tickstart = HAL_GetTick();
 8003848:	f7fe f9fc 	bl	8001c44 <HAL_GetTick>
 800384c:	6138      	str	r0, [r7, #16]

        /* Wait till PLL is ready */
        while(__HAL_RCC_GET_FLAG(RCC_FLAG_PLLRDY) != RESET)
 800384e:	e008      	b.n	8003862 <HAL_RCC_OscConfig+0x492>
        {
          if((HAL_GetTick() - tickstart ) > PLL_TIMEOUT_VALUE)
 8003850:	f7fe f9f8 	bl	8001c44 <HAL_GetTick>
 8003854:	4602      	mov	r2, r0
 8003856:	693b      	ldr	r3, [r7, #16]
 8003858:	1ad3      	subs	r3, r2, r3
 800385a:	2b02      	cmp	r3, #2
 800385c:	d901      	bls.n	8003862 <HAL_RCC_OscConfig+0x492>
          {
            return HAL_TIMEOUT;
 800385e:	2303      	movs	r3, #3
 8003860:	e04d      	b.n	80038fe <HAL_RCC_OscConfig+0x52e>
        while(__HAL_RCC_GET_FLAG(RCC_FLAG_PLLRDY) != RESET)
 8003862:	4b06      	ldr	r3, [pc, #24]	; (800387c <HAL_RCC_OscConfig+0x4ac>)
 8003864:	681b      	ldr	r3, [r3, #0]
 8003866:	f003 7300 	and.w	r3, r3, #33554432	; 0x2000000
 800386a:	2b00      	cmp	r3, #0
 800386c:	d1f0      	bne.n	8003850 <HAL_RCC_OscConfig+0x480>
 800386e:	e045      	b.n	80038fc <HAL_RCC_OscConfig+0x52c>
      }
    }
    else
    {
      /* Check if there is a request to disable the PLL used as System clock source */
      if((RCC_OscInitStruct->PLL.PLLState) == RCC_PLL_OFF)
 8003870:	687b      	ldr	r3, [r7, #4]
 8003872:	699b      	ldr	r3, [r3, #24]
 8003874:	2b01      	cmp	r3, #1
 8003876:	d107      	bne.n	8003888 <HAL_RCC_OscConfig+0x4b8>
      {
        return HAL_ERROR;
 8003878:	2301      	movs	r3, #1
 800387a:	e040      	b.n	80038fe <HAL_RCC_OscConfig+0x52e>
 800387c:	40023800 	.word	0x40023800
 8003880:	40007000 	.word	0x40007000
 8003884:	42470060 	.word	0x42470060
      }
      else
      {
        /* Do not return HAL_ERROR if request repeats the current configuration */
        pll_config = RCC->PLLCFGR;
 8003888:	4b1f      	ldr	r3, [pc, #124]	; (8003908 <HAL_RCC_OscConfig+0x538>)
 800388a:	685b      	ldr	r3, [r3, #4]
 800388c:	60fb      	str	r3, [r7, #12]
#if defined (RCC_PLLCFGR_PLLR)
        if (((RCC_OscInitStruct->PLL.PLLState) == RCC_PLL_OFF) ||
 800388e:	687b      	ldr	r3, [r7, #4]
 8003890:	699b      	ldr	r3, [r3, #24]
 8003892:	2b01      	cmp	r3, #1
 8003894:	d030      	beq.n	80038f8 <HAL_RCC_OscConfig+0x528>
            (READ_BIT(pll_config, RCC_PLLCFGR_PLLSRC) != RCC_OscInitStruct->PLL.PLLSource) ||
 8003896:	68fb      	ldr	r3, [r7, #12]
 8003898:	f403 0280 	and.w	r2, r3, #4194304	; 0x400000
 800389c:	687b      	ldr	r3, [r7, #4]
 800389e:	69db      	ldr	r3, [r3, #28]
        if (((RCC_OscInitStruct->PLL.PLLState) == RCC_PLL_OFF) ||
 80038a0:	429a      	cmp	r2, r3
 80038a2:	d129      	bne.n	80038f8 <HAL_RCC_OscConfig+0x528>
            (READ_BIT(pll_config, RCC_PLLCFGR_PLLM) != (RCC_OscInitStruct->PLL.PLLM) << RCC_PLLCFGR_PLLM_Pos) ||
 80038a4:	68fb      	ldr	r3, [r7, #12]
 80038a6:	f003 023f 	and.w	r2, r3, #63	; 0x3f
 80038aa:	687b      	ldr	r3, [r7, #4]
 80038ac:	6a1b      	ldr	r3, [r3, #32]
            (READ_BIT(pll_config, RCC_PLLCFGR_PLLSRC) != RCC_OscInitStruct->PLL.PLLSource) ||
 80038ae:	429a      	cmp	r2, r3
 80038b0:	d122      	bne.n	80038f8 <HAL_RCC_OscConfig+0x528>
            (READ_BIT(pll_config, RCC_PLLCFGR_PLLN) != (RCC_OscInitStruct->PLL.PLLN) << RCC_PLLCFGR_PLLN_Pos) ||
 80038b2:	68fa      	ldr	r2, [r7, #12]
 80038b4:	f647 73c0 	movw	r3, #32704	; 0x7fc0
 80038b8:	4013      	ands	r3, r2
 80038ba:	687a      	ldr	r2, [r7, #4]
 80038bc:	6a52      	ldr	r2, [r2, #36]	; 0x24
 80038be:	0192      	lsls	r2, r2, #6
            (READ_BIT(pll_config, RCC_PLLCFGR_PLLM) != (RCC_OscInitStruct->PLL.PLLM) << RCC_PLLCFGR_PLLM_Pos) ||
 80038c0:	4293      	cmp	r3, r2
 80038c2:	d119      	bne.n	80038f8 <HAL_RCC_OscConfig+0x528>
            (READ_BIT(pll_config, RCC_PLLCFGR_PLLP) != (((RCC_OscInitStruct->PLL.PLLP >> 1U) - 1U)) << RCC_PLLCFGR_PLLP_Pos) ||
 80038c4:	68fb      	ldr	r3, [r7, #12]
 80038c6:	f403 3240 	and.w	r2, r3, #196608	; 0x30000
 80038ca:	687b      	ldr	r3, [r7, #4]
 80038cc:	6a9b      	ldr	r3, [r3, #40]	; 0x28
 80038ce:	085b      	lsrs	r3, r3, #1
 80038d0:	3b01      	subs	r3, #1
 80038d2:	041b      	lsls	r3, r3, #16
            (READ_BIT(pll_config, RCC_PLLCFGR_PLLN) != (RCC_OscInitStruct->PLL.PLLN) << RCC_PLLCFGR_PLLN_Pos) ||
 80038d4:	429a      	cmp	r2, r3
 80038d6:	d10f      	bne.n	80038f8 <HAL_RCC_OscConfig+0x528>
            (READ_BIT(pll_config, RCC_PLLCFGR_PLLQ) != (RCC_OscInitStruct->PLL.PLLQ << RCC_PLLCFGR_PLLQ_Pos)) ||
 80038d8:	68fb      	ldr	r3, [r7, #12]
 80038da:	f003 6270 	and.w	r2, r3, #251658240	; 0xf000000
 80038de:	687b      	ldr	r3, [r7, #4]
 80038e0:	6adb      	ldr	r3, [r3, #44]	; 0x2c
 80038e2:	061b      	lsls	r3, r3, #24
            (READ_BIT(pll_config, RCC_PLLCFGR_PLLP) != (((RCC_OscInitStruct->PLL.PLLP >> 1U) - 1U)) << RCC_PLLCFGR_PLLP_Pos) ||
 80038e4:	429a      	cmp	r2, r3
 80038e6:	d107      	bne.n	80038f8 <HAL_RCC_OscConfig+0x528>
            (READ_BIT(pll_config, RCC_PLLCFGR_PLLR) != (RCC_OscInitStruct->PLL.PLLR << RCC_PLLCFGR_PLLR_Pos)))
 80038e8:	68fb      	ldr	r3, [r7, #12]
 80038ea:	f003 42e0 	and.w	r2, r3, #1879048192	; 0x70000000
 80038ee:	687b      	ldr	r3, [r7, #4]
 80038f0:	6b1b      	ldr	r3, [r3, #48]	; 0x30
 80038f2:	071b      	lsls	r3, r3, #28
            (READ_BIT(pll_config, RCC_PLLCFGR_PLLQ) != (RCC_OscInitStruct->PLL.PLLQ << RCC_PLLCFGR_PLLQ_Pos)) ||
 80038f4:	429a      	cmp	r2, r3
 80038f6:	d001      	beq.n	80038fc <HAL_RCC_OscConfig+0x52c>
            (READ_BIT(pll_config, RCC_PLLCFGR_PLLN) != (RCC_OscInitStruct->PLL.PLLN) << RCC_PLLCFGR_PLLN_Pos) ||
            (READ_BIT(pll_config, RCC_PLLCFGR_PLLP) != (((RCC_OscInitStruct->PLL.PLLP >> 1U) - 1U)) << RCC_PLLCFGR_PLLP_Pos) ||
            (READ_BIT(pll_config, RCC_PLLCFGR_PLLQ) != (RCC_OscInitStruct->PLL.PLLQ << RCC_PLLCFGR_PLLQ_Pos)))
#endif
        {
          return HAL_ERROR;
 80038f8:	2301      	movs	r3, #1
 80038fa:	e000      	b.n	80038fe <HAL_RCC_OscConfig+0x52e>
        }
      }
    }
  }
  return HAL_OK;
 80038fc:	2300      	movs	r3, #0
}
 80038fe:	4618      	mov	r0, r3
 8003900:	3718      	adds	r7, #24
 8003902:	46bd      	mov	sp, r7
 8003904:	bd80      	pop	{r7, pc}
 8003906:	bf00      	nop
 8003908:	40023800 	.word	0x40023800

0800390c <HAL_TIM_Base_Init>:
  *         Ex: call @ref HAL_TIM_Base_DeInit() before HAL_TIM_Base_Init()
  * @param  htim TIM Base handle
  * @retval HAL status
  */
HAL_StatusTypeDef HAL_TIM_Base_Init(TIM_HandleTypeDef *htim)
{
 800390c:	b580      	push	{r7, lr}
 800390e:	b082      	sub	sp, #8
 8003910:	af00      	add	r7, sp, #0
 8003912:	6078      	str	r0, [r7, #4]
  /* Check the TIM handle allocation */
  if (htim == NULL)
 8003914:	687b      	ldr	r3, [r7, #4]
 8003916:	2b00      	cmp	r3, #0
 8003918:	d101      	bne.n	800391e <HAL_TIM_Base_Init+0x12>
  {
    return HAL_ERROR;
 800391a:	2301      	movs	r3, #1
 800391c:	e041      	b.n	80039a2 <HAL_TIM_Base_Init+0x96>
  assert_param(IS_TIM_INSTANCE(htim->Instance));
  assert_param(IS_TIM_COUNTER_MODE(htim->Init.CounterMode));
  assert_param(IS_TIM_CLOCKDIVISION_DIV(htim->Init.ClockDivision));
  assert_param(IS_TIM_AUTORELOAD_PRELOAD(htim->Init.AutoReloadPreload));

  if (htim->State == HAL_TIM_STATE_RESET)
 800391e:	687b      	ldr	r3, [r7, #4]
 8003920:	f893 303d 	ldrb.w	r3, [r3, #61]	; 0x3d
 8003924:	b2db      	uxtb	r3, r3
 8003926:	2b00      	cmp	r3, #0
 8003928:	d106      	bne.n	8003938 <HAL_TIM_Base_Init+0x2c>
  {
    /* Allocate lock resource and initialize it */
    htim->Lock = HAL_UNLOCKED;
 800392a:	687b      	ldr	r3, [r7, #4]
 800392c:	2200      	movs	r2, #0
 800392e:	f883 203c 	strb.w	r2, [r3, #60]	; 0x3c
    }
    /* Init the low level hardware : GPIO, CLOCK, NVIC */
    htim->Base_MspInitCallback(htim);
#else
    /* Init the low level hardware : GPIO, CLOCK, NVIC */
    HAL_TIM_Base_MspInit(htim);
 8003932:	6878      	ldr	r0, [r7, #4]
 8003934:	f7fd ff6c 	bl	8001810 <HAL_TIM_Base_MspInit>
#endif /* USE_HAL_TIM_REGISTER_CALLBACKS */
  }

  /* Set the TIM state */
  htim->State = HAL_TIM_STATE_BUSY;
 8003938:	687b      	ldr	r3, [r7, #4]
 800393a:	2202      	movs	r2, #2
 800393c:	f883 203d 	strb.w	r2, [r3, #61]	; 0x3d

  /* Set the Time Base configuration */
  TIM_Base_SetConfig(htim->Instance, &htim->Init);
 8003940:	687b      	ldr	r3, [r7, #4]
 8003942:	681a      	ldr	r2, [r3, #0]
 8003944:	687b      	ldr	r3, [r7, #4]
 8003946:	3304      	adds	r3, #4
 8003948:	4619      	mov	r1, r3
 800394a:	4610      	mov	r0, r2
 800394c:	f000 f9fe 	bl	8003d4c <TIM_Base_SetConfig>

  /* Initialize the DMA burst operation state */
  htim->DMABurstState = HAL_DMA_BURST_STATE_READY;
 8003950:	687b      	ldr	r3, [r7, #4]
 8003952:	2201      	movs	r2, #1
 8003954:	f883 2046 	strb.w	r2, [r3, #70]	; 0x46

  /* Initialize the TIM channels state */
  TIM_CHANNEL_STATE_SET_ALL(htim, HAL_TIM_CHANNEL_STATE_READY);
 8003958:	687b      	ldr	r3, [r7, #4]
 800395a:	2201      	movs	r2, #1
 800395c:	f883 203e 	strb.w	r2, [r3, #62]	; 0x3e
 8003960:	687b      	ldr	r3, [r7, #4]
 8003962:	2201      	movs	r2, #1
 8003964:	f883 203f 	strb.w	r2, [r3, #63]	; 0x3f
 8003968:	687b      	ldr	r3, [r7, #4]
 800396a:	2201      	movs	r2, #1
 800396c:	f883 2040 	strb.w	r2, [r3, #64]	; 0x40
 8003970:	687b      	ldr	r3, [r7, #4]
 8003972:	2201      	movs	r2, #1
 8003974:	f883 2041 	strb.w	r2, [r3, #65]	; 0x41
  TIM_CHANNEL_N_STATE_SET_ALL(htim, HAL_TIM_CHANNEL_STATE_READY);
 8003978:	687b      	ldr	r3, [r7, #4]
 800397a:	2201      	movs	r2, #1
 800397c:	f883 2042 	strb.w	r2, [r3, #66]	; 0x42
 8003980:	687b      	ldr	r3, [r7, #4]
 8003982:	2201      	movs	r2, #1
 8003984:	f883 2043 	strb.w	r2, [r3, #67]	; 0x43
 8003988:	687b      	ldr	r3, [r7, #4]
 800398a:	2201      	movs	r2, #1
 800398c:	f883 2044 	strb.w	r2, [r3, #68]	; 0x44
 8003990:	687b      	ldr	r3, [r7, #4]
 8003992:	2201      	movs	r2, #1
 8003994:	f883 2045 	strb.w	r2, [r3, #69]	; 0x45

  /* Initialize the TIM state*/
  htim->State = HAL_TIM_STATE_READY;
 8003998:	687b      	ldr	r3, [r7, #4]
 800399a:	2201      	movs	r2, #1
 800399c:	f883 203d 	strb.w	r2, [r3, #61]	; 0x3d

  return HAL_OK;
 80039a0:	2300      	movs	r3, #0
}
 80039a2:	4618      	mov	r0, r3
 80039a4:	3708      	adds	r7, #8
 80039a6:	46bd      	mov	sp, r7
 80039a8:	bd80      	pop	{r7, pc}
	...

080039ac <HAL_TIM_Base_Start_IT>:
  * @brief  Starts the TIM Base generation in interrupt mode.
  * @param  htim TIM Base handle
  * @retval HAL status
  */
HAL_StatusTypeDef HAL_TIM_Base_Start_IT(TIM_HandleTypeDef *htim)
{
 80039ac:	b480      	push	{r7}
 80039ae:	b085      	sub	sp, #20
 80039b0:	af00      	add	r7, sp, #0
 80039b2:	6078      	str	r0, [r7, #4]

  /* Check the parameters */
  assert_param(IS_TIM_INSTANCE(htim->Instance));

  /* Check the TIM state */
  if (htim->State != HAL_TIM_STATE_READY)
 80039b4:	687b      	ldr	r3, [r7, #4]
 80039b6:	f893 303d 	ldrb.w	r3, [r3, #61]	; 0x3d
 80039ba:	b2db      	uxtb	r3, r3
 80039bc:	2b01      	cmp	r3, #1
 80039be:	d001      	beq.n	80039c4 <HAL_TIM_Base_Start_IT+0x18>
  {
    return HAL_ERROR;
 80039c0:	2301      	movs	r3, #1
 80039c2:	e04e      	b.n	8003a62 <HAL_TIM_Base_Start_IT+0xb6>
  }

  /* Set the TIM state */
  htim->State = HAL_TIM_STATE_BUSY;
 80039c4:	687b      	ldr	r3, [r7, #4]
 80039c6:	2202      	movs	r2, #2
 80039c8:	f883 203d 	strb.w	r2, [r3, #61]	; 0x3d

  /* Enable the TIM Update interrupt */
  __HAL_TIM_ENABLE_IT(htim, TIM_IT_UPDATE);
 80039cc:	687b      	ldr	r3, [r7, #4]
 80039ce:	681b      	ldr	r3, [r3, #0]
 80039d0:	68da      	ldr	r2, [r3, #12]
 80039d2:	687b      	ldr	r3, [r7, #4]
 80039d4:	681b      	ldr	r3, [r3, #0]
 80039d6:	f042 0201 	orr.w	r2, r2, #1
 80039da:	60da      	str	r2, [r3, #12]

  /* Enable the Peripheral, except in trigger mode where enable is automatically done with trigger */
  if (IS_TIM_SLAVE_INSTANCE(htim->Instance))
 80039dc:	687b      	ldr	r3, [r7, #4]
 80039de:	681b      	ldr	r3, [r3, #0]
 80039e0:	4a23      	ldr	r2, [pc, #140]	; (8003a70 <HAL_TIM_Base_Start_IT+0xc4>)
 80039e2:	4293      	cmp	r3, r2
 80039e4:	d022      	beq.n	8003a2c <HAL_TIM_Base_Start_IT+0x80>
 80039e6:	687b      	ldr	r3, [r7, #4]
 80039e8:	681b      	ldr	r3, [r3, #0]
 80039ea:	f1b3 4f80 	cmp.w	r3, #1073741824	; 0x40000000
 80039ee:	d01d      	beq.n	8003a2c <HAL_TIM_Base_Start_IT+0x80>
 80039f0:	687b      	ldr	r3, [r7, #4]
 80039f2:	681b      	ldr	r3, [r3, #0]
 80039f4:	4a1f      	ldr	r2, [pc, #124]	; (8003a74 <HAL_TIM_Base_Start_IT+0xc8>)
 80039f6:	4293      	cmp	r3, r2
 80039f8:	d018      	beq.n	8003a2c <HAL_TIM_Base_Start_IT+0x80>
 80039fa:	687b      	ldr	r3, [r7, #4]
 80039fc:	681b      	ldr	r3, [r3, #0]
 80039fe:	4a1e      	ldr	r2, [pc, #120]	; (8003a78 <HAL_TIM_Base_Start_IT+0xcc>)
 8003a00:	4293      	cmp	r3, r2
 8003a02:	d013      	beq.n	8003a2c <HAL_TIM_Base_Start_IT+0x80>
 8003a04:	687b      	ldr	r3, [r7, #4]
 8003a06:	681b      	ldr	r3, [r3, #0]
 8003a08:	4a1c      	ldr	r2, [pc, #112]	; (8003a7c <HAL_TIM_Base_Start_IT+0xd0>)
 8003a0a:	4293      	cmp	r3, r2
 8003a0c:	d00e      	beq.n	8003a2c <HAL_TIM_Base_Start_IT+0x80>
 8003a0e:	687b      	ldr	r3, [r7, #4]
 8003a10:	681b      	ldr	r3, [r3, #0]
 8003a12:	4a1b      	ldr	r2, [pc, #108]	; (8003a80 <HAL_TIM_Base_Start_IT+0xd4>)
 8003a14:	4293      	cmp	r3, r2
 8003a16:	d009      	beq.n	8003a2c <HAL_TIM_Base_Start_IT+0x80>
 8003a18:	687b      	ldr	r3, [r7, #4]
 8003a1a:	681b      	ldr	r3, [r3, #0]
 8003a1c:	4a19      	ldr	r2, [pc, #100]	; (8003a84 <HAL_TIM_Base_Start_IT+0xd8>)
 8003a1e:	4293      	cmp	r3, r2
 8003a20:	d004      	beq.n	8003a2c <HAL_TIM_Base_Start_IT+0x80>
 8003a22:	687b      	ldr	r3, [r7, #4]
 8003a24:	681b      	ldr	r3, [r3, #0]
 8003a26:	4a18      	ldr	r2, [pc, #96]	; (8003a88 <HAL_TIM_Base_Start_IT+0xdc>)
 8003a28:	4293      	cmp	r3, r2
 8003a2a:	d111      	bne.n	8003a50 <HAL_TIM_Base_Start_IT+0xa4>
  {
    tmpsmcr = htim->Instance->SMCR & TIM_SMCR_SMS;
 8003a2c:	687b      	ldr	r3, [r7, #4]
 8003a2e:	681b      	ldr	r3, [r3, #0]
 8003a30:	689b      	ldr	r3, [r3, #8]
 8003a32:	f003 0307 	and.w	r3, r3, #7
 8003a36:	60fb      	str	r3, [r7, #12]
    if (!IS_TIM_SLAVEMODE_TRIGGER_ENABLED(tmpsmcr))
 8003a38:	68fb      	ldr	r3, [r7, #12]
 8003a3a:	2b06      	cmp	r3, #6
 8003a3c:	d010      	beq.n	8003a60 <HAL_TIM_Base_Start_IT+0xb4>
    {
      __HAL_TIM_ENABLE(htim);
 8003a3e:	687b      	ldr	r3, [r7, #4]
 8003a40:	681b      	ldr	r3, [r3, #0]
 8003a42:	681a      	ldr	r2, [r3, #0]
 8003a44:	687b      	ldr	r3, [r7, #4]
 8003a46:	681b      	ldr	r3, [r3, #0]
 8003a48:	f042 0201 	orr.w	r2, r2, #1
 8003a4c:	601a      	str	r2, [r3, #0]
    if (!IS_TIM_SLAVEMODE_TRIGGER_ENABLED(tmpsmcr))
 8003a4e:	e007      	b.n	8003a60 <HAL_TIM_Base_Start_IT+0xb4>
    }
  }
  else
  {
    __HAL_TIM_ENABLE(htim);
 8003a50:	687b      	ldr	r3, [r7, #4]
 8003a52:	681b      	ldr	r3, [r3, #0]
 8003a54:	681a      	ldr	r2, [r3, #0]
 8003a56:	687b      	ldr	r3, [r7, #4]
 8003a58:	681b      	ldr	r3, [r3, #0]
 8003a5a:	f042 0201 	orr.w	r2, r2, #1
 8003a5e:	601a      	str	r2, [r3, #0]
  }

  /* Return function status */
  return HAL_OK;
 8003a60:	2300      	movs	r3, #0
}
 8003a62:	4618      	mov	r0, r3
 8003a64:	3714      	adds	r7, #20
 8003a66:	46bd      	mov	sp, r7
 8003a68:	f85d 7b04 	ldr.w	r7, [sp], #4
 8003a6c:	4770      	bx	lr
 8003a6e:	bf00      	nop
 8003a70:	40010000 	.word	0x40010000
 8003a74:	40000400 	.word	0x40000400
 8003a78:	40000800 	.word	0x40000800
 8003a7c:	40000c00 	.word	0x40000c00
 8003a80:	40010400 	.word	0x40010400
 8003a84:	40014000 	.word	0x40014000
 8003a88:	40001800 	.word	0x40001800

08003a8c <HAL_TIM_Base_Stop_IT>:
  * @brief  Stops the TIM Base generation in interrupt mode.
  * @param  htim TIM Base handle
  * @retval HAL status
  */
HAL_StatusTypeDef HAL_TIM_Base_Stop_IT(TIM_HandleTypeDef *htim)
{
 8003a8c:	b480      	push	{r7}
 8003a8e:	b083      	sub	sp, #12
 8003a90:	af00      	add	r7, sp, #0
 8003a92:	6078      	str	r0, [r7, #4]
  /* Check the parameters */
  assert_param(IS_TIM_INSTANCE(htim->Instance));

  /* Disable the TIM Update interrupt */
  __HAL_TIM_DISABLE_IT(htim, TIM_IT_UPDATE);
 8003a94:	687b      	ldr	r3, [r7, #4]
 8003a96:	681b      	ldr	r3, [r3, #0]
 8003a98:	68da      	ldr	r2, [r3, #12]
 8003a9a:	687b      	ldr	r3, [r7, #4]
 8003a9c:	681b      	ldr	r3, [r3, #0]
 8003a9e:	f022 0201 	bic.w	r2, r2, #1
 8003aa2:	60da      	str	r2, [r3, #12]

  /* Disable the Peripheral */
  __HAL_TIM_DISABLE(htim);
 8003aa4:	687b      	ldr	r3, [r7, #4]
 8003aa6:	681b      	ldr	r3, [r3, #0]
 8003aa8:	6a1a      	ldr	r2, [r3, #32]
 8003aaa:	f241 1311 	movw	r3, #4369	; 0x1111
 8003aae:	4013      	ands	r3, r2
 8003ab0:	2b00      	cmp	r3, #0
 8003ab2:	d10f      	bne.n	8003ad4 <HAL_TIM_Base_Stop_IT+0x48>
 8003ab4:	687b      	ldr	r3, [r7, #4]
 8003ab6:	681b      	ldr	r3, [r3, #0]
 8003ab8:	6a1a      	ldr	r2, [r3, #32]
 8003aba:	f240 4344 	movw	r3, #1092	; 0x444
 8003abe:	4013      	ands	r3, r2
 8003ac0:	2b00      	cmp	r3, #0
 8003ac2:	d107      	bne.n	8003ad4 <HAL_TIM_Base_Stop_IT+0x48>
 8003ac4:	687b      	ldr	r3, [r7, #4]
 8003ac6:	681b      	ldr	r3, [r3, #0]
 8003ac8:	681a      	ldr	r2, [r3, #0]
 8003aca:	687b      	ldr	r3, [r7, #4]
 8003acc:	681b      	ldr	r3, [r3, #0]
 8003ace:	f022 0201 	bic.w	r2, r2, #1
 8003ad2:	601a      	str	r2, [r3, #0]

  /* Set the TIM state */
  htim->State = HAL_TIM_STATE_READY;
 8003ad4:	687b      	ldr	r3, [r7, #4]
 8003ad6:	2201      	movs	r2, #1
 8003ad8:	f883 203d 	strb.w	r2, [r3, #61]	; 0x3d

  /* Return function status */
  return HAL_OK;
 8003adc:	2300      	movs	r3, #0
}
 8003ade:	4618      	mov	r0, r3
 8003ae0:	370c      	adds	r7, #12
 8003ae2:	46bd      	mov	sp, r7
 8003ae4:	f85d 7b04 	ldr.w	r7, [sp], #4
 8003ae8:	4770      	bx	lr

08003aea <HAL_TIM_IRQHandler>:
  * @brief  This function handles TIM interrupts requests.
  * @param  htim TIM  handle
  * @retval None
  */
void HAL_TIM_IRQHandler(TIM_HandleTypeDef *htim)
{
 8003aea:	b580      	push	{r7, lr}
 8003aec:	b082      	sub	sp, #8
 8003aee:	af00      	add	r7, sp, #0
 8003af0:	6078      	str	r0, [r7, #4]
  /* Capture compare 1 event */
  if (__HAL_TIM_GET_FLAG(htim, TIM_FLAG_CC1) != RESET)
 8003af2:	687b      	ldr	r3, [r7, #4]
 8003af4:	681b      	ldr	r3, [r3, #0]
 8003af6:	691b      	ldr	r3, [r3, #16]
 8003af8:	f003 0302 	and.w	r3, r3, #2
 8003afc:	2b02      	cmp	r3, #2
 8003afe:	d122      	bne.n	8003b46 <HAL_TIM_IRQHandler+0x5c>
  {
    if (__HAL_TIM_GET_IT_SOURCE(htim, TIM_IT_CC1) != RESET)
 8003b00:	687b      	ldr	r3, [r7, #4]
 8003b02:	681b      	ldr	r3, [r3, #0]
 8003b04:	68db      	ldr	r3, [r3, #12]
 8003b06:	f003 0302 	and.w	r3, r3, #2
 8003b0a:	2b02      	cmp	r3, #2
 8003b0c:	d11b      	bne.n	8003b46 <HAL_TIM_IRQHandler+0x5c>
    {
      {
        __HAL_TIM_CLEAR_IT(htim, TIM_IT_CC1);
 8003b0e:	687b      	ldr	r3, [r7, #4]
 8003b10:	681b      	ldr	r3, [r3, #0]
 8003b12:	f06f 0202 	mvn.w	r2, #2
 8003b16:	611a      	str	r2, [r3, #16]
        htim->Channel = HAL_TIM_ACTIVE_CHANNEL_1;
 8003b18:	687b      	ldr	r3, [r7, #4]
 8003b1a:	2201      	movs	r2, #1
 8003b1c:	771a      	strb	r2, [r3, #28]

        /* Input capture event */
        if ((htim->Instance->CCMR1 & TIM_CCMR1_CC1S) != 0x00U)
 8003b1e:	687b      	ldr	r3, [r7, #4]
 8003b20:	681b      	ldr	r3, [r3, #0]
 8003b22:	699b      	ldr	r3, [r3, #24]
 8003b24:	f003 0303 	and.w	r3, r3, #3
 8003b28:	2b00      	cmp	r3, #0
 8003b2a:	d003      	beq.n	8003b34 <HAL_TIM_IRQHandler+0x4a>
        {
#if (USE_HAL_TIM_REGISTER_CALLBACKS == 1)
          htim->IC_CaptureCallback(htim);
#else
          HAL_TIM_IC_CaptureCallback(htim);
 8003b2c:	6878      	ldr	r0, [r7, #4]
 8003b2e:	f000 f8ee 	bl	8003d0e <HAL_TIM_IC_CaptureCallback>
 8003b32:	e005      	b.n	8003b40 <HAL_TIM_IRQHandler+0x56>
        {
#if (USE_HAL_TIM_REGISTER_CALLBACKS == 1)
          htim->OC_DelayElapsedCallback(htim);
          htim->PWM_PulseFinishedCallback(htim);
#else
          HAL_TIM_OC_DelayElapsedCallback(htim);
 8003b34:	6878      	ldr	r0, [r7, #4]
 8003b36:	f000 f8e0 	bl	8003cfa <HAL_TIM_OC_DelayElapsedCallback>
          HAL_TIM_PWM_PulseFinishedCallback(htim);
 8003b3a:	6878      	ldr	r0, [r7, #4]
 8003b3c:	f000 f8f1 	bl	8003d22 <HAL_TIM_PWM_PulseFinishedCallback>
#endif /* USE_HAL_TIM_REGISTER_CALLBACKS */
        }
        htim->Channel = HAL_TIM_ACTIVE_CHANNEL_CLEARED;
 8003b40:	687b      	ldr	r3, [r7, #4]
 8003b42:	2200      	movs	r2, #0
 8003b44:	771a      	strb	r2, [r3, #28]
      }
    }
  }
  /* Capture compare 2 event */
  if (__HAL_TIM_GET_FLAG(htim, TIM_FLAG_CC2) != RESET)
 8003b46:	687b      	ldr	r3, [r7, #4]
 8003b48:	681b      	ldr	r3, [r3, #0]
 8003b4a:	691b      	ldr	r3, [r3, #16]
 8003b4c:	f003 0304 	and.w	r3, r3, #4
 8003b50:	2b04      	cmp	r3, #4
 8003b52:	d122      	bne.n	8003b9a <HAL_TIM_IRQHandler+0xb0>
  {
    if (__HAL_TIM_GET_IT_SOURCE(htim, TIM_IT_CC2) != RESET)
 8003b54:	687b      	ldr	r3, [r7, #4]
 8003b56:	681b      	ldr	r3, [r3, #0]
 8003b58:	68db      	ldr	r3, [r3, #12]
 8003b5a:	f003 0304 	and.w	r3, r3, #4
 8003b5e:	2b04      	cmp	r3, #4
 8003b60:	d11b      	bne.n	8003b9a <HAL_TIM_IRQHandler+0xb0>
    {
      __HAL_TIM_CLEAR_IT(htim, TIM_IT_CC2);
 8003b62:	687b      	ldr	r3, [r7, #4]
 8003b64:	681b      	ldr	r3, [r3, #0]
 8003b66:	f06f 0204 	mvn.w	r2, #4
 8003b6a:	611a      	str	r2, [r3, #16]
      htim->Channel = HAL_TIM_ACTIVE_CHANNEL_2;
 8003b6c:	687b      	ldr	r3, [r7, #4]
 8003b6e:	2202      	movs	r2, #2
 8003b70:	771a      	strb	r2, [r3, #28]
      /* Input capture event */
      if ((htim->Instance->CCMR1 & TIM_CCMR1_CC2S) != 0x00U)
 8003b72:	687b      	ldr	r3, [r7, #4]
 8003b74:	681b      	ldr	r3, [r3, #0]
 8003b76:	699b      	ldr	r3, [r3, #24]
 8003b78:	f403 7340 	and.w	r3, r3, #768	; 0x300
 8003b7c:	2b00      	cmp	r3, #0
 8003b7e:	d003      	beq.n	8003b88 <HAL_TIM_IRQHandler+0x9e>
      {
#if (USE_HAL_TIM_REGISTER_CALLBACKS == 1)
        htim->IC_CaptureCallback(htim);
#else
        HAL_TIM_IC_CaptureCallback(htim);
 8003b80:	6878      	ldr	r0, [r7, #4]
 8003b82:	f000 f8c4 	bl	8003d0e <HAL_TIM_IC_CaptureCallback>
 8003b86:	e005      	b.n	8003b94 <HAL_TIM_IRQHandler+0xaa>
      {
#if (USE_HAL_TIM_REGISTER_CALLBACKS == 1)
        htim->OC_DelayElapsedCallback(htim);
        htim->PWM_PulseFinishedCallback(htim);
#else
        HAL_TIM_OC_DelayElapsedCallback(htim);
 8003b88:	6878      	ldr	r0, [r7, #4]
 8003b8a:	f000 f8b6 	bl	8003cfa <HAL_TIM_OC_DelayElapsedCallback>
        HAL_TIM_PWM_PulseFinishedCallback(htim);
 8003b8e:	6878      	ldr	r0, [r7, #4]
 8003b90:	f000 f8c7 	bl	8003d22 <HAL_TIM_PWM_PulseFinishedCallback>
#endif /* USE_HAL_TIM_REGISTER_CALLBACKS */
      }
      htim->Channel = HAL_TIM_ACTIVE_CHANNEL_CLEARED;
 8003b94:	687b      	ldr	r3, [r7, #4]
 8003b96:	2200      	movs	r2, #0
 8003b98:	771a      	strb	r2, [r3, #28]
    }
  }
  /* Capture compare 3 event */
  if (__HAL_TIM_GET_FLAG(htim, TIM_FLAG_CC3) != RESET)
 8003b9a:	687b      	ldr	r3, [r7, #4]
 8003b9c:	681b      	ldr	r3, [r3, #0]
 8003b9e:	691b      	ldr	r3, [r3, #16]
 8003ba0:	f003 0308 	and.w	r3, r3, #8
 8003ba4:	2b08      	cmp	r3, #8
 8003ba6:	d122      	bne.n	8003bee <HAL_TIM_IRQHandler+0x104>
  {
    if (__HAL_TIM_GET_IT_SOURCE(htim, TIM_IT_CC3) != RESET)
 8003ba8:	687b      	ldr	r3, [r7, #4]
 8003baa:	681b      	ldr	r3, [r3, #0]
 8003bac:	68db      	ldr	r3, [r3, #12]
 8003bae:	f003 0308 	and.w	r3, r3, #8
 8003bb2:	2b08      	cmp	r3, #8
 8003bb4:	d11b      	bne.n	8003bee <HAL_TIM_IRQHandler+0x104>
    {
      __HAL_TIM_CLEAR_IT(htim, TIM_IT_CC3);
 8003bb6:	687b      	ldr	r3, [r7, #4]
 8003bb8:	681b      	ldr	r3, [r3, #0]
 8003bba:	f06f 0208 	mvn.w	r2, #8
 8003bbe:	611a      	str	r2, [r3, #16]
      htim->Channel = HAL_TIM_ACTIVE_CHANNEL_3;
 8003bc0:	687b      	ldr	r3, [r7, #4]
 8003bc2:	2204      	movs	r2, #4
 8003bc4:	771a      	strb	r2, [r3, #28]
      /* Input capture event */
      if ((htim->Instance->CCMR2 & TIM_CCMR2_CC3S) != 0x00U)
 8003bc6:	687b      	ldr	r3, [r7, #4]
 8003bc8:	681b      	ldr	r3, [r3, #0]
 8003bca:	69db      	ldr	r3, [r3, #28]
 8003bcc:	f003 0303 	and.w	r3, r3, #3
 8003bd0:	2b00      	cmp	r3, #0
 8003bd2:	d003      	beq.n	8003bdc <HAL_TIM_IRQHandler+0xf2>
      {
#if (USE_HAL_TIM_REGISTER_CALLBACKS == 1)
        htim->IC_CaptureCallback(htim);
#else
        HAL_TIM_IC_CaptureCallback(htim);
 8003bd4:	6878      	ldr	r0, [r7, #4]
 8003bd6:	f000 f89a 	bl	8003d0e <HAL_TIM_IC_CaptureCallback>
 8003bda:	e005      	b.n	8003be8 <HAL_TIM_IRQHandler+0xfe>
      {
#if (USE_HAL_TIM_REGISTER_CALLBACKS == 1)
        htim->OC_DelayElapsedCallback(htim);
        htim->PWM_PulseFinishedCallback(htim);
#else
        HAL_TIM_OC_DelayElapsedCallback(htim);
 8003bdc:	6878      	ldr	r0, [r7, #4]
 8003bde:	f000 f88c 	bl	8003cfa <HAL_TIM_OC_DelayElapsedCallback>
        HAL_TIM_PWM_PulseFinishedCallback(htim);
 8003be2:	6878      	ldr	r0, [r7, #4]
 8003be4:	f000 f89d 	bl	8003d22 <HAL_TIM_PWM_PulseFinishedCallback>
#endif /* USE_HAL_TIM_REGISTER_CALLBACKS */
      }
      htim->Channel = HAL_TIM_ACTIVE_CHANNEL_CLEARED;
 8003be8:	687b      	ldr	r3, [r7, #4]
 8003bea:	2200      	movs	r2, #0
 8003bec:	771a      	strb	r2, [r3, #28]
    }
  }
  /* Capture compare 4 event */
  if (__HAL_TIM_GET_FLAG(htim, TIM_FLAG_CC4) != RESET)
 8003bee:	687b      	ldr	r3, [r7, #4]
 8003bf0:	681b      	ldr	r3, [r3, #0]
 8003bf2:	691b      	ldr	r3, [r3, #16]
 8003bf4:	f003 0310 	and.w	r3, r3, #16
 8003bf8:	2b10      	cmp	r3, #16
 8003bfa:	d122      	bne.n	8003c42 <HAL_TIM_IRQHandler+0x158>
  {
    if (__HAL_TIM_GET_IT_SOURCE(htim, TIM_IT_CC4) != RESET)
 8003bfc:	687b      	ldr	r3, [r7, #4]
 8003bfe:	681b      	ldr	r3, [r3, #0]
 8003c00:	68db      	ldr	r3, [r3, #12]
 8003c02:	f003 0310 	and.w	r3, r3, #16
 8003c06:	2b10      	cmp	r3, #16
 8003c08:	d11b      	bne.n	8003c42 <HAL_TIM_IRQHandler+0x158>
    {
      __HAL_TIM_CLEAR_IT(htim, TIM_IT_CC4);
 8003c0a:	687b      	ldr	r3, [r7, #4]
 8003c0c:	681b      	ldr	r3, [r3, #0]
 8003c0e:	f06f 0210 	mvn.w	r2, #16
 8003c12:	611a      	str	r2, [r3, #16]
      htim->Channel = HAL_TIM_ACTIVE_CHANNEL_4;
 8003c14:	687b      	ldr	r3, [r7, #4]
 8003c16:	2208      	movs	r2, #8
 8003c18:	771a      	strb	r2, [r3, #28]
      /* Input capture event */
      if ((htim->Instance->CCMR2 & TIM_CCMR2_CC4S) != 0x00U)
 8003c1a:	687b      	ldr	r3, [r7, #4]
 8003c1c:	681b      	ldr	r3, [r3, #0]
 8003c1e:	69db      	ldr	r3, [r3, #28]
 8003c20:	f403 7340 	and.w	r3, r3, #768	; 0x300
 8003c24:	2b00      	cmp	r3, #0
 8003c26:	d003      	beq.n	8003c30 <HAL_TIM_IRQHandler+0x146>
      {
#if (USE_HAL_TIM_REGISTER_CALLBACKS == 1)
        htim->IC_CaptureCallback(htim);
#else
        HAL_TIM_IC_CaptureCallback(htim);
 8003c28:	6878      	ldr	r0, [r7, #4]
 8003c2a:	f000 f870 	bl	8003d0e <HAL_TIM_IC_CaptureCallback>
 8003c2e:	e005      	b.n	8003c3c <HAL_TIM_IRQHandler+0x152>
      {
#if (USE_HAL_TIM_REGISTER_CALLBACKS == 1)
        htim->OC_DelayElapsedCallback(htim);
        htim->PWM_PulseFinishedCallback(htim);
#else
        HAL_TIM_OC_DelayElapsedCallback(htim);
 8003c30:	6878      	ldr	r0, [r7, #4]
 8003c32:	f000 f862 	bl	8003cfa <HAL_TIM_OC_DelayElapsedCallback>
        HAL_TIM_PWM_PulseFinishedCallback(htim);
 8003c36:	6878      	ldr	r0, [r7, #4]
 8003c38:	f000 f873 	bl	8003d22 <HAL_TIM_PWM_PulseFinishedCallback>
#endif /* USE_HAL_TIM_REGISTER_CALLBACKS */
      }
      htim->Channel = HAL_TIM_ACTIVE_CHANNEL_CLEARED;
 8003c3c:	687b      	ldr	r3, [r7, #4]
 8003c3e:	2200      	movs	r2, #0
 8003c40:	771a      	strb	r2, [r3, #28]
    }
  }
  /* TIM Update event */
  if (__HAL_TIM_GET_FLAG(htim, TIM_FLAG_UPDATE) != RESET)
 8003c42:	687b      	ldr	r3, [r7, #4]
 8003c44:	681b      	ldr	r3, [r3, #0]
 8003c46:	691b      	ldr	r3, [r3, #16]
 8003c48:	f003 0301 	and.w	r3, r3, #1
 8003c4c:	2b01      	cmp	r3, #1
 8003c4e:	d10e      	bne.n	8003c6e <HAL_TIM_IRQHandler+0x184>
  {
    if (__HAL_TIM_GET_IT_SOURCE(htim, TIM_IT_UPDATE) != RESET)
 8003c50:	687b      	ldr	r3, [r7, #4]
 8003c52:	681b      	ldr	r3, [r3, #0]
 8003c54:	68db      	ldr	r3, [r3, #12]
 8003c56:	f003 0301 	and.w	r3, r3, #1
 8003c5a:	2b01      	cmp	r3, #1
 8003c5c:	d107      	bne.n	8003c6e <HAL_TIM_IRQHandler+0x184>
    {
      __HAL_TIM_CLEAR_IT(htim, TIM_IT_UPDATE);
 8003c5e:	687b      	ldr	r3, [r7, #4]
 8003c60:	681b      	ldr	r3, [r3, #0]
 8003c62:	f06f 0201 	mvn.w	r2, #1
 8003c66:	611a      	str	r2, [r3, #16]
#if (USE_HAL_TIM_REGISTER_CALLBACKS == 1)
      htim->PeriodElapsedCallback(htim);
#else
      HAL_TIM_PeriodElapsedCallback(htim);
 8003c68:	6878      	ldr	r0, [r7, #4]
 8003c6a:	f7fd fd03 	bl	8001674 <HAL_TIM_PeriodElapsedCallback>
#endif /* USE_HAL_TIM_REGISTER_CALLBACKS */
    }
  }
  /* TIM Break input event */
  if (__HAL_TIM_GET_FLAG(htim, TIM_FLAG_BREAK) != RESET)
 8003c6e:	687b      	ldr	r3, [r7, #4]
 8003c70:	681b      	ldr	r3, [r3, #0]
 8003c72:	691b      	ldr	r3, [r3, #16]
 8003c74:	f003 0380 	and.w	r3, r3, #128	; 0x80
 8003c78:	2b80      	cmp	r3, #128	; 0x80
 8003c7a:	d10e      	bne.n	8003c9a <HAL_TIM_IRQHandler+0x1b0>
  {
    if (__HAL_TIM_GET_IT_SOURCE(htim, TIM_IT_BREAK) != RESET)
 8003c7c:	687b      	ldr	r3, [r7, #4]
 8003c7e:	681b      	ldr	r3, [r3, #0]
 8003c80:	68db      	ldr	r3, [r3, #12]
 8003c82:	f003 0380 	and.w	r3, r3, #128	; 0x80
 8003c86:	2b80      	cmp	r3, #128	; 0x80
 8003c88:	d107      	bne.n	8003c9a <HAL_TIM_IRQHandler+0x1b0>
    {
      __HAL_TIM_CLEAR_IT(htim, TIM_IT_BREAK);
 8003c8a:	687b      	ldr	r3, [r7, #4]
 8003c8c:	681b      	ldr	r3, [r3, #0]
 8003c8e:	f06f 0280 	mvn.w	r2, #128	; 0x80
 8003c92:	611a      	str	r2, [r3, #16]
#if (USE_HAL_TIM_REGISTER_CALLBACKS == 1)
      htim->BreakCallback(htim);
#else
      HAL_TIMEx_BreakCallback(htim);
 8003c94:	6878      	ldr	r0, [r7, #4]
 8003c96:	f000 f903 	bl	8003ea0 <HAL_TIMEx_BreakCallback>
#endif /* USE_HAL_TIM_REGISTER_CALLBACKS */
    }
  }
  /* TIM Trigger detection event */
  if (__HAL_TIM_GET_FLAG(htim, TIM_FLAG_TRIGGER) != RESET)
 8003c9a:	687b      	ldr	r3, [r7, #4]
 8003c9c:	681b      	ldr	r3, [r3, #0]
 8003c9e:	691b      	ldr	r3, [r3, #16]
 8003ca0:	f003 0340 	and.w	r3, r3, #64	; 0x40
 8003ca4:	2b40      	cmp	r3, #64	; 0x40
 8003ca6:	d10e      	bne.n	8003cc6 <HAL_TIM_IRQHandler+0x1dc>
  {
    if (__HAL_TIM_GET_IT_SOURCE(htim, TIM_IT_TRIGGER) != RESET)
 8003ca8:	687b      	ldr	r3, [r7, #4]
 8003caa:	681b      	ldr	r3, [r3, #0]
 8003cac:	68db      	ldr	r3, [r3, #12]
 8003cae:	f003 0340 	and.w	r3, r3, #64	; 0x40
 8003cb2:	2b40      	cmp	r3, #64	; 0x40
 8003cb4:	d107      	bne.n	8003cc6 <HAL_TIM_IRQHandler+0x1dc>
    {
      __HAL_TIM_CLEAR_IT(htim, TIM_IT_TRIGGER);
 8003cb6:	687b      	ldr	r3, [r7, #4]
 8003cb8:	681b      	ldr	r3, [r3, #0]
 8003cba:	f06f 0240 	mvn.w	r2, #64	; 0x40
 8003cbe:	611a      	str	r2, [r3, #16]
#if (USE_HAL_TIM_REGISTER_CALLBACKS == 1)
      htim->TriggerCallback(htim);
#else
      HAL_TIM_TriggerCallback(htim);
 8003cc0:	6878      	ldr	r0, [r7, #4]
 8003cc2:	f000 f838 	bl	8003d36 <HAL_TIM_TriggerCallback>
#endif /* USE_HAL_TIM_REGISTER_CALLBACKS */
    }
  }
  /* TIM commutation event */
  if (__HAL_TIM_GET_FLAG(htim, TIM_FLAG_COM) != RESET)
 8003cc6:	687b      	ldr	r3, [r7, #4]
 8003cc8:	681b      	ldr	r3, [r3, #0]
 8003cca:	691b      	ldr	r3, [r3, #16]
 8003ccc:	f003 0320 	and.w	r3, r3, #32
 8003cd0:	2b20      	cmp	r3, #32
 8003cd2:	d10e      	bne.n	8003cf2 <HAL_TIM_IRQHandler+0x208>
  {
    if (__HAL_TIM_GET_IT_SOURCE(htim, TIM_IT_COM) != RESET)
 8003cd4:	687b      	ldr	r3, [r7, #4]
 8003cd6:	681b      	ldr	r3, [r3, #0]
 8003cd8:	68db      	ldr	r3, [r3, #12]
 8003cda:	f003 0320 	and.w	r3, r3, #32
 8003cde:	2b20      	cmp	r3, #32
 8003ce0:	d107      	bne.n	8003cf2 <HAL_TIM_IRQHandler+0x208>
    {
      __HAL_TIM_CLEAR_IT(htim, TIM_FLAG_COM);
 8003ce2:	687b      	ldr	r3, [r7, #4]
 8003ce4:	681b      	ldr	r3, [r3, #0]
 8003ce6:	f06f 0220 	mvn.w	r2, #32
 8003cea:	611a      	str	r2, [r3, #16]
#if (USE_HAL_TIM_REGISTER_CALLBACKS == 1)
      htim->CommutationCallback(htim);
#else
      HAL_TIMEx_CommutCallback(htim);
 8003cec:	6878      	ldr	r0, [r7, #4]
 8003cee:	f000 f8cd 	bl	8003e8c <HAL_TIMEx_CommutCallback>
#endif /* USE_HAL_TIM_REGISTER_CALLBACKS */
    }
  }
}
 8003cf2:	bf00      	nop
 8003cf4:	3708      	adds	r7, #8
 8003cf6:	46bd      	mov	sp, r7
 8003cf8:	bd80      	pop	{r7, pc}

08003cfa <HAL_TIM_OC_DelayElapsedCallback>:
  * @brief  Output Compare callback in non-blocking mode
  * @param  htim TIM OC handle
  * @retval None
  */
__weak void HAL_TIM_OC_DelayElapsedCallback(TIM_HandleTypeDef *htim)
{
 8003cfa:	b480      	push	{r7}
 8003cfc:	b083      	sub	sp, #12
 8003cfe:	af00      	add	r7, sp, #0
 8003d00:	6078      	str	r0, [r7, #4]
  UNUSED(htim);

  /* NOTE : This function should not be modified, when the callback is needed,
            the HAL_TIM_OC_DelayElapsedCallback could be implemented in the user file
   */
}
 8003d02:	bf00      	nop
 8003d04:	370c      	adds	r7, #12
 8003d06:	46bd      	mov	sp, r7
 8003d08:	f85d 7b04 	ldr.w	r7, [sp], #4
 8003d0c:	4770      	bx	lr

08003d0e <HAL_TIM_IC_CaptureCallback>:
  * @brief  Input Capture callback in non-blocking mode
  * @param  htim TIM IC handle
  * @retval None
  */
__weak void HAL_TIM_IC_CaptureCallback(TIM_HandleTypeDef *htim)
{
 8003d0e:	b480      	push	{r7}
 8003d10:	b083      	sub	sp, #12
 8003d12:	af00      	add	r7, sp, #0
 8003d14:	6078      	str	r0, [r7, #4]
  UNUSED(htim);

  /* NOTE : This function should not be modified, when the callback is needed,
            the HAL_TIM_IC_CaptureCallback could be implemented in the user file
   */
}
 8003d16:	bf00      	nop
 8003d18:	370c      	adds	r7, #12
 8003d1a:	46bd      	mov	sp, r7
 8003d1c:	f85d 7b04 	ldr.w	r7, [sp], #4
 8003d20:	4770      	bx	lr

08003d22 <HAL_TIM_PWM_PulseFinishedCallback>:
  * @brief  PWM Pulse finished callback in non-blocking mode
  * @param  htim TIM handle
  * @retval None
  */
__weak void HAL_TIM_PWM_PulseFinishedCallback(TIM_HandleTypeDef *htim)
{
 8003d22:	b480      	push	{r7}
 8003d24:	b083      	sub	sp, #12
 8003d26:	af00      	add	r7, sp, #0
 8003d28:	6078      	str	r0, [r7, #4]
  UNUSED(htim);

  /* NOTE : This function should not be modified, when the callback is needed,
            the HAL_TIM_PWM_PulseFinishedCallback could be implemented in the user file
   */
}
 8003d2a:	bf00      	nop
 8003d2c:	370c      	adds	r7, #12
 8003d2e:	46bd      	mov	sp, r7
 8003d30:	f85d 7b04 	ldr.w	r7, [sp], #4
 8003d34:	4770      	bx	lr

08003d36 <HAL_TIM_TriggerCallback>:
  * @brief  Hall Trigger detection callback in non-blocking mode
  * @param  htim TIM handle
  * @retval None
  */
__weak void HAL_TIM_TriggerCallback(TIM_HandleTypeDef *htim)
{
 8003d36:	b480      	push	{r7}
 8003d38:	b083      	sub	sp, #12
 8003d3a:	af00      	add	r7, sp, #0
 8003d3c:	6078      	str	r0, [r7, #4]
  UNUSED(htim);

  /* NOTE : This function should not be modified, when the callback is needed,
            the HAL_TIM_TriggerCallback could be implemented in the user file
   */
}
 8003d3e:	bf00      	nop
 8003d40:	370c      	adds	r7, #12
 8003d42:	46bd      	mov	sp, r7
 8003d44:	f85d 7b04 	ldr.w	r7, [sp], #4
 8003d48:	4770      	bx	lr
	...

08003d4c <TIM_Base_SetConfig>:
  * @param  TIMx TIM peripheral
  * @param  Structure TIM Base configuration structure
  * @retval None
  */
void TIM_Base_SetConfig(TIM_TypeDef *TIMx, TIM_Base_InitTypeDef *Structure)
{
 8003d4c:	b480      	push	{r7}
 8003d4e:	b085      	sub	sp, #20
 8003d50:	af00      	add	r7, sp, #0
 8003d52:	6078      	str	r0, [r7, #4]
 8003d54:	6039      	str	r1, [r7, #0]
  uint32_t tmpcr1;
  tmpcr1 = TIMx->CR1;
 8003d56:	687b      	ldr	r3, [r7, #4]
 8003d58:	681b      	ldr	r3, [r3, #0]
 8003d5a:	60fb      	str	r3, [r7, #12]

  /* Set TIM Time Base Unit parameters ---------------------------------------*/
  if (IS_TIM_COUNTER_MODE_SELECT_INSTANCE(TIMx))
 8003d5c:	687b      	ldr	r3, [r7, #4]
 8003d5e:	4a40      	ldr	r2, [pc, #256]	; (8003e60 <TIM_Base_SetConfig+0x114>)
 8003d60:	4293      	cmp	r3, r2
 8003d62:	d013      	beq.n	8003d8c <TIM_Base_SetConfig+0x40>
 8003d64:	687b      	ldr	r3, [r7, #4]
 8003d66:	f1b3 4f80 	cmp.w	r3, #1073741824	; 0x40000000
 8003d6a:	d00f      	beq.n	8003d8c <TIM_Base_SetConfig+0x40>
 8003d6c:	687b      	ldr	r3, [r7, #4]
 8003d6e:	4a3d      	ldr	r2, [pc, #244]	; (8003e64 <TIM_Base_SetConfig+0x118>)
 8003d70:	4293      	cmp	r3, r2
 8003d72:	d00b      	beq.n	8003d8c <TIM_Base_SetConfig+0x40>
 8003d74:	687b      	ldr	r3, [r7, #4]
 8003d76:	4a3c      	ldr	r2, [pc, #240]	; (8003e68 <TIM_Base_SetConfig+0x11c>)
 8003d78:	4293      	cmp	r3, r2
 8003d7a:	d007      	beq.n	8003d8c <TIM_Base_SetConfig+0x40>
 8003d7c:	687b      	ldr	r3, [r7, #4]
 8003d7e:	4a3b      	ldr	r2, [pc, #236]	; (8003e6c <TIM_Base_SetConfig+0x120>)
 8003d80:	4293      	cmp	r3, r2
 8003d82:	d003      	beq.n	8003d8c <TIM_Base_SetConfig+0x40>
 8003d84:	687b      	ldr	r3, [r7, #4]
 8003d86:	4a3a      	ldr	r2, [pc, #232]	; (8003e70 <TIM_Base_SetConfig+0x124>)
 8003d88:	4293      	cmp	r3, r2
 8003d8a:	d108      	bne.n	8003d9e <TIM_Base_SetConfig+0x52>
  {
    /* Select the Counter Mode */
    tmpcr1 &= ~(TIM_CR1_DIR | TIM_CR1_CMS);
 8003d8c:	68fb      	ldr	r3, [r7, #12]
 8003d8e:	f023 0370 	bic.w	r3, r3, #112	; 0x70
 8003d92:	60fb      	str	r3, [r7, #12]
    tmpcr1 |= Structure->CounterMode;
 8003d94:	683b      	ldr	r3, [r7, #0]
 8003d96:	685b      	ldr	r3, [r3, #4]
 8003d98:	68fa      	ldr	r2, [r7, #12]
 8003d9a:	4313      	orrs	r3, r2
 8003d9c:	60fb      	str	r3, [r7, #12]
  }

  if (IS_TIM_CLOCK_DIVISION_INSTANCE(TIMx))
 8003d9e:	687b      	ldr	r3, [r7, #4]
 8003da0:	4a2f      	ldr	r2, [pc, #188]	; (8003e60 <TIM_Base_SetConfig+0x114>)
 8003da2:	4293      	cmp	r3, r2
 8003da4:	d02b      	beq.n	8003dfe <TIM_Base_SetConfig+0xb2>
 8003da6:	687b      	ldr	r3, [r7, #4]
 8003da8:	f1b3 4f80 	cmp.w	r3, #1073741824	; 0x40000000
 8003dac:	d027      	beq.n	8003dfe <TIM_Base_SetConfig+0xb2>
 8003dae:	687b      	ldr	r3, [r7, #4]
 8003db0:	4a2c      	ldr	r2, [pc, #176]	; (8003e64 <TIM_Base_SetConfig+0x118>)
 8003db2:	4293      	cmp	r3, r2
 8003db4:	d023      	beq.n	8003dfe <TIM_Base_SetConfig+0xb2>
 8003db6:	687b      	ldr	r3, [r7, #4]
 8003db8:	4a2b      	ldr	r2, [pc, #172]	; (8003e68 <TIM_Base_SetConfig+0x11c>)
 8003dba:	4293      	cmp	r3, r2
 8003dbc:	d01f      	beq.n	8003dfe <TIM_Base_SetConfig+0xb2>
 8003dbe:	687b      	ldr	r3, [r7, #4]
 8003dc0:	4a2a      	ldr	r2, [pc, #168]	; (8003e6c <TIM_Base_SetConfig+0x120>)
 8003dc2:	4293      	cmp	r3, r2
 8003dc4:	d01b      	beq.n	8003dfe <TIM_Base_SetConfig+0xb2>
 8003dc6:	687b      	ldr	r3, [r7, #4]
 8003dc8:	4a29      	ldr	r2, [pc, #164]	; (8003e70 <TIM_Base_SetConfig+0x124>)
 8003dca:	4293      	cmp	r3, r2
 8003dcc:	d017      	beq.n	8003dfe <TIM_Base_SetConfig+0xb2>
 8003dce:	687b      	ldr	r3, [r7, #4]
 8003dd0:	4a28      	ldr	r2, [pc, #160]	; (8003e74 <TIM_Base_SetConfig+0x128>)
 8003dd2:	4293      	cmp	r3, r2
 8003dd4:	d013      	beq.n	8003dfe <TIM_Base_SetConfig+0xb2>
 8003dd6:	687b      	ldr	r3, [r7, #4]
 8003dd8:	4a27      	ldr	r2, [pc, #156]	; (8003e78 <TIM_Base_SetConfig+0x12c>)
 8003dda:	4293      	cmp	r3, r2
 8003ddc:	d00f      	beq.n	8003dfe <TIM_Base_SetConfig+0xb2>
 8003dde:	687b      	ldr	r3, [r7, #4]
 8003de0:	4a26      	ldr	r2, [pc, #152]	; (8003e7c <TIM_Base_SetConfig+0x130>)
 8003de2:	4293      	cmp	r3, r2
 8003de4:	d00b      	beq.n	8003dfe <TIM_Base_SetConfig+0xb2>
 8003de6:	687b      	ldr	r3, [r7, #4]
 8003de8:	4a25      	ldr	r2, [pc, #148]	; (8003e80 <TIM_Base_SetConfig+0x134>)
 8003dea:	4293      	cmp	r3, r2
 8003dec:	d007      	beq.n	8003dfe <TIM_Base_SetConfig+0xb2>
 8003dee:	687b      	ldr	r3, [r7, #4]
 8003df0:	4a24      	ldr	r2, [pc, #144]	; (8003e84 <TIM_Base_SetConfig+0x138>)
 8003df2:	4293      	cmp	r3, r2
 8003df4:	d003      	beq.n	8003dfe <TIM_Base_SetConfig+0xb2>
 8003df6:	687b      	ldr	r3, [r7, #4]
 8003df8:	4a23      	ldr	r2, [pc, #140]	; (8003e88 <TIM_Base_SetConfig+0x13c>)
 8003dfa:	4293      	cmp	r3, r2
 8003dfc:	d108      	bne.n	8003e10 <TIM_Base_SetConfig+0xc4>
  {
    /* Set the clock division */
    tmpcr1 &= ~TIM_CR1_CKD;
 8003dfe:	68fb      	ldr	r3, [r7, #12]
 8003e00:	f423 7340 	bic.w	r3, r3, #768	; 0x300
 8003e04:	60fb      	str	r3, [r7, #12]
    tmpcr1 |= (uint32_t)Structure->ClockDivision;
 8003e06:	683b      	ldr	r3, [r7, #0]
 8003e08:	68db      	ldr	r3, [r3, #12]
 8003e0a:	68fa      	ldr	r2, [r7, #12]
 8003e0c:	4313      	orrs	r3, r2
 8003e0e:	60fb      	str	r3, [r7, #12]
  }

  /* Set the auto-reload preload */
  MODIFY_REG(tmpcr1, TIM_CR1_ARPE, Structure->AutoReloadPreload);
 8003e10:	68fb      	ldr	r3, [r7, #12]
 8003e12:	f023 0280 	bic.w	r2, r3, #128	; 0x80
 8003e16:	683b      	ldr	r3, [r7, #0]
 8003e18:	695b      	ldr	r3, [r3, #20]
 8003e1a:	4313      	orrs	r3, r2
 8003e1c:	60fb      	str	r3, [r7, #12]

  TIMx->CR1 = tmpcr1;
 8003e1e:	687b      	ldr	r3, [r7, #4]
 8003e20:	68fa      	ldr	r2, [r7, #12]
 8003e22:	601a      	str	r2, [r3, #0]

  /* Set the Autoreload value */
  TIMx->ARR = (uint32_t)Structure->Period ;
 8003e24:	683b      	ldr	r3, [r7, #0]
 8003e26:	689a      	ldr	r2, [r3, #8]
 8003e28:	687b      	ldr	r3, [r7, #4]
 8003e2a:	62da      	str	r2, [r3, #44]	; 0x2c

  /* Set the Prescaler value */
  TIMx->PSC = Structure->Prescaler;
 8003e2c:	683b      	ldr	r3, [r7, #0]
 8003e2e:	681a      	ldr	r2, [r3, #0]
 8003e30:	687b      	ldr	r3, [r7, #4]
 8003e32:	629a      	str	r2, [r3, #40]	; 0x28

  if (IS_TIM_REPETITION_COUNTER_INSTANCE(TIMx))
 8003e34:	687b      	ldr	r3, [r7, #4]
 8003e36:	4a0a      	ldr	r2, [pc, #40]	; (8003e60 <TIM_Base_SetConfig+0x114>)
 8003e38:	4293      	cmp	r3, r2
 8003e3a:	d003      	beq.n	8003e44 <TIM_Base_SetConfig+0xf8>
 8003e3c:	687b      	ldr	r3, [r7, #4]
 8003e3e:	4a0c      	ldr	r2, [pc, #48]	; (8003e70 <TIM_Base_SetConfig+0x124>)
 8003e40:	4293      	cmp	r3, r2
 8003e42:	d103      	bne.n	8003e4c <TIM_Base_SetConfig+0x100>
  {
    /* Set the Repetition Counter value */
    TIMx->RCR = Structure->RepetitionCounter;
 8003e44:	683b      	ldr	r3, [r7, #0]
 8003e46:	691a      	ldr	r2, [r3, #16]
 8003e48:	687b      	ldr	r3, [r7, #4]
 8003e4a:	631a      	str	r2, [r3, #48]	; 0x30
  }

  /* Generate an update event to reload the Prescaler
     and the repetition counter (only for advanced timer) value immediately */
  TIMx->EGR = TIM_EGR_UG;
 8003e4c:	687b      	ldr	r3, [r7, #4]
 8003e4e:	2201      	movs	r2, #1
 8003e50:	615a      	str	r2, [r3, #20]
}
 8003e52:	bf00      	nop
 8003e54:	3714      	adds	r7, #20
 8003e56:	46bd      	mov	sp, r7
 8003e58:	f85d 7b04 	ldr.w	r7, [sp], #4
 8003e5c:	4770      	bx	lr
 8003e5e:	bf00      	nop
 8003e60:	40010000 	.word	0x40010000
 8003e64:	40000400 	.word	0x40000400
 8003e68:	40000800 	.word	0x40000800
 8003e6c:	40000c00 	.word	0x40000c00
 8003e70:	40010400 	.word	0x40010400
 8003e74:	40014000 	.word	0x40014000
 8003e78:	40014400 	.word	0x40014400
 8003e7c:	40014800 	.word	0x40014800
 8003e80:	40001800 	.word	0x40001800
 8003e84:	40001c00 	.word	0x40001c00
 8003e88:	40002000 	.word	0x40002000

08003e8c <HAL_TIMEx_CommutCallback>:
  * @brief  Hall commutation changed callback in non-blocking mode
  * @param  htim TIM handle
  * @retval None
  */
__weak void HAL_TIMEx_CommutCallback(TIM_HandleTypeDef *htim)
{
 8003e8c:	b480      	push	{r7}
 8003e8e:	b083      	sub	sp, #12
 8003e90:	af00      	add	r7, sp, #0
 8003e92:	6078      	str	r0, [r7, #4]
  UNUSED(htim);

  /* NOTE : This function should not be modified, when the callback is needed,
            the HAL_TIMEx_CommutCallback could be implemented in the user file
   */
}
 8003e94:	bf00      	nop
 8003e96:	370c      	adds	r7, #12
 8003e98:	46bd      	mov	sp, r7
 8003e9a:	f85d 7b04 	ldr.w	r7, [sp], #4
 8003e9e:	4770      	bx	lr

08003ea0 <HAL_TIMEx_BreakCallback>:
  * @brief  Hall Break detection callback in non-blocking mode
  * @param  htim TIM handle
  * @retval None
  */
__weak void HAL_TIMEx_BreakCallback(TIM_HandleTypeDef *htim)
{
 8003ea0:	b480      	push	{r7}
 8003ea2:	b083      	sub	sp, #12
 8003ea4:	af00      	add	r7, sp, #0
 8003ea6:	6078      	str	r0, [r7, #4]
  UNUSED(htim);

  /* NOTE : This function should not be modified, when the callback is needed,
            the HAL_TIMEx_BreakCallback could be implemented in the user file
   */
}
 8003ea8:	bf00      	nop
 8003eaa:	370c      	adds	r7, #12
 8003eac:	46bd      	mov	sp, r7
 8003eae:	f85d 7b04 	ldr.w	r7, [sp], #4
 8003eb2:	4770      	bx	lr

08003eb4 <HAL_UART_Init>:
  * @param  huart  Pointer to a UART_HandleTypeDef structure that contains
  *                the configuration information for the specified UART module.
  * @retval HAL status
  */
HAL_StatusTypeDef HAL_UART_Init(UART_HandleTypeDef *huart)
{
 8003eb4:	b580      	push	{r7, lr}
 8003eb6:	b082      	sub	sp, #8
 8003eb8:	af00      	add	r7, sp, #0
 8003eba:	6078      	str	r0, [r7, #4]
  /* Check the UART handle allocation */
  if (huart == NULL)
 8003ebc:	687b      	ldr	r3, [r7, #4]
 8003ebe:	2b00      	cmp	r3, #0
 8003ec0:	d101      	bne.n	8003ec6 <HAL_UART_Init+0x12>
  {
    return HAL_ERROR;
 8003ec2:	2301      	movs	r3, #1
 8003ec4:	e03f      	b.n	8003f46 <HAL_UART_Init+0x92>
    assert_param(IS_UART_INSTANCE(huart->Instance));
  }
  assert_param(IS_UART_WORD_LENGTH(huart->Init.WordLength));
  assert_param(IS_UART_OVERSAMPLING(huart->Init.OverSampling));

  if (huart->gState == HAL_UART_STATE_RESET)
 8003ec6:	687b      	ldr	r3, [r7, #4]
 8003ec8:	f893 303d 	ldrb.w	r3, [r3, #61]	; 0x3d
 8003ecc:	b2db      	uxtb	r3, r3
 8003ece:	2b00      	cmp	r3, #0
 8003ed0:	d106      	bne.n	8003ee0 <HAL_UART_Init+0x2c>
  {
    /* Allocate lock resource and initialize it */
    huart->Lock = HAL_UNLOCKED;
 8003ed2:	687b      	ldr	r3, [r7, #4]
 8003ed4:	2200      	movs	r2, #0
 8003ed6:	f883 203c 	strb.w	r2, [r3, #60]	; 0x3c

    /* Init the low level hardware */
    huart->MspInitCallback(huart);
#else
    /* Init the low level hardware : GPIO, CLOCK */
    HAL_UART_MspInit(huart);
 8003eda:	6878      	ldr	r0, [r7, #4]
 8003edc:	f7fd fcc0 	bl	8001860 <HAL_UART_MspInit>
#endif /* (USE_HAL_UART_REGISTER_CALLBACKS) */
  }

  huart->gState = HAL_UART_STATE_BUSY;
 8003ee0:	687b      	ldr	r3, [r7, #4]
 8003ee2:	2224      	movs	r2, #36	; 0x24
 8003ee4:	f883 203d 	strb.w	r2, [r3, #61]	; 0x3d

  /* Disable the peripheral */
  __HAL_UART_DISABLE(huart);
 8003ee8:	687b      	ldr	r3, [r7, #4]
 8003eea:	681b      	ldr	r3, [r3, #0]
 8003eec:	68da      	ldr	r2, [r3, #12]
 8003eee:	687b      	ldr	r3, [r7, #4]
 8003ef0:	681b      	ldr	r3, [r3, #0]
 8003ef2:	f422 5200 	bic.w	r2, r2, #8192	; 0x2000
 8003ef6:	60da      	str	r2, [r3, #12]

  /* Set the UART Communication parameters */
  UART_SetConfig(huart);
 8003ef8:	6878      	ldr	r0, [r7, #4]
 8003efa:	f000 f905 	bl	8004108 <UART_SetConfig>

  /* In asynchronous mode, the following bits must be kept cleared:
     - LINEN and CLKEN bits in the USART_CR2 register,
     - SCEN, HDSEL and IREN  bits in the USART_CR3 register.*/
  CLEAR_BIT(huart->Instance->CR2, (USART_CR2_LINEN | USART_CR2_CLKEN));
 8003efe:	687b      	ldr	r3, [r7, #4]
 8003f00:	681b      	ldr	r3, [r3, #0]
 8003f02:	691a      	ldr	r2, [r3, #16]
 8003f04:	687b      	ldr	r3, [r7, #4]
 8003f06:	681b      	ldr	r3, [r3, #0]
 8003f08:	f422 4290 	bic.w	r2, r2, #18432	; 0x4800
 8003f0c:	611a      	str	r2, [r3, #16]
  CLEAR_BIT(huart->Instance->CR3, (USART_CR3_SCEN | USART_CR3_HDSEL | USART_CR3_IREN));
 8003f0e:	687b      	ldr	r3, [r7, #4]
 8003f10:	681b      	ldr	r3, [r3, #0]
 8003f12:	695a      	ldr	r2, [r3, #20]
 8003f14:	687b      	ldr	r3, [r7, #4]
 8003f16:	681b      	ldr	r3, [r3, #0]
 8003f18:	f022 022a 	bic.w	r2, r2, #42	; 0x2a
 8003f1c:	615a      	str	r2, [r3, #20]

  /* Enable the peripheral */
  __HAL_UART_ENABLE(huart);
 8003f1e:	687b      	ldr	r3, [r7, #4]
 8003f20:	681b      	ldr	r3, [r3, #0]
 8003f22:	68da      	ldr	r2, [r3, #12]
 8003f24:	687b      	ldr	r3, [r7, #4]
 8003f26:	681b      	ldr	r3, [r3, #0]
 8003f28:	f442 5200 	orr.w	r2, r2, #8192	; 0x2000
 8003f2c:	60da      	str	r2, [r3, #12]

  /* Initialize the UART state */
  huart->ErrorCode = HAL_UART_ERROR_NONE;
 8003f2e:	687b      	ldr	r3, [r7, #4]
 8003f30:	2200      	movs	r2, #0
 8003f32:	641a      	str	r2, [r3, #64]	; 0x40
  huart->gState = HAL_UART_STATE_READY;
 8003f34:	687b      	ldr	r3, [r7, #4]
 8003f36:	2220      	movs	r2, #32
 8003f38:	f883 203d 	strb.w	r2, [r3, #61]	; 0x3d
  huart->RxState = HAL_UART_STATE_READY;
 8003f3c:	687b      	ldr	r3, [r7, #4]
 8003f3e:	2220      	movs	r2, #32
 8003f40:	f883 203e 	strb.w	r2, [r3, #62]	; 0x3e

  return HAL_OK;
 8003f44:	2300      	movs	r3, #0
}
 8003f46:	4618      	mov	r0, r3
 8003f48:	3708      	adds	r7, #8
 8003f4a:	46bd      	mov	sp, r7
 8003f4c:	bd80      	pop	{r7, pc}

08003f4e <HAL_UART_Transmit>:
  * @param  Size  Amount of data elements (u8 or u16) to be sent
  * @param  Timeout Timeout duration
  * @retval HAL status
  */
HAL_StatusTypeDef HAL_UART_Transmit(UART_HandleTypeDef *huart, uint8_t *pData, uint16_t Size, uint32_t Timeout)
{
 8003f4e:	b580      	push	{r7, lr}
 8003f50:	b08a      	sub	sp, #40	; 0x28
 8003f52:	af02      	add	r7, sp, #8
 8003f54:	60f8      	str	r0, [r7, #12]
 8003f56:	60b9      	str	r1, [r7, #8]
 8003f58:	603b      	str	r3, [r7, #0]
 8003f5a:	4613      	mov	r3, r2
 8003f5c:	80fb      	strh	r3, [r7, #6]
  uint8_t  *pdata8bits;
  uint16_t *pdata16bits;
  uint32_t tickstart = 0U;
 8003f5e:	2300      	movs	r3, #0
 8003f60:	617b      	str	r3, [r7, #20]

  /* Check that a Tx process is not already ongoing */
  if (huart->gState == HAL_UART_STATE_READY)
 8003f62:	68fb      	ldr	r3, [r7, #12]
 8003f64:	f893 303d 	ldrb.w	r3, [r3, #61]	; 0x3d
 8003f68:	b2db      	uxtb	r3, r3
 8003f6a:	2b20      	cmp	r3, #32
 8003f6c:	d17c      	bne.n	8004068 <HAL_UART_Transmit+0x11a>
  {
    if ((pData == NULL) || (Size == 0U))
 8003f6e:	68bb      	ldr	r3, [r7, #8]
 8003f70:	2b00      	cmp	r3, #0
 8003f72:	d002      	beq.n	8003f7a <HAL_UART_Transmit+0x2c>
 8003f74:	88fb      	ldrh	r3, [r7, #6]
 8003f76:	2b00      	cmp	r3, #0
 8003f78:	d101      	bne.n	8003f7e <HAL_UART_Transmit+0x30>
    {
      return  HAL_ERROR;
 8003f7a:	2301      	movs	r3, #1
 8003f7c:	e075      	b.n	800406a <HAL_UART_Transmit+0x11c>
    }

    /* Process Locked */
    __HAL_LOCK(huart);
 8003f7e:	68fb      	ldr	r3, [r7, #12]
 8003f80:	f893 303c 	ldrb.w	r3, [r3, #60]	; 0x3c
 8003f84:	2b01      	cmp	r3, #1
 8003f86:	d101      	bne.n	8003f8c <HAL_UART_Transmit+0x3e>
 8003f88:	2302      	movs	r3, #2
 8003f8a:	e06e      	b.n	800406a <HAL_UART_Transmit+0x11c>
 8003f8c:	68fb      	ldr	r3, [r7, #12]
 8003f8e:	2201      	movs	r2, #1
 8003f90:	f883 203c 	strb.w	r2, [r3, #60]	; 0x3c

    huart->ErrorCode = HAL_UART_ERROR_NONE;
 8003f94:	68fb      	ldr	r3, [r7, #12]
 8003f96:	2200      	movs	r2, #0
 8003f98:	641a      	str	r2, [r3, #64]	; 0x40
    huart->gState = HAL_UART_STATE_BUSY_TX;
 8003f9a:	68fb      	ldr	r3, [r7, #12]
 8003f9c:	2221      	movs	r2, #33	; 0x21
 8003f9e:	f883 203d 	strb.w	r2, [r3, #61]	; 0x3d

    /* Init tickstart for timeout management */
    tickstart = HAL_GetTick();
 8003fa2:	f7fd fe4f 	bl	8001c44 <HAL_GetTick>
 8003fa6:	6178      	str	r0, [r7, #20]

    huart->TxXferSize = Size;
 8003fa8:	68fb      	ldr	r3, [r7, #12]
 8003faa:	88fa      	ldrh	r2, [r7, #6]
 8003fac:	849a      	strh	r2, [r3, #36]	; 0x24
    huart->TxXferCount = Size;
 8003fae:	68fb      	ldr	r3, [r7, #12]
 8003fb0:	88fa      	ldrh	r2, [r7, #6]
 8003fb2:	84da      	strh	r2, [r3, #38]	; 0x26

    /* In case of 9bits/No Parity transfer, pData needs to be handled as a uint16_t pointer */
    if ((huart->Init.WordLength == UART_WORDLENGTH_9B) && (huart->Init.Parity == UART_PARITY_NONE))
 8003fb4:	68fb      	ldr	r3, [r7, #12]
 8003fb6:	689b      	ldr	r3, [r3, #8]
 8003fb8:	f5b3 5f80 	cmp.w	r3, #4096	; 0x1000
 8003fbc:	d108      	bne.n	8003fd0 <HAL_UART_Transmit+0x82>
 8003fbe:	68fb      	ldr	r3, [r7, #12]
 8003fc0:	691b      	ldr	r3, [r3, #16]
 8003fc2:	2b00      	cmp	r3, #0
 8003fc4:	d104      	bne.n	8003fd0 <HAL_UART_Transmit+0x82>
    {
      pdata8bits  = NULL;
 8003fc6:	2300      	movs	r3, #0
 8003fc8:	61fb      	str	r3, [r7, #28]
      pdata16bits = (uint16_t *) pData;
 8003fca:	68bb      	ldr	r3, [r7, #8]
 8003fcc:	61bb      	str	r3, [r7, #24]
 8003fce:	e003      	b.n	8003fd8 <HAL_UART_Transmit+0x8a>
    }
    else
    {
      pdata8bits  = pData;
 8003fd0:	68bb      	ldr	r3, [r7, #8]
 8003fd2:	61fb      	str	r3, [r7, #28]
      pdata16bits = NULL;
 8003fd4:	2300      	movs	r3, #0
 8003fd6:	61bb      	str	r3, [r7, #24]
    }

    /* Process Unlocked */
    __HAL_UNLOCK(huart);
 8003fd8:	68fb      	ldr	r3, [r7, #12]
 8003fda:	2200      	movs	r2, #0
 8003fdc:	f883 203c 	strb.w	r2, [r3, #60]	; 0x3c

    while (huart->TxXferCount > 0U)
 8003fe0:	e02a      	b.n	8004038 <HAL_UART_Transmit+0xea>
    {
      if (UART_WaitOnFlagUntilTimeout(huart, UART_FLAG_TXE, RESET, tickstart, Timeout) != HAL_OK)
 8003fe2:	683b      	ldr	r3, [r7, #0]
 8003fe4:	9300      	str	r3, [sp, #0]
 8003fe6:	697b      	ldr	r3, [r7, #20]
 8003fe8:	2200      	movs	r2, #0
 8003fea:	2180      	movs	r1, #128	; 0x80
 8003fec:	68f8      	ldr	r0, [r7, #12]
 8003fee:	f000 f840 	bl	8004072 <UART_WaitOnFlagUntilTimeout>
 8003ff2:	4603      	mov	r3, r0
 8003ff4:	2b00      	cmp	r3, #0
 8003ff6:	d001      	beq.n	8003ffc <HAL_UART_Transmit+0xae>
      {
        return HAL_TIMEOUT;
 8003ff8:	2303      	movs	r3, #3
 8003ffa:	e036      	b.n	800406a <HAL_UART_Transmit+0x11c>
      }
      if (pdata8bits == NULL)
 8003ffc:	69fb      	ldr	r3, [r7, #28]
 8003ffe:	2b00      	cmp	r3, #0
 8004000:	d10b      	bne.n	800401a <HAL_UART_Transmit+0xcc>
      {
        huart->Instance->DR = (uint16_t)(*pdata16bits & 0x01FFU);
 8004002:	69bb      	ldr	r3, [r7, #24]
 8004004:	881b      	ldrh	r3, [r3, #0]
 8004006:	461a      	mov	r2, r3
 8004008:	68fb      	ldr	r3, [r7, #12]
 800400a:	681b      	ldr	r3, [r3, #0]
 800400c:	f3c2 0208 	ubfx	r2, r2, #0, #9
 8004010:	605a      	str	r2, [r3, #4]
        pdata16bits++;
 8004012:	69bb      	ldr	r3, [r7, #24]
 8004014:	3302      	adds	r3, #2
 8004016:	61bb      	str	r3, [r7, #24]
 8004018:	e007      	b.n	800402a <HAL_UART_Transmit+0xdc>
      }
      else
      {
        huart->Instance->DR = (uint8_t)(*pdata8bits & 0xFFU);
 800401a:	69fb      	ldr	r3, [r7, #28]
 800401c:	781a      	ldrb	r2, [r3, #0]
 800401e:	68fb      	ldr	r3, [r7, #12]
 8004020:	681b      	ldr	r3, [r3, #0]
 8004022:	605a      	str	r2, [r3, #4]
        pdata8bits++;
 8004024:	69fb      	ldr	r3, [r7, #28]
 8004026:	3301      	adds	r3, #1
 8004028:	61fb      	str	r3, [r7, #28]
      }
      huart->TxXferCount--;
 800402a:	68fb      	ldr	r3, [r7, #12]
 800402c:	8cdb      	ldrh	r3, [r3, #38]	; 0x26
 800402e:	b29b      	uxth	r3, r3
 8004030:	3b01      	subs	r3, #1
 8004032:	b29a      	uxth	r2, r3
 8004034:	68fb      	ldr	r3, [r7, #12]
 8004036:	84da      	strh	r2, [r3, #38]	; 0x26
    while (huart->TxXferCount > 0U)
 8004038:	68fb      	ldr	r3, [r7, #12]
 800403a:	8cdb      	ldrh	r3, [r3, #38]	; 0x26
 800403c:	b29b      	uxth	r3, r3
 800403e:	2b00      	cmp	r3, #0
 8004040:	d1cf      	bne.n	8003fe2 <HAL_UART_Transmit+0x94>
    }

    if (UART_WaitOnFlagUntilTimeout(huart, UART_FLAG_TC, RESET, tickstart, Timeout) != HAL_OK)
 8004042:	683b      	ldr	r3, [r7, #0]
 8004044:	9300      	str	r3, [sp, #0]
 8004046:	697b      	ldr	r3, [r7, #20]
 8004048:	2200      	movs	r2, #0
 800404a:	2140      	movs	r1, #64	; 0x40
 800404c:	68f8      	ldr	r0, [r7, #12]
 800404e:	f000 f810 	bl	8004072 <UART_WaitOnFlagUntilTimeout>
 8004052:	4603      	mov	r3, r0
 8004054:	2b00      	cmp	r3, #0
 8004056:	d001      	beq.n	800405c <HAL_UART_Transmit+0x10e>
    {
      return HAL_TIMEOUT;
 8004058:	2303      	movs	r3, #3
 800405a:	e006      	b.n	800406a <HAL_UART_Transmit+0x11c>
    }

    /* At end of Tx process, restore huart->gState to Ready */
    huart->gState = HAL_UART_STATE_READY;
 800405c:	68fb      	ldr	r3, [r7, #12]
 800405e:	2220      	movs	r2, #32
 8004060:	f883 203d 	strb.w	r2, [r3, #61]	; 0x3d

    return HAL_OK;
 8004064:	2300      	movs	r3, #0
 8004066:	e000      	b.n	800406a <HAL_UART_Transmit+0x11c>
  }
  else
  {
    return HAL_BUSY;
 8004068:	2302      	movs	r3, #2
  }
}
 800406a:	4618      	mov	r0, r3
 800406c:	3720      	adds	r7, #32
 800406e:	46bd      	mov	sp, r7
 8004070:	bd80      	pop	{r7, pc}

08004072 <UART_WaitOnFlagUntilTimeout>:
  * @param  Tickstart Tick start value
  * @param  Timeout Timeout duration
  * @retval HAL status
  */
static HAL_StatusTypeDef UART_WaitOnFlagUntilTimeout(UART_HandleTypeDef *huart, uint32_t Flag, FlagStatus Status, uint32_t Tickstart, uint32_t Timeout)
{
 8004072:	b580      	push	{r7, lr}
 8004074:	b084      	sub	sp, #16
 8004076:	af00      	add	r7, sp, #0
 8004078:	60f8      	str	r0, [r7, #12]
 800407a:	60b9      	str	r1, [r7, #8]
 800407c:	603b      	str	r3, [r7, #0]
 800407e:	4613      	mov	r3, r2
 8004080:	71fb      	strb	r3, [r7, #7]
  /* Wait until flag is set */
  while ((__HAL_UART_GET_FLAG(huart, Flag) ? SET : RESET) == Status)
 8004082:	e02c      	b.n	80040de <UART_WaitOnFlagUntilTimeout+0x6c>
  {
    /* Check for the Timeout */
    if (Timeout != HAL_MAX_DELAY)
 8004084:	69bb      	ldr	r3, [r7, #24]
 8004086:	f1b3 3fff 	cmp.w	r3, #4294967295
 800408a:	d028      	beq.n	80040de <UART_WaitOnFlagUntilTimeout+0x6c>
    {
      if ((Timeout == 0U) || ((HAL_GetTick() - Tickstart) > Timeout))
 800408c:	69bb      	ldr	r3, [r7, #24]
 800408e:	2b00      	cmp	r3, #0
 8004090:	d007      	beq.n	80040a2 <UART_WaitOnFlagUntilTimeout+0x30>
 8004092:	f7fd fdd7 	bl	8001c44 <HAL_GetTick>
 8004096:	4602      	mov	r2, r0
 8004098:	683b      	ldr	r3, [r7, #0]
 800409a:	1ad3      	subs	r3, r2, r3
 800409c:	69ba      	ldr	r2, [r7, #24]
 800409e:	429a      	cmp	r2, r3
 80040a0:	d21d      	bcs.n	80040de <UART_WaitOnFlagUntilTimeout+0x6c>
      {
        /* Disable TXE, RXNE, PE and ERR (Frame error, noise error, overrun error) interrupts for the interrupt process */
        CLEAR_BIT(huart->Instance->CR1, (USART_CR1_RXNEIE | USART_CR1_PEIE | USART_CR1_TXEIE));
 80040a2:	68fb      	ldr	r3, [r7, #12]
 80040a4:	681b      	ldr	r3, [r3, #0]
 80040a6:	68da      	ldr	r2, [r3, #12]
 80040a8:	68fb      	ldr	r3, [r7, #12]
 80040aa:	681b      	ldr	r3, [r3, #0]
 80040ac:	f422 72d0 	bic.w	r2, r2, #416	; 0x1a0
 80040b0:	60da      	str	r2, [r3, #12]
        CLEAR_BIT(huart->Instance->CR3, USART_CR3_EIE);
 80040b2:	68fb      	ldr	r3, [r7, #12]
 80040b4:	681b      	ldr	r3, [r3, #0]
 80040b6:	695a      	ldr	r2, [r3, #20]
 80040b8:	68fb      	ldr	r3, [r7, #12]
 80040ba:	681b      	ldr	r3, [r3, #0]
 80040bc:	f022 0201 	bic.w	r2, r2, #1
 80040c0:	615a      	str	r2, [r3, #20]

        huart->gState  = HAL_UART_STATE_READY;
 80040c2:	68fb      	ldr	r3, [r7, #12]
 80040c4:	2220      	movs	r2, #32
 80040c6:	f883 203d 	strb.w	r2, [r3, #61]	; 0x3d
        huart->RxState = HAL_UART_STATE_READY;
 80040ca:	68fb      	ldr	r3, [r7, #12]
 80040cc:	2220      	movs	r2, #32
 80040ce:	f883 203e 	strb.w	r2, [r3, #62]	; 0x3e

        /* Process Unlocked */
        __HAL_UNLOCK(huart);
 80040d2:	68fb      	ldr	r3, [r7, #12]
 80040d4:	2200      	movs	r2, #0
 80040d6:	f883 203c 	strb.w	r2, [r3, #60]	; 0x3c

        return HAL_TIMEOUT;
 80040da:	2303      	movs	r3, #3
 80040dc:	e00f      	b.n	80040fe <UART_WaitOnFlagUntilTimeout+0x8c>
  while ((__HAL_UART_GET_FLAG(huart, Flag) ? SET : RESET) == Status)
 80040de:	68fb      	ldr	r3, [r7, #12]
 80040e0:	681b      	ldr	r3, [r3, #0]
 80040e2:	681a      	ldr	r2, [r3, #0]
 80040e4:	68bb      	ldr	r3, [r7, #8]
 80040e6:	4013      	ands	r3, r2
 80040e8:	68ba      	ldr	r2, [r7, #8]
 80040ea:	429a      	cmp	r2, r3
 80040ec:	bf0c      	ite	eq
 80040ee:	2301      	moveq	r3, #1
 80040f0:	2300      	movne	r3, #0
 80040f2:	b2db      	uxtb	r3, r3
 80040f4:	461a      	mov	r2, r3
 80040f6:	79fb      	ldrb	r3, [r7, #7]
 80040f8:	429a      	cmp	r2, r3
 80040fa:	d0c3      	beq.n	8004084 <UART_WaitOnFlagUntilTimeout+0x12>
      }
    }
  }
  return HAL_OK;
 80040fc:	2300      	movs	r3, #0
}
 80040fe:	4618      	mov	r0, r3
 8004100:	3710      	adds	r7, #16
 8004102:	46bd      	mov	sp, r7
 8004104:	bd80      	pop	{r7, pc}
	...

08004108 <UART_SetConfig>:
  * @param  huart  Pointer to a UART_HandleTypeDef structure that contains
  *                the configuration information for the specified UART module.
  * @retval None
  */
static void UART_SetConfig(UART_HandleTypeDef *huart)
{
 8004108:	e92d 4ff0 	stmdb	sp!, {r4, r5, r6, r7, r8, r9, sl, fp, lr}
 800410c:	b09f      	sub	sp, #124	; 0x7c
 800410e:	af00      	add	r7, sp, #0
 8004110:	66f8      	str	r0, [r7, #108]	; 0x6c
  assert_param(IS_UART_MODE(huart->Init.Mode));

  /*-------------------------- USART CR2 Configuration -----------------------*/
  /* Configure the UART Stop Bits: Set STOP[13:12] bits
     according to huart->Init.StopBits value */
  MODIFY_REG(huart->Instance->CR2, USART_CR2_STOP, huart->Init.StopBits);
 8004112:	6efb      	ldr	r3, [r7, #108]	; 0x6c
 8004114:	681b      	ldr	r3, [r3, #0]
 8004116:	691b      	ldr	r3, [r3, #16]
 8004118:	f423 5040 	bic.w	r0, r3, #12288	; 0x3000
 800411c:	6efb      	ldr	r3, [r7, #108]	; 0x6c
 800411e:	68d9      	ldr	r1, [r3, #12]
 8004120:	6efb      	ldr	r3, [r7, #108]	; 0x6c
 8004122:	681a      	ldr	r2, [r3, #0]
 8004124:	ea40 0301 	orr.w	r3, r0, r1
 8004128:	6113      	str	r3, [r2, #16]
     Set the M bits according to huart->Init.WordLength value
     Set PCE and PS bits according to huart->Init.Parity value
     Set TE and RE bits according to huart->Init.Mode value
     Set OVER8 bit according to huart->Init.OverSampling value */

  tmpreg = (uint32_t)huart->Init.WordLength | huart->Init.Parity | huart->Init.Mode | huart->Init.OverSampling;
 800412a:	6efb      	ldr	r3, [r7, #108]	; 0x6c
 800412c:	689a      	ldr	r2, [r3, #8]
 800412e:	6efb      	ldr	r3, [r7, #108]	; 0x6c
 8004130:	691b      	ldr	r3, [r3, #16]
 8004132:	431a      	orrs	r2, r3
 8004134:	6efb      	ldr	r3, [r7, #108]	; 0x6c
 8004136:	695b      	ldr	r3, [r3, #20]
 8004138:	431a      	orrs	r2, r3
 800413a:	6efb      	ldr	r3, [r7, #108]	; 0x6c
 800413c:	69db      	ldr	r3, [r3, #28]
 800413e:	4313      	orrs	r3, r2
 8004140:	673b      	str	r3, [r7, #112]	; 0x70
  MODIFY_REG(huart->Instance->CR1,
 8004142:	6efb      	ldr	r3, [r7, #108]	; 0x6c
 8004144:	681b      	ldr	r3, [r3, #0]
 8004146:	68db      	ldr	r3, [r3, #12]
 8004148:	f423 4116 	bic.w	r1, r3, #38400	; 0x9600
 800414c:	f021 010c 	bic.w	r1, r1, #12
 8004150:	6efb      	ldr	r3, [r7, #108]	; 0x6c
 8004152:	681a      	ldr	r2, [r3, #0]
 8004154:	6f3b      	ldr	r3, [r7, #112]	; 0x70
 8004156:	430b      	orrs	r3, r1
 8004158:	60d3      	str	r3, [r2, #12]
             (uint32_t)(USART_CR1_M | USART_CR1_PCE | USART_CR1_PS | USART_CR1_TE | USART_CR1_RE | USART_CR1_OVER8),
             tmpreg);

  /*-------------------------- USART CR3 Configuration -----------------------*/
  /* Configure the UART HFC: Set CTSE and RTSE bits according to huart->Init.HwFlowCtl value */
  MODIFY_REG(huart->Instance->CR3, (USART_CR3_RTSE | USART_CR3_CTSE), huart->Init.HwFlowCtl);
 800415a:	6efb      	ldr	r3, [r7, #108]	; 0x6c
 800415c:	681b      	ldr	r3, [r3, #0]
 800415e:	695b      	ldr	r3, [r3, #20]
 8004160:	f423 7040 	bic.w	r0, r3, #768	; 0x300
 8004164:	6efb      	ldr	r3, [r7, #108]	; 0x6c
 8004166:	6999      	ldr	r1, [r3, #24]
 8004168:	6efb      	ldr	r3, [r7, #108]	; 0x6c
 800416a:	681a      	ldr	r2, [r3, #0]
 800416c:	ea40 0301 	orr.w	r3, r0, r1
 8004170:	6153      	str	r3, [r2, #20]
    if ((huart->Instance == USART1) || (huart->Instance == USART6) || (huart->Instance == UART9) || (huart->Instance == UART10))
    {
      pclk = HAL_RCC_GetPCLK2Freq();
    }
#elif defined(USART6)
    if ((huart->Instance == USART1) || (huart->Instance == USART6))
 8004172:	6efb      	ldr	r3, [r7, #108]	; 0x6c
 8004174:	681a      	ldr	r2, [r3, #0]
 8004176:	4bc5      	ldr	r3, [pc, #788]	; (800448c <UART_SetConfig+0x384>)
 8004178:	429a      	cmp	r2, r3
 800417a:	d004      	beq.n	8004186 <UART_SetConfig+0x7e>
 800417c:	6efb      	ldr	r3, [r7, #108]	; 0x6c
 800417e:	681a      	ldr	r2, [r3, #0]
 8004180:	4bc3      	ldr	r3, [pc, #780]	; (8004490 <UART_SetConfig+0x388>)
 8004182:	429a      	cmp	r2, r3
 8004184:	d103      	bne.n	800418e <UART_SetConfig+0x86>
    {
      pclk = HAL_RCC_GetPCLK2Freq();
 8004186:	f7fe ff5d 	bl	8003044 <HAL_RCC_GetPCLK2Freq>
 800418a:	6778      	str	r0, [r7, #116]	; 0x74
 800418c:	e002      	b.n	8004194 <UART_SetConfig+0x8c>
      pclk = HAL_RCC_GetPCLK2Freq();
    }
#endif /* USART6 */
    else
    {
      pclk = HAL_RCC_GetPCLK1Freq();
 800418e:	f7fe ff45 	bl	800301c <HAL_RCC_GetPCLK1Freq>
 8004192:	6778      	str	r0, [r7, #116]	; 0x74
    }
  /*-------------------------- USART BRR Configuration ---------------------*/
  if (huart->Init.OverSampling == UART_OVERSAMPLING_8)
 8004194:	6efb      	ldr	r3, [r7, #108]	; 0x6c
 8004196:	69db      	ldr	r3, [r3, #28]
 8004198:	f5b3 4f00 	cmp.w	r3, #32768	; 0x8000
 800419c:	f040 80b6 	bne.w	800430c <UART_SetConfig+0x204>
  {
    huart->Instance->BRR = UART_BRR_SAMPLING8(pclk, huart->Init.BaudRate);
 80041a0:	6f7b      	ldr	r3, [r7, #116]	; 0x74
 80041a2:	461c      	mov	r4, r3
 80041a4:	f04f 0500 	mov.w	r5, #0
 80041a8:	4622      	mov	r2, r4
 80041aa:	462b      	mov	r3, r5
 80041ac:	1891      	adds	r1, r2, r2
 80041ae:	6439      	str	r1, [r7, #64]	; 0x40
 80041b0:	415b      	adcs	r3, r3
 80041b2:	647b      	str	r3, [r7, #68]	; 0x44
 80041b4:	e9d7 2310 	ldrd	r2, r3, [r7, #64]	; 0x40
 80041b8:	1912      	adds	r2, r2, r4
 80041ba:	eb45 0303 	adc.w	r3, r5, r3
 80041be:	f04f 0000 	mov.w	r0, #0
 80041c2:	f04f 0100 	mov.w	r1, #0
 80041c6:	00d9      	lsls	r1, r3, #3
 80041c8:	ea41 7152 	orr.w	r1, r1, r2, lsr #29
 80041cc:	00d0      	lsls	r0, r2, #3
 80041ce:	4602      	mov	r2, r0
 80041d0:	460b      	mov	r3, r1
 80041d2:	1911      	adds	r1, r2, r4
 80041d4:	6639      	str	r1, [r7, #96]	; 0x60
 80041d6:	416b      	adcs	r3, r5
 80041d8:	667b      	str	r3, [r7, #100]	; 0x64
 80041da:	6efb      	ldr	r3, [r7, #108]	; 0x6c
 80041dc:	685b      	ldr	r3, [r3, #4]
 80041de:	461a      	mov	r2, r3
 80041e0:	f04f 0300 	mov.w	r3, #0
 80041e4:	1891      	adds	r1, r2, r2
 80041e6:	63b9      	str	r1, [r7, #56]	; 0x38
 80041e8:	415b      	adcs	r3, r3
 80041ea:	63fb      	str	r3, [r7, #60]	; 0x3c
 80041ec:	e9d7 230e 	ldrd	r2, r3, [r7, #56]	; 0x38
 80041f0:	e9d7 0118 	ldrd	r0, r1, [r7, #96]	; 0x60
 80041f4:	f7fc fd48 	bl	8000c88 <__aeabi_uldivmod>
 80041f8:	4602      	mov	r2, r0
 80041fa:	460b      	mov	r3, r1
 80041fc:	4ba5      	ldr	r3, [pc, #660]	; (8004494 <UART_SetConfig+0x38c>)
 80041fe:	fba3 2302 	umull	r2, r3, r3, r2
 8004202:	095b      	lsrs	r3, r3, #5
 8004204:	011e      	lsls	r6, r3, #4
 8004206:	6f7b      	ldr	r3, [r7, #116]	; 0x74
 8004208:	461c      	mov	r4, r3
 800420a:	f04f 0500 	mov.w	r5, #0
 800420e:	4622      	mov	r2, r4
 8004210:	462b      	mov	r3, r5
 8004212:	1891      	adds	r1, r2, r2
 8004214:	6339      	str	r1, [r7, #48]	; 0x30
 8004216:	415b      	adcs	r3, r3
 8004218:	637b      	str	r3, [r7, #52]	; 0x34
 800421a:	e9d7 230c 	ldrd	r2, r3, [r7, #48]	; 0x30
 800421e:	1912      	adds	r2, r2, r4
 8004220:	eb45 0303 	adc.w	r3, r5, r3
 8004224:	f04f 0000 	mov.w	r0, #0
 8004228:	f04f 0100 	mov.w	r1, #0
 800422c:	00d9      	lsls	r1, r3, #3
 800422e:	ea41 7152 	orr.w	r1, r1, r2, lsr #29
 8004232:	00d0      	lsls	r0, r2, #3
 8004234:	4602      	mov	r2, r0
 8004236:	460b      	mov	r3, r1
 8004238:	1911      	adds	r1, r2, r4
 800423a:	65b9      	str	r1, [r7, #88]	; 0x58
 800423c:	416b      	adcs	r3, r5
 800423e:	65fb      	str	r3, [r7, #92]	; 0x5c
 8004240:	6efb      	ldr	r3, [r7, #108]	; 0x6c
 8004242:	685b      	ldr	r3, [r3, #4]
 8004244:	461a      	mov	r2, r3
 8004246:	f04f 0300 	mov.w	r3, #0
 800424a:	1891      	adds	r1, r2, r2
 800424c:	62b9      	str	r1, [r7, #40]	; 0x28
 800424e:	415b      	adcs	r3, r3
 8004250:	62fb      	str	r3, [r7, #44]	; 0x2c
 8004252:	e9d7 230a 	ldrd	r2, r3, [r7, #40]	; 0x28
 8004256:	e9d7 0116 	ldrd	r0, r1, [r7, #88]	; 0x58
 800425a:	f7fc fd15 	bl	8000c88 <__aeabi_uldivmod>
 800425e:	4602      	mov	r2, r0
 8004260:	460b      	mov	r3, r1
 8004262:	4b8c      	ldr	r3, [pc, #560]	; (8004494 <UART_SetConfig+0x38c>)
 8004264:	fba3 1302 	umull	r1, r3, r3, r2
 8004268:	095b      	lsrs	r3, r3, #5
 800426a:	2164      	movs	r1, #100	; 0x64
 800426c:	fb01 f303 	mul.w	r3, r1, r3
 8004270:	1ad3      	subs	r3, r2, r3
 8004272:	00db      	lsls	r3, r3, #3
 8004274:	3332      	adds	r3, #50	; 0x32
 8004276:	4a87      	ldr	r2, [pc, #540]	; (8004494 <UART_SetConfig+0x38c>)
 8004278:	fba2 2303 	umull	r2, r3, r2, r3
 800427c:	095b      	lsrs	r3, r3, #5
 800427e:	005b      	lsls	r3, r3, #1
 8004280:	f403 73f8 	and.w	r3, r3, #496	; 0x1f0
 8004284:	441e      	add	r6, r3
 8004286:	6f7b      	ldr	r3, [r7, #116]	; 0x74
 8004288:	4618      	mov	r0, r3
 800428a:	f04f 0100 	mov.w	r1, #0
 800428e:	4602      	mov	r2, r0
 8004290:	460b      	mov	r3, r1
 8004292:	1894      	adds	r4, r2, r2
 8004294:	623c      	str	r4, [r7, #32]
 8004296:	415b      	adcs	r3, r3
 8004298:	627b      	str	r3, [r7, #36]	; 0x24
 800429a:	e9d7 2308 	ldrd	r2, r3, [r7, #32]
 800429e:	1812      	adds	r2, r2, r0
 80042a0:	eb41 0303 	adc.w	r3, r1, r3
 80042a4:	f04f 0400 	mov.w	r4, #0
 80042a8:	f04f 0500 	mov.w	r5, #0
 80042ac:	00dd      	lsls	r5, r3, #3
 80042ae:	ea45 7552 	orr.w	r5, r5, r2, lsr #29
 80042b2:	00d4      	lsls	r4, r2, #3
 80042b4:	4622      	mov	r2, r4
 80042b6:	462b      	mov	r3, r5
 80042b8:	1814      	adds	r4, r2, r0
 80042ba:	653c      	str	r4, [r7, #80]	; 0x50
 80042bc:	414b      	adcs	r3, r1
 80042be:	657b      	str	r3, [r7, #84]	; 0x54
 80042c0:	6efb      	ldr	r3, [r7, #108]	; 0x6c
 80042c2:	685b      	ldr	r3, [r3, #4]
 80042c4:	461a      	mov	r2, r3
 80042c6:	f04f 0300 	mov.w	r3, #0
 80042ca:	1891      	adds	r1, r2, r2
 80042cc:	61b9      	str	r1, [r7, #24]
 80042ce:	415b      	adcs	r3, r3
 80042d0:	61fb      	str	r3, [r7, #28]
 80042d2:	e9d7 2306 	ldrd	r2, r3, [r7, #24]
 80042d6:	e9d7 0114 	ldrd	r0, r1, [r7, #80]	; 0x50
 80042da:	f7fc fcd5 	bl	8000c88 <__aeabi_uldivmod>
 80042de:	4602      	mov	r2, r0
 80042e0:	460b      	mov	r3, r1
 80042e2:	4b6c      	ldr	r3, [pc, #432]	; (8004494 <UART_SetConfig+0x38c>)
 80042e4:	fba3 1302 	umull	r1, r3, r3, r2
 80042e8:	095b      	lsrs	r3, r3, #5
 80042ea:	2164      	movs	r1, #100	; 0x64
 80042ec:	fb01 f303 	mul.w	r3, r1, r3
 80042f0:	1ad3      	subs	r3, r2, r3
 80042f2:	00db      	lsls	r3, r3, #3
 80042f4:	3332      	adds	r3, #50	; 0x32
 80042f6:	4a67      	ldr	r2, [pc, #412]	; (8004494 <UART_SetConfig+0x38c>)
 80042f8:	fba2 2303 	umull	r2, r3, r2, r3
 80042fc:	095b      	lsrs	r3, r3, #5
 80042fe:	f003 0207 	and.w	r2, r3, #7
 8004302:	6efb      	ldr	r3, [r7, #108]	; 0x6c
 8004304:	681b      	ldr	r3, [r3, #0]
 8004306:	4432      	add	r2, r6
 8004308:	609a      	str	r2, [r3, #8]
  }
  else
  {
    huart->Instance->BRR = UART_BRR_SAMPLING16(pclk, huart->Init.BaudRate);
  }
}
 800430a:	e0b9      	b.n	8004480 <UART_SetConfig+0x378>
    huart->Instance->BRR = UART_BRR_SAMPLING16(pclk, huart->Init.BaudRate);
 800430c:	6f7b      	ldr	r3, [r7, #116]	; 0x74
 800430e:	461c      	mov	r4, r3
 8004310:	f04f 0500 	mov.w	r5, #0
 8004314:	4622      	mov	r2, r4
 8004316:	462b      	mov	r3, r5
 8004318:	1891      	adds	r1, r2, r2
 800431a:	6139      	str	r1, [r7, #16]
 800431c:	415b      	adcs	r3, r3
 800431e:	617b      	str	r3, [r7, #20]
 8004320:	e9d7 2304 	ldrd	r2, r3, [r7, #16]
 8004324:	1912      	adds	r2, r2, r4
 8004326:	eb45 0303 	adc.w	r3, r5, r3
 800432a:	f04f 0000 	mov.w	r0, #0
 800432e:	f04f 0100 	mov.w	r1, #0
 8004332:	00d9      	lsls	r1, r3, #3
 8004334:	ea41 7152 	orr.w	r1, r1, r2, lsr #29
 8004338:	00d0      	lsls	r0, r2, #3
 800433a:	4602      	mov	r2, r0
 800433c:	460b      	mov	r3, r1
 800433e:	eb12 0804 	adds.w	r8, r2, r4
 8004342:	eb43 0905 	adc.w	r9, r3, r5
 8004346:	6efb      	ldr	r3, [r7, #108]	; 0x6c
 8004348:	685b      	ldr	r3, [r3, #4]
 800434a:	4618      	mov	r0, r3
 800434c:	f04f 0100 	mov.w	r1, #0
 8004350:	f04f 0200 	mov.w	r2, #0
 8004354:	f04f 0300 	mov.w	r3, #0
 8004358:	008b      	lsls	r3, r1, #2
 800435a:	ea43 7390 	orr.w	r3, r3, r0, lsr #30
 800435e:	0082      	lsls	r2, r0, #2
 8004360:	4640      	mov	r0, r8
 8004362:	4649      	mov	r1, r9
 8004364:	f7fc fc90 	bl	8000c88 <__aeabi_uldivmod>
 8004368:	4602      	mov	r2, r0
 800436a:	460b      	mov	r3, r1
 800436c:	4b49      	ldr	r3, [pc, #292]	; (8004494 <UART_SetConfig+0x38c>)
 800436e:	fba3 2302 	umull	r2, r3, r3, r2
 8004372:	095b      	lsrs	r3, r3, #5
 8004374:	011e      	lsls	r6, r3, #4
 8004376:	6f7b      	ldr	r3, [r7, #116]	; 0x74
 8004378:	4618      	mov	r0, r3
 800437a:	f04f 0100 	mov.w	r1, #0
 800437e:	4602      	mov	r2, r0
 8004380:	460b      	mov	r3, r1
 8004382:	1894      	adds	r4, r2, r2
 8004384:	60bc      	str	r4, [r7, #8]
 8004386:	415b      	adcs	r3, r3
 8004388:	60fb      	str	r3, [r7, #12]
 800438a:	e9d7 2302 	ldrd	r2, r3, [r7, #8]
 800438e:	1812      	adds	r2, r2, r0
 8004390:	eb41 0303 	adc.w	r3, r1, r3
 8004394:	f04f 0400 	mov.w	r4, #0
 8004398:	f04f 0500 	mov.w	r5, #0
 800439c:	00dd      	lsls	r5, r3, #3
 800439e:	ea45 7552 	orr.w	r5, r5, r2, lsr #29
 80043a2:	00d4      	lsls	r4, r2, #3
 80043a4:	4622      	mov	r2, r4
 80043a6:	462b      	mov	r3, r5
 80043a8:	1814      	adds	r4, r2, r0
 80043aa:	64bc      	str	r4, [r7, #72]	; 0x48
 80043ac:	414b      	adcs	r3, r1
 80043ae:	64fb      	str	r3, [r7, #76]	; 0x4c
 80043b0:	6efb      	ldr	r3, [r7, #108]	; 0x6c
 80043b2:	685b      	ldr	r3, [r3, #4]
 80043b4:	4618      	mov	r0, r3
 80043b6:	f04f 0100 	mov.w	r1, #0
 80043ba:	f04f 0200 	mov.w	r2, #0
 80043be:	f04f 0300 	mov.w	r3, #0
 80043c2:	008b      	lsls	r3, r1, #2
 80043c4:	ea43 7390 	orr.w	r3, r3, r0, lsr #30
 80043c8:	0082      	lsls	r2, r0, #2
 80043ca:	e9d7 0112 	ldrd	r0, r1, [r7, #72]	; 0x48
 80043ce:	f7fc fc5b 	bl	8000c88 <__aeabi_uldivmod>
 80043d2:	4602      	mov	r2, r0
 80043d4:	460b      	mov	r3, r1
 80043d6:	4b2f      	ldr	r3, [pc, #188]	; (8004494 <UART_SetConfig+0x38c>)
 80043d8:	fba3 1302 	umull	r1, r3, r3, r2
 80043dc:	095b      	lsrs	r3, r3, #5
 80043de:	2164      	movs	r1, #100	; 0x64
 80043e0:	fb01 f303 	mul.w	r3, r1, r3
 80043e4:	1ad3      	subs	r3, r2, r3
 80043e6:	011b      	lsls	r3, r3, #4
 80043e8:	3332      	adds	r3, #50	; 0x32
 80043ea:	4a2a      	ldr	r2, [pc, #168]	; (8004494 <UART_SetConfig+0x38c>)
 80043ec:	fba2 2303 	umull	r2, r3, r2, r3
 80043f0:	095b      	lsrs	r3, r3, #5
 80043f2:	f003 03f0 	and.w	r3, r3, #240	; 0xf0
 80043f6:	441e      	add	r6, r3
 80043f8:	6f7b      	ldr	r3, [r7, #116]	; 0x74
 80043fa:	4618      	mov	r0, r3
 80043fc:	f04f 0100 	mov.w	r1, #0
 8004400:	4602      	mov	r2, r0
 8004402:	460b      	mov	r3, r1
 8004404:	1894      	adds	r4, r2, r2
 8004406:	603c      	str	r4, [r7, #0]
 8004408:	415b      	adcs	r3, r3
 800440a:	607b      	str	r3, [r7, #4]
 800440c:	e9d7 2300 	ldrd	r2, r3, [r7]
 8004410:	1812      	adds	r2, r2, r0
 8004412:	eb41 0303 	adc.w	r3, r1, r3
 8004416:	f04f 0400 	mov.w	r4, #0
 800441a:	f04f 0500 	mov.w	r5, #0
 800441e:	00dd      	lsls	r5, r3, #3
 8004420:	ea45 7552 	orr.w	r5, r5, r2, lsr #29
 8004424:	00d4      	lsls	r4, r2, #3
 8004426:	4622      	mov	r2, r4
 8004428:	462b      	mov	r3, r5
 800442a:	eb12 0a00 	adds.w	sl, r2, r0
 800442e:	eb43 0b01 	adc.w	fp, r3, r1
 8004432:	6efb      	ldr	r3, [r7, #108]	; 0x6c
 8004434:	685b      	ldr	r3, [r3, #4]
 8004436:	4618      	mov	r0, r3
 8004438:	f04f 0100 	mov.w	r1, #0
 800443c:	f04f 0200 	mov.w	r2, #0
 8004440:	f04f 0300 	mov.w	r3, #0
 8004444:	008b      	lsls	r3, r1, #2
 8004446:	ea43 7390 	orr.w	r3, r3, r0, lsr #30
 800444a:	0082      	lsls	r2, r0, #2
 800444c:	4650      	mov	r0, sl
 800444e:	4659      	mov	r1, fp
 8004450:	f7fc fc1a 	bl	8000c88 <__aeabi_uldivmod>
 8004454:	4602      	mov	r2, r0
 8004456:	460b      	mov	r3, r1
 8004458:	4b0e      	ldr	r3, [pc, #56]	; (8004494 <UART_SetConfig+0x38c>)
 800445a:	fba3 1302 	umull	r1, r3, r3, r2
 800445e:	095b      	lsrs	r3, r3, #5
 8004460:	2164      	movs	r1, #100	; 0x64
 8004462:	fb01 f303 	mul.w	r3, r1, r3
 8004466:	1ad3      	subs	r3, r2, r3
 8004468:	011b      	lsls	r3, r3, #4
 800446a:	3332      	adds	r3, #50	; 0x32
 800446c:	4a09      	ldr	r2, [pc, #36]	; (8004494 <UART_SetConfig+0x38c>)
 800446e:	fba2 2303 	umull	r2, r3, r2, r3
 8004472:	095b      	lsrs	r3, r3, #5
 8004474:	f003 020f 	and.w	r2, r3, #15
 8004478:	6efb      	ldr	r3, [r7, #108]	; 0x6c
 800447a:	681b      	ldr	r3, [r3, #0]
 800447c:	4432      	add	r2, r6
 800447e:	609a      	str	r2, [r3, #8]
}
 8004480:	bf00      	nop
 8004482:	377c      	adds	r7, #124	; 0x7c
 8004484:	46bd      	mov	sp, r7
 8004486:	e8bd 8ff0 	ldmia.w	sp!, {r4, r5, r6, r7, r8, r9, sl, fp, pc}
 800448a:	bf00      	nop
 800448c:	40011000 	.word	0x40011000
 8004490:	40011400 	.word	0x40011400
 8004494:	51eb851f 	.word	0x51eb851f

08004498 <__errno>:
 8004498:	4b01      	ldr	r3, [pc, #4]	; (80044a0 <__errno+0x8>)
 800449a:	6818      	ldr	r0, [r3, #0]
 800449c:	4770      	bx	lr
 800449e:	bf00      	nop
 80044a0:	2000000c 	.word	0x2000000c

080044a4 <__libc_init_array>:
 80044a4:	b570      	push	{r4, r5, r6, lr}
 80044a6:	4d0d      	ldr	r5, [pc, #52]	; (80044dc <__libc_init_array+0x38>)
 80044a8:	4c0d      	ldr	r4, [pc, #52]	; (80044e0 <__libc_init_array+0x3c>)
 80044aa:	1b64      	subs	r4, r4, r5
 80044ac:	10a4      	asrs	r4, r4, #2
 80044ae:	2600      	movs	r6, #0
 80044b0:	42a6      	cmp	r6, r4
 80044b2:	d109      	bne.n	80044c8 <__libc_init_array+0x24>
 80044b4:	4d0b      	ldr	r5, [pc, #44]	; (80044e4 <__libc_init_array+0x40>)
 80044b6:	4c0c      	ldr	r4, [pc, #48]	; (80044e8 <__libc_init_array+0x44>)
 80044b8:	f002 feb4 	bl	8007224 <_init>
 80044bc:	1b64      	subs	r4, r4, r5
 80044be:	10a4      	asrs	r4, r4, #2
 80044c0:	2600      	movs	r6, #0
 80044c2:	42a6      	cmp	r6, r4
 80044c4:	d105      	bne.n	80044d2 <__libc_init_array+0x2e>
 80044c6:	bd70      	pop	{r4, r5, r6, pc}
 80044c8:	f855 3b04 	ldr.w	r3, [r5], #4
 80044cc:	4798      	blx	r3
 80044ce:	3601      	adds	r6, #1
 80044d0:	e7ee      	b.n	80044b0 <__libc_init_array+0xc>
 80044d2:	f855 3b04 	ldr.w	r3, [r5], #4
 80044d6:	4798      	blx	r3
 80044d8:	3601      	adds	r6, #1
 80044da:	e7f2      	b.n	80044c2 <__libc_init_array+0x1e>
 80044dc:	0800764c 	.word	0x0800764c
 80044e0:	0800764c 	.word	0x0800764c
 80044e4:	0800764c 	.word	0x0800764c
 80044e8:	08007650 	.word	0x08007650

080044ec <memset>:
 80044ec:	4402      	add	r2, r0
 80044ee:	4603      	mov	r3, r0
 80044f0:	4293      	cmp	r3, r2
 80044f2:	d100      	bne.n	80044f6 <memset+0xa>
 80044f4:	4770      	bx	lr
 80044f6:	f803 1b01 	strb.w	r1, [r3], #1
 80044fa:	e7f9      	b.n	80044f0 <memset+0x4>

080044fc <__cvt>:
 80044fc:	e92d 47ff 	stmdb	sp!, {r0, r1, r2, r3, r4, r5, r6, r7, r8, r9, sl, lr}
 8004500:	ec55 4b10 	vmov	r4, r5, d0
 8004504:	2d00      	cmp	r5, #0
 8004506:	460e      	mov	r6, r1
 8004508:	4619      	mov	r1, r3
 800450a:	462b      	mov	r3, r5
 800450c:	bfbb      	ittet	lt
 800450e:	f105 4300 	addlt.w	r3, r5, #2147483648	; 0x80000000
 8004512:	461d      	movlt	r5, r3
 8004514:	2300      	movge	r3, #0
 8004516:	232d      	movlt	r3, #45	; 0x2d
 8004518:	700b      	strb	r3, [r1, #0]
 800451a:	9b0d      	ldr	r3, [sp, #52]	; 0x34
 800451c:	f8dd a030 	ldr.w	sl, [sp, #48]	; 0x30
 8004520:	4691      	mov	r9, r2
 8004522:	f023 0820 	bic.w	r8, r3, #32
 8004526:	bfbc      	itt	lt
 8004528:	4622      	movlt	r2, r4
 800452a:	4614      	movlt	r4, r2
 800452c:	f1b8 0f46 	cmp.w	r8, #70	; 0x46
 8004530:	d005      	beq.n	800453e <__cvt+0x42>
 8004532:	f1b8 0f45 	cmp.w	r8, #69	; 0x45
 8004536:	d100      	bne.n	800453a <__cvt+0x3e>
 8004538:	3601      	adds	r6, #1
 800453a:	2102      	movs	r1, #2
 800453c:	e000      	b.n	8004540 <__cvt+0x44>
 800453e:	2103      	movs	r1, #3
 8004540:	ab03      	add	r3, sp, #12
 8004542:	9301      	str	r3, [sp, #4]
 8004544:	ab02      	add	r3, sp, #8
 8004546:	9300      	str	r3, [sp, #0]
 8004548:	ec45 4b10 	vmov	d0, r4, r5
 800454c:	4653      	mov	r3, sl
 800454e:	4632      	mov	r2, r6
 8004550:	f000 fcea 	bl	8004f28 <_dtoa_r>
 8004554:	f1b8 0f47 	cmp.w	r8, #71	; 0x47
 8004558:	4607      	mov	r7, r0
 800455a:	d102      	bne.n	8004562 <__cvt+0x66>
 800455c:	f019 0f01 	tst.w	r9, #1
 8004560:	d022      	beq.n	80045a8 <__cvt+0xac>
 8004562:	f1b8 0f46 	cmp.w	r8, #70	; 0x46
 8004566:	eb07 0906 	add.w	r9, r7, r6
 800456a:	d110      	bne.n	800458e <__cvt+0x92>
 800456c:	783b      	ldrb	r3, [r7, #0]
 800456e:	2b30      	cmp	r3, #48	; 0x30
 8004570:	d10a      	bne.n	8004588 <__cvt+0x8c>
 8004572:	2200      	movs	r2, #0
 8004574:	2300      	movs	r3, #0
 8004576:	4620      	mov	r0, r4
 8004578:	4629      	mov	r1, r5
 800457a:	f7fc fac5 	bl	8000b08 <__aeabi_dcmpeq>
 800457e:	b918      	cbnz	r0, 8004588 <__cvt+0x8c>
 8004580:	f1c6 0601 	rsb	r6, r6, #1
 8004584:	f8ca 6000 	str.w	r6, [sl]
 8004588:	f8da 3000 	ldr.w	r3, [sl]
 800458c:	4499      	add	r9, r3
 800458e:	2200      	movs	r2, #0
 8004590:	2300      	movs	r3, #0
 8004592:	4620      	mov	r0, r4
 8004594:	4629      	mov	r1, r5
 8004596:	f7fc fab7 	bl	8000b08 <__aeabi_dcmpeq>
 800459a:	b108      	cbz	r0, 80045a0 <__cvt+0xa4>
 800459c:	f8cd 900c 	str.w	r9, [sp, #12]
 80045a0:	2230      	movs	r2, #48	; 0x30
 80045a2:	9b03      	ldr	r3, [sp, #12]
 80045a4:	454b      	cmp	r3, r9
 80045a6:	d307      	bcc.n	80045b8 <__cvt+0xbc>
 80045a8:	9b03      	ldr	r3, [sp, #12]
 80045aa:	9a0e      	ldr	r2, [sp, #56]	; 0x38
 80045ac:	1bdb      	subs	r3, r3, r7
 80045ae:	4638      	mov	r0, r7
 80045b0:	6013      	str	r3, [r2, #0]
 80045b2:	b004      	add	sp, #16
 80045b4:	e8bd 87f0 	ldmia.w	sp!, {r4, r5, r6, r7, r8, r9, sl, pc}
 80045b8:	1c59      	adds	r1, r3, #1
 80045ba:	9103      	str	r1, [sp, #12]
 80045bc:	701a      	strb	r2, [r3, #0]
 80045be:	e7f0      	b.n	80045a2 <__cvt+0xa6>

080045c0 <__exponent>:
 80045c0:	b5f7      	push	{r0, r1, r2, r4, r5, r6, r7, lr}
 80045c2:	4603      	mov	r3, r0
 80045c4:	2900      	cmp	r1, #0
 80045c6:	bfb8      	it	lt
 80045c8:	4249      	neglt	r1, r1
 80045ca:	f803 2b02 	strb.w	r2, [r3], #2
 80045ce:	bfb4      	ite	lt
 80045d0:	222d      	movlt	r2, #45	; 0x2d
 80045d2:	222b      	movge	r2, #43	; 0x2b
 80045d4:	2909      	cmp	r1, #9
 80045d6:	7042      	strb	r2, [r0, #1]
 80045d8:	dd2a      	ble.n	8004630 <__exponent+0x70>
 80045da:	f10d 0407 	add.w	r4, sp, #7
 80045de:	46a4      	mov	ip, r4
 80045e0:	270a      	movs	r7, #10
 80045e2:	46a6      	mov	lr, r4
 80045e4:	460a      	mov	r2, r1
 80045e6:	fb91 f6f7 	sdiv	r6, r1, r7
 80045ea:	fb07 1516 	mls	r5, r7, r6, r1
 80045ee:	3530      	adds	r5, #48	; 0x30
 80045f0:	2a63      	cmp	r2, #99	; 0x63
 80045f2:	f104 34ff 	add.w	r4, r4, #4294967295
 80045f6:	f80e 5c01 	strb.w	r5, [lr, #-1]
 80045fa:	4631      	mov	r1, r6
 80045fc:	dcf1      	bgt.n	80045e2 <__exponent+0x22>
 80045fe:	3130      	adds	r1, #48	; 0x30
 8004600:	f1ae 0502 	sub.w	r5, lr, #2
 8004604:	f804 1c01 	strb.w	r1, [r4, #-1]
 8004608:	1c44      	adds	r4, r0, #1
 800460a:	4629      	mov	r1, r5
 800460c:	4561      	cmp	r1, ip
 800460e:	d30a      	bcc.n	8004626 <__exponent+0x66>
 8004610:	f10d 0209 	add.w	r2, sp, #9
 8004614:	eba2 020e 	sub.w	r2, r2, lr
 8004618:	4565      	cmp	r5, ip
 800461a:	bf88      	it	hi
 800461c:	2200      	movhi	r2, #0
 800461e:	4413      	add	r3, r2
 8004620:	1a18      	subs	r0, r3, r0
 8004622:	b003      	add	sp, #12
 8004624:	bdf0      	pop	{r4, r5, r6, r7, pc}
 8004626:	f811 2b01 	ldrb.w	r2, [r1], #1
 800462a:	f804 2f01 	strb.w	r2, [r4, #1]!
 800462e:	e7ed      	b.n	800460c <__exponent+0x4c>
 8004630:	2330      	movs	r3, #48	; 0x30
 8004632:	3130      	adds	r1, #48	; 0x30
 8004634:	7083      	strb	r3, [r0, #2]
 8004636:	70c1      	strb	r1, [r0, #3]
 8004638:	1d03      	adds	r3, r0, #4
 800463a:	e7f1      	b.n	8004620 <__exponent+0x60>

0800463c <_printf_float>:
 800463c:	e92d 4ff0 	stmdb	sp!, {r4, r5, r6, r7, r8, r9, sl, fp, lr}
 8004640:	ed2d 8b02 	vpush	{d8}
 8004644:	b08d      	sub	sp, #52	; 0x34
 8004646:	460c      	mov	r4, r1
 8004648:	f8dd 8060 	ldr.w	r8, [sp, #96]	; 0x60
 800464c:	4616      	mov	r6, r2
 800464e:	461f      	mov	r7, r3
 8004650:	4605      	mov	r5, r0
 8004652:	f001 fa55 	bl	8005b00 <_localeconv_r>
 8004656:	f8d0 a000 	ldr.w	sl, [r0]
 800465a:	4650      	mov	r0, sl
 800465c:	f7fb fdd8 	bl	8000210 <strlen>
 8004660:	2300      	movs	r3, #0
 8004662:	930a      	str	r3, [sp, #40]	; 0x28
 8004664:	6823      	ldr	r3, [r4, #0]
 8004666:	9305      	str	r3, [sp, #20]
 8004668:	f8d8 3000 	ldr.w	r3, [r8]
 800466c:	f894 b018 	ldrb.w	fp, [r4, #24]
 8004670:	3307      	adds	r3, #7
 8004672:	f023 0307 	bic.w	r3, r3, #7
 8004676:	f103 0208 	add.w	r2, r3, #8
 800467a:	f8c8 2000 	str.w	r2, [r8]
 800467e:	e9d3 2300 	ldrd	r2, r3, [r3]
 8004682:	e9c4 2312 	strd	r2, r3, [r4, #72]	; 0x48
 8004686:	e9d4 8912 	ldrd	r8, r9, [r4, #72]	; 0x48
 800468a:	f029 4300 	bic.w	r3, r9, #2147483648	; 0x80000000
 800468e:	9307      	str	r3, [sp, #28]
 8004690:	f8cd 8018 	str.w	r8, [sp, #24]
 8004694:	ee08 0a10 	vmov	s16, r0
 8004698:	4b9f      	ldr	r3, [pc, #636]	; (8004918 <_printf_float+0x2dc>)
 800469a:	e9dd 0106 	ldrd	r0, r1, [sp, #24]
 800469e:	f04f 32ff 	mov.w	r2, #4294967295
 80046a2:	f7fc fa63 	bl	8000b6c <__aeabi_dcmpun>
 80046a6:	bb88      	cbnz	r0, 800470c <_printf_float+0xd0>
 80046a8:	e9dd 0106 	ldrd	r0, r1, [sp, #24]
 80046ac:	4b9a      	ldr	r3, [pc, #616]	; (8004918 <_printf_float+0x2dc>)
 80046ae:	f04f 32ff 	mov.w	r2, #4294967295
 80046b2:	f7fc fa3d 	bl	8000b30 <__aeabi_dcmple>
 80046b6:	bb48      	cbnz	r0, 800470c <_printf_float+0xd0>
 80046b8:	2200      	movs	r2, #0
 80046ba:	2300      	movs	r3, #0
 80046bc:	4640      	mov	r0, r8
 80046be:	4649      	mov	r1, r9
 80046c0:	f7fc fa2c 	bl	8000b1c <__aeabi_dcmplt>
 80046c4:	b110      	cbz	r0, 80046cc <_printf_float+0x90>
 80046c6:	232d      	movs	r3, #45	; 0x2d
 80046c8:	f884 3043 	strb.w	r3, [r4, #67]	; 0x43
 80046cc:	4b93      	ldr	r3, [pc, #588]	; (800491c <_printf_float+0x2e0>)
 80046ce:	4894      	ldr	r0, [pc, #592]	; (8004920 <_printf_float+0x2e4>)
 80046d0:	f1bb 0f47 	cmp.w	fp, #71	; 0x47
 80046d4:	bf94      	ite	ls
 80046d6:	4698      	movls	r8, r3
 80046d8:	4680      	movhi	r8, r0
 80046da:	2303      	movs	r3, #3
 80046dc:	6123      	str	r3, [r4, #16]
 80046de:	9b05      	ldr	r3, [sp, #20]
 80046e0:	f023 0204 	bic.w	r2, r3, #4
 80046e4:	6022      	str	r2, [r4, #0]
 80046e6:	f04f 0900 	mov.w	r9, #0
 80046ea:	9700      	str	r7, [sp, #0]
 80046ec:	4633      	mov	r3, r6
 80046ee:	aa0b      	add	r2, sp, #44	; 0x2c
 80046f0:	4621      	mov	r1, r4
 80046f2:	4628      	mov	r0, r5
 80046f4:	f000 f9d8 	bl	8004aa8 <_printf_common>
 80046f8:	3001      	adds	r0, #1
 80046fa:	f040 8090 	bne.w	800481e <_printf_float+0x1e2>
 80046fe:	f04f 30ff 	mov.w	r0, #4294967295
 8004702:	b00d      	add	sp, #52	; 0x34
 8004704:	ecbd 8b02 	vpop	{d8}
 8004708:	e8bd 8ff0 	ldmia.w	sp!, {r4, r5, r6, r7, r8, r9, sl, fp, pc}
 800470c:	4642      	mov	r2, r8
 800470e:	464b      	mov	r3, r9
 8004710:	4640      	mov	r0, r8
 8004712:	4649      	mov	r1, r9
 8004714:	f7fc fa2a 	bl	8000b6c <__aeabi_dcmpun>
 8004718:	b140      	cbz	r0, 800472c <_printf_float+0xf0>
 800471a:	464b      	mov	r3, r9
 800471c:	2b00      	cmp	r3, #0
 800471e:	bfbc      	itt	lt
 8004720:	232d      	movlt	r3, #45	; 0x2d
 8004722:	f884 3043 	strblt.w	r3, [r4, #67]	; 0x43
 8004726:	487f      	ldr	r0, [pc, #508]	; (8004924 <_printf_float+0x2e8>)
 8004728:	4b7f      	ldr	r3, [pc, #508]	; (8004928 <_printf_float+0x2ec>)
 800472a:	e7d1      	b.n	80046d0 <_printf_float+0x94>
 800472c:	6863      	ldr	r3, [r4, #4]
 800472e:	f00b 02df 	and.w	r2, fp, #223	; 0xdf
 8004732:	9206      	str	r2, [sp, #24]
 8004734:	1c5a      	adds	r2, r3, #1
 8004736:	d13f      	bne.n	80047b8 <_printf_float+0x17c>
 8004738:	2306      	movs	r3, #6
 800473a:	6063      	str	r3, [r4, #4]
 800473c:	9b05      	ldr	r3, [sp, #20]
 800473e:	6861      	ldr	r1, [r4, #4]
 8004740:	f443 6280 	orr.w	r2, r3, #1024	; 0x400
 8004744:	2300      	movs	r3, #0
 8004746:	9303      	str	r3, [sp, #12]
 8004748:	ab0a      	add	r3, sp, #40	; 0x28
 800474a:	e9cd b301 	strd	fp, r3, [sp, #4]
 800474e:	ab09      	add	r3, sp, #36	; 0x24
 8004750:	ec49 8b10 	vmov	d0, r8, r9
 8004754:	9300      	str	r3, [sp, #0]
 8004756:	6022      	str	r2, [r4, #0]
 8004758:	f10d 0323 	add.w	r3, sp, #35	; 0x23
 800475c:	4628      	mov	r0, r5
 800475e:	f7ff fecd 	bl	80044fc <__cvt>
 8004762:	9b06      	ldr	r3, [sp, #24]
 8004764:	9909      	ldr	r1, [sp, #36]	; 0x24
 8004766:	2b47      	cmp	r3, #71	; 0x47
 8004768:	4680      	mov	r8, r0
 800476a:	d108      	bne.n	800477e <_printf_float+0x142>
 800476c:	1cc8      	adds	r0, r1, #3
 800476e:	db02      	blt.n	8004776 <_printf_float+0x13a>
 8004770:	6863      	ldr	r3, [r4, #4]
 8004772:	4299      	cmp	r1, r3
 8004774:	dd41      	ble.n	80047fa <_printf_float+0x1be>
 8004776:	f1ab 0b02 	sub.w	fp, fp, #2
 800477a:	fa5f fb8b 	uxtb.w	fp, fp
 800477e:	f1bb 0f65 	cmp.w	fp, #101	; 0x65
 8004782:	d820      	bhi.n	80047c6 <_printf_float+0x18a>
 8004784:	3901      	subs	r1, #1
 8004786:	465a      	mov	r2, fp
 8004788:	f104 0050 	add.w	r0, r4, #80	; 0x50
 800478c:	9109      	str	r1, [sp, #36]	; 0x24
 800478e:	f7ff ff17 	bl	80045c0 <__exponent>
 8004792:	9a0a      	ldr	r2, [sp, #40]	; 0x28
 8004794:	1813      	adds	r3, r2, r0
 8004796:	2a01      	cmp	r2, #1
 8004798:	4681      	mov	r9, r0
 800479a:	6123      	str	r3, [r4, #16]
 800479c:	dc02      	bgt.n	80047a4 <_printf_float+0x168>
 800479e:	6822      	ldr	r2, [r4, #0]
 80047a0:	07d2      	lsls	r2, r2, #31
 80047a2:	d501      	bpl.n	80047a8 <_printf_float+0x16c>
 80047a4:	3301      	adds	r3, #1
 80047a6:	6123      	str	r3, [r4, #16]
 80047a8:	f89d 3023 	ldrb.w	r3, [sp, #35]	; 0x23
 80047ac:	2b00      	cmp	r3, #0
 80047ae:	d09c      	beq.n	80046ea <_printf_float+0xae>
 80047b0:	232d      	movs	r3, #45	; 0x2d
 80047b2:	f884 3043 	strb.w	r3, [r4, #67]	; 0x43
 80047b6:	e798      	b.n	80046ea <_printf_float+0xae>
 80047b8:	9a06      	ldr	r2, [sp, #24]
 80047ba:	2a47      	cmp	r2, #71	; 0x47
 80047bc:	d1be      	bne.n	800473c <_printf_float+0x100>
 80047be:	2b00      	cmp	r3, #0
 80047c0:	d1bc      	bne.n	800473c <_printf_float+0x100>
 80047c2:	2301      	movs	r3, #1
 80047c4:	e7b9      	b.n	800473a <_printf_float+0xfe>
 80047c6:	f1bb 0f66 	cmp.w	fp, #102	; 0x66
 80047ca:	d118      	bne.n	80047fe <_printf_float+0x1c2>
 80047cc:	2900      	cmp	r1, #0
 80047ce:	6863      	ldr	r3, [r4, #4]
 80047d0:	dd0b      	ble.n	80047ea <_printf_float+0x1ae>
 80047d2:	6121      	str	r1, [r4, #16]
 80047d4:	b913      	cbnz	r3, 80047dc <_printf_float+0x1a0>
 80047d6:	6822      	ldr	r2, [r4, #0]
 80047d8:	07d0      	lsls	r0, r2, #31
 80047da:	d502      	bpl.n	80047e2 <_printf_float+0x1a6>
 80047dc:	3301      	adds	r3, #1
 80047de:	440b      	add	r3, r1
 80047e0:	6123      	str	r3, [r4, #16]
 80047e2:	65a1      	str	r1, [r4, #88]	; 0x58
 80047e4:	f04f 0900 	mov.w	r9, #0
 80047e8:	e7de      	b.n	80047a8 <_printf_float+0x16c>
 80047ea:	b913      	cbnz	r3, 80047f2 <_printf_float+0x1b6>
 80047ec:	6822      	ldr	r2, [r4, #0]
 80047ee:	07d2      	lsls	r2, r2, #31
 80047f0:	d501      	bpl.n	80047f6 <_printf_float+0x1ba>
 80047f2:	3302      	adds	r3, #2
 80047f4:	e7f4      	b.n	80047e0 <_printf_float+0x1a4>
 80047f6:	2301      	movs	r3, #1
 80047f8:	e7f2      	b.n	80047e0 <_printf_float+0x1a4>
 80047fa:	f04f 0b67 	mov.w	fp, #103	; 0x67
 80047fe:	9b0a      	ldr	r3, [sp, #40]	; 0x28
 8004800:	4299      	cmp	r1, r3
 8004802:	db05      	blt.n	8004810 <_printf_float+0x1d4>
 8004804:	6823      	ldr	r3, [r4, #0]
 8004806:	6121      	str	r1, [r4, #16]
 8004808:	07d8      	lsls	r0, r3, #31
 800480a:	d5ea      	bpl.n	80047e2 <_printf_float+0x1a6>
 800480c:	1c4b      	adds	r3, r1, #1
 800480e:	e7e7      	b.n	80047e0 <_printf_float+0x1a4>
 8004810:	2900      	cmp	r1, #0
 8004812:	bfd4      	ite	le
 8004814:	f1c1 0202 	rsble	r2, r1, #2
 8004818:	2201      	movgt	r2, #1
 800481a:	4413      	add	r3, r2
 800481c:	e7e0      	b.n	80047e0 <_printf_float+0x1a4>
 800481e:	6823      	ldr	r3, [r4, #0]
 8004820:	055a      	lsls	r2, r3, #21
 8004822:	d407      	bmi.n	8004834 <_printf_float+0x1f8>
 8004824:	6923      	ldr	r3, [r4, #16]
 8004826:	4642      	mov	r2, r8
 8004828:	4631      	mov	r1, r6
 800482a:	4628      	mov	r0, r5
 800482c:	47b8      	blx	r7
 800482e:	3001      	adds	r0, #1
 8004830:	d12c      	bne.n	800488c <_printf_float+0x250>
 8004832:	e764      	b.n	80046fe <_printf_float+0xc2>
 8004834:	f1bb 0f65 	cmp.w	fp, #101	; 0x65
 8004838:	f240 80e0 	bls.w	80049fc <_printf_float+0x3c0>
 800483c:	e9d4 0112 	ldrd	r0, r1, [r4, #72]	; 0x48
 8004840:	2200      	movs	r2, #0
 8004842:	2300      	movs	r3, #0
 8004844:	f7fc f960 	bl	8000b08 <__aeabi_dcmpeq>
 8004848:	2800      	cmp	r0, #0
 800484a:	d034      	beq.n	80048b6 <_printf_float+0x27a>
 800484c:	4a37      	ldr	r2, [pc, #220]	; (800492c <_printf_float+0x2f0>)
 800484e:	2301      	movs	r3, #1
 8004850:	4631      	mov	r1, r6
 8004852:	4628      	mov	r0, r5
 8004854:	47b8      	blx	r7
 8004856:	3001      	adds	r0, #1
 8004858:	f43f af51 	beq.w	80046fe <_printf_float+0xc2>
 800485c:	e9dd 2309 	ldrd	r2, r3, [sp, #36]	; 0x24
 8004860:	429a      	cmp	r2, r3
 8004862:	db02      	blt.n	800486a <_printf_float+0x22e>
 8004864:	6823      	ldr	r3, [r4, #0]
 8004866:	07d8      	lsls	r0, r3, #31
 8004868:	d510      	bpl.n	800488c <_printf_float+0x250>
 800486a:	ee18 3a10 	vmov	r3, s16
 800486e:	4652      	mov	r2, sl
 8004870:	4631      	mov	r1, r6
 8004872:	4628      	mov	r0, r5
 8004874:	47b8      	blx	r7
 8004876:	3001      	adds	r0, #1
 8004878:	f43f af41 	beq.w	80046fe <_printf_float+0xc2>
 800487c:	f04f 0800 	mov.w	r8, #0
 8004880:	f104 091a 	add.w	r9, r4, #26
 8004884:	9b0a      	ldr	r3, [sp, #40]	; 0x28
 8004886:	3b01      	subs	r3, #1
 8004888:	4543      	cmp	r3, r8
 800488a:	dc09      	bgt.n	80048a0 <_printf_float+0x264>
 800488c:	6823      	ldr	r3, [r4, #0]
 800488e:	079b      	lsls	r3, r3, #30
 8004890:	f100 8105 	bmi.w	8004a9e <_printf_float+0x462>
 8004894:	68e0      	ldr	r0, [r4, #12]
 8004896:	9b0b      	ldr	r3, [sp, #44]	; 0x2c
 8004898:	4298      	cmp	r0, r3
 800489a:	bfb8      	it	lt
 800489c:	4618      	movlt	r0, r3
 800489e:	e730      	b.n	8004702 <_printf_float+0xc6>
 80048a0:	2301      	movs	r3, #1
 80048a2:	464a      	mov	r2, r9
 80048a4:	4631      	mov	r1, r6
 80048a6:	4628      	mov	r0, r5
 80048a8:	47b8      	blx	r7
 80048aa:	3001      	adds	r0, #1
 80048ac:	f43f af27 	beq.w	80046fe <_printf_float+0xc2>
 80048b0:	f108 0801 	add.w	r8, r8, #1
 80048b4:	e7e6      	b.n	8004884 <_printf_float+0x248>
 80048b6:	9b09      	ldr	r3, [sp, #36]	; 0x24
 80048b8:	2b00      	cmp	r3, #0
 80048ba:	dc39      	bgt.n	8004930 <_printf_float+0x2f4>
 80048bc:	4a1b      	ldr	r2, [pc, #108]	; (800492c <_printf_float+0x2f0>)
 80048be:	2301      	movs	r3, #1
 80048c0:	4631      	mov	r1, r6
 80048c2:	4628      	mov	r0, r5
 80048c4:	47b8      	blx	r7
 80048c6:	3001      	adds	r0, #1
 80048c8:	f43f af19 	beq.w	80046fe <_printf_float+0xc2>
 80048cc:	e9dd 2309 	ldrd	r2, r3, [sp, #36]	; 0x24
 80048d0:	4313      	orrs	r3, r2
 80048d2:	d102      	bne.n	80048da <_printf_float+0x29e>
 80048d4:	6823      	ldr	r3, [r4, #0]
 80048d6:	07d9      	lsls	r1, r3, #31
 80048d8:	d5d8      	bpl.n	800488c <_printf_float+0x250>
 80048da:	ee18 3a10 	vmov	r3, s16
 80048de:	4652      	mov	r2, sl
 80048e0:	4631      	mov	r1, r6
 80048e2:	4628      	mov	r0, r5
 80048e4:	47b8      	blx	r7
 80048e6:	3001      	adds	r0, #1
 80048e8:	f43f af09 	beq.w	80046fe <_printf_float+0xc2>
 80048ec:	f04f 0900 	mov.w	r9, #0
 80048f0:	f104 0a1a 	add.w	sl, r4, #26
 80048f4:	9b09      	ldr	r3, [sp, #36]	; 0x24
 80048f6:	425b      	negs	r3, r3
 80048f8:	454b      	cmp	r3, r9
 80048fa:	dc01      	bgt.n	8004900 <_printf_float+0x2c4>
 80048fc:	9b0a      	ldr	r3, [sp, #40]	; 0x28
 80048fe:	e792      	b.n	8004826 <_printf_float+0x1ea>
 8004900:	2301      	movs	r3, #1
 8004902:	4652      	mov	r2, sl
 8004904:	4631      	mov	r1, r6
 8004906:	4628      	mov	r0, r5
 8004908:	47b8      	blx	r7
 800490a:	3001      	adds	r0, #1
 800490c:	f43f aef7 	beq.w	80046fe <_printf_float+0xc2>
 8004910:	f109 0901 	add.w	r9, r9, #1
 8004914:	e7ee      	b.n	80048f4 <_printf_float+0x2b8>
 8004916:	bf00      	nop
 8004918:	7fefffff 	.word	0x7fefffff
 800491c:	08007268 	.word	0x08007268
 8004920:	0800726c 	.word	0x0800726c
 8004924:	08007274 	.word	0x08007274
 8004928:	08007270 	.word	0x08007270
 800492c:	08007278 	.word	0x08007278
 8004930:	9a0a      	ldr	r2, [sp, #40]	; 0x28
 8004932:	6da3      	ldr	r3, [r4, #88]	; 0x58
 8004934:	429a      	cmp	r2, r3
 8004936:	bfa8      	it	ge
 8004938:	461a      	movge	r2, r3
 800493a:	2a00      	cmp	r2, #0
 800493c:	4691      	mov	r9, r2
 800493e:	dc37      	bgt.n	80049b0 <_printf_float+0x374>
 8004940:	f04f 0b00 	mov.w	fp, #0
 8004944:	ea29 79e9 	bic.w	r9, r9, r9, asr #31
 8004948:	f104 021a 	add.w	r2, r4, #26
 800494c:	6da3      	ldr	r3, [r4, #88]	; 0x58
 800494e:	9305      	str	r3, [sp, #20]
 8004950:	eba3 0309 	sub.w	r3, r3, r9
 8004954:	455b      	cmp	r3, fp
 8004956:	dc33      	bgt.n	80049c0 <_printf_float+0x384>
 8004958:	e9dd 2309 	ldrd	r2, r3, [sp, #36]	; 0x24
 800495c:	429a      	cmp	r2, r3
 800495e:	db3b      	blt.n	80049d8 <_printf_float+0x39c>
 8004960:	6823      	ldr	r3, [r4, #0]
 8004962:	07da      	lsls	r2, r3, #31
 8004964:	d438      	bmi.n	80049d8 <_printf_float+0x39c>
 8004966:	9a0a      	ldr	r2, [sp, #40]	; 0x28
 8004968:	9b05      	ldr	r3, [sp, #20]
 800496a:	9909      	ldr	r1, [sp, #36]	; 0x24
 800496c:	1ad3      	subs	r3, r2, r3
 800496e:	eba2 0901 	sub.w	r9, r2, r1
 8004972:	4599      	cmp	r9, r3
 8004974:	bfa8      	it	ge
 8004976:	4699      	movge	r9, r3
 8004978:	f1b9 0f00 	cmp.w	r9, #0
 800497c:	dc35      	bgt.n	80049ea <_printf_float+0x3ae>
 800497e:	f04f 0800 	mov.w	r8, #0
 8004982:	ea29 79e9 	bic.w	r9, r9, r9, asr #31
 8004986:	f104 0a1a 	add.w	sl, r4, #26
 800498a:	e9dd 2309 	ldrd	r2, r3, [sp, #36]	; 0x24
 800498e:	1a9b      	subs	r3, r3, r2
 8004990:	eba3 0309 	sub.w	r3, r3, r9
 8004994:	4543      	cmp	r3, r8
 8004996:	f77f af79 	ble.w	800488c <_printf_float+0x250>
 800499a:	2301      	movs	r3, #1
 800499c:	4652      	mov	r2, sl
 800499e:	4631      	mov	r1, r6
 80049a0:	4628      	mov	r0, r5
 80049a2:	47b8      	blx	r7
 80049a4:	3001      	adds	r0, #1
 80049a6:	f43f aeaa 	beq.w	80046fe <_printf_float+0xc2>
 80049aa:	f108 0801 	add.w	r8, r8, #1
 80049ae:	e7ec      	b.n	800498a <_printf_float+0x34e>
 80049b0:	4613      	mov	r3, r2
 80049b2:	4631      	mov	r1, r6
 80049b4:	4642      	mov	r2, r8
 80049b6:	4628      	mov	r0, r5
 80049b8:	47b8      	blx	r7
 80049ba:	3001      	adds	r0, #1
 80049bc:	d1c0      	bne.n	8004940 <_printf_float+0x304>
 80049be:	e69e      	b.n	80046fe <_printf_float+0xc2>
 80049c0:	2301      	movs	r3, #1
 80049c2:	4631      	mov	r1, r6
 80049c4:	4628      	mov	r0, r5
 80049c6:	9205      	str	r2, [sp, #20]
 80049c8:	47b8      	blx	r7
 80049ca:	3001      	adds	r0, #1
 80049cc:	f43f ae97 	beq.w	80046fe <_printf_float+0xc2>
 80049d0:	9a05      	ldr	r2, [sp, #20]
 80049d2:	f10b 0b01 	add.w	fp, fp, #1
 80049d6:	e7b9      	b.n	800494c <_printf_float+0x310>
 80049d8:	ee18 3a10 	vmov	r3, s16
 80049dc:	4652      	mov	r2, sl
 80049de:	4631      	mov	r1, r6
 80049e0:	4628      	mov	r0, r5
 80049e2:	47b8      	blx	r7
 80049e4:	3001      	adds	r0, #1
 80049e6:	d1be      	bne.n	8004966 <_printf_float+0x32a>
 80049e8:	e689      	b.n	80046fe <_printf_float+0xc2>
 80049ea:	9a05      	ldr	r2, [sp, #20]
 80049ec:	464b      	mov	r3, r9
 80049ee:	4442      	add	r2, r8
 80049f0:	4631      	mov	r1, r6
 80049f2:	4628      	mov	r0, r5
 80049f4:	47b8      	blx	r7
 80049f6:	3001      	adds	r0, #1
 80049f8:	d1c1      	bne.n	800497e <_printf_float+0x342>
 80049fa:	e680      	b.n	80046fe <_printf_float+0xc2>
 80049fc:	9a0a      	ldr	r2, [sp, #40]	; 0x28
 80049fe:	2a01      	cmp	r2, #1
 8004a00:	dc01      	bgt.n	8004a06 <_printf_float+0x3ca>
 8004a02:	07db      	lsls	r3, r3, #31
 8004a04:	d538      	bpl.n	8004a78 <_printf_float+0x43c>
 8004a06:	2301      	movs	r3, #1
 8004a08:	4642      	mov	r2, r8
 8004a0a:	4631      	mov	r1, r6
 8004a0c:	4628      	mov	r0, r5
 8004a0e:	47b8      	blx	r7
 8004a10:	3001      	adds	r0, #1
 8004a12:	f43f ae74 	beq.w	80046fe <_printf_float+0xc2>
 8004a16:	ee18 3a10 	vmov	r3, s16
 8004a1a:	4652      	mov	r2, sl
 8004a1c:	4631      	mov	r1, r6
 8004a1e:	4628      	mov	r0, r5
 8004a20:	47b8      	blx	r7
 8004a22:	3001      	adds	r0, #1
 8004a24:	f43f ae6b 	beq.w	80046fe <_printf_float+0xc2>
 8004a28:	e9d4 0112 	ldrd	r0, r1, [r4, #72]	; 0x48
 8004a2c:	2200      	movs	r2, #0
 8004a2e:	2300      	movs	r3, #0
 8004a30:	f7fc f86a 	bl	8000b08 <__aeabi_dcmpeq>
 8004a34:	b9d8      	cbnz	r0, 8004a6e <_printf_float+0x432>
 8004a36:	9b0a      	ldr	r3, [sp, #40]	; 0x28
 8004a38:	f108 0201 	add.w	r2, r8, #1
 8004a3c:	3b01      	subs	r3, #1
 8004a3e:	4631      	mov	r1, r6
 8004a40:	4628      	mov	r0, r5
 8004a42:	47b8      	blx	r7
 8004a44:	3001      	adds	r0, #1
 8004a46:	d10e      	bne.n	8004a66 <_printf_float+0x42a>
 8004a48:	e659      	b.n	80046fe <_printf_float+0xc2>
 8004a4a:	2301      	movs	r3, #1
 8004a4c:	4652      	mov	r2, sl
 8004a4e:	4631      	mov	r1, r6
 8004a50:	4628      	mov	r0, r5
 8004a52:	47b8      	blx	r7
 8004a54:	3001      	adds	r0, #1
 8004a56:	f43f ae52 	beq.w	80046fe <_printf_float+0xc2>
 8004a5a:	f108 0801 	add.w	r8, r8, #1
 8004a5e:	9b0a      	ldr	r3, [sp, #40]	; 0x28
 8004a60:	3b01      	subs	r3, #1
 8004a62:	4543      	cmp	r3, r8
 8004a64:	dcf1      	bgt.n	8004a4a <_printf_float+0x40e>
 8004a66:	464b      	mov	r3, r9
 8004a68:	f104 0250 	add.w	r2, r4, #80	; 0x50
 8004a6c:	e6dc      	b.n	8004828 <_printf_float+0x1ec>
 8004a6e:	f04f 0800 	mov.w	r8, #0
 8004a72:	f104 0a1a 	add.w	sl, r4, #26
 8004a76:	e7f2      	b.n	8004a5e <_printf_float+0x422>
 8004a78:	2301      	movs	r3, #1
 8004a7a:	4642      	mov	r2, r8
 8004a7c:	e7df      	b.n	8004a3e <_printf_float+0x402>
 8004a7e:	2301      	movs	r3, #1
 8004a80:	464a      	mov	r2, r9
 8004a82:	4631      	mov	r1, r6
 8004a84:	4628      	mov	r0, r5
 8004a86:	47b8      	blx	r7
 8004a88:	3001      	adds	r0, #1
 8004a8a:	f43f ae38 	beq.w	80046fe <_printf_float+0xc2>
 8004a8e:	f108 0801 	add.w	r8, r8, #1
 8004a92:	68e3      	ldr	r3, [r4, #12]
 8004a94:	990b      	ldr	r1, [sp, #44]	; 0x2c
 8004a96:	1a5b      	subs	r3, r3, r1
 8004a98:	4543      	cmp	r3, r8
 8004a9a:	dcf0      	bgt.n	8004a7e <_printf_float+0x442>
 8004a9c:	e6fa      	b.n	8004894 <_printf_float+0x258>
 8004a9e:	f04f 0800 	mov.w	r8, #0
 8004aa2:	f104 0919 	add.w	r9, r4, #25
 8004aa6:	e7f4      	b.n	8004a92 <_printf_float+0x456>

08004aa8 <_printf_common>:
 8004aa8:	e92d 47f0 	stmdb	sp!, {r4, r5, r6, r7, r8, r9, sl, lr}
 8004aac:	4616      	mov	r6, r2
 8004aae:	4699      	mov	r9, r3
 8004ab0:	688a      	ldr	r2, [r1, #8]
 8004ab2:	690b      	ldr	r3, [r1, #16]
 8004ab4:	f8dd 8020 	ldr.w	r8, [sp, #32]
 8004ab8:	4293      	cmp	r3, r2
 8004aba:	bfb8      	it	lt
 8004abc:	4613      	movlt	r3, r2
 8004abe:	6033      	str	r3, [r6, #0]
 8004ac0:	f891 2043 	ldrb.w	r2, [r1, #67]	; 0x43
 8004ac4:	4607      	mov	r7, r0
 8004ac6:	460c      	mov	r4, r1
 8004ac8:	b10a      	cbz	r2, 8004ace <_printf_common+0x26>
 8004aca:	3301      	adds	r3, #1
 8004acc:	6033      	str	r3, [r6, #0]
 8004ace:	6823      	ldr	r3, [r4, #0]
 8004ad0:	0699      	lsls	r1, r3, #26
 8004ad2:	bf42      	ittt	mi
 8004ad4:	6833      	ldrmi	r3, [r6, #0]
 8004ad6:	3302      	addmi	r3, #2
 8004ad8:	6033      	strmi	r3, [r6, #0]
 8004ada:	6825      	ldr	r5, [r4, #0]
 8004adc:	f015 0506 	ands.w	r5, r5, #6
 8004ae0:	d106      	bne.n	8004af0 <_printf_common+0x48>
 8004ae2:	f104 0a19 	add.w	sl, r4, #25
 8004ae6:	68e3      	ldr	r3, [r4, #12]
 8004ae8:	6832      	ldr	r2, [r6, #0]
 8004aea:	1a9b      	subs	r3, r3, r2
 8004aec:	42ab      	cmp	r3, r5
 8004aee:	dc26      	bgt.n	8004b3e <_printf_common+0x96>
 8004af0:	f894 2043 	ldrb.w	r2, [r4, #67]	; 0x43
 8004af4:	1e13      	subs	r3, r2, #0
 8004af6:	6822      	ldr	r2, [r4, #0]
 8004af8:	bf18      	it	ne
 8004afa:	2301      	movne	r3, #1
 8004afc:	0692      	lsls	r2, r2, #26
 8004afe:	d42b      	bmi.n	8004b58 <_printf_common+0xb0>
 8004b00:	f104 0243 	add.w	r2, r4, #67	; 0x43
 8004b04:	4649      	mov	r1, r9
 8004b06:	4638      	mov	r0, r7
 8004b08:	47c0      	blx	r8
 8004b0a:	3001      	adds	r0, #1
 8004b0c:	d01e      	beq.n	8004b4c <_printf_common+0xa4>
 8004b0e:	6823      	ldr	r3, [r4, #0]
 8004b10:	68e5      	ldr	r5, [r4, #12]
 8004b12:	6832      	ldr	r2, [r6, #0]
 8004b14:	f003 0306 	and.w	r3, r3, #6
 8004b18:	2b04      	cmp	r3, #4
 8004b1a:	bf08      	it	eq
 8004b1c:	1aad      	subeq	r5, r5, r2
 8004b1e:	68a3      	ldr	r3, [r4, #8]
 8004b20:	6922      	ldr	r2, [r4, #16]
 8004b22:	bf0c      	ite	eq
 8004b24:	ea25 75e5 	biceq.w	r5, r5, r5, asr #31
 8004b28:	2500      	movne	r5, #0
 8004b2a:	4293      	cmp	r3, r2
 8004b2c:	bfc4      	itt	gt
 8004b2e:	1a9b      	subgt	r3, r3, r2
 8004b30:	18ed      	addgt	r5, r5, r3
 8004b32:	2600      	movs	r6, #0
 8004b34:	341a      	adds	r4, #26
 8004b36:	42b5      	cmp	r5, r6
 8004b38:	d11a      	bne.n	8004b70 <_printf_common+0xc8>
 8004b3a:	2000      	movs	r0, #0
 8004b3c:	e008      	b.n	8004b50 <_printf_common+0xa8>
 8004b3e:	2301      	movs	r3, #1
 8004b40:	4652      	mov	r2, sl
 8004b42:	4649      	mov	r1, r9
 8004b44:	4638      	mov	r0, r7
 8004b46:	47c0      	blx	r8
 8004b48:	3001      	adds	r0, #1
 8004b4a:	d103      	bne.n	8004b54 <_printf_common+0xac>
 8004b4c:	f04f 30ff 	mov.w	r0, #4294967295
 8004b50:	e8bd 87f0 	ldmia.w	sp!, {r4, r5, r6, r7, r8, r9, sl, pc}
 8004b54:	3501      	adds	r5, #1
 8004b56:	e7c6      	b.n	8004ae6 <_printf_common+0x3e>
 8004b58:	18e1      	adds	r1, r4, r3
 8004b5a:	1c5a      	adds	r2, r3, #1
 8004b5c:	2030      	movs	r0, #48	; 0x30
 8004b5e:	f881 0043 	strb.w	r0, [r1, #67]	; 0x43
 8004b62:	4422      	add	r2, r4
 8004b64:	f894 1045 	ldrb.w	r1, [r4, #69]	; 0x45
 8004b68:	f882 1043 	strb.w	r1, [r2, #67]	; 0x43
 8004b6c:	3302      	adds	r3, #2
 8004b6e:	e7c7      	b.n	8004b00 <_printf_common+0x58>
 8004b70:	2301      	movs	r3, #1
 8004b72:	4622      	mov	r2, r4
 8004b74:	4649      	mov	r1, r9
 8004b76:	4638      	mov	r0, r7
 8004b78:	47c0      	blx	r8
 8004b7a:	3001      	adds	r0, #1
 8004b7c:	d0e6      	beq.n	8004b4c <_printf_common+0xa4>
 8004b7e:	3601      	adds	r6, #1
 8004b80:	e7d9      	b.n	8004b36 <_printf_common+0x8e>
	...

08004b84 <_printf_i>:
 8004b84:	e92d 47ff 	stmdb	sp!, {r0, r1, r2, r3, r4, r5, r6, r7, r8, r9, sl, lr}
 8004b88:	460c      	mov	r4, r1
 8004b8a:	4691      	mov	r9, r2
 8004b8c:	7e27      	ldrb	r7, [r4, #24]
 8004b8e:	990c      	ldr	r1, [sp, #48]	; 0x30
 8004b90:	2f78      	cmp	r7, #120	; 0x78
 8004b92:	4680      	mov	r8, r0
 8004b94:	469a      	mov	sl, r3
 8004b96:	f104 0243 	add.w	r2, r4, #67	; 0x43
 8004b9a:	d807      	bhi.n	8004bac <_printf_i+0x28>
 8004b9c:	2f62      	cmp	r7, #98	; 0x62
 8004b9e:	d80a      	bhi.n	8004bb6 <_printf_i+0x32>
 8004ba0:	2f00      	cmp	r7, #0
 8004ba2:	f000 80d8 	beq.w	8004d56 <_printf_i+0x1d2>
 8004ba6:	2f58      	cmp	r7, #88	; 0x58
 8004ba8:	f000 80a3 	beq.w	8004cf2 <_printf_i+0x16e>
 8004bac:	f104 0642 	add.w	r6, r4, #66	; 0x42
 8004bb0:	f884 7042 	strb.w	r7, [r4, #66]	; 0x42
 8004bb4:	e03a      	b.n	8004c2c <_printf_i+0xa8>
 8004bb6:	f1a7 0363 	sub.w	r3, r7, #99	; 0x63
 8004bba:	2b15      	cmp	r3, #21
 8004bbc:	d8f6      	bhi.n	8004bac <_printf_i+0x28>
 8004bbe:	a001      	add	r0, pc, #4	; (adr r0, 8004bc4 <_printf_i+0x40>)
 8004bc0:	f850 f023 	ldr.w	pc, [r0, r3, lsl #2]
 8004bc4:	08004c1d 	.word	0x08004c1d
 8004bc8:	08004c31 	.word	0x08004c31
 8004bcc:	08004bad 	.word	0x08004bad
 8004bd0:	08004bad 	.word	0x08004bad
 8004bd4:	08004bad 	.word	0x08004bad
 8004bd8:	08004bad 	.word	0x08004bad
 8004bdc:	08004c31 	.word	0x08004c31
 8004be0:	08004bad 	.word	0x08004bad
 8004be4:	08004bad 	.word	0x08004bad
 8004be8:	08004bad 	.word	0x08004bad
 8004bec:	08004bad 	.word	0x08004bad
 8004bf0:	08004d3d 	.word	0x08004d3d
 8004bf4:	08004c61 	.word	0x08004c61
 8004bf8:	08004d1f 	.word	0x08004d1f
 8004bfc:	08004bad 	.word	0x08004bad
 8004c00:	08004bad 	.word	0x08004bad
 8004c04:	08004d5f 	.word	0x08004d5f
 8004c08:	08004bad 	.word	0x08004bad
 8004c0c:	08004c61 	.word	0x08004c61
 8004c10:	08004bad 	.word	0x08004bad
 8004c14:	08004bad 	.word	0x08004bad
 8004c18:	08004d27 	.word	0x08004d27
 8004c1c:	680b      	ldr	r3, [r1, #0]
 8004c1e:	1d1a      	adds	r2, r3, #4
 8004c20:	681b      	ldr	r3, [r3, #0]
 8004c22:	600a      	str	r2, [r1, #0]
 8004c24:	f104 0642 	add.w	r6, r4, #66	; 0x42
 8004c28:	f884 3042 	strb.w	r3, [r4, #66]	; 0x42
 8004c2c:	2301      	movs	r3, #1
 8004c2e:	e0a3      	b.n	8004d78 <_printf_i+0x1f4>
 8004c30:	6825      	ldr	r5, [r4, #0]
 8004c32:	6808      	ldr	r0, [r1, #0]
 8004c34:	062e      	lsls	r6, r5, #24
 8004c36:	f100 0304 	add.w	r3, r0, #4
 8004c3a:	d50a      	bpl.n	8004c52 <_printf_i+0xce>
 8004c3c:	6805      	ldr	r5, [r0, #0]
 8004c3e:	600b      	str	r3, [r1, #0]
 8004c40:	2d00      	cmp	r5, #0
 8004c42:	da03      	bge.n	8004c4c <_printf_i+0xc8>
 8004c44:	232d      	movs	r3, #45	; 0x2d
 8004c46:	426d      	negs	r5, r5
 8004c48:	f884 3043 	strb.w	r3, [r4, #67]	; 0x43
 8004c4c:	485e      	ldr	r0, [pc, #376]	; (8004dc8 <_printf_i+0x244>)
 8004c4e:	230a      	movs	r3, #10
 8004c50:	e019      	b.n	8004c86 <_printf_i+0x102>
 8004c52:	f015 0f40 	tst.w	r5, #64	; 0x40
 8004c56:	6805      	ldr	r5, [r0, #0]
 8004c58:	600b      	str	r3, [r1, #0]
 8004c5a:	bf18      	it	ne
 8004c5c:	b22d      	sxthne	r5, r5
 8004c5e:	e7ef      	b.n	8004c40 <_printf_i+0xbc>
 8004c60:	680b      	ldr	r3, [r1, #0]
 8004c62:	6825      	ldr	r5, [r4, #0]
 8004c64:	1d18      	adds	r0, r3, #4
 8004c66:	6008      	str	r0, [r1, #0]
 8004c68:	0628      	lsls	r0, r5, #24
 8004c6a:	d501      	bpl.n	8004c70 <_printf_i+0xec>
 8004c6c:	681d      	ldr	r5, [r3, #0]
 8004c6e:	e002      	b.n	8004c76 <_printf_i+0xf2>
 8004c70:	0669      	lsls	r1, r5, #25
 8004c72:	d5fb      	bpl.n	8004c6c <_printf_i+0xe8>
 8004c74:	881d      	ldrh	r5, [r3, #0]
 8004c76:	4854      	ldr	r0, [pc, #336]	; (8004dc8 <_printf_i+0x244>)
 8004c78:	2f6f      	cmp	r7, #111	; 0x6f
 8004c7a:	bf0c      	ite	eq
 8004c7c:	2308      	moveq	r3, #8
 8004c7e:	230a      	movne	r3, #10
 8004c80:	2100      	movs	r1, #0
 8004c82:	f884 1043 	strb.w	r1, [r4, #67]	; 0x43
 8004c86:	6866      	ldr	r6, [r4, #4]
 8004c88:	60a6      	str	r6, [r4, #8]
 8004c8a:	2e00      	cmp	r6, #0
 8004c8c:	bfa2      	ittt	ge
 8004c8e:	6821      	ldrge	r1, [r4, #0]
 8004c90:	f021 0104 	bicge.w	r1, r1, #4
 8004c94:	6021      	strge	r1, [r4, #0]
 8004c96:	b90d      	cbnz	r5, 8004c9c <_printf_i+0x118>
 8004c98:	2e00      	cmp	r6, #0
 8004c9a:	d04d      	beq.n	8004d38 <_printf_i+0x1b4>
 8004c9c:	4616      	mov	r6, r2
 8004c9e:	fbb5 f1f3 	udiv	r1, r5, r3
 8004ca2:	fb03 5711 	mls	r7, r3, r1, r5
 8004ca6:	5dc7      	ldrb	r7, [r0, r7]
 8004ca8:	f806 7d01 	strb.w	r7, [r6, #-1]!
 8004cac:	462f      	mov	r7, r5
 8004cae:	42bb      	cmp	r3, r7
 8004cb0:	460d      	mov	r5, r1
 8004cb2:	d9f4      	bls.n	8004c9e <_printf_i+0x11a>
 8004cb4:	2b08      	cmp	r3, #8
 8004cb6:	d10b      	bne.n	8004cd0 <_printf_i+0x14c>
 8004cb8:	6823      	ldr	r3, [r4, #0]
 8004cba:	07df      	lsls	r7, r3, #31
 8004cbc:	d508      	bpl.n	8004cd0 <_printf_i+0x14c>
 8004cbe:	6923      	ldr	r3, [r4, #16]
 8004cc0:	6861      	ldr	r1, [r4, #4]
 8004cc2:	4299      	cmp	r1, r3
 8004cc4:	bfde      	ittt	le
 8004cc6:	2330      	movle	r3, #48	; 0x30
 8004cc8:	f806 3c01 	strble.w	r3, [r6, #-1]
 8004ccc:	f106 36ff 	addle.w	r6, r6, #4294967295
 8004cd0:	1b92      	subs	r2, r2, r6
 8004cd2:	6122      	str	r2, [r4, #16]
 8004cd4:	f8cd a000 	str.w	sl, [sp]
 8004cd8:	464b      	mov	r3, r9
 8004cda:	aa03      	add	r2, sp, #12
 8004cdc:	4621      	mov	r1, r4
 8004cde:	4640      	mov	r0, r8
 8004ce0:	f7ff fee2 	bl	8004aa8 <_printf_common>
 8004ce4:	3001      	adds	r0, #1
 8004ce6:	d14c      	bne.n	8004d82 <_printf_i+0x1fe>
 8004ce8:	f04f 30ff 	mov.w	r0, #4294967295
 8004cec:	b004      	add	sp, #16
 8004cee:	e8bd 87f0 	ldmia.w	sp!, {r4, r5, r6, r7, r8, r9, sl, pc}
 8004cf2:	4835      	ldr	r0, [pc, #212]	; (8004dc8 <_printf_i+0x244>)
 8004cf4:	f884 7045 	strb.w	r7, [r4, #69]	; 0x45
 8004cf8:	6823      	ldr	r3, [r4, #0]
 8004cfa:	680e      	ldr	r6, [r1, #0]
 8004cfc:	061f      	lsls	r7, r3, #24
 8004cfe:	f856 5b04 	ldr.w	r5, [r6], #4
 8004d02:	600e      	str	r6, [r1, #0]
 8004d04:	d514      	bpl.n	8004d30 <_printf_i+0x1ac>
 8004d06:	07d9      	lsls	r1, r3, #31
 8004d08:	bf44      	itt	mi
 8004d0a:	f043 0320 	orrmi.w	r3, r3, #32
 8004d0e:	6023      	strmi	r3, [r4, #0]
 8004d10:	b91d      	cbnz	r5, 8004d1a <_printf_i+0x196>
 8004d12:	6823      	ldr	r3, [r4, #0]
 8004d14:	f023 0320 	bic.w	r3, r3, #32
 8004d18:	6023      	str	r3, [r4, #0]
 8004d1a:	2310      	movs	r3, #16
 8004d1c:	e7b0      	b.n	8004c80 <_printf_i+0xfc>
 8004d1e:	6823      	ldr	r3, [r4, #0]
 8004d20:	f043 0320 	orr.w	r3, r3, #32
 8004d24:	6023      	str	r3, [r4, #0]
 8004d26:	2378      	movs	r3, #120	; 0x78
 8004d28:	4828      	ldr	r0, [pc, #160]	; (8004dcc <_printf_i+0x248>)
 8004d2a:	f884 3045 	strb.w	r3, [r4, #69]	; 0x45
 8004d2e:	e7e3      	b.n	8004cf8 <_printf_i+0x174>
 8004d30:	065e      	lsls	r6, r3, #25
 8004d32:	bf48      	it	mi
 8004d34:	b2ad      	uxthmi	r5, r5
 8004d36:	e7e6      	b.n	8004d06 <_printf_i+0x182>
 8004d38:	4616      	mov	r6, r2
 8004d3a:	e7bb      	b.n	8004cb4 <_printf_i+0x130>
 8004d3c:	680b      	ldr	r3, [r1, #0]
 8004d3e:	6826      	ldr	r6, [r4, #0]
 8004d40:	6960      	ldr	r0, [r4, #20]
 8004d42:	1d1d      	adds	r5, r3, #4
 8004d44:	600d      	str	r5, [r1, #0]
 8004d46:	0635      	lsls	r5, r6, #24
 8004d48:	681b      	ldr	r3, [r3, #0]
 8004d4a:	d501      	bpl.n	8004d50 <_printf_i+0x1cc>
 8004d4c:	6018      	str	r0, [r3, #0]
 8004d4e:	e002      	b.n	8004d56 <_printf_i+0x1d2>
 8004d50:	0671      	lsls	r1, r6, #25
 8004d52:	d5fb      	bpl.n	8004d4c <_printf_i+0x1c8>
 8004d54:	8018      	strh	r0, [r3, #0]
 8004d56:	2300      	movs	r3, #0
 8004d58:	6123      	str	r3, [r4, #16]
 8004d5a:	4616      	mov	r6, r2
 8004d5c:	e7ba      	b.n	8004cd4 <_printf_i+0x150>
 8004d5e:	680b      	ldr	r3, [r1, #0]
 8004d60:	1d1a      	adds	r2, r3, #4
 8004d62:	600a      	str	r2, [r1, #0]
 8004d64:	681e      	ldr	r6, [r3, #0]
 8004d66:	6862      	ldr	r2, [r4, #4]
 8004d68:	2100      	movs	r1, #0
 8004d6a:	4630      	mov	r0, r6
 8004d6c:	f7fb fa58 	bl	8000220 <memchr>
 8004d70:	b108      	cbz	r0, 8004d76 <_printf_i+0x1f2>
 8004d72:	1b80      	subs	r0, r0, r6
 8004d74:	6060      	str	r0, [r4, #4]
 8004d76:	6863      	ldr	r3, [r4, #4]
 8004d78:	6123      	str	r3, [r4, #16]
 8004d7a:	2300      	movs	r3, #0
 8004d7c:	f884 3043 	strb.w	r3, [r4, #67]	; 0x43
 8004d80:	e7a8      	b.n	8004cd4 <_printf_i+0x150>
 8004d82:	6923      	ldr	r3, [r4, #16]
 8004d84:	4632      	mov	r2, r6
 8004d86:	4649      	mov	r1, r9
 8004d88:	4640      	mov	r0, r8
 8004d8a:	47d0      	blx	sl
 8004d8c:	3001      	adds	r0, #1
 8004d8e:	d0ab      	beq.n	8004ce8 <_printf_i+0x164>
 8004d90:	6823      	ldr	r3, [r4, #0]
 8004d92:	079b      	lsls	r3, r3, #30
 8004d94:	d413      	bmi.n	8004dbe <_printf_i+0x23a>
 8004d96:	68e0      	ldr	r0, [r4, #12]
 8004d98:	9b03      	ldr	r3, [sp, #12]
 8004d9a:	4298      	cmp	r0, r3
 8004d9c:	bfb8      	it	lt
 8004d9e:	4618      	movlt	r0, r3
 8004da0:	e7a4      	b.n	8004cec <_printf_i+0x168>
 8004da2:	2301      	movs	r3, #1
 8004da4:	4632      	mov	r2, r6
 8004da6:	4649      	mov	r1, r9
 8004da8:	4640      	mov	r0, r8
 8004daa:	47d0      	blx	sl
 8004dac:	3001      	adds	r0, #1
 8004dae:	d09b      	beq.n	8004ce8 <_printf_i+0x164>
 8004db0:	3501      	adds	r5, #1
 8004db2:	68e3      	ldr	r3, [r4, #12]
 8004db4:	9903      	ldr	r1, [sp, #12]
 8004db6:	1a5b      	subs	r3, r3, r1
 8004db8:	42ab      	cmp	r3, r5
 8004dba:	dcf2      	bgt.n	8004da2 <_printf_i+0x21e>
 8004dbc:	e7eb      	b.n	8004d96 <_printf_i+0x212>
 8004dbe:	2500      	movs	r5, #0
 8004dc0:	f104 0619 	add.w	r6, r4, #25
 8004dc4:	e7f5      	b.n	8004db2 <_printf_i+0x22e>
 8004dc6:	bf00      	nop
 8004dc8:	0800727a 	.word	0x0800727a
 8004dcc:	0800728b 	.word	0x0800728b

08004dd0 <siprintf>:
 8004dd0:	b40e      	push	{r1, r2, r3}
 8004dd2:	b500      	push	{lr}
 8004dd4:	b09c      	sub	sp, #112	; 0x70
 8004dd6:	ab1d      	add	r3, sp, #116	; 0x74
 8004dd8:	9002      	str	r0, [sp, #8]
 8004dda:	9006      	str	r0, [sp, #24]
 8004ddc:	f06f 4100 	mvn.w	r1, #2147483648	; 0x80000000
 8004de0:	4809      	ldr	r0, [pc, #36]	; (8004e08 <siprintf+0x38>)
 8004de2:	9107      	str	r1, [sp, #28]
 8004de4:	9104      	str	r1, [sp, #16]
 8004de6:	4909      	ldr	r1, [pc, #36]	; (8004e0c <siprintf+0x3c>)
 8004de8:	f853 2b04 	ldr.w	r2, [r3], #4
 8004dec:	9105      	str	r1, [sp, #20]
 8004dee:	6800      	ldr	r0, [r0, #0]
 8004df0:	9301      	str	r3, [sp, #4]
 8004df2:	a902      	add	r1, sp, #8
 8004df4:	f001 fb32 	bl	800645c <_svfiprintf_r>
 8004df8:	9b02      	ldr	r3, [sp, #8]
 8004dfa:	2200      	movs	r2, #0
 8004dfc:	701a      	strb	r2, [r3, #0]
 8004dfe:	b01c      	add	sp, #112	; 0x70
 8004e00:	f85d eb04 	ldr.w	lr, [sp], #4
 8004e04:	b003      	add	sp, #12
 8004e06:	4770      	bx	lr
 8004e08:	2000000c 	.word	0x2000000c
 8004e0c:	ffff0208 	.word	0xffff0208

08004e10 <quorem>:
 8004e10:	e92d 4ff7 	stmdb	sp!, {r0, r1, r2, r4, r5, r6, r7, r8, r9, sl, fp, lr}
 8004e14:	6903      	ldr	r3, [r0, #16]
 8004e16:	690c      	ldr	r4, [r1, #16]
 8004e18:	42a3      	cmp	r3, r4
 8004e1a:	4607      	mov	r7, r0
 8004e1c:	f2c0 8081 	blt.w	8004f22 <quorem+0x112>
 8004e20:	3c01      	subs	r4, #1
 8004e22:	f101 0814 	add.w	r8, r1, #20
 8004e26:	f100 0514 	add.w	r5, r0, #20
 8004e2a:	eb05 0384 	add.w	r3, r5, r4, lsl #2
 8004e2e:	9301      	str	r3, [sp, #4]
 8004e30:	f858 3024 	ldr.w	r3, [r8, r4, lsl #2]
 8004e34:	f855 2024 	ldr.w	r2, [r5, r4, lsl #2]
 8004e38:	3301      	adds	r3, #1
 8004e3a:	429a      	cmp	r2, r3
 8004e3c:	ea4f 0b84 	mov.w	fp, r4, lsl #2
 8004e40:	eb08 0984 	add.w	r9, r8, r4, lsl #2
 8004e44:	fbb2 f6f3 	udiv	r6, r2, r3
 8004e48:	d331      	bcc.n	8004eae <quorem+0x9e>
 8004e4a:	f04f 0e00 	mov.w	lr, #0
 8004e4e:	4640      	mov	r0, r8
 8004e50:	46ac      	mov	ip, r5
 8004e52:	46f2      	mov	sl, lr
 8004e54:	f850 2b04 	ldr.w	r2, [r0], #4
 8004e58:	b293      	uxth	r3, r2
 8004e5a:	fb06 e303 	mla	r3, r6, r3, lr
 8004e5e:	ea4f 4e13 	mov.w	lr, r3, lsr #16
 8004e62:	b29b      	uxth	r3, r3
 8004e64:	ebaa 0303 	sub.w	r3, sl, r3
 8004e68:	0c12      	lsrs	r2, r2, #16
 8004e6a:	f8dc a000 	ldr.w	sl, [ip]
 8004e6e:	fb06 e202 	mla	r2, r6, r2, lr
 8004e72:	fa13 f38a 	uxtah	r3, r3, sl
 8004e76:	ea4f 4e12 	mov.w	lr, r2, lsr #16
 8004e7a:	fa1f fa82 	uxth.w	sl, r2
 8004e7e:	f8dc 2000 	ldr.w	r2, [ip]
 8004e82:	ebca 4212 	rsb	r2, sl, r2, lsr #16
 8004e86:	eb02 4223 	add.w	r2, r2, r3, asr #16
 8004e8a:	b29b      	uxth	r3, r3
 8004e8c:	ea43 4302 	orr.w	r3, r3, r2, lsl #16
 8004e90:	4581      	cmp	r9, r0
 8004e92:	f84c 3b04 	str.w	r3, [ip], #4
 8004e96:	ea4f 4a22 	mov.w	sl, r2, asr #16
 8004e9a:	d2db      	bcs.n	8004e54 <quorem+0x44>
 8004e9c:	f855 300b 	ldr.w	r3, [r5, fp]
 8004ea0:	b92b      	cbnz	r3, 8004eae <quorem+0x9e>
 8004ea2:	9b01      	ldr	r3, [sp, #4]
 8004ea4:	3b04      	subs	r3, #4
 8004ea6:	429d      	cmp	r5, r3
 8004ea8:	461a      	mov	r2, r3
 8004eaa:	d32e      	bcc.n	8004f0a <quorem+0xfa>
 8004eac:	613c      	str	r4, [r7, #16]
 8004eae:	4638      	mov	r0, r7
 8004eb0:	f001 f8be 	bl	8006030 <__mcmp>
 8004eb4:	2800      	cmp	r0, #0
 8004eb6:	db24      	blt.n	8004f02 <quorem+0xf2>
 8004eb8:	3601      	adds	r6, #1
 8004eba:	4628      	mov	r0, r5
 8004ebc:	f04f 0c00 	mov.w	ip, #0
 8004ec0:	f858 2b04 	ldr.w	r2, [r8], #4
 8004ec4:	f8d0 e000 	ldr.w	lr, [r0]
 8004ec8:	b293      	uxth	r3, r2
 8004eca:	ebac 0303 	sub.w	r3, ip, r3
 8004ece:	0c12      	lsrs	r2, r2, #16
 8004ed0:	fa13 f38e 	uxtah	r3, r3, lr
 8004ed4:	ebc2 421e 	rsb	r2, r2, lr, lsr #16
 8004ed8:	eb02 4223 	add.w	r2, r2, r3, asr #16
 8004edc:	b29b      	uxth	r3, r3
 8004ede:	ea43 4302 	orr.w	r3, r3, r2, lsl #16
 8004ee2:	45c1      	cmp	r9, r8
 8004ee4:	f840 3b04 	str.w	r3, [r0], #4
 8004ee8:	ea4f 4c22 	mov.w	ip, r2, asr #16
 8004eec:	d2e8      	bcs.n	8004ec0 <quorem+0xb0>
 8004eee:	f855 2024 	ldr.w	r2, [r5, r4, lsl #2]
 8004ef2:	eb05 0384 	add.w	r3, r5, r4, lsl #2
 8004ef6:	b922      	cbnz	r2, 8004f02 <quorem+0xf2>
 8004ef8:	3b04      	subs	r3, #4
 8004efa:	429d      	cmp	r5, r3
 8004efc:	461a      	mov	r2, r3
 8004efe:	d30a      	bcc.n	8004f16 <quorem+0x106>
 8004f00:	613c      	str	r4, [r7, #16]
 8004f02:	4630      	mov	r0, r6
 8004f04:	b003      	add	sp, #12
 8004f06:	e8bd 8ff0 	ldmia.w	sp!, {r4, r5, r6, r7, r8, r9, sl, fp, pc}
 8004f0a:	6812      	ldr	r2, [r2, #0]
 8004f0c:	3b04      	subs	r3, #4
 8004f0e:	2a00      	cmp	r2, #0
 8004f10:	d1cc      	bne.n	8004eac <quorem+0x9c>
 8004f12:	3c01      	subs	r4, #1
 8004f14:	e7c7      	b.n	8004ea6 <quorem+0x96>
 8004f16:	6812      	ldr	r2, [r2, #0]
 8004f18:	3b04      	subs	r3, #4
 8004f1a:	2a00      	cmp	r2, #0
 8004f1c:	d1f0      	bne.n	8004f00 <quorem+0xf0>
 8004f1e:	3c01      	subs	r4, #1
 8004f20:	e7eb      	b.n	8004efa <quorem+0xea>
 8004f22:	2000      	movs	r0, #0
 8004f24:	e7ee      	b.n	8004f04 <quorem+0xf4>
	...

08004f28 <_dtoa_r>:
 8004f28:	e92d 4ff0 	stmdb	sp!, {r4, r5, r6, r7, r8, r9, sl, fp, lr}
 8004f2c:	ed2d 8b02 	vpush	{d8}
 8004f30:	ec57 6b10 	vmov	r6, r7, d0
 8004f34:	b095      	sub	sp, #84	; 0x54
 8004f36:	6a45      	ldr	r5, [r0, #36]	; 0x24
 8004f38:	f8dd 8080 	ldr.w	r8, [sp, #128]	; 0x80
 8004f3c:	9105      	str	r1, [sp, #20]
 8004f3e:	e9cd 6702 	strd	r6, r7, [sp, #8]
 8004f42:	4604      	mov	r4, r0
 8004f44:	9209      	str	r2, [sp, #36]	; 0x24
 8004f46:	930f      	str	r3, [sp, #60]	; 0x3c
 8004f48:	b975      	cbnz	r5, 8004f68 <_dtoa_r+0x40>
 8004f4a:	2010      	movs	r0, #16
 8004f4c:	f000 fddc 	bl	8005b08 <malloc>
 8004f50:	4602      	mov	r2, r0
 8004f52:	6260      	str	r0, [r4, #36]	; 0x24
 8004f54:	b920      	cbnz	r0, 8004f60 <_dtoa_r+0x38>
 8004f56:	4bb2      	ldr	r3, [pc, #712]	; (8005220 <_dtoa_r+0x2f8>)
 8004f58:	21ea      	movs	r1, #234	; 0xea
 8004f5a:	48b2      	ldr	r0, [pc, #712]	; (8005224 <_dtoa_r+0x2fc>)
 8004f5c:	f001 fb8e 	bl	800667c <__assert_func>
 8004f60:	e9c0 5501 	strd	r5, r5, [r0, #4]
 8004f64:	6005      	str	r5, [r0, #0]
 8004f66:	60c5      	str	r5, [r0, #12]
 8004f68:	6a63      	ldr	r3, [r4, #36]	; 0x24
 8004f6a:	6819      	ldr	r1, [r3, #0]
 8004f6c:	b151      	cbz	r1, 8004f84 <_dtoa_r+0x5c>
 8004f6e:	685a      	ldr	r2, [r3, #4]
 8004f70:	604a      	str	r2, [r1, #4]
 8004f72:	2301      	movs	r3, #1
 8004f74:	4093      	lsls	r3, r2
 8004f76:	608b      	str	r3, [r1, #8]
 8004f78:	4620      	mov	r0, r4
 8004f7a:	f000 fe1b 	bl	8005bb4 <_Bfree>
 8004f7e:	6a63      	ldr	r3, [r4, #36]	; 0x24
 8004f80:	2200      	movs	r2, #0
 8004f82:	601a      	str	r2, [r3, #0]
 8004f84:	1e3b      	subs	r3, r7, #0
 8004f86:	bfb9      	ittee	lt
 8004f88:	f023 4300 	biclt.w	r3, r3, #2147483648	; 0x80000000
 8004f8c:	9303      	strlt	r3, [sp, #12]
 8004f8e:	2300      	movge	r3, #0
 8004f90:	f8c8 3000 	strge.w	r3, [r8]
 8004f94:	f8dd 900c 	ldr.w	r9, [sp, #12]
 8004f98:	4ba3      	ldr	r3, [pc, #652]	; (8005228 <_dtoa_r+0x300>)
 8004f9a:	bfbc      	itt	lt
 8004f9c:	2201      	movlt	r2, #1
 8004f9e:	f8c8 2000 	strlt.w	r2, [r8]
 8004fa2:	ea33 0309 	bics.w	r3, r3, r9
 8004fa6:	d11b      	bne.n	8004fe0 <_dtoa_r+0xb8>
 8004fa8:	9a0f      	ldr	r2, [sp, #60]	; 0x3c
 8004faa:	f242 730f 	movw	r3, #9999	; 0x270f
 8004fae:	6013      	str	r3, [r2, #0]
 8004fb0:	f3c9 0313 	ubfx	r3, r9, #0, #20
 8004fb4:	4333      	orrs	r3, r6
 8004fb6:	f000 857a 	beq.w	8005aae <_dtoa_r+0xb86>
 8004fba:	9b21      	ldr	r3, [sp, #132]	; 0x84
 8004fbc:	b963      	cbnz	r3, 8004fd8 <_dtoa_r+0xb0>
 8004fbe:	4b9b      	ldr	r3, [pc, #620]	; (800522c <_dtoa_r+0x304>)
 8004fc0:	e024      	b.n	800500c <_dtoa_r+0xe4>
 8004fc2:	4b9b      	ldr	r3, [pc, #620]	; (8005230 <_dtoa_r+0x308>)
 8004fc4:	9300      	str	r3, [sp, #0]
 8004fc6:	3308      	adds	r3, #8
 8004fc8:	9a21      	ldr	r2, [sp, #132]	; 0x84
 8004fca:	6013      	str	r3, [r2, #0]
 8004fcc:	9800      	ldr	r0, [sp, #0]
 8004fce:	b015      	add	sp, #84	; 0x54
 8004fd0:	ecbd 8b02 	vpop	{d8}
 8004fd4:	e8bd 8ff0 	ldmia.w	sp!, {r4, r5, r6, r7, r8, r9, sl, fp, pc}
 8004fd8:	4b94      	ldr	r3, [pc, #592]	; (800522c <_dtoa_r+0x304>)
 8004fda:	9300      	str	r3, [sp, #0]
 8004fdc:	3303      	adds	r3, #3
 8004fde:	e7f3      	b.n	8004fc8 <_dtoa_r+0xa0>
 8004fe0:	ed9d 7b02 	vldr	d7, [sp, #8]
 8004fe4:	2200      	movs	r2, #0
 8004fe6:	ec51 0b17 	vmov	r0, r1, d7
 8004fea:	2300      	movs	r3, #0
 8004fec:	ed8d 7b0a 	vstr	d7, [sp, #40]	; 0x28
 8004ff0:	f7fb fd8a 	bl	8000b08 <__aeabi_dcmpeq>
 8004ff4:	4680      	mov	r8, r0
 8004ff6:	b158      	cbz	r0, 8005010 <_dtoa_r+0xe8>
 8004ff8:	9a0f      	ldr	r2, [sp, #60]	; 0x3c
 8004ffa:	2301      	movs	r3, #1
 8004ffc:	6013      	str	r3, [r2, #0]
 8004ffe:	9b21      	ldr	r3, [sp, #132]	; 0x84
 8005000:	2b00      	cmp	r3, #0
 8005002:	f000 8551 	beq.w	8005aa8 <_dtoa_r+0xb80>
 8005006:	488b      	ldr	r0, [pc, #556]	; (8005234 <_dtoa_r+0x30c>)
 8005008:	6018      	str	r0, [r3, #0]
 800500a:	1e43      	subs	r3, r0, #1
 800500c:	9300      	str	r3, [sp, #0]
 800500e:	e7dd      	b.n	8004fcc <_dtoa_r+0xa4>
 8005010:	ed9d 0b0a 	vldr	d0, [sp, #40]	; 0x28
 8005014:	aa12      	add	r2, sp, #72	; 0x48
 8005016:	a913      	add	r1, sp, #76	; 0x4c
 8005018:	4620      	mov	r0, r4
 800501a:	f001 f8ad 	bl	8006178 <__d2b>
 800501e:	f3c9 550a 	ubfx	r5, r9, #20, #11
 8005022:	4683      	mov	fp, r0
 8005024:	2d00      	cmp	r5, #0
 8005026:	d07c      	beq.n	8005122 <_dtoa_r+0x1fa>
 8005028:	9b0b      	ldr	r3, [sp, #44]	; 0x2c
 800502a:	f8cd 8040 	str.w	r8, [sp, #64]	; 0x40
 800502e:	f3c3 0313 	ubfx	r3, r3, #0, #20
 8005032:	e9dd 670a 	ldrd	r6, r7, [sp, #40]	; 0x28
 8005036:	f043 577f 	orr.w	r7, r3, #1069547520	; 0x3fc00000
 800503a:	f447 1740 	orr.w	r7, r7, #3145728	; 0x300000
 800503e:	f2a5 35ff 	subw	r5, r5, #1023	; 0x3ff
 8005042:	4b7d      	ldr	r3, [pc, #500]	; (8005238 <_dtoa_r+0x310>)
 8005044:	2200      	movs	r2, #0
 8005046:	4630      	mov	r0, r6
 8005048:	4639      	mov	r1, r7
 800504a:	f7fb f93d 	bl	80002c8 <__aeabi_dsub>
 800504e:	a36e      	add	r3, pc, #440	; (adr r3, 8005208 <_dtoa_r+0x2e0>)
 8005050:	e9d3 2300 	ldrd	r2, r3, [r3]
 8005054:	f7fb faf0 	bl	8000638 <__aeabi_dmul>
 8005058:	a36d      	add	r3, pc, #436	; (adr r3, 8005210 <_dtoa_r+0x2e8>)
 800505a:	e9d3 2300 	ldrd	r2, r3, [r3]
 800505e:	f7fb f935 	bl	80002cc <__adddf3>
 8005062:	4606      	mov	r6, r0
 8005064:	4628      	mov	r0, r5
 8005066:	460f      	mov	r7, r1
 8005068:	f7fb fa7c 	bl	8000564 <__aeabi_i2d>
 800506c:	a36a      	add	r3, pc, #424	; (adr r3, 8005218 <_dtoa_r+0x2f0>)
 800506e:	e9d3 2300 	ldrd	r2, r3, [r3]
 8005072:	f7fb fae1 	bl	8000638 <__aeabi_dmul>
 8005076:	4602      	mov	r2, r0
 8005078:	460b      	mov	r3, r1
 800507a:	4630      	mov	r0, r6
 800507c:	4639      	mov	r1, r7
 800507e:	f7fb f925 	bl	80002cc <__adddf3>
 8005082:	4606      	mov	r6, r0
 8005084:	460f      	mov	r7, r1
 8005086:	f7fb fd87 	bl	8000b98 <__aeabi_d2iz>
 800508a:	2200      	movs	r2, #0
 800508c:	4682      	mov	sl, r0
 800508e:	2300      	movs	r3, #0
 8005090:	4630      	mov	r0, r6
 8005092:	4639      	mov	r1, r7
 8005094:	f7fb fd42 	bl	8000b1c <__aeabi_dcmplt>
 8005098:	b148      	cbz	r0, 80050ae <_dtoa_r+0x186>
 800509a:	4650      	mov	r0, sl
 800509c:	f7fb fa62 	bl	8000564 <__aeabi_i2d>
 80050a0:	4632      	mov	r2, r6
 80050a2:	463b      	mov	r3, r7
 80050a4:	f7fb fd30 	bl	8000b08 <__aeabi_dcmpeq>
 80050a8:	b908      	cbnz	r0, 80050ae <_dtoa_r+0x186>
 80050aa:	f10a 3aff 	add.w	sl, sl, #4294967295
 80050ae:	f1ba 0f16 	cmp.w	sl, #22
 80050b2:	d854      	bhi.n	800515e <_dtoa_r+0x236>
 80050b4:	4b61      	ldr	r3, [pc, #388]	; (800523c <_dtoa_r+0x314>)
 80050b6:	eb03 03ca 	add.w	r3, r3, sl, lsl #3
 80050ba:	e9d3 2300 	ldrd	r2, r3, [r3]
 80050be:	e9dd 010a 	ldrd	r0, r1, [sp, #40]	; 0x28
 80050c2:	f7fb fd2b 	bl	8000b1c <__aeabi_dcmplt>
 80050c6:	2800      	cmp	r0, #0
 80050c8:	d04b      	beq.n	8005162 <_dtoa_r+0x23a>
 80050ca:	f10a 3aff 	add.w	sl, sl, #4294967295
 80050ce:	2300      	movs	r3, #0
 80050d0:	930e      	str	r3, [sp, #56]	; 0x38
 80050d2:	9b12      	ldr	r3, [sp, #72]	; 0x48
 80050d4:	1b5d      	subs	r5, r3, r5
 80050d6:	1e6b      	subs	r3, r5, #1
 80050d8:	9304      	str	r3, [sp, #16]
 80050da:	bf43      	ittte	mi
 80050dc:	2300      	movmi	r3, #0
 80050de:	f1c5 0801 	rsbmi	r8, r5, #1
 80050e2:	9304      	strmi	r3, [sp, #16]
 80050e4:	f04f 0800 	movpl.w	r8, #0
 80050e8:	f1ba 0f00 	cmp.w	sl, #0
 80050ec:	db3b      	blt.n	8005166 <_dtoa_r+0x23e>
 80050ee:	9b04      	ldr	r3, [sp, #16]
 80050f0:	f8cd a034 	str.w	sl, [sp, #52]	; 0x34
 80050f4:	4453      	add	r3, sl
 80050f6:	9304      	str	r3, [sp, #16]
 80050f8:	2300      	movs	r3, #0
 80050fa:	9306      	str	r3, [sp, #24]
 80050fc:	9b05      	ldr	r3, [sp, #20]
 80050fe:	2b09      	cmp	r3, #9
 8005100:	d869      	bhi.n	80051d6 <_dtoa_r+0x2ae>
 8005102:	2b05      	cmp	r3, #5
 8005104:	bfc4      	itt	gt
 8005106:	3b04      	subgt	r3, #4
 8005108:	9305      	strgt	r3, [sp, #20]
 800510a:	9b05      	ldr	r3, [sp, #20]
 800510c:	f1a3 0302 	sub.w	r3, r3, #2
 8005110:	bfcc      	ite	gt
 8005112:	2500      	movgt	r5, #0
 8005114:	2501      	movle	r5, #1
 8005116:	2b03      	cmp	r3, #3
 8005118:	d869      	bhi.n	80051ee <_dtoa_r+0x2c6>
 800511a:	e8df f003 	tbb	[pc, r3]
 800511e:	4e2c      	.short	0x4e2c
 8005120:	5a4c      	.short	0x5a4c
 8005122:	e9dd 5312 	ldrd	r5, r3, [sp, #72]	; 0x48
 8005126:	441d      	add	r5, r3
 8005128:	f205 4332 	addw	r3, r5, #1074	; 0x432
 800512c:	2b20      	cmp	r3, #32
 800512e:	bfc1      	itttt	gt
 8005130:	f1c3 0340 	rsbgt	r3, r3, #64	; 0x40
 8005134:	f205 4012 	addwgt	r0, r5, #1042	; 0x412
 8005138:	fa09 f303 	lslgt.w	r3, r9, r3
 800513c:	fa26 f000 	lsrgt.w	r0, r6, r0
 8005140:	bfda      	itte	le
 8005142:	f1c3 0320 	rsble	r3, r3, #32
 8005146:	fa06 f003 	lslle.w	r0, r6, r3
 800514a:	4318      	orrgt	r0, r3
 800514c:	f7fb f9fa 	bl	8000544 <__aeabi_ui2d>
 8005150:	2301      	movs	r3, #1
 8005152:	4606      	mov	r6, r0
 8005154:	f1a1 77f8 	sub.w	r7, r1, #32505856	; 0x1f00000
 8005158:	3d01      	subs	r5, #1
 800515a:	9310      	str	r3, [sp, #64]	; 0x40
 800515c:	e771      	b.n	8005042 <_dtoa_r+0x11a>
 800515e:	2301      	movs	r3, #1
 8005160:	e7b6      	b.n	80050d0 <_dtoa_r+0x1a8>
 8005162:	900e      	str	r0, [sp, #56]	; 0x38
 8005164:	e7b5      	b.n	80050d2 <_dtoa_r+0x1aa>
 8005166:	f1ca 0300 	rsb	r3, sl, #0
 800516a:	9306      	str	r3, [sp, #24]
 800516c:	2300      	movs	r3, #0
 800516e:	eba8 080a 	sub.w	r8, r8, sl
 8005172:	930d      	str	r3, [sp, #52]	; 0x34
 8005174:	e7c2      	b.n	80050fc <_dtoa_r+0x1d4>
 8005176:	2300      	movs	r3, #0
 8005178:	9308      	str	r3, [sp, #32]
 800517a:	9b09      	ldr	r3, [sp, #36]	; 0x24
 800517c:	2b00      	cmp	r3, #0
 800517e:	dc39      	bgt.n	80051f4 <_dtoa_r+0x2cc>
 8005180:	f04f 0901 	mov.w	r9, #1
 8005184:	f8cd 9004 	str.w	r9, [sp, #4]
 8005188:	464b      	mov	r3, r9
 800518a:	f8cd 9024 	str.w	r9, [sp, #36]	; 0x24
 800518e:	6a60      	ldr	r0, [r4, #36]	; 0x24
 8005190:	2200      	movs	r2, #0
 8005192:	6042      	str	r2, [r0, #4]
 8005194:	2204      	movs	r2, #4
 8005196:	f102 0614 	add.w	r6, r2, #20
 800519a:	429e      	cmp	r6, r3
 800519c:	6841      	ldr	r1, [r0, #4]
 800519e:	d92f      	bls.n	8005200 <_dtoa_r+0x2d8>
 80051a0:	4620      	mov	r0, r4
 80051a2:	f000 fcc7 	bl	8005b34 <_Balloc>
 80051a6:	9000      	str	r0, [sp, #0]
 80051a8:	2800      	cmp	r0, #0
 80051aa:	d14b      	bne.n	8005244 <_dtoa_r+0x31c>
 80051ac:	4b24      	ldr	r3, [pc, #144]	; (8005240 <_dtoa_r+0x318>)
 80051ae:	4602      	mov	r2, r0
 80051b0:	f44f 71d5 	mov.w	r1, #426	; 0x1aa
 80051b4:	e6d1      	b.n	8004f5a <_dtoa_r+0x32>
 80051b6:	2301      	movs	r3, #1
 80051b8:	e7de      	b.n	8005178 <_dtoa_r+0x250>
 80051ba:	2300      	movs	r3, #0
 80051bc:	9308      	str	r3, [sp, #32]
 80051be:	9b09      	ldr	r3, [sp, #36]	; 0x24
 80051c0:	eb0a 0903 	add.w	r9, sl, r3
 80051c4:	f109 0301 	add.w	r3, r9, #1
 80051c8:	2b01      	cmp	r3, #1
 80051ca:	9301      	str	r3, [sp, #4]
 80051cc:	bfb8      	it	lt
 80051ce:	2301      	movlt	r3, #1
 80051d0:	e7dd      	b.n	800518e <_dtoa_r+0x266>
 80051d2:	2301      	movs	r3, #1
 80051d4:	e7f2      	b.n	80051bc <_dtoa_r+0x294>
 80051d6:	2501      	movs	r5, #1
 80051d8:	2300      	movs	r3, #0
 80051da:	9305      	str	r3, [sp, #20]
 80051dc:	9508      	str	r5, [sp, #32]
 80051de:	f04f 39ff 	mov.w	r9, #4294967295
 80051e2:	2200      	movs	r2, #0
 80051e4:	f8cd 9004 	str.w	r9, [sp, #4]
 80051e8:	2312      	movs	r3, #18
 80051ea:	9209      	str	r2, [sp, #36]	; 0x24
 80051ec:	e7cf      	b.n	800518e <_dtoa_r+0x266>
 80051ee:	2301      	movs	r3, #1
 80051f0:	9308      	str	r3, [sp, #32]
 80051f2:	e7f4      	b.n	80051de <_dtoa_r+0x2b6>
 80051f4:	f8dd 9024 	ldr.w	r9, [sp, #36]	; 0x24
 80051f8:	f8cd 9004 	str.w	r9, [sp, #4]
 80051fc:	464b      	mov	r3, r9
 80051fe:	e7c6      	b.n	800518e <_dtoa_r+0x266>
 8005200:	3101      	adds	r1, #1
 8005202:	6041      	str	r1, [r0, #4]
 8005204:	0052      	lsls	r2, r2, #1
 8005206:	e7c6      	b.n	8005196 <_dtoa_r+0x26e>
 8005208:	636f4361 	.word	0x636f4361
 800520c:	3fd287a7 	.word	0x3fd287a7
 8005210:	8b60c8b3 	.word	0x8b60c8b3
 8005214:	3fc68a28 	.word	0x3fc68a28
 8005218:	509f79fb 	.word	0x509f79fb
 800521c:	3fd34413 	.word	0x3fd34413
 8005220:	080072a9 	.word	0x080072a9
 8005224:	080072c0 	.word	0x080072c0
 8005228:	7ff00000 	.word	0x7ff00000
 800522c:	080072a5 	.word	0x080072a5
 8005230:	0800729c 	.word	0x0800729c
 8005234:	08007279 	.word	0x08007279
 8005238:	3ff80000 	.word	0x3ff80000
 800523c:	080073b8 	.word	0x080073b8
 8005240:	0800731f 	.word	0x0800731f
 8005244:	6a63      	ldr	r3, [r4, #36]	; 0x24
 8005246:	9a00      	ldr	r2, [sp, #0]
 8005248:	601a      	str	r2, [r3, #0]
 800524a:	9b01      	ldr	r3, [sp, #4]
 800524c:	2b0e      	cmp	r3, #14
 800524e:	f200 80ad 	bhi.w	80053ac <_dtoa_r+0x484>
 8005252:	2d00      	cmp	r5, #0
 8005254:	f000 80aa 	beq.w	80053ac <_dtoa_r+0x484>
 8005258:	f1ba 0f00 	cmp.w	sl, #0
 800525c:	dd36      	ble.n	80052cc <_dtoa_r+0x3a4>
 800525e:	4ac3      	ldr	r2, [pc, #780]	; (800556c <_dtoa_r+0x644>)
 8005260:	f00a 030f 	and.w	r3, sl, #15
 8005264:	eb02 03c3 	add.w	r3, r2, r3, lsl #3
 8005268:	ed93 7b00 	vldr	d7, [r3]
 800526c:	f41a 7f80 	tst.w	sl, #256	; 0x100
 8005270:	ea4f 172a 	mov.w	r7, sl, asr #4
 8005274:	eeb0 8a47 	vmov.f32	s16, s14
 8005278:	eef0 8a67 	vmov.f32	s17, s15
 800527c:	d016      	beq.n	80052ac <_dtoa_r+0x384>
 800527e:	4bbc      	ldr	r3, [pc, #752]	; (8005570 <_dtoa_r+0x648>)
 8005280:	e9dd 010a 	ldrd	r0, r1, [sp, #40]	; 0x28
 8005284:	e9d3 2308 	ldrd	r2, r3, [r3, #32]
 8005288:	f7fb fb00 	bl	800088c <__aeabi_ddiv>
 800528c:	e9cd 0102 	strd	r0, r1, [sp, #8]
 8005290:	f007 070f 	and.w	r7, r7, #15
 8005294:	2503      	movs	r5, #3
 8005296:	4eb6      	ldr	r6, [pc, #728]	; (8005570 <_dtoa_r+0x648>)
 8005298:	b957      	cbnz	r7, 80052b0 <_dtoa_r+0x388>
 800529a:	e9dd 0102 	ldrd	r0, r1, [sp, #8]
 800529e:	ec53 2b18 	vmov	r2, r3, d8
 80052a2:	f7fb faf3 	bl	800088c <__aeabi_ddiv>
 80052a6:	e9cd 0102 	strd	r0, r1, [sp, #8]
 80052aa:	e029      	b.n	8005300 <_dtoa_r+0x3d8>
 80052ac:	2502      	movs	r5, #2
 80052ae:	e7f2      	b.n	8005296 <_dtoa_r+0x36e>
 80052b0:	07f9      	lsls	r1, r7, #31
 80052b2:	d508      	bpl.n	80052c6 <_dtoa_r+0x39e>
 80052b4:	ec51 0b18 	vmov	r0, r1, d8
 80052b8:	e9d6 2300 	ldrd	r2, r3, [r6]
 80052bc:	f7fb f9bc 	bl	8000638 <__aeabi_dmul>
 80052c0:	ec41 0b18 	vmov	d8, r0, r1
 80052c4:	3501      	adds	r5, #1
 80052c6:	107f      	asrs	r7, r7, #1
 80052c8:	3608      	adds	r6, #8
 80052ca:	e7e5      	b.n	8005298 <_dtoa_r+0x370>
 80052cc:	f000 80a6 	beq.w	800541c <_dtoa_r+0x4f4>
 80052d0:	f1ca 0600 	rsb	r6, sl, #0
 80052d4:	4ba5      	ldr	r3, [pc, #660]	; (800556c <_dtoa_r+0x644>)
 80052d6:	4fa6      	ldr	r7, [pc, #664]	; (8005570 <_dtoa_r+0x648>)
 80052d8:	f006 020f 	and.w	r2, r6, #15
 80052dc:	eb03 03c2 	add.w	r3, r3, r2, lsl #3
 80052e0:	e9d3 2300 	ldrd	r2, r3, [r3]
 80052e4:	e9dd 010a 	ldrd	r0, r1, [sp, #40]	; 0x28
 80052e8:	f7fb f9a6 	bl	8000638 <__aeabi_dmul>
 80052ec:	e9cd 0102 	strd	r0, r1, [sp, #8]
 80052f0:	1136      	asrs	r6, r6, #4
 80052f2:	2300      	movs	r3, #0
 80052f4:	2502      	movs	r5, #2
 80052f6:	2e00      	cmp	r6, #0
 80052f8:	f040 8085 	bne.w	8005406 <_dtoa_r+0x4de>
 80052fc:	2b00      	cmp	r3, #0
 80052fe:	d1d2      	bne.n	80052a6 <_dtoa_r+0x37e>
 8005300:	9b0e      	ldr	r3, [sp, #56]	; 0x38
 8005302:	2b00      	cmp	r3, #0
 8005304:	f000 808c 	beq.w	8005420 <_dtoa_r+0x4f8>
 8005308:	e9dd 6702 	ldrd	r6, r7, [sp, #8]
 800530c:	4b99      	ldr	r3, [pc, #612]	; (8005574 <_dtoa_r+0x64c>)
 800530e:	2200      	movs	r2, #0
 8005310:	4630      	mov	r0, r6
 8005312:	4639      	mov	r1, r7
 8005314:	f7fb fc02 	bl	8000b1c <__aeabi_dcmplt>
 8005318:	2800      	cmp	r0, #0
 800531a:	f000 8081 	beq.w	8005420 <_dtoa_r+0x4f8>
 800531e:	9b01      	ldr	r3, [sp, #4]
 8005320:	2b00      	cmp	r3, #0
 8005322:	d07d      	beq.n	8005420 <_dtoa_r+0x4f8>
 8005324:	f1b9 0f00 	cmp.w	r9, #0
 8005328:	dd3c      	ble.n	80053a4 <_dtoa_r+0x47c>
 800532a:	f10a 33ff 	add.w	r3, sl, #4294967295
 800532e:	9307      	str	r3, [sp, #28]
 8005330:	2200      	movs	r2, #0
 8005332:	4b91      	ldr	r3, [pc, #580]	; (8005578 <_dtoa_r+0x650>)
 8005334:	4630      	mov	r0, r6
 8005336:	4639      	mov	r1, r7
 8005338:	f7fb f97e 	bl	8000638 <__aeabi_dmul>
 800533c:	e9cd 0102 	strd	r0, r1, [sp, #8]
 8005340:	3501      	adds	r5, #1
 8005342:	f8cd 9030 	str.w	r9, [sp, #48]	; 0x30
 8005346:	e9dd 6702 	ldrd	r6, r7, [sp, #8]
 800534a:	4628      	mov	r0, r5
 800534c:	f7fb f90a 	bl	8000564 <__aeabi_i2d>
 8005350:	4632      	mov	r2, r6
 8005352:	463b      	mov	r3, r7
 8005354:	f7fb f970 	bl	8000638 <__aeabi_dmul>
 8005358:	4b88      	ldr	r3, [pc, #544]	; (800557c <_dtoa_r+0x654>)
 800535a:	2200      	movs	r2, #0
 800535c:	f7fa ffb6 	bl	80002cc <__adddf3>
 8005360:	f1a1 7350 	sub.w	r3, r1, #54525952	; 0x3400000
 8005364:	e9cd 0102 	strd	r0, r1, [sp, #8]
 8005368:	9303      	str	r3, [sp, #12]
 800536a:	9b0c      	ldr	r3, [sp, #48]	; 0x30
 800536c:	2b00      	cmp	r3, #0
 800536e:	d15c      	bne.n	800542a <_dtoa_r+0x502>
 8005370:	4b83      	ldr	r3, [pc, #524]	; (8005580 <_dtoa_r+0x658>)
 8005372:	2200      	movs	r2, #0
 8005374:	4630      	mov	r0, r6
 8005376:	4639      	mov	r1, r7
 8005378:	f7fa ffa6 	bl	80002c8 <__aeabi_dsub>
 800537c:	e9dd 2302 	ldrd	r2, r3, [sp, #8]
 8005380:	4606      	mov	r6, r0
 8005382:	460f      	mov	r7, r1
 8005384:	f7fb fbe8 	bl	8000b58 <__aeabi_dcmpgt>
 8005388:	2800      	cmp	r0, #0
 800538a:	f040 8296 	bne.w	80058ba <_dtoa_r+0x992>
 800538e:	e9dd 2102 	ldrd	r2, r1, [sp, #8]
 8005392:	4630      	mov	r0, r6
 8005394:	f101 4300 	add.w	r3, r1, #2147483648	; 0x80000000
 8005398:	4639      	mov	r1, r7
 800539a:	f7fb fbbf 	bl	8000b1c <__aeabi_dcmplt>
 800539e:	2800      	cmp	r0, #0
 80053a0:	f040 8288 	bne.w	80058b4 <_dtoa_r+0x98c>
 80053a4:	e9dd 230a 	ldrd	r2, r3, [sp, #40]	; 0x28
 80053a8:	e9cd 2302 	strd	r2, r3, [sp, #8]
 80053ac:	9b13      	ldr	r3, [sp, #76]	; 0x4c
 80053ae:	2b00      	cmp	r3, #0
 80053b0:	f2c0 8158 	blt.w	8005664 <_dtoa_r+0x73c>
 80053b4:	f1ba 0f0e 	cmp.w	sl, #14
 80053b8:	f300 8154 	bgt.w	8005664 <_dtoa_r+0x73c>
 80053bc:	4b6b      	ldr	r3, [pc, #428]	; (800556c <_dtoa_r+0x644>)
 80053be:	eb03 03ca 	add.w	r3, r3, sl, lsl #3
 80053c2:	e9d3 8900 	ldrd	r8, r9, [r3]
 80053c6:	9b09      	ldr	r3, [sp, #36]	; 0x24
 80053c8:	2b00      	cmp	r3, #0
 80053ca:	f280 80e3 	bge.w	8005594 <_dtoa_r+0x66c>
 80053ce:	9b01      	ldr	r3, [sp, #4]
 80053d0:	2b00      	cmp	r3, #0
 80053d2:	f300 80df 	bgt.w	8005594 <_dtoa_r+0x66c>
 80053d6:	f040 826d 	bne.w	80058b4 <_dtoa_r+0x98c>
 80053da:	4b69      	ldr	r3, [pc, #420]	; (8005580 <_dtoa_r+0x658>)
 80053dc:	2200      	movs	r2, #0
 80053de:	4640      	mov	r0, r8
 80053e0:	4649      	mov	r1, r9
 80053e2:	f7fb f929 	bl	8000638 <__aeabi_dmul>
 80053e6:	e9dd 2302 	ldrd	r2, r3, [sp, #8]
 80053ea:	f7fb fbab 	bl	8000b44 <__aeabi_dcmpge>
 80053ee:	9e01      	ldr	r6, [sp, #4]
 80053f0:	4637      	mov	r7, r6
 80053f2:	2800      	cmp	r0, #0
 80053f4:	f040 8243 	bne.w	800587e <_dtoa_r+0x956>
 80053f8:	9d00      	ldr	r5, [sp, #0]
 80053fa:	2331      	movs	r3, #49	; 0x31
 80053fc:	f805 3b01 	strb.w	r3, [r5], #1
 8005400:	f10a 0a01 	add.w	sl, sl, #1
 8005404:	e23f      	b.n	8005886 <_dtoa_r+0x95e>
 8005406:	07f2      	lsls	r2, r6, #31
 8005408:	d505      	bpl.n	8005416 <_dtoa_r+0x4ee>
 800540a:	e9d7 2300 	ldrd	r2, r3, [r7]
 800540e:	f7fb f913 	bl	8000638 <__aeabi_dmul>
 8005412:	3501      	adds	r5, #1
 8005414:	2301      	movs	r3, #1
 8005416:	1076      	asrs	r6, r6, #1
 8005418:	3708      	adds	r7, #8
 800541a:	e76c      	b.n	80052f6 <_dtoa_r+0x3ce>
 800541c:	2502      	movs	r5, #2
 800541e:	e76f      	b.n	8005300 <_dtoa_r+0x3d8>
 8005420:	9b01      	ldr	r3, [sp, #4]
 8005422:	f8cd a01c 	str.w	sl, [sp, #28]
 8005426:	930c      	str	r3, [sp, #48]	; 0x30
 8005428:	e78d      	b.n	8005346 <_dtoa_r+0x41e>
 800542a:	9900      	ldr	r1, [sp, #0]
 800542c:	980c      	ldr	r0, [sp, #48]	; 0x30
 800542e:	9a0c      	ldr	r2, [sp, #48]	; 0x30
 8005430:	4b4e      	ldr	r3, [pc, #312]	; (800556c <_dtoa_r+0x644>)
 8005432:	ed9d 7b02 	vldr	d7, [sp, #8]
 8005436:	4401      	add	r1, r0
 8005438:	9102      	str	r1, [sp, #8]
 800543a:	9908      	ldr	r1, [sp, #32]
 800543c:	eeb0 8a47 	vmov.f32	s16, s14
 8005440:	eef0 8a67 	vmov.f32	s17, s15
 8005444:	eb03 03c2 	add.w	r3, r3, r2, lsl #3
 8005448:	e953 2302 	ldrd	r2, r3, [r3, #-8]
 800544c:	2900      	cmp	r1, #0
 800544e:	d045      	beq.n	80054dc <_dtoa_r+0x5b4>
 8005450:	494c      	ldr	r1, [pc, #304]	; (8005584 <_dtoa_r+0x65c>)
 8005452:	2000      	movs	r0, #0
 8005454:	f7fb fa1a 	bl	800088c <__aeabi_ddiv>
 8005458:	ec53 2b18 	vmov	r2, r3, d8
 800545c:	f7fa ff34 	bl	80002c8 <__aeabi_dsub>
 8005460:	9d00      	ldr	r5, [sp, #0]
 8005462:	ec41 0b18 	vmov	d8, r0, r1
 8005466:	4639      	mov	r1, r7
 8005468:	4630      	mov	r0, r6
 800546a:	f7fb fb95 	bl	8000b98 <__aeabi_d2iz>
 800546e:	900c      	str	r0, [sp, #48]	; 0x30
 8005470:	f7fb f878 	bl	8000564 <__aeabi_i2d>
 8005474:	4602      	mov	r2, r0
 8005476:	460b      	mov	r3, r1
 8005478:	4630      	mov	r0, r6
 800547a:	4639      	mov	r1, r7
 800547c:	f7fa ff24 	bl	80002c8 <__aeabi_dsub>
 8005480:	9b0c      	ldr	r3, [sp, #48]	; 0x30
 8005482:	3330      	adds	r3, #48	; 0x30
 8005484:	f805 3b01 	strb.w	r3, [r5], #1
 8005488:	ec53 2b18 	vmov	r2, r3, d8
 800548c:	4606      	mov	r6, r0
 800548e:	460f      	mov	r7, r1
 8005490:	f7fb fb44 	bl	8000b1c <__aeabi_dcmplt>
 8005494:	2800      	cmp	r0, #0
 8005496:	d165      	bne.n	8005564 <_dtoa_r+0x63c>
 8005498:	4632      	mov	r2, r6
 800549a:	463b      	mov	r3, r7
 800549c:	4935      	ldr	r1, [pc, #212]	; (8005574 <_dtoa_r+0x64c>)
 800549e:	2000      	movs	r0, #0
 80054a0:	f7fa ff12 	bl	80002c8 <__aeabi_dsub>
 80054a4:	ec53 2b18 	vmov	r2, r3, d8
 80054a8:	f7fb fb38 	bl	8000b1c <__aeabi_dcmplt>
 80054ac:	2800      	cmp	r0, #0
 80054ae:	f040 80b9 	bne.w	8005624 <_dtoa_r+0x6fc>
 80054b2:	9b02      	ldr	r3, [sp, #8]
 80054b4:	429d      	cmp	r5, r3
 80054b6:	f43f af75 	beq.w	80053a4 <_dtoa_r+0x47c>
 80054ba:	4b2f      	ldr	r3, [pc, #188]	; (8005578 <_dtoa_r+0x650>)
 80054bc:	ec51 0b18 	vmov	r0, r1, d8
 80054c0:	2200      	movs	r2, #0
 80054c2:	f7fb f8b9 	bl	8000638 <__aeabi_dmul>
 80054c6:	4b2c      	ldr	r3, [pc, #176]	; (8005578 <_dtoa_r+0x650>)
 80054c8:	ec41 0b18 	vmov	d8, r0, r1
 80054cc:	2200      	movs	r2, #0
 80054ce:	4630      	mov	r0, r6
 80054d0:	4639      	mov	r1, r7
 80054d2:	f7fb f8b1 	bl	8000638 <__aeabi_dmul>
 80054d6:	4606      	mov	r6, r0
 80054d8:	460f      	mov	r7, r1
 80054da:	e7c4      	b.n	8005466 <_dtoa_r+0x53e>
 80054dc:	ec51 0b17 	vmov	r0, r1, d7
 80054e0:	f7fb f8aa 	bl	8000638 <__aeabi_dmul>
 80054e4:	9b02      	ldr	r3, [sp, #8]
 80054e6:	9d00      	ldr	r5, [sp, #0]
 80054e8:	930c      	str	r3, [sp, #48]	; 0x30
 80054ea:	ec41 0b18 	vmov	d8, r0, r1
 80054ee:	4639      	mov	r1, r7
 80054f0:	4630      	mov	r0, r6
 80054f2:	f7fb fb51 	bl	8000b98 <__aeabi_d2iz>
 80054f6:	9011      	str	r0, [sp, #68]	; 0x44
 80054f8:	f7fb f834 	bl	8000564 <__aeabi_i2d>
 80054fc:	4602      	mov	r2, r0
 80054fe:	460b      	mov	r3, r1
 8005500:	4630      	mov	r0, r6
 8005502:	4639      	mov	r1, r7
 8005504:	f7fa fee0 	bl	80002c8 <__aeabi_dsub>
 8005508:	9b11      	ldr	r3, [sp, #68]	; 0x44
 800550a:	3330      	adds	r3, #48	; 0x30
 800550c:	f805 3b01 	strb.w	r3, [r5], #1
 8005510:	9b02      	ldr	r3, [sp, #8]
 8005512:	429d      	cmp	r5, r3
 8005514:	4606      	mov	r6, r0
 8005516:	460f      	mov	r7, r1
 8005518:	f04f 0200 	mov.w	r2, #0
 800551c:	d134      	bne.n	8005588 <_dtoa_r+0x660>
 800551e:	4b19      	ldr	r3, [pc, #100]	; (8005584 <_dtoa_r+0x65c>)
 8005520:	ec51 0b18 	vmov	r0, r1, d8
 8005524:	f7fa fed2 	bl	80002cc <__adddf3>
 8005528:	4602      	mov	r2, r0
 800552a:	460b      	mov	r3, r1
 800552c:	4630      	mov	r0, r6
 800552e:	4639      	mov	r1, r7
 8005530:	f7fb fb12 	bl	8000b58 <__aeabi_dcmpgt>
 8005534:	2800      	cmp	r0, #0
 8005536:	d175      	bne.n	8005624 <_dtoa_r+0x6fc>
 8005538:	ec53 2b18 	vmov	r2, r3, d8
 800553c:	4911      	ldr	r1, [pc, #68]	; (8005584 <_dtoa_r+0x65c>)
 800553e:	2000      	movs	r0, #0
 8005540:	f7fa fec2 	bl	80002c8 <__aeabi_dsub>
 8005544:	4602      	mov	r2, r0
 8005546:	460b      	mov	r3, r1
 8005548:	4630      	mov	r0, r6
 800554a:	4639      	mov	r1, r7
 800554c:	f7fb fae6 	bl	8000b1c <__aeabi_dcmplt>
 8005550:	2800      	cmp	r0, #0
 8005552:	f43f af27 	beq.w	80053a4 <_dtoa_r+0x47c>
 8005556:	9d0c      	ldr	r5, [sp, #48]	; 0x30
 8005558:	1e6b      	subs	r3, r5, #1
 800555a:	930c      	str	r3, [sp, #48]	; 0x30
 800555c:	f815 3c01 	ldrb.w	r3, [r5, #-1]
 8005560:	2b30      	cmp	r3, #48	; 0x30
 8005562:	d0f8      	beq.n	8005556 <_dtoa_r+0x62e>
 8005564:	f8dd a01c 	ldr.w	sl, [sp, #28]
 8005568:	e04a      	b.n	8005600 <_dtoa_r+0x6d8>
 800556a:	bf00      	nop
 800556c:	080073b8 	.word	0x080073b8
 8005570:	08007390 	.word	0x08007390
 8005574:	3ff00000 	.word	0x3ff00000
 8005578:	40240000 	.word	0x40240000
 800557c:	401c0000 	.word	0x401c0000
 8005580:	40140000 	.word	0x40140000
 8005584:	3fe00000 	.word	0x3fe00000
 8005588:	4baf      	ldr	r3, [pc, #700]	; (8005848 <_dtoa_r+0x920>)
 800558a:	f7fb f855 	bl	8000638 <__aeabi_dmul>
 800558e:	4606      	mov	r6, r0
 8005590:	460f      	mov	r7, r1
 8005592:	e7ac      	b.n	80054ee <_dtoa_r+0x5c6>
 8005594:	e9dd 6702 	ldrd	r6, r7, [sp, #8]
 8005598:	9d00      	ldr	r5, [sp, #0]
 800559a:	4642      	mov	r2, r8
 800559c:	464b      	mov	r3, r9
 800559e:	4630      	mov	r0, r6
 80055a0:	4639      	mov	r1, r7
 80055a2:	f7fb f973 	bl	800088c <__aeabi_ddiv>
 80055a6:	f7fb faf7 	bl	8000b98 <__aeabi_d2iz>
 80055aa:	9002      	str	r0, [sp, #8]
 80055ac:	f7fa ffda 	bl	8000564 <__aeabi_i2d>
 80055b0:	4642      	mov	r2, r8
 80055b2:	464b      	mov	r3, r9
 80055b4:	f7fb f840 	bl	8000638 <__aeabi_dmul>
 80055b8:	4602      	mov	r2, r0
 80055ba:	460b      	mov	r3, r1
 80055bc:	4630      	mov	r0, r6
 80055be:	4639      	mov	r1, r7
 80055c0:	f7fa fe82 	bl	80002c8 <__aeabi_dsub>
 80055c4:	9e02      	ldr	r6, [sp, #8]
 80055c6:	9f01      	ldr	r7, [sp, #4]
 80055c8:	3630      	adds	r6, #48	; 0x30
 80055ca:	f805 6b01 	strb.w	r6, [r5], #1
 80055ce:	9e00      	ldr	r6, [sp, #0]
 80055d0:	1bae      	subs	r6, r5, r6
 80055d2:	42b7      	cmp	r7, r6
 80055d4:	4602      	mov	r2, r0
 80055d6:	460b      	mov	r3, r1
 80055d8:	d137      	bne.n	800564a <_dtoa_r+0x722>
 80055da:	f7fa fe77 	bl	80002cc <__adddf3>
 80055de:	4642      	mov	r2, r8
 80055e0:	464b      	mov	r3, r9
 80055e2:	4606      	mov	r6, r0
 80055e4:	460f      	mov	r7, r1
 80055e6:	f7fb fab7 	bl	8000b58 <__aeabi_dcmpgt>
 80055ea:	b9c8      	cbnz	r0, 8005620 <_dtoa_r+0x6f8>
 80055ec:	4642      	mov	r2, r8
 80055ee:	464b      	mov	r3, r9
 80055f0:	4630      	mov	r0, r6
 80055f2:	4639      	mov	r1, r7
 80055f4:	f7fb fa88 	bl	8000b08 <__aeabi_dcmpeq>
 80055f8:	b110      	cbz	r0, 8005600 <_dtoa_r+0x6d8>
 80055fa:	9b02      	ldr	r3, [sp, #8]
 80055fc:	07d9      	lsls	r1, r3, #31
 80055fe:	d40f      	bmi.n	8005620 <_dtoa_r+0x6f8>
 8005600:	4620      	mov	r0, r4
 8005602:	4659      	mov	r1, fp
 8005604:	f000 fad6 	bl	8005bb4 <_Bfree>
 8005608:	2300      	movs	r3, #0
 800560a:	702b      	strb	r3, [r5, #0]
 800560c:	9b0f      	ldr	r3, [sp, #60]	; 0x3c
 800560e:	f10a 0001 	add.w	r0, sl, #1
 8005612:	6018      	str	r0, [r3, #0]
 8005614:	9b21      	ldr	r3, [sp, #132]	; 0x84
 8005616:	2b00      	cmp	r3, #0
 8005618:	f43f acd8 	beq.w	8004fcc <_dtoa_r+0xa4>
 800561c:	601d      	str	r5, [r3, #0]
 800561e:	e4d5      	b.n	8004fcc <_dtoa_r+0xa4>
 8005620:	f8cd a01c 	str.w	sl, [sp, #28]
 8005624:	462b      	mov	r3, r5
 8005626:	461d      	mov	r5, r3
 8005628:	f813 2d01 	ldrb.w	r2, [r3, #-1]!
 800562c:	2a39      	cmp	r2, #57	; 0x39
 800562e:	d108      	bne.n	8005642 <_dtoa_r+0x71a>
 8005630:	9a00      	ldr	r2, [sp, #0]
 8005632:	429a      	cmp	r2, r3
 8005634:	d1f7      	bne.n	8005626 <_dtoa_r+0x6fe>
 8005636:	9a07      	ldr	r2, [sp, #28]
 8005638:	9900      	ldr	r1, [sp, #0]
 800563a:	3201      	adds	r2, #1
 800563c:	9207      	str	r2, [sp, #28]
 800563e:	2230      	movs	r2, #48	; 0x30
 8005640:	700a      	strb	r2, [r1, #0]
 8005642:	781a      	ldrb	r2, [r3, #0]
 8005644:	3201      	adds	r2, #1
 8005646:	701a      	strb	r2, [r3, #0]
 8005648:	e78c      	b.n	8005564 <_dtoa_r+0x63c>
 800564a:	4b7f      	ldr	r3, [pc, #508]	; (8005848 <_dtoa_r+0x920>)
 800564c:	2200      	movs	r2, #0
 800564e:	f7fa fff3 	bl	8000638 <__aeabi_dmul>
 8005652:	2200      	movs	r2, #0
 8005654:	2300      	movs	r3, #0
 8005656:	4606      	mov	r6, r0
 8005658:	460f      	mov	r7, r1
 800565a:	f7fb fa55 	bl	8000b08 <__aeabi_dcmpeq>
 800565e:	2800      	cmp	r0, #0
 8005660:	d09b      	beq.n	800559a <_dtoa_r+0x672>
 8005662:	e7cd      	b.n	8005600 <_dtoa_r+0x6d8>
 8005664:	9a08      	ldr	r2, [sp, #32]
 8005666:	2a00      	cmp	r2, #0
 8005668:	f000 80c4 	beq.w	80057f4 <_dtoa_r+0x8cc>
 800566c:	9a05      	ldr	r2, [sp, #20]
 800566e:	2a01      	cmp	r2, #1
 8005670:	f300 80a8 	bgt.w	80057c4 <_dtoa_r+0x89c>
 8005674:	9a10      	ldr	r2, [sp, #64]	; 0x40
 8005676:	2a00      	cmp	r2, #0
 8005678:	f000 80a0 	beq.w	80057bc <_dtoa_r+0x894>
 800567c:	f203 4333 	addw	r3, r3, #1075	; 0x433
 8005680:	9e06      	ldr	r6, [sp, #24]
 8005682:	4645      	mov	r5, r8
 8005684:	9a04      	ldr	r2, [sp, #16]
 8005686:	2101      	movs	r1, #1
 8005688:	441a      	add	r2, r3
 800568a:	4620      	mov	r0, r4
 800568c:	4498      	add	r8, r3
 800568e:	9204      	str	r2, [sp, #16]
 8005690:	f000 fb4c 	bl	8005d2c <__i2b>
 8005694:	4607      	mov	r7, r0
 8005696:	2d00      	cmp	r5, #0
 8005698:	dd0b      	ble.n	80056b2 <_dtoa_r+0x78a>
 800569a:	9b04      	ldr	r3, [sp, #16]
 800569c:	2b00      	cmp	r3, #0
 800569e:	dd08      	ble.n	80056b2 <_dtoa_r+0x78a>
 80056a0:	42ab      	cmp	r3, r5
 80056a2:	9a04      	ldr	r2, [sp, #16]
 80056a4:	bfa8      	it	ge
 80056a6:	462b      	movge	r3, r5
 80056a8:	eba8 0803 	sub.w	r8, r8, r3
 80056ac:	1aed      	subs	r5, r5, r3
 80056ae:	1ad3      	subs	r3, r2, r3
 80056b0:	9304      	str	r3, [sp, #16]
 80056b2:	9b06      	ldr	r3, [sp, #24]
 80056b4:	b1fb      	cbz	r3, 80056f6 <_dtoa_r+0x7ce>
 80056b6:	9b08      	ldr	r3, [sp, #32]
 80056b8:	2b00      	cmp	r3, #0
 80056ba:	f000 809f 	beq.w	80057fc <_dtoa_r+0x8d4>
 80056be:	2e00      	cmp	r6, #0
 80056c0:	dd11      	ble.n	80056e6 <_dtoa_r+0x7be>
 80056c2:	4639      	mov	r1, r7
 80056c4:	4632      	mov	r2, r6
 80056c6:	4620      	mov	r0, r4
 80056c8:	f000 fbec 	bl	8005ea4 <__pow5mult>
 80056cc:	465a      	mov	r2, fp
 80056ce:	4601      	mov	r1, r0
 80056d0:	4607      	mov	r7, r0
 80056d2:	4620      	mov	r0, r4
 80056d4:	f000 fb40 	bl	8005d58 <__multiply>
 80056d8:	4659      	mov	r1, fp
 80056da:	9007      	str	r0, [sp, #28]
 80056dc:	4620      	mov	r0, r4
 80056de:	f000 fa69 	bl	8005bb4 <_Bfree>
 80056e2:	9b07      	ldr	r3, [sp, #28]
 80056e4:	469b      	mov	fp, r3
 80056e6:	9b06      	ldr	r3, [sp, #24]
 80056e8:	1b9a      	subs	r2, r3, r6
 80056ea:	d004      	beq.n	80056f6 <_dtoa_r+0x7ce>
 80056ec:	4659      	mov	r1, fp
 80056ee:	4620      	mov	r0, r4
 80056f0:	f000 fbd8 	bl	8005ea4 <__pow5mult>
 80056f4:	4683      	mov	fp, r0
 80056f6:	2101      	movs	r1, #1
 80056f8:	4620      	mov	r0, r4
 80056fa:	f000 fb17 	bl	8005d2c <__i2b>
 80056fe:	9b0d      	ldr	r3, [sp, #52]	; 0x34
 8005700:	2b00      	cmp	r3, #0
 8005702:	4606      	mov	r6, r0
 8005704:	dd7c      	ble.n	8005800 <_dtoa_r+0x8d8>
 8005706:	461a      	mov	r2, r3
 8005708:	4601      	mov	r1, r0
 800570a:	4620      	mov	r0, r4
 800570c:	f000 fbca 	bl	8005ea4 <__pow5mult>
 8005710:	9b05      	ldr	r3, [sp, #20]
 8005712:	2b01      	cmp	r3, #1
 8005714:	4606      	mov	r6, r0
 8005716:	dd76      	ble.n	8005806 <_dtoa_r+0x8de>
 8005718:	2300      	movs	r3, #0
 800571a:	9306      	str	r3, [sp, #24]
 800571c:	6933      	ldr	r3, [r6, #16]
 800571e:	eb06 0383 	add.w	r3, r6, r3, lsl #2
 8005722:	6918      	ldr	r0, [r3, #16]
 8005724:	f000 fab2 	bl	8005c8c <__hi0bits>
 8005728:	f1c0 0020 	rsb	r0, r0, #32
 800572c:	9b04      	ldr	r3, [sp, #16]
 800572e:	4418      	add	r0, r3
 8005730:	f010 001f 	ands.w	r0, r0, #31
 8005734:	f000 8086 	beq.w	8005844 <_dtoa_r+0x91c>
 8005738:	f1c0 0320 	rsb	r3, r0, #32
 800573c:	2b04      	cmp	r3, #4
 800573e:	dd7f      	ble.n	8005840 <_dtoa_r+0x918>
 8005740:	f1c0 001c 	rsb	r0, r0, #28
 8005744:	9b04      	ldr	r3, [sp, #16]
 8005746:	4403      	add	r3, r0
 8005748:	4480      	add	r8, r0
 800574a:	4405      	add	r5, r0
 800574c:	9304      	str	r3, [sp, #16]
 800574e:	f1b8 0f00 	cmp.w	r8, #0
 8005752:	dd05      	ble.n	8005760 <_dtoa_r+0x838>
 8005754:	4659      	mov	r1, fp
 8005756:	4642      	mov	r2, r8
 8005758:	4620      	mov	r0, r4
 800575a:	f000 fbfd 	bl	8005f58 <__lshift>
 800575e:	4683      	mov	fp, r0
 8005760:	9b04      	ldr	r3, [sp, #16]
 8005762:	2b00      	cmp	r3, #0
 8005764:	dd05      	ble.n	8005772 <_dtoa_r+0x84a>
 8005766:	4631      	mov	r1, r6
 8005768:	461a      	mov	r2, r3
 800576a:	4620      	mov	r0, r4
 800576c:	f000 fbf4 	bl	8005f58 <__lshift>
 8005770:	4606      	mov	r6, r0
 8005772:	9b0e      	ldr	r3, [sp, #56]	; 0x38
 8005774:	2b00      	cmp	r3, #0
 8005776:	d069      	beq.n	800584c <_dtoa_r+0x924>
 8005778:	4631      	mov	r1, r6
 800577a:	4658      	mov	r0, fp
 800577c:	f000 fc58 	bl	8006030 <__mcmp>
 8005780:	2800      	cmp	r0, #0
 8005782:	da63      	bge.n	800584c <_dtoa_r+0x924>
 8005784:	2300      	movs	r3, #0
 8005786:	4659      	mov	r1, fp
 8005788:	220a      	movs	r2, #10
 800578a:	4620      	mov	r0, r4
 800578c:	f000 fa34 	bl	8005bf8 <__multadd>
 8005790:	9b08      	ldr	r3, [sp, #32]
 8005792:	f10a 3aff 	add.w	sl, sl, #4294967295
 8005796:	4683      	mov	fp, r0
 8005798:	2b00      	cmp	r3, #0
 800579a:	f000 818f 	beq.w	8005abc <_dtoa_r+0xb94>
 800579e:	4639      	mov	r1, r7
 80057a0:	2300      	movs	r3, #0
 80057a2:	220a      	movs	r2, #10
 80057a4:	4620      	mov	r0, r4
 80057a6:	f000 fa27 	bl	8005bf8 <__multadd>
 80057aa:	f1b9 0f00 	cmp.w	r9, #0
 80057ae:	4607      	mov	r7, r0
 80057b0:	f300 808e 	bgt.w	80058d0 <_dtoa_r+0x9a8>
 80057b4:	9b05      	ldr	r3, [sp, #20]
 80057b6:	2b02      	cmp	r3, #2
 80057b8:	dc50      	bgt.n	800585c <_dtoa_r+0x934>
 80057ba:	e089      	b.n	80058d0 <_dtoa_r+0x9a8>
 80057bc:	9b12      	ldr	r3, [sp, #72]	; 0x48
 80057be:	f1c3 0336 	rsb	r3, r3, #54	; 0x36
 80057c2:	e75d      	b.n	8005680 <_dtoa_r+0x758>
 80057c4:	9b01      	ldr	r3, [sp, #4]
 80057c6:	1e5e      	subs	r6, r3, #1
 80057c8:	9b06      	ldr	r3, [sp, #24]
 80057ca:	42b3      	cmp	r3, r6
 80057cc:	bfbf      	itttt	lt
 80057ce:	9b06      	ldrlt	r3, [sp, #24]
 80057d0:	9606      	strlt	r6, [sp, #24]
 80057d2:	1af2      	sublt	r2, r6, r3
 80057d4:	9b0d      	ldrlt	r3, [sp, #52]	; 0x34
 80057d6:	bfb6      	itet	lt
 80057d8:	189b      	addlt	r3, r3, r2
 80057da:	1b9e      	subge	r6, r3, r6
 80057dc:	930d      	strlt	r3, [sp, #52]	; 0x34
 80057de:	9b01      	ldr	r3, [sp, #4]
 80057e0:	bfb8      	it	lt
 80057e2:	2600      	movlt	r6, #0
 80057e4:	2b00      	cmp	r3, #0
 80057e6:	bfb5      	itete	lt
 80057e8:	eba8 0503 	sublt.w	r5, r8, r3
 80057ec:	9b01      	ldrge	r3, [sp, #4]
 80057ee:	2300      	movlt	r3, #0
 80057f0:	4645      	movge	r5, r8
 80057f2:	e747      	b.n	8005684 <_dtoa_r+0x75c>
 80057f4:	9e06      	ldr	r6, [sp, #24]
 80057f6:	9f08      	ldr	r7, [sp, #32]
 80057f8:	4645      	mov	r5, r8
 80057fa:	e74c      	b.n	8005696 <_dtoa_r+0x76e>
 80057fc:	9a06      	ldr	r2, [sp, #24]
 80057fe:	e775      	b.n	80056ec <_dtoa_r+0x7c4>
 8005800:	9b05      	ldr	r3, [sp, #20]
 8005802:	2b01      	cmp	r3, #1
 8005804:	dc18      	bgt.n	8005838 <_dtoa_r+0x910>
 8005806:	9b02      	ldr	r3, [sp, #8]
 8005808:	b9b3      	cbnz	r3, 8005838 <_dtoa_r+0x910>
 800580a:	9b03      	ldr	r3, [sp, #12]
 800580c:	f3c3 0313 	ubfx	r3, r3, #0, #20
 8005810:	b9a3      	cbnz	r3, 800583c <_dtoa_r+0x914>
 8005812:	9b03      	ldr	r3, [sp, #12]
 8005814:	f023 4300 	bic.w	r3, r3, #2147483648	; 0x80000000
 8005818:	0d1b      	lsrs	r3, r3, #20
 800581a:	051b      	lsls	r3, r3, #20
 800581c:	b12b      	cbz	r3, 800582a <_dtoa_r+0x902>
 800581e:	9b04      	ldr	r3, [sp, #16]
 8005820:	3301      	adds	r3, #1
 8005822:	9304      	str	r3, [sp, #16]
 8005824:	f108 0801 	add.w	r8, r8, #1
 8005828:	2301      	movs	r3, #1
 800582a:	9306      	str	r3, [sp, #24]
 800582c:	9b0d      	ldr	r3, [sp, #52]	; 0x34
 800582e:	2b00      	cmp	r3, #0
 8005830:	f47f af74 	bne.w	800571c <_dtoa_r+0x7f4>
 8005834:	2001      	movs	r0, #1
 8005836:	e779      	b.n	800572c <_dtoa_r+0x804>
 8005838:	2300      	movs	r3, #0
 800583a:	e7f6      	b.n	800582a <_dtoa_r+0x902>
 800583c:	9b02      	ldr	r3, [sp, #8]
 800583e:	e7f4      	b.n	800582a <_dtoa_r+0x902>
 8005840:	d085      	beq.n	800574e <_dtoa_r+0x826>
 8005842:	4618      	mov	r0, r3
 8005844:	301c      	adds	r0, #28
 8005846:	e77d      	b.n	8005744 <_dtoa_r+0x81c>
 8005848:	40240000 	.word	0x40240000
 800584c:	9b01      	ldr	r3, [sp, #4]
 800584e:	2b00      	cmp	r3, #0
 8005850:	dc38      	bgt.n	80058c4 <_dtoa_r+0x99c>
 8005852:	9b05      	ldr	r3, [sp, #20]
 8005854:	2b02      	cmp	r3, #2
 8005856:	dd35      	ble.n	80058c4 <_dtoa_r+0x99c>
 8005858:	f8dd 9004 	ldr.w	r9, [sp, #4]
 800585c:	f1b9 0f00 	cmp.w	r9, #0
 8005860:	d10d      	bne.n	800587e <_dtoa_r+0x956>
 8005862:	4631      	mov	r1, r6
 8005864:	464b      	mov	r3, r9
 8005866:	2205      	movs	r2, #5
 8005868:	4620      	mov	r0, r4
 800586a:	f000 f9c5 	bl	8005bf8 <__multadd>
 800586e:	4601      	mov	r1, r0
 8005870:	4606      	mov	r6, r0
 8005872:	4658      	mov	r0, fp
 8005874:	f000 fbdc 	bl	8006030 <__mcmp>
 8005878:	2800      	cmp	r0, #0
 800587a:	f73f adbd 	bgt.w	80053f8 <_dtoa_r+0x4d0>
 800587e:	9b09      	ldr	r3, [sp, #36]	; 0x24
 8005880:	9d00      	ldr	r5, [sp, #0]
 8005882:	ea6f 0a03 	mvn.w	sl, r3
 8005886:	f04f 0800 	mov.w	r8, #0
 800588a:	4631      	mov	r1, r6
 800588c:	4620      	mov	r0, r4
 800588e:	f000 f991 	bl	8005bb4 <_Bfree>
 8005892:	2f00      	cmp	r7, #0
 8005894:	f43f aeb4 	beq.w	8005600 <_dtoa_r+0x6d8>
 8005898:	f1b8 0f00 	cmp.w	r8, #0
 800589c:	d005      	beq.n	80058aa <_dtoa_r+0x982>
 800589e:	45b8      	cmp	r8, r7
 80058a0:	d003      	beq.n	80058aa <_dtoa_r+0x982>
 80058a2:	4641      	mov	r1, r8
 80058a4:	4620      	mov	r0, r4
 80058a6:	f000 f985 	bl	8005bb4 <_Bfree>
 80058aa:	4639      	mov	r1, r7
 80058ac:	4620      	mov	r0, r4
 80058ae:	f000 f981 	bl	8005bb4 <_Bfree>
 80058b2:	e6a5      	b.n	8005600 <_dtoa_r+0x6d8>
 80058b4:	2600      	movs	r6, #0
 80058b6:	4637      	mov	r7, r6
 80058b8:	e7e1      	b.n	800587e <_dtoa_r+0x956>
 80058ba:	9e0c      	ldr	r6, [sp, #48]	; 0x30
 80058bc:	f8dd a01c 	ldr.w	sl, [sp, #28]
 80058c0:	4637      	mov	r7, r6
 80058c2:	e599      	b.n	80053f8 <_dtoa_r+0x4d0>
 80058c4:	9b08      	ldr	r3, [sp, #32]
 80058c6:	f8dd 9004 	ldr.w	r9, [sp, #4]
 80058ca:	2b00      	cmp	r3, #0
 80058cc:	f000 80fd 	beq.w	8005aca <_dtoa_r+0xba2>
 80058d0:	2d00      	cmp	r5, #0
 80058d2:	dd05      	ble.n	80058e0 <_dtoa_r+0x9b8>
 80058d4:	4639      	mov	r1, r7
 80058d6:	462a      	mov	r2, r5
 80058d8:	4620      	mov	r0, r4
 80058da:	f000 fb3d 	bl	8005f58 <__lshift>
 80058de:	4607      	mov	r7, r0
 80058e0:	9b06      	ldr	r3, [sp, #24]
 80058e2:	2b00      	cmp	r3, #0
 80058e4:	d05c      	beq.n	80059a0 <_dtoa_r+0xa78>
 80058e6:	6879      	ldr	r1, [r7, #4]
 80058e8:	4620      	mov	r0, r4
 80058ea:	f000 f923 	bl	8005b34 <_Balloc>
 80058ee:	4605      	mov	r5, r0
 80058f0:	b928      	cbnz	r0, 80058fe <_dtoa_r+0x9d6>
 80058f2:	4b80      	ldr	r3, [pc, #512]	; (8005af4 <_dtoa_r+0xbcc>)
 80058f4:	4602      	mov	r2, r0
 80058f6:	f240 21ea 	movw	r1, #746	; 0x2ea
 80058fa:	f7ff bb2e 	b.w	8004f5a <_dtoa_r+0x32>
 80058fe:	693a      	ldr	r2, [r7, #16]
 8005900:	3202      	adds	r2, #2
 8005902:	0092      	lsls	r2, r2, #2
 8005904:	f107 010c 	add.w	r1, r7, #12
 8005908:	300c      	adds	r0, #12
 800590a:	f000 f905 	bl	8005b18 <memcpy>
 800590e:	2201      	movs	r2, #1
 8005910:	4629      	mov	r1, r5
 8005912:	4620      	mov	r0, r4
 8005914:	f000 fb20 	bl	8005f58 <__lshift>
 8005918:	9b00      	ldr	r3, [sp, #0]
 800591a:	3301      	adds	r3, #1
 800591c:	9301      	str	r3, [sp, #4]
 800591e:	9b00      	ldr	r3, [sp, #0]
 8005920:	444b      	add	r3, r9
 8005922:	9307      	str	r3, [sp, #28]
 8005924:	9b02      	ldr	r3, [sp, #8]
 8005926:	f003 0301 	and.w	r3, r3, #1
 800592a:	46b8      	mov	r8, r7
 800592c:	9306      	str	r3, [sp, #24]
 800592e:	4607      	mov	r7, r0
 8005930:	9b01      	ldr	r3, [sp, #4]
 8005932:	4631      	mov	r1, r6
 8005934:	3b01      	subs	r3, #1
 8005936:	4658      	mov	r0, fp
 8005938:	9302      	str	r3, [sp, #8]
 800593a:	f7ff fa69 	bl	8004e10 <quorem>
 800593e:	4603      	mov	r3, r0
 8005940:	3330      	adds	r3, #48	; 0x30
 8005942:	9004      	str	r0, [sp, #16]
 8005944:	4641      	mov	r1, r8
 8005946:	4658      	mov	r0, fp
 8005948:	9308      	str	r3, [sp, #32]
 800594a:	f000 fb71 	bl	8006030 <__mcmp>
 800594e:	463a      	mov	r2, r7
 8005950:	4681      	mov	r9, r0
 8005952:	4631      	mov	r1, r6
 8005954:	4620      	mov	r0, r4
 8005956:	f000 fb87 	bl	8006068 <__mdiff>
 800595a:	68c2      	ldr	r2, [r0, #12]
 800595c:	9b08      	ldr	r3, [sp, #32]
 800595e:	4605      	mov	r5, r0
 8005960:	bb02      	cbnz	r2, 80059a4 <_dtoa_r+0xa7c>
 8005962:	4601      	mov	r1, r0
 8005964:	4658      	mov	r0, fp
 8005966:	f000 fb63 	bl	8006030 <__mcmp>
 800596a:	9b08      	ldr	r3, [sp, #32]
 800596c:	4602      	mov	r2, r0
 800596e:	4629      	mov	r1, r5
 8005970:	4620      	mov	r0, r4
 8005972:	e9cd 3208 	strd	r3, r2, [sp, #32]
 8005976:	f000 f91d 	bl	8005bb4 <_Bfree>
 800597a:	9b05      	ldr	r3, [sp, #20]
 800597c:	9a09      	ldr	r2, [sp, #36]	; 0x24
 800597e:	9d01      	ldr	r5, [sp, #4]
 8005980:	ea43 0102 	orr.w	r1, r3, r2
 8005984:	9b06      	ldr	r3, [sp, #24]
 8005986:	430b      	orrs	r3, r1
 8005988:	9b08      	ldr	r3, [sp, #32]
 800598a:	d10d      	bne.n	80059a8 <_dtoa_r+0xa80>
 800598c:	2b39      	cmp	r3, #57	; 0x39
 800598e:	d029      	beq.n	80059e4 <_dtoa_r+0xabc>
 8005990:	f1b9 0f00 	cmp.w	r9, #0
 8005994:	dd01      	ble.n	800599a <_dtoa_r+0xa72>
 8005996:	9b04      	ldr	r3, [sp, #16]
 8005998:	3331      	adds	r3, #49	; 0x31
 800599a:	9a02      	ldr	r2, [sp, #8]
 800599c:	7013      	strb	r3, [r2, #0]
 800599e:	e774      	b.n	800588a <_dtoa_r+0x962>
 80059a0:	4638      	mov	r0, r7
 80059a2:	e7b9      	b.n	8005918 <_dtoa_r+0x9f0>
 80059a4:	2201      	movs	r2, #1
 80059a6:	e7e2      	b.n	800596e <_dtoa_r+0xa46>
 80059a8:	f1b9 0f00 	cmp.w	r9, #0
 80059ac:	db06      	blt.n	80059bc <_dtoa_r+0xa94>
 80059ae:	9905      	ldr	r1, [sp, #20]
 80059b0:	ea41 0909 	orr.w	r9, r1, r9
 80059b4:	9906      	ldr	r1, [sp, #24]
 80059b6:	ea59 0101 	orrs.w	r1, r9, r1
 80059ba:	d120      	bne.n	80059fe <_dtoa_r+0xad6>
 80059bc:	2a00      	cmp	r2, #0
 80059be:	ddec      	ble.n	800599a <_dtoa_r+0xa72>
 80059c0:	4659      	mov	r1, fp
 80059c2:	2201      	movs	r2, #1
 80059c4:	4620      	mov	r0, r4
 80059c6:	9301      	str	r3, [sp, #4]
 80059c8:	f000 fac6 	bl	8005f58 <__lshift>
 80059cc:	4631      	mov	r1, r6
 80059ce:	4683      	mov	fp, r0
 80059d0:	f000 fb2e 	bl	8006030 <__mcmp>
 80059d4:	2800      	cmp	r0, #0
 80059d6:	9b01      	ldr	r3, [sp, #4]
 80059d8:	dc02      	bgt.n	80059e0 <_dtoa_r+0xab8>
 80059da:	d1de      	bne.n	800599a <_dtoa_r+0xa72>
 80059dc:	07da      	lsls	r2, r3, #31
 80059de:	d5dc      	bpl.n	800599a <_dtoa_r+0xa72>
 80059e0:	2b39      	cmp	r3, #57	; 0x39
 80059e2:	d1d8      	bne.n	8005996 <_dtoa_r+0xa6e>
 80059e4:	9a02      	ldr	r2, [sp, #8]
 80059e6:	2339      	movs	r3, #57	; 0x39
 80059e8:	7013      	strb	r3, [r2, #0]
 80059ea:	462b      	mov	r3, r5
 80059ec:	461d      	mov	r5, r3
 80059ee:	3b01      	subs	r3, #1
 80059f0:	f815 2c01 	ldrb.w	r2, [r5, #-1]
 80059f4:	2a39      	cmp	r2, #57	; 0x39
 80059f6:	d050      	beq.n	8005a9a <_dtoa_r+0xb72>
 80059f8:	3201      	adds	r2, #1
 80059fa:	701a      	strb	r2, [r3, #0]
 80059fc:	e745      	b.n	800588a <_dtoa_r+0x962>
 80059fe:	2a00      	cmp	r2, #0
 8005a00:	dd03      	ble.n	8005a0a <_dtoa_r+0xae2>
 8005a02:	2b39      	cmp	r3, #57	; 0x39
 8005a04:	d0ee      	beq.n	80059e4 <_dtoa_r+0xabc>
 8005a06:	3301      	adds	r3, #1
 8005a08:	e7c7      	b.n	800599a <_dtoa_r+0xa72>
 8005a0a:	9a01      	ldr	r2, [sp, #4]
 8005a0c:	9907      	ldr	r1, [sp, #28]
 8005a0e:	f802 3c01 	strb.w	r3, [r2, #-1]
 8005a12:	428a      	cmp	r2, r1
 8005a14:	d02a      	beq.n	8005a6c <_dtoa_r+0xb44>
 8005a16:	4659      	mov	r1, fp
 8005a18:	2300      	movs	r3, #0
 8005a1a:	220a      	movs	r2, #10
 8005a1c:	4620      	mov	r0, r4
 8005a1e:	f000 f8eb 	bl	8005bf8 <__multadd>
 8005a22:	45b8      	cmp	r8, r7
 8005a24:	4683      	mov	fp, r0
 8005a26:	f04f 0300 	mov.w	r3, #0
 8005a2a:	f04f 020a 	mov.w	r2, #10
 8005a2e:	4641      	mov	r1, r8
 8005a30:	4620      	mov	r0, r4
 8005a32:	d107      	bne.n	8005a44 <_dtoa_r+0xb1c>
 8005a34:	f000 f8e0 	bl	8005bf8 <__multadd>
 8005a38:	4680      	mov	r8, r0
 8005a3a:	4607      	mov	r7, r0
 8005a3c:	9b01      	ldr	r3, [sp, #4]
 8005a3e:	3301      	adds	r3, #1
 8005a40:	9301      	str	r3, [sp, #4]
 8005a42:	e775      	b.n	8005930 <_dtoa_r+0xa08>
 8005a44:	f000 f8d8 	bl	8005bf8 <__multadd>
 8005a48:	4639      	mov	r1, r7
 8005a4a:	4680      	mov	r8, r0
 8005a4c:	2300      	movs	r3, #0
 8005a4e:	220a      	movs	r2, #10
 8005a50:	4620      	mov	r0, r4
 8005a52:	f000 f8d1 	bl	8005bf8 <__multadd>
 8005a56:	4607      	mov	r7, r0
 8005a58:	e7f0      	b.n	8005a3c <_dtoa_r+0xb14>
 8005a5a:	f1b9 0f00 	cmp.w	r9, #0
 8005a5e:	9a00      	ldr	r2, [sp, #0]
 8005a60:	bfcc      	ite	gt
 8005a62:	464d      	movgt	r5, r9
 8005a64:	2501      	movle	r5, #1
 8005a66:	4415      	add	r5, r2
 8005a68:	f04f 0800 	mov.w	r8, #0
 8005a6c:	4659      	mov	r1, fp
 8005a6e:	2201      	movs	r2, #1
 8005a70:	4620      	mov	r0, r4
 8005a72:	9301      	str	r3, [sp, #4]
 8005a74:	f000 fa70 	bl	8005f58 <__lshift>
 8005a78:	4631      	mov	r1, r6
 8005a7a:	4683      	mov	fp, r0
 8005a7c:	f000 fad8 	bl	8006030 <__mcmp>
 8005a80:	2800      	cmp	r0, #0
 8005a82:	dcb2      	bgt.n	80059ea <_dtoa_r+0xac2>
 8005a84:	d102      	bne.n	8005a8c <_dtoa_r+0xb64>
 8005a86:	9b01      	ldr	r3, [sp, #4]
 8005a88:	07db      	lsls	r3, r3, #31
 8005a8a:	d4ae      	bmi.n	80059ea <_dtoa_r+0xac2>
 8005a8c:	462b      	mov	r3, r5
 8005a8e:	461d      	mov	r5, r3
 8005a90:	f813 2d01 	ldrb.w	r2, [r3, #-1]!
 8005a94:	2a30      	cmp	r2, #48	; 0x30
 8005a96:	d0fa      	beq.n	8005a8e <_dtoa_r+0xb66>
 8005a98:	e6f7      	b.n	800588a <_dtoa_r+0x962>
 8005a9a:	9a00      	ldr	r2, [sp, #0]
 8005a9c:	429a      	cmp	r2, r3
 8005a9e:	d1a5      	bne.n	80059ec <_dtoa_r+0xac4>
 8005aa0:	f10a 0a01 	add.w	sl, sl, #1
 8005aa4:	2331      	movs	r3, #49	; 0x31
 8005aa6:	e779      	b.n	800599c <_dtoa_r+0xa74>
 8005aa8:	4b13      	ldr	r3, [pc, #76]	; (8005af8 <_dtoa_r+0xbd0>)
 8005aaa:	f7ff baaf 	b.w	800500c <_dtoa_r+0xe4>
 8005aae:	9b21      	ldr	r3, [sp, #132]	; 0x84
 8005ab0:	2b00      	cmp	r3, #0
 8005ab2:	f47f aa86 	bne.w	8004fc2 <_dtoa_r+0x9a>
 8005ab6:	4b11      	ldr	r3, [pc, #68]	; (8005afc <_dtoa_r+0xbd4>)
 8005ab8:	f7ff baa8 	b.w	800500c <_dtoa_r+0xe4>
 8005abc:	f1b9 0f00 	cmp.w	r9, #0
 8005ac0:	dc03      	bgt.n	8005aca <_dtoa_r+0xba2>
 8005ac2:	9b05      	ldr	r3, [sp, #20]
 8005ac4:	2b02      	cmp	r3, #2
 8005ac6:	f73f aec9 	bgt.w	800585c <_dtoa_r+0x934>
 8005aca:	9d00      	ldr	r5, [sp, #0]
 8005acc:	4631      	mov	r1, r6
 8005ace:	4658      	mov	r0, fp
 8005ad0:	f7ff f99e 	bl	8004e10 <quorem>
 8005ad4:	f100 0330 	add.w	r3, r0, #48	; 0x30
 8005ad8:	f805 3b01 	strb.w	r3, [r5], #1
 8005adc:	9a00      	ldr	r2, [sp, #0]
 8005ade:	1aaa      	subs	r2, r5, r2
 8005ae0:	4591      	cmp	r9, r2
 8005ae2:	ddba      	ble.n	8005a5a <_dtoa_r+0xb32>
 8005ae4:	4659      	mov	r1, fp
 8005ae6:	2300      	movs	r3, #0
 8005ae8:	220a      	movs	r2, #10
 8005aea:	4620      	mov	r0, r4
 8005aec:	f000 f884 	bl	8005bf8 <__multadd>
 8005af0:	4683      	mov	fp, r0
 8005af2:	e7eb      	b.n	8005acc <_dtoa_r+0xba4>
 8005af4:	0800731f 	.word	0x0800731f
 8005af8:	08007278 	.word	0x08007278
 8005afc:	0800729c 	.word	0x0800729c

08005b00 <_localeconv_r>:
 8005b00:	4800      	ldr	r0, [pc, #0]	; (8005b04 <_localeconv_r+0x4>)
 8005b02:	4770      	bx	lr
 8005b04:	20000160 	.word	0x20000160

08005b08 <malloc>:
 8005b08:	4b02      	ldr	r3, [pc, #8]	; (8005b14 <malloc+0xc>)
 8005b0a:	4601      	mov	r1, r0
 8005b0c:	6818      	ldr	r0, [r3, #0]
 8005b0e:	f000 bbef 	b.w	80062f0 <_malloc_r>
 8005b12:	bf00      	nop
 8005b14:	2000000c 	.word	0x2000000c

08005b18 <memcpy>:
 8005b18:	440a      	add	r2, r1
 8005b1a:	4291      	cmp	r1, r2
 8005b1c:	f100 33ff 	add.w	r3, r0, #4294967295
 8005b20:	d100      	bne.n	8005b24 <memcpy+0xc>
 8005b22:	4770      	bx	lr
 8005b24:	b510      	push	{r4, lr}
 8005b26:	f811 4b01 	ldrb.w	r4, [r1], #1
 8005b2a:	f803 4f01 	strb.w	r4, [r3, #1]!
 8005b2e:	4291      	cmp	r1, r2
 8005b30:	d1f9      	bne.n	8005b26 <memcpy+0xe>
 8005b32:	bd10      	pop	{r4, pc}

08005b34 <_Balloc>:
 8005b34:	b570      	push	{r4, r5, r6, lr}
 8005b36:	6a46      	ldr	r6, [r0, #36]	; 0x24
 8005b38:	4604      	mov	r4, r0
 8005b3a:	460d      	mov	r5, r1
 8005b3c:	b976      	cbnz	r6, 8005b5c <_Balloc+0x28>
 8005b3e:	2010      	movs	r0, #16
 8005b40:	f7ff ffe2 	bl	8005b08 <malloc>
 8005b44:	4602      	mov	r2, r0
 8005b46:	6260      	str	r0, [r4, #36]	; 0x24
 8005b48:	b920      	cbnz	r0, 8005b54 <_Balloc+0x20>
 8005b4a:	4b18      	ldr	r3, [pc, #96]	; (8005bac <_Balloc+0x78>)
 8005b4c:	4818      	ldr	r0, [pc, #96]	; (8005bb0 <_Balloc+0x7c>)
 8005b4e:	2166      	movs	r1, #102	; 0x66
 8005b50:	f000 fd94 	bl	800667c <__assert_func>
 8005b54:	e9c0 6601 	strd	r6, r6, [r0, #4]
 8005b58:	6006      	str	r6, [r0, #0]
 8005b5a:	60c6      	str	r6, [r0, #12]
 8005b5c:	6a66      	ldr	r6, [r4, #36]	; 0x24
 8005b5e:	68f3      	ldr	r3, [r6, #12]
 8005b60:	b183      	cbz	r3, 8005b84 <_Balloc+0x50>
 8005b62:	6a63      	ldr	r3, [r4, #36]	; 0x24
 8005b64:	68db      	ldr	r3, [r3, #12]
 8005b66:	f853 0025 	ldr.w	r0, [r3, r5, lsl #2]
 8005b6a:	b9b8      	cbnz	r0, 8005b9c <_Balloc+0x68>
 8005b6c:	2101      	movs	r1, #1
 8005b6e:	fa01 f605 	lsl.w	r6, r1, r5
 8005b72:	1d72      	adds	r2, r6, #5
 8005b74:	0092      	lsls	r2, r2, #2
 8005b76:	4620      	mov	r0, r4
 8005b78:	f000 fb5a 	bl	8006230 <_calloc_r>
 8005b7c:	b160      	cbz	r0, 8005b98 <_Balloc+0x64>
 8005b7e:	e9c0 5601 	strd	r5, r6, [r0, #4]
 8005b82:	e00e      	b.n	8005ba2 <_Balloc+0x6e>
 8005b84:	2221      	movs	r2, #33	; 0x21
 8005b86:	2104      	movs	r1, #4
 8005b88:	4620      	mov	r0, r4
 8005b8a:	f000 fb51 	bl	8006230 <_calloc_r>
 8005b8e:	6a63      	ldr	r3, [r4, #36]	; 0x24
 8005b90:	60f0      	str	r0, [r6, #12]
 8005b92:	68db      	ldr	r3, [r3, #12]
 8005b94:	2b00      	cmp	r3, #0
 8005b96:	d1e4      	bne.n	8005b62 <_Balloc+0x2e>
 8005b98:	2000      	movs	r0, #0
 8005b9a:	bd70      	pop	{r4, r5, r6, pc}
 8005b9c:	6802      	ldr	r2, [r0, #0]
 8005b9e:	f843 2025 	str.w	r2, [r3, r5, lsl #2]
 8005ba2:	2300      	movs	r3, #0
 8005ba4:	e9c0 3303 	strd	r3, r3, [r0, #12]
 8005ba8:	e7f7      	b.n	8005b9a <_Balloc+0x66>
 8005baa:	bf00      	nop
 8005bac:	080072a9 	.word	0x080072a9
 8005bb0:	08007330 	.word	0x08007330

08005bb4 <_Bfree>:
 8005bb4:	b570      	push	{r4, r5, r6, lr}
 8005bb6:	6a46      	ldr	r6, [r0, #36]	; 0x24
 8005bb8:	4605      	mov	r5, r0
 8005bba:	460c      	mov	r4, r1
 8005bbc:	b976      	cbnz	r6, 8005bdc <_Bfree+0x28>
 8005bbe:	2010      	movs	r0, #16
 8005bc0:	f7ff ffa2 	bl	8005b08 <malloc>
 8005bc4:	4602      	mov	r2, r0
 8005bc6:	6268      	str	r0, [r5, #36]	; 0x24
 8005bc8:	b920      	cbnz	r0, 8005bd4 <_Bfree+0x20>
 8005bca:	4b09      	ldr	r3, [pc, #36]	; (8005bf0 <_Bfree+0x3c>)
 8005bcc:	4809      	ldr	r0, [pc, #36]	; (8005bf4 <_Bfree+0x40>)
 8005bce:	218a      	movs	r1, #138	; 0x8a
 8005bd0:	f000 fd54 	bl	800667c <__assert_func>
 8005bd4:	e9c0 6601 	strd	r6, r6, [r0, #4]
 8005bd8:	6006      	str	r6, [r0, #0]
 8005bda:	60c6      	str	r6, [r0, #12]
 8005bdc:	b13c      	cbz	r4, 8005bee <_Bfree+0x3a>
 8005bde:	6a6b      	ldr	r3, [r5, #36]	; 0x24
 8005be0:	6862      	ldr	r2, [r4, #4]
 8005be2:	68db      	ldr	r3, [r3, #12]
 8005be4:	f853 1022 	ldr.w	r1, [r3, r2, lsl #2]
 8005be8:	6021      	str	r1, [r4, #0]
 8005bea:	f843 4022 	str.w	r4, [r3, r2, lsl #2]
 8005bee:	bd70      	pop	{r4, r5, r6, pc}
 8005bf0:	080072a9 	.word	0x080072a9
 8005bf4:	08007330 	.word	0x08007330

08005bf8 <__multadd>:
 8005bf8:	e92d 41f0 	stmdb	sp!, {r4, r5, r6, r7, r8, lr}
 8005bfc:	690e      	ldr	r6, [r1, #16]
 8005bfe:	4607      	mov	r7, r0
 8005c00:	4698      	mov	r8, r3
 8005c02:	460c      	mov	r4, r1
 8005c04:	f101 0014 	add.w	r0, r1, #20
 8005c08:	2300      	movs	r3, #0
 8005c0a:	6805      	ldr	r5, [r0, #0]
 8005c0c:	b2a9      	uxth	r1, r5
 8005c0e:	fb02 8101 	mla	r1, r2, r1, r8
 8005c12:	ea4f 4c11 	mov.w	ip, r1, lsr #16
 8005c16:	0c2d      	lsrs	r5, r5, #16
 8005c18:	fb02 c505 	mla	r5, r2, r5, ip
 8005c1c:	b289      	uxth	r1, r1
 8005c1e:	3301      	adds	r3, #1
 8005c20:	eb01 4105 	add.w	r1, r1, r5, lsl #16
 8005c24:	429e      	cmp	r6, r3
 8005c26:	f840 1b04 	str.w	r1, [r0], #4
 8005c2a:	ea4f 4815 	mov.w	r8, r5, lsr #16
 8005c2e:	dcec      	bgt.n	8005c0a <__multadd+0x12>
 8005c30:	f1b8 0f00 	cmp.w	r8, #0
 8005c34:	d022      	beq.n	8005c7c <__multadd+0x84>
 8005c36:	68a3      	ldr	r3, [r4, #8]
 8005c38:	42b3      	cmp	r3, r6
 8005c3a:	dc19      	bgt.n	8005c70 <__multadd+0x78>
 8005c3c:	6861      	ldr	r1, [r4, #4]
 8005c3e:	4638      	mov	r0, r7
 8005c40:	3101      	adds	r1, #1
 8005c42:	f7ff ff77 	bl	8005b34 <_Balloc>
 8005c46:	4605      	mov	r5, r0
 8005c48:	b928      	cbnz	r0, 8005c56 <__multadd+0x5e>
 8005c4a:	4602      	mov	r2, r0
 8005c4c:	4b0d      	ldr	r3, [pc, #52]	; (8005c84 <__multadd+0x8c>)
 8005c4e:	480e      	ldr	r0, [pc, #56]	; (8005c88 <__multadd+0x90>)
 8005c50:	21b5      	movs	r1, #181	; 0xb5
 8005c52:	f000 fd13 	bl	800667c <__assert_func>
 8005c56:	6922      	ldr	r2, [r4, #16]
 8005c58:	3202      	adds	r2, #2
 8005c5a:	f104 010c 	add.w	r1, r4, #12
 8005c5e:	0092      	lsls	r2, r2, #2
 8005c60:	300c      	adds	r0, #12
 8005c62:	f7ff ff59 	bl	8005b18 <memcpy>
 8005c66:	4621      	mov	r1, r4
 8005c68:	4638      	mov	r0, r7
 8005c6a:	f7ff ffa3 	bl	8005bb4 <_Bfree>
 8005c6e:	462c      	mov	r4, r5
 8005c70:	eb04 0386 	add.w	r3, r4, r6, lsl #2
 8005c74:	3601      	adds	r6, #1
 8005c76:	f8c3 8014 	str.w	r8, [r3, #20]
 8005c7a:	6126      	str	r6, [r4, #16]
 8005c7c:	4620      	mov	r0, r4
 8005c7e:	e8bd 81f0 	ldmia.w	sp!, {r4, r5, r6, r7, r8, pc}
 8005c82:	bf00      	nop
 8005c84:	0800731f 	.word	0x0800731f
 8005c88:	08007330 	.word	0x08007330

08005c8c <__hi0bits>:
 8005c8c:	0c03      	lsrs	r3, r0, #16
 8005c8e:	041b      	lsls	r3, r3, #16
 8005c90:	b9d3      	cbnz	r3, 8005cc8 <__hi0bits+0x3c>
 8005c92:	0400      	lsls	r0, r0, #16
 8005c94:	2310      	movs	r3, #16
 8005c96:	f010 4f7f 	tst.w	r0, #4278190080	; 0xff000000
 8005c9a:	bf04      	itt	eq
 8005c9c:	0200      	lsleq	r0, r0, #8
 8005c9e:	3308      	addeq	r3, #8
 8005ca0:	f010 4f70 	tst.w	r0, #4026531840	; 0xf0000000
 8005ca4:	bf04      	itt	eq
 8005ca6:	0100      	lsleq	r0, r0, #4
 8005ca8:	3304      	addeq	r3, #4
 8005caa:	f010 4f40 	tst.w	r0, #3221225472	; 0xc0000000
 8005cae:	bf04      	itt	eq
 8005cb0:	0080      	lsleq	r0, r0, #2
 8005cb2:	3302      	addeq	r3, #2
 8005cb4:	2800      	cmp	r0, #0
 8005cb6:	db05      	blt.n	8005cc4 <__hi0bits+0x38>
 8005cb8:	f010 4f80 	tst.w	r0, #1073741824	; 0x40000000
 8005cbc:	f103 0301 	add.w	r3, r3, #1
 8005cc0:	bf08      	it	eq
 8005cc2:	2320      	moveq	r3, #32
 8005cc4:	4618      	mov	r0, r3
 8005cc6:	4770      	bx	lr
 8005cc8:	2300      	movs	r3, #0
 8005cca:	e7e4      	b.n	8005c96 <__hi0bits+0xa>

08005ccc <__lo0bits>:
 8005ccc:	6803      	ldr	r3, [r0, #0]
 8005cce:	f013 0207 	ands.w	r2, r3, #7
 8005cd2:	4601      	mov	r1, r0
 8005cd4:	d00b      	beq.n	8005cee <__lo0bits+0x22>
 8005cd6:	07da      	lsls	r2, r3, #31
 8005cd8:	d424      	bmi.n	8005d24 <__lo0bits+0x58>
 8005cda:	0798      	lsls	r0, r3, #30
 8005cdc:	bf49      	itett	mi
 8005cde:	085b      	lsrmi	r3, r3, #1
 8005ce0:	089b      	lsrpl	r3, r3, #2
 8005ce2:	2001      	movmi	r0, #1
 8005ce4:	600b      	strmi	r3, [r1, #0]
 8005ce6:	bf5c      	itt	pl
 8005ce8:	600b      	strpl	r3, [r1, #0]
 8005cea:	2002      	movpl	r0, #2
 8005cec:	4770      	bx	lr
 8005cee:	b298      	uxth	r0, r3
 8005cf0:	b9b0      	cbnz	r0, 8005d20 <__lo0bits+0x54>
 8005cf2:	0c1b      	lsrs	r3, r3, #16
 8005cf4:	2010      	movs	r0, #16
 8005cf6:	f013 0fff 	tst.w	r3, #255	; 0xff
 8005cfa:	bf04      	itt	eq
 8005cfc:	0a1b      	lsreq	r3, r3, #8
 8005cfe:	3008      	addeq	r0, #8
 8005d00:	071a      	lsls	r2, r3, #28
 8005d02:	bf04      	itt	eq
 8005d04:	091b      	lsreq	r3, r3, #4
 8005d06:	3004      	addeq	r0, #4
 8005d08:	079a      	lsls	r2, r3, #30
 8005d0a:	bf04      	itt	eq
 8005d0c:	089b      	lsreq	r3, r3, #2
 8005d0e:	3002      	addeq	r0, #2
 8005d10:	07da      	lsls	r2, r3, #31
 8005d12:	d403      	bmi.n	8005d1c <__lo0bits+0x50>
 8005d14:	085b      	lsrs	r3, r3, #1
 8005d16:	f100 0001 	add.w	r0, r0, #1
 8005d1a:	d005      	beq.n	8005d28 <__lo0bits+0x5c>
 8005d1c:	600b      	str	r3, [r1, #0]
 8005d1e:	4770      	bx	lr
 8005d20:	4610      	mov	r0, r2
 8005d22:	e7e8      	b.n	8005cf6 <__lo0bits+0x2a>
 8005d24:	2000      	movs	r0, #0
 8005d26:	4770      	bx	lr
 8005d28:	2020      	movs	r0, #32
 8005d2a:	4770      	bx	lr

08005d2c <__i2b>:
 8005d2c:	b510      	push	{r4, lr}
 8005d2e:	460c      	mov	r4, r1
 8005d30:	2101      	movs	r1, #1
 8005d32:	f7ff feff 	bl	8005b34 <_Balloc>
 8005d36:	4602      	mov	r2, r0
 8005d38:	b928      	cbnz	r0, 8005d46 <__i2b+0x1a>
 8005d3a:	4b05      	ldr	r3, [pc, #20]	; (8005d50 <__i2b+0x24>)
 8005d3c:	4805      	ldr	r0, [pc, #20]	; (8005d54 <__i2b+0x28>)
 8005d3e:	f44f 71a0 	mov.w	r1, #320	; 0x140
 8005d42:	f000 fc9b 	bl	800667c <__assert_func>
 8005d46:	2301      	movs	r3, #1
 8005d48:	6144      	str	r4, [r0, #20]
 8005d4a:	6103      	str	r3, [r0, #16]
 8005d4c:	bd10      	pop	{r4, pc}
 8005d4e:	bf00      	nop
 8005d50:	0800731f 	.word	0x0800731f
 8005d54:	08007330 	.word	0x08007330

08005d58 <__multiply>:
 8005d58:	e92d 4ff0 	stmdb	sp!, {r4, r5, r6, r7, r8, r9, sl, fp, lr}
 8005d5c:	4614      	mov	r4, r2
 8005d5e:	690a      	ldr	r2, [r1, #16]
 8005d60:	6923      	ldr	r3, [r4, #16]
 8005d62:	429a      	cmp	r2, r3
 8005d64:	bfb8      	it	lt
 8005d66:	460b      	movlt	r3, r1
 8005d68:	460d      	mov	r5, r1
 8005d6a:	bfbc      	itt	lt
 8005d6c:	4625      	movlt	r5, r4
 8005d6e:	461c      	movlt	r4, r3
 8005d70:	f8d5 a010 	ldr.w	sl, [r5, #16]
 8005d74:	f8d4 9010 	ldr.w	r9, [r4, #16]
 8005d78:	68ab      	ldr	r3, [r5, #8]
 8005d7a:	6869      	ldr	r1, [r5, #4]
 8005d7c:	eb0a 0709 	add.w	r7, sl, r9
 8005d80:	42bb      	cmp	r3, r7
 8005d82:	b085      	sub	sp, #20
 8005d84:	bfb8      	it	lt
 8005d86:	3101      	addlt	r1, #1
 8005d88:	f7ff fed4 	bl	8005b34 <_Balloc>
 8005d8c:	b930      	cbnz	r0, 8005d9c <__multiply+0x44>
 8005d8e:	4602      	mov	r2, r0
 8005d90:	4b42      	ldr	r3, [pc, #264]	; (8005e9c <__multiply+0x144>)
 8005d92:	4843      	ldr	r0, [pc, #268]	; (8005ea0 <__multiply+0x148>)
 8005d94:	f240 115d 	movw	r1, #349	; 0x15d
 8005d98:	f000 fc70 	bl	800667c <__assert_func>
 8005d9c:	f100 0614 	add.w	r6, r0, #20
 8005da0:	eb06 0887 	add.w	r8, r6, r7, lsl #2
 8005da4:	4633      	mov	r3, r6
 8005da6:	2200      	movs	r2, #0
 8005da8:	4543      	cmp	r3, r8
 8005daa:	d31e      	bcc.n	8005dea <__multiply+0x92>
 8005dac:	f105 0c14 	add.w	ip, r5, #20
 8005db0:	f104 0314 	add.w	r3, r4, #20
 8005db4:	eb0c 0c8a 	add.w	ip, ip, sl, lsl #2
 8005db8:	eb03 0289 	add.w	r2, r3, r9, lsl #2
 8005dbc:	9202      	str	r2, [sp, #8]
 8005dbe:	ebac 0205 	sub.w	r2, ip, r5
 8005dc2:	3a15      	subs	r2, #21
 8005dc4:	f022 0203 	bic.w	r2, r2, #3
 8005dc8:	3204      	adds	r2, #4
 8005dca:	f105 0115 	add.w	r1, r5, #21
 8005dce:	458c      	cmp	ip, r1
 8005dd0:	bf38      	it	cc
 8005dd2:	2204      	movcc	r2, #4
 8005dd4:	9201      	str	r2, [sp, #4]
 8005dd6:	9a02      	ldr	r2, [sp, #8]
 8005dd8:	9303      	str	r3, [sp, #12]
 8005dda:	429a      	cmp	r2, r3
 8005ddc:	d808      	bhi.n	8005df0 <__multiply+0x98>
 8005dde:	2f00      	cmp	r7, #0
 8005de0:	dc55      	bgt.n	8005e8e <__multiply+0x136>
 8005de2:	6107      	str	r7, [r0, #16]
 8005de4:	b005      	add	sp, #20
 8005de6:	e8bd 8ff0 	ldmia.w	sp!, {r4, r5, r6, r7, r8, r9, sl, fp, pc}
 8005dea:	f843 2b04 	str.w	r2, [r3], #4
 8005dee:	e7db      	b.n	8005da8 <__multiply+0x50>
 8005df0:	f8b3 a000 	ldrh.w	sl, [r3]
 8005df4:	f1ba 0f00 	cmp.w	sl, #0
 8005df8:	d020      	beq.n	8005e3c <__multiply+0xe4>
 8005dfa:	f105 0e14 	add.w	lr, r5, #20
 8005dfe:	46b1      	mov	r9, r6
 8005e00:	2200      	movs	r2, #0
 8005e02:	f85e 4b04 	ldr.w	r4, [lr], #4
 8005e06:	f8d9 b000 	ldr.w	fp, [r9]
 8005e0a:	b2a1      	uxth	r1, r4
 8005e0c:	fa1f fb8b 	uxth.w	fp, fp
 8005e10:	fb0a b101 	mla	r1, sl, r1, fp
 8005e14:	4411      	add	r1, r2
 8005e16:	f8d9 2000 	ldr.w	r2, [r9]
 8005e1a:	0c24      	lsrs	r4, r4, #16
 8005e1c:	0c12      	lsrs	r2, r2, #16
 8005e1e:	fb0a 2404 	mla	r4, sl, r4, r2
 8005e22:	eb04 4411 	add.w	r4, r4, r1, lsr #16
 8005e26:	b289      	uxth	r1, r1
 8005e28:	ea41 4104 	orr.w	r1, r1, r4, lsl #16
 8005e2c:	45f4      	cmp	ip, lr
 8005e2e:	f849 1b04 	str.w	r1, [r9], #4
 8005e32:	ea4f 4214 	mov.w	r2, r4, lsr #16
 8005e36:	d8e4      	bhi.n	8005e02 <__multiply+0xaa>
 8005e38:	9901      	ldr	r1, [sp, #4]
 8005e3a:	5072      	str	r2, [r6, r1]
 8005e3c:	9a03      	ldr	r2, [sp, #12]
 8005e3e:	f8b2 9002 	ldrh.w	r9, [r2, #2]
 8005e42:	3304      	adds	r3, #4
 8005e44:	f1b9 0f00 	cmp.w	r9, #0
 8005e48:	d01f      	beq.n	8005e8a <__multiply+0x132>
 8005e4a:	6834      	ldr	r4, [r6, #0]
 8005e4c:	f105 0114 	add.w	r1, r5, #20
 8005e50:	46b6      	mov	lr, r6
 8005e52:	f04f 0a00 	mov.w	sl, #0
 8005e56:	880a      	ldrh	r2, [r1, #0]
 8005e58:	f8be b002 	ldrh.w	fp, [lr, #2]
 8005e5c:	fb09 b202 	mla	r2, r9, r2, fp
 8005e60:	4492      	add	sl, r2
 8005e62:	b2a4      	uxth	r4, r4
 8005e64:	ea44 440a 	orr.w	r4, r4, sl, lsl #16
 8005e68:	f84e 4b04 	str.w	r4, [lr], #4
 8005e6c:	f851 4b04 	ldr.w	r4, [r1], #4
 8005e70:	f8be 2000 	ldrh.w	r2, [lr]
 8005e74:	0c24      	lsrs	r4, r4, #16
 8005e76:	fb09 2404 	mla	r4, r9, r4, r2
 8005e7a:	eb04 441a 	add.w	r4, r4, sl, lsr #16
 8005e7e:	458c      	cmp	ip, r1
 8005e80:	ea4f 4a14 	mov.w	sl, r4, lsr #16
 8005e84:	d8e7      	bhi.n	8005e56 <__multiply+0xfe>
 8005e86:	9a01      	ldr	r2, [sp, #4]
 8005e88:	50b4      	str	r4, [r6, r2]
 8005e8a:	3604      	adds	r6, #4
 8005e8c:	e7a3      	b.n	8005dd6 <__multiply+0x7e>
 8005e8e:	f858 3d04 	ldr.w	r3, [r8, #-4]!
 8005e92:	2b00      	cmp	r3, #0
 8005e94:	d1a5      	bne.n	8005de2 <__multiply+0x8a>
 8005e96:	3f01      	subs	r7, #1
 8005e98:	e7a1      	b.n	8005dde <__multiply+0x86>
 8005e9a:	bf00      	nop
 8005e9c:	0800731f 	.word	0x0800731f
 8005ea0:	08007330 	.word	0x08007330

08005ea4 <__pow5mult>:
 8005ea4:	e92d 43f8 	stmdb	sp!, {r3, r4, r5, r6, r7, r8, r9, lr}
 8005ea8:	4615      	mov	r5, r2
 8005eaa:	f012 0203 	ands.w	r2, r2, #3
 8005eae:	4606      	mov	r6, r0
 8005eb0:	460f      	mov	r7, r1
 8005eb2:	d007      	beq.n	8005ec4 <__pow5mult+0x20>
 8005eb4:	4c25      	ldr	r4, [pc, #148]	; (8005f4c <__pow5mult+0xa8>)
 8005eb6:	3a01      	subs	r2, #1
 8005eb8:	2300      	movs	r3, #0
 8005eba:	f854 2022 	ldr.w	r2, [r4, r2, lsl #2]
 8005ebe:	f7ff fe9b 	bl	8005bf8 <__multadd>
 8005ec2:	4607      	mov	r7, r0
 8005ec4:	10ad      	asrs	r5, r5, #2
 8005ec6:	d03d      	beq.n	8005f44 <__pow5mult+0xa0>
 8005ec8:	6a74      	ldr	r4, [r6, #36]	; 0x24
 8005eca:	b97c      	cbnz	r4, 8005eec <__pow5mult+0x48>
 8005ecc:	2010      	movs	r0, #16
 8005ece:	f7ff fe1b 	bl	8005b08 <malloc>
 8005ed2:	4602      	mov	r2, r0
 8005ed4:	6270      	str	r0, [r6, #36]	; 0x24
 8005ed6:	b928      	cbnz	r0, 8005ee4 <__pow5mult+0x40>
 8005ed8:	4b1d      	ldr	r3, [pc, #116]	; (8005f50 <__pow5mult+0xac>)
 8005eda:	481e      	ldr	r0, [pc, #120]	; (8005f54 <__pow5mult+0xb0>)
 8005edc:	f44f 71d7 	mov.w	r1, #430	; 0x1ae
 8005ee0:	f000 fbcc 	bl	800667c <__assert_func>
 8005ee4:	e9c0 4401 	strd	r4, r4, [r0, #4]
 8005ee8:	6004      	str	r4, [r0, #0]
 8005eea:	60c4      	str	r4, [r0, #12]
 8005eec:	f8d6 8024 	ldr.w	r8, [r6, #36]	; 0x24
 8005ef0:	f8d8 4008 	ldr.w	r4, [r8, #8]
 8005ef4:	b94c      	cbnz	r4, 8005f0a <__pow5mult+0x66>
 8005ef6:	f240 2171 	movw	r1, #625	; 0x271
 8005efa:	4630      	mov	r0, r6
 8005efc:	f7ff ff16 	bl	8005d2c <__i2b>
 8005f00:	2300      	movs	r3, #0
 8005f02:	f8c8 0008 	str.w	r0, [r8, #8]
 8005f06:	4604      	mov	r4, r0
 8005f08:	6003      	str	r3, [r0, #0]
 8005f0a:	f04f 0900 	mov.w	r9, #0
 8005f0e:	07eb      	lsls	r3, r5, #31
 8005f10:	d50a      	bpl.n	8005f28 <__pow5mult+0x84>
 8005f12:	4639      	mov	r1, r7
 8005f14:	4622      	mov	r2, r4
 8005f16:	4630      	mov	r0, r6
 8005f18:	f7ff ff1e 	bl	8005d58 <__multiply>
 8005f1c:	4639      	mov	r1, r7
 8005f1e:	4680      	mov	r8, r0
 8005f20:	4630      	mov	r0, r6
 8005f22:	f7ff fe47 	bl	8005bb4 <_Bfree>
 8005f26:	4647      	mov	r7, r8
 8005f28:	106d      	asrs	r5, r5, #1
 8005f2a:	d00b      	beq.n	8005f44 <__pow5mult+0xa0>
 8005f2c:	6820      	ldr	r0, [r4, #0]
 8005f2e:	b938      	cbnz	r0, 8005f40 <__pow5mult+0x9c>
 8005f30:	4622      	mov	r2, r4
 8005f32:	4621      	mov	r1, r4
 8005f34:	4630      	mov	r0, r6
 8005f36:	f7ff ff0f 	bl	8005d58 <__multiply>
 8005f3a:	6020      	str	r0, [r4, #0]
 8005f3c:	f8c0 9000 	str.w	r9, [r0]
 8005f40:	4604      	mov	r4, r0
 8005f42:	e7e4      	b.n	8005f0e <__pow5mult+0x6a>
 8005f44:	4638      	mov	r0, r7
 8005f46:	e8bd 83f8 	ldmia.w	sp!, {r3, r4, r5, r6, r7, r8, r9, pc}
 8005f4a:	bf00      	nop
 8005f4c:	08007480 	.word	0x08007480
 8005f50:	080072a9 	.word	0x080072a9
 8005f54:	08007330 	.word	0x08007330

08005f58 <__lshift>:
 8005f58:	e92d 47f0 	stmdb	sp!, {r4, r5, r6, r7, r8, r9, sl, lr}
 8005f5c:	460c      	mov	r4, r1
 8005f5e:	6849      	ldr	r1, [r1, #4]
 8005f60:	6923      	ldr	r3, [r4, #16]
 8005f62:	eb03 1862 	add.w	r8, r3, r2, asr #5
 8005f66:	68a3      	ldr	r3, [r4, #8]
 8005f68:	4607      	mov	r7, r0
 8005f6a:	4691      	mov	r9, r2
 8005f6c:	ea4f 1a62 	mov.w	sl, r2, asr #5
 8005f70:	f108 0601 	add.w	r6, r8, #1
 8005f74:	42b3      	cmp	r3, r6
 8005f76:	db0b      	blt.n	8005f90 <__lshift+0x38>
 8005f78:	4638      	mov	r0, r7
 8005f7a:	f7ff fddb 	bl	8005b34 <_Balloc>
 8005f7e:	4605      	mov	r5, r0
 8005f80:	b948      	cbnz	r0, 8005f96 <__lshift+0x3e>
 8005f82:	4602      	mov	r2, r0
 8005f84:	4b28      	ldr	r3, [pc, #160]	; (8006028 <__lshift+0xd0>)
 8005f86:	4829      	ldr	r0, [pc, #164]	; (800602c <__lshift+0xd4>)
 8005f88:	f240 11d9 	movw	r1, #473	; 0x1d9
 8005f8c:	f000 fb76 	bl	800667c <__assert_func>
 8005f90:	3101      	adds	r1, #1
 8005f92:	005b      	lsls	r3, r3, #1
 8005f94:	e7ee      	b.n	8005f74 <__lshift+0x1c>
 8005f96:	2300      	movs	r3, #0
 8005f98:	f100 0114 	add.w	r1, r0, #20
 8005f9c:	f100 0210 	add.w	r2, r0, #16
 8005fa0:	4618      	mov	r0, r3
 8005fa2:	4553      	cmp	r3, sl
 8005fa4:	db33      	blt.n	800600e <__lshift+0xb6>
 8005fa6:	6920      	ldr	r0, [r4, #16]
 8005fa8:	ea2a 7aea 	bic.w	sl, sl, sl, asr #31
 8005fac:	f104 0314 	add.w	r3, r4, #20
 8005fb0:	f019 091f 	ands.w	r9, r9, #31
 8005fb4:	eb01 018a 	add.w	r1, r1, sl, lsl #2
 8005fb8:	eb03 0c80 	add.w	ip, r3, r0, lsl #2
 8005fbc:	d02b      	beq.n	8006016 <__lshift+0xbe>
 8005fbe:	f1c9 0e20 	rsb	lr, r9, #32
 8005fc2:	468a      	mov	sl, r1
 8005fc4:	2200      	movs	r2, #0
 8005fc6:	6818      	ldr	r0, [r3, #0]
 8005fc8:	fa00 f009 	lsl.w	r0, r0, r9
 8005fcc:	4302      	orrs	r2, r0
 8005fce:	f84a 2b04 	str.w	r2, [sl], #4
 8005fd2:	f853 2b04 	ldr.w	r2, [r3], #4
 8005fd6:	459c      	cmp	ip, r3
 8005fd8:	fa22 f20e 	lsr.w	r2, r2, lr
 8005fdc:	d8f3      	bhi.n	8005fc6 <__lshift+0x6e>
 8005fde:	ebac 0304 	sub.w	r3, ip, r4
 8005fe2:	3b15      	subs	r3, #21
 8005fe4:	f023 0303 	bic.w	r3, r3, #3
 8005fe8:	3304      	adds	r3, #4
 8005fea:	f104 0015 	add.w	r0, r4, #21
 8005fee:	4584      	cmp	ip, r0
 8005ff0:	bf38      	it	cc
 8005ff2:	2304      	movcc	r3, #4
 8005ff4:	50ca      	str	r2, [r1, r3]
 8005ff6:	b10a      	cbz	r2, 8005ffc <__lshift+0xa4>
 8005ff8:	f108 0602 	add.w	r6, r8, #2
 8005ffc:	3e01      	subs	r6, #1
 8005ffe:	4638      	mov	r0, r7
 8006000:	612e      	str	r6, [r5, #16]
 8006002:	4621      	mov	r1, r4
 8006004:	f7ff fdd6 	bl	8005bb4 <_Bfree>
 8006008:	4628      	mov	r0, r5
 800600a:	e8bd 87f0 	ldmia.w	sp!, {r4, r5, r6, r7, r8, r9, sl, pc}
 800600e:	f842 0f04 	str.w	r0, [r2, #4]!
 8006012:	3301      	adds	r3, #1
 8006014:	e7c5      	b.n	8005fa2 <__lshift+0x4a>
 8006016:	3904      	subs	r1, #4
 8006018:	f853 2b04 	ldr.w	r2, [r3], #4
 800601c:	f841 2f04 	str.w	r2, [r1, #4]!
 8006020:	459c      	cmp	ip, r3
 8006022:	d8f9      	bhi.n	8006018 <__lshift+0xc0>
 8006024:	e7ea      	b.n	8005ffc <__lshift+0xa4>
 8006026:	bf00      	nop
 8006028:	0800731f 	.word	0x0800731f
 800602c:	08007330 	.word	0x08007330

08006030 <__mcmp>:
 8006030:	b530      	push	{r4, r5, lr}
 8006032:	6902      	ldr	r2, [r0, #16]
 8006034:	690c      	ldr	r4, [r1, #16]
 8006036:	1b12      	subs	r2, r2, r4
 8006038:	d10e      	bne.n	8006058 <__mcmp+0x28>
 800603a:	f100 0314 	add.w	r3, r0, #20
 800603e:	3114      	adds	r1, #20
 8006040:	eb03 0084 	add.w	r0, r3, r4, lsl #2
 8006044:	eb01 0184 	add.w	r1, r1, r4, lsl #2
 8006048:	f850 5d04 	ldr.w	r5, [r0, #-4]!
 800604c:	f851 4d04 	ldr.w	r4, [r1, #-4]!
 8006050:	42a5      	cmp	r5, r4
 8006052:	d003      	beq.n	800605c <__mcmp+0x2c>
 8006054:	d305      	bcc.n	8006062 <__mcmp+0x32>
 8006056:	2201      	movs	r2, #1
 8006058:	4610      	mov	r0, r2
 800605a:	bd30      	pop	{r4, r5, pc}
 800605c:	4283      	cmp	r3, r0
 800605e:	d3f3      	bcc.n	8006048 <__mcmp+0x18>
 8006060:	e7fa      	b.n	8006058 <__mcmp+0x28>
 8006062:	f04f 32ff 	mov.w	r2, #4294967295
 8006066:	e7f7      	b.n	8006058 <__mcmp+0x28>

08006068 <__mdiff>:
 8006068:	e92d 4ff8 	stmdb	sp!, {r3, r4, r5, r6, r7, r8, r9, sl, fp, lr}
 800606c:	460c      	mov	r4, r1
 800606e:	4606      	mov	r6, r0
 8006070:	4611      	mov	r1, r2
 8006072:	4620      	mov	r0, r4
 8006074:	4617      	mov	r7, r2
 8006076:	f7ff ffdb 	bl	8006030 <__mcmp>
 800607a:	1e05      	subs	r5, r0, #0
 800607c:	d110      	bne.n	80060a0 <__mdiff+0x38>
 800607e:	4629      	mov	r1, r5
 8006080:	4630      	mov	r0, r6
 8006082:	f7ff fd57 	bl	8005b34 <_Balloc>
 8006086:	b930      	cbnz	r0, 8006096 <__mdiff+0x2e>
 8006088:	4b39      	ldr	r3, [pc, #228]	; (8006170 <__mdiff+0x108>)
 800608a:	4602      	mov	r2, r0
 800608c:	f240 2132 	movw	r1, #562	; 0x232
 8006090:	4838      	ldr	r0, [pc, #224]	; (8006174 <__mdiff+0x10c>)
 8006092:	f000 faf3 	bl	800667c <__assert_func>
 8006096:	2301      	movs	r3, #1
 8006098:	e9c0 3504 	strd	r3, r5, [r0, #16]
 800609c:	e8bd 8ff8 	ldmia.w	sp!, {r3, r4, r5, r6, r7, r8, r9, sl, fp, pc}
 80060a0:	bfa4      	itt	ge
 80060a2:	463b      	movge	r3, r7
 80060a4:	4627      	movge	r7, r4
 80060a6:	4630      	mov	r0, r6
 80060a8:	6879      	ldr	r1, [r7, #4]
 80060aa:	bfa6      	itte	ge
 80060ac:	461c      	movge	r4, r3
 80060ae:	2500      	movge	r5, #0
 80060b0:	2501      	movlt	r5, #1
 80060b2:	f7ff fd3f 	bl	8005b34 <_Balloc>
 80060b6:	b920      	cbnz	r0, 80060c2 <__mdiff+0x5a>
 80060b8:	4b2d      	ldr	r3, [pc, #180]	; (8006170 <__mdiff+0x108>)
 80060ba:	4602      	mov	r2, r0
 80060bc:	f44f 7110 	mov.w	r1, #576	; 0x240
 80060c0:	e7e6      	b.n	8006090 <__mdiff+0x28>
 80060c2:	693e      	ldr	r6, [r7, #16]
 80060c4:	60c5      	str	r5, [r0, #12]
 80060c6:	6925      	ldr	r5, [r4, #16]
 80060c8:	f107 0114 	add.w	r1, r7, #20
 80060cc:	f104 0914 	add.w	r9, r4, #20
 80060d0:	f100 0e14 	add.w	lr, r0, #20
 80060d4:	f107 0210 	add.w	r2, r7, #16
 80060d8:	eb01 0c86 	add.w	ip, r1, r6, lsl #2
 80060dc:	eb09 0585 	add.w	r5, r9, r5, lsl #2
 80060e0:	46f2      	mov	sl, lr
 80060e2:	2700      	movs	r7, #0
 80060e4:	f859 3b04 	ldr.w	r3, [r9], #4
 80060e8:	f852 bf04 	ldr.w	fp, [r2, #4]!
 80060ec:	fa1f f883 	uxth.w	r8, r3
 80060f0:	fa17 f78b 	uxtah	r7, r7, fp
 80060f4:	0c1b      	lsrs	r3, r3, #16
 80060f6:	eba7 0808 	sub.w	r8, r7, r8
 80060fa:	ebc3 431b 	rsb	r3, r3, fp, lsr #16
 80060fe:	eb03 4328 	add.w	r3, r3, r8, asr #16
 8006102:	fa1f f888 	uxth.w	r8, r8
 8006106:	141f      	asrs	r7, r3, #16
 8006108:	454d      	cmp	r5, r9
 800610a:	ea48 4303 	orr.w	r3, r8, r3, lsl #16
 800610e:	f84a 3b04 	str.w	r3, [sl], #4
 8006112:	d8e7      	bhi.n	80060e4 <__mdiff+0x7c>
 8006114:	1b2b      	subs	r3, r5, r4
 8006116:	3b15      	subs	r3, #21
 8006118:	f023 0303 	bic.w	r3, r3, #3
 800611c:	3304      	adds	r3, #4
 800611e:	3415      	adds	r4, #21
 8006120:	42a5      	cmp	r5, r4
 8006122:	bf38      	it	cc
 8006124:	2304      	movcc	r3, #4
 8006126:	4419      	add	r1, r3
 8006128:	4473      	add	r3, lr
 800612a:	469e      	mov	lr, r3
 800612c:	460d      	mov	r5, r1
 800612e:	4565      	cmp	r5, ip
 8006130:	d30e      	bcc.n	8006150 <__mdiff+0xe8>
 8006132:	f10c 0203 	add.w	r2, ip, #3
 8006136:	1a52      	subs	r2, r2, r1
 8006138:	f022 0203 	bic.w	r2, r2, #3
 800613c:	3903      	subs	r1, #3
 800613e:	458c      	cmp	ip, r1
 8006140:	bf38      	it	cc
 8006142:	2200      	movcc	r2, #0
 8006144:	441a      	add	r2, r3
 8006146:	f852 3d04 	ldr.w	r3, [r2, #-4]!
 800614a:	b17b      	cbz	r3, 800616c <__mdiff+0x104>
 800614c:	6106      	str	r6, [r0, #16]
 800614e:	e7a5      	b.n	800609c <__mdiff+0x34>
 8006150:	f855 8b04 	ldr.w	r8, [r5], #4
 8006154:	fa17 f488 	uxtah	r4, r7, r8
 8006158:	1422      	asrs	r2, r4, #16
 800615a:	eb02 4218 	add.w	r2, r2, r8, lsr #16
 800615e:	b2a4      	uxth	r4, r4
 8006160:	ea44 4402 	orr.w	r4, r4, r2, lsl #16
 8006164:	f84e 4b04 	str.w	r4, [lr], #4
 8006168:	1417      	asrs	r7, r2, #16
 800616a:	e7e0      	b.n	800612e <__mdiff+0xc6>
 800616c:	3e01      	subs	r6, #1
 800616e:	e7ea      	b.n	8006146 <__mdiff+0xde>
 8006170:	0800731f 	.word	0x0800731f
 8006174:	08007330 	.word	0x08007330

08006178 <__d2b>:
 8006178:	e92d 43f7 	stmdb	sp!, {r0, r1, r2, r4, r5, r6, r7, r8, r9, lr}
 800617c:	4689      	mov	r9, r1
 800617e:	2101      	movs	r1, #1
 8006180:	ec57 6b10 	vmov	r6, r7, d0
 8006184:	4690      	mov	r8, r2
 8006186:	f7ff fcd5 	bl	8005b34 <_Balloc>
 800618a:	4604      	mov	r4, r0
 800618c:	b930      	cbnz	r0, 800619c <__d2b+0x24>
 800618e:	4602      	mov	r2, r0
 8006190:	4b25      	ldr	r3, [pc, #148]	; (8006228 <__d2b+0xb0>)
 8006192:	4826      	ldr	r0, [pc, #152]	; (800622c <__d2b+0xb4>)
 8006194:	f240 310a 	movw	r1, #778	; 0x30a
 8006198:	f000 fa70 	bl	800667c <__assert_func>
 800619c:	f3c7 550a 	ubfx	r5, r7, #20, #11
 80061a0:	f3c7 0313 	ubfx	r3, r7, #0, #20
 80061a4:	bb35      	cbnz	r5, 80061f4 <__d2b+0x7c>
 80061a6:	2e00      	cmp	r6, #0
 80061a8:	9301      	str	r3, [sp, #4]
 80061aa:	d028      	beq.n	80061fe <__d2b+0x86>
 80061ac:	4668      	mov	r0, sp
 80061ae:	9600      	str	r6, [sp, #0]
 80061b0:	f7ff fd8c 	bl	8005ccc <__lo0bits>
 80061b4:	9900      	ldr	r1, [sp, #0]
 80061b6:	b300      	cbz	r0, 80061fa <__d2b+0x82>
 80061b8:	9a01      	ldr	r2, [sp, #4]
 80061ba:	f1c0 0320 	rsb	r3, r0, #32
 80061be:	fa02 f303 	lsl.w	r3, r2, r3
 80061c2:	430b      	orrs	r3, r1
 80061c4:	40c2      	lsrs	r2, r0
 80061c6:	6163      	str	r3, [r4, #20]
 80061c8:	9201      	str	r2, [sp, #4]
 80061ca:	9b01      	ldr	r3, [sp, #4]
 80061cc:	61a3      	str	r3, [r4, #24]
 80061ce:	2b00      	cmp	r3, #0
 80061d0:	bf14      	ite	ne
 80061d2:	2202      	movne	r2, #2
 80061d4:	2201      	moveq	r2, #1
 80061d6:	6122      	str	r2, [r4, #16]
 80061d8:	b1d5      	cbz	r5, 8006210 <__d2b+0x98>
 80061da:	f2a5 4533 	subw	r5, r5, #1075	; 0x433
 80061de:	4405      	add	r5, r0
 80061e0:	f8c9 5000 	str.w	r5, [r9]
 80061e4:	f1c0 0035 	rsb	r0, r0, #53	; 0x35
 80061e8:	f8c8 0000 	str.w	r0, [r8]
 80061ec:	4620      	mov	r0, r4
 80061ee:	b003      	add	sp, #12
 80061f0:	e8bd 83f0 	ldmia.w	sp!, {r4, r5, r6, r7, r8, r9, pc}
 80061f4:	f443 1380 	orr.w	r3, r3, #1048576	; 0x100000
 80061f8:	e7d5      	b.n	80061a6 <__d2b+0x2e>
 80061fa:	6161      	str	r1, [r4, #20]
 80061fc:	e7e5      	b.n	80061ca <__d2b+0x52>
 80061fe:	a801      	add	r0, sp, #4
 8006200:	f7ff fd64 	bl	8005ccc <__lo0bits>
 8006204:	9b01      	ldr	r3, [sp, #4]
 8006206:	6163      	str	r3, [r4, #20]
 8006208:	2201      	movs	r2, #1
 800620a:	6122      	str	r2, [r4, #16]
 800620c:	3020      	adds	r0, #32
 800620e:	e7e3      	b.n	80061d8 <__d2b+0x60>
 8006210:	eb04 0382 	add.w	r3, r4, r2, lsl #2
 8006214:	f2a0 4032 	subw	r0, r0, #1074	; 0x432
 8006218:	f8c9 0000 	str.w	r0, [r9]
 800621c:	6918      	ldr	r0, [r3, #16]
 800621e:	f7ff fd35 	bl	8005c8c <__hi0bits>
 8006222:	ebc0 1042 	rsb	r0, r0, r2, lsl #5
 8006226:	e7df      	b.n	80061e8 <__d2b+0x70>
 8006228:	0800731f 	.word	0x0800731f
 800622c:	08007330 	.word	0x08007330

08006230 <_calloc_r>:
 8006230:	b513      	push	{r0, r1, r4, lr}
 8006232:	434a      	muls	r2, r1
 8006234:	4611      	mov	r1, r2
 8006236:	9201      	str	r2, [sp, #4]
 8006238:	f000 f85a 	bl	80062f0 <_malloc_r>
 800623c:	4604      	mov	r4, r0
 800623e:	b118      	cbz	r0, 8006248 <_calloc_r+0x18>
 8006240:	9a01      	ldr	r2, [sp, #4]
 8006242:	2100      	movs	r1, #0
 8006244:	f7fe f952 	bl	80044ec <memset>
 8006248:	4620      	mov	r0, r4
 800624a:	b002      	add	sp, #8
 800624c:	bd10      	pop	{r4, pc}
	...

08006250 <_free_r>:
 8006250:	b537      	push	{r0, r1, r2, r4, r5, lr}
 8006252:	2900      	cmp	r1, #0
 8006254:	d048      	beq.n	80062e8 <_free_r+0x98>
 8006256:	f851 3c04 	ldr.w	r3, [r1, #-4]
 800625a:	9001      	str	r0, [sp, #4]
 800625c:	2b00      	cmp	r3, #0
 800625e:	f1a1 0404 	sub.w	r4, r1, #4
 8006262:	bfb8      	it	lt
 8006264:	18e4      	addlt	r4, r4, r3
 8006266:	f000 fa65 	bl	8006734 <__malloc_lock>
 800626a:	4a20      	ldr	r2, [pc, #128]	; (80062ec <_free_r+0x9c>)
 800626c:	9801      	ldr	r0, [sp, #4]
 800626e:	6813      	ldr	r3, [r2, #0]
 8006270:	4615      	mov	r5, r2
 8006272:	b933      	cbnz	r3, 8006282 <_free_r+0x32>
 8006274:	6063      	str	r3, [r4, #4]
 8006276:	6014      	str	r4, [r2, #0]
 8006278:	b003      	add	sp, #12
 800627a:	e8bd 4030 	ldmia.w	sp!, {r4, r5, lr}
 800627e:	f000 ba5f 	b.w	8006740 <__malloc_unlock>
 8006282:	42a3      	cmp	r3, r4
 8006284:	d90b      	bls.n	800629e <_free_r+0x4e>
 8006286:	6821      	ldr	r1, [r4, #0]
 8006288:	1862      	adds	r2, r4, r1
 800628a:	4293      	cmp	r3, r2
 800628c:	bf04      	itt	eq
 800628e:	681a      	ldreq	r2, [r3, #0]
 8006290:	685b      	ldreq	r3, [r3, #4]
 8006292:	6063      	str	r3, [r4, #4]
 8006294:	bf04      	itt	eq
 8006296:	1852      	addeq	r2, r2, r1
 8006298:	6022      	streq	r2, [r4, #0]
 800629a:	602c      	str	r4, [r5, #0]
 800629c:	e7ec      	b.n	8006278 <_free_r+0x28>
 800629e:	461a      	mov	r2, r3
 80062a0:	685b      	ldr	r3, [r3, #4]
 80062a2:	b10b      	cbz	r3, 80062a8 <_free_r+0x58>
 80062a4:	42a3      	cmp	r3, r4
 80062a6:	d9fa      	bls.n	800629e <_free_r+0x4e>
 80062a8:	6811      	ldr	r1, [r2, #0]
 80062aa:	1855      	adds	r5, r2, r1
 80062ac:	42a5      	cmp	r5, r4
 80062ae:	d10b      	bne.n	80062c8 <_free_r+0x78>
 80062b0:	6824      	ldr	r4, [r4, #0]
 80062b2:	4421      	add	r1, r4
 80062b4:	1854      	adds	r4, r2, r1
 80062b6:	42a3      	cmp	r3, r4
 80062b8:	6011      	str	r1, [r2, #0]
 80062ba:	d1dd      	bne.n	8006278 <_free_r+0x28>
 80062bc:	681c      	ldr	r4, [r3, #0]
 80062be:	685b      	ldr	r3, [r3, #4]
 80062c0:	6053      	str	r3, [r2, #4]
 80062c2:	4421      	add	r1, r4
 80062c4:	6011      	str	r1, [r2, #0]
 80062c6:	e7d7      	b.n	8006278 <_free_r+0x28>
 80062c8:	d902      	bls.n	80062d0 <_free_r+0x80>
 80062ca:	230c      	movs	r3, #12
 80062cc:	6003      	str	r3, [r0, #0]
 80062ce:	e7d3      	b.n	8006278 <_free_r+0x28>
 80062d0:	6825      	ldr	r5, [r4, #0]
 80062d2:	1961      	adds	r1, r4, r5
 80062d4:	428b      	cmp	r3, r1
 80062d6:	bf04      	itt	eq
 80062d8:	6819      	ldreq	r1, [r3, #0]
 80062da:	685b      	ldreq	r3, [r3, #4]
 80062dc:	6063      	str	r3, [r4, #4]
 80062de:	bf04      	itt	eq
 80062e0:	1949      	addeq	r1, r1, r5
 80062e2:	6021      	streq	r1, [r4, #0]
 80062e4:	6054      	str	r4, [r2, #4]
 80062e6:	e7c7      	b.n	8006278 <_free_r+0x28>
 80062e8:	b003      	add	sp, #12
 80062ea:	bd30      	pop	{r4, r5, pc}
 80062ec:	20000214 	.word	0x20000214

080062f0 <_malloc_r>:
 80062f0:	b5f8      	push	{r3, r4, r5, r6, r7, lr}
 80062f2:	1ccd      	adds	r5, r1, #3
 80062f4:	f025 0503 	bic.w	r5, r5, #3
 80062f8:	3508      	adds	r5, #8
 80062fa:	2d0c      	cmp	r5, #12
 80062fc:	bf38      	it	cc
 80062fe:	250c      	movcc	r5, #12
 8006300:	2d00      	cmp	r5, #0
 8006302:	4606      	mov	r6, r0
 8006304:	db01      	blt.n	800630a <_malloc_r+0x1a>
 8006306:	42a9      	cmp	r1, r5
 8006308:	d903      	bls.n	8006312 <_malloc_r+0x22>
 800630a:	230c      	movs	r3, #12
 800630c:	6033      	str	r3, [r6, #0]
 800630e:	2000      	movs	r0, #0
 8006310:	bdf8      	pop	{r3, r4, r5, r6, r7, pc}
 8006312:	f000 fa0f 	bl	8006734 <__malloc_lock>
 8006316:	4921      	ldr	r1, [pc, #132]	; (800639c <_malloc_r+0xac>)
 8006318:	680a      	ldr	r2, [r1, #0]
 800631a:	4614      	mov	r4, r2
 800631c:	b99c      	cbnz	r4, 8006346 <_malloc_r+0x56>
 800631e:	4f20      	ldr	r7, [pc, #128]	; (80063a0 <_malloc_r+0xb0>)
 8006320:	683b      	ldr	r3, [r7, #0]
 8006322:	b923      	cbnz	r3, 800632e <_malloc_r+0x3e>
 8006324:	4621      	mov	r1, r4
 8006326:	4630      	mov	r0, r6
 8006328:	f000 f998 	bl	800665c <_sbrk_r>
 800632c:	6038      	str	r0, [r7, #0]
 800632e:	4629      	mov	r1, r5
 8006330:	4630      	mov	r0, r6
 8006332:	f000 f993 	bl	800665c <_sbrk_r>
 8006336:	1c43      	adds	r3, r0, #1
 8006338:	d123      	bne.n	8006382 <_malloc_r+0x92>
 800633a:	230c      	movs	r3, #12
 800633c:	6033      	str	r3, [r6, #0]
 800633e:	4630      	mov	r0, r6
 8006340:	f000 f9fe 	bl	8006740 <__malloc_unlock>
 8006344:	e7e3      	b.n	800630e <_malloc_r+0x1e>
 8006346:	6823      	ldr	r3, [r4, #0]
 8006348:	1b5b      	subs	r3, r3, r5
 800634a:	d417      	bmi.n	800637c <_malloc_r+0x8c>
 800634c:	2b0b      	cmp	r3, #11
 800634e:	d903      	bls.n	8006358 <_malloc_r+0x68>
 8006350:	6023      	str	r3, [r4, #0]
 8006352:	441c      	add	r4, r3
 8006354:	6025      	str	r5, [r4, #0]
 8006356:	e004      	b.n	8006362 <_malloc_r+0x72>
 8006358:	6863      	ldr	r3, [r4, #4]
 800635a:	42a2      	cmp	r2, r4
 800635c:	bf0c      	ite	eq
 800635e:	600b      	streq	r3, [r1, #0]
 8006360:	6053      	strne	r3, [r2, #4]
 8006362:	4630      	mov	r0, r6
 8006364:	f000 f9ec 	bl	8006740 <__malloc_unlock>
 8006368:	f104 000b 	add.w	r0, r4, #11
 800636c:	1d23      	adds	r3, r4, #4
 800636e:	f020 0007 	bic.w	r0, r0, #7
 8006372:	1ac2      	subs	r2, r0, r3
 8006374:	d0cc      	beq.n	8006310 <_malloc_r+0x20>
 8006376:	1a1b      	subs	r3, r3, r0
 8006378:	50a3      	str	r3, [r4, r2]
 800637a:	e7c9      	b.n	8006310 <_malloc_r+0x20>
 800637c:	4622      	mov	r2, r4
 800637e:	6864      	ldr	r4, [r4, #4]
 8006380:	e7cc      	b.n	800631c <_malloc_r+0x2c>
 8006382:	1cc4      	adds	r4, r0, #3
 8006384:	f024 0403 	bic.w	r4, r4, #3
 8006388:	42a0      	cmp	r0, r4
 800638a:	d0e3      	beq.n	8006354 <_malloc_r+0x64>
 800638c:	1a21      	subs	r1, r4, r0
 800638e:	4630      	mov	r0, r6
 8006390:	f000 f964 	bl	800665c <_sbrk_r>
 8006394:	3001      	adds	r0, #1
 8006396:	d1dd      	bne.n	8006354 <_malloc_r+0x64>
 8006398:	e7cf      	b.n	800633a <_malloc_r+0x4a>
 800639a:	bf00      	nop
 800639c:	20000214 	.word	0x20000214
 80063a0:	20000218 	.word	0x20000218

080063a4 <__ssputs_r>:
 80063a4:	e92d 47f0 	stmdb	sp!, {r4, r5, r6, r7, r8, r9, sl, lr}
 80063a8:	688e      	ldr	r6, [r1, #8]
 80063aa:	429e      	cmp	r6, r3
 80063ac:	4682      	mov	sl, r0
 80063ae:	460c      	mov	r4, r1
 80063b0:	4690      	mov	r8, r2
 80063b2:	461f      	mov	r7, r3
 80063b4:	d838      	bhi.n	8006428 <__ssputs_r+0x84>
 80063b6:	898a      	ldrh	r2, [r1, #12]
 80063b8:	f412 6f90 	tst.w	r2, #1152	; 0x480
 80063bc:	d032      	beq.n	8006424 <__ssputs_r+0x80>
 80063be:	6825      	ldr	r5, [r4, #0]
 80063c0:	6909      	ldr	r1, [r1, #16]
 80063c2:	eba5 0901 	sub.w	r9, r5, r1
 80063c6:	6965      	ldr	r5, [r4, #20]
 80063c8:	eb05 0545 	add.w	r5, r5, r5, lsl #1
 80063cc:	eb05 75d5 	add.w	r5, r5, r5, lsr #31
 80063d0:	3301      	adds	r3, #1
 80063d2:	444b      	add	r3, r9
 80063d4:	106d      	asrs	r5, r5, #1
 80063d6:	429d      	cmp	r5, r3
 80063d8:	bf38      	it	cc
 80063da:	461d      	movcc	r5, r3
 80063dc:	0553      	lsls	r3, r2, #21
 80063de:	d531      	bpl.n	8006444 <__ssputs_r+0xa0>
 80063e0:	4629      	mov	r1, r5
 80063e2:	f7ff ff85 	bl	80062f0 <_malloc_r>
 80063e6:	4606      	mov	r6, r0
 80063e8:	b950      	cbnz	r0, 8006400 <__ssputs_r+0x5c>
 80063ea:	230c      	movs	r3, #12
 80063ec:	f8ca 3000 	str.w	r3, [sl]
 80063f0:	89a3      	ldrh	r3, [r4, #12]
 80063f2:	f043 0340 	orr.w	r3, r3, #64	; 0x40
 80063f6:	81a3      	strh	r3, [r4, #12]
 80063f8:	f04f 30ff 	mov.w	r0, #4294967295
 80063fc:	e8bd 87f0 	ldmia.w	sp!, {r4, r5, r6, r7, r8, r9, sl, pc}
 8006400:	6921      	ldr	r1, [r4, #16]
 8006402:	464a      	mov	r2, r9
 8006404:	f7ff fb88 	bl	8005b18 <memcpy>
 8006408:	89a3      	ldrh	r3, [r4, #12]
 800640a:	f423 6390 	bic.w	r3, r3, #1152	; 0x480
 800640e:	f043 0380 	orr.w	r3, r3, #128	; 0x80
 8006412:	81a3      	strh	r3, [r4, #12]
 8006414:	6126      	str	r6, [r4, #16]
 8006416:	6165      	str	r5, [r4, #20]
 8006418:	444e      	add	r6, r9
 800641a:	eba5 0509 	sub.w	r5, r5, r9
 800641e:	6026      	str	r6, [r4, #0]
 8006420:	60a5      	str	r5, [r4, #8]
 8006422:	463e      	mov	r6, r7
 8006424:	42be      	cmp	r6, r7
 8006426:	d900      	bls.n	800642a <__ssputs_r+0x86>
 8006428:	463e      	mov	r6, r7
 800642a:	4632      	mov	r2, r6
 800642c:	6820      	ldr	r0, [r4, #0]
 800642e:	4641      	mov	r1, r8
 8006430:	f000 f966 	bl	8006700 <memmove>
 8006434:	68a3      	ldr	r3, [r4, #8]
 8006436:	6822      	ldr	r2, [r4, #0]
 8006438:	1b9b      	subs	r3, r3, r6
 800643a:	4432      	add	r2, r6
 800643c:	60a3      	str	r3, [r4, #8]
 800643e:	6022      	str	r2, [r4, #0]
 8006440:	2000      	movs	r0, #0
 8006442:	e7db      	b.n	80063fc <__ssputs_r+0x58>
 8006444:	462a      	mov	r2, r5
 8006446:	f000 f981 	bl	800674c <_realloc_r>
 800644a:	4606      	mov	r6, r0
 800644c:	2800      	cmp	r0, #0
 800644e:	d1e1      	bne.n	8006414 <__ssputs_r+0x70>
 8006450:	6921      	ldr	r1, [r4, #16]
 8006452:	4650      	mov	r0, sl
 8006454:	f7ff fefc 	bl	8006250 <_free_r>
 8006458:	e7c7      	b.n	80063ea <__ssputs_r+0x46>
	...

0800645c <_svfiprintf_r>:
 800645c:	e92d 4ff0 	stmdb	sp!, {r4, r5, r6, r7, r8, r9, sl, fp, lr}
 8006460:	4698      	mov	r8, r3
 8006462:	898b      	ldrh	r3, [r1, #12]
 8006464:	061b      	lsls	r3, r3, #24
 8006466:	b09d      	sub	sp, #116	; 0x74
 8006468:	4607      	mov	r7, r0
 800646a:	460d      	mov	r5, r1
 800646c:	4614      	mov	r4, r2
 800646e:	d50e      	bpl.n	800648e <_svfiprintf_r+0x32>
 8006470:	690b      	ldr	r3, [r1, #16]
 8006472:	b963      	cbnz	r3, 800648e <_svfiprintf_r+0x32>
 8006474:	2140      	movs	r1, #64	; 0x40
 8006476:	f7ff ff3b 	bl	80062f0 <_malloc_r>
 800647a:	6028      	str	r0, [r5, #0]
 800647c:	6128      	str	r0, [r5, #16]
 800647e:	b920      	cbnz	r0, 800648a <_svfiprintf_r+0x2e>
 8006480:	230c      	movs	r3, #12
 8006482:	603b      	str	r3, [r7, #0]
 8006484:	f04f 30ff 	mov.w	r0, #4294967295
 8006488:	e0d1      	b.n	800662e <_svfiprintf_r+0x1d2>
 800648a:	2340      	movs	r3, #64	; 0x40
 800648c:	616b      	str	r3, [r5, #20]
 800648e:	2300      	movs	r3, #0
 8006490:	9309      	str	r3, [sp, #36]	; 0x24
 8006492:	2320      	movs	r3, #32
 8006494:	f88d 3029 	strb.w	r3, [sp, #41]	; 0x29
 8006498:	f8cd 800c 	str.w	r8, [sp, #12]
 800649c:	2330      	movs	r3, #48	; 0x30
 800649e:	f8df 81a8 	ldr.w	r8, [pc, #424]	; 8006648 <_svfiprintf_r+0x1ec>
 80064a2:	f88d 302a 	strb.w	r3, [sp, #42]	; 0x2a
 80064a6:	f04f 0901 	mov.w	r9, #1
 80064aa:	4623      	mov	r3, r4
 80064ac:	469a      	mov	sl, r3
 80064ae:	f813 2b01 	ldrb.w	r2, [r3], #1
 80064b2:	b10a      	cbz	r2, 80064b8 <_svfiprintf_r+0x5c>
 80064b4:	2a25      	cmp	r2, #37	; 0x25
 80064b6:	d1f9      	bne.n	80064ac <_svfiprintf_r+0x50>
 80064b8:	ebba 0b04 	subs.w	fp, sl, r4
 80064bc:	d00b      	beq.n	80064d6 <_svfiprintf_r+0x7a>
 80064be:	465b      	mov	r3, fp
 80064c0:	4622      	mov	r2, r4
 80064c2:	4629      	mov	r1, r5
 80064c4:	4638      	mov	r0, r7
 80064c6:	f7ff ff6d 	bl	80063a4 <__ssputs_r>
 80064ca:	3001      	adds	r0, #1
 80064cc:	f000 80aa 	beq.w	8006624 <_svfiprintf_r+0x1c8>
 80064d0:	9a09      	ldr	r2, [sp, #36]	; 0x24
 80064d2:	445a      	add	r2, fp
 80064d4:	9209      	str	r2, [sp, #36]	; 0x24
 80064d6:	f89a 3000 	ldrb.w	r3, [sl]
 80064da:	2b00      	cmp	r3, #0
 80064dc:	f000 80a2 	beq.w	8006624 <_svfiprintf_r+0x1c8>
 80064e0:	2300      	movs	r3, #0
 80064e2:	f04f 32ff 	mov.w	r2, #4294967295
 80064e6:	e9cd 2305 	strd	r2, r3, [sp, #20]
 80064ea:	f10a 0a01 	add.w	sl, sl, #1
 80064ee:	9304      	str	r3, [sp, #16]
 80064f0:	9307      	str	r3, [sp, #28]
 80064f2:	f88d 3053 	strb.w	r3, [sp, #83]	; 0x53
 80064f6:	931a      	str	r3, [sp, #104]	; 0x68
 80064f8:	4654      	mov	r4, sl
 80064fa:	2205      	movs	r2, #5
 80064fc:	f814 1b01 	ldrb.w	r1, [r4], #1
 8006500:	4851      	ldr	r0, [pc, #324]	; (8006648 <_svfiprintf_r+0x1ec>)
 8006502:	f7f9 fe8d 	bl	8000220 <memchr>
 8006506:	9a04      	ldr	r2, [sp, #16]
 8006508:	b9d8      	cbnz	r0, 8006542 <_svfiprintf_r+0xe6>
 800650a:	06d0      	lsls	r0, r2, #27
 800650c:	bf44      	itt	mi
 800650e:	2320      	movmi	r3, #32
 8006510:	f88d 3053 	strbmi.w	r3, [sp, #83]	; 0x53
 8006514:	0711      	lsls	r1, r2, #28
 8006516:	bf44      	itt	mi
 8006518:	232b      	movmi	r3, #43	; 0x2b
 800651a:	f88d 3053 	strbmi.w	r3, [sp, #83]	; 0x53
 800651e:	f89a 3000 	ldrb.w	r3, [sl]
 8006522:	2b2a      	cmp	r3, #42	; 0x2a
 8006524:	d015      	beq.n	8006552 <_svfiprintf_r+0xf6>
 8006526:	9a07      	ldr	r2, [sp, #28]
 8006528:	4654      	mov	r4, sl
 800652a:	2000      	movs	r0, #0
 800652c:	f04f 0c0a 	mov.w	ip, #10
 8006530:	4621      	mov	r1, r4
 8006532:	f811 3b01 	ldrb.w	r3, [r1], #1
 8006536:	3b30      	subs	r3, #48	; 0x30
 8006538:	2b09      	cmp	r3, #9
 800653a:	d94e      	bls.n	80065da <_svfiprintf_r+0x17e>
 800653c:	b1b0      	cbz	r0, 800656c <_svfiprintf_r+0x110>
 800653e:	9207      	str	r2, [sp, #28]
 8006540:	e014      	b.n	800656c <_svfiprintf_r+0x110>
 8006542:	eba0 0308 	sub.w	r3, r0, r8
 8006546:	fa09 f303 	lsl.w	r3, r9, r3
 800654a:	4313      	orrs	r3, r2
 800654c:	9304      	str	r3, [sp, #16]
 800654e:	46a2      	mov	sl, r4
 8006550:	e7d2      	b.n	80064f8 <_svfiprintf_r+0x9c>
 8006552:	9b03      	ldr	r3, [sp, #12]
 8006554:	1d19      	adds	r1, r3, #4
 8006556:	681b      	ldr	r3, [r3, #0]
 8006558:	9103      	str	r1, [sp, #12]
 800655a:	2b00      	cmp	r3, #0
 800655c:	bfbb      	ittet	lt
 800655e:	425b      	neglt	r3, r3
 8006560:	f042 0202 	orrlt.w	r2, r2, #2
 8006564:	9307      	strge	r3, [sp, #28]
 8006566:	9307      	strlt	r3, [sp, #28]
 8006568:	bfb8      	it	lt
 800656a:	9204      	strlt	r2, [sp, #16]
 800656c:	7823      	ldrb	r3, [r4, #0]
 800656e:	2b2e      	cmp	r3, #46	; 0x2e
 8006570:	d10c      	bne.n	800658c <_svfiprintf_r+0x130>
 8006572:	7863      	ldrb	r3, [r4, #1]
 8006574:	2b2a      	cmp	r3, #42	; 0x2a
 8006576:	d135      	bne.n	80065e4 <_svfiprintf_r+0x188>
 8006578:	9b03      	ldr	r3, [sp, #12]
 800657a:	1d1a      	adds	r2, r3, #4
 800657c:	681b      	ldr	r3, [r3, #0]
 800657e:	9203      	str	r2, [sp, #12]
 8006580:	2b00      	cmp	r3, #0
 8006582:	bfb8      	it	lt
 8006584:	f04f 33ff 	movlt.w	r3, #4294967295
 8006588:	3402      	adds	r4, #2
 800658a:	9305      	str	r3, [sp, #20]
 800658c:	f8df a0c8 	ldr.w	sl, [pc, #200]	; 8006658 <_svfiprintf_r+0x1fc>
 8006590:	7821      	ldrb	r1, [r4, #0]
 8006592:	2203      	movs	r2, #3
 8006594:	4650      	mov	r0, sl
 8006596:	f7f9 fe43 	bl	8000220 <memchr>
 800659a:	b140      	cbz	r0, 80065ae <_svfiprintf_r+0x152>
 800659c:	2340      	movs	r3, #64	; 0x40
 800659e:	eba0 000a 	sub.w	r0, r0, sl
 80065a2:	fa03 f000 	lsl.w	r0, r3, r0
 80065a6:	9b04      	ldr	r3, [sp, #16]
 80065a8:	4303      	orrs	r3, r0
 80065aa:	3401      	adds	r4, #1
 80065ac:	9304      	str	r3, [sp, #16]
 80065ae:	f814 1b01 	ldrb.w	r1, [r4], #1
 80065b2:	4826      	ldr	r0, [pc, #152]	; (800664c <_svfiprintf_r+0x1f0>)
 80065b4:	f88d 1028 	strb.w	r1, [sp, #40]	; 0x28
 80065b8:	2206      	movs	r2, #6
 80065ba:	f7f9 fe31 	bl	8000220 <memchr>
 80065be:	2800      	cmp	r0, #0
 80065c0:	d038      	beq.n	8006634 <_svfiprintf_r+0x1d8>
 80065c2:	4b23      	ldr	r3, [pc, #140]	; (8006650 <_svfiprintf_r+0x1f4>)
 80065c4:	bb1b      	cbnz	r3, 800660e <_svfiprintf_r+0x1b2>
 80065c6:	9b03      	ldr	r3, [sp, #12]
 80065c8:	3307      	adds	r3, #7
 80065ca:	f023 0307 	bic.w	r3, r3, #7
 80065ce:	3308      	adds	r3, #8
 80065d0:	9303      	str	r3, [sp, #12]
 80065d2:	9b09      	ldr	r3, [sp, #36]	; 0x24
 80065d4:	4433      	add	r3, r6
 80065d6:	9309      	str	r3, [sp, #36]	; 0x24
 80065d8:	e767      	b.n	80064aa <_svfiprintf_r+0x4e>
 80065da:	fb0c 3202 	mla	r2, ip, r2, r3
 80065de:	460c      	mov	r4, r1
 80065e0:	2001      	movs	r0, #1
 80065e2:	e7a5      	b.n	8006530 <_svfiprintf_r+0xd4>
 80065e4:	2300      	movs	r3, #0
 80065e6:	3401      	adds	r4, #1
 80065e8:	9305      	str	r3, [sp, #20]
 80065ea:	4619      	mov	r1, r3
 80065ec:	f04f 0c0a 	mov.w	ip, #10
 80065f0:	4620      	mov	r0, r4
 80065f2:	f810 2b01 	ldrb.w	r2, [r0], #1
 80065f6:	3a30      	subs	r2, #48	; 0x30
 80065f8:	2a09      	cmp	r2, #9
 80065fa:	d903      	bls.n	8006604 <_svfiprintf_r+0x1a8>
 80065fc:	2b00      	cmp	r3, #0
 80065fe:	d0c5      	beq.n	800658c <_svfiprintf_r+0x130>
 8006600:	9105      	str	r1, [sp, #20]
 8006602:	e7c3      	b.n	800658c <_svfiprintf_r+0x130>
 8006604:	fb0c 2101 	mla	r1, ip, r1, r2
 8006608:	4604      	mov	r4, r0
 800660a:	2301      	movs	r3, #1
 800660c:	e7f0      	b.n	80065f0 <_svfiprintf_r+0x194>
 800660e:	ab03      	add	r3, sp, #12
 8006610:	9300      	str	r3, [sp, #0]
 8006612:	462a      	mov	r2, r5
 8006614:	4b0f      	ldr	r3, [pc, #60]	; (8006654 <_svfiprintf_r+0x1f8>)
 8006616:	a904      	add	r1, sp, #16
 8006618:	4638      	mov	r0, r7
 800661a:	f7fe f80f 	bl	800463c <_printf_float>
 800661e:	1c42      	adds	r2, r0, #1
 8006620:	4606      	mov	r6, r0
 8006622:	d1d6      	bne.n	80065d2 <_svfiprintf_r+0x176>
 8006624:	89ab      	ldrh	r3, [r5, #12]
 8006626:	065b      	lsls	r3, r3, #25
 8006628:	f53f af2c 	bmi.w	8006484 <_svfiprintf_r+0x28>
 800662c:	9809      	ldr	r0, [sp, #36]	; 0x24
 800662e:	b01d      	add	sp, #116	; 0x74
 8006630:	e8bd 8ff0 	ldmia.w	sp!, {r4, r5, r6, r7, r8, r9, sl, fp, pc}
 8006634:	ab03      	add	r3, sp, #12
 8006636:	9300      	str	r3, [sp, #0]
 8006638:	462a      	mov	r2, r5
 800663a:	4b06      	ldr	r3, [pc, #24]	; (8006654 <_svfiprintf_r+0x1f8>)
 800663c:	a904      	add	r1, sp, #16
 800663e:	4638      	mov	r0, r7
 8006640:	f7fe faa0 	bl	8004b84 <_printf_i>
 8006644:	e7eb      	b.n	800661e <_svfiprintf_r+0x1c2>
 8006646:	bf00      	nop
 8006648:	0800748c 	.word	0x0800748c
 800664c:	08007496 	.word	0x08007496
 8006650:	0800463d 	.word	0x0800463d
 8006654:	080063a5 	.word	0x080063a5
 8006658:	08007492 	.word	0x08007492

0800665c <_sbrk_r>:
 800665c:	b538      	push	{r3, r4, r5, lr}
 800665e:	4d06      	ldr	r5, [pc, #24]	; (8006678 <_sbrk_r+0x1c>)
 8006660:	2300      	movs	r3, #0
 8006662:	4604      	mov	r4, r0
 8006664:	4608      	mov	r0, r1
 8006666:	602b      	str	r3, [r5, #0]
 8006668:	f7fb fa10 	bl	8001a8c <_sbrk>
 800666c:	1c43      	adds	r3, r0, #1
 800666e:	d102      	bne.n	8006676 <_sbrk_r+0x1a>
 8006670:	682b      	ldr	r3, [r5, #0]
 8006672:	b103      	cbz	r3, 8006676 <_sbrk_r+0x1a>
 8006674:	6023      	str	r3, [r4, #0]
 8006676:	bd38      	pop	{r3, r4, r5, pc}
 8006678:	20013bdc 	.word	0x20013bdc

0800667c <__assert_func>:
 800667c:	b51f      	push	{r0, r1, r2, r3, r4, lr}
 800667e:	4614      	mov	r4, r2
 8006680:	461a      	mov	r2, r3
 8006682:	4b09      	ldr	r3, [pc, #36]	; (80066a8 <__assert_func+0x2c>)
 8006684:	681b      	ldr	r3, [r3, #0]
 8006686:	4605      	mov	r5, r0
 8006688:	68d8      	ldr	r0, [r3, #12]
 800668a:	b14c      	cbz	r4, 80066a0 <__assert_func+0x24>
 800668c:	4b07      	ldr	r3, [pc, #28]	; (80066ac <__assert_func+0x30>)
 800668e:	9100      	str	r1, [sp, #0]
 8006690:	e9cd 3401 	strd	r3, r4, [sp, #4]
 8006694:	4906      	ldr	r1, [pc, #24]	; (80066b0 <__assert_func+0x34>)
 8006696:	462b      	mov	r3, r5
 8006698:	f000 f80e 	bl	80066b8 <fiprintf>
 800669c:	f000 faa4 	bl	8006be8 <abort>
 80066a0:	4b04      	ldr	r3, [pc, #16]	; (80066b4 <__assert_func+0x38>)
 80066a2:	461c      	mov	r4, r3
 80066a4:	e7f3      	b.n	800668e <__assert_func+0x12>
 80066a6:	bf00      	nop
 80066a8:	2000000c 	.word	0x2000000c
 80066ac:	0800749d 	.word	0x0800749d
 80066b0:	080074aa 	.word	0x080074aa
 80066b4:	080074d8 	.word	0x080074d8

080066b8 <fiprintf>:
 80066b8:	b40e      	push	{r1, r2, r3}
 80066ba:	b503      	push	{r0, r1, lr}
 80066bc:	4601      	mov	r1, r0
 80066be:	ab03      	add	r3, sp, #12
 80066c0:	4805      	ldr	r0, [pc, #20]	; (80066d8 <fiprintf+0x20>)
 80066c2:	f853 2b04 	ldr.w	r2, [r3], #4
 80066c6:	6800      	ldr	r0, [r0, #0]
 80066c8:	9301      	str	r3, [sp, #4]
 80066ca:	f000 f88f 	bl	80067ec <_vfiprintf_r>
 80066ce:	b002      	add	sp, #8
 80066d0:	f85d eb04 	ldr.w	lr, [sp], #4
 80066d4:	b003      	add	sp, #12
 80066d6:	4770      	bx	lr
 80066d8:	2000000c 	.word	0x2000000c

080066dc <__ascii_mbtowc>:
 80066dc:	b082      	sub	sp, #8
 80066de:	b901      	cbnz	r1, 80066e2 <__ascii_mbtowc+0x6>
 80066e0:	a901      	add	r1, sp, #4
 80066e2:	b142      	cbz	r2, 80066f6 <__ascii_mbtowc+0x1a>
 80066e4:	b14b      	cbz	r3, 80066fa <__ascii_mbtowc+0x1e>
 80066e6:	7813      	ldrb	r3, [r2, #0]
 80066e8:	600b      	str	r3, [r1, #0]
 80066ea:	7812      	ldrb	r2, [r2, #0]
 80066ec:	1e10      	subs	r0, r2, #0
 80066ee:	bf18      	it	ne
 80066f0:	2001      	movne	r0, #1
 80066f2:	b002      	add	sp, #8
 80066f4:	4770      	bx	lr
 80066f6:	4610      	mov	r0, r2
 80066f8:	e7fb      	b.n	80066f2 <__ascii_mbtowc+0x16>
 80066fa:	f06f 0001 	mvn.w	r0, #1
 80066fe:	e7f8      	b.n	80066f2 <__ascii_mbtowc+0x16>

08006700 <memmove>:
 8006700:	4288      	cmp	r0, r1
 8006702:	b510      	push	{r4, lr}
 8006704:	eb01 0402 	add.w	r4, r1, r2
 8006708:	d902      	bls.n	8006710 <memmove+0x10>
 800670a:	4284      	cmp	r4, r0
 800670c:	4623      	mov	r3, r4
 800670e:	d807      	bhi.n	8006720 <memmove+0x20>
 8006710:	1e43      	subs	r3, r0, #1
 8006712:	42a1      	cmp	r1, r4
 8006714:	d008      	beq.n	8006728 <memmove+0x28>
 8006716:	f811 2b01 	ldrb.w	r2, [r1], #1
 800671a:	f803 2f01 	strb.w	r2, [r3, #1]!
 800671e:	e7f8      	b.n	8006712 <memmove+0x12>
 8006720:	4402      	add	r2, r0
 8006722:	4601      	mov	r1, r0
 8006724:	428a      	cmp	r2, r1
 8006726:	d100      	bne.n	800672a <memmove+0x2a>
 8006728:	bd10      	pop	{r4, pc}
 800672a:	f813 4d01 	ldrb.w	r4, [r3, #-1]!
 800672e:	f802 4d01 	strb.w	r4, [r2, #-1]!
 8006732:	e7f7      	b.n	8006724 <memmove+0x24>

08006734 <__malloc_lock>:
 8006734:	4801      	ldr	r0, [pc, #4]	; (800673c <__malloc_lock+0x8>)
 8006736:	f000 bc17 	b.w	8006f68 <__retarget_lock_acquire_recursive>
 800673a:	bf00      	nop
 800673c:	20013be4 	.word	0x20013be4

08006740 <__malloc_unlock>:
 8006740:	4801      	ldr	r0, [pc, #4]	; (8006748 <__malloc_unlock+0x8>)
 8006742:	f000 bc12 	b.w	8006f6a <__retarget_lock_release_recursive>
 8006746:	bf00      	nop
 8006748:	20013be4 	.word	0x20013be4

0800674c <_realloc_r>:
 800674c:	b5f8      	push	{r3, r4, r5, r6, r7, lr}
 800674e:	4607      	mov	r7, r0
 8006750:	4614      	mov	r4, r2
 8006752:	460e      	mov	r6, r1
 8006754:	b921      	cbnz	r1, 8006760 <_realloc_r+0x14>
 8006756:	e8bd 40f8 	ldmia.w	sp!, {r3, r4, r5, r6, r7, lr}
 800675a:	4611      	mov	r1, r2
 800675c:	f7ff bdc8 	b.w	80062f0 <_malloc_r>
 8006760:	b922      	cbnz	r2, 800676c <_realloc_r+0x20>
 8006762:	f7ff fd75 	bl	8006250 <_free_r>
 8006766:	4625      	mov	r5, r4
 8006768:	4628      	mov	r0, r5
 800676a:	bdf8      	pop	{r3, r4, r5, r6, r7, pc}
 800676c:	f000 fc62 	bl	8007034 <_malloc_usable_size_r>
 8006770:	42a0      	cmp	r0, r4
 8006772:	d20f      	bcs.n	8006794 <_realloc_r+0x48>
 8006774:	4621      	mov	r1, r4
 8006776:	4638      	mov	r0, r7
 8006778:	f7ff fdba 	bl	80062f0 <_malloc_r>
 800677c:	4605      	mov	r5, r0
 800677e:	2800      	cmp	r0, #0
 8006780:	d0f2      	beq.n	8006768 <_realloc_r+0x1c>
 8006782:	4631      	mov	r1, r6
 8006784:	4622      	mov	r2, r4
 8006786:	f7ff f9c7 	bl	8005b18 <memcpy>
 800678a:	4631      	mov	r1, r6
 800678c:	4638      	mov	r0, r7
 800678e:	f7ff fd5f 	bl	8006250 <_free_r>
 8006792:	e7e9      	b.n	8006768 <_realloc_r+0x1c>
 8006794:	4635      	mov	r5, r6
 8006796:	e7e7      	b.n	8006768 <_realloc_r+0x1c>

08006798 <__sfputc_r>:
 8006798:	6893      	ldr	r3, [r2, #8]
 800679a:	3b01      	subs	r3, #1
 800679c:	2b00      	cmp	r3, #0
 800679e:	b410      	push	{r4}
 80067a0:	6093      	str	r3, [r2, #8]
 80067a2:	da08      	bge.n	80067b6 <__sfputc_r+0x1e>
 80067a4:	6994      	ldr	r4, [r2, #24]
 80067a6:	42a3      	cmp	r3, r4
 80067a8:	db01      	blt.n	80067ae <__sfputc_r+0x16>
 80067aa:	290a      	cmp	r1, #10
 80067ac:	d103      	bne.n	80067b6 <__sfputc_r+0x1e>
 80067ae:	f85d 4b04 	ldr.w	r4, [sp], #4
 80067b2:	f000 b94b 	b.w	8006a4c <__swbuf_r>
 80067b6:	6813      	ldr	r3, [r2, #0]
 80067b8:	1c58      	adds	r0, r3, #1
 80067ba:	6010      	str	r0, [r2, #0]
 80067bc:	7019      	strb	r1, [r3, #0]
 80067be:	4608      	mov	r0, r1
 80067c0:	f85d 4b04 	ldr.w	r4, [sp], #4
 80067c4:	4770      	bx	lr

080067c6 <__sfputs_r>:
 80067c6:	b5f8      	push	{r3, r4, r5, r6, r7, lr}
 80067c8:	4606      	mov	r6, r0
 80067ca:	460f      	mov	r7, r1
 80067cc:	4614      	mov	r4, r2
 80067ce:	18d5      	adds	r5, r2, r3
 80067d0:	42ac      	cmp	r4, r5
 80067d2:	d101      	bne.n	80067d8 <__sfputs_r+0x12>
 80067d4:	2000      	movs	r0, #0
 80067d6:	e007      	b.n	80067e8 <__sfputs_r+0x22>
 80067d8:	f814 1b01 	ldrb.w	r1, [r4], #1
 80067dc:	463a      	mov	r2, r7
 80067de:	4630      	mov	r0, r6
 80067e0:	f7ff ffda 	bl	8006798 <__sfputc_r>
 80067e4:	1c43      	adds	r3, r0, #1
 80067e6:	d1f3      	bne.n	80067d0 <__sfputs_r+0xa>
 80067e8:	bdf8      	pop	{r3, r4, r5, r6, r7, pc}
	...

080067ec <_vfiprintf_r>:
 80067ec:	e92d 4ff0 	stmdb	sp!, {r4, r5, r6, r7, r8, r9, sl, fp, lr}
 80067f0:	460d      	mov	r5, r1
 80067f2:	b09d      	sub	sp, #116	; 0x74
 80067f4:	4614      	mov	r4, r2
 80067f6:	4698      	mov	r8, r3
 80067f8:	4606      	mov	r6, r0
 80067fa:	b118      	cbz	r0, 8006804 <_vfiprintf_r+0x18>
 80067fc:	6983      	ldr	r3, [r0, #24]
 80067fe:	b90b      	cbnz	r3, 8006804 <_vfiprintf_r+0x18>
 8006800:	f000 fb14 	bl	8006e2c <__sinit>
 8006804:	4b89      	ldr	r3, [pc, #548]	; (8006a2c <_vfiprintf_r+0x240>)
 8006806:	429d      	cmp	r5, r3
 8006808:	d11b      	bne.n	8006842 <_vfiprintf_r+0x56>
 800680a:	6875      	ldr	r5, [r6, #4]
 800680c:	6e6b      	ldr	r3, [r5, #100]	; 0x64
 800680e:	07d9      	lsls	r1, r3, #31
 8006810:	d405      	bmi.n	800681e <_vfiprintf_r+0x32>
 8006812:	89ab      	ldrh	r3, [r5, #12]
 8006814:	059a      	lsls	r2, r3, #22
 8006816:	d402      	bmi.n	800681e <_vfiprintf_r+0x32>
 8006818:	6da8      	ldr	r0, [r5, #88]	; 0x58
 800681a:	f000 fba5 	bl	8006f68 <__retarget_lock_acquire_recursive>
 800681e:	89ab      	ldrh	r3, [r5, #12]
 8006820:	071b      	lsls	r3, r3, #28
 8006822:	d501      	bpl.n	8006828 <_vfiprintf_r+0x3c>
 8006824:	692b      	ldr	r3, [r5, #16]
 8006826:	b9eb      	cbnz	r3, 8006864 <_vfiprintf_r+0x78>
 8006828:	4629      	mov	r1, r5
 800682a:	4630      	mov	r0, r6
 800682c:	f000 f96e 	bl	8006b0c <__swsetup_r>
 8006830:	b1c0      	cbz	r0, 8006864 <_vfiprintf_r+0x78>
 8006832:	6e6b      	ldr	r3, [r5, #100]	; 0x64
 8006834:	07dc      	lsls	r4, r3, #31
 8006836:	d50e      	bpl.n	8006856 <_vfiprintf_r+0x6a>
 8006838:	f04f 30ff 	mov.w	r0, #4294967295
 800683c:	b01d      	add	sp, #116	; 0x74
 800683e:	e8bd 8ff0 	ldmia.w	sp!, {r4, r5, r6, r7, r8, r9, sl, fp, pc}
 8006842:	4b7b      	ldr	r3, [pc, #492]	; (8006a30 <_vfiprintf_r+0x244>)
 8006844:	429d      	cmp	r5, r3
 8006846:	d101      	bne.n	800684c <_vfiprintf_r+0x60>
 8006848:	68b5      	ldr	r5, [r6, #8]
 800684a:	e7df      	b.n	800680c <_vfiprintf_r+0x20>
 800684c:	4b79      	ldr	r3, [pc, #484]	; (8006a34 <_vfiprintf_r+0x248>)
 800684e:	429d      	cmp	r5, r3
 8006850:	bf08      	it	eq
 8006852:	68f5      	ldreq	r5, [r6, #12]
 8006854:	e7da      	b.n	800680c <_vfiprintf_r+0x20>
 8006856:	89ab      	ldrh	r3, [r5, #12]
 8006858:	0598      	lsls	r0, r3, #22
 800685a:	d4ed      	bmi.n	8006838 <_vfiprintf_r+0x4c>
 800685c:	6da8      	ldr	r0, [r5, #88]	; 0x58
 800685e:	f000 fb84 	bl	8006f6a <__retarget_lock_release_recursive>
 8006862:	e7e9      	b.n	8006838 <_vfiprintf_r+0x4c>
 8006864:	2300      	movs	r3, #0
 8006866:	9309      	str	r3, [sp, #36]	; 0x24
 8006868:	2320      	movs	r3, #32
 800686a:	f88d 3029 	strb.w	r3, [sp, #41]	; 0x29
 800686e:	f8cd 800c 	str.w	r8, [sp, #12]
 8006872:	2330      	movs	r3, #48	; 0x30
 8006874:	f8df 81c0 	ldr.w	r8, [pc, #448]	; 8006a38 <_vfiprintf_r+0x24c>
 8006878:	f88d 302a 	strb.w	r3, [sp, #42]	; 0x2a
 800687c:	f04f 0901 	mov.w	r9, #1
 8006880:	4623      	mov	r3, r4
 8006882:	469a      	mov	sl, r3
 8006884:	f813 2b01 	ldrb.w	r2, [r3], #1
 8006888:	b10a      	cbz	r2, 800688e <_vfiprintf_r+0xa2>
 800688a:	2a25      	cmp	r2, #37	; 0x25
 800688c:	d1f9      	bne.n	8006882 <_vfiprintf_r+0x96>
 800688e:	ebba 0b04 	subs.w	fp, sl, r4
 8006892:	d00b      	beq.n	80068ac <_vfiprintf_r+0xc0>
 8006894:	465b      	mov	r3, fp
 8006896:	4622      	mov	r2, r4
 8006898:	4629      	mov	r1, r5
 800689a:	4630      	mov	r0, r6
 800689c:	f7ff ff93 	bl	80067c6 <__sfputs_r>
 80068a0:	3001      	adds	r0, #1
 80068a2:	f000 80aa 	beq.w	80069fa <_vfiprintf_r+0x20e>
 80068a6:	9a09      	ldr	r2, [sp, #36]	; 0x24
 80068a8:	445a      	add	r2, fp
 80068aa:	9209      	str	r2, [sp, #36]	; 0x24
 80068ac:	f89a 3000 	ldrb.w	r3, [sl]
 80068b0:	2b00      	cmp	r3, #0
 80068b2:	f000 80a2 	beq.w	80069fa <_vfiprintf_r+0x20e>
 80068b6:	2300      	movs	r3, #0
 80068b8:	f04f 32ff 	mov.w	r2, #4294967295
 80068bc:	e9cd 2305 	strd	r2, r3, [sp, #20]
 80068c0:	f10a 0a01 	add.w	sl, sl, #1
 80068c4:	9304      	str	r3, [sp, #16]
 80068c6:	9307      	str	r3, [sp, #28]
 80068c8:	f88d 3053 	strb.w	r3, [sp, #83]	; 0x53
 80068cc:	931a      	str	r3, [sp, #104]	; 0x68
 80068ce:	4654      	mov	r4, sl
 80068d0:	2205      	movs	r2, #5
 80068d2:	f814 1b01 	ldrb.w	r1, [r4], #1
 80068d6:	4858      	ldr	r0, [pc, #352]	; (8006a38 <_vfiprintf_r+0x24c>)
 80068d8:	f7f9 fca2 	bl	8000220 <memchr>
 80068dc:	9a04      	ldr	r2, [sp, #16]
 80068de:	b9d8      	cbnz	r0, 8006918 <_vfiprintf_r+0x12c>
 80068e0:	06d1      	lsls	r1, r2, #27
 80068e2:	bf44      	itt	mi
 80068e4:	2320      	movmi	r3, #32
 80068e6:	f88d 3053 	strbmi.w	r3, [sp, #83]	; 0x53
 80068ea:	0713      	lsls	r3, r2, #28
 80068ec:	bf44      	itt	mi
 80068ee:	232b      	movmi	r3, #43	; 0x2b
 80068f0:	f88d 3053 	strbmi.w	r3, [sp, #83]	; 0x53
 80068f4:	f89a 3000 	ldrb.w	r3, [sl]
 80068f8:	2b2a      	cmp	r3, #42	; 0x2a
 80068fa:	d015      	beq.n	8006928 <_vfiprintf_r+0x13c>
 80068fc:	9a07      	ldr	r2, [sp, #28]
 80068fe:	4654      	mov	r4, sl
 8006900:	2000      	movs	r0, #0
 8006902:	f04f 0c0a 	mov.w	ip, #10
 8006906:	4621      	mov	r1, r4
 8006908:	f811 3b01 	ldrb.w	r3, [r1], #1
 800690c:	3b30      	subs	r3, #48	; 0x30
 800690e:	2b09      	cmp	r3, #9
 8006910:	d94e      	bls.n	80069b0 <_vfiprintf_r+0x1c4>
 8006912:	b1b0      	cbz	r0, 8006942 <_vfiprintf_r+0x156>
 8006914:	9207      	str	r2, [sp, #28]
 8006916:	e014      	b.n	8006942 <_vfiprintf_r+0x156>
 8006918:	eba0 0308 	sub.w	r3, r0, r8
 800691c:	fa09 f303 	lsl.w	r3, r9, r3
 8006920:	4313      	orrs	r3, r2
 8006922:	9304      	str	r3, [sp, #16]
 8006924:	46a2      	mov	sl, r4
 8006926:	e7d2      	b.n	80068ce <_vfiprintf_r+0xe2>
 8006928:	9b03      	ldr	r3, [sp, #12]
 800692a:	1d19      	adds	r1, r3, #4
 800692c:	681b      	ldr	r3, [r3, #0]
 800692e:	9103      	str	r1, [sp, #12]
 8006930:	2b00      	cmp	r3, #0
 8006932:	bfbb      	ittet	lt
 8006934:	425b      	neglt	r3, r3
 8006936:	f042 0202 	orrlt.w	r2, r2, #2
 800693a:	9307      	strge	r3, [sp, #28]
 800693c:	9307      	strlt	r3, [sp, #28]
 800693e:	bfb8      	it	lt
 8006940:	9204      	strlt	r2, [sp, #16]
 8006942:	7823      	ldrb	r3, [r4, #0]
 8006944:	2b2e      	cmp	r3, #46	; 0x2e
 8006946:	d10c      	bne.n	8006962 <_vfiprintf_r+0x176>
 8006948:	7863      	ldrb	r3, [r4, #1]
 800694a:	2b2a      	cmp	r3, #42	; 0x2a
 800694c:	d135      	bne.n	80069ba <_vfiprintf_r+0x1ce>
 800694e:	9b03      	ldr	r3, [sp, #12]
 8006950:	1d1a      	adds	r2, r3, #4
 8006952:	681b      	ldr	r3, [r3, #0]
 8006954:	9203      	str	r2, [sp, #12]
 8006956:	2b00      	cmp	r3, #0
 8006958:	bfb8      	it	lt
 800695a:	f04f 33ff 	movlt.w	r3, #4294967295
 800695e:	3402      	adds	r4, #2
 8006960:	9305      	str	r3, [sp, #20]
 8006962:	f8df a0e4 	ldr.w	sl, [pc, #228]	; 8006a48 <_vfiprintf_r+0x25c>
 8006966:	7821      	ldrb	r1, [r4, #0]
 8006968:	2203      	movs	r2, #3
 800696a:	4650      	mov	r0, sl
 800696c:	f7f9 fc58 	bl	8000220 <memchr>
 8006970:	b140      	cbz	r0, 8006984 <_vfiprintf_r+0x198>
 8006972:	2340      	movs	r3, #64	; 0x40
 8006974:	eba0 000a 	sub.w	r0, r0, sl
 8006978:	fa03 f000 	lsl.w	r0, r3, r0
 800697c:	9b04      	ldr	r3, [sp, #16]
 800697e:	4303      	orrs	r3, r0
 8006980:	3401      	adds	r4, #1
 8006982:	9304      	str	r3, [sp, #16]
 8006984:	f814 1b01 	ldrb.w	r1, [r4], #1
 8006988:	482c      	ldr	r0, [pc, #176]	; (8006a3c <_vfiprintf_r+0x250>)
 800698a:	f88d 1028 	strb.w	r1, [sp, #40]	; 0x28
 800698e:	2206      	movs	r2, #6
 8006990:	f7f9 fc46 	bl	8000220 <memchr>
 8006994:	2800      	cmp	r0, #0
 8006996:	d03f      	beq.n	8006a18 <_vfiprintf_r+0x22c>
 8006998:	4b29      	ldr	r3, [pc, #164]	; (8006a40 <_vfiprintf_r+0x254>)
 800699a:	bb1b      	cbnz	r3, 80069e4 <_vfiprintf_r+0x1f8>
 800699c:	9b03      	ldr	r3, [sp, #12]
 800699e:	3307      	adds	r3, #7
 80069a0:	f023 0307 	bic.w	r3, r3, #7
 80069a4:	3308      	adds	r3, #8
 80069a6:	9303      	str	r3, [sp, #12]
 80069a8:	9b09      	ldr	r3, [sp, #36]	; 0x24
 80069aa:	443b      	add	r3, r7
 80069ac:	9309      	str	r3, [sp, #36]	; 0x24
 80069ae:	e767      	b.n	8006880 <_vfiprintf_r+0x94>
 80069b0:	fb0c 3202 	mla	r2, ip, r2, r3
 80069b4:	460c      	mov	r4, r1
 80069b6:	2001      	movs	r0, #1
 80069b8:	e7a5      	b.n	8006906 <_vfiprintf_r+0x11a>
 80069ba:	2300      	movs	r3, #0
 80069bc:	3401      	adds	r4, #1
 80069be:	9305      	str	r3, [sp, #20]
 80069c0:	4619      	mov	r1, r3
 80069c2:	f04f 0c0a 	mov.w	ip, #10
 80069c6:	4620      	mov	r0, r4
 80069c8:	f810 2b01 	ldrb.w	r2, [r0], #1
 80069cc:	3a30      	subs	r2, #48	; 0x30
 80069ce:	2a09      	cmp	r2, #9
 80069d0:	d903      	bls.n	80069da <_vfiprintf_r+0x1ee>
 80069d2:	2b00      	cmp	r3, #0
 80069d4:	d0c5      	beq.n	8006962 <_vfiprintf_r+0x176>
 80069d6:	9105      	str	r1, [sp, #20]
 80069d8:	e7c3      	b.n	8006962 <_vfiprintf_r+0x176>
 80069da:	fb0c 2101 	mla	r1, ip, r1, r2
 80069de:	4604      	mov	r4, r0
 80069e0:	2301      	movs	r3, #1
 80069e2:	e7f0      	b.n	80069c6 <_vfiprintf_r+0x1da>
 80069e4:	ab03      	add	r3, sp, #12
 80069e6:	9300      	str	r3, [sp, #0]
 80069e8:	462a      	mov	r2, r5
 80069ea:	4b16      	ldr	r3, [pc, #88]	; (8006a44 <_vfiprintf_r+0x258>)
 80069ec:	a904      	add	r1, sp, #16
 80069ee:	4630      	mov	r0, r6
 80069f0:	f7fd fe24 	bl	800463c <_printf_float>
 80069f4:	4607      	mov	r7, r0
 80069f6:	1c78      	adds	r0, r7, #1
 80069f8:	d1d6      	bne.n	80069a8 <_vfiprintf_r+0x1bc>
 80069fa:	6e6b      	ldr	r3, [r5, #100]	; 0x64
 80069fc:	07d9      	lsls	r1, r3, #31
 80069fe:	d405      	bmi.n	8006a0c <_vfiprintf_r+0x220>
 8006a00:	89ab      	ldrh	r3, [r5, #12]
 8006a02:	059a      	lsls	r2, r3, #22
 8006a04:	d402      	bmi.n	8006a0c <_vfiprintf_r+0x220>
 8006a06:	6da8      	ldr	r0, [r5, #88]	; 0x58
 8006a08:	f000 faaf 	bl	8006f6a <__retarget_lock_release_recursive>
 8006a0c:	89ab      	ldrh	r3, [r5, #12]
 8006a0e:	065b      	lsls	r3, r3, #25
 8006a10:	f53f af12 	bmi.w	8006838 <_vfiprintf_r+0x4c>
 8006a14:	9809      	ldr	r0, [sp, #36]	; 0x24
 8006a16:	e711      	b.n	800683c <_vfiprintf_r+0x50>
 8006a18:	ab03      	add	r3, sp, #12
 8006a1a:	9300      	str	r3, [sp, #0]
 8006a1c:	462a      	mov	r2, r5
 8006a1e:	4b09      	ldr	r3, [pc, #36]	; (8006a44 <_vfiprintf_r+0x258>)
 8006a20:	a904      	add	r1, sp, #16
 8006a22:	4630      	mov	r0, r6
 8006a24:	f7fe f8ae 	bl	8004b84 <_printf_i>
 8006a28:	e7e4      	b.n	80069f4 <_vfiprintf_r+0x208>
 8006a2a:	bf00      	nop
 8006a2c:	08007604 	.word	0x08007604
 8006a30:	08007624 	.word	0x08007624
 8006a34:	080075e4 	.word	0x080075e4
 8006a38:	0800748c 	.word	0x0800748c
 8006a3c:	08007496 	.word	0x08007496
 8006a40:	0800463d 	.word	0x0800463d
 8006a44:	080067c7 	.word	0x080067c7
 8006a48:	08007492 	.word	0x08007492

08006a4c <__swbuf_r>:
 8006a4c:	b5f8      	push	{r3, r4, r5, r6, r7, lr}
 8006a4e:	460e      	mov	r6, r1
 8006a50:	4614      	mov	r4, r2
 8006a52:	4605      	mov	r5, r0
 8006a54:	b118      	cbz	r0, 8006a5e <__swbuf_r+0x12>
 8006a56:	6983      	ldr	r3, [r0, #24]
 8006a58:	b90b      	cbnz	r3, 8006a5e <__swbuf_r+0x12>
 8006a5a:	f000 f9e7 	bl	8006e2c <__sinit>
 8006a5e:	4b21      	ldr	r3, [pc, #132]	; (8006ae4 <__swbuf_r+0x98>)
 8006a60:	429c      	cmp	r4, r3
 8006a62:	d12b      	bne.n	8006abc <__swbuf_r+0x70>
 8006a64:	686c      	ldr	r4, [r5, #4]
 8006a66:	69a3      	ldr	r3, [r4, #24]
 8006a68:	60a3      	str	r3, [r4, #8]
 8006a6a:	89a3      	ldrh	r3, [r4, #12]
 8006a6c:	071a      	lsls	r2, r3, #28
 8006a6e:	d52f      	bpl.n	8006ad0 <__swbuf_r+0x84>
 8006a70:	6923      	ldr	r3, [r4, #16]
 8006a72:	b36b      	cbz	r3, 8006ad0 <__swbuf_r+0x84>
 8006a74:	6923      	ldr	r3, [r4, #16]
 8006a76:	6820      	ldr	r0, [r4, #0]
 8006a78:	1ac0      	subs	r0, r0, r3
 8006a7a:	6963      	ldr	r3, [r4, #20]
 8006a7c:	b2f6      	uxtb	r6, r6
 8006a7e:	4283      	cmp	r3, r0
 8006a80:	4637      	mov	r7, r6
 8006a82:	dc04      	bgt.n	8006a8e <__swbuf_r+0x42>
 8006a84:	4621      	mov	r1, r4
 8006a86:	4628      	mov	r0, r5
 8006a88:	f000 f93c 	bl	8006d04 <_fflush_r>
 8006a8c:	bb30      	cbnz	r0, 8006adc <__swbuf_r+0x90>
 8006a8e:	68a3      	ldr	r3, [r4, #8]
 8006a90:	3b01      	subs	r3, #1
 8006a92:	60a3      	str	r3, [r4, #8]
 8006a94:	6823      	ldr	r3, [r4, #0]
 8006a96:	1c5a      	adds	r2, r3, #1
 8006a98:	6022      	str	r2, [r4, #0]
 8006a9a:	701e      	strb	r6, [r3, #0]
 8006a9c:	6963      	ldr	r3, [r4, #20]
 8006a9e:	3001      	adds	r0, #1
 8006aa0:	4283      	cmp	r3, r0
 8006aa2:	d004      	beq.n	8006aae <__swbuf_r+0x62>
 8006aa4:	89a3      	ldrh	r3, [r4, #12]
 8006aa6:	07db      	lsls	r3, r3, #31
 8006aa8:	d506      	bpl.n	8006ab8 <__swbuf_r+0x6c>
 8006aaa:	2e0a      	cmp	r6, #10
 8006aac:	d104      	bne.n	8006ab8 <__swbuf_r+0x6c>
 8006aae:	4621      	mov	r1, r4
 8006ab0:	4628      	mov	r0, r5
 8006ab2:	f000 f927 	bl	8006d04 <_fflush_r>
 8006ab6:	b988      	cbnz	r0, 8006adc <__swbuf_r+0x90>
 8006ab8:	4638      	mov	r0, r7
 8006aba:	bdf8      	pop	{r3, r4, r5, r6, r7, pc}
 8006abc:	4b0a      	ldr	r3, [pc, #40]	; (8006ae8 <__swbuf_r+0x9c>)
 8006abe:	429c      	cmp	r4, r3
 8006ac0:	d101      	bne.n	8006ac6 <__swbuf_r+0x7a>
 8006ac2:	68ac      	ldr	r4, [r5, #8]
 8006ac4:	e7cf      	b.n	8006a66 <__swbuf_r+0x1a>
 8006ac6:	4b09      	ldr	r3, [pc, #36]	; (8006aec <__swbuf_r+0xa0>)
 8006ac8:	429c      	cmp	r4, r3
 8006aca:	bf08      	it	eq
 8006acc:	68ec      	ldreq	r4, [r5, #12]
 8006ace:	e7ca      	b.n	8006a66 <__swbuf_r+0x1a>
 8006ad0:	4621      	mov	r1, r4
 8006ad2:	4628      	mov	r0, r5
 8006ad4:	f000 f81a 	bl	8006b0c <__swsetup_r>
 8006ad8:	2800      	cmp	r0, #0
 8006ada:	d0cb      	beq.n	8006a74 <__swbuf_r+0x28>
 8006adc:	f04f 37ff 	mov.w	r7, #4294967295
 8006ae0:	e7ea      	b.n	8006ab8 <__swbuf_r+0x6c>
 8006ae2:	bf00      	nop
 8006ae4:	08007604 	.word	0x08007604
 8006ae8:	08007624 	.word	0x08007624
 8006aec:	080075e4 	.word	0x080075e4

08006af0 <__ascii_wctomb>:
 8006af0:	b149      	cbz	r1, 8006b06 <__ascii_wctomb+0x16>
 8006af2:	2aff      	cmp	r2, #255	; 0xff
 8006af4:	bf85      	ittet	hi
 8006af6:	238a      	movhi	r3, #138	; 0x8a
 8006af8:	6003      	strhi	r3, [r0, #0]
 8006afa:	700a      	strbls	r2, [r1, #0]
 8006afc:	f04f 30ff 	movhi.w	r0, #4294967295
 8006b00:	bf98      	it	ls
 8006b02:	2001      	movls	r0, #1
 8006b04:	4770      	bx	lr
 8006b06:	4608      	mov	r0, r1
 8006b08:	4770      	bx	lr
	...

08006b0c <__swsetup_r>:
 8006b0c:	4b32      	ldr	r3, [pc, #200]	; (8006bd8 <__swsetup_r+0xcc>)
 8006b0e:	b570      	push	{r4, r5, r6, lr}
 8006b10:	681d      	ldr	r5, [r3, #0]
 8006b12:	4606      	mov	r6, r0
 8006b14:	460c      	mov	r4, r1
 8006b16:	b125      	cbz	r5, 8006b22 <__swsetup_r+0x16>
 8006b18:	69ab      	ldr	r3, [r5, #24]
 8006b1a:	b913      	cbnz	r3, 8006b22 <__swsetup_r+0x16>
 8006b1c:	4628      	mov	r0, r5
 8006b1e:	f000 f985 	bl	8006e2c <__sinit>
 8006b22:	4b2e      	ldr	r3, [pc, #184]	; (8006bdc <__swsetup_r+0xd0>)
 8006b24:	429c      	cmp	r4, r3
 8006b26:	d10f      	bne.n	8006b48 <__swsetup_r+0x3c>
 8006b28:	686c      	ldr	r4, [r5, #4]
 8006b2a:	89a3      	ldrh	r3, [r4, #12]
 8006b2c:	f9b4 200c 	ldrsh.w	r2, [r4, #12]
 8006b30:	0719      	lsls	r1, r3, #28
 8006b32:	d42c      	bmi.n	8006b8e <__swsetup_r+0x82>
 8006b34:	06dd      	lsls	r5, r3, #27
 8006b36:	d411      	bmi.n	8006b5c <__swsetup_r+0x50>
 8006b38:	2309      	movs	r3, #9
 8006b3a:	6033      	str	r3, [r6, #0]
 8006b3c:	f042 0340 	orr.w	r3, r2, #64	; 0x40
 8006b40:	81a3      	strh	r3, [r4, #12]
 8006b42:	f04f 30ff 	mov.w	r0, #4294967295
 8006b46:	e03e      	b.n	8006bc6 <__swsetup_r+0xba>
 8006b48:	4b25      	ldr	r3, [pc, #148]	; (8006be0 <__swsetup_r+0xd4>)
 8006b4a:	429c      	cmp	r4, r3
 8006b4c:	d101      	bne.n	8006b52 <__swsetup_r+0x46>
 8006b4e:	68ac      	ldr	r4, [r5, #8]
 8006b50:	e7eb      	b.n	8006b2a <__swsetup_r+0x1e>
 8006b52:	4b24      	ldr	r3, [pc, #144]	; (8006be4 <__swsetup_r+0xd8>)
 8006b54:	429c      	cmp	r4, r3
 8006b56:	bf08      	it	eq
 8006b58:	68ec      	ldreq	r4, [r5, #12]
 8006b5a:	e7e6      	b.n	8006b2a <__swsetup_r+0x1e>
 8006b5c:	0758      	lsls	r0, r3, #29
 8006b5e:	d512      	bpl.n	8006b86 <__swsetup_r+0x7a>
 8006b60:	6b61      	ldr	r1, [r4, #52]	; 0x34
 8006b62:	b141      	cbz	r1, 8006b76 <__swsetup_r+0x6a>
 8006b64:	f104 0344 	add.w	r3, r4, #68	; 0x44
 8006b68:	4299      	cmp	r1, r3
 8006b6a:	d002      	beq.n	8006b72 <__swsetup_r+0x66>
 8006b6c:	4630      	mov	r0, r6
 8006b6e:	f7ff fb6f 	bl	8006250 <_free_r>
 8006b72:	2300      	movs	r3, #0
 8006b74:	6363      	str	r3, [r4, #52]	; 0x34
 8006b76:	89a3      	ldrh	r3, [r4, #12]
 8006b78:	f023 0324 	bic.w	r3, r3, #36	; 0x24
 8006b7c:	81a3      	strh	r3, [r4, #12]
 8006b7e:	2300      	movs	r3, #0
 8006b80:	6063      	str	r3, [r4, #4]
 8006b82:	6923      	ldr	r3, [r4, #16]
 8006b84:	6023      	str	r3, [r4, #0]
 8006b86:	89a3      	ldrh	r3, [r4, #12]
 8006b88:	f043 0308 	orr.w	r3, r3, #8
 8006b8c:	81a3      	strh	r3, [r4, #12]
 8006b8e:	6923      	ldr	r3, [r4, #16]
 8006b90:	b94b      	cbnz	r3, 8006ba6 <__swsetup_r+0x9a>
 8006b92:	89a3      	ldrh	r3, [r4, #12]
 8006b94:	f403 7320 	and.w	r3, r3, #640	; 0x280
 8006b98:	f5b3 7f00 	cmp.w	r3, #512	; 0x200
 8006b9c:	d003      	beq.n	8006ba6 <__swsetup_r+0x9a>
 8006b9e:	4621      	mov	r1, r4
 8006ba0:	4630      	mov	r0, r6
 8006ba2:	f000 fa07 	bl	8006fb4 <__smakebuf_r>
 8006ba6:	89a0      	ldrh	r0, [r4, #12]
 8006ba8:	f9b4 200c 	ldrsh.w	r2, [r4, #12]
 8006bac:	f010 0301 	ands.w	r3, r0, #1
 8006bb0:	d00a      	beq.n	8006bc8 <__swsetup_r+0xbc>
 8006bb2:	2300      	movs	r3, #0
 8006bb4:	60a3      	str	r3, [r4, #8]
 8006bb6:	6963      	ldr	r3, [r4, #20]
 8006bb8:	425b      	negs	r3, r3
 8006bba:	61a3      	str	r3, [r4, #24]
 8006bbc:	6923      	ldr	r3, [r4, #16]
 8006bbe:	b943      	cbnz	r3, 8006bd2 <__swsetup_r+0xc6>
 8006bc0:	f010 0080 	ands.w	r0, r0, #128	; 0x80
 8006bc4:	d1ba      	bne.n	8006b3c <__swsetup_r+0x30>
 8006bc6:	bd70      	pop	{r4, r5, r6, pc}
 8006bc8:	0781      	lsls	r1, r0, #30
 8006bca:	bf58      	it	pl
 8006bcc:	6963      	ldrpl	r3, [r4, #20]
 8006bce:	60a3      	str	r3, [r4, #8]
 8006bd0:	e7f4      	b.n	8006bbc <__swsetup_r+0xb0>
 8006bd2:	2000      	movs	r0, #0
 8006bd4:	e7f7      	b.n	8006bc6 <__swsetup_r+0xba>
 8006bd6:	bf00      	nop
 8006bd8:	2000000c 	.word	0x2000000c
 8006bdc:	08007604 	.word	0x08007604
 8006be0:	08007624 	.word	0x08007624
 8006be4:	080075e4 	.word	0x080075e4

08006be8 <abort>:
 8006be8:	b508      	push	{r3, lr}
 8006bea:	2006      	movs	r0, #6
 8006bec:	f000 fa52 	bl	8007094 <raise>
 8006bf0:	2001      	movs	r0, #1
 8006bf2:	f7fa fed3 	bl	800199c <_exit>
	...

08006bf8 <__sflush_r>:
 8006bf8:	898a      	ldrh	r2, [r1, #12]
 8006bfa:	e92d 41f0 	stmdb	sp!, {r4, r5, r6, r7, r8, lr}
 8006bfe:	4605      	mov	r5, r0
 8006c00:	0710      	lsls	r0, r2, #28
 8006c02:	460c      	mov	r4, r1
 8006c04:	d458      	bmi.n	8006cb8 <__sflush_r+0xc0>
 8006c06:	684b      	ldr	r3, [r1, #4]
 8006c08:	2b00      	cmp	r3, #0
 8006c0a:	dc05      	bgt.n	8006c18 <__sflush_r+0x20>
 8006c0c:	6c0b      	ldr	r3, [r1, #64]	; 0x40
 8006c0e:	2b00      	cmp	r3, #0
 8006c10:	dc02      	bgt.n	8006c18 <__sflush_r+0x20>
 8006c12:	2000      	movs	r0, #0
 8006c14:	e8bd 81f0 	ldmia.w	sp!, {r4, r5, r6, r7, r8, pc}
 8006c18:	6ae6      	ldr	r6, [r4, #44]	; 0x2c
 8006c1a:	2e00      	cmp	r6, #0
 8006c1c:	d0f9      	beq.n	8006c12 <__sflush_r+0x1a>
 8006c1e:	2300      	movs	r3, #0
 8006c20:	f412 5280 	ands.w	r2, r2, #4096	; 0x1000
 8006c24:	682f      	ldr	r7, [r5, #0]
 8006c26:	602b      	str	r3, [r5, #0]
 8006c28:	d032      	beq.n	8006c90 <__sflush_r+0x98>
 8006c2a:	6d60      	ldr	r0, [r4, #84]	; 0x54
 8006c2c:	89a3      	ldrh	r3, [r4, #12]
 8006c2e:	075a      	lsls	r2, r3, #29
 8006c30:	d505      	bpl.n	8006c3e <__sflush_r+0x46>
 8006c32:	6863      	ldr	r3, [r4, #4]
 8006c34:	1ac0      	subs	r0, r0, r3
 8006c36:	6b63      	ldr	r3, [r4, #52]	; 0x34
 8006c38:	b10b      	cbz	r3, 8006c3e <__sflush_r+0x46>
 8006c3a:	6c23      	ldr	r3, [r4, #64]	; 0x40
 8006c3c:	1ac0      	subs	r0, r0, r3
 8006c3e:	2300      	movs	r3, #0
 8006c40:	4602      	mov	r2, r0
 8006c42:	6ae6      	ldr	r6, [r4, #44]	; 0x2c
 8006c44:	6a21      	ldr	r1, [r4, #32]
 8006c46:	4628      	mov	r0, r5
 8006c48:	47b0      	blx	r6
 8006c4a:	1c43      	adds	r3, r0, #1
 8006c4c:	89a3      	ldrh	r3, [r4, #12]
 8006c4e:	d106      	bne.n	8006c5e <__sflush_r+0x66>
 8006c50:	6829      	ldr	r1, [r5, #0]
 8006c52:	291d      	cmp	r1, #29
 8006c54:	d82c      	bhi.n	8006cb0 <__sflush_r+0xb8>
 8006c56:	4a2a      	ldr	r2, [pc, #168]	; (8006d00 <__sflush_r+0x108>)
 8006c58:	40ca      	lsrs	r2, r1
 8006c5a:	07d6      	lsls	r6, r2, #31
 8006c5c:	d528      	bpl.n	8006cb0 <__sflush_r+0xb8>
 8006c5e:	2200      	movs	r2, #0
 8006c60:	6062      	str	r2, [r4, #4]
 8006c62:	04d9      	lsls	r1, r3, #19
 8006c64:	6922      	ldr	r2, [r4, #16]
 8006c66:	6022      	str	r2, [r4, #0]
 8006c68:	d504      	bpl.n	8006c74 <__sflush_r+0x7c>
 8006c6a:	1c42      	adds	r2, r0, #1
 8006c6c:	d101      	bne.n	8006c72 <__sflush_r+0x7a>
 8006c6e:	682b      	ldr	r3, [r5, #0]
 8006c70:	b903      	cbnz	r3, 8006c74 <__sflush_r+0x7c>
 8006c72:	6560      	str	r0, [r4, #84]	; 0x54
 8006c74:	6b61      	ldr	r1, [r4, #52]	; 0x34
 8006c76:	602f      	str	r7, [r5, #0]
 8006c78:	2900      	cmp	r1, #0
 8006c7a:	d0ca      	beq.n	8006c12 <__sflush_r+0x1a>
 8006c7c:	f104 0344 	add.w	r3, r4, #68	; 0x44
 8006c80:	4299      	cmp	r1, r3
 8006c82:	d002      	beq.n	8006c8a <__sflush_r+0x92>
 8006c84:	4628      	mov	r0, r5
 8006c86:	f7ff fae3 	bl	8006250 <_free_r>
 8006c8a:	2000      	movs	r0, #0
 8006c8c:	6360      	str	r0, [r4, #52]	; 0x34
 8006c8e:	e7c1      	b.n	8006c14 <__sflush_r+0x1c>
 8006c90:	6a21      	ldr	r1, [r4, #32]
 8006c92:	2301      	movs	r3, #1
 8006c94:	4628      	mov	r0, r5
 8006c96:	47b0      	blx	r6
 8006c98:	1c41      	adds	r1, r0, #1
 8006c9a:	d1c7      	bne.n	8006c2c <__sflush_r+0x34>
 8006c9c:	682b      	ldr	r3, [r5, #0]
 8006c9e:	2b00      	cmp	r3, #0
 8006ca0:	d0c4      	beq.n	8006c2c <__sflush_r+0x34>
 8006ca2:	2b1d      	cmp	r3, #29
 8006ca4:	d001      	beq.n	8006caa <__sflush_r+0xb2>
 8006ca6:	2b16      	cmp	r3, #22
 8006ca8:	d101      	bne.n	8006cae <__sflush_r+0xb6>
 8006caa:	602f      	str	r7, [r5, #0]
 8006cac:	e7b1      	b.n	8006c12 <__sflush_r+0x1a>
 8006cae:	89a3      	ldrh	r3, [r4, #12]
 8006cb0:	f043 0340 	orr.w	r3, r3, #64	; 0x40
 8006cb4:	81a3      	strh	r3, [r4, #12]
 8006cb6:	e7ad      	b.n	8006c14 <__sflush_r+0x1c>
 8006cb8:	690f      	ldr	r7, [r1, #16]
 8006cba:	2f00      	cmp	r7, #0
 8006cbc:	d0a9      	beq.n	8006c12 <__sflush_r+0x1a>
 8006cbe:	0793      	lsls	r3, r2, #30
 8006cc0:	680e      	ldr	r6, [r1, #0]
 8006cc2:	bf08      	it	eq
 8006cc4:	694b      	ldreq	r3, [r1, #20]
 8006cc6:	600f      	str	r7, [r1, #0]
 8006cc8:	bf18      	it	ne
 8006cca:	2300      	movne	r3, #0
 8006ccc:	eba6 0807 	sub.w	r8, r6, r7
 8006cd0:	608b      	str	r3, [r1, #8]
 8006cd2:	f1b8 0f00 	cmp.w	r8, #0
 8006cd6:	dd9c      	ble.n	8006c12 <__sflush_r+0x1a>
 8006cd8:	6a21      	ldr	r1, [r4, #32]
 8006cda:	6aa6      	ldr	r6, [r4, #40]	; 0x28
 8006cdc:	4643      	mov	r3, r8
 8006cde:	463a      	mov	r2, r7
 8006ce0:	4628      	mov	r0, r5
 8006ce2:	47b0      	blx	r6
 8006ce4:	2800      	cmp	r0, #0
 8006ce6:	dc06      	bgt.n	8006cf6 <__sflush_r+0xfe>
 8006ce8:	89a3      	ldrh	r3, [r4, #12]
 8006cea:	f043 0340 	orr.w	r3, r3, #64	; 0x40
 8006cee:	81a3      	strh	r3, [r4, #12]
 8006cf0:	f04f 30ff 	mov.w	r0, #4294967295
 8006cf4:	e78e      	b.n	8006c14 <__sflush_r+0x1c>
 8006cf6:	4407      	add	r7, r0
 8006cf8:	eba8 0800 	sub.w	r8, r8, r0
 8006cfc:	e7e9      	b.n	8006cd2 <__sflush_r+0xda>
 8006cfe:	bf00      	nop
 8006d00:	20400001 	.word	0x20400001

08006d04 <_fflush_r>:
 8006d04:	b538      	push	{r3, r4, r5, lr}
 8006d06:	690b      	ldr	r3, [r1, #16]
 8006d08:	4605      	mov	r5, r0
 8006d0a:	460c      	mov	r4, r1
 8006d0c:	b913      	cbnz	r3, 8006d14 <_fflush_r+0x10>
 8006d0e:	2500      	movs	r5, #0
 8006d10:	4628      	mov	r0, r5
 8006d12:	bd38      	pop	{r3, r4, r5, pc}
 8006d14:	b118      	cbz	r0, 8006d1e <_fflush_r+0x1a>
 8006d16:	6983      	ldr	r3, [r0, #24]
 8006d18:	b90b      	cbnz	r3, 8006d1e <_fflush_r+0x1a>
 8006d1a:	f000 f887 	bl	8006e2c <__sinit>
 8006d1e:	4b14      	ldr	r3, [pc, #80]	; (8006d70 <_fflush_r+0x6c>)
 8006d20:	429c      	cmp	r4, r3
 8006d22:	d11b      	bne.n	8006d5c <_fflush_r+0x58>
 8006d24:	686c      	ldr	r4, [r5, #4]
 8006d26:	f9b4 300c 	ldrsh.w	r3, [r4, #12]
 8006d2a:	2b00      	cmp	r3, #0
 8006d2c:	d0ef      	beq.n	8006d0e <_fflush_r+0xa>
 8006d2e:	6e62      	ldr	r2, [r4, #100]	; 0x64
 8006d30:	07d0      	lsls	r0, r2, #31
 8006d32:	d404      	bmi.n	8006d3e <_fflush_r+0x3a>
 8006d34:	0599      	lsls	r1, r3, #22
 8006d36:	d402      	bmi.n	8006d3e <_fflush_r+0x3a>
 8006d38:	6da0      	ldr	r0, [r4, #88]	; 0x58
 8006d3a:	f000 f915 	bl	8006f68 <__retarget_lock_acquire_recursive>
 8006d3e:	4628      	mov	r0, r5
 8006d40:	4621      	mov	r1, r4
 8006d42:	f7ff ff59 	bl	8006bf8 <__sflush_r>
 8006d46:	6e63      	ldr	r3, [r4, #100]	; 0x64
 8006d48:	07da      	lsls	r2, r3, #31
 8006d4a:	4605      	mov	r5, r0
 8006d4c:	d4e0      	bmi.n	8006d10 <_fflush_r+0xc>
 8006d4e:	89a3      	ldrh	r3, [r4, #12]
 8006d50:	059b      	lsls	r3, r3, #22
 8006d52:	d4dd      	bmi.n	8006d10 <_fflush_r+0xc>
 8006d54:	6da0      	ldr	r0, [r4, #88]	; 0x58
 8006d56:	f000 f908 	bl	8006f6a <__retarget_lock_release_recursive>
 8006d5a:	e7d9      	b.n	8006d10 <_fflush_r+0xc>
 8006d5c:	4b05      	ldr	r3, [pc, #20]	; (8006d74 <_fflush_r+0x70>)
 8006d5e:	429c      	cmp	r4, r3
 8006d60:	d101      	bne.n	8006d66 <_fflush_r+0x62>
 8006d62:	68ac      	ldr	r4, [r5, #8]
 8006d64:	e7df      	b.n	8006d26 <_fflush_r+0x22>
 8006d66:	4b04      	ldr	r3, [pc, #16]	; (8006d78 <_fflush_r+0x74>)
 8006d68:	429c      	cmp	r4, r3
 8006d6a:	bf08      	it	eq
 8006d6c:	68ec      	ldreq	r4, [r5, #12]
 8006d6e:	e7da      	b.n	8006d26 <_fflush_r+0x22>
 8006d70:	08007604 	.word	0x08007604
 8006d74:	08007624 	.word	0x08007624
 8006d78:	080075e4 	.word	0x080075e4

08006d7c <std>:
 8006d7c:	2300      	movs	r3, #0
 8006d7e:	b510      	push	{r4, lr}
 8006d80:	4604      	mov	r4, r0
 8006d82:	e9c0 3300 	strd	r3, r3, [r0]
 8006d86:	e9c0 3304 	strd	r3, r3, [r0, #16]
 8006d8a:	6083      	str	r3, [r0, #8]
 8006d8c:	8181      	strh	r1, [r0, #12]
 8006d8e:	6643      	str	r3, [r0, #100]	; 0x64
 8006d90:	81c2      	strh	r2, [r0, #14]
 8006d92:	6183      	str	r3, [r0, #24]
 8006d94:	4619      	mov	r1, r3
 8006d96:	2208      	movs	r2, #8
 8006d98:	305c      	adds	r0, #92	; 0x5c
 8006d9a:	f7fd fba7 	bl	80044ec <memset>
 8006d9e:	4b05      	ldr	r3, [pc, #20]	; (8006db4 <std+0x38>)
 8006da0:	6263      	str	r3, [r4, #36]	; 0x24
 8006da2:	4b05      	ldr	r3, [pc, #20]	; (8006db8 <std+0x3c>)
 8006da4:	62a3      	str	r3, [r4, #40]	; 0x28
 8006da6:	4b05      	ldr	r3, [pc, #20]	; (8006dbc <std+0x40>)
 8006da8:	62e3      	str	r3, [r4, #44]	; 0x2c
 8006daa:	4b05      	ldr	r3, [pc, #20]	; (8006dc0 <std+0x44>)
 8006dac:	6224      	str	r4, [r4, #32]
 8006dae:	6323      	str	r3, [r4, #48]	; 0x30
 8006db0:	bd10      	pop	{r4, pc}
 8006db2:	bf00      	nop
 8006db4:	080070cd 	.word	0x080070cd
 8006db8:	080070ef 	.word	0x080070ef
 8006dbc:	08007127 	.word	0x08007127
 8006dc0:	0800714b 	.word	0x0800714b

08006dc4 <_cleanup_r>:
 8006dc4:	4901      	ldr	r1, [pc, #4]	; (8006dcc <_cleanup_r+0x8>)
 8006dc6:	f000 b8af 	b.w	8006f28 <_fwalk_reent>
 8006dca:	bf00      	nop
 8006dcc:	08006d05 	.word	0x08006d05

08006dd0 <__sfmoreglue>:
 8006dd0:	b570      	push	{r4, r5, r6, lr}
 8006dd2:	1e4a      	subs	r2, r1, #1
 8006dd4:	2568      	movs	r5, #104	; 0x68
 8006dd6:	4355      	muls	r5, r2
 8006dd8:	460e      	mov	r6, r1
 8006dda:	f105 0174 	add.w	r1, r5, #116	; 0x74
 8006dde:	f7ff fa87 	bl	80062f0 <_malloc_r>
 8006de2:	4604      	mov	r4, r0
 8006de4:	b140      	cbz	r0, 8006df8 <__sfmoreglue+0x28>
 8006de6:	2100      	movs	r1, #0
 8006de8:	e9c0 1600 	strd	r1, r6, [r0]
 8006dec:	300c      	adds	r0, #12
 8006dee:	60a0      	str	r0, [r4, #8]
 8006df0:	f105 0268 	add.w	r2, r5, #104	; 0x68
 8006df4:	f7fd fb7a 	bl	80044ec <memset>
 8006df8:	4620      	mov	r0, r4
 8006dfa:	bd70      	pop	{r4, r5, r6, pc}

08006dfc <__sfp_lock_acquire>:
 8006dfc:	4801      	ldr	r0, [pc, #4]	; (8006e04 <__sfp_lock_acquire+0x8>)
 8006dfe:	f000 b8b3 	b.w	8006f68 <__retarget_lock_acquire_recursive>
 8006e02:	bf00      	nop
 8006e04:	20013be8 	.word	0x20013be8

08006e08 <__sfp_lock_release>:
 8006e08:	4801      	ldr	r0, [pc, #4]	; (8006e10 <__sfp_lock_release+0x8>)
 8006e0a:	f000 b8ae 	b.w	8006f6a <__retarget_lock_release_recursive>
 8006e0e:	bf00      	nop
 8006e10:	20013be8 	.word	0x20013be8

08006e14 <__sinit_lock_acquire>:
 8006e14:	4801      	ldr	r0, [pc, #4]	; (8006e1c <__sinit_lock_acquire+0x8>)
 8006e16:	f000 b8a7 	b.w	8006f68 <__retarget_lock_acquire_recursive>
 8006e1a:	bf00      	nop
 8006e1c:	20013be3 	.word	0x20013be3

08006e20 <__sinit_lock_release>:
 8006e20:	4801      	ldr	r0, [pc, #4]	; (8006e28 <__sinit_lock_release+0x8>)
 8006e22:	f000 b8a2 	b.w	8006f6a <__retarget_lock_release_recursive>
 8006e26:	bf00      	nop
 8006e28:	20013be3 	.word	0x20013be3

08006e2c <__sinit>:
 8006e2c:	b510      	push	{r4, lr}
 8006e2e:	4604      	mov	r4, r0
 8006e30:	f7ff fff0 	bl	8006e14 <__sinit_lock_acquire>
 8006e34:	69a3      	ldr	r3, [r4, #24]
 8006e36:	b11b      	cbz	r3, 8006e40 <__sinit+0x14>
 8006e38:	e8bd 4010 	ldmia.w	sp!, {r4, lr}
 8006e3c:	f7ff bff0 	b.w	8006e20 <__sinit_lock_release>
 8006e40:	e9c4 3312 	strd	r3, r3, [r4, #72]	; 0x48
 8006e44:	6523      	str	r3, [r4, #80]	; 0x50
 8006e46:	4b13      	ldr	r3, [pc, #76]	; (8006e94 <__sinit+0x68>)
 8006e48:	4a13      	ldr	r2, [pc, #76]	; (8006e98 <__sinit+0x6c>)
 8006e4a:	681b      	ldr	r3, [r3, #0]
 8006e4c:	62a2      	str	r2, [r4, #40]	; 0x28
 8006e4e:	42a3      	cmp	r3, r4
 8006e50:	bf04      	itt	eq
 8006e52:	2301      	moveq	r3, #1
 8006e54:	61a3      	streq	r3, [r4, #24]
 8006e56:	4620      	mov	r0, r4
 8006e58:	f000 f820 	bl	8006e9c <__sfp>
 8006e5c:	6060      	str	r0, [r4, #4]
 8006e5e:	4620      	mov	r0, r4
 8006e60:	f000 f81c 	bl	8006e9c <__sfp>
 8006e64:	60a0      	str	r0, [r4, #8]
 8006e66:	4620      	mov	r0, r4
 8006e68:	f000 f818 	bl	8006e9c <__sfp>
 8006e6c:	2200      	movs	r2, #0
 8006e6e:	60e0      	str	r0, [r4, #12]
 8006e70:	2104      	movs	r1, #4
 8006e72:	6860      	ldr	r0, [r4, #4]
 8006e74:	f7ff ff82 	bl	8006d7c <std>
 8006e78:	68a0      	ldr	r0, [r4, #8]
 8006e7a:	2201      	movs	r2, #1
 8006e7c:	2109      	movs	r1, #9
 8006e7e:	f7ff ff7d 	bl	8006d7c <std>
 8006e82:	68e0      	ldr	r0, [r4, #12]
 8006e84:	2202      	movs	r2, #2
 8006e86:	2112      	movs	r1, #18
 8006e88:	f7ff ff78 	bl	8006d7c <std>
 8006e8c:	2301      	movs	r3, #1
 8006e8e:	61a3      	str	r3, [r4, #24]
 8006e90:	e7d2      	b.n	8006e38 <__sinit+0xc>
 8006e92:	bf00      	nop
 8006e94:	08007264 	.word	0x08007264
 8006e98:	08006dc5 	.word	0x08006dc5

08006e9c <__sfp>:
 8006e9c:	b5f8      	push	{r3, r4, r5, r6, r7, lr}
 8006e9e:	4607      	mov	r7, r0
 8006ea0:	f7ff ffac 	bl	8006dfc <__sfp_lock_acquire>
 8006ea4:	4b1e      	ldr	r3, [pc, #120]	; (8006f20 <__sfp+0x84>)
 8006ea6:	681e      	ldr	r6, [r3, #0]
 8006ea8:	69b3      	ldr	r3, [r6, #24]
 8006eaa:	b913      	cbnz	r3, 8006eb2 <__sfp+0x16>
 8006eac:	4630      	mov	r0, r6
 8006eae:	f7ff ffbd 	bl	8006e2c <__sinit>
 8006eb2:	3648      	adds	r6, #72	; 0x48
 8006eb4:	e9d6 3401 	ldrd	r3, r4, [r6, #4]
 8006eb8:	3b01      	subs	r3, #1
 8006eba:	d503      	bpl.n	8006ec4 <__sfp+0x28>
 8006ebc:	6833      	ldr	r3, [r6, #0]
 8006ebe:	b30b      	cbz	r3, 8006f04 <__sfp+0x68>
 8006ec0:	6836      	ldr	r6, [r6, #0]
 8006ec2:	e7f7      	b.n	8006eb4 <__sfp+0x18>
 8006ec4:	f9b4 500c 	ldrsh.w	r5, [r4, #12]
 8006ec8:	b9d5      	cbnz	r5, 8006f00 <__sfp+0x64>
 8006eca:	4b16      	ldr	r3, [pc, #88]	; (8006f24 <__sfp+0x88>)
 8006ecc:	60e3      	str	r3, [r4, #12]
 8006ece:	f104 0058 	add.w	r0, r4, #88	; 0x58
 8006ed2:	6665      	str	r5, [r4, #100]	; 0x64
 8006ed4:	f000 f847 	bl	8006f66 <__retarget_lock_init_recursive>
 8006ed8:	f7ff ff96 	bl	8006e08 <__sfp_lock_release>
 8006edc:	e9c4 5501 	strd	r5, r5, [r4, #4]
 8006ee0:	e9c4 5504 	strd	r5, r5, [r4, #16]
 8006ee4:	6025      	str	r5, [r4, #0]
 8006ee6:	61a5      	str	r5, [r4, #24]
 8006ee8:	2208      	movs	r2, #8
 8006eea:	4629      	mov	r1, r5
 8006eec:	f104 005c 	add.w	r0, r4, #92	; 0x5c
 8006ef0:	f7fd fafc 	bl	80044ec <memset>
 8006ef4:	e9c4 550d 	strd	r5, r5, [r4, #52]	; 0x34
 8006ef8:	e9c4 5512 	strd	r5, r5, [r4, #72]	; 0x48
 8006efc:	4620      	mov	r0, r4
 8006efe:	bdf8      	pop	{r3, r4, r5, r6, r7, pc}
 8006f00:	3468      	adds	r4, #104	; 0x68
 8006f02:	e7d9      	b.n	8006eb8 <__sfp+0x1c>
 8006f04:	2104      	movs	r1, #4
 8006f06:	4638      	mov	r0, r7
 8006f08:	f7ff ff62 	bl	8006dd0 <__sfmoreglue>
 8006f0c:	4604      	mov	r4, r0
 8006f0e:	6030      	str	r0, [r6, #0]
 8006f10:	2800      	cmp	r0, #0
 8006f12:	d1d5      	bne.n	8006ec0 <__sfp+0x24>
 8006f14:	f7ff ff78 	bl	8006e08 <__sfp_lock_release>
 8006f18:	230c      	movs	r3, #12
 8006f1a:	603b      	str	r3, [r7, #0]
 8006f1c:	e7ee      	b.n	8006efc <__sfp+0x60>
 8006f1e:	bf00      	nop
 8006f20:	08007264 	.word	0x08007264
 8006f24:	ffff0001 	.word	0xffff0001

08006f28 <_fwalk_reent>:
 8006f28:	e92d 43f8 	stmdb	sp!, {r3, r4, r5, r6, r7, r8, r9, lr}
 8006f2c:	4606      	mov	r6, r0
 8006f2e:	4688      	mov	r8, r1
 8006f30:	f100 0448 	add.w	r4, r0, #72	; 0x48
 8006f34:	2700      	movs	r7, #0
 8006f36:	e9d4 9501 	ldrd	r9, r5, [r4, #4]
 8006f3a:	f1b9 0901 	subs.w	r9, r9, #1
 8006f3e:	d505      	bpl.n	8006f4c <_fwalk_reent+0x24>
 8006f40:	6824      	ldr	r4, [r4, #0]
 8006f42:	2c00      	cmp	r4, #0
 8006f44:	d1f7      	bne.n	8006f36 <_fwalk_reent+0xe>
 8006f46:	4638      	mov	r0, r7
 8006f48:	e8bd 83f8 	ldmia.w	sp!, {r3, r4, r5, r6, r7, r8, r9, pc}
 8006f4c:	89ab      	ldrh	r3, [r5, #12]
 8006f4e:	2b01      	cmp	r3, #1
 8006f50:	d907      	bls.n	8006f62 <_fwalk_reent+0x3a>
 8006f52:	f9b5 300e 	ldrsh.w	r3, [r5, #14]
 8006f56:	3301      	adds	r3, #1
 8006f58:	d003      	beq.n	8006f62 <_fwalk_reent+0x3a>
 8006f5a:	4629      	mov	r1, r5
 8006f5c:	4630      	mov	r0, r6
 8006f5e:	47c0      	blx	r8
 8006f60:	4307      	orrs	r7, r0
 8006f62:	3568      	adds	r5, #104	; 0x68
 8006f64:	e7e9      	b.n	8006f3a <_fwalk_reent+0x12>

08006f66 <__retarget_lock_init_recursive>:
 8006f66:	4770      	bx	lr

08006f68 <__retarget_lock_acquire_recursive>:
 8006f68:	4770      	bx	lr

08006f6a <__retarget_lock_release_recursive>:
 8006f6a:	4770      	bx	lr

08006f6c <__swhatbuf_r>:
 8006f6c:	b570      	push	{r4, r5, r6, lr}
 8006f6e:	460e      	mov	r6, r1
 8006f70:	f9b1 100e 	ldrsh.w	r1, [r1, #14]
 8006f74:	2900      	cmp	r1, #0
 8006f76:	b096      	sub	sp, #88	; 0x58
 8006f78:	4614      	mov	r4, r2
 8006f7a:	461d      	mov	r5, r3
 8006f7c:	da07      	bge.n	8006f8e <__swhatbuf_r+0x22>
 8006f7e:	2300      	movs	r3, #0
 8006f80:	602b      	str	r3, [r5, #0]
 8006f82:	89b3      	ldrh	r3, [r6, #12]
 8006f84:	061a      	lsls	r2, r3, #24
 8006f86:	d410      	bmi.n	8006faa <__swhatbuf_r+0x3e>
 8006f88:	f44f 6380 	mov.w	r3, #1024	; 0x400
 8006f8c:	e00e      	b.n	8006fac <__swhatbuf_r+0x40>
 8006f8e:	466a      	mov	r2, sp
 8006f90:	f000 f902 	bl	8007198 <_fstat_r>
 8006f94:	2800      	cmp	r0, #0
 8006f96:	dbf2      	blt.n	8006f7e <__swhatbuf_r+0x12>
 8006f98:	9a01      	ldr	r2, [sp, #4]
 8006f9a:	f402 4270 	and.w	r2, r2, #61440	; 0xf000
 8006f9e:	f5a2 5300 	sub.w	r3, r2, #8192	; 0x2000
 8006fa2:	425a      	negs	r2, r3
 8006fa4:	415a      	adcs	r2, r3
 8006fa6:	602a      	str	r2, [r5, #0]
 8006fa8:	e7ee      	b.n	8006f88 <__swhatbuf_r+0x1c>
 8006faa:	2340      	movs	r3, #64	; 0x40
 8006fac:	2000      	movs	r0, #0
 8006fae:	6023      	str	r3, [r4, #0]
 8006fb0:	b016      	add	sp, #88	; 0x58
 8006fb2:	bd70      	pop	{r4, r5, r6, pc}

08006fb4 <__smakebuf_r>:
 8006fb4:	898b      	ldrh	r3, [r1, #12]
 8006fb6:	b573      	push	{r0, r1, r4, r5, r6, lr}
 8006fb8:	079d      	lsls	r5, r3, #30
 8006fba:	4606      	mov	r6, r0
 8006fbc:	460c      	mov	r4, r1
 8006fbe:	d507      	bpl.n	8006fd0 <__smakebuf_r+0x1c>
 8006fc0:	f104 0347 	add.w	r3, r4, #71	; 0x47
 8006fc4:	6023      	str	r3, [r4, #0]
 8006fc6:	6123      	str	r3, [r4, #16]
 8006fc8:	2301      	movs	r3, #1
 8006fca:	6163      	str	r3, [r4, #20]
 8006fcc:	b002      	add	sp, #8
 8006fce:	bd70      	pop	{r4, r5, r6, pc}
 8006fd0:	ab01      	add	r3, sp, #4
 8006fd2:	466a      	mov	r2, sp
 8006fd4:	f7ff ffca 	bl	8006f6c <__swhatbuf_r>
 8006fd8:	9900      	ldr	r1, [sp, #0]
 8006fda:	4605      	mov	r5, r0
 8006fdc:	4630      	mov	r0, r6
 8006fde:	f7ff f987 	bl	80062f0 <_malloc_r>
 8006fe2:	b948      	cbnz	r0, 8006ff8 <__smakebuf_r+0x44>
 8006fe4:	f9b4 300c 	ldrsh.w	r3, [r4, #12]
 8006fe8:	059a      	lsls	r2, r3, #22
 8006fea:	d4ef      	bmi.n	8006fcc <__smakebuf_r+0x18>
 8006fec:	f023 0303 	bic.w	r3, r3, #3
 8006ff0:	f043 0302 	orr.w	r3, r3, #2
 8006ff4:	81a3      	strh	r3, [r4, #12]
 8006ff6:	e7e3      	b.n	8006fc0 <__smakebuf_r+0xc>
 8006ff8:	4b0d      	ldr	r3, [pc, #52]	; (8007030 <__smakebuf_r+0x7c>)
 8006ffa:	62b3      	str	r3, [r6, #40]	; 0x28
 8006ffc:	89a3      	ldrh	r3, [r4, #12]
 8006ffe:	6020      	str	r0, [r4, #0]
 8007000:	f043 0380 	orr.w	r3, r3, #128	; 0x80
 8007004:	81a3      	strh	r3, [r4, #12]
 8007006:	9b00      	ldr	r3, [sp, #0]
 8007008:	6163      	str	r3, [r4, #20]
 800700a:	9b01      	ldr	r3, [sp, #4]
 800700c:	6120      	str	r0, [r4, #16]
 800700e:	b15b      	cbz	r3, 8007028 <__smakebuf_r+0x74>
 8007010:	f9b4 100e 	ldrsh.w	r1, [r4, #14]
 8007014:	4630      	mov	r0, r6
 8007016:	f000 f8d1 	bl	80071bc <_isatty_r>
 800701a:	b128      	cbz	r0, 8007028 <__smakebuf_r+0x74>
 800701c:	89a3      	ldrh	r3, [r4, #12]
 800701e:	f023 0303 	bic.w	r3, r3, #3
 8007022:	f043 0301 	orr.w	r3, r3, #1
 8007026:	81a3      	strh	r3, [r4, #12]
 8007028:	89a0      	ldrh	r0, [r4, #12]
 800702a:	4305      	orrs	r5, r0
 800702c:	81a5      	strh	r5, [r4, #12]
 800702e:	e7cd      	b.n	8006fcc <__smakebuf_r+0x18>
 8007030:	08006dc5 	.word	0x08006dc5

08007034 <_malloc_usable_size_r>:
 8007034:	f851 3c04 	ldr.w	r3, [r1, #-4]
 8007038:	1f18      	subs	r0, r3, #4
 800703a:	2b00      	cmp	r3, #0
 800703c:	bfbc      	itt	lt
 800703e:	580b      	ldrlt	r3, [r1, r0]
 8007040:	18c0      	addlt	r0, r0, r3
 8007042:	4770      	bx	lr

08007044 <_raise_r>:
 8007044:	291f      	cmp	r1, #31
 8007046:	b538      	push	{r3, r4, r5, lr}
 8007048:	4604      	mov	r4, r0
 800704a:	460d      	mov	r5, r1
 800704c:	d904      	bls.n	8007058 <_raise_r+0x14>
 800704e:	2316      	movs	r3, #22
 8007050:	6003      	str	r3, [r0, #0]
 8007052:	f04f 30ff 	mov.w	r0, #4294967295
 8007056:	bd38      	pop	{r3, r4, r5, pc}
 8007058:	6c42      	ldr	r2, [r0, #68]	; 0x44
 800705a:	b112      	cbz	r2, 8007062 <_raise_r+0x1e>
 800705c:	f852 3021 	ldr.w	r3, [r2, r1, lsl #2]
 8007060:	b94b      	cbnz	r3, 8007076 <_raise_r+0x32>
 8007062:	4620      	mov	r0, r4
 8007064:	f000 f830 	bl	80070c8 <_getpid_r>
 8007068:	462a      	mov	r2, r5
 800706a:	4601      	mov	r1, r0
 800706c:	4620      	mov	r0, r4
 800706e:	e8bd 4038 	ldmia.w	sp!, {r3, r4, r5, lr}
 8007072:	f000 b817 	b.w	80070a4 <_kill_r>
 8007076:	2b01      	cmp	r3, #1
 8007078:	d00a      	beq.n	8007090 <_raise_r+0x4c>
 800707a:	1c59      	adds	r1, r3, #1
 800707c:	d103      	bne.n	8007086 <_raise_r+0x42>
 800707e:	2316      	movs	r3, #22
 8007080:	6003      	str	r3, [r0, #0]
 8007082:	2001      	movs	r0, #1
 8007084:	e7e7      	b.n	8007056 <_raise_r+0x12>
 8007086:	2400      	movs	r4, #0
 8007088:	f842 4025 	str.w	r4, [r2, r5, lsl #2]
 800708c:	4628      	mov	r0, r5
 800708e:	4798      	blx	r3
 8007090:	2000      	movs	r0, #0
 8007092:	e7e0      	b.n	8007056 <_raise_r+0x12>

08007094 <raise>:
 8007094:	4b02      	ldr	r3, [pc, #8]	; (80070a0 <raise+0xc>)
 8007096:	4601      	mov	r1, r0
 8007098:	6818      	ldr	r0, [r3, #0]
 800709a:	f7ff bfd3 	b.w	8007044 <_raise_r>
 800709e:	bf00      	nop
 80070a0:	2000000c 	.word	0x2000000c

080070a4 <_kill_r>:
 80070a4:	b538      	push	{r3, r4, r5, lr}
 80070a6:	4d07      	ldr	r5, [pc, #28]	; (80070c4 <_kill_r+0x20>)
 80070a8:	2300      	movs	r3, #0
 80070aa:	4604      	mov	r4, r0
 80070ac:	4608      	mov	r0, r1
 80070ae:	4611      	mov	r1, r2
 80070b0:	602b      	str	r3, [r5, #0]
 80070b2:	f7fa fc63 	bl	800197c <_kill>
 80070b6:	1c43      	adds	r3, r0, #1
 80070b8:	d102      	bne.n	80070c0 <_kill_r+0x1c>
 80070ba:	682b      	ldr	r3, [r5, #0]
 80070bc:	b103      	cbz	r3, 80070c0 <_kill_r+0x1c>
 80070be:	6023      	str	r3, [r4, #0]
 80070c0:	bd38      	pop	{r3, r4, r5, pc}
 80070c2:	bf00      	nop
 80070c4:	20013bdc 	.word	0x20013bdc

080070c8 <_getpid_r>:
 80070c8:	f7fa bc50 	b.w	800196c <_getpid>

080070cc <__sread>:
 80070cc:	b510      	push	{r4, lr}
 80070ce:	460c      	mov	r4, r1
 80070d0:	f9b1 100e 	ldrsh.w	r1, [r1, #14]
 80070d4:	f000 f894 	bl	8007200 <_read_r>
 80070d8:	2800      	cmp	r0, #0
 80070da:	bfab      	itete	ge
 80070dc:	6d63      	ldrge	r3, [r4, #84]	; 0x54
 80070de:	89a3      	ldrhlt	r3, [r4, #12]
 80070e0:	181b      	addge	r3, r3, r0
 80070e2:	f423 5380 	biclt.w	r3, r3, #4096	; 0x1000
 80070e6:	bfac      	ite	ge
 80070e8:	6563      	strge	r3, [r4, #84]	; 0x54
 80070ea:	81a3      	strhlt	r3, [r4, #12]
 80070ec:	bd10      	pop	{r4, pc}

080070ee <__swrite>:
 80070ee:	e92d 41f0 	stmdb	sp!, {r4, r5, r6, r7, r8, lr}
 80070f2:	461f      	mov	r7, r3
 80070f4:	898b      	ldrh	r3, [r1, #12]
 80070f6:	05db      	lsls	r3, r3, #23
 80070f8:	4605      	mov	r5, r0
 80070fa:	460c      	mov	r4, r1
 80070fc:	4616      	mov	r6, r2
 80070fe:	d505      	bpl.n	800710c <__swrite+0x1e>
 8007100:	f9b1 100e 	ldrsh.w	r1, [r1, #14]
 8007104:	2302      	movs	r3, #2
 8007106:	2200      	movs	r2, #0
 8007108:	f000 f868 	bl	80071dc <_lseek_r>
 800710c:	89a3      	ldrh	r3, [r4, #12]
 800710e:	f9b4 100e 	ldrsh.w	r1, [r4, #14]
 8007112:	f423 5380 	bic.w	r3, r3, #4096	; 0x1000
 8007116:	81a3      	strh	r3, [r4, #12]
 8007118:	4632      	mov	r2, r6
 800711a:	463b      	mov	r3, r7
 800711c:	4628      	mov	r0, r5
 800711e:	e8bd 41f0 	ldmia.w	sp!, {r4, r5, r6, r7, r8, lr}
 8007122:	f000 b817 	b.w	8007154 <_write_r>

08007126 <__sseek>:
 8007126:	b510      	push	{r4, lr}
 8007128:	460c      	mov	r4, r1
 800712a:	f9b1 100e 	ldrsh.w	r1, [r1, #14]
 800712e:	f000 f855 	bl	80071dc <_lseek_r>
 8007132:	1c43      	adds	r3, r0, #1
 8007134:	89a3      	ldrh	r3, [r4, #12]
 8007136:	bf15      	itete	ne
 8007138:	6560      	strne	r0, [r4, #84]	; 0x54
 800713a:	f423 5380 	biceq.w	r3, r3, #4096	; 0x1000
 800713e:	f443 5380 	orrne.w	r3, r3, #4096	; 0x1000
 8007142:	81a3      	strheq	r3, [r4, #12]
 8007144:	bf18      	it	ne
 8007146:	81a3      	strhne	r3, [r4, #12]
 8007148:	bd10      	pop	{r4, pc}

0800714a <__sclose>:
 800714a:	f9b1 100e 	ldrsh.w	r1, [r1, #14]
 800714e:	f000 b813 	b.w	8007178 <_close_r>
	...

08007154 <_write_r>:
 8007154:	b538      	push	{r3, r4, r5, lr}
 8007156:	4d07      	ldr	r5, [pc, #28]	; (8007174 <_write_r+0x20>)
 8007158:	4604      	mov	r4, r0
 800715a:	4608      	mov	r0, r1
 800715c:	4611      	mov	r1, r2
 800715e:	2200      	movs	r2, #0
 8007160:	602a      	str	r2, [r5, #0]
 8007162:	461a      	mov	r2, r3
 8007164:	f7fa fc41 	bl	80019ea <_write>
 8007168:	1c43      	adds	r3, r0, #1
 800716a:	d102      	bne.n	8007172 <_write_r+0x1e>
 800716c:	682b      	ldr	r3, [r5, #0]
 800716e:	b103      	cbz	r3, 8007172 <_write_r+0x1e>
 8007170:	6023      	str	r3, [r4, #0]
 8007172:	bd38      	pop	{r3, r4, r5, pc}
 8007174:	20013bdc 	.word	0x20013bdc

08007178 <_close_r>:
 8007178:	b538      	push	{r3, r4, r5, lr}
 800717a:	4d06      	ldr	r5, [pc, #24]	; (8007194 <_close_r+0x1c>)
 800717c:	2300      	movs	r3, #0
 800717e:	4604      	mov	r4, r0
 8007180:	4608      	mov	r0, r1
 8007182:	602b      	str	r3, [r5, #0]
 8007184:	f7fa fc4d 	bl	8001a22 <_close>
 8007188:	1c43      	adds	r3, r0, #1
 800718a:	d102      	bne.n	8007192 <_close_r+0x1a>
 800718c:	682b      	ldr	r3, [r5, #0]
 800718e:	b103      	cbz	r3, 8007192 <_close_r+0x1a>
 8007190:	6023      	str	r3, [r4, #0]
 8007192:	bd38      	pop	{r3, r4, r5, pc}
 8007194:	20013bdc 	.word	0x20013bdc

08007198 <_fstat_r>:
 8007198:	b538      	push	{r3, r4, r5, lr}
 800719a:	4d07      	ldr	r5, [pc, #28]	; (80071b8 <_fstat_r+0x20>)
 800719c:	2300      	movs	r3, #0
 800719e:	4604      	mov	r4, r0
 80071a0:	4608      	mov	r0, r1
 80071a2:	4611      	mov	r1, r2
 80071a4:	602b      	str	r3, [r5, #0]
 80071a6:	f7fa fc48 	bl	8001a3a <_fstat>
 80071aa:	1c43      	adds	r3, r0, #1
 80071ac:	d102      	bne.n	80071b4 <_fstat_r+0x1c>
 80071ae:	682b      	ldr	r3, [r5, #0]
 80071b0:	b103      	cbz	r3, 80071b4 <_fstat_r+0x1c>
 80071b2:	6023      	str	r3, [r4, #0]
 80071b4:	bd38      	pop	{r3, r4, r5, pc}
 80071b6:	bf00      	nop
 80071b8:	20013bdc 	.word	0x20013bdc

080071bc <_isatty_r>:
 80071bc:	b538      	push	{r3, r4, r5, lr}
 80071be:	4d06      	ldr	r5, [pc, #24]	; (80071d8 <_isatty_r+0x1c>)
 80071c0:	2300      	movs	r3, #0
 80071c2:	4604      	mov	r4, r0
 80071c4:	4608      	mov	r0, r1
 80071c6:	602b      	str	r3, [r5, #0]
 80071c8:	f7fa fc47 	bl	8001a5a <_isatty>
 80071cc:	1c43      	adds	r3, r0, #1
 80071ce:	d102      	bne.n	80071d6 <_isatty_r+0x1a>
 80071d0:	682b      	ldr	r3, [r5, #0]
 80071d2:	b103      	cbz	r3, 80071d6 <_isatty_r+0x1a>
 80071d4:	6023      	str	r3, [r4, #0]
 80071d6:	bd38      	pop	{r3, r4, r5, pc}
 80071d8:	20013bdc 	.word	0x20013bdc

080071dc <_lseek_r>:
 80071dc:	b538      	push	{r3, r4, r5, lr}
 80071de:	4d07      	ldr	r5, [pc, #28]	; (80071fc <_lseek_r+0x20>)
 80071e0:	4604      	mov	r4, r0
 80071e2:	4608      	mov	r0, r1
 80071e4:	4611      	mov	r1, r2
 80071e6:	2200      	movs	r2, #0
 80071e8:	602a      	str	r2, [r5, #0]
 80071ea:	461a      	mov	r2, r3
 80071ec:	f7fa fc40 	bl	8001a70 <_lseek>
 80071f0:	1c43      	adds	r3, r0, #1
 80071f2:	d102      	bne.n	80071fa <_lseek_r+0x1e>
 80071f4:	682b      	ldr	r3, [r5, #0]
 80071f6:	b103      	cbz	r3, 80071fa <_lseek_r+0x1e>
 80071f8:	6023      	str	r3, [r4, #0]
 80071fa:	bd38      	pop	{r3, r4, r5, pc}
 80071fc:	20013bdc 	.word	0x20013bdc

08007200 <_read_r>:
 8007200:	b538      	push	{r3, r4, r5, lr}
 8007202:	4d07      	ldr	r5, [pc, #28]	; (8007220 <_read_r+0x20>)
 8007204:	4604      	mov	r4, r0
 8007206:	4608      	mov	r0, r1
 8007208:	4611      	mov	r1, r2
 800720a:	2200      	movs	r2, #0
 800720c:	602a      	str	r2, [r5, #0]
 800720e:	461a      	mov	r2, r3
 8007210:	f7fa fbce 	bl	80019b0 <_read>
 8007214:	1c43      	adds	r3, r0, #1
 8007216:	d102      	bne.n	800721e <_read_r+0x1e>
 8007218:	682b      	ldr	r3, [r5, #0]
 800721a:	b103      	cbz	r3, 800721e <_read_r+0x1e>
 800721c:	6023      	str	r3, [r4, #0]
 800721e:	bd38      	pop	{r3, r4, r5, pc}
 8007220:	20013bdc 	.word	0x20013bdc

08007224 <_init>:
 8007224:	b5f8      	push	{r3, r4, r5, r6, r7, lr}
 8007226:	bf00      	nop
 8007228:	bcf8      	pop	{r3, r4, r5, r6, r7}
 800722a:	bc08      	pop	{r3}
 800722c:	469e      	mov	lr, r3
 800722e:	4770      	bx	lr

08007230 <_fini>:
 8007230:	b5f8      	push	{r3, r4, r5, r6, r7, lr}
 8007232:	bf00      	nop
 8007234:	bcf8      	pop	{r3, r4, r5, r6, r7}
 8007236:	bc08      	pop	{r3}
 8007238:	469e      	mov	lr, r3
 800723a:	4770      	bx	lr
