
ADC_f446.elf:     file format elf32-littlearm

Sections:
Idx Name          Size      VMA       LMA       File off  Algn
  0 .isr_vector   000001c4  08000000  08000000  00010000  2**0
                  CONTENTS, ALLOC, LOAD, READONLY, DATA
  1 .text         00005950  080001d0  080001d0  000101d0  2**4
                  CONTENTS, ALLOC, LOAD, READONLY, CODE
  2 .rodata       00000280  08005b20  08005b20  00015b20  2**3
                  CONTENTS, ALLOC, LOAD, READONLY, DATA
  3 .ARM.extab    00000000  08005da0  08005da0  000201dc  2**0
                  CONTENTS
  4 .ARM          00000008  08005da0  08005da0  00015da0  2**2
                  CONTENTS, ALLOC, LOAD, READONLY, DATA
  5 .preinit_array 00000000  08005da8  08005da8  000201dc  2**0
                  CONTENTS, ALLOC, LOAD, DATA
  6 .init_array   00000004  08005da8  08005da8  00015da8  2**2
                  CONTENTS, ALLOC, LOAD, DATA
  7 .fini_array   00000004  08005dac  08005dac  00015dac  2**2
                  CONTENTS, ALLOC, LOAD, DATA
  8 .data         000001dc  20000000  08005db0  00020000  2**2
                  CONTENTS, ALLOC, LOAD, DATA
  9 .bss          000000b8  200001dc  08005f8c  000201dc  2**2
                  ALLOC
 10 ._user_heap_stack 00000604  20000294  08005f8c  00020294  2**0
                  ALLOC
 11 .ARM.attributes 00000030  00000000  00000000  000201dc  2**0
                  CONTENTS, READONLY
 12 .debug_info   00008783  00000000  00000000  0002020c  2**0
                  CONTENTS, READONLY, DEBUGGING
 13 .debug_abbrev 00001675  00000000  00000000  0002898f  2**0
                  CONTENTS, READONLY, DEBUGGING
 14 .debug_aranges 00000770  00000000  00000000  0002a008  2**3
                  CONTENTS, READONLY, DEBUGGING
 15 .debug_ranges 000006a8  00000000  00000000  0002a778  2**3
                  CONTENTS, READONLY, DEBUGGING
 16 .debug_macro  00021857  00000000  00000000  0002ae20  2**0
                  CONTENTS, READONLY, DEBUGGING
 17 .debug_line   000075e1  00000000  00000000  0004c677  2**0
                  CONTENTS, READONLY, DEBUGGING
 18 .debug_str    000ccac2  00000000  00000000  00053c58  2**0
                  CONTENTS, READONLY, DEBUGGING
 19 .comment      0000007b  00000000  00000000  0012071a  2**0
                  CONTENTS, READONLY
 20 .debug_frame  0000277c  00000000  00000000  00120798  2**2
                  CONTENTS, READONLY, DEBUGGING

Disassembly of section .text:

080001d0 <__do_global_dtors_aux>:
 80001d0:	b510      	push	{r4, lr}
 80001d2:	4c05      	ldr	r4, [pc, #20]	; (80001e8 <__do_global_dtors_aux+0x18>)
 80001d4:	7823      	ldrb	r3, [r4, #0]
 80001d6:	b933      	cbnz	r3, 80001e6 <__do_global_dtors_aux+0x16>
 80001d8:	4b04      	ldr	r3, [pc, #16]	; (80001ec <__do_global_dtors_aux+0x1c>)
 80001da:	b113      	cbz	r3, 80001e2 <__do_global_dtors_aux+0x12>
 80001dc:	4804      	ldr	r0, [pc, #16]	; (80001f0 <__do_global_dtors_aux+0x20>)
 80001de:	f3af 8000 	nop.w
 80001e2:	2301      	movs	r3, #1
 80001e4:	7023      	strb	r3, [r4, #0]
 80001e6:	bd10      	pop	{r4, pc}
 80001e8:	200001dc 	.word	0x200001dc
 80001ec:	00000000 	.word	0x00000000
 80001f0:	08005b08 	.word	0x08005b08

080001f4 <frame_dummy>:
 80001f4:	b508      	push	{r3, lr}
 80001f6:	4b03      	ldr	r3, [pc, #12]	; (8000204 <frame_dummy+0x10>)
 80001f8:	b11b      	cbz	r3, 8000202 <frame_dummy+0xe>
 80001fa:	4903      	ldr	r1, [pc, #12]	; (8000208 <frame_dummy+0x14>)
 80001fc:	4803      	ldr	r0, [pc, #12]	; (800020c <frame_dummy+0x18>)
 80001fe:	f3af 8000 	nop.w
 8000202:	bd08      	pop	{r3, pc}
 8000204:	00000000 	.word	0x00000000
 8000208:	200001e0 	.word	0x200001e0
 800020c:	08005b08 	.word	0x08005b08

08000210 <strlen>:
 8000210:	4603      	mov	r3, r0
 8000212:	f813 2b01 	ldrb.w	r2, [r3], #1
 8000216:	2a00      	cmp	r2, #0
 8000218:	d1fb      	bne.n	8000212 <strlen+0x2>
 800021a:	1a18      	subs	r0, r3, r0
 800021c:	3801      	subs	r0, #1
 800021e:	4770      	bx	lr

08000220 <memchr>:
 8000220:	f001 01ff 	and.w	r1, r1, #255	; 0xff
 8000224:	2a10      	cmp	r2, #16
 8000226:	db2b      	blt.n	8000280 <memchr+0x60>
 8000228:	f010 0f07 	tst.w	r0, #7
 800022c:	d008      	beq.n	8000240 <memchr+0x20>
 800022e:	f810 3b01 	ldrb.w	r3, [r0], #1
 8000232:	3a01      	subs	r2, #1
 8000234:	428b      	cmp	r3, r1
 8000236:	d02d      	beq.n	8000294 <memchr+0x74>
 8000238:	f010 0f07 	tst.w	r0, #7
 800023c:	b342      	cbz	r2, 8000290 <memchr+0x70>
 800023e:	d1f6      	bne.n	800022e <memchr+0xe>
 8000240:	b4f0      	push	{r4, r5, r6, r7}
 8000242:	ea41 2101 	orr.w	r1, r1, r1, lsl #8
 8000246:	ea41 4101 	orr.w	r1, r1, r1, lsl #16
 800024a:	f022 0407 	bic.w	r4, r2, #7
 800024e:	f07f 0700 	mvns.w	r7, #0
 8000252:	2300      	movs	r3, #0
 8000254:	e8f0 5602 	ldrd	r5, r6, [r0], #8
 8000258:	3c08      	subs	r4, #8
 800025a:	ea85 0501 	eor.w	r5, r5, r1
 800025e:	ea86 0601 	eor.w	r6, r6, r1
 8000262:	fa85 f547 	uadd8	r5, r5, r7
 8000266:	faa3 f587 	sel	r5, r3, r7
 800026a:	fa86 f647 	uadd8	r6, r6, r7
 800026e:	faa5 f687 	sel	r6, r5, r7
 8000272:	b98e      	cbnz	r6, 8000298 <memchr+0x78>
 8000274:	d1ee      	bne.n	8000254 <memchr+0x34>
 8000276:	bcf0      	pop	{r4, r5, r6, r7}
 8000278:	f001 01ff 	and.w	r1, r1, #255	; 0xff
 800027c:	f002 0207 	and.w	r2, r2, #7
 8000280:	b132      	cbz	r2, 8000290 <memchr+0x70>
 8000282:	f810 3b01 	ldrb.w	r3, [r0], #1
 8000286:	3a01      	subs	r2, #1
 8000288:	ea83 0301 	eor.w	r3, r3, r1
 800028c:	b113      	cbz	r3, 8000294 <memchr+0x74>
 800028e:	d1f8      	bne.n	8000282 <memchr+0x62>
 8000290:	2000      	movs	r0, #0
 8000292:	4770      	bx	lr
 8000294:	3801      	subs	r0, #1
 8000296:	4770      	bx	lr
 8000298:	2d00      	cmp	r5, #0
 800029a:	bf06      	itte	eq
 800029c:	4635      	moveq	r5, r6
 800029e:	3803      	subeq	r0, #3
 80002a0:	3807      	subne	r0, #7
 80002a2:	f015 0f01 	tst.w	r5, #1
 80002a6:	d107      	bne.n	80002b8 <memchr+0x98>
 80002a8:	3001      	adds	r0, #1
 80002aa:	f415 7f80 	tst.w	r5, #256	; 0x100
 80002ae:	bf02      	ittt	eq
 80002b0:	3001      	addeq	r0, #1
 80002b2:	f415 3fc0 	tsteq.w	r5, #98304	; 0x18000
 80002b6:	3001      	addeq	r0, #1
 80002b8:	bcf0      	pop	{r4, r5, r6, r7}
 80002ba:	3801      	subs	r0, #1
 80002bc:	4770      	bx	lr
 80002be:	bf00      	nop

080002c0 <__aeabi_drsub>:
 80002c0:	f081 4100 	eor.w	r1, r1, #2147483648	; 0x80000000
 80002c4:	e002      	b.n	80002cc <__adddf3>
 80002c6:	bf00      	nop

080002c8 <__aeabi_dsub>:
 80002c8:	f083 4300 	eor.w	r3, r3, #2147483648	; 0x80000000

080002cc <__adddf3>:
 80002cc:	b530      	push	{r4, r5, lr}
 80002ce:	ea4f 0441 	mov.w	r4, r1, lsl #1
 80002d2:	ea4f 0543 	mov.w	r5, r3, lsl #1
 80002d6:	ea94 0f05 	teq	r4, r5
 80002da:	bf08      	it	eq
 80002dc:	ea90 0f02 	teqeq	r0, r2
 80002e0:	bf1f      	itttt	ne
 80002e2:	ea54 0c00 	orrsne.w	ip, r4, r0
 80002e6:	ea55 0c02 	orrsne.w	ip, r5, r2
 80002ea:	ea7f 5c64 	mvnsne.w	ip, r4, asr #21
 80002ee:	ea7f 5c65 	mvnsne.w	ip, r5, asr #21
 80002f2:	f000 80e2 	beq.w	80004ba <__adddf3+0x1ee>
 80002f6:	ea4f 5454 	mov.w	r4, r4, lsr #21
 80002fa:	ebd4 5555 	rsbs	r5, r4, r5, lsr #21
 80002fe:	bfb8      	it	lt
 8000300:	426d      	neglt	r5, r5
 8000302:	dd0c      	ble.n	800031e <__adddf3+0x52>
 8000304:	442c      	add	r4, r5
 8000306:	ea80 0202 	eor.w	r2, r0, r2
 800030a:	ea81 0303 	eor.w	r3, r1, r3
 800030e:	ea82 0000 	eor.w	r0, r2, r0
 8000312:	ea83 0101 	eor.w	r1, r3, r1
 8000316:	ea80 0202 	eor.w	r2, r0, r2
 800031a:	ea81 0303 	eor.w	r3, r1, r3
 800031e:	2d36      	cmp	r5, #54	; 0x36
 8000320:	bf88      	it	hi
 8000322:	bd30      	pophi	{r4, r5, pc}
 8000324:	f011 4f00 	tst.w	r1, #2147483648	; 0x80000000
 8000328:	ea4f 3101 	mov.w	r1, r1, lsl #12
 800032c:	f44f 1c80 	mov.w	ip, #1048576	; 0x100000
 8000330:	ea4c 3111 	orr.w	r1, ip, r1, lsr #12
 8000334:	d002      	beq.n	800033c <__adddf3+0x70>
 8000336:	4240      	negs	r0, r0
 8000338:	eb61 0141 	sbc.w	r1, r1, r1, lsl #1
 800033c:	f013 4f00 	tst.w	r3, #2147483648	; 0x80000000
 8000340:	ea4f 3303 	mov.w	r3, r3, lsl #12
 8000344:	ea4c 3313 	orr.w	r3, ip, r3, lsr #12
 8000348:	d002      	beq.n	8000350 <__adddf3+0x84>
 800034a:	4252      	negs	r2, r2
 800034c:	eb63 0343 	sbc.w	r3, r3, r3, lsl #1
 8000350:	ea94 0f05 	teq	r4, r5
 8000354:	f000 80a7 	beq.w	80004a6 <__adddf3+0x1da>
 8000358:	f1a4 0401 	sub.w	r4, r4, #1
 800035c:	f1d5 0e20 	rsbs	lr, r5, #32
 8000360:	db0d      	blt.n	800037e <__adddf3+0xb2>
 8000362:	fa02 fc0e 	lsl.w	ip, r2, lr
 8000366:	fa22 f205 	lsr.w	r2, r2, r5
 800036a:	1880      	adds	r0, r0, r2
 800036c:	f141 0100 	adc.w	r1, r1, #0
 8000370:	fa03 f20e 	lsl.w	r2, r3, lr
 8000374:	1880      	adds	r0, r0, r2
 8000376:	fa43 f305 	asr.w	r3, r3, r5
 800037a:	4159      	adcs	r1, r3
 800037c:	e00e      	b.n	800039c <__adddf3+0xd0>
 800037e:	f1a5 0520 	sub.w	r5, r5, #32
 8000382:	f10e 0e20 	add.w	lr, lr, #32
 8000386:	2a01      	cmp	r2, #1
 8000388:	fa03 fc0e 	lsl.w	ip, r3, lr
 800038c:	bf28      	it	cs
 800038e:	f04c 0c02 	orrcs.w	ip, ip, #2
 8000392:	fa43 f305 	asr.w	r3, r3, r5
 8000396:	18c0      	adds	r0, r0, r3
 8000398:	eb51 71e3 	adcs.w	r1, r1, r3, asr #31
 800039c:	f001 4500 	and.w	r5, r1, #2147483648	; 0x80000000
 80003a0:	d507      	bpl.n	80003b2 <__adddf3+0xe6>
 80003a2:	f04f 0e00 	mov.w	lr, #0
 80003a6:	f1dc 0c00 	rsbs	ip, ip, #0
 80003aa:	eb7e 0000 	sbcs.w	r0, lr, r0
 80003ae:	eb6e 0101 	sbc.w	r1, lr, r1
 80003b2:	f5b1 1f80 	cmp.w	r1, #1048576	; 0x100000
 80003b6:	d31b      	bcc.n	80003f0 <__adddf3+0x124>
 80003b8:	f5b1 1f00 	cmp.w	r1, #2097152	; 0x200000
 80003bc:	d30c      	bcc.n	80003d8 <__adddf3+0x10c>
 80003be:	0849      	lsrs	r1, r1, #1
 80003c0:	ea5f 0030 	movs.w	r0, r0, rrx
 80003c4:	ea4f 0c3c 	mov.w	ip, ip, rrx
 80003c8:	f104 0401 	add.w	r4, r4, #1
 80003cc:	ea4f 5244 	mov.w	r2, r4, lsl #21
 80003d0:	f512 0f80 	cmn.w	r2, #4194304	; 0x400000
 80003d4:	f080 809a 	bcs.w	800050c <__adddf3+0x240>
 80003d8:	f1bc 4f00 	cmp.w	ip, #2147483648	; 0x80000000
 80003dc:	bf08      	it	eq
 80003de:	ea5f 0c50 	movseq.w	ip, r0, lsr #1
 80003e2:	f150 0000 	adcs.w	r0, r0, #0
 80003e6:	eb41 5104 	adc.w	r1, r1, r4, lsl #20
 80003ea:	ea41 0105 	orr.w	r1, r1, r5
 80003ee:	bd30      	pop	{r4, r5, pc}
 80003f0:	ea5f 0c4c 	movs.w	ip, ip, lsl #1
 80003f4:	4140      	adcs	r0, r0
 80003f6:	eb41 0101 	adc.w	r1, r1, r1
 80003fa:	f411 1f80 	tst.w	r1, #1048576	; 0x100000
 80003fe:	f1a4 0401 	sub.w	r4, r4, #1
 8000402:	d1e9      	bne.n	80003d8 <__adddf3+0x10c>
 8000404:	f091 0f00 	teq	r1, #0
 8000408:	bf04      	itt	eq
 800040a:	4601      	moveq	r1, r0
 800040c:	2000      	moveq	r0, #0
 800040e:	fab1 f381 	clz	r3, r1
 8000412:	bf08      	it	eq
 8000414:	3320      	addeq	r3, #32
 8000416:	f1a3 030b 	sub.w	r3, r3, #11
 800041a:	f1b3 0220 	subs.w	r2, r3, #32
 800041e:	da0c      	bge.n	800043a <__adddf3+0x16e>
 8000420:	320c      	adds	r2, #12
 8000422:	dd08      	ble.n	8000436 <__adddf3+0x16a>
 8000424:	f102 0c14 	add.w	ip, r2, #20
 8000428:	f1c2 020c 	rsb	r2, r2, #12
 800042c:	fa01 f00c 	lsl.w	r0, r1, ip
 8000430:	fa21 f102 	lsr.w	r1, r1, r2
 8000434:	e00c      	b.n	8000450 <__adddf3+0x184>
 8000436:	f102 0214 	add.w	r2, r2, #20
 800043a:	bfd8      	it	le
 800043c:	f1c2 0c20 	rsble	ip, r2, #32
 8000440:	fa01 f102 	lsl.w	r1, r1, r2
 8000444:	fa20 fc0c 	lsr.w	ip, r0, ip
 8000448:	bfdc      	itt	le
 800044a:	ea41 010c 	orrle.w	r1, r1, ip
 800044e:	4090      	lslle	r0, r2
 8000450:	1ae4      	subs	r4, r4, r3
 8000452:	bfa2      	ittt	ge
 8000454:	eb01 5104 	addge.w	r1, r1, r4, lsl #20
 8000458:	4329      	orrge	r1, r5
 800045a:	bd30      	popge	{r4, r5, pc}
 800045c:	ea6f 0404 	mvn.w	r4, r4
 8000460:	3c1f      	subs	r4, #31
 8000462:	da1c      	bge.n	800049e <__adddf3+0x1d2>
 8000464:	340c      	adds	r4, #12
 8000466:	dc0e      	bgt.n	8000486 <__adddf3+0x1ba>
 8000468:	f104 0414 	add.w	r4, r4, #20
 800046c:	f1c4 0220 	rsb	r2, r4, #32
 8000470:	fa20 f004 	lsr.w	r0, r0, r4
 8000474:	fa01 f302 	lsl.w	r3, r1, r2
 8000478:	ea40 0003 	orr.w	r0, r0, r3
 800047c:	fa21 f304 	lsr.w	r3, r1, r4
 8000480:	ea45 0103 	orr.w	r1, r5, r3
 8000484:	bd30      	pop	{r4, r5, pc}
 8000486:	f1c4 040c 	rsb	r4, r4, #12
 800048a:	f1c4 0220 	rsb	r2, r4, #32
 800048e:	fa20 f002 	lsr.w	r0, r0, r2
 8000492:	fa01 f304 	lsl.w	r3, r1, r4
 8000496:	ea40 0003 	orr.w	r0, r0, r3
 800049a:	4629      	mov	r1, r5
 800049c:	bd30      	pop	{r4, r5, pc}
 800049e:	fa21 f004 	lsr.w	r0, r1, r4
 80004a2:	4629      	mov	r1, r5
 80004a4:	bd30      	pop	{r4, r5, pc}
 80004a6:	f094 0f00 	teq	r4, #0
 80004aa:	f483 1380 	eor.w	r3, r3, #1048576	; 0x100000
 80004ae:	bf06      	itte	eq
 80004b0:	f481 1180 	eoreq.w	r1, r1, #1048576	; 0x100000
 80004b4:	3401      	addeq	r4, #1
 80004b6:	3d01      	subne	r5, #1
 80004b8:	e74e      	b.n	8000358 <__adddf3+0x8c>
 80004ba:	ea7f 5c64 	mvns.w	ip, r4, asr #21
 80004be:	bf18      	it	ne
 80004c0:	ea7f 5c65 	mvnsne.w	ip, r5, asr #21
 80004c4:	d029      	beq.n	800051a <__adddf3+0x24e>
 80004c6:	ea94 0f05 	teq	r4, r5
 80004ca:	bf08      	it	eq
 80004cc:	ea90 0f02 	teqeq	r0, r2
 80004d0:	d005      	beq.n	80004de <__adddf3+0x212>
 80004d2:	ea54 0c00 	orrs.w	ip, r4, r0
 80004d6:	bf04      	itt	eq
 80004d8:	4619      	moveq	r1, r3
 80004da:	4610      	moveq	r0, r2
 80004dc:	bd30      	pop	{r4, r5, pc}
 80004de:	ea91 0f03 	teq	r1, r3
 80004e2:	bf1e      	ittt	ne
 80004e4:	2100      	movne	r1, #0
 80004e6:	2000      	movne	r0, #0
 80004e8:	bd30      	popne	{r4, r5, pc}
 80004ea:	ea5f 5c54 	movs.w	ip, r4, lsr #21
 80004ee:	d105      	bne.n	80004fc <__adddf3+0x230>
 80004f0:	0040      	lsls	r0, r0, #1
 80004f2:	4149      	adcs	r1, r1
 80004f4:	bf28      	it	cs
 80004f6:	f041 4100 	orrcs.w	r1, r1, #2147483648	; 0x80000000
 80004fa:	bd30      	pop	{r4, r5, pc}
 80004fc:	f514 0480 	adds.w	r4, r4, #4194304	; 0x400000
 8000500:	bf3c      	itt	cc
 8000502:	f501 1180 	addcc.w	r1, r1, #1048576	; 0x100000
 8000506:	bd30      	popcc	{r4, r5, pc}
 8000508:	f001 4500 	and.w	r5, r1, #2147483648	; 0x80000000
 800050c:	f045 41fe 	orr.w	r1, r5, #2130706432	; 0x7f000000
 8000510:	f441 0170 	orr.w	r1, r1, #15728640	; 0xf00000
 8000514:	f04f 0000 	mov.w	r0, #0
 8000518:	bd30      	pop	{r4, r5, pc}
 800051a:	ea7f 5c64 	mvns.w	ip, r4, asr #21
 800051e:	bf1a      	itte	ne
 8000520:	4619      	movne	r1, r3
 8000522:	4610      	movne	r0, r2
 8000524:	ea7f 5c65 	mvnseq.w	ip, r5, asr #21
 8000528:	bf1c      	itt	ne
 800052a:	460b      	movne	r3, r1
 800052c:	4602      	movne	r2, r0
 800052e:	ea50 3401 	orrs.w	r4, r0, r1, lsl #12
 8000532:	bf06      	itte	eq
 8000534:	ea52 3503 	orrseq.w	r5, r2, r3, lsl #12
 8000538:	ea91 0f03 	teqeq	r1, r3
 800053c:	f441 2100 	orrne.w	r1, r1, #524288	; 0x80000
 8000540:	bd30      	pop	{r4, r5, pc}
 8000542:	bf00      	nop

08000544 <__aeabi_ui2d>:
 8000544:	f090 0f00 	teq	r0, #0
 8000548:	bf04      	itt	eq
 800054a:	2100      	moveq	r1, #0
 800054c:	4770      	bxeq	lr
 800054e:	b530      	push	{r4, r5, lr}
 8000550:	f44f 6480 	mov.w	r4, #1024	; 0x400
 8000554:	f104 0432 	add.w	r4, r4, #50	; 0x32
 8000558:	f04f 0500 	mov.w	r5, #0
 800055c:	f04f 0100 	mov.w	r1, #0
 8000560:	e750      	b.n	8000404 <__adddf3+0x138>
 8000562:	bf00      	nop

08000564 <__aeabi_i2d>:
 8000564:	f090 0f00 	teq	r0, #0
 8000568:	bf04      	itt	eq
 800056a:	2100      	moveq	r1, #0
 800056c:	4770      	bxeq	lr
 800056e:	b530      	push	{r4, r5, lr}
 8000570:	f44f 6480 	mov.w	r4, #1024	; 0x400
 8000574:	f104 0432 	add.w	r4, r4, #50	; 0x32
 8000578:	f010 4500 	ands.w	r5, r0, #2147483648	; 0x80000000
 800057c:	bf48      	it	mi
 800057e:	4240      	negmi	r0, r0
 8000580:	f04f 0100 	mov.w	r1, #0
 8000584:	e73e      	b.n	8000404 <__adddf3+0x138>
 8000586:	bf00      	nop

08000588 <__aeabi_f2d>:
 8000588:	0042      	lsls	r2, r0, #1
 800058a:	ea4f 01e2 	mov.w	r1, r2, asr #3
 800058e:	ea4f 0131 	mov.w	r1, r1, rrx
 8000592:	ea4f 7002 	mov.w	r0, r2, lsl #28
 8000596:	bf1f      	itttt	ne
 8000598:	f012 437f 	andsne.w	r3, r2, #4278190080	; 0xff000000
 800059c:	f093 4f7f 	teqne	r3, #4278190080	; 0xff000000
 80005a0:	f081 5160 	eorne.w	r1, r1, #939524096	; 0x38000000
 80005a4:	4770      	bxne	lr
 80005a6:	f032 427f 	bics.w	r2, r2, #4278190080	; 0xff000000
 80005aa:	bf08      	it	eq
 80005ac:	4770      	bxeq	lr
 80005ae:	f093 4f7f 	teq	r3, #4278190080	; 0xff000000
 80005b2:	bf04      	itt	eq
 80005b4:	f441 2100 	orreq.w	r1, r1, #524288	; 0x80000
 80005b8:	4770      	bxeq	lr
 80005ba:	b530      	push	{r4, r5, lr}
 80005bc:	f44f 7460 	mov.w	r4, #896	; 0x380
 80005c0:	f001 4500 	and.w	r5, r1, #2147483648	; 0x80000000
 80005c4:	f021 4100 	bic.w	r1, r1, #2147483648	; 0x80000000
 80005c8:	e71c      	b.n	8000404 <__adddf3+0x138>
 80005ca:	bf00      	nop

080005cc <__aeabi_ul2d>:
 80005cc:	ea50 0201 	orrs.w	r2, r0, r1
 80005d0:	bf08      	it	eq
 80005d2:	4770      	bxeq	lr
 80005d4:	b530      	push	{r4, r5, lr}
 80005d6:	f04f 0500 	mov.w	r5, #0
 80005da:	e00a      	b.n	80005f2 <__aeabi_l2d+0x16>

080005dc <__aeabi_l2d>:
 80005dc:	ea50 0201 	orrs.w	r2, r0, r1
 80005e0:	bf08      	it	eq
 80005e2:	4770      	bxeq	lr
 80005e4:	b530      	push	{r4, r5, lr}
 80005e6:	f011 4500 	ands.w	r5, r1, #2147483648	; 0x80000000
 80005ea:	d502      	bpl.n	80005f2 <__aeabi_l2d+0x16>
 80005ec:	4240      	negs	r0, r0
 80005ee:	eb61 0141 	sbc.w	r1, r1, r1, lsl #1
 80005f2:	f44f 6480 	mov.w	r4, #1024	; 0x400
 80005f6:	f104 0432 	add.w	r4, r4, #50	; 0x32
 80005fa:	ea5f 5c91 	movs.w	ip, r1, lsr #22
 80005fe:	f43f aed8 	beq.w	80003b2 <__adddf3+0xe6>
 8000602:	f04f 0203 	mov.w	r2, #3
 8000606:	ea5f 0cdc 	movs.w	ip, ip, lsr #3
 800060a:	bf18      	it	ne
 800060c:	3203      	addne	r2, #3
 800060e:	ea5f 0cdc 	movs.w	ip, ip, lsr #3
 8000612:	bf18      	it	ne
 8000614:	3203      	addne	r2, #3
 8000616:	eb02 02dc 	add.w	r2, r2, ip, lsr #3
 800061a:	f1c2 0320 	rsb	r3, r2, #32
 800061e:	fa00 fc03 	lsl.w	ip, r0, r3
 8000622:	fa20 f002 	lsr.w	r0, r0, r2
 8000626:	fa01 fe03 	lsl.w	lr, r1, r3
 800062a:	ea40 000e 	orr.w	r0, r0, lr
 800062e:	fa21 f102 	lsr.w	r1, r1, r2
 8000632:	4414      	add	r4, r2
 8000634:	e6bd      	b.n	80003b2 <__adddf3+0xe6>
 8000636:	bf00      	nop

08000638 <__aeabi_dmul>:
 8000638:	b570      	push	{r4, r5, r6, lr}
 800063a:	f04f 0cff 	mov.w	ip, #255	; 0xff
 800063e:	f44c 6ce0 	orr.w	ip, ip, #1792	; 0x700
 8000642:	ea1c 5411 	ands.w	r4, ip, r1, lsr #20
 8000646:	bf1d      	ittte	ne
 8000648:	ea1c 5513 	andsne.w	r5, ip, r3, lsr #20
 800064c:	ea94 0f0c 	teqne	r4, ip
 8000650:	ea95 0f0c 	teqne	r5, ip
 8000654:	f000 f8de 	bleq	8000814 <__aeabi_dmul+0x1dc>
 8000658:	442c      	add	r4, r5
 800065a:	ea81 0603 	eor.w	r6, r1, r3
 800065e:	ea21 514c 	bic.w	r1, r1, ip, lsl #21
 8000662:	ea23 534c 	bic.w	r3, r3, ip, lsl #21
 8000666:	ea50 3501 	orrs.w	r5, r0, r1, lsl #12
 800066a:	bf18      	it	ne
 800066c:	ea52 3503 	orrsne.w	r5, r2, r3, lsl #12
 8000670:	f441 1180 	orr.w	r1, r1, #1048576	; 0x100000
 8000674:	f443 1380 	orr.w	r3, r3, #1048576	; 0x100000
 8000678:	d038      	beq.n	80006ec <__aeabi_dmul+0xb4>
 800067a:	fba0 ce02 	umull	ip, lr, r0, r2
 800067e:	f04f 0500 	mov.w	r5, #0
 8000682:	fbe1 e502 	umlal	lr, r5, r1, r2
 8000686:	f006 4200 	and.w	r2, r6, #2147483648	; 0x80000000
 800068a:	fbe0 e503 	umlal	lr, r5, r0, r3
 800068e:	f04f 0600 	mov.w	r6, #0
 8000692:	fbe1 5603 	umlal	r5, r6, r1, r3
 8000696:	f09c 0f00 	teq	ip, #0
 800069a:	bf18      	it	ne
 800069c:	f04e 0e01 	orrne.w	lr, lr, #1
 80006a0:	f1a4 04ff 	sub.w	r4, r4, #255	; 0xff
 80006a4:	f5b6 7f00 	cmp.w	r6, #512	; 0x200
 80006a8:	f564 7440 	sbc.w	r4, r4, #768	; 0x300
 80006ac:	d204      	bcs.n	80006b8 <__aeabi_dmul+0x80>
 80006ae:	ea5f 0e4e 	movs.w	lr, lr, lsl #1
 80006b2:	416d      	adcs	r5, r5
 80006b4:	eb46 0606 	adc.w	r6, r6, r6
 80006b8:	ea42 21c6 	orr.w	r1, r2, r6, lsl #11
 80006bc:	ea41 5155 	orr.w	r1, r1, r5, lsr #21
 80006c0:	ea4f 20c5 	mov.w	r0, r5, lsl #11
 80006c4:	ea40 505e 	orr.w	r0, r0, lr, lsr #21
 80006c8:	ea4f 2ece 	mov.w	lr, lr, lsl #11
 80006cc:	f1b4 0cfd 	subs.w	ip, r4, #253	; 0xfd
 80006d0:	bf88      	it	hi
 80006d2:	f5bc 6fe0 	cmphi.w	ip, #1792	; 0x700
 80006d6:	d81e      	bhi.n	8000716 <__aeabi_dmul+0xde>
 80006d8:	f1be 4f00 	cmp.w	lr, #2147483648	; 0x80000000
 80006dc:	bf08      	it	eq
 80006de:	ea5f 0e50 	movseq.w	lr, r0, lsr #1
 80006e2:	f150 0000 	adcs.w	r0, r0, #0
 80006e6:	eb41 5104 	adc.w	r1, r1, r4, lsl #20
 80006ea:	bd70      	pop	{r4, r5, r6, pc}
 80006ec:	f006 4600 	and.w	r6, r6, #2147483648	; 0x80000000
 80006f0:	ea46 0101 	orr.w	r1, r6, r1
 80006f4:	ea40 0002 	orr.w	r0, r0, r2
 80006f8:	ea81 0103 	eor.w	r1, r1, r3
 80006fc:	ebb4 045c 	subs.w	r4, r4, ip, lsr #1
 8000700:	bfc2      	ittt	gt
 8000702:	ebd4 050c 	rsbsgt	r5, r4, ip
 8000706:	ea41 5104 	orrgt.w	r1, r1, r4, lsl #20
 800070a:	bd70      	popgt	{r4, r5, r6, pc}
 800070c:	f441 1180 	orr.w	r1, r1, #1048576	; 0x100000
 8000710:	f04f 0e00 	mov.w	lr, #0
 8000714:	3c01      	subs	r4, #1
 8000716:	f300 80ab 	bgt.w	8000870 <__aeabi_dmul+0x238>
 800071a:	f114 0f36 	cmn.w	r4, #54	; 0x36
 800071e:	bfde      	ittt	le
 8000720:	2000      	movle	r0, #0
 8000722:	f001 4100 	andle.w	r1, r1, #2147483648	; 0x80000000
 8000726:	bd70      	pople	{r4, r5, r6, pc}
 8000728:	f1c4 0400 	rsb	r4, r4, #0
 800072c:	3c20      	subs	r4, #32
 800072e:	da35      	bge.n	800079c <__aeabi_dmul+0x164>
 8000730:	340c      	adds	r4, #12
 8000732:	dc1b      	bgt.n	800076c <__aeabi_dmul+0x134>
 8000734:	f104 0414 	add.w	r4, r4, #20
 8000738:	f1c4 0520 	rsb	r5, r4, #32
 800073c:	fa00 f305 	lsl.w	r3, r0, r5
 8000740:	fa20 f004 	lsr.w	r0, r0, r4
 8000744:	fa01 f205 	lsl.w	r2, r1, r5
 8000748:	ea40 0002 	orr.w	r0, r0, r2
 800074c:	f001 4200 	and.w	r2, r1, #2147483648	; 0x80000000
 8000750:	f021 4100 	bic.w	r1, r1, #2147483648	; 0x80000000
 8000754:	eb10 70d3 	adds.w	r0, r0, r3, lsr #31
 8000758:	fa21 f604 	lsr.w	r6, r1, r4
 800075c:	eb42 0106 	adc.w	r1, r2, r6
 8000760:	ea5e 0e43 	orrs.w	lr, lr, r3, lsl #1
 8000764:	bf08      	it	eq
 8000766:	ea20 70d3 	biceq.w	r0, r0, r3, lsr #31
 800076a:	bd70      	pop	{r4, r5, r6, pc}
 800076c:	f1c4 040c 	rsb	r4, r4, #12
 8000770:	f1c4 0520 	rsb	r5, r4, #32
 8000774:	fa00 f304 	lsl.w	r3, r0, r4
 8000778:	fa20 f005 	lsr.w	r0, r0, r5
 800077c:	fa01 f204 	lsl.w	r2, r1, r4
 8000780:	ea40 0002 	orr.w	r0, r0, r2
 8000784:	f001 4100 	and.w	r1, r1, #2147483648	; 0x80000000
 8000788:	eb10 70d3 	adds.w	r0, r0, r3, lsr #31
 800078c:	f141 0100 	adc.w	r1, r1, #0
 8000790:	ea5e 0e43 	orrs.w	lr, lr, r3, lsl #1
 8000794:	bf08      	it	eq
 8000796:	ea20 70d3 	biceq.w	r0, r0, r3, lsr #31
 800079a:	bd70      	pop	{r4, r5, r6, pc}
 800079c:	f1c4 0520 	rsb	r5, r4, #32
 80007a0:	fa00 f205 	lsl.w	r2, r0, r5
 80007a4:	ea4e 0e02 	orr.w	lr, lr, r2
 80007a8:	fa20 f304 	lsr.w	r3, r0, r4
 80007ac:	fa01 f205 	lsl.w	r2, r1, r5
 80007b0:	ea43 0302 	orr.w	r3, r3, r2
 80007b4:	fa21 f004 	lsr.w	r0, r1, r4
 80007b8:	f001 4100 	and.w	r1, r1, #2147483648	; 0x80000000
 80007bc:	fa21 f204 	lsr.w	r2, r1, r4
 80007c0:	ea20 0002 	bic.w	r0, r0, r2
 80007c4:	eb00 70d3 	add.w	r0, r0, r3, lsr #31
 80007c8:	ea5e 0e43 	orrs.w	lr, lr, r3, lsl #1
 80007cc:	bf08      	it	eq
 80007ce:	ea20 70d3 	biceq.w	r0, r0, r3, lsr #31
 80007d2:	bd70      	pop	{r4, r5, r6, pc}
 80007d4:	f094 0f00 	teq	r4, #0
 80007d8:	d10f      	bne.n	80007fa <__aeabi_dmul+0x1c2>
 80007da:	f001 4600 	and.w	r6, r1, #2147483648	; 0x80000000
 80007de:	0040      	lsls	r0, r0, #1
 80007e0:	eb41 0101 	adc.w	r1, r1, r1
 80007e4:	f411 1f80 	tst.w	r1, #1048576	; 0x100000
 80007e8:	bf08      	it	eq
 80007ea:	3c01      	subeq	r4, #1
 80007ec:	d0f7      	beq.n	80007de <__aeabi_dmul+0x1a6>
 80007ee:	ea41 0106 	orr.w	r1, r1, r6
 80007f2:	f095 0f00 	teq	r5, #0
 80007f6:	bf18      	it	ne
 80007f8:	4770      	bxne	lr
 80007fa:	f003 4600 	and.w	r6, r3, #2147483648	; 0x80000000
 80007fe:	0052      	lsls	r2, r2, #1
 8000800:	eb43 0303 	adc.w	r3, r3, r3
 8000804:	f413 1f80 	tst.w	r3, #1048576	; 0x100000
 8000808:	bf08      	it	eq
 800080a:	3d01      	subeq	r5, #1
 800080c:	d0f7      	beq.n	80007fe <__aeabi_dmul+0x1c6>
 800080e:	ea43 0306 	orr.w	r3, r3, r6
 8000812:	4770      	bx	lr
 8000814:	ea94 0f0c 	teq	r4, ip
 8000818:	ea0c 5513 	and.w	r5, ip, r3, lsr #20
 800081c:	bf18      	it	ne
 800081e:	ea95 0f0c 	teqne	r5, ip
 8000822:	d00c      	beq.n	800083e <__aeabi_dmul+0x206>
 8000824:	ea50 0641 	orrs.w	r6, r0, r1, lsl #1
 8000828:	bf18      	it	ne
 800082a:	ea52 0643 	orrsne.w	r6, r2, r3, lsl #1
 800082e:	d1d1      	bne.n	80007d4 <__aeabi_dmul+0x19c>
 8000830:	ea81 0103 	eor.w	r1, r1, r3
 8000834:	f001 4100 	and.w	r1, r1, #2147483648	; 0x80000000
 8000838:	f04f 0000 	mov.w	r0, #0
 800083c:	bd70      	pop	{r4, r5, r6, pc}
 800083e:	ea50 0641 	orrs.w	r6, r0, r1, lsl #1
 8000842:	bf06      	itte	eq
 8000844:	4610      	moveq	r0, r2
 8000846:	4619      	moveq	r1, r3
 8000848:	ea52 0643 	orrsne.w	r6, r2, r3, lsl #1
 800084c:	d019      	beq.n	8000882 <__aeabi_dmul+0x24a>
 800084e:	ea94 0f0c 	teq	r4, ip
 8000852:	d102      	bne.n	800085a <__aeabi_dmul+0x222>
 8000854:	ea50 3601 	orrs.w	r6, r0, r1, lsl #12
 8000858:	d113      	bne.n	8000882 <__aeabi_dmul+0x24a>
 800085a:	ea95 0f0c 	teq	r5, ip
 800085e:	d105      	bne.n	800086c <__aeabi_dmul+0x234>
 8000860:	ea52 3603 	orrs.w	r6, r2, r3, lsl #12
 8000864:	bf1c      	itt	ne
 8000866:	4610      	movne	r0, r2
 8000868:	4619      	movne	r1, r3
 800086a:	d10a      	bne.n	8000882 <__aeabi_dmul+0x24a>
 800086c:	ea81 0103 	eor.w	r1, r1, r3
 8000870:	f001 4100 	and.w	r1, r1, #2147483648	; 0x80000000
 8000874:	f041 41fe 	orr.w	r1, r1, #2130706432	; 0x7f000000
 8000878:	f441 0170 	orr.w	r1, r1, #15728640	; 0xf00000
 800087c:	f04f 0000 	mov.w	r0, #0
 8000880:	bd70      	pop	{r4, r5, r6, pc}
 8000882:	f041 41fe 	orr.w	r1, r1, #2130706432	; 0x7f000000
 8000886:	f441 0178 	orr.w	r1, r1, #16252928	; 0xf80000
 800088a:	bd70      	pop	{r4, r5, r6, pc}

0800088c <__aeabi_ddiv>:
 800088c:	b570      	push	{r4, r5, r6, lr}
 800088e:	f04f 0cff 	mov.w	ip, #255	; 0xff
 8000892:	f44c 6ce0 	orr.w	ip, ip, #1792	; 0x700
 8000896:	ea1c 5411 	ands.w	r4, ip, r1, lsr #20
 800089a:	bf1d      	ittte	ne
 800089c:	ea1c 5513 	andsne.w	r5, ip, r3, lsr #20
 80008a0:	ea94 0f0c 	teqne	r4, ip
 80008a4:	ea95 0f0c 	teqne	r5, ip
 80008a8:	f000 f8a7 	bleq	80009fa <__aeabi_ddiv+0x16e>
 80008ac:	eba4 0405 	sub.w	r4, r4, r5
 80008b0:	ea81 0e03 	eor.w	lr, r1, r3
 80008b4:	ea52 3503 	orrs.w	r5, r2, r3, lsl #12
 80008b8:	ea4f 3101 	mov.w	r1, r1, lsl #12
 80008bc:	f000 8088 	beq.w	80009d0 <__aeabi_ddiv+0x144>
 80008c0:	ea4f 3303 	mov.w	r3, r3, lsl #12
 80008c4:	f04f 5580 	mov.w	r5, #268435456	; 0x10000000
 80008c8:	ea45 1313 	orr.w	r3, r5, r3, lsr #4
 80008cc:	ea43 6312 	orr.w	r3, r3, r2, lsr #24
 80008d0:	ea4f 2202 	mov.w	r2, r2, lsl #8
 80008d4:	ea45 1511 	orr.w	r5, r5, r1, lsr #4
 80008d8:	ea45 6510 	orr.w	r5, r5, r0, lsr #24
 80008dc:	ea4f 2600 	mov.w	r6, r0, lsl #8
 80008e0:	f00e 4100 	and.w	r1, lr, #2147483648	; 0x80000000
 80008e4:	429d      	cmp	r5, r3
 80008e6:	bf08      	it	eq
 80008e8:	4296      	cmpeq	r6, r2
 80008ea:	f144 04fd 	adc.w	r4, r4, #253	; 0xfd
 80008ee:	f504 7440 	add.w	r4, r4, #768	; 0x300
 80008f2:	d202      	bcs.n	80008fa <__aeabi_ddiv+0x6e>
 80008f4:	085b      	lsrs	r3, r3, #1
 80008f6:	ea4f 0232 	mov.w	r2, r2, rrx
 80008fa:	1ab6      	subs	r6, r6, r2
 80008fc:	eb65 0503 	sbc.w	r5, r5, r3
 8000900:	085b      	lsrs	r3, r3, #1
 8000902:	ea4f 0232 	mov.w	r2, r2, rrx
 8000906:	f44f 1080 	mov.w	r0, #1048576	; 0x100000
 800090a:	f44f 2c00 	mov.w	ip, #524288	; 0x80000
 800090e:	ebb6 0e02 	subs.w	lr, r6, r2
 8000912:	eb75 0e03 	sbcs.w	lr, r5, r3
 8000916:	bf22      	ittt	cs
 8000918:	1ab6      	subcs	r6, r6, r2
 800091a:	4675      	movcs	r5, lr
 800091c:	ea40 000c 	orrcs.w	r0, r0, ip
 8000920:	085b      	lsrs	r3, r3, #1
 8000922:	ea4f 0232 	mov.w	r2, r2, rrx
 8000926:	ebb6 0e02 	subs.w	lr, r6, r2
 800092a:	eb75 0e03 	sbcs.w	lr, r5, r3
 800092e:	bf22      	ittt	cs
 8000930:	1ab6      	subcs	r6, r6, r2
 8000932:	4675      	movcs	r5, lr
 8000934:	ea40 005c 	orrcs.w	r0, r0, ip, lsr #1
 8000938:	085b      	lsrs	r3, r3, #1
 800093a:	ea4f 0232 	mov.w	r2, r2, rrx
 800093e:	ebb6 0e02 	subs.w	lr, r6, r2
 8000942:	eb75 0e03 	sbcs.w	lr, r5, r3
 8000946:	bf22      	ittt	cs
 8000948:	1ab6      	subcs	r6, r6, r2
 800094a:	4675      	movcs	r5, lr
 800094c:	ea40 009c 	orrcs.w	r0, r0, ip, lsr #2
 8000950:	085b      	lsrs	r3, r3, #1
 8000952:	ea4f 0232 	mov.w	r2, r2, rrx
 8000956:	ebb6 0e02 	subs.w	lr, r6, r2
 800095a:	eb75 0e03 	sbcs.w	lr, r5, r3
 800095e:	bf22      	ittt	cs
 8000960:	1ab6      	subcs	r6, r6, r2
 8000962:	4675      	movcs	r5, lr
 8000964:	ea40 00dc 	orrcs.w	r0, r0, ip, lsr #3
 8000968:	ea55 0e06 	orrs.w	lr, r5, r6
 800096c:	d018      	beq.n	80009a0 <__aeabi_ddiv+0x114>
 800096e:	ea4f 1505 	mov.w	r5, r5, lsl #4
 8000972:	ea45 7516 	orr.w	r5, r5, r6, lsr #28
 8000976:	ea4f 1606 	mov.w	r6, r6, lsl #4
 800097a:	ea4f 03c3 	mov.w	r3, r3, lsl #3
 800097e:	ea43 7352 	orr.w	r3, r3, r2, lsr #29
 8000982:	ea4f 02c2 	mov.w	r2, r2, lsl #3
 8000986:	ea5f 1c1c 	movs.w	ip, ip, lsr #4
 800098a:	d1c0      	bne.n	800090e <__aeabi_ddiv+0x82>
 800098c:	f411 1f80 	tst.w	r1, #1048576	; 0x100000
 8000990:	d10b      	bne.n	80009aa <__aeabi_ddiv+0x11e>
 8000992:	ea41 0100 	orr.w	r1, r1, r0
 8000996:	f04f 0000 	mov.w	r0, #0
 800099a:	f04f 4c00 	mov.w	ip, #2147483648	; 0x80000000
 800099e:	e7b6      	b.n	800090e <__aeabi_ddiv+0x82>
 80009a0:	f411 1f80 	tst.w	r1, #1048576	; 0x100000
 80009a4:	bf04      	itt	eq
 80009a6:	4301      	orreq	r1, r0
 80009a8:	2000      	moveq	r0, #0
 80009aa:	f1b4 0cfd 	subs.w	ip, r4, #253	; 0xfd
 80009ae:	bf88      	it	hi
 80009b0:	f5bc 6fe0 	cmphi.w	ip, #1792	; 0x700
 80009b4:	f63f aeaf 	bhi.w	8000716 <__aeabi_dmul+0xde>
 80009b8:	ebb5 0c03 	subs.w	ip, r5, r3
 80009bc:	bf04      	itt	eq
 80009be:	ebb6 0c02 	subseq.w	ip, r6, r2
 80009c2:	ea5f 0c50 	movseq.w	ip, r0, lsr #1
 80009c6:	f150 0000 	adcs.w	r0, r0, #0
 80009ca:	eb41 5104 	adc.w	r1, r1, r4, lsl #20
 80009ce:	bd70      	pop	{r4, r5, r6, pc}
 80009d0:	f00e 4e00 	and.w	lr, lr, #2147483648	; 0x80000000
 80009d4:	ea4e 3111 	orr.w	r1, lr, r1, lsr #12
 80009d8:	eb14 045c 	adds.w	r4, r4, ip, lsr #1
 80009dc:	bfc2      	ittt	gt
 80009de:	ebd4 050c 	rsbsgt	r5, r4, ip
 80009e2:	ea41 5104 	orrgt.w	r1, r1, r4, lsl #20
 80009e6:	bd70      	popgt	{r4, r5, r6, pc}
 80009e8:	f441 1180 	orr.w	r1, r1, #1048576	; 0x100000
 80009ec:	f04f 0e00 	mov.w	lr, #0
 80009f0:	3c01      	subs	r4, #1
 80009f2:	e690      	b.n	8000716 <__aeabi_dmul+0xde>
 80009f4:	ea45 0e06 	orr.w	lr, r5, r6
 80009f8:	e68d      	b.n	8000716 <__aeabi_dmul+0xde>
 80009fa:	ea0c 5513 	and.w	r5, ip, r3, lsr #20
 80009fe:	ea94 0f0c 	teq	r4, ip
 8000a02:	bf08      	it	eq
 8000a04:	ea95 0f0c 	teqeq	r5, ip
 8000a08:	f43f af3b 	beq.w	8000882 <__aeabi_dmul+0x24a>
 8000a0c:	ea94 0f0c 	teq	r4, ip
 8000a10:	d10a      	bne.n	8000a28 <__aeabi_ddiv+0x19c>
 8000a12:	ea50 3401 	orrs.w	r4, r0, r1, lsl #12
 8000a16:	f47f af34 	bne.w	8000882 <__aeabi_dmul+0x24a>
 8000a1a:	ea95 0f0c 	teq	r5, ip
 8000a1e:	f47f af25 	bne.w	800086c <__aeabi_dmul+0x234>
 8000a22:	4610      	mov	r0, r2
 8000a24:	4619      	mov	r1, r3
 8000a26:	e72c      	b.n	8000882 <__aeabi_dmul+0x24a>
 8000a28:	ea95 0f0c 	teq	r5, ip
 8000a2c:	d106      	bne.n	8000a3c <__aeabi_ddiv+0x1b0>
 8000a2e:	ea52 3503 	orrs.w	r5, r2, r3, lsl #12
 8000a32:	f43f aefd 	beq.w	8000830 <__aeabi_dmul+0x1f8>
 8000a36:	4610      	mov	r0, r2
 8000a38:	4619      	mov	r1, r3
 8000a3a:	e722      	b.n	8000882 <__aeabi_dmul+0x24a>
 8000a3c:	ea50 0641 	orrs.w	r6, r0, r1, lsl #1
 8000a40:	bf18      	it	ne
 8000a42:	ea52 0643 	orrsne.w	r6, r2, r3, lsl #1
 8000a46:	f47f aec5 	bne.w	80007d4 <__aeabi_dmul+0x19c>
 8000a4a:	ea50 0441 	orrs.w	r4, r0, r1, lsl #1
 8000a4e:	f47f af0d 	bne.w	800086c <__aeabi_dmul+0x234>
 8000a52:	ea52 0543 	orrs.w	r5, r2, r3, lsl #1
 8000a56:	f47f aeeb 	bne.w	8000830 <__aeabi_dmul+0x1f8>
 8000a5a:	e712      	b.n	8000882 <__aeabi_dmul+0x24a>

08000a5c <__gedf2>:
 8000a5c:	f04f 3cff 	mov.w	ip, #4294967295
 8000a60:	e006      	b.n	8000a70 <__cmpdf2+0x4>
 8000a62:	bf00      	nop

08000a64 <__ledf2>:
 8000a64:	f04f 0c01 	mov.w	ip, #1
 8000a68:	e002      	b.n	8000a70 <__cmpdf2+0x4>
 8000a6a:	bf00      	nop

08000a6c <__cmpdf2>:
 8000a6c:	f04f 0c01 	mov.w	ip, #1
 8000a70:	f84d cd04 	str.w	ip, [sp, #-4]!
 8000a74:	ea4f 0c41 	mov.w	ip, r1, lsl #1
 8000a78:	ea7f 5c6c 	mvns.w	ip, ip, asr #21
 8000a7c:	ea4f 0c43 	mov.w	ip, r3, lsl #1
 8000a80:	bf18      	it	ne
 8000a82:	ea7f 5c6c 	mvnsne.w	ip, ip, asr #21
 8000a86:	d01b      	beq.n	8000ac0 <__cmpdf2+0x54>
 8000a88:	b001      	add	sp, #4
 8000a8a:	ea50 0c41 	orrs.w	ip, r0, r1, lsl #1
 8000a8e:	bf0c      	ite	eq
 8000a90:	ea52 0c43 	orrseq.w	ip, r2, r3, lsl #1
 8000a94:	ea91 0f03 	teqne	r1, r3
 8000a98:	bf02      	ittt	eq
 8000a9a:	ea90 0f02 	teqeq	r0, r2
 8000a9e:	2000      	moveq	r0, #0
 8000aa0:	4770      	bxeq	lr
 8000aa2:	f110 0f00 	cmn.w	r0, #0
 8000aa6:	ea91 0f03 	teq	r1, r3
 8000aaa:	bf58      	it	pl
 8000aac:	4299      	cmppl	r1, r3
 8000aae:	bf08      	it	eq
 8000ab0:	4290      	cmpeq	r0, r2
 8000ab2:	bf2c      	ite	cs
 8000ab4:	17d8      	asrcs	r0, r3, #31
 8000ab6:	ea6f 70e3 	mvncc.w	r0, r3, asr #31
 8000aba:	f040 0001 	orr.w	r0, r0, #1
 8000abe:	4770      	bx	lr
 8000ac0:	ea4f 0c41 	mov.w	ip, r1, lsl #1
 8000ac4:	ea7f 5c6c 	mvns.w	ip, ip, asr #21
 8000ac8:	d102      	bne.n	8000ad0 <__cmpdf2+0x64>
 8000aca:	ea50 3c01 	orrs.w	ip, r0, r1, lsl #12
 8000ace:	d107      	bne.n	8000ae0 <__cmpdf2+0x74>
 8000ad0:	ea4f 0c43 	mov.w	ip, r3, lsl #1
 8000ad4:	ea7f 5c6c 	mvns.w	ip, ip, asr #21
 8000ad8:	d1d6      	bne.n	8000a88 <__cmpdf2+0x1c>
 8000ada:	ea52 3c03 	orrs.w	ip, r2, r3, lsl #12
 8000ade:	d0d3      	beq.n	8000a88 <__cmpdf2+0x1c>
 8000ae0:	f85d 0b04 	ldr.w	r0, [sp], #4
 8000ae4:	4770      	bx	lr
 8000ae6:	bf00      	nop

08000ae8 <__aeabi_cdrcmple>:
 8000ae8:	4684      	mov	ip, r0
 8000aea:	4610      	mov	r0, r2
 8000aec:	4662      	mov	r2, ip
 8000aee:	468c      	mov	ip, r1
 8000af0:	4619      	mov	r1, r3
 8000af2:	4663      	mov	r3, ip
 8000af4:	e000      	b.n	8000af8 <__aeabi_cdcmpeq>
 8000af6:	bf00      	nop

08000af8 <__aeabi_cdcmpeq>:
 8000af8:	b501      	push	{r0, lr}
 8000afa:	f7ff ffb7 	bl	8000a6c <__cmpdf2>
 8000afe:	2800      	cmp	r0, #0
 8000b00:	bf48      	it	mi
 8000b02:	f110 0f00 	cmnmi.w	r0, #0
 8000b06:	bd01      	pop	{r0, pc}

08000b08 <__aeabi_dcmpeq>:
 8000b08:	f84d ed08 	str.w	lr, [sp, #-8]!
 8000b0c:	f7ff fff4 	bl	8000af8 <__aeabi_cdcmpeq>
 8000b10:	bf0c      	ite	eq
 8000b12:	2001      	moveq	r0, #1
 8000b14:	2000      	movne	r0, #0
 8000b16:	f85d fb08 	ldr.w	pc, [sp], #8
 8000b1a:	bf00      	nop

08000b1c <__aeabi_dcmplt>:
 8000b1c:	f84d ed08 	str.w	lr, [sp, #-8]!
 8000b20:	f7ff ffea 	bl	8000af8 <__aeabi_cdcmpeq>
 8000b24:	bf34      	ite	cc
 8000b26:	2001      	movcc	r0, #1
 8000b28:	2000      	movcs	r0, #0
 8000b2a:	f85d fb08 	ldr.w	pc, [sp], #8
 8000b2e:	bf00      	nop

08000b30 <__aeabi_dcmple>:
 8000b30:	f84d ed08 	str.w	lr, [sp, #-8]!
 8000b34:	f7ff ffe0 	bl	8000af8 <__aeabi_cdcmpeq>
 8000b38:	bf94      	ite	ls
 8000b3a:	2001      	movls	r0, #1
 8000b3c:	2000      	movhi	r0, #0
 8000b3e:	f85d fb08 	ldr.w	pc, [sp], #8
 8000b42:	bf00      	nop

08000b44 <__aeabi_dcmpge>:
 8000b44:	f84d ed08 	str.w	lr, [sp, #-8]!
 8000b48:	f7ff ffce 	bl	8000ae8 <__aeabi_cdrcmple>
 8000b4c:	bf94      	ite	ls
 8000b4e:	2001      	movls	r0, #1
 8000b50:	2000      	movhi	r0, #0
 8000b52:	f85d fb08 	ldr.w	pc, [sp], #8
 8000b56:	bf00      	nop

08000b58 <__aeabi_dcmpgt>:
 8000b58:	f84d ed08 	str.w	lr, [sp, #-8]!
 8000b5c:	f7ff ffc4 	bl	8000ae8 <__aeabi_cdrcmple>
 8000b60:	bf34      	ite	cc
 8000b62:	2001      	movcc	r0, #1
 8000b64:	2000      	movcs	r0, #0
 8000b66:	f85d fb08 	ldr.w	pc, [sp], #8
 8000b6a:	bf00      	nop

08000b6c <__aeabi_dcmpun>:
 8000b6c:	ea4f 0c41 	mov.w	ip, r1, lsl #1
 8000b70:	ea7f 5c6c 	mvns.w	ip, ip, asr #21
 8000b74:	d102      	bne.n	8000b7c <__aeabi_dcmpun+0x10>
 8000b76:	ea50 3c01 	orrs.w	ip, r0, r1, lsl #12
 8000b7a:	d10a      	bne.n	8000b92 <__aeabi_dcmpun+0x26>
 8000b7c:	ea4f 0c43 	mov.w	ip, r3, lsl #1
 8000b80:	ea7f 5c6c 	mvns.w	ip, ip, asr #21
 8000b84:	d102      	bne.n	8000b8c <__aeabi_dcmpun+0x20>
 8000b86:	ea52 3c03 	orrs.w	ip, r2, r3, lsl #12
 8000b8a:	d102      	bne.n	8000b92 <__aeabi_dcmpun+0x26>
 8000b8c:	f04f 0000 	mov.w	r0, #0
 8000b90:	4770      	bx	lr
 8000b92:	f04f 0001 	mov.w	r0, #1
 8000b96:	4770      	bx	lr

08000b98 <__aeabi_d2iz>:
 8000b98:	ea4f 0241 	mov.w	r2, r1, lsl #1
 8000b9c:	f512 1200 	adds.w	r2, r2, #2097152	; 0x200000
 8000ba0:	d215      	bcs.n	8000bce <__aeabi_d2iz+0x36>
 8000ba2:	d511      	bpl.n	8000bc8 <__aeabi_d2iz+0x30>
 8000ba4:	f46f 7378 	mvn.w	r3, #992	; 0x3e0
 8000ba8:	ebb3 5262 	subs.w	r2, r3, r2, asr #21
 8000bac:	d912      	bls.n	8000bd4 <__aeabi_d2iz+0x3c>
 8000bae:	ea4f 23c1 	mov.w	r3, r1, lsl #11
 8000bb2:	f043 4300 	orr.w	r3, r3, #2147483648	; 0x80000000
 8000bb6:	ea43 5350 	orr.w	r3, r3, r0, lsr #21
 8000bba:	f011 4f00 	tst.w	r1, #2147483648	; 0x80000000
 8000bbe:	fa23 f002 	lsr.w	r0, r3, r2
 8000bc2:	bf18      	it	ne
 8000bc4:	4240      	negne	r0, r0
 8000bc6:	4770      	bx	lr
 8000bc8:	f04f 0000 	mov.w	r0, #0
 8000bcc:	4770      	bx	lr
 8000bce:	ea50 3001 	orrs.w	r0, r0, r1, lsl #12
 8000bd2:	d105      	bne.n	8000be0 <__aeabi_d2iz+0x48>
 8000bd4:	f011 4000 	ands.w	r0, r1, #2147483648	; 0x80000000
 8000bd8:	bf08      	it	eq
 8000bda:	f06f 4000 	mvneq.w	r0, #2147483648	; 0x80000000
 8000bde:	4770      	bx	lr
 8000be0:	f04f 0000 	mov.w	r0, #0
 8000be4:	4770      	bx	lr
 8000be6:	bf00      	nop

08000be8 <__aeabi_d2f>:
 8000be8:	ea4f 0241 	mov.w	r2, r1, lsl #1
 8000bec:	f1b2 43e0 	subs.w	r3, r2, #1879048192	; 0x70000000
 8000bf0:	bf24      	itt	cs
 8000bf2:	f5b3 1c00 	subscs.w	ip, r3, #2097152	; 0x200000
 8000bf6:	f1dc 5cfe 	rsbscs	ip, ip, #532676608	; 0x1fc00000
 8000bfa:	d90d      	bls.n	8000c18 <__aeabi_d2f+0x30>
 8000bfc:	f001 4c00 	and.w	ip, r1, #2147483648	; 0x80000000
 8000c00:	ea4f 02c0 	mov.w	r2, r0, lsl #3
 8000c04:	ea4c 7050 	orr.w	r0, ip, r0, lsr #29
 8000c08:	f1b2 4f00 	cmp.w	r2, #2147483648	; 0x80000000
 8000c0c:	eb40 0083 	adc.w	r0, r0, r3, lsl #2
 8000c10:	bf08      	it	eq
 8000c12:	f020 0001 	biceq.w	r0, r0, #1
 8000c16:	4770      	bx	lr
 8000c18:	f011 4f80 	tst.w	r1, #1073741824	; 0x40000000
 8000c1c:	d121      	bne.n	8000c62 <__aeabi_d2f+0x7a>
 8000c1e:	f113 7238 	adds.w	r2, r3, #48234496	; 0x2e00000
 8000c22:	bfbc      	itt	lt
 8000c24:	f001 4000 	andlt.w	r0, r1, #2147483648	; 0x80000000
 8000c28:	4770      	bxlt	lr
 8000c2a:	f441 1180 	orr.w	r1, r1, #1048576	; 0x100000
 8000c2e:	ea4f 5252 	mov.w	r2, r2, lsr #21
 8000c32:	f1c2 0218 	rsb	r2, r2, #24
 8000c36:	f1c2 0c20 	rsb	ip, r2, #32
 8000c3a:	fa10 f30c 	lsls.w	r3, r0, ip
 8000c3e:	fa20 f002 	lsr.w	r0, r0, r2
 8000c42:	bf18      	it	ne
 8000c44:	f040 0001 	orrne.w	r0, r0, #1
 8000c48:	ea4f 23c1 	mov.w	r3, r1, lsl #11
 8000c4c:	ea4f 23d3 	mov.w	r3, r3, lsr #11
 8000c50:	fa03 fc0c 	lsl.w	ip, r3, ip
 8000c54:	ea40 000c 	orr.w	r0, r0, ip
 8000c58:	fa23 f302 	lsr.w	r3, r3, r2
 8000c5c:	ea4f 0343 	mov.w	r3, r3, lsl #1
 8000c60:	e7cc      	b.n	8000bfc <__aeabi_d2f+0x14>
 8000c62:	ea7f 5362 	mvns.w	r3, r2, asr #21
 8000c66:	d107      	bne.n	8000c78 <__aeabi_d2f+0x90>
 8000c68:	ea50 3301 	orrs.w	r3, r0, r1, lsl #12
 8000c6c:	bf1e      	ittt	ne
 8000c6e:	f04f 40fe 	movne.w	r0, #2130706432	; 0x7f000000
 8000c72:	f440 0040 	orrne.w	r0, r0, #12582912	; 0xc00000
 8000c76:	4770      	bxne	lr
 8000c78:	f001 4000 	and.w	r0, r1, #2147483648	; 0x80000000
 8000c7c:	f040 40fe 	orr.w	r0, r0, #2130706432	; 0x7f000000
 8000c80:	f440 0000 	orr.w	r0, r0, #8388608	; 0x800000
 8000c84:	4770      	bx	lr
 8000c86:	bf00      	nop

08000c88 <__aeabi_uldivmod>:
 8000c88:	b953      	cbnz	r3, 8000ca0 <__aeabi_uldivmod+0x18>
 8000c8a:	b94a      	cbnz	r2, 8000ca0 <__aeabi_uldivmod+0x18>
 8000c8c:	2900      	cmp	r1, #0
 8000c8e:	bf08      	it	eq
 8000c90:	2800      	cmpeq	r0, #0
 8000c92:	bf1c      	itt	ne
 8000c94:	f04f 31ff 	movne.w	r1, #4294967295
 8000c98:	f04f 30ff 	movne.w	r0, #4294967295
 8000c9c:	f000 b972 	b.w	8000f84 <__aeabi_idiv0>
 8000ca0:	f1ad 0c08 	sub.w	ip, sp, #8
 8000ca4:	e96d ce04 	strd	ip, lr, [sp, #-16]!
 8000ca8:	f000 f806 	bl	8000cb8 <__udivmoddi4>
 8000cac:	f8dd e004 	ldr.w	lr, [sp, #4]
 8000cb0:	e9dd 2302 	ldrd	r2, r3, [sp, #8]
 8000cb4:	b004      	add	sp, #16
 8000cb6:	4770      	bx	lr

08000cb8 <__udivmoddi4>:
 8000cb8:	e92d 47f0 	stmdb	sp!, {r4, r5, r6, r7, r8, r9, sl, lr}
 8000cbc:	9e08      	ldr	r6, [sp, #32]
 8000cbe:	4604      	mov	r4, r0
 8000cc0:	4688      	mov	r8, r1
 8000cc2:	2b00      	cmp	r3, #0
 8000cc4:	d14b      	bne.n	8000d5e <__udivmoddi4+0xa6>
 8000cc6:	428a      	cmp	r2, r1
 8000cc8:	4615      	mov	r5, r2
 8000cca:	d967      	bls.n	8000d9c <__udivmoddi4+0xe4>
 8000ccc:	fab2 f282 	clz	r2, r2
 8000cd0:	b14a      	cbz	r2, 8000ce6 <__udivmoddi4+0x2e>
 8000cd2:	f1c2 0720 	rsb	r7, r2, #32
 8000cd6:	fa01 f302 	lsl.w	r3, r1, r2
 8000cda:	fa20 f707 	lsr.w	r7, r0, r7
 8000cde:	4095      	lsls	r5, r2
 8000ce0:	ea47 0803 	orr.w	r8, r7, r3
 8000ce4:	4094      	lsls	r4, r2
 8000ce6:	ea4f 4e15 	mov.w	lr, r5, lsr #16
 8000cea:	0c23      	lsrs	r3, r4, #16
 8000cec:	fbb8 f7fe 	udiv	r7, r8, lr
 8000cf0:	fa1f fc85 	uxth.w	ip, r5
 8000cf4:	fb0e 8817 	mls	r8, lr, r7, r8
 8000cf8:	ea43 4308 	orr.w	r3, r3, r8, lsl #16
 8000cfc:	fb07 f10c 	mul.w	r1, r7, ip
 8000d00:	4299      	cmp	r1, r3
 8000d02:	d909      	bls.n	8000d18 <__udivmoddi4+0x60>
 8000d04:	18eb      	adds	r3, r5, r3
 8000d06:	f107 30ff 	add.w	r0, r7, #4294967295
 8000d0a:	f080 811b 	bcs.w	8000f44 <__udivmoddi4+0x28c>
 8000d0e:	4299      	cmp	r1, r3
 8000d10:	f240 8118 	bls.w	8000f44 <__udivmoddi4+0x28c>
 8000d14:	3f02      	subs	r7, #2
 8000d16:	442b      	add	r3, r5
 8000d18:	1a5b      	subs	r3, r3, r1
 8000d1a:	b2a4      	uxth	r4, r4
 8000d1c:	fbb3 f0fe 	udiv	r0, r3, lr
 8000d20:	fb0e 3310 	mls	r3, lr, r0, r3
 8000d24:	ea44 4403 	orr.w	r4, r4, r3, lsl #16
 8000d28:	fb00 fc0c 	mul.w	ip, r0, ip
 8000d2c:	45a4      	cmp	ip, r4
 8000d2e:	d909      	bls.n	8000d44 <__udivmoddi4+0x8c>
 8000d30:	192c      	adds	r4, r5, r4
 8000d32:	f100 33ff 	add.w	r3, r0, #4294967295
 8000d36:	f080 8107 	bcs.w	8000f48 <__udivmoddi4+0x290>
 8000d3a:	45a4      	cmp	ip, r4
 8000d3c:	f240 8104 	bls.w	8000f48 <__udivmoddi4+0x290>
 8000d40:	3802      	subs	r0, #2
 8000d42:	442c      	add	r4, r5
 8000d44:	ea40 4007 	orr.w	r0, r0, r7, lsl #16
 8000d48:	eba4 040c 	sub.w	r4, r4, ip
 8000d4c:	2700      	movs	r7, #0
 8000d4e:	b11e      	cbz	r6, 8000d58 <__udivmoddi4+0xa0>
 8000d50:	40d4      	lsrs	r4, r2
 8000d52:	2300      	movs	r3, #0
 8000d54:	e9c6 4300 	strd	r4, r3, [r6]
 8000d58:	4639      	mov	r1, r7
 8000d5a:	e8bd 87f0 	ldmia.w	sp!, {r4, r5, r6, r7, r8, r9, sl, pc}
 8000d5e:	428b      	cmp	r3, r1
 8000d60:	d909      	bls.n	8000d76 <__udivmoddi4+0xbe>
 8000d62:	2e00      	cmp	r6, #0
 8000d64:	f000 80eb 	beq.w	8000f3e <__udivmoddi4+0x286>
 8000d68:	2700      	movs	r7, #0
 8000d6a:	e9c6 0100 	strd	r0, r1, [r6]
 8000d6e:	4638      	mov	r0, r7
 8000d70:	4639      	mov	r1, r7
 8000d72:	e8bd 87f0 	ldmia.w	sp!, {r4, r5, r6, r7, r8, r9, sl, pc}
 8000d76:	fab3 f783 	clz	r7, r3
 8000d7a:	2f00      	cmp	r7, #0
 8000d7c:	d147      	bne.n	8000e0e <__udivmoddi4+0x156>
 8000d7e:	428b      	cmp	r3, r1
 8000d80:	d302      	bcc.n	8000d88 <__udivmoddi4+0xd0>
 8000d82:	4282      	cmp	r2, r0
 8000d84:	f200 80fa 	bhi.w	8000f7c <__udivmoddi4+0x2c4>
 8000d88:	1a84      	subs	r4, r0, r2
 8000d8a:	eb61 0303 	sbc.w	r3, r1, r3
 8000d8e:	2001      	movs	r0, #1
 8000d90:	4698      	mov	r8, r3
 8000d92:	2e00      	cmp	r6, #0
 8000d94:	d0e0      	beq.n	8000d58 <__udivmoddi4+0xa0>
 8000d96:	e9c6 4800 	strd	r4, r8, [r6]
 8000d9a:	e7dd      	b.n	8000d58 <__udivmoddi4+0xa0>
 8000d9c:	b902      	cbnz	r2, 8000da0 <__udivmoddi4+0xe8>
 8000d9e:	deff      	udf	#255	; 0xff
 8000da0:	fab2 f282 	clz	r2, r2
 8000da4:	2a00      	cmp	r2, #0
 8000da6:	f040 808f 	bne.w	8000ec8 <__udivmoddi4+0x210>
 8000daa:	1b49      	subs	r1, r1, r5
 8000dac:	ea4f 4e15 	mov.w	lr, r5, lsr #16
 8000db0:	fa1f f885 	uxth.w	r8, r5
 8000db4:	2701      	movs	r7, #1
 8000db6:	fbb1 fcfe 	udiv	ip, r1, lr
 8000dba:	0c23      	lsrs	r3, r4, #16
 8000dbc:	fb0e 111c 	mls	r1, lr, ip, r1
 8000dc0:	ea43 4301 	orr.w	r3, r3, r1, lsl #16
 8000dc4:	fb08 f10c 	mul.w	r1, r8, ip
 8000dc8:	4299      	cmp	r1, r3
 8000dca:	d907      	bls.n	8000ddc <__udivmoddi4+0x124>
 8000dcc:	18eb      	adds	r3, r5, r3
 8000dce:	f10c 30ff 	add.w	r0, ip, #4294967295
 8000dd2:	d202      	bcs.n	8000dda <__udivmoddi4+0x122>
 8000dd4:	4299      	cmp	r1, r3
 8000dd6:	f200 80cd 	bhi.w	8000f74 <__udivmoddi4+0x2bc>
 8000dda:	4684      	mov	ip, r0
 8000ddc:	1a59      	subs	r1, r3, r1
 8000dde:	b2a3      	uxth	r3, r4
 8000de0:	fbb1 f0fe 	udiv	r0, r1, lr
 8000de4:	fb0e 1410 	mls	r4, lr, r0, r1
 8000de8:	ea43 4404 	orr.w	r4, r3, r4, lsl #16
 8000dec:	fb08 f800 	mul.w	r8, r8, r0
 8000df0:	45a0      	cmp	r8, r4
 8000df2:	d907      	bls.n	8000e04 <__udivmoddi4+0x14c>
 8000df4:	192c      	adds	r4, r5, r4
 8000df6:	f100 33ff 	add.w	r3, r0, #4294967295
 8000dfa:	d202      	bcs.n	8000e02 <__udivmoddi4+0x14a>
 8000dfc:	45a0      	cmp	r8, r4
 8000dfe:	f200 80b6 	bhi.w	8000f6e <__udivmoddi4+0x2b6>
 8000e02:	4618      	mov	r0, r3
 8000e04:	eba4 0408 	sub.w	r4, r4, r8
 8000e08:	ea40 400c 	orr.w	r0, r0, ip, lsl #16
 8000e0c:	e79f      	b.n	8000d4e <__udivmoddi4+0x96>
 8000e0e:	f1c7 0c20 	rsb	ip, r7, #32
 8000e12:	40bb      	lsls	r3, r7
 8000e14:	fa22 fe0c 	lsr.w	lr, r2, ip
 8000e18:	ea4e 0e03 	orr.w	lr, lr, r3
 8000e1c:	fa01 f407 	lsl.w	r4, r1, r7
 8000e20:	fa20 f50c 	lsr.w	r5, r0, ip
 8000e24:	fa21 f30c 	lsr.w	r3, r1, ip
 8000e28:	ea4f 481e 	mov.w	r8, lr, lsr #16
 8000e2c:	4325      	orrs	r5, r4
 8000e2e:	fbb3 f9f8 	udiv	r9, r3, r8
 8000e32:	0c2c      	lsrs	r4, r5, #16
 8000e34:	fb08 3319 	mls	r3, r8, r9, r3
 8000e38:	fa1f fa8e 	uxth.w	sl, lr
 8000e3c:	ea44 4303 	orr.w	r3, r4, r3, lsl #16
 8000e40:	fb09 f40a 	mul.w	r4, r9, sl
 8000e44:	429c      	cmp	r4, r3
 8000e46:	fa02 f207 	lsl.w	r2, r2, r7
 8000e4a:	fa00 f107 	lsl.w	r1, r0, r7
 8000e4e:	d90b      	bls.n	8000e68 <__udivmoddi4+0x1b0>
 8000e50:	eb1e 0303 	adds.w	r3, lr, r3
 8000e54:	f109 30ff 	add.w	r0, r9, #4294967295
 8000e58:	f080 8087 	bcs.w	8000f6a <__udivmoddi4+0x2b2>
 8000e5c:	429c      	cmp	r4, r3
 8000e5e:	f240 8084 	bls.w	8000f6a <__udivmoddi4+0x2b2>
 8000e62:	f1a9 0902 	sub.w	r9, r9, #2
 8000e66:	4473      	add	r3, lr
 8000e68:	1b1b      	subs	r3, r3, r4
 8000e6a:	b2ad      	uxth	r5, r5
 8000e6c:	fbb3 f0f8 	udiv	r0, r3, r8
 8000e70:	fb08 3310 	mls	r3, r8, r0, r3
 8000e74:	ea45 4403 	orr.w	r4, r5, r3, lsl #16
 8000e78:	fb00 fa0a 	mul.w	sl, r0, sl
 8000e7c:	45a2      	cmp	sl, r4
 8000e7e:	d908      	bls.n	8000e92 <__udivmoddi4+0x1da>
 8000e80:	eb1e 0404 	adds.w	r4, lr, r4
 8000e84:	f100 33ff 	add.w	r3, r0, #4294967295
 8000e88:	d26b      	bcs.n	8000f62 <__udivmoddi4+0x2aa>
 8000e8a:	45a2      	cmp	sl, r4
 8000e8c:	d969      	bls.n	8000f62 <__udivmoddi4+0x2aa>
 8000e8e:	3802      	subs	r0, #2
 8000e90:	4474      	add	r4, lr
 8000e92:	ea40 4009 	orr.w	r0, r0, r9, lsl #16
 8000e96:	fba0 8902 	umull	r8, r9, r0, r2
 8000e9a:	eba4 040a 	sub.w	r4, r4, sl
 8000e9e:	454c      	cmp	r4, r9
 8000ea0:	46c2      	mov	sl, r8
 8000ea2:	464b      	mov	r3, r9
 8000ea4:	d354      	bcc.n	8000f50 <__udivmoddi4+0x298>
 8000ea6:	d051      	beq.n	8000f4c <__udivmoddi4+0x294>
 8000ea8:	2e00      	cmp	r6, #0
 8000eaa:	d069      	beq.n	8000f80 <__udivmoddi4+0x2c8>
 8000eac:	ebb1 050a 	subs.w	r5, r1, sl
 8000eb0:	eb64 0403 	sbc.w	r4, r4, r3
 8000eb4:	fa04 fc0c 	lsl.w	ip, r4, ip
 8000eb8:	40fd      	lsrs	r5, r7
 8000eba:	40fc      	lsrs	r4, r7
 8000ebc:	ea4c 0505 	orr.w	r5, ip, r5
 8000ec0:	e9c6 5400 	strd	r5, r4, [r6]
 8000ec4:	2700      	movs	r7, #0
 8000ec6:	e747      	b.n	8000d58 <__udivmoddi4+0xa0>
 8000ec8:	f1c2 0320 	rsb	r3, r2, #32
 8000ecc:	fa20 f703 	lsr.w	r7, r0, r3
 8000ed0:	4095      	lsls	r5, r2
 8000ed2:	fa01 f002 	lsl.w	r0, r1, r2
 8000ed6:	fa21 f303 	lsr.w	r3, r1, r3
 8000eda:	ea4f 4e15 	mov.w	lr, r5, lsr #16
 8000ede:	4338      	orrs	r0, r7
 8000ee0:	0c01      	lsrs	r1, r0, #16
 8000ee2:	fbb3 f7fe 	udiv	r7, r3, lr
 8000ee6:	fa1f f885 	uxth.w	r8, r5
 8000eea:	fb0e 3317 	mls	r3, lr, r7, r3
 8000eee:	ea41 4103 	orr.w	r1, r1, r3, lsl #16
 8000ef2:	fb07 f308 	mul.w	r3, r7, r8
 8000ef6:	428b      	cmp	r3, r1
 8000ef8:	fa04 f402 	lsl.w	r4, r4, r2
 8000efc:	d907      	bls.n	8000f0e <__udivmoddi4+0x256>
 8000efe:	1869      	adds	r1, r5, r1
 8000f00:	f107 3cff 	add.w	ip, r7, #4294967295
 8000f04:	d22f      	bcs.n	8000f66 <__udivmoddi4+0x2ae>
 8000f06:	428b      	cmp	r3, r1
 8000f08:	d92d      	bls.n	8000f66 <__udivmoddi4+0x2ae>
 8000f0a:	3f02      	subs	r7, #2
 8000f0c:	4429      	add	r1, r5
 8000f0e:	1acb      	subs	r3, r1, r3
 8000f10:	b281      	uxth	r1, r0
 8000f12:	fbb3 f0fe 	udiv	r0, r3, lr
 8000f16:	fb0e 3310 	mls	r3, lr, r0, r3
 8000f1a:	ea41 4103 	orr.w	r1, r1, r3, lsl #16
 8000f1e:	fb00 f308 	mul.w	r3, r0, r8
 8000f22:	428b      	cmp	r3, r1
 8000f24:	d907      	bls.n	8000f36 <__udivmoddi4+0x27e>
 8000f26:	1869      	adds	r1, r5, r1
 8000f28:	f100 3cff 	add.w	ip, r0, #4294967295
 8000f2c:	d217      	bcs.n	8000f5e <__udivmoddi4+0x2a6>
 8000f2e:	428b      	cmp	r3, r1
 8000f30:	d915      	bls.n	8000f5e <__udivmoddi4+0x2a6>
 8000f32:	3802      	subs	r0, #2
 8000f34:	4429      	add	r1, r5
 8000f36:	1ac9      	subs	r1, r1, r3
 8000f38:	ea40 4707 	orr.w	r7, r0, r7, lsl #16
 8000f3c:	e73b      	b.n	8000db6 <__udivmoddi4+0xfe>
 8000f3e:	4637      	mov	r7, r6
 8000f40:	4630      	mov	r0, r6
 8000f42:	e709      	b.n	8000d58 <__udivmoddi4+0xa0>
 8000f44:	4607      	mov	r7, r0
 8000f46:	e6e7      	b.n	8000d18 <__udivmoddi4+0x60>
 8000f48:	4618      	mov	r0, r3
 8000f4a:	e6fb      	b.n	8000d44 <__udivmoddi4+0x8c>
 8000f4c:	4541      	cmp	r1, r8
 8000f4e:	d2ab      	bcs.n	8000ea8 <__udivmoddi4+0x1f0>
 8000f50:	ebb8 0a02 	subs.w	sl, r8, r2
 8000f54:	eb69 020e 	sbc.w	r2, r9, lr
 8000f58:	3801      	subs	r0, #1
 8000f5a:	4613      	mov	r3, r2
 8000f5c:	e7a4      	b.n	8000ea8 <__udivmoddi4+0x1f0>
 8000f5e:	4660      	mov	r0, ip
 8000f60:	e7e9      	b.n	8000f36 <__udivmoddi4+0x27e>
 8000f62:	4618      	mov	r0, r3
 8000f64:	e795      	b.n	8000e92 <__udivmoddi4+0x1da>
 8000f66:	4667      	mov	r7, ip
 8000f68:	e7d1      	b.n	8000f0e <__udivmoddi4+0x256>
 8000f6a:	4681      	mov	r9, r0
 8000f6c:	e77c      	b.n	8000e68 <__udivmoddi4+0x1b0>
 8000f6e:	3802      	subs	r0, #2
 8000f70:	442c      	add	r4, r5
 8000f72:	e747      	b.n	8000e04 <__udivmoddi4+0x14c>
 8000f74:	f1ac 0c02 	sub.w	ip, ip, #2
 8000f78:	442b      	add	r3, r5
 8000f7a:	e72f      	b.n	8000ddc <__udivmoddi4+0x124>
 8000f7c:	4638      	mov	r0, r7
 8000f7e:	e708      	b.n	8000d92 <__udivmoddi4+0xda>
 8000f80:	4637      	mov	r7, r6
 8000f82:	e6e9      	b.n	8000d58 <__udivmoddi4+0xa0>

08000f84 <__aeabi_idiv0>:
 8000f84:	4770      	bx	lr
 8000f86:	bf00      	nop

08000f88 <main>:
/**
  * @brief  The application entry point.
  * @retval int
  */
int main(void)
{
 8000f88:	b590      	push	{r4, r7, lr}
 8000f8a:	b0a3      	sub	sp, #140	; 0x8c
 8000f8c:	af00      	add	r7, sp, #0
  /* USER CODE BEGIN 1 */
  uint16_t raw;
  //float scaled;
  char msg[16];
  char time[32];
  int curr = 0;
 8000f8e:	2300      	movs	r3, #0
 8000f90:	67bb      	str	r3, [r7, #120]	; 0x78
  int i = 0;
 8000f92:	2300      	movs	r3, #0
 8000f94:	67fb      	str	r3, [r7, #124]	; 0x7c
  int state = 0;
 8000f96:	2300      	movs	r3, #0
 8000f98:	f8c7 3080 	str.w	r3, [r7, #128]	; 0x80
  int prev = 1;
 8000f9c:	2301      	movs	r3, #1
 8000f9e:	f8c7 3084 	str.w	r3, [r7, #132]	; 0x84
  int index = 0;
 8000fa2:	2300      	movs	r3, #0
 8000fa4:	677b      	str	r3, [r7, #116]	; 0x74
  int pass = 0;
 8000fa6:	2300      	movs	r3, #0
 8000fa8:	673b      	str	r3, [r7, #112]	; 0x70
  int LD_ON_TIME = 15000;
 8000faa:	f643 2398 	movw	r3, #15000	; 0x3a98
 8000fae:	66bb      	str	r3, [r7, #104]	; 0x68
  int BKGND_TIME = 0;
 8000fb0:	2300      	movs	r3, #0
 8000fb2:	667b      	str	r3, [r7, #100]	; 0x64
  int num_samples = LD_ON_TIME + (2*BKGND_TIME);
 8000fb4:	6e7b      	ldr	r3, [r7, #100]	; 0x64
 8000fb6:	005b      	lsls	r3, r3, #1
 8000fb8:	6eba      	ldr	r2, [r7, #104]	; 0x68
 8000fba:	4413      	add	r3, r2
 8000fbc:	663b      	str	r3, [r7, #96]	; 0x60
  float arr[num_samples];
 8000fbe:	6e38      	ldr	r0, [r7, #96]	; 0x60
 8000fc0:	1e43      	subs	r3, r0, #1
 8000fc2:	65fb      	str	r3, [r7, #92]	; 0x5c
 8000fc4:	4603      	mov	r3, r0
 8000fc6:	4619      	mov	r1, r3
 8000fc8:	f04f 0200 	mov.w	r2, #0
 8000fcc:	f04f 0300 	mov.w	r3, #0
 8000fd0:	f04f 0400 	mov.w	r4, #0
 8000fd4:	0154      	lsls	r4, r2, #5
 8000fd6:	ea44 64d1 	orr.w	r4, r4, r1, lsr #27
 8000fda:	014b      	lsls	r3, r1, #5
 8000fdc:	4603      	mov	r3, r0
 8000fde:	4619      	mov	r1, r3
 8000fe0:	f04f 0200 	mov.w	r2, #0
 8000fe4:	f04f 0300 	mov.w	r3, #0
 8000fe8:	f04f 0400 	mov.w	r4, #0
 8000fec:	0154      	lsls	r4, r2, #5
 8000fee:	ea44 64d1 	orr.w	r4, r4, r1, lsr #27
 8000ff2:	014b      	lsls	r3, r1, #5
 8000ff4:	4603      	mov	r3, r0
 8000ff6:	009b      	lsls	r3, r3, #2
 8000ff8:	3303      	adds	r3, #3
 8000ffa:	3307      	adds	r3, #7
 8000ffc:	08db      	lsrs	r3, r3, #3
 8000ffe:	00db      	lsls	r3, r3, #3
 8001000:	ebad 0d03 	sub.w	sp, sp, r3
 8001004:	466b      	mov	r3, sp
 8001006:	3303      	adds	r3, #3
 8001008:	089b      	lsrs	r3, r3, #2
 800100a:	009b      	lsls	r3, r3, #2
 800100c:	65bb      	str	r3, [r7, #88]	; 0x58
  uint32_t times[num_samples];
 800100e:	6e38      	ldr	r0, [r7, #96]	; 0x60
 8001010:	1e43      	subs	r3, r0, #1
 8001012:	657b      	str	r3, [r7, #84]	; 0x54
 8001014:	4603      	mov	r3, r0
 8001016:	4619      	mov	r1, r3
 8001018:	f04f 0200 	mov.w	r2, #0
 800101c:	f04f 0300 	mov.w	r3, #0
 8001020:	f04f 0400 	mov.w	r4, #0
 8001024:	0154      	lsls	r4, r2, #5
 8001026:	ea44 64d1 	orr.w	r4, r4, r1, lsr #27
 800102a:	014b      	lsls	r3, r1, #5
 800102c:	4603      	mov	r3, r0
 800102e:	4619      	mov	r1, r3
 8001030:	f04f 0200 	mov.w	r2, #0
 8001034:	f04f 0300 	mov.w	r3, #0
 8001038:	f04f 0400 	mov.w	r4, #0
 800103c:	0154      	lsls	r4, r2, #5
 800103e:	ea44 64d1 	orr.w	r4, r4, r1, lsr #27
 8001042:	014b      	lsls	r3, r1, #5
 8001044:	4603      	mov	r3, r0
 8001046:	009b      	lsls	r3, r3, #2
 8001048:	3303      	adds	r3, #3
 800104a:	3307      	adds	r3, #7
 800104c:	08db      	lsrs	r3, r3, #3
 800104e:	00db      	lsls	r3, r3, #3
 8001050:	ebad 0d03 	sub.w	sp, sp, r3
 8001054:	466b      	mov	r3, sp
 8001056:	3303      	adds	r3, #3
 8001058:	089b      	lsrs	r3, r3, #2
 800105a:	009b      	lsls	r3, r3, #2
 800105c:	653b      	str	r3, [r7, #80]	; 0x50
  int num_passes = 0;
 800105e:	2300      	movs	r3, #0
 8001060:	64fb      	str	r3, [r7, #76]	; 0x4c
  volatile unsigned int *DWT_CYCCNT = (volatile unsigned int*)0xE0001004;
 8001062:	4bb1      	ldr	r3, [pc, #708]	; (8001328 <main+0x3a0>)
 8001064:	64bb      	str	r3, [r7, #72]	; 0x48
  volatile unsigned int *DWT_CONTROL = (volatile unsigned int*)0xE0001000;
 8001066:	4bb1      	ldr	r3, [pc, #708]	; (800132c <main+0x3a4>)
 8001068:	647b      	str	r3, [r7, #68]	; 0x44
  volatile unsigned int *DWT_LAR = (volatile unsigned int*)0xE0001FB0;
 800106a:	4bb1      	ldr	r3, [pc, #708]	; (8001330 <main+0x3a8>)
 800106c:	643b      	str	r3, [r7, #64]	; 0x40
  volatile unsigned int *SCB_DEMCR = (volatile unsigned int*)0xE000EDFC;
 800106e:	4bb1      	ldr	r3, [pc, #708]	; (8001334 <main+0x3ac>)
 8001070:	63fb      	str	r3, [r7, #60]	; 0x3c
  *DWT_LAR = 0xC5ACCE55;
 8001072:	6c3b      	ldr	r3, [r7, #64]	; 0x40
 8001074:	4ab0      	ldr	r2, [pc, #704]	; (8001338 <main+0x3b0>)
 8001076:	601a      	str	r2, [r3, #0]
  *SCB_DEMCR |= 0x01000000;
 8001078:	6bfb      	ldr	r3, [r7, #60]	; 0x3c
 800107a:	681b      	ldr	r3, [r3, #0]
 800107c:	f043 7280 	orr.w	r2, r3, #16777216	; 0x1000000
 8001080:	6bfb      	ldr	r3, [r7, #60]	; 0x3c
 8001082:	601a      	str	r2, [r3, #0]
  *DWT_CYCCNT = 0;
 8001084:	6cbb      	ldr	r3, [r7, #72]	; 0x48
 8001086:	2200      	movs	r2, #0
 8001088:	601a      	str	r2, [r3, #0]
  *DWT_CONTROL |= 1;
 800108a:	6c7b      	ldr	r3, [r7, #68]	; 0x44
 800108c:	681b      	ldr	r3, [r3, #0]
 800108e:	f043 0201 	orr.w	r2, r3, #1
 8001092:	6c7b      	ldr	r3, [r7, #68]	; 0x44
 8001094:	601a      	str	r2, [r3, #0]
  /* USER CODE END 1 */

  /* MCU Configuration--------------------------------------------------------*/

  /* Reset of all peripherals, Initializes the Flash interface and the Systick. */
  HAL_Init();
 8001096:	f000 fc19 	bl	80018cc <HAL_Init>
  /* USER CODE BEGIN Init */

  /* USER CODE END Init */

  /* Configure the system clock */
  SystemClock_Config();
 800109a:	f000 f95b 	bl	8001354 <SystemClock_Config>
  /* USER CODE BEGIN SysInit */

  /* USER CODE END SysInit */

  /* Initialize all configured peripherals */
  MX_GPIO_Init();
 800109e:	f000 fa43 	bl	8001528 <MX_GPIO_Init>
  MX_USART2_UART_Init();
 80010a2:	f000 fa17 	bl	80014d4 <MX_USART2_UART_Init>
  MX_ADC1_Init();
 80010a6:	f000 f9c3 	bl	8001430 <MX_ADC1_Init>
  /* Infinite loop */
  /* USER CODE BEGIN WHILE */
  while (1)
  {

	if (curr != prev) {
 80010aa:	6fba      	ldr	r2, [r7, #120]	; 0x78
 80010ac:	f8d7 3084 	ldr.w	r3, [r7, #132]	; 0x84
 80010b0:	429a      	cmp	r2, r3
 80010b2:	d012      	beq.n	80010da <main+0x152>
	  if (curr == 1) {
 80010b4:	6fbb      	ldr	r3, [r7, #120]	; 0x78
 80010b6:	2b01      	cmp	r3, #1
 80010b8:	d106      	bne.n	80010c8 <main+0x140>
	  	HAL_GPIO_WritePin(GPIOA, GPIO_PIN_10, GPIO_PIN_SET);
 80010ba:	2201      	movs	r2, #1
 80010bc:	f44f 6180 	mov.w	r1, #1024	; 0x400
 80010c0:	489e      	ldr	r0, [pc, #632]	; (800133c <main+0x3b4>)
 80010c2:	f001 fad9 	bl	8002678 <HAL_GPIO_WritePin>
 80010c6:	e005      	b.n	80010d4 <main+0x14c>
	  } else {
	  	HAL_GPIO_WritePin(GPIOA, GPIO_PIN_10, GPIO_PIN_RESET);
 80010c8:	2200      	movs	r2, #0
 80010ca:	f44f 6180 	mov.w	r1, #1024	; 0x400
 80010ce:	489b      	ldr	r0, [pc, #620]	; (800133c <main+0x3b4>)
 80010d0:	f001 fad2 	bl	8002678 <HAL_GPIO_WritePin>
	  }
	  prev = curr;
 80010d4:	6fbb      	ldr	r3, [r7, #120]	; 0x78
 80010d6:	f8c7 3084 	str.w	r3, [r7, #132]	; 0x84
	}
	if (state == 1) {
 80010da:	f8d7 3080 	ldr.w	r3, [r7, #128]	; 0x80
 80010de:	2b01      	cmp	r3, #1
 80010e0:	d16f      	bne.n	80011c2 <main+0x23a>
		pass += 1;
 80010e2:	6f3b      	ldr	r3, [r7, #112]	; 0x70
 80010e4:	3301      	adds	r3, #1
 80010e6:	673b      	str	r3, [r7, #112]	; 0x70
		if (pass <= num_passes) {
 80010e8:	6f3a      	ldr	r2, [r7, #112]	; 0x70
 80010ea:	6cfb      	ldr	r3, [r7, #76]	; 0x4c
 80010ec:	429a      	cmp	r2, r3
 80010ee:	dc10      	bgt.n	8001112 <main+0x18a>
			curr = 0;
 80010f0:	2300      	movs	r3, #0
 80010f2:	67bb      	str	r3, [r7, #120]	; 0x78
	  		i = 0;
 80010f4:	2300      	movs	r3, #0
 80010f6:	67fb      	str	r3, [r7, #124]	; 0x7c
	  		state = 0;
 80010f8:	2300      	movs	r3, #0
 80010fa:	f8c7 3080 	str.w	r3, [r7, #128]	; 0x80
	  		prev = 0;
 80010fe:	2300      	movs	r3, #0
 8001100:	f8c7 3084 	str.w	r3, [r7, #132]	; 0x84
	  		index = 0;
 8001104:	2300      	movs	r3, #0
 8001106:	677b      	str	r3, [r7, #116]	; 0x74
	  		HAL_Delay(500);
 8001108:	f44f 70fa 	mov.w	r0, #500	; 0x1f4
 800110c:	f000 fc50 	bl	80019b0 <HAL_Delay>
 8001110:	e057      	b.n	80011c2 <main+0x23a>
	  	} else {
	  		float val;
	  		for (int j = 0; j < num_samples; j+=1){
 8001112:	2300      	movs	r3, #0
 8001114:	66fb      	str	r3, [r7, #108]	; 0x6c
 8001116:	e04f      	b.n	80011b8 <main+0x230>
	  			val = 3.3 * arr[j] / 4096;
 8001118:	6dba      	ldr	r2, [r7, #88]	; 0x58
 800111a:	6efb      	ldr	r3, [r7, #108]	; 0x6c
 800111c:	009b      	lsls	r3, r3, #2
 800111e:	4413      	add	r3, r2
 8001120:	681b      	ldr	r3, [r3, #0]
 8001122:	4618      	mov	r0, r3
 8001124:	f7ff fa30 	bl	8000588 <__aeabi_f2d>
 8001128:	a37d      	add	r3, pc, #500	; (adr r3, 8001320 <main+0x398>)
 800112a:	e9d3 2300 	ldrd	r2, r3, [r3]
 800112e:	f7ff fa83 	bl	8000638 <__aeabi_dmul>
 8001132:	4603      	mov	r3, r0
 8001134:	460c      	mov	r4, r1
 8001136:	4618      	mov	r0, r3
 8001138:	4621      	mov	r1, r4
 800113a:	f04f 0200 	mov.w	r2, #0
 800113e:	4b80      	ldr	r3, [pc, #512]	; (8001340 <main+0x3b8>)
 8001140:	f7ff fba4 	bl	800088c <__aeabi_ddiv>
 8001144:	4603      	mov	r3, r0
 8001146:	460c      	mov	r4, r1
 8001148:	4618      	mov	r0, r3
 800114a:	4621      	mov	r1, r4
 800114c:	f7ff fd4c 	bl	8000be8 <__aeabi_d2f>
 8001150:	4603      	mov	r3, r0
 8001152:	63bb      	str	r3, [r7, #56]	; 0x38
	  			sprintf(msg, "%f ", val);
 8001154:	6bb8      	ldr	r0, [r7, #56]	; 0x38
 8001156:	f7ff fa17 	bl	8000588 <__aeabi_f2d>
 800115a:	4603      	mov	r3, r0
 800115c:	460c      	mov	r4, r1
 800115e:	f107 0024 	add.w	r0, r7, #36	; 0x24
 8001162:	461a      	mov	r2, r3
 8001164:	4623      	mov	r3, r4
 8001166:	4977      	ldr	r1, [pc, #476]	; (8001344 <main+0x3bc>)
 8001168:	f003 f8ee 	bl	8004348 <siprintf>
	  			HAL_UART_Transmit(&huart2, (uint8_t*)msg, strlen(msg), HAL_MAX_DELAY);
 800116c:	f107 0324 	add.w	r3, r7, #36	; 0x24
 8001170:	4618      	mov	r0, r3
 8001172:	f7ff f84d 	bl	8000210 <strlen>
 8001176:	4603      	mov	r3, r0
 8001178:	b29a      	uxth	r2, r3
 800117a:	f107 0124 	add.w	r1, r7, #36	; 0x24
 800117e:	f04f 33ff 	mov.w	r3, #4294967295
 8001182:	4871      	ldr	r0, [pc, #452]	; (8001348 <main+0x3c0>)
 8001184:	f001 fff3 	bl	800316e <HAL_UART_Transmit>
	  			sprintf(time, "%lu\n", times[j]);
 8001188:	6d3b      	ldr	r3, [r7, #80]	; 0x50
 800118a:	6efa      	ldr	r2, [r7, #108]	; 0x6c
 800118c:	f853 2022 	ldr.w	r2, [r3, r2, lsl #2]
 8001190:	1d3b      	adds	r3, r7, #4
 8001192:	496e      	ldr	r1, [pc, #440]	; (800134c <main+0x3c4>)
 8001194:	4618      	mov	r0, r3
 8001196:	f003 f8d7 	bl	8004348 <siprintf>
	  			HAL_UART_Transmit(&huart2, (uint8_t*)time, strlen(time), HAL_MAX_DELAY);
 800119a:	1d3b      	adds	r3, r7, #4
 800119c:	4618      	mov	r0, r3
 800119e:	f7ff f837 	bl	8000210 <strlen>
 80011a2:	4603      	mov	r3, r0
 80011a4:	b29a      	uxth	r2, r3
 80011a6:	1d39      	adds	r1, r7, #4
 80011a8:	f04f 33ff 	mov.w	r3, #4294967295
 80011ac:	4866      	ldr	r0, [pc, #408]	; (8001348 <main+0x3c0>)
 80011ae:	f001 ffde 	bl	800316e <HAL_UART_Transmit>
	  		for (int j = 0; j < num_samples; j+=1){
 80011b2:	6efb      	ldr	r3, [r7, #108]	; 0x6c
 80011b4:	3301      	adds	r3, #1
 80011b6:	66fb      	str	r3, [r7, #108]	; 0x6c
 80011b8:	6efa      	ldr	r2, [r7, #108]	; 0x6c
 80011ba:	6e3b      	ldr	r3, [r7, #96]	; 0x60
 80011bc:	429a      	cmp	r2, r3
 80011be:	dbab      	blt.n	8001118 <main+0x190>
	  		}
	  		while(1) {
	  			continue;
 80011c0:	e7fe      	b.n	80011c0 <main+0x238>
	  		}
	  	}
	}
	if (i >= BKGND_TIME && i <= LD_ON_TIME + BKGND_TIME) {
 80011c2:	6ffa      	ldr	r2, [r7, #124]	; 0x7c
 80011c4:	6e7b      	ldr	r3, [r7, #100]	; 0x64
 80011c6:	429a      	cmp	r2, r3
 80011c8:	db43      	blt.n	8001252 <main+0x2ca>
 80011ca:	6eba      	ldr	r2, [r7, #104]	; 0x68
 80011cc:	6e7b      	ldr	r3, [r7, #100]	; 0x64
 80011ce:	4413      	add	r3, r2
 80011d0:	6ffa      	ldr	r2, [r7, #124]	; 0x7c
 80011d2:	429a      	cmp	r2, r3
 80011d4:	dc3d      	bgt.n	8001252 <main+0x2ca>
	  	curr = 1;
 80011d6:	2301      	movs	r3, #1
 80011d8:	67bb      	str	r3, [r7, #120]	; 0x78
	  	i += 1;
 80011da:	6ffb      	ldr	r3, [r7, #124]	; 0x7c
 80011dc:	3301      	adds	r3, #1
 80011de:	67fb      	str	r3, [r7, #124]	; 0x7c
	  	HAL_ADC_Start(&hadc1);
 80011e0:	485b      	ldr	r0, [pc, #364]	; (8001350 <main+0x3c8>)
 80011e2:	f000 fc4b 	bl	8001a7c <HAL_ADC_Start>
	  	HAL_ADC_PollForConversion(&hadc1, HAL_MAX_DELAY);
 80011e6:	f04f 31ff 	mov.w	r1, #4294967295
 80011ea:	4859      	ldr	r0, [pc, #356]	; (8001350 <main+0x3c8>)
 80011ec:	f000 fd0c 	bl	8001c08 <HAL_ADC_PollForConversion>
	  	raw = HAL_ADC_GetValue(&hadc1);
 80011f0:	4857      	ldr	r0, [pc, #348]	; (8001350 <main+0x3c8>)
 80011f2:	f000 fd8d 	bl	8001d10 <HAL_ADC_GetValue>
 80011f6:	4603      	mov	r3, r0
 80011f8:	86fb      	strh	r3, [r7, #54]	; 0x36
	  	arr[index] = ((arr[index] * pass) + raw) / (pass + 1);
 80011fa:	6dba      	ldr	r2, [r7, #88]	; 0x58
 80011fc:	6f7b      	ldr	r3, [r7, #116]	; 0x74
 80011fe:	009b      	lsls	r3, r3, #2
 8001200:	4413      	add	r3, r2
 8001202:	ed93 7a00 	vldr	s14, [r3]
 8001206:	6f3b      	ldr	r3, [r7, #112]	; 0x70
 8001208:	ee07 3a90 	vmov	s15, r3
 800120c:	eef8 7ae7 	vcvt.f32.s32	s15, s15
 8001210:	ee27 7a27 	vmul.f32	s14, s14, s15
 8001214:	8efb      	ldrh	r3, [r7, #54]	; 0x36
 8001216:	ee07 3a90 	vmov	s15, r3
 800121a:	eef8 7ae7 	vcvt.f32.s32	s15, s15
 800121e:	ee77 6a27 	vadd.f32	s13, s14, s15
 8001222:	6f3b      	ldr	r3, [r7, #112]	; 0x70
 8001224:	3301      	adds	r3, #1
 8001226:	ee07 3a90 	vmov	s15, r3
 800122a:	eeb8 7ae7 	vcvt.f32.s32	s14, s15
 800122e:	eec6 7a87 	vdiv.f32	s15, s13, s14
 8001232:	6dba      	ldr	r2, [r7, #88]	; 0x58
 8001234:	6f7b      	ldr	r3, [r7, #116]	; 0x74
 8001236:	009b      	lsls	r3, r3, #2
 8001238:	4413      	add	r3, r2
 800123a:	edc3 7a00 	vstr	s15, [r3]
	  	times[index] = *DWT_CYCCNT;
 800123e:	6cbb      	ldr	r3, [r7, #72]	; 0x48
 8001240:	6819      	ldr	r1, [r3, #0]
 8001242:	6d3b      	ldr	r3, [r7, #80]	; 0x50
 8001244:	6f7a      	ldr	r2, [r7, #116]	; 0x74
 8001246:	f843 1022 	str.w	r1, [r3, r2, lsl #2]
	  	index += 1;
 800124a:	6f7b      	ldr	r3, [r7, #116]	; 0x74
 800124c:	3301      	adds	r3, #1
 800124e:	677b      	str	r3, [r7, #116]	; 0x74
 8001250:	e062      	b.n	8001318 <main+0x390>
	} else if ((i >= 0 && i < BKGND_TIME) || (i > LD_ON_TIME + BKGND_TIME && i <= LD_ON_TIME + (2 * BKGND_TIME))) {
 8001252:	6ffb      	ldr	r3, [r7, #124]	; 0x7c
 8001254:	2b00      	cmp	r3, #0
 8001256:	db03      	blt.n	8001260 <main+0x2d8>
 8001258:	6ffa      	ldr	r2, [r7, #124]	; 0x7c
 800125a:	6e7b      	ldr	r3, [r7, #100]	; 0x64
 800125c:	429a      	cmp	r2, r3
 800125e:	db0c      	blt.n	800127a <main+0x2f2>
 8001260:	6eba      	ldr	r2, [r7, #104]	; 0x68
 8001262:	6e7b      	ldr	r3, [r7, #100]	; 0x64
 8001264:	4413      	add	r3, r2
 8001266:	6ffa      	ldr	r2, [r7, #124]	; 0x7c
 8001268:	429a      	cmp	r2, r3
 800126a:	dd44      	ble.n	80012f6 <main+0x36e>
 800126c:	6e7b      	ldr	r3, [r7, #100]	; 0x64
 800126e:	005a      	lsls	r2, r3, #1
 8001270:	6ebb      	ldr	r3, [r7, #104]	; 0x68
 8001272:	4413      	add	r3, r2
 8001274:	6ffa      	ldr	r2, [r7, #124]	; 0x7c
 8001276:	429a      	cmp	r2, r3
 8001278:	dc3d      	bgt.n	80012f6 <main+0x36e>
	  	curr = 0;
 800127a:	2300      	movs	r3, #0
 800127c:	67bb      	str	r3, [r7, #120]	; 0x78
	  	i += 1;
 800127e:	6ffb      	ldr	r3, [r7, #124]	; 0x7c
 8001280:	3301      	adds	r3, #1
 8001282:	67fb      	str	r3, [r7, #124]	; 0x7c
	  	HAL_ADC_Start(&hadc1);
 8001284:	4832      	ldr	r0, [pc, #200]	; (8001350 <main+0x3c8>)
 8001286:	f000 fbf9 	bl	8001a7c <HAL_ADC_Start>
	  	HAL_ADC_PollForConversion(&hadc1, HAL_MAX_DELAY);
 800128a:	f04f 31ff 	mov.w	r1, #4294967295
 800128e:	4830      	ldr	r0, [pc, #192]	; (8001350 <main+0x3c8>)
 8001290:	f000 fcba 	bl	8001c08 <HAL_ADC_PollForConversion>
	  	raw = HAL_ADC_GetValue(&hadc1);
 8001294:	482e      	ldr	r0, [pc, #184]	; (8001350 <main+0x3c8>)
 8001296:	f000 fd3b 	bl	8001d10 <HAL_ADC_GetValue>
 800129a:	4603      	mov	r3, r0
 800129c:	86fb      	strh	r3, [r7, #54]	; 0x36
	  	arr[index] = ((arr[index] * pass) + raw) / (pass + 1);
 800129e:	6dba      	ldr	r2, [r7, #88]	; 0x58
 80012a0:	6f7b      	ldr	r3, [r7, #116]	; 0x74
 80012a2:	009b      	lsls	r3, r3, #2
 80012a4:	4413      	add	r3, r2
 80012a6:	ed93 7a00 	vldr	s14, [r3]
 80012aa:	6f3b      	ldr	r3, [r7, #112]	; 0x70
 80012ac:	ee07 3a90 	vmov	s15, r3
 80012b0:	eef8 7ae7 	vcvt.f32.s32	s15, s15
 80012b4:	ee27 7a27 	vmul.f32	s14, s14, s15
 80012b8:	8efb      	ldrh	r3, [r7, #54]	; 0x36
 80012ba:	ee07 3a90 	vmov	s15, r3
 80012be:	eef8 7ae7 	vcvt.f32.s32	s15, s15
 80012c2:	ee77 6a27 	vadd.f32	s13, s14, s15
 80012c6:	6f3b      	ldr	r3, [r7, #112]	; 0x70
 80012c8:	3301      	adds	r3, #1
 80012ca:	ee07 3a90 	vmov	s15, r3
 80012ce:	eeb8 7ae7 	vcvt.f32.s32	s14, s15
 80012d2:	eec6 7a87 	vdiv.f32	s15, s13, s14
 80012d6:	6dba      	ldr	r2, [r7, #88]	; 0x58
 80012d8:	6f7b      	ldr	r3, [r7, #116]	; 0x74
 80012da:	009b      	lsls	r3, r3, #2
 80012dc:	4413      	add	r3, r2
 80012de:	edc3 7a00 	vstr	s15, [r3]
	  	times[index] = *DWT_CYCCNT;
 80012e2:	6cbb      	ldr	r3, [r7, #72]	; 0x48
 80012e4:	6819      	ldr	r1, [r3, #0]
 80012e6:	6d3b      	ldr	r3, [r7, #80]	; 0x50
 80012e8:	6f7a      	ldr	r2, [r7, #116]	; 0x74
 80012ea:	f843 1022 	str.w	r1, [r3, r2, lsl #2]
	  	index += 1;
 80012ee:	6f7b      	ldr	r3, [r7, #116]	; 0x74
 80012f0:	3301      	adds	r3, #1
 80012f2:	677b      	str	r3, [r7, #116]	; 0x74
 80012f4:	e010      	b.n	8001318 <main+0x390>
	} else {
	  	curr = 0;
 80012f6:	2300      	movs	r3, #0
 80012f8:	67bb      	str	r3, [r7, #120]	; 0x78
	  	i += 1;
 80012fa:	6ffb      	ldr	r3, [r7, #124]	; 0x7c
 80012fc:	3301      	adds	r3, #1
 80012fe:	67fb      	str	r3, [r7, #124]	; 0x7c
	  	if (i > LD_ON_TIME + (2 * BKGND_TIME) - 1) {
 8001300:	6e7b      	ldr	r3, [r7, #100]	; 0x64
 8001302:	005a      	lsls	r2, r3, #1
 8001304:	6ebb      	ldr	r3, [r7, #104]	; 0x68
 8001306:	4413      	add	r3, r2
 8001308:	3b01      	subs	r3, #1
 800130a:	6ffa      	ldr	r2, [r7, #124]	; 0x7c
 800130c:	429a      	cmp	r2, r3
 800130e:	f77f aecc 	ble.w	80010aa <main+0x122>
	  		state = 1;
 8001312:	2301      	movs	r3, #1
 8001314:	f8c7 3080 	str.w	r3, [r7, #128]	; 0x80
	if (curr != prev) {
 8001318:	e6c7      	b.n	80010aa <main+0x122>
 800131a:	bf00      	nop
 800131c:	f3af 8000 	nop.w
 8001320:	66666666 	.word	0x66666666
 8001324:	400a6666 	.word	0x400a6666
 8001328:	e0001004 	.word	0xe0001004
 800132c:	e0001000 	.word	0xe0001000
 8001330:	e0001fb0 	.word	0xe0001fb0
 8001334:	e000edfc 	.word	0xe000edfc
 8001338:	c5acce55 	.word	0xc5acce55
 800133c:	40020000 	.word	0x40020000
 8001340:	40b00000 	.word	0x40b00000
 8001344:	08005b20 	.word	0x08005b20
 8001348:	2000024c 	.word	0x2000024c
 800134c:	08005b24 	.word	0x08005b24
 8001350:	20000204 	.word	0x20000204

08001354 <SystemClock_Config>:
/**
  * @brief System Clock Configuration
  * @retval None
  */
void SystemClock_Config(void)
{
 8001354:	b580      	push	{r7, lr}
 8001356:	b094      	sub	sp, #80	; 0x50
 8001358:	af00      	add	r7, sp, #0
  RCC_OscInitTypeDef RCC_OscInitStruct = {0};
 800135a:	f107 031c 	add.w	r3, r7, #28
 800135e:	2234      	movs	r2, #52	; 0x34
 8001360:	2100      	movs	r1, #0
 8001362:	4618      	mov	r0, r3
 8001364:	f002 fb8c 	bl	8003a80 <memset>
  RCC_ClkInitTypeDef RCC_ClkInitStruct = {0};
 8001368:	f107 0308 	add.w	r3, r7, #8
 800136c:	2200      	movs	r2, #0
 800136e:	601a      	str	r2, [r3, #0]
 8001370:	605a      	str	r2, [r3, #4]
 8001372:	609a      	str	r2, [r3, #8]
 8001374:	60da      	str	r2, [r3, #12]
 8001376:	611a      	str	r2, [r3, #16]

  /** Configure the main internal regulator output voltage
  */
  __HAL_RCC_PWR_CLK_ENABLE();
 8001378:	2300      	movs	r3, #0
 800137a:	607b      	str	r3, [r7, #4]
 800137c:	4b2a      	ldr	r3, [pc, #168]	; (8001428 <SystemClock_Config+0xd4>)
 800137e:	6c1b      	ldr	r3, [r3, #64]	; 0x40
 8001380:	4a29      	ldr	r2, [pc, #164]	; (8001428 <SystemClock_Config+0xd4>)
 8001382:	f043 5380 	orr.w	r3, r3, #268435456	; 0x10000000
 8001386:	6413      	str	r3, [r2, #64]	; 0x40
 8001388:	4b27      	ldr	r3, [pc, #156]	; (8001428 <SystemClock_Config+0xd4>)
 800138a:	6c1b      	ldr	r3, [r3, #64]	; 0x40
 800138c:	f003 5380 	and.w	r3, r3, #268435456	; 0x10000000
 8001390:	607b      	str	r3, [r7, #4]
 8001392:	687b      	ldr	r3, [r7, #4]
  __HAL_PWR_VOLTAGESCALING_CONFIG(PWR_REGULATOR_VOLTAGE_SCALE3);
 8001394:	2300      	movs	r3, #0
 8001396:	603b      	str	r3, [r7, #0]
 8001398:	4b24      	ldr	r3, [pc, #144]	; (800142c <SystemClock_Config+0xd8>)
 800139a:	681b      	ldr	r3, [r3, #0]
 800139c:	f423 4340 	bic.w	r3, r3, #49152	; 0xc000
 80013a0:	4a22      	ldr	r2, [pc, #136]	; (800142c <SystemClock_Config+0xd8>)
 80013a2:	f443 4380 	orr.w	r3, r3, #16384	; 0x4000
 80013a6:	6013      	str	r3, [r2, #0]
 80013a8:	4b20      	ldr	r3, [pc, #128]	; (800142c <SystemClock_Config+0xd8>)
 80013aa:	681b      	ldr	r3, [r3, #0]
 80013ac:	f403 4340 	and.w	r3, r3, #49152	; 0xc000
 80013b0:	603b      	str	r3, [r7, #0]
 80013b2:	683b      	ldr	r3, [r7, #0]
  /** Initializes the RCC Oscillators according to the specified parameters
  * in the RCC_OscInitTypeDef structure.
  */
  RCC_OscInitStruct.OscillatorType = RCC_OSCILLATORTYPE_HSI;
 80013b4:	2302      	movs	r3, #2
 80013b6:	61fb      	str	r3, [r7, #28]
  RCC_OscInitStruct.HSIState = RCC_HSI_ON;
 80013b8:	2301      	movs	r3, #1
 80013ba:	62bb      	str	r3, [r7, #40]	; 0x28
  RCC_OscInitStruct.HSICalibrationValue = RCC_HSICALIBRATION_DEFAULT;
 80013bc:	2310      	movs	r3, #16
 80013be:	62fb      	str	r3, [r7, #44]	; 0x2c
  RCC_OscInitStruct.PLL.PLLState = RCC_PLL_ON;
 80013c0:	2302      	movs	r3, #2
 80013c2:	637b      	str	r3, [r7, #52]	; 0x34
  RCC_OscInitStruct.PLL.PLLSource = RCC_PLLSOURCE_HSI;
 80013c4:	2300      	movs	r3, #0
 80013c6:	63bb      	str	r3, [r7, #56]	; 0x38
  RCC_OscInitStruct.PLL.PLLM = 16;
 80013c8:	2310      	movs	r3, #16
 80013ca:	63fb      	str	r3, [r7, #60]	; 0x3c
  RCC_OscInitStruct.PLL.PLLN = 336;
 80013cc:	f44f 73a8 	mov.w	r3, #336	; 0x150
 80013d0:	643b      	str	r3, [r7, #64]	; 0x40
  RCC_OscInitStruct.PLL.PLLP = RCC_PLLP_DIV4;
 80013d2:	2304      	movs	r3, #4
 80013d4:	647b      	str	r3, [r7, #68]	; 0x44
  RCC_OscInitStruct.PLL.PLLQ = 2;
 80013d6:	2302      	movs	r3, #2
 80013d8:	64bb      	str	r3, [r7, #72]	; 0x48
  RCC_OscInitStruct.PLL.PLLR = 2;
 80013da:	2302      	movs	r3, #2
 80013dc:	64fb      	str	r3, [r7, #76]	; 0x4c
  if (HAL_RCC_OscConfig(&RCC_OscInitStruct) != HAL_OK)
 80013de:	f107 031c 	add.w	r3, r7, #28
 80013e2:	4618      	mov	r0, r3
 80013e4:	f001 fc1c 	bl	8002c20 <HAL_RCC_OscConfig>
 80013e8:	4603      	mov	r3, r0
 80013ea:	2b00      	cmp	r3, #0
 80013ec:	d001      	beq.n	80013f2 <SystemClock_Config+0x9e>
  {
    Error_Handler();
 80013ee:	f000 f90d 	bl	800160c <Error_Handler>
  }
  /** Initializes the CPU, AHB and APB buses clocks
  */
  RCC_ClkInitStruct.ClockType = RCC_CLOCKTYPE_HCLK|RCC_CLOCKTYPE_SYSCLK
 80013f2:	230f      	movs	r3, #15
 80013f4:	60bb      	str	r3, [r7, #8]
                              |RCC_CLOCKTYPE_PCLK1|RCC_CLOCKTYPE_PCLK2;
  RCC_ClkInitStruct.SYSCLKSource = RCC_SYSCLKSOURCE_PLLCLK;
 80013f6:	2302      	movs	r3, #2
 80013f8:	60fb      	str	r3, [r7, #12]
  RCC_ClkInitStruct.AHBCLKDivider = RCC_SYSCLK_DIV1;
 80013fa:	2300      	movs	r3, #0
 80013fc:	613b      	str	r3, [r7, #16]
  RCC_ClkInitStruct.APB1CLKDivider = RCC_HCLK_DIV2;
 80013fe:	f44f 5380 	mov.w	r3, #4096	; 0x1000
 8001402:	617b      	str	r3, [r7, #20]
  RCC_ClkInitStruct.APB2CLKDivider = RCC_HCLK_DIV1;
 8001404:	2300      	movs	r3, #0
 8001406:	61bb      	str	r3, [r7, #24]

  if (HAL_RCC_ClockConfig(&RCC_ClkInitStruct, FLASH_LATENCY_2) != HAL_OK)
 8001408:	f107 0308 	add.w	r3, r7, #8
 800140c:	2102      	movs	r1, #2
 800140e:	4618      	mov	r0, r3
 8001410:	f001 f94c 	bl	80026ac <HAL_RCC_ClockConfig>
 8001414:	4603      	mov	r3, r0
 8001416:	2b00      	cmp	r3, #0
 8001418:	d001      	beq.n	800141e <SystemClock_Config+0xca>
  {
    Error_Handler();
 800141a:	f000 f8f7 	bl	800160c <Error_Handler>
  }
}
 800141e:	bf00      	nop
 8001420:	3750      	adds	r7, #80	; 0x50
 8001422:	46bd      	mov	sp, r7
 8001424:	bd80      	pop	{r7, pc}
 8001426:	bf00      	nop
 8001428:	40023800 	.word	0x40023800
 800142c:	40007000 	.word	0x40007000

08001430 <MX_ADC1_Init>:
  * @brief ADC1 Initialization Function
  * @param None
  * @retval None
  */
static void MX_ADC1_Init(void)
{
 8001430:	b580      	push	{r7, lr}
 8001432:	b084      	sub	sp, #16
 8001434:	af00      	add	r7, sp, #0

  /* USER CODE BEGIN ADC1_Init 0 */

  /* USER CODE END ADC1_Init 0 */

  ADC_ChannelConfTypeDef sConfig = {0};
 8001436:	463b      	mov	r3, r7
 8001438:	2200      	movs	r2, #0
 800143a:	601a      	str	r2, [r3, #0]
 800143c:	605a      	str	r2, [r3, #4]
 800143e:	609a      	str	r2, [r3, #8]
 8001440:	60da      	str	r2, [r3, #12]
  /* USER CODE BEGIN ADC1_Init 1 */

  /* USER CODE END ADC1_Init 1 */
  /** Configure the global features of the ADC (Clock, Resolution, Data Alignment and number of conversion)
  */
  hadc1.Instance = ADC1;
 8001442:	4b21      	ldr	r3, [pc, #132]	; (80014c8 <MX_ADC1_Init+0x98>)
 8001444:	4a21      	ldr	r2, [pc, #132]	; (80014cc <MX_ADC1_Init+0x9c>)
 8001446:	601a      	str	r2, [r3, #0]
  hadc1.Init.ClockPrescaler = ADC_CLOCK_SYNC_PCLK_DIV4;
 8001448:	4b1f      	ldr	r3, [pc, #124]	; (80014c8 <MX_ADC1_Init+0x98>)
 800144a:	f44f 3280 	mov.w	r2, #65536	; 0x10000
 800144e:	605a      	str	r2, [r3, #4]
  hadc1.Init.Resolution = ADC_RESOLUTION_12B;
 8001450:	4b1d      	ldr	r3, [pc, #116]	; (80014c8 <MX_ADC1_Init+0x98>)
 8001452:	2200      	movs	r2, #0
 8001454:	609a      	str	r2, [r3, #8]
  hadc1.Init.ScanConvMode = DISABLE;
 8001456:	4b1c      	ldr	r3, [pc, #112]	; (80014c8 <MX_ADC1_Init+0x98>)
 8001458:	2200      	movs	r2, #0
 800145a:	611a      	str	r2, [r3, #16]
  hadc1.Init.ContinuousConvMode = DISABLE;
 800145c:	4b1a      	ldr	r3, [pc, #104]	; (80014c8 <MX_ADC1_Init+0x98>)
 800145e:	2200      	movs	r2, #0
 8001460:	761a      	strb	r2, [r3, #24]
  hadc1.Init.DiscontinuousConvMode = DISABLE;
 8001462:	4b19      	ldr	r3, [pc, #100]	; (80014c8 <MX_ADC1_Init+0x98>)
 8001464:	2200      	movs	r2, #0
 8001466:	f883 2020 	strb.w	r2, [r3, #32]
  hadc1.Init.ExternalTrigConvEdge = ADC_EXTERNALTRIGCONVEDGE_NONE;
 800146a:	4b17      	ldr	r3, [pc, #92]	; (80014c8 <MX_ADC1_Init+0x98>)
 800146c:	2200      	movs	r2, #0
 800146e:	62da      	str	r2, [r3, #44]	; 0x2c
  hadc1.Init.ExternalTrigConv = ADC_SOFTWARE_START;
 8001470:	4b15      	ldr	r3, [pc, #84]	; (80014c8 <MX_ADC1_Init+0x98>)
 8001472:	4a17      	ldr	r2, [pc, #92]	; (80014d0 <MX_ADC1_Init+0xa0>)
 8001474:	629a      	str	r2, [r3, #40]	; 0x28
  hadc1.Init.DataAlign = ADC_DATAALIGN_RIGHT;
 8001476:	4b14      	ldr	r3, [pc, #80]	; (80014c8 <MX_ADC1_Init+0x98>)
 8001478:	2200      	movs	r2, #0
 800147a:	60da      	str	r2, [r3, #12]
  hadc1.Init.NbrOfConversion = 1;
 800147c:	4b12      	ldr	r3, [pc, #72]	; (80014c8 <MX_ADC1_Init+0x98>)
 800147e:	2201      	movs	r2, #1
 8001480:	61da      	str	r2, [r3, #28]
  hadc1.Init.DMAContinuousRequests = DISABLE;
 8001482:	4b11      	ldr	r3, [pc, #68]	; (80014c8 <MX_ADC1_Init+0x98>)
 8001484:	2200      	movs	r2, #0
 8001486:	f883 2030 	strb.w	r2, [r3, #48]	; 0x30
  hadc1.Init.EOCSelection = ADC_EOC_SINGLE_CONV;
 800148a:	4b0f      	ldr	r3, [pc, #60]	; (80014c8 <MX_ADC1_Init+0x98>)
 800148c:	2201      	movs	r2, #1
 800148e:	615a      	str	r2, [r3, #20]
  if (HAL_ADC_Init(&hadc1) != HAL_OK)
 8001490:	480d      	ldr	r0, [pc, #52]	; (80014c8 <MX_ADC1_Init+0x98>)
 8001492:	f000 faaf 	bl	80019f4 <HAL_ADC_Init>
 8001496:	4603      	mov	r3, r0
 8001498:	2b00      	cmp	r3, #0
 800149a:	d001      	beq.n	80014a0 <MX_ADC1_Init+0x70>
  {
    Error_Handler();
 800149c:	f000 f8b6 	bl	800160c <Error_Handler>
  }
  /** Configure for the selected ADC regular channel its corresponding rank in the sequencer and its sample time.
  */
  sConfig.Channel = ADC_CHANNEL_0;
 80014a0:	2300      	movs	r3, #0
 80014a2:	603b      	str	r3, [r7, #0]
  sConfig.Rank = 1;
 80014a4:	2301      	movs	r3, #1
 80014a6:	607b      	str	r3, [r7, #4]
  sConfig.SamplingTime = ADC_SAMPLETIME_3CYCLES;
 80014a8:	2300      	movs	r3, #0
 80014aa:	60bb      	str	r3, [r7, #8]
  if (HAL_ADC_ConfigChannel(&hadc1, &sConfig) != HAL_OK)
 80014ac:	463b      	mov	r3, r7
 80014ae:	4619      	mov	r1, r3
 80014b0:	4805      	ldr	r0, [pc, #20]	; (80014c8 <MX_ADC1_Init+0x98>)
 80014b2:	f000 fc3b 	bl	8001d2c <HAL_ADC_ConfigChannel>
 80014b6:	4603      	mov	r3, r0
 80014b8:	2b00      	cmp	r3, #0
 80014ba:	d001      	beq.n	80014c0 <MX_ADC1_Init+0x90>
  {
    Error_Handler();
 80014bc:	f000 f8a6 	bl	800160c <Error_Handler>
  }
  /* USER CODE BEGIN ADC1_Init 2 */

  /* USER CODE END ADC1_Init 2 */

}
 80014c0:	bf00      	nop
 80014c2:	3710      	adds	r7, #16
 80014c4:	46bd      	mov	sp, r7
 80014c6:	bd80      	pop	{r7, pc}
 80014c8:	20000204 	.word	0x20000204
 80014cc:	40012000 	.word	0x40012000
 80014d0:	0f000001 	.word	0x0f000001

080014d4 <MX_USART2_UART_Init>:
  * @brief USART2 Initialization Function
  * @param None
  * @retval None
  */
static void MX_USART2_UART_Init(void)
{
 80014d4:	b580      	push	{r7, lr}
 80014d6:	af00      	add	r7, sp, #0
  /* USER CODE END USART2_Init 0 */

  /* USER CODE BEGIN USART2_Init 1 */

  /* USER CODE END USART2_Init 1 */
  huart2.Instance = USART2;
 80014d8:	4b11      	ldr	r3, [pc, #68]	; (8001520 <MX_USART2_UART_Init+0x4c>)
 80014da:	4a12      	ldr	r2, [pc, #72]	; (8001524 <MX_USART2_UART_Init+0x50>)
 80014dc:	601a      	str	r2, [r3, #0]
  huart2.Init.BaudRate = 115200;
 80014de:	4b10      	ldr	r3, [pc, #64]	; (8001520 <MX_USART2_UART_Init+0x4c>)
 80014e0:	f44f 32e1 	mov.w	r2, #115200	; 0x1c200
 80014e4:	605a      	str	r2, [r3, #4]
  huart2.Init.WordLength = UART_WORDLENGTH_8B;
 80014e6:	4b0e      	ldr	r3, [pc, #56]	; (8001520 <MX_USART2_UART_Init+0x4c>)
 80014e8:	2200      	movs	r2, #0
 80014ea:	609a      	str	r2, [r3, #8]
  huart2.Init.StopBits = UART_STOPBITS_1;
 80014ec:	4b0c      	ldr	r3, [pc, #48]	; (8001520 <MX_USART2_UART_Init+0x4c>)
 80014ee:	2200      	movs	r2, #0
 80014f0:	60da      	str	r2, [r3, #12]
  huart2.Init.Parity = UART_PARITY_NONE;
 80014f2:	4b0b      	ldr	r3, [pc, #44]	; (8001520 <MX_USART2_UART_Init+0x4c>)
 80014f4:	2200      	movs	r2, #0
 80014f6:	611a      	str	r2, [r3, #16]
  huart2.Init.Mode = UART_MODE_TX_RX;
 80014f8:	4b09      	ldr	r3, [pc, #36]	; (8001520 <MX_USART2_UART_Init+0x4c>)
 80014fa:	220c      	movs	r2, #12
 80014fc:	615a      	str	r2, [r3, #20]
  huart2.Init.HwFlowCtl = UART_HWCONTROL_NONE;
 80014fe:	4b08      	ldr	r3, [pc, #32]	; (8001520 <MX_USART2_UART_Init+0x4c>)
 8001500:	2200      	movs	r2, #0
 8001502:	619a      	str	r2, [r3, #24]
  huart2.Init.OverSampling = UART_OVERSAMPLING_16;
 8001504:	4b06      	ldr	r3, [pc, #24]	; (8001520 <MX_USART2_UART_Init+0x4c>)
 8001506:	2200      	movs	r2, #0
 8001508:	61da      	str	r2, [r3, #28]
  if (HAL_UART_Init(&huart2) != HAL_OK)
 800150a:	4805      	ldr	r0, [pc, #20]	; (8001520 <MX_USART2_UART_Init+0x4c>)
 800150c:	f001 fde2 	bl	80030d4 <HAL_UART_Init>
 8001510:	4603      	mov	r3, r0
 8001512:	2b00      	cmp	r3, #0
 8001514:	d001      	beq.n	800151a <MX_USART2_UART_Init+0x46>
  {
    Error_Handler();
 8001516:	f000 f879 	bl	800160c <Error_Handler>
  }
  /* USER CODE BEGIN USART2_Init 2 */

  /* USER CODE END USART2_Init 2 */

}
 800151a:	bf00      	nop
 800151c:	bd80      	pop	{r7, pc}
 800151e:	bf00      	nop
 8001520:	2000024c 	.word	0x2000024c
 8001524:	40004400 	.word	0x40004400

08001528 <MX_GPIO_Init>:
  * @brief GPIO Initialization Function
  * @param None
  * @retval None
  */
static void MX_GPIO_Init(void)
{
 8001528:	b580      	push	{r7, lr}
 800152a:	b08a      	sub	sp, #40	; 0x28
 800152c:	af00      	add	r7, sp, #0
  GPIO_InitTypeDef GPIO_InitStruct = {0};
 800152e:	f107 0314 	add.w	r3, r7, #20
 8001532:	2200      	movs	r2, #0
 8001534:	601a      	str	r2, [r3, #0]
 8001536:	605a      	str	r2, [r3, #4]
 8001538:	609a      	str	r2, [r3, #8]
 800153a:	60da      	str	r2, [r3, #12]
 800153c:	611a      	str	r2, [r3, #16]

  /* GPIO Ports Clock Enable */
  __HAL_RCC_GPIOC_CLK_ENABLE();
 800153e:	2300      	movs	r3, #0
 8001540:	613b      	str	r3, [r7, #16]
 8001542:	4b2e      	ldr	r3, [pc, #184]	; (80015fc <MX_GPIO_Init+0xd4>)
 8001544:	6b1b      	ldr	r3, [r3, #48]	; 0x30
 8001546:	4a2d      	ldr	r2, [pc, #180]	; (80015fc <MX_GPIO_Init+0xd4>)
 8001548:	f043 0304 	orr.w	r3, r3, #4
 800154c:	6313      	str	r3, [r2, #48]	; 0x30
 800154e:	4b2b      	ldr	r3, [pc, #172]	; (80015fc <MX_GPIO_Init+0xd4>)
 8001550:	6b1b      	ldr	r3, [r3, #48]	; 0x30
 8001552:	f003 0304 	and.w	r3, r3, #4
 8001556:	613b      	str	r3, [r7, #16]
 8001558:	693b      	ldr	r3, [r7, #16]
  __HAL_RCC_GPIOH_CLK_ENABLE();
 800155a:	2300      	movs	r3, #0
 800155c:	60fb      	str	r3, [r7, #12]
 800155e:	4b27      	ldr	r3, [pc, #156]	; (80015fc <MX_GPIO_Init+0xd4>)
 8001560:	6b1b      	ldr	r3, [r3, #48]	; 0x30
 8001562:	4a26      	ldr	r2, [pc, #152]	; (80015fc <MX_GPIO_Init+0xd4>)
 8001564:	f043 0380 	orr.w	r3, r3, #128	; 0x80
 8001568:	6313      	str	r3, [r2, #48]	; 0x30
 800156a:	4b24      	ldr	r3, [pc, #144]	; (80015fc <MX_GPIO_Init+0xd4>)
 800156c:	6b1b      	ldr	r3, [r3, #48]	; 0x30
 800156e:	f003 0380 	and.w	r3, r3, #128	; 0x80
 8001572:	60fb      	str	r3, [r7, #12]
 8001574:	68fb      	ldr	r3, [r7, #12]
  __HAL_RCC_GPIOA_CLK_ENABLE();
 8001576:	2300      	movs	r3, #0
 8001578:	60bb      	str	r3, [r7, #8]
 800157a:	4b20      	ldr	r3, [pc, #128]	; (80015fc <MX_GPIO_Init+0xd4>)
 800157c:	6b1b      	ldr	r3, [r3, #48]	; 0x30
 800157e:	4a1f      	ldr	r2, [pc, #124]	; (80015fc <MX_GPIO_Init+0xd4>)
 8001580:	f043 0301 	orr.w	r3, r3, #1
 8001584:	6313      	str	r3, [r2, #48]	; 0x30
 8001586:	4b1d      	ldr	r3, [pc, #116]	; (80015fc <MX_GPIO_Init+0xd4>)
 8001588:	6b1b      	ldr	r3, [r3, #48]	; 0x30
 800158a:	f003 0301 	and.w	r3, r3, #1
 800158e:	60bb      	str	r3, [r7, #8]
 8001590:	68bb      	ldr	r3, [r7, #8]
  __HAL_RCC_GPIOB_CLK_ENABLE();
 8001592:	2300      	movs	r3, #0
 8001594:	607b      	str	r3, [r7, #4]
 8001596:	4b19      	ldr	r3, [pc, #100]	; (80015fc <MX_GPIO_Init+0xd4>)
 8001598:	6b1b      	ldr	r3, [r3, #48]	; 0x30
 800159a:	4a18      	ldr	r2, [pc, #96]	; (80015fc <MX_GPIO_Init+0xd4>)
 800159c:	f043 0302 	orr.w	r3, r3, #2
 80015a0:	6313      	str	r3, [r2, #48]	; 0x30
 80015a2:	4b16      	ldr	r3, [pc, #88]	; (80015fc <MX_GPIO_Init+0xd4>)
 80015a4:	6b1b      	ldr	r3, [r3, #48]	; 0x30
 80015a6:	f003 0302 	and.w	r3, r3, #2
 80015aa:	607b      	str	r3, [r7, #4]
 80015ac:	687b      	ldr	r3, [r7, #4]

  /*Configure GPIO pin Output Level */
  HAL_GPIO_WritePin(GPIOA, LD2_Pin|GPIO_PIN_10, GPIO_PIN_SET);
 80015ae:	2201      	movs	r2, #1
 80015b0:	f44f 6184 	mov.w	r1, #1056	; 0x420
 80015b4:	4812      	ldr	r0, [pc, #72]	; (8001600 <MX_GPIO_Init+0xd8>)
 80015b6:	f001 f85f 	bl	8002678 <HAL_GPIO_WritePin>

  /*Configure GPIO pin : B1_Pin */
  GPIO_InitStruct.Pin = B1_Pin;
 80015ba:	f44f 5300 	mov.w	r3, #8192	; 0x2000
 80015be:	617b      	str	r3, [r7, #20]
  GPIO_InitStruct.Mode = GPIO_MODE_IT_FALLING;
 80015c0:	4b10      	ldr	r3, [pc, #64]	; (8001604 <MX_GPIO_Init+0xdc>)
 80015c2:	61bb      	str	r3, [r7, #24]
  GPIO_InitStruct.Pull = GPIO_NOPULL;
 80015c4:	2300      	movs	r3, #0
 80015c6:	61fb      	str	r3, [r7, #28]
  HAL_GPIO_Init(B1_GPIO_Port, &GPIO_InitStruct);
 80015c8:	f107 0314 	add.w	r3, r7, #20
 80015cc:	4619      	mov	r1, r3
 80015ce:	480e      	ldr	r0, [pc, #56]	; (8001608 <MX_GPIO_Init+0xe0>)
 80015d0:	f000 fec0 	bl	8002354 <HAL_GPIO_Init>

  /*Configure GPIO pins : LD2_Pin PA10 */
  GPIO_InitStruct.Pin = LD2_Pin|GPIO_PIN_10;
 80015d4:	f44f 6384 	mov.w	r3, #1056	; 0x420
 80015d8:	617b      	str	r3, [r7, #20]
  GPIO_InitStruct.Mode = GPIO_MODE_OUTPUT_PP;
 80015da:	2301      	movs	r3, #1
 80015dc:	61bb      	str	r3, [r7, #24]
  GPIO_InitStruct.Pull = GPIO_NOPULL;
 80015de:	2300      	movs	r3, #0
 80015e0:	61fb      	str	r3, [r7, #28]
  GPIO_InitStruct.Speed = GPIO_SPEED_FREQ_LOW;
 80015e2:	2300      	movs	r3, #0
 80015e4:	623b      	str	r3, [r7, #32]
  HAL_GPIO_Init(GPIOA, &GPIO_InitStruct);
 80015e6:	f107 0314 	add.w	r3, r7, #20
 80015ea:	4619      	mov	r1, r3
 80015ec:	4804      	ldr	r0, [pc, #16]	; (8001600 <MX_GPIO_Init+0xd8>)
 80015ee:	f000 feb1 	bl	8002354 <HAL_GPIO_Init>

}
 80015f2:	bf00      	nop
 80015f4:	3728      	adds	r7, #40	; 0x28
 80015f6:	46bd      	mov	sp, r7
 80015f8:	bd80      	pop	{r7, pc}
 80015fa:	bf00      	nop
 80015fc:	40023800 	.word	0x40023800
 8001600:	40020000 	.word	0x40020000
 8001604:	10210000 	.word	0x10210000
 8001608:	40020800 	.word	0x40020800

0800160c <Error_Handler>:
/**
  * @brief  This function is executed in case of error occurrence.
  * @retval None
  */
void Error_Handler(void)
{
 800160c:	b480      	push	{r7}
 800160e:	af00      	add	r7, sp, #0
  /* USER CODE BEGIN Error_Handler_Debug */
  /* User can add his own implementation to report the HAL error return state */

  /* USER CODE END Error_Handler_Debug */
}
 8001610:	bf00      	nop
 8001612:	46bd      	mov	sp, r7
 8001614:	f85d 7b04 	ldr.w	r7, [sp], #4
 8001618:	4770      	bx	lr
	...

0800161c <HAL_MspInit>:
/* USER CODE END 0 */
/**
  * Initializes the Global MSP.
  */
void HAL_MspInit(void)
{
 800161c:	b580      	push	{r7, lr}
 800161e:	b082      	sub	sp, #8
 8001620:	af00      	add	r7, sp, #0
  /* USER CODE BEGIN MspInit 0 */

  /* USER CODE END MspInit 0 */

  __HAL_RCC_SYSCFG_CLK_ENABLE();
 8001622:	2300      	movs	r3, #0
 8001624:	607b      	str	r3, [r7, #4]
 8001626:	4b10      	ldr	r3, [pc, #64]	; (8001668 <HAL_MspInit+0x4c>)
 8001628:	6c5b      	ldr	r3, [r3, #68]	; 0x44
 800162a:	4a0f      	ldr	r2, [pc, #60]	; (8001668 <HAL_MspInit+0x4c>)
 800162c:	f443 4380 	orr.w	r3, r3, #16384	; 0x4000
 8001630:	6453      	str	r3, [r2, #68]	; 0x44
 8001632:	4b0d      	ldr	r3, [pc, #52]	; (8001668 <HAL_MspInit+0x4c>)
 8001634:	6c5b      	ldr	r3, [r3, #68]	; 0x44
 8001636:	f403 4380 	and.w	r3, r3, #16384	; 0x4000
 800163a:	607b      	str	r3, [r7, #4]
 800163c:	687b      	ldr	r3, [r7, #4]
  __HAL_RCC_PWR_CLK_ENABLE();
 800163e:	2300      	movs	r3, #0
 8001640:	603b      	str	r3, [r7, #0]
 8001642:	4b09      	ldr	r3, [pc, #36]	; (8001668 <HAL_MspInit+0x4c>)
 8001644:	6c1b      	ldr	r3, [r3, #64]	; 0x40
 8001646:	4a08      	ldr	r2, [pc, #32]	; (8001668 <HAL_MspInit+0x4c>)
 8001648:	f043 5380 	orr.w	r3, r3, #268435456	; 0x10000000
 800164c:	6413      	str	r3, [r2, #64]	; 0x40
 800164e:	4b06      	ldr	r3, [pc, #24]	; (8001668 <HAL_MspInit+0x4c>)
 8001650:	6c1b      	ldr	r3, [r3, #64]	; 0x40
 8001652:	f003 5380 	and.w	r3, r3, #268435456	; 0x10000000
 8001656:	603b      	str	r3, [r7, #0]
 8001658:	683b      	ldr	r3, [r7, #0]

  HAL_NVIC_SetPriorityGrouping(NVIC_PRIORITYGROUP_0);
 800165a:	2007      	movs	r0, #7
 800165c:	f000 fe46 	bl	80022ec <HAL_NVIC_SetPriorityGrouping>
  /* System interrupt init*/

  /* USER CODE BEGIN MspInit 1 */

  /* USER CODE END MspInit 1 */
}
 8001660:	bf00      	nop
 8001662:	3708      	adds	r7, #8
 8001664:	46bd      	mov	sp, r7
 8001666:	bd80      	pop	{r7, pc}
 8001668:	40023800 	.word	0x40023800

0800166c <HAL_ADC_MspInit>:
* This function configures the hardware resources used in this example
* @param hadc: ADC handle pointer
* @retval None
*/
void HAL_ADC_MspInit(ADC_HandleTypeDef* hadc)
{
 800166c:	b580      	push	{r7, lr}
 800166e:	b08a      	sub	sp, #40	; 0x28
 8001670:	af00      	add	r7, sp, #0
 8001672:	6078      	str	r0, [r7, #4]
  GPIO_InitTypeDef GPIO_InitStruct = {0};
 8001674:	f107 0314 	add.w	r3, r7, #20
 8001678:	2200      	movs	r2, #0
 800167a:	601a      	str	r2, [r3, #0]
 800167c:	605a      	str	r2, [r3, #4]
 800167e:	609a      	str	r2, [r3, #8]
 8001680:	60da      	str	r2, [r3, #12]
 8001682:	611a      	str	r2, [r3, #16]
  if(hadc->Instance==ADC1)
 8001684:	687b      	ldr	r3, [r7, #4]
 8001686:	681b      	ldr	r3, [r3, #0]
 8001688:	4a17      	ldr	r2, [pc, #92]	; (80016e8 <HAL_ADC_MspInit+0x7c>)
 800168a:	4293      	cmp	r3, r2
 800168c:	d127      	bne.n	80016de <HAL_ADC_MspInit+0x72>
  {
  /* USER CODE BEGIN ADC1_MspInit 0 */

  /* USER CODE END ADC1_MspInit 0 */
    /* Peripheral clock enable */
    __HAL_RCC_ADC1_CLK_ENABLE();
 800168e:	2300      	movs	r3, #0
 8001690:	613b      	str	r3, [r7, #16]
 8001692:	4b16      	ldr	r3, [pc, #88]	; (80016ec <HAL_ADC_MspInit+0x80>)
 8001694:	6c5b      	ldr	r3, [r3, #68]	; 0x44
 8001696:	4a15      	ldr	r2, [pc, #84]	; (80016ec <HAL_ADC_MspInit+0x80>)
 8001698:	f443 7380 	orr.w	r3, r3, #256	; 0x100
 800169c:	6453      	str	r3, [r2, #68]	; 0x44
 800169e:	4b13      	ldr	r3, [pc, #76]	; (80016ec <HAL_ADC_MspInit+0x80>)
 80016a0:	6c5b      	ldr	r3, [r3, #68]	; 0x44
 80016a2:	f403 7380 	and.w	r3, r3, #256	; 0x100
 80016a6:	613b      	str	r3, [r7, #16]
 80016a8:	693b      	ldr	r3, [r7, #16]

    __HAL_RCC_GPIOA_CLK_ENABLE();
 80016aa:	2300      	movs	r3, #0
 80016ac:	60fb      	str	r3, [r7, #12]
 80016ae:	4b0f      	ldr	r3, [pc, #60]	; (80016ec <HAL_ADC_MspInit+0x80>)
 80016b0:	6b1b      	ldr	r3, [r3, #48]	; 0x30
 80016b2:	4a0e      	ldr	r2, [pc, #56]	; (80016ec <HAL_ADC_MspInit+0x80>)
 80016b4:	f043 0301 	orr.w	r3, r3, #1
 80016b8:	6313      	str	r3, [r2, #48]	; 0x30
 80016ba:	4b0c      	ldr	r3, [pc, #48]	; (80016ec <HAL_ADC_MspInit+0x80>)
 80016bc:	6b1b      	ldr	r3, [r3, #48]	; 0x30
 80016be:	f003 0301 	and.w	r3, r3, #1
 80016c2:	60fb      	str	r3, [r7, #12]
 80016c4:	68fb      	ldr	r3, [r7, #12]
    /**ADC1 GPIO Configuration
    PA0-WKUP     ------> ADC1_IN0
    */
    GPIO_InitStruct.Pin = GPIO_PIN_0;
 80016c6:	2301      	movs	r3, #1
 80016c8:	617b      	str	r3, [r7, #20]
    GPIO_InitStruct.Mode = GPIO_MODE_ANALOG;
 80016ca:	2303      	movs	r3, #3
 80016cc:	61bb      	str	r3, [r7, #24]
    GPIO_InitStruct.Pull = GPIO_NOPULL;
 80016ce:	2300      	movs	r3, #0
 80016d0:	61fb      	str	r3, [r7, #28]
    HAL_GPIO_Init(GPIOA, &GPIO_InitStruct);
 80016d2:	f107 0314 	add.w	r3, r7, #20
 80016d6:	4619      	mov	r1, r3
 80016d8:	4805      	ldr	r0, [pc, #20]	; (80016f0 <HAL_ADC_MspInit+0x84>)
 80016da:	f000 fe3b 	bl	8002354 <HAL_GPIO_Init>
  /* USER CODE BEGIN ADC1_MspInit 1 */

  /* USER CODE END ADC1_MspInit 1 */
  }

}
 80016de:	bf00      	nop
 80016e0:	3728      	adds	r7, #40	; 0x28
 80016e2:	46bd      	mov	sp, r7
 80016e4:	bd80      	pop	{r7, pc}
 80016e6:	bf00      	nop
 80016e8:	40012000 	.word	0x40012000
 80016ec:	40023800 	.word	0x40023800
 80016f0:	40020000 	.word	0x40020000

080016f4 <HAL_UART_MspInit>:
* This function configures the hardware resources used in this example
* @param huart: UART handle pointer
* @retval None
*/
void HAL_UART_MspInit(UART_HandleTypeDef* huart)
{
 80016f4:	b580      	push	{r7, lr}
 80016f6:	b08a      	sub	sp, #40	; 0x28
 80016f8:	af00      	add	r7, sp, #0
 80016fa:	6078      	str	r0, [r7, #4]
  GPIO_InitTypeDef GPIO_InitStruct = {0};
 80016fc:	f107 0314 	add.w	r3, r7, #20
 8001700:	2200      	movs	r2, #0
 8001702:	601a      	str	r2, [r3, #0]
 8001704:	605a      	str	r2, [r3, #4]
 8001706:	609a      	str	r2, [r3, #8]
 8001708:	60da      	str	r2, [r3, #12]
 800170a:	611a      	str	r2, [r3, #16]
  if(huart->Instance==USART2)
 800170c:	687b      	ldr	r3, [r7, #4]
 800170e:	681b      	ldr	r3, [r3, #0]
 8001710:	4a19      	ldr	r2, [pc, #100]	; (8001778 <HAL_UART_MspInit+0x84>)
 8001712:	4293      	cmp	r3, r2
 8001714:	d12b      	bne.n	800176e <HAL_UART_MspInit+0x7a>
  {
  /* USER CODE BEGIN USART2_MspInit 0 */

  /* USER CODE END USART2_MspInit 0 */
    /* Peripheral clock enable */
    __HAL_RCC_USART2_CLK_ENABLE();
 8001716:	2300      	movs	r3, #0
 8001718:	613b      	str	r3, [r7, #16]
 800171a:	4b18      	ldr	r3, [pc, #96]	; (800177c <HAL_UART_MspInit+0x88>)
 800171c:	6c1b      	ldr	r3, [r3, #64]	; 0x40
 800171e:	4a17      	ldr	r2, [pc, #92]	; (800177c <HAL_UART_MspInit+0x88>)
 8001720:	f443 3300 	orr.w	r3, r3, #131072	; 0x20000
 8001724:	6413      	str	r3, [r2, #64]	; 0x40
 8001726:	4b15      	ldr	r3, [pc, #84]	; (800177c <HAL_UART_MspInit+0x88>)
 8001728:	6c1b      	ldr	r3, [r3, #64]	; 0x40
 800172a:	f403 3300 	and.w	r3, r3, #131072	; 0x20000
 800172e:	613b      	str	r3, [r7, #16]
 8001730:	693b      	ldr	r3, [r7, #16]

    __HAL_RCC_GPIOA_CLK_ENABLE();
 8001732:	2300      	movs	r3, #0
 8001734:	60fb      	str	r3, [r7, #12]
 8001736:	4b11      	ldr	r3, [pc, #68]	; (800177c <HAL_UART_MspInit+0x88>)
 8001738:	6b1b      	ldr	r3, [r3, #48]	; 0x30
 800173a:	4a10      	ldr	r2, [pc, #64]	; (800177c <HAL_UART_MspInit+0x88>)
 800173c:	f043 0301 	orr.w	r3, r3, #1
 8001740:	6313      	str	r3, [r2, #48]	; 0x30
 8001742:	4b0e      	ldr	r3, [pc, #56]	; (800177c <HAL_UART_MspInit+0x88>)
 8001744:	6b1b      	ldr	r3, [r3, #48]	; 0x30
 8001746:	f003 0301 	and.w	r3, r3, #1
 800174a:	60fb      	str	r3, [r7, #12]
 800174c:	68fb      	ldr	r3, [r7, #12]
    /**USART2 GPIO Configuration
    PA2     ------> USART2_TX
    PA3     ------> USART2_RX
    */
    GPIO_InitStruct.Pin = USART_TX_Pin|USART_RX_Pin;
 800174e:	230c      	movs	r3, #12
 8001750:	617b      	str	r3, [r7, #20]
    GPIO_InitStruct.Mode = GPIO_MODE_AF_PP;
 8001752:	2302      	movs	r3, #2
 8001754:	61bb      	str	r3, [r7, #24]
    GPIO_InitStruct.Pull = GPIO_NOPULL;
 8001756:	2300      	movs	r3, #0
 8001758:	61fb      	str	r3, [r7, #28]
    GPIO_InitStruct.Speed = GPIO_SPEED_FREQ_VERY_HIGH;
 800175a:	2303      	movs	r3, #3
 800175c:	623b      	str	r3, [r7, #32]
    GPIO_InitStruct.Alternate = GPIO_AF7_USART2;
 800175e:	2307      	movs	r3, #7
 8001760:	627b      	str	r3, [r7, #36]	; 0x24
    HAL_GPIO_Init(GPIOA, &GPIO_InitStruct);
 8001762:	f107 0314 	add.w	r3, r7, #20
 8001766:	4619      	mov	r1, r3
 8001768:	4805      	ldr	r0, [pc, #20]	; (8001780 <HAL_UART_MspInit+0x8c>)
 800176a:	f000 fdf3 	bl	8002354 <HAL_GPIO_Init>
  /* USER CODE BEGIN USART2_MspInit 1 */

  /* USER CODE END USART2_MspInit 1 */
  }

}
 800176e:	bf00      	nop
 8001770:	3728      	adds	r7, #40	; 0x28
 8001772:	46bd      	mov	sp, r7
 8001774:	bd80      	pop	{r7, pc}
 8001776:	bf00      	nop
 8001778:	40004400 	.word	0x40004400
 800177c:	40023800 	.word	0x40023800
 8001780:	40020000 	.word	0x40020000

08001784 <NMI_Handler>:
/******************************************************************************/
/**
  * @brief This function handles Non maskable interrupt.
  */
void NMI_Handler(void)
{
 8001784:	b480      	push	{r7}
 8001786:	af00      	add	r7, sp, #0

  /* USER CODE END NonMaskableInt_IRQn 0 */
  /* USER CODE BEGIN NonMaskableInt_IRQn 1 */

  /* USER CODE END NonMaskableInt_IRQn 1 */
}
 8001788:	bf00      	nop
 800178a:	46bd      	mov	sp, r7
 800178c:	f85d 7b04 	ldr.w	r7, [sp], #4
 8001790:	4770      	bx	lr

08001792 <HardFault_Handler>:

/**
  * @brief This function handles Hard fault interrupt.
  */
void HardFault_Handler(void)
{
 8001792:	b480      	push	{r7}
 8001794:	af00      	add	r7, sp, #0
  /* USER CODE BEGIN HardFault_IRQn 0 */

  /* USER CODE END HardFault_IRQn 0 */
  while (1)
 8001796:	e7fe      	b.n	8001796 <HardFault_Handler+0x4>

08001798 <MemManage_Handler>:

/**
  * @brief This function handles Memory management fault.
  */
void MemManage_Handler(void)
{
 8001798:	b480      	push	{r7}
 800179a:	af00      	add	r7, sp, #0
  /* USER CODE BEGIN MemoryManagement_IRQn 0 */

  /* USER CODE END MemoryManagement_IRQn 0 */
  while (1)
 800179c:	e7fe      	b.n	800179c <MemManage_Handler+0x4>

0800179e <BusFault_Handler>:

/**
  * @brief This function handles Pre-fetch fault, memory access fault.
  */
void BusFault_Handler(void)
{
 800179e:	b480      	push	{r7}
 80017a0:	af00      	add	r7, sp, #0
  /* USER CODE BEGIN BusFault_IRQn 0 */

  /* USER CODE END BusFault_IRQn 0 */
  while (1)
 80017a2:	e7fe      	b.n	80017a2 <BusFault_Handler+0x4>

080017a4 <UsageFault_Handler>:

/**
  * @brief This function handles Undefined instruction or illegal state.
  */
void UsageFault_Handler(void)
{
 80017a4:	b480      	push	{r7}
 80017a6:	af00      	add	r7, sp, #0
  /* USER CODE BEGIN UsageFault_IRQn 0 */

  /* USER CODE END UsageFault_IRQn 0 */
  while (1)
 80017a8:	e7fe      	b.n	80017a8 <UsageFault_Handler+0x4>

080017aa <SVC_Handler>:

/**
  * @brief This function handles System service call via SWI instruction.
  */
void SVC_Handler(void)
{
 80017aa:	b480      	push	{r7}
 80017ac:	af00      	add	r7, sp, #0

  /* USER CODE END SVCall_IRQn 0 */
  /* USER CODE BEGIN SVCall_IRQn 1 */

  /* USER CODE END SVCall_IRQn 1 */
}
 80017ae:	bf00      	nop
 80017b0:	46bd      	mov	sp, r7
 80017b2:	f85d 7b04 	ldr.w	r7, [sp], #4
 80017b6:	4770      	bx	lr

080017b8 <DebugMon_Handler>:

/**
  * @brief This function handles Debug monitor.
  */
void DebugMon_Handler(void)
{
 80017b8:	b480      	push	{r7}
 80017ba:	af00      	add	r7, sp, #0

  /* USER CODE END DebugMonitor_IRQn 0 */
  /* USER CODE BEGIN DebugMonitor_IRQn 1 */

  /* USER CODE END DebugMonitor_IRQn 1 */
}
 80017bc:	bf00      	nop
 80017be:	46bd      	mov	sp, r7
 80017c0:	f85d 7b04 	ldr.w	r7, [sp], #4
 80017c4:	4770      	bx	lr

080017c6 <PendSV_Handler>:

/**
  * @brief This function handles Pendable request for system service.
  */
void PendSV_Handler(void)
{
 80017c6:	b480      	push	{r7}
 80017c8:	af00      	add	r7, sp, #0

  /* USER CODE END PendSV_IRQn 0 */
  /* USER CODE BEGIN PendSV_IRQn 1 */

  /* USER CODE END PendSV_IRQn 1 */
}
 80017ca:	bf00      	nop
 80017cc:	46bd      	mov	sp, r7
 80017ce:	f85d 7b04 	ldr.w	r7, [sp], #4
 80017d2:	4770      	bx	lr

080017d4 <SysTick_Handler>:

/**
  * @brief This function handles System tick timer.
  */
void SysTick_Handler(void)
{
 80017d4:	b580      	push	{r7, lr}
 80017d6:	af00      	add	r7, sp, #0
  /* USER CODE BEGIN SysTick_IRQn 0 */

  /* USER CODE END SysTick_IRQn 0 */
  HAL_IncTick();
 80017d8:	f000 f8ca 	bl	8001970 <HAL_IncTick>
  /* USER CODE BEGIN SysTick_IRQn 1 */

  /* USER CODE END SysTick_IRQn 1 */
}
 80017dc:	bf00      	nop
 80017de:	bd80      	pop	{r7, pc}

080017e0 <_sbrk>:
 *
 * @param incr Memory size
 * @return Pointer to allocated memory
 */
void *_sbrk(ptrdiff_t incr)
{
 80017e0:	b580      	push	{r7, lr}
 80017e2:	b086      	sub	sp, #24
 80017e4:	af00      	add	r7, sp, #0
 80017e6:	6078      	str	r0, [r7, #4]
  extern uint8_t _end; /* Symbol defined in the linker script */
  extern uint8_t _estack; /* Symbol defined in the linker script */
  extern uint32_t _Min_Stack_Size; /* Symbol defined in the linker script */
  const uint32_t stack_limit = (uint32_t)&_estack - (uint32_t)&_Min_Stack_Size;
 80017e8:	4a14      	ldr	r2, [pc, #80]	; (800183c <_sbrk+0x5c>)
 80017ea:	4b15      	ldr	r3, [pc, #84]	; (8001840 <_sbrk+0x60>)
 80017ec:	1ad3      	subs	r3, r2, r3
 80017ee:	617b      	str	r3, [r7, #20]
  const uint8_t *max_heap = (uint8_t *)stack_limit;
 80017f0:	697b      	ldr	r3, [r7, #20]
 80017f2:	613b      	str	r3, [r7, #16]
  uint8_t *prev_heap_end;

  /* Initalize heap end at first call */
  if (NULL == __sbrk_heap_end)
 80017f4:	4b13      	ldr	r3, [pc, #76]	; (8001844 <_sbrk+0x64>)
 80017f6:	681b      	ldr	r3, [r3, #0]
 80017f8:	2b00      	cmp	r3, #0
 80017fa:	d102      	bne.n	8001802 <_sbrk+0x22>
  {
    __sbrk_heap_end = &_end;
 80017fc:	4b11      	ldr	r3, [pc, #68]	; (8001844 <_sbrk+0x64>)
 80017fe:	4a12      	ldr	r2, [pc, #72]	; (8001848 <_sbrk+0x68>)
 8001800:	601a      	str	r2, [r3, #0]
  }

  /* Protect heap from growing into the reserved MSP stack */
  if (__sbrk_heap_end + incr > max_heap)
 8001802:	4b10      	ldr	r3, [pc, #64]	; (8001844 <_sbrk+0x64>)
 8001804:	681a      	ldr	r2, [r3, #0]
 8001806:	687b      	ldr	r3, [r7, #4]
 8001808:	4413      	add	r3, r2
 800180a:	693a      	ldr	r2, [r7, #16]
 800180c:	429a      	cmp	r2, r3
 800180e:	d207      	bcs.n	8001820 <_sbrk+0x40>
  {
    errno = ENOMEM;
 8001810:	f002 f90c 	bl	8003a2c <__errno>
 8001814:	4602      	mov	r2, r0
 8001816:	230c      	movs	r3, #12
 8001818:	6013      	str	r3, [r2, #0]
    return (void *)-1;
 800181a:	f04f 33ff 	mov.w	r3, #4294967295
 800181e:	e009      	b.n	8001834 <_sbrk+0x54>
  }

  prev_heap_end = __sbrk_heap_end;
 8001820:	4b08      	ldr	r3, [pc, #32]	; (8001844 <_sbrk+0x64>)
 8001822:	681b      	ldr	r3, [r3, #0]
 8001824:	60fb      	str	r3, [r7, #12]
  __sbrk_heap_end += incr;
 8001826:	4b07      	ldr	r3, [pc, #28]	; (8001844 <_sbrk+0x64>)
 8001828:	681a      	ldr	r2, [r3, #0]
 800182a:	687b      	ldr	r3, [r7, #4]
 800182c:	4413      	add	r3, r2
 800182e:	4a05      	ldr	r2, [pc, #20]	; (8001844 <_sbrk+0x64>)
 8001830:	6013      	str	r3, [r2, #0]

  return (void *)prev_heap_end;
 8001832:	68fb      	ldr	r3, [r7, #12]
}
 8001834:	4618      	mov	r0, r3
 8001836:	3718      	adds	r7, #24
 8001838:	46bd      	mov	sp, r7
 800183a:	bd80      	pop	{r7, pc}
 800183c:	20020000 	.word	0x20020000
 8001840:	00000400 	.word	0x00000400
 8001844:	200001f8 	.word	0x200001f8
 8001848:	20000298 	.word	0x20000298

0800184c <SystemInit>:
  *         configuration.
  * @param  None
  * @retval None
  */
void SystemInit(void)
{
 800184c:	b480      	push	{r7}
 800184e:	af00      	add	r7, sp, #0
  /* FPU settings ------------------------------------------------------------*/
  #if (__FPU_PRESENT == 1) && (__FPU_USED == 1)
    SCB->CPACR |= ((3UL << 10*2)|(3UL << 11*2));  /* set CP10 and CP11 Full Access */
 8001850:	4b08      	ldr	r3, [pc, #32]	; (8001874 <SystemInit+0x28>)
 8001852:	f8d3 3088 	ldr.w	r3, [r3, #136]	; 0x88
 8001856:	4a07      	ldr	r2, [pc, #28]	; (8001874 <SystemInit+0x28>)
 8001858:	f443 0370 	orr.w	r3, r3, #15728640	; 0xf00000
 800185c:	f8c2 3088 	str.w	r3, [r2, #136]	; 0x88

  /* Configure the Vector Table location add offset address ------------------*/
#ifdef VECT_TAB_SRAM
  SCB->VTOR = SRAM_BASE | VECT_TAB_OFFSET; /* Vector Table Relocation in Internal SRAM */
#else
  SCB->VTOR = FLASH_BASE | VECT_TAB_OFFSET; /* Vector Table Relocation in Internal FLASH */
 8001860:	4b04      	ldr	r3, [pc, #16]	; (8001874 <SystemInit+0x28>)
 8001862:	f04f 6200 	mov.w	r2, #134217728	; 0x8000000
 8001866:	609a      	str	r2, [r3, #8]
#endif
}
 8001868:	bf00      	nop
 800186a:	46bd      	mov	sp, r7
 800186c:	f85d 7b04 	ldr.w	r7, [sp], #4
 8001870:	4770      	bx	lr
 8001872:	bf00      	nop
 8001874:	e000ed00 	.word	0xe000ed00

08001878 <Reset_Handler>:

    .section  .text.Reset_Handler
  .weak  Reset_Handler
  .type  Reset_Handler, %function
Reset_Handler:  
  ldr   sp, =_estack      /* set stack pointer */
 8001878:	f8df d034 	ldr.w	sp, [pc, #52]	; 80018b0 <LoopFillZerobss+0x14>

/* Copy the data segment initializers from flash to SRAM */  
  movs  r1, #0
 800187c:	2100      	movs	r1, #0
  b  LoopCopyDataInit
 800187e:	e003      	b.n	8001888 <LoopCopyDataInit>

08001880 <CopyDataInit>:

CopyDataInit:
  ldr  r3, =_sidata
 8001880:	4b0c      	ldr	r3, [pc, #48]	; (80018b4 <LoopFillZerobss+0x18>)
  ldr  r3, [r3, r1]
 8001882:	585b      	ldr	r3, [r3, r1]
  str  r3, [r0, r1]
 8001884:	5043      	str	r3, [r0, r1]
  adds  r1, r1, #4
 8001886:	3104      	adds	r1, #4

08001888 <LoopCopyDataInit>:
    
LoopCopyDataInit:
  ldr  r0, =_sdata
 8001888:	480b      	ldr	r0, [pc, #44]	; (80018b8 <LoopFillZerobss+0x1c>)
  ldr  r3, =_edata
 800188a:	4b0c      	ldr	r3, [pc, #48]	; (80018bc <LoopFillZerobss+0x20>)
  adds  r2, r0, r1
 800188c:	1842      	adds	r2, r0, r1
  cmp  r2, r3
 800188e:	429a      	cmp	r2, r3
  bcc  CopyDataInit
 8001890:	d3f6      	bcc.n	8001880 <CopyDataInit>
  ldr  r2, =_sbss
 8001892:	4a0b      	ldr	r2, [pc, #44]	; (80018c0 <LoopFillZerobss+0x24>)
  b  LoopFillZerobss
 8001894:	e002      	b.n	800189c <LoopFillZerobss>

08001896 <FillZerobss>:
/* Zero fill the bss segment. */  
FillZerobss:
  movs  r3, #0
 8001896:	2300      	movs	r3, #0
  str  r3, [r2], #4
 8001898:	f842 3b04 	str.w	r3, [r2], #4

0800189c <LoopFillZerobss>:
    
LoopFillZerobss:
  ldr  r3, = _ebss
 800189c:	4b09      	ldr	r3, [pc, #36]	; (80018c4 <LoopFillZerobss+0x28>)
  cmp  r2, r3
 800189e:	429a      	cmp	r2, r3
  bcc  FillZerobss
 80018a0:	d3f9      	bcc.n	8001896 <FillZerobss>

/* Call the clock system intitialization function.*/
  bl  SystemInit   
 80018a2:	f7ff ffd3 	bl	800184c <SystemInit>
/* Call static constructors */
    bl __libc_init_array
 80018a6:	f002 f8c7 	bl	8003a38 <__libc_init_array>
/* Call the application's entry point.*/
  bl  main
 80018aa:	f7ff fb6d 	bl	8000f88 <main>
  bx  lr    
 80018ae:	4770      	bx	lr
  ldr   sp, =_estack      /* set stack pointer */
 80018b0:	20020000 	.word	0x20020000
  ldr  r3, =_sidata
 80018b4:	08005db0 	.word	0x08005db0
  ldr  r0, =_sdata
 80018b8:	20000000 	.word	0x20000000
  ldr  r3, =_edata
 80018bc:	200001dc 	.word	0x200001dc
  ldr  r2, =_sbss
 80018c0:	200001dc 	.word	0x200001dc
  ldr  r3, = _ebss
 80018c4:	20000294 	.word	0x20000294

080018c8 <ADC_IRQHandler>:
 * @retval None       
*/
    .section  .text.Default_Handler,"ax",%progbits
Default_Handler:
Infinite_Loop:
  b  Infinite_Loop
 80018c8:	e7fe      	b.n	80018c8 <ADC_IRQHandler>
	...

080018cc <HAL_Init>:
  *         need to ensure that the SysTick time base is always set to 1 millisecond
  *         to have correct HAL operation.
  * @retval HAL status
  */
HAL_StatusTypeDef HAL_Init(void)
{
 80018cc:	b580      	push	{r7, lr}
 80018ce:	af00      	add	r7, sp, #0
  /* Configure Flash prefetch, Instruction cache, Data cache */ 
#if (INSTRUCTION_CACHE_ENABLE != 0U)
  __HAL_FLASH_INSTRUCTION_CACHE_ENABLE();
 80018d0:	4b0e      	ldr	r3, [pc, #56]	; (800190c <HAL_Init+0x40>)
 80018d2:	681b      	ldr	r3, [r3, #0]
 80018d4:	4a0d      	ldr	r2, [pc, #52]	; (800190c <HAL_Init+0x40>)
 80018d6:	f443 7300 	orr.w	r3, r3, #512	; 0x200
 80018da:	6013      	str	r3, [r2, #0]
#endif /* INSTRUCTION_CACHE_ENABLE */

#if (DATA_CACHE_ENABLE != 0U)
  __HAL_FLASH_DATA_CACHE_ENABLE();
 80018dc:	4b0b      	ldr	r3, [pc, #44]	; (800190c <HAL_Init+0x40>)
 80018de:	681b      	ldr	r3, [r3, #0]
 80018e0:	4a0a      	ldr	r2, [pc, #40]	; (800190c <HAL_Init+0x40>)
 80018e2:	f443 6380 	orr.w	r3, r3, #1024	; 0x400
 80018e6:	6013      	str	r3, [r2, #0]
#endif /* DATA_CACHE_ENABLE */

#if (PREFETCH_ENABLE != 0U)
  __HAL_FLASH_PREFETCH_BUFFER_ENABLE();
 80018e8:	4b08      	ldr	r3, [pc, #32]	; (800190c <HAL_Init+0x40>)
 80018ea:	681b      	ldr	r3, [r3, #0]
 80018ec:	4a07      	ldr	r2, [pc, #28]	; (800190c <HAL_Init+0x40>)
 80018ee:	f443 7380 	orr.w	r3, r3, #256	; 0x100
 80018f2:	6013      	str	r3, [r2, #0]
#endif /* PREFETCH_ENABLE */

  /* Set Interrupt Group Priority */
  HAL_NVIC_SetPriorityGrouping(NVIC_PRIORITYGROUP_4);
 80018f4:	2003      	movs	r0, #3
 80018f6:	f000 fcf9 	bl	80022ec <HAL_NVIC_SetPriorityGrouping>

  /* Use systick as time base source and configure 1ms tick (default clock after Reset is HSI) */
  HAL_InitTick(TICK_INT_PRIORITY);
 80018fa:	2000      	movs	r0, #0
 80018fc:	f000 f808 	bl	8001910 <HAL_InitTick>

  /* Init the low level hardware */
  HAL_MspInit();
 8001900:	f7ff fe8c 	bl	800161c <HAL_MspInit>

  /* Return function status */
  return HAL_OK;
 8001904:	2300      	movs	r3, #0
}
 8001906:	4618      	mov	r0, r3
 8001908:	bd80      	pop	{r7, pc}
 800190a:	bf00      	nop
 800190c:	40023c00 	.word	0x40023c00

08001910 <HAL_InitTick>:
  *       implementation  in user file.
  * @param TickPriority Tick interrupt priority.
  * @retval HAL status
  */
__weak HAL_StatusTypeDef HAL_InitTick(uint32_t TickPriority)
{
 8001910:	b580      	push	{r7, lr}
 8001912:	b082      	sub	sp, #8
 8001914:	af00      	add	r7, sp, #0
 8001916:	6078      	str	r0, [r7, #4]
  /* Configure the SysTick to have interrupt in 1ms time basis*/
  if (HAL_SYSTICK_Config(SystemCoreClock / (1000U / uwTickFreq)) > 0U)
 8001918:	4b12      	ldr	r3, [pc, #72]	; (8001964 <HAL_InitTick+0x54>)
 800191a:	681a      	ldr	r2, [r3, #0]
 800191c:	4b12      	ldr	r3, [pc, #72]	; (8001968 <HAL_InitTick+0x58>)
 800191e:	781b      	ldrb	r3, [r3, #0]
 8001920:	4619      	mov	r1, r3
 8001922:	f44f 737a 	mov.w	r3, #1000	; 0x3e8
 8001926:	fbb3 f3f1 	udiv	r3, r3, r1
 800192a:	fbb2 f3f3 	udiv	r3, r2, r3
 800192e:	4618      	mov	r0, r3
 8001930:	f000 fd03 	bl	800233a <HAL_SYSTICK_Config>
 8001934:	4603      	mov	r3, r0
 8001936:	2b00      	cmp	r3, #0
 8001938:	d001      	beq.n	800193e <HAL_InitTick+0x2e>
  {
    return HAL_ERROR;
 800193a:	2301      	movs	r3, #1
 800193c:	e00e      	b.n	800195c <HAL_InitTick+0x4c>
  }

  /* Configure the SysTick IRQ priority */
  if (TickPriority < (1UL << __NVIC_PRIO_BITS))
 800193e:	687b      	ldr	r3, [r7, #4]
 8001940:	2b0f      	cmp	r3, #15
 8001942:	d80a      	bhi.n	800195a <HAL_InitTick+0x4a>
  {
    HAL_NVIC_SetPriority(SysTick_IRQn, TickPriority, 0U);
 8001944:	2200      	movs	r2, #0
 8001946:	6879      	ldr	r1, [r7, #4]
 8001948:	f04f 30ff 	mov.w	r0, #4294967295
 800194c:	f000 fcd9 	bl	8002302 <HAL_NVIC_SetPriority>
    uwTickPrio = TickPriority;
 8001950:	4a06      	ldr	r2, [pc, #24]	; (800196c <HAL_InitTick+0x5c>)
 8001952:	687b      	ldr	r3, [r7, #4]
 8001954:	6013      	str	r3, [r2, #0]
  {
    return HAL_ERROR;
  }

  /* Return function status */
  return HAL_OK;
 8001956:	2300      	movs	r3, #0
 8001958:	e000      	b.n	800195c <HAL_InitTick+0x4c>
    return HAL_ERROR;
 800195a:	2301      	movs	r3, #1
}
 800195c:	4618      	mov	r0, r3
 800195e:	3708      	adds	r7, #8
 8001960:	46bd      	mov	sp, r7
 8001962:	bd80      	pop	{r7, pc}
 8001964:	20000000 	.word	0x20000000
 8001968:	20000008 	.word	0x20000008
 800196c:	20000004 	.word	0x20000004

08001970 <HAL_IncTick>:
 * @note This function is declared as __weak to be overwritten in case of other 
  *      implementations in user file.
  * @retval None
  */
__weak void HAL_IncTick(void)
{
 8001970:	b480      	push	{r7}
 8001972:	af00      	add	r7, sp, #0
  uwTick += uwTickFreq;
 8001974:	4b06      	ldr	r3, [pc, #24]	; (8001990 <HAL_IncTick+0x20>)
 8001976:	781b      	ldrb	r3, [r3, #0]
 8001978:	461a      	mov	r2, r3
 800197a:	4b06      	ldr	r3, [pc, #24]	; (8001994 <HAL_IncTick+0x24>)
 800197c:	681b      	ldr	r3, [r3, #0]
 800197e:	4413      	add	r3, r2
 8001980:	4a04      	ldr	r2, [pc, #16]	; (8001994 <HAL_IncTick+0x24>)
 8001982:	6013      	str	r3, [r2, #0]
}
 8001984:	bf00      	nop
 8001986:	46bd      	mov	sp, r7
 8001988:	f85d 7b04 	ldr.w	r7, [sp], #4
 800198c:	4770      	bx	lr
 800198e:	bf00      	nop
 8001990:	20000008 	.word	0x20000008
 8001994:	2000028c 	.word	0x2000028c

08001998 <HAL_GetTick>:
  * @note This function is declared as __weak to be overwritten in case of other 
  *       implementations in user file.
  * @retval tick value
  */
__weak uint32_t HAL_GetTick(void)
{
 8001998:	b480      	push	{r7}
 800199a:	af00      	add	r7, sp, #0
  return uwTick;
 800199c:	4b03      	ldr	r3, [pc, #12]	; (80019ac <HAL_GetTick+0x14>)
 800199e:	681b      	ldr	r3, [r3, #0]
}
 80019a0:	4618      	mov	r0, r3
 80019a2:	46bd      	mov	sp, r7
 80019a4:	f85d 7b04 	ldr.w	r7, [sp], #4
 80019a8:	4770      	bx	lr
 80019aa:	bf00      	nop
 80019ac:	2000028c 	.word	0x2000028c

080019b0 <HAL_Delay>:
  *       implementations in user file.
  * @param Delay specifies the delay time length, in milliseconds.
  * @retval None
  */
__weak void HAL_Delay(uint32_t Delay)
{
 80019b0:	b580      	push	{r7, lr}
 80019b2:	b084      	sub	sp, #16
 80019b4:	af00      	add	r7, sp, #0
 80019b6:	6078      	str	r0, [r7, #4]
  uint32_t tickstart = HAL_GetTick();
 80019b8:	f7ff ffee 	bl	8001998 <HAL_GetTick>
 80019bc:	60b8      	str	r0, [r7, #8]
  uint32_t wait = Delay;
 80019be:	687b      	ldr	r3, [r7, #4]
 80019c0:	60fb      	str	r3, [r7, #12]

  /* Add a freq to guarantee minimum wait */
  if (wait < HAL_MAX_DELAY)
 80019c2:	68fb      	ldr	r3, [r7, #12]
 80019c4:	f1b3 3fff 	cmp.w	r3, #4294967295
 80019c8:	d005      	beq.n	80019d6 <HAL_Delay+0x26>
  {
    wait += (uint32_t)(uwTickFreq);
 80019ca:	4b09      	ldr	r3, [pc, #36]	; (80019f0 <HAL_Delay+0x40>)
 80019cc:	781b      	ldrb	r3, [r3, #0]
 80019ce:	461a      	mov	r2, r3
 80019d0:	68fb      	ldr	r3, [r7, #12]
 80019d2:	4413      	add	r3, r2
 80019d4:	60fb      	str	r3, [r7, #12]
  }

  while((HAL_GetTick() - tickstart) < wait)
 80019d6:	bf00      	nop
 80019d8:	f7ff ffde 	bl	8001998 <HAL_GetTick>
 80019dc:	4602      	mov	r2, r0
 80019de:	68bb      	ldr	r3, [r7, #8]
 80019e0:	1ad3      	subs	r3, r2, r3
 80019e2:	68fa      	ldr	r2, [r7, #12]
 80019e4:	429a      	cmp	r2, r3
 80019e6:	d8f7      	bhi.n	80019d8 <HAL_Delay+0x28>
  {
  }
}
 80019e8:	bf00      	nop
 80019ea:	3710      	adds	r7, #16
 80019ec:	46bd      	mov	sp, r7
 80019ee:	bd80      	pop	{r7, pc}
 80019f0:	20000008 	.word	0x20000008

080019f4 <HAL_ADC_Init>:
  * @param  hadc pointer to a ADC_HandleTypeDef structure that contains
  *         the configuration information for the specified ADC.  
  * @retval HAL status
  */
HAL_StatusTypeDef HAL_ADC_Init(ADC_HandleTypeDef* hadc)
{
 80019f4:	b580      	push	{r7, lr}
 80019f6:	b084      	sub	sp, #16
 80019f8:	af00      	add	r7, sp, #0
 80019fa:	6078      	str	r0, [r7, #4]
  HAL_StatusTypeDef tmp_hal_status = HAL_OK;
 80019fc:	2300      	movs	r3, #0
 80019fe:	73fb      	strb	r3, [r7, #15]
  
  /* Check ADC handle */
  if(hadc == NULL)
 8001a00:	687b      	ldr	r3, [r7, #4]
 8001a02:	2b00      	cmp	r3, #0
 8001a04:	d101      	bne.n	8001a0a <HAL_ADC_Init+0x16>
  {
    return HAL_ERROR;
 8001a06:	2301      	movs	r3, #1
 8001a08:	e033      	b.n	8001a72 <HAL_ADC_Init+0x7e>
  if(hadc->Init.ExternalTrigConv != ADC_SOFTWARE_START)
  {
    assert_param(IS_ADC_EXT_TRIG_EDGE(hadc->Init.ExternalTrigConvEdge));
  }
  
  if(hadc->State == HAL_ADC_STATE_RESET)
 8001a0a:	687b      	ldr	r3, [r7, #4]
 8001a0c:	6c1b      	ldr	r3, [r3, #64]	; 0x40
 8001a0e:	2b00      	cmp	r3, #0
 8001a10:	d109      	bne.n	8001a26 <HAL_ADC_Init+0x32>

    /* Init the low level hardware */
    hadc->MspInitCallback(hadc);
#else
    /* Init the low level hardware */
    HAL_ADC_MspInit(hadc);
 8001a12:	6878      	ldr	r0, [r7, #4]
 8001a14:	f7ff fe2a 	bl	800166c <HAL_ADC_MspInit>
#endif /* USE_HAL_ADC_REGISTER_CALLBACKS */

    /* Initialize ADC error code */
    ADC_CLEAR_ERRORCODE(hadc);
 8001a18:	687b      	ldr	r3, [r7, #4]
 8001a1a:	2200      	movs	r2, #0
 8001a1c:	645a      	str	r2, [r3, #68]	; 0x44
    
    /* Allocate lock resource and initialize it */
    hadc->Lock = HAL_UNLOCKED;
 8001a1e:	687b      	ldr	r3, [r7, #4]
 8001a20:	2200      	movs	r2, #0
 8001a22:	f883 203c 	strb.w	r2, [r3, #60]	; 0x3c
  }
  
  /* Configuration of ADC parameters if previous preliminary actions are      */ 
  /* correctly completed.                                                     */
  if (HAL_IS_BIT_CLR(hadc->State, HAL_ADC_STATE_ERROR_INTERNAL))
 8001a26:	687b      	ldr	r3, [r7, #4]
 8001a28:	6c1b      	ldr	r3, [r3, #64]	; 0x40
 8001a2a:	f003 0310 	and.w	r3, r3, #16
 8001a2e:	2b00      	cmp	r3, #0
 8001a30:	d118      	bne.n	8001a64 <HAL_ADC_Init+0x70>
  {
    /* Set ADC state */
    ADC_STATE_CLR_SET(hadc->State,
 8001a32:	687b      	ldr	r3, [r7, #4]
 8001a34:	6c1b      	ldr	r3, [r3, #64]	; 0x40
 8001a36:	f423 5388 	bic.w	r3, r3, #4352	; 0x1100
 8001a3a:	f023 0302 	bic.w	r3, r3, #2
 8001a3e:	f043 0202 	orr.w	r2, r3, #2
 8001a42:	687b      	ldr	r3, [r7, #4]
 8001a44:	641a      	str	r2, [r3, #64]	; 0x40
                      HAL_ADC_STATE_REG_BUSY | HAL_ADC_STATE_INJ_BUSY,
                      HAL_ADC_STATE_BUSY_INTERNAL);
    
    /* Set ADC parameters */
    ADC_Init(hadc);
 8001a46:	6878      	ldr	r0, [r7, #4]
 8001a48:	f000 faa2 	bl	8001f90 <ADC_Init>
    
    /* Set ADC error code to none */
    ADC_CLEAR_ERRORCODE(hadc);
 8001a4c:	687b      	ldr	r3, [r7, #4]
 8001a4e:	2200      	movs	r2, #0
 8001a50:	645a      	str	r2, [r3, #68]	; 0x44
    
    /* Set the ADC state */
    ADC_STATE_CLR_SET(hadc->State,
 8001a52:	687b      	ldr	r3, [r7, #4]
 8001a54:	6c1b      	ldr	r3, [r3, #64]	; 0x40
 8001a56:	f023 0303 	bic.w	r3, r3, #3
 8001a5a:	f043 0201 	orr.w	r2, r3, #1
 8001a5e:	687b      	ldr	r3, [r7, #4]
 8001a60:	641a      	str	r2, [r3, #64]	; 0x40
 8001a62:	e001      	b.n	8001a68 <HAL_ADC_Init+0x74>
                      HAL_ADC_STATE_BUSY_INTERNAL,
                      HAL_ADC_STATE_READY);
  }
  else
  {
    tmp_hal_status = HAL_ERROR;
 8001a64:	2301      	movs	r3, #1
 8001a66:	73fb      	strb	r3, [r7, #15]
  }
  
  /* Release Lock */
  __HAL_UNLOCK(hadc);
 8001a68:	687b      	ldr	r3, [r7, #4]
 8001a6a:	2200      	movs	r2, #0
 8001a6c:	f883 203c 	strb.w	r2, [r3, #60]	; 0x3c

  /* Return function status */
  return tmp_hal_status;
 8001a70:	7bfb      	ldrb	r3, [r7, #15]
}
 8001a72:	4618      	mov	r0, r3
 8001a74:	3710      	adds	r7, #16
 8001a76:	46bd      	mov	sp, r7
 8001a78:	bd80      	pop	{r7, pc}
	...

08001a7c <HAL_ADC_Start>:
  * @param  hadc pointer to a ADC_HandleTypeDef structure that contains
  *         the configuration information for the specified ADC.
  * @retval HAL status
  */
HAL_StatusTypeDef HAL_ADC_Start(ADC_HandleTypeDef* hadc)
{
 8001a7c:	b480      	push	{r7}
 8001a7e:	b085      	sub	sp, #20
 8001a80:	af00      	add	r7, sp, #0
 8001a82:	6078      	str	r0, [r7, #4]
  __IO uint32_t counter = 0U;
 8001a84:	2300      	movs	r3, #0
 8001a86:	60bb      	str	r3, [r7, #8]
  /* Check the parameters */
  assert_param(IS_FUNCTIONAL_STATE(hadc->Init.ContinuousConvMode));
  assert_param(IS_ADC_EXT_TRIG_EDGE(hadc->Init.ExternalTrigConvEdge)); 
  
  /* Process locked */
  __HAL_LOCK(hadc);
 8001a88:	687b      	ldr	r3, [r7, #4]
 8001a8a:	f893 303c 	ldrb.w	r3, [r3, #60]	; 0x3c
 8001a8e:	2b01      	cmp	r3, #1
 8001a90:	d101      	bne.n	8001a96 <HAL_ADC_Start+0x1a>
 8001a92:	2302      	movs	r3, #2
 8001a94:	e0a5      	b.n	8001be2 <HAL_ADC_Start+0x166>
 8001a96:	687b      	ldr	r3, [r7, #4]
 8001a98:	2201      	movs	r2, #1
 8001a9a:	f883 203c 	strb.w	r2, [r3, #60]	; 0x3c
  
  /* Enable the ADC peripheral */
  /* Check if ADC peripheral is disabled in order to enable it and wait during 
  Tstab time the ADC's stabilization */
  if((hadc->Instance->CR2 & ADC_CR2_ADON) != ADC_CR2_ADON)
 8001a9e:	687b      	ldr	r3, [r7, #4]
 8001aa0:	681b      	ldr	r3, [r3, #0]
 8001aa2:	689b      	ldr	r3, [r3, #8]
 8001aa4:	f003 0301 	and.w	r3, r3, #1
 8001aa8:	2b01      	cmp	r3, #1
 8001aaa:	d018      	beq.n	8001ade <HAL_ADC_Start+0x62>
  {  
    /* Enable the Peripheral */
    __HAL_ADC_ENABLE(hadc);
 8001aac:	687b      	ldr	r3, [r7, #4]
 8001aae:	681b      	ldr	r3, [r3, #0]
 8001ab0:	689a      	ldr	r2, [r3, #8]
 8001ab2:	687b      	ldr	r3, [r7, #4]
 8001ab4:	681b      	ldr	r3, [r3, #0]
 8001ab6:	f042 0201 	orr.w	r2, r2, #1
 8001aba:	609a      	str	r2, [r3, #8]
    
    /* Delay for ADC stabilization time */
    /* Compute number of CPU cycles to wait for */
    counter = (ADC_STAB_DELAY_US * (SystemCoreClock / 1000000U));
 8001abc:	4b4c      	ldr	r3, [pc, #304]	; (8001bf0 <HAL_ADC_Start+0x174>)
 8001abe:	681b      	ldr	r3, [r3, #0]
 8001ac0:	4a4c      	ldr	r2, [pc, #304]	; (8001bf4 <HAL_ADC_Start+0x178>)
 8001ac2:	fba2 2303 	umull	r2, r3, r2, r3
 8001ac6:	0c9a      	lsrs	r2, r3, #18
 8001ac8:	4613      	mov	r3, r2
 8001aca:	005b      	lsls	r3, r3, #1
 8001acc:	4413      	add	r3, r2
 8001ace:	60bb      	str	r3, [r7, #8]
    while(counter != 0U)
 8001ad0:	e002      	b.n	8001ad8 <HAL_ADC_Start+0x5c>
    {
      counter--;
 8001ad2:	68bb      	ldr	r3, [r7, #8]
 8001ad4:	3b01      	subs	r3, #1
 8001ad6:	60bb      	str	r3, [r7, #8]
    while(counter != 0U)
 8001ad8:	68bb      	ldr	r3, [r7, #8]
 8001ada:	2b00      	cmp	r3, #0
 8001adc:	d1f9      	bne.n	8001ad2 <HAL_ADC_Start+0x56>
    }
  }
  
  /* Start conversion if ADC is effectively enabled */
  if(HAL_IS_BIT_SET(hadc->Instance->CR2, ADC_CR2_ADON))
 8001ade:	687b      	ldr	r3, [r7, #4]
 8001ae0:	681b      	ldr	r3, [r3, #0]
 8001ae2:	689b      	ldr	r3, [r3, #8]
 8001ae4:	f003 0301 	and.w	r3, r3, #1
 8001ae8:	2b01      	cmp	r3, #1
 8001aea:	d179      	bne.n	8001be0 <HAL_ADC_Start+0x164>
  {
    /* Set ADC state                                                          */
    /* - Clear state bitfield related to regular group conversion results     */
    /* - Set state bitfield related to regular group operation                */
    ADC_STATE_CLR_SET(hadc->State,
 8001aec:	687b      	ldr	r3, [r7, #4]
 8001aee:	6c1b      	ldr	r3, [r3, #64]	; 0x40
 8001af0:	f423 63e0 	bic.w	r3, r3, #1792	; 0x700
 8001af4:	f023 0301 	bic.w	r3, r3, #1
 8001af8:	f443 7280 	orr.w	r2, r3, #256	; 0x100
 8001afc:	687b      	ldr	r3, [r7, #4]
 8001afe:	641a      	str	r2, [r3, #64]	; 0x40
                      HAL_ADC_STATE_READY | HAL_ADC_STATE_REG_EOC | HAL_ADC_STATE_REG_OVR,
                      HAL_ADC_STATE_REG_BUSY);
    
    /* If conversions on group regular are also triggering group injected,    */
    /* update ADC state.                                                      */
    if (READ_BIT(hadc->Instance->CR1, ADC_CR1_JAUTO) != RESET)
 8001b00:	687b      	ldr	r3, [r7, #4]
 8001b02:	681b      	ldr	r3, [r3, #0]
 8001b04:	685b      	ldr	r3, [r3, #4]
 8001b06:	f403 6380 	and.w	r3, r3, #1024	; 0x400
 8001b0a:	2b00      	cmp	r3, #0
 8001b0c:	d007      	beq.n	8001b1e <HAL_ADC_Start+0xa2>
    {
      ADC_STATE_CLR_SET(hadc->State, HAL_ADC_STATE_INJ_EOC, HAL_ADC_STATE_INJ_BUSY);  
 8001b0e:	687b      	ldr	r3, [r7, #4]
 8001b10:	6c1b      	ldr	r3, [r3, #64]	; 0x40
 8001b12:	f423 5340 	bic.w	r3, r3, #12288	; 0x3000
 8001b16:	f443 5280 	orr.w	r2, r3, #4096	; 0x1000
 8001b1a:	687b      	ldr	r3, [r7, #4]
 8001b1c:	641a      	str	r2, [r3, #64]	; 0x40
    }
    
    /* State machine update: Check if an injected conversion is ongoing */
    if (HAL_IS_BIT_SET(hadc->State, HAL_ADC_STATE_INJ_BUSY))
 8001b1e:	687b      	ldr	r3, [r7, #4]
 8001b20:	6c1b      	ldr	r3, [r3, #64]	; 0x40
 8001b22:	f403 5380 	and.w	r3, r3, #4096	; 0x1000
 8001b26:	f5b3 5f80 	cmp.w	r3, #4096	; 0x1000
 8001b2a:	d106      	bne.n	8001b3a <HAL_ADC_Start+0xbe>
    {
      /* Reset ADC error code fields related to conversions on group regular */
      CLEAR_BIT(hadc->ErrorCode, (HAL_ADC_ERROR_OVR | HAL_ADC_ERROR_DMA));         
 8001b2c:	687b      	ldr	r3, [r7, #4]
 8001b2e:	6c5b      	ldr	r3, [r3, #68]	; 0x44
 8001b30:	f023 0206 	bic.w	r2, r3, #6
 8001b34:	687b      	ldr	r3, [r7, #4]
 8001b36:	645a      	str	r2, [r3, #68]	; 0x44
 8001b38:	e002      	b.n	8001b40 <HAL_ADC_Start+0xc4>
    }
    else
    {
      /* Reset ADC all error code fields */
      ADC_CLEAR_ERRORCODE(hadc);
 8001b3a:	687b      	ldr	r3, [r7, #4]
 8001b3c:	2200      	movs	r2, #0
 8001b3e:	645a      	str	r2, [r3, #68]	; 0x44
    } 

    /* Process unlocked */
    /* Unlock before starting ADC conversions: in case of potential           */
    /* interruption, to let the process to ADC IRQ Handler.                   */
    __HAL_UNLOCK(hadc);
 8001b40:	687b      	ldr	r3, [r7, #4]
 8001b42:	2200      	movs	r2, #0
 8001b44:	f883 203c 	strb.w	r2, [r3, #60]	; 0x3c

    /* Pointer to the common control register to which is belonging hadc    */
    /* (Depending on STM32F4 product, there may be up to 3 ADCs and 1 common */
    /* control register)                                                    */
    tmpADC_Common = ADC_COMMON_REGISTER(hadc);
 8001b48:	4b2b      	ldr	r3, [pc, #172]	; (8001bf8 <HAL_ADC_Start+0x17c>)
 8001b4a:	60fb      	str	r3, [r7, #12]

    /* Clear regular group conversion flag and overrun flag */
    /* (To ensure of no unknown state from potential previous ADC operations) */
    __HAL_ADC_CLEAR_FLAG(hadc, ADC_FLAG_EOC | ADC_FLAG_OVR);
 8001b4c:	687b      	ldr	r3, [r7, #4]
 8001b4e:	681b      	ldr	r3, [r3, #0]
 8001b50:	f06f 0222 	mvn.w	r2, #34	; 0x22
 8001b54:	601a      	str	r2, [r3, #0]
    
    /* Check if Multimode enabled */
    if(HAL_IS_BIT_CLR(tmpADC_Common->CCR, ADC_CCR_MULTI))
 8001b56:	68fb      	ldr	r3, [r7, #12]
 8001b58:	685b      	ldr	r3, [r3, #4]
 8001b5a:	f003 031f 	and.w	r3, r3, #31
 8001b5e:	2b00      	cmp	r3, #0
 8001b60:	d12a      	bne.n	8001bb8 <HAL_ADC_Start+0x13c>
    {
#if defined(ADC2) && defined(ADC3)
      if((hadc->Instance == ADC1) || ((hadc->Instance == ADC2) && ((ADC->CCR & ADC_CCR_MULTI_Msk) < ADC_CCR_MULTI_0)) \
 8001b62:	687b      	ldr	r3, [r7, #4]
 8001b64:	681b      	ldr	r3, [r3, #0]
 8001b66:	4a25      	ldr	r2, [pc, #148]	; (8001bfc <HAL_ADC_Start+0x180>)
 8001b68:	4293      	cmp	r3, r2
 8001b6a:	d015      	beq.n	8001b98 <HAL_ADC_Start+0x11c>
 8001b6c:	687b      	ldr	r3, [r7, #4]
 8001b6e:	681b      	ldr	r3, [r3, #0]
 8001b70:	4a23      	ldr	r2, [pc, #140]	; (8001c00 <HAL_ADC_Start+0x184>)
 8001b72:	4293      	cmp	r3, r2
 8001b74:	d105      	bne.n	8001b82 <HAL_ADC_Start+0x106>
 8001b76:	4b20      	ldr	r3, [pc, #128]	; (8001bf8 <HAL_ADC_Start+0x17c>)
 8001b78:	685b      	ldr	r3, [r3, #4]
 8001b7a:	f003 031f 	and.w	r3, r3, #31
 8001b7e:	2b00      	cmp	r3, #0
 8001b80:	d00a      	beq.n	8001b98 <HAL_ADC_Start+0x11c>
                                  || ((hadc->Instance == ADC3) && ((ADC->CCR & ADC_CCR_MULTI_Msk) < ADC_CCR_MULTI_4)))
 8001b82:	687b      	ldr	r3, [r7, #4]
 8001b84:	681b      	ldr	r3, [r3, #0]
 8001b86:	4a1f      	ldr	r2, [pc, #124]	; (8001c04 <HAL_ADC_Start+0x188>)
 8001b88:	4293      	cmp	r3, r2
 8001b8a:	d129      	bne.n	8001be0 <HAL_ADC_Start+0x164>
 8001b8c:	4b1a      	ldr	r3, [pc, #104]	; (8001bf8 <HAL_ADC_Start+0x17c>)
 8001b8e:	685b      	ldr	r3, [r3, #4]
 8001b90:	f003 031f 	and.w	r3, r3, #31
 8001b94:	2b0f      	cmp	r3, #15
 8001b96:	d823      	bhi.n	8001be0 <HAL_ADC_Start+0x164>
      {
#endif /* ADC2 || ADC3 */
        /* if no external trigger present enable software conversion of regular channels */
        if((hadc->Instance->CR2 & ADC_CR2_EXTEN) == RESET) 
 8001b98:	687b      	ldr	r3, [r7, #4]
 8001b9a:	681b      	ldr	r3, [r3, #0]
 8001b9c:	689b      	ldr	r3, [r3, #8]
 8001b9e:	f003 5340 	and.w	r3, r3, #805306368	; 0x30000000
 8001ba2:	2b00      	cmp	r3, #0
 8001ba4:	d11c      	bne.n	8001be0 <HAL_ADC_Start+0x164>
        {
          /* Enable the selected ADC software conversion for regular group */
          hadc->Instance->CR2 |= (uint32_t)ADC_CR2_SWSTART;
 8001ba6:	687b      	ldr	r3, [r7, #4]
 8001ba8:	681b      	ldr	r3, [r3, #0]
 8001baa:	689a      	ldr	r2, [r3, #8]
 8001bac:	687b      	ldr	r3, [r7, #4]
 8001bae:	681b      	ldr	r3, [r3, #0]
 8001bb0:	f042 4280 	orr.w	r2, r2, #1073741824	; 0x40000000
 8001bb4:	609a      	str	r2, [r3, #8]
 8001bb6:	e013      	b.n	8001be0 <HAL_ADC_Start+0x164>
#endif /* ADC2 || ADC3 */
    }
    else
    {
      /* if instance of handle correspond to ADC1 and  no external trigger present enable software conversion of regular channels */
      if((hadc->Instance == ADC1) && ((hadc->Instance->CR2 & ADC_CR2_EXTEN) == RESET))
 8001bb8:	687b      	ldr	r3, [r7, #4]
 8001bba:	681b      	ldr	r3, [r3, #0]
 8001bbc:	4a0f      	ldr	r2, [pc, #60]	; (8001bfc <HAL_ADC_Start+0x180>)
 8001bbe:	4293      	cmp	r3, r2
 8001bc0:	d10e      	bne.n	8001be0 <HAL_ADC_Start+0x164>
 8001bc2:	687b      	ldr	r3, [r7, #4]
 8001bc4:	681b      	ldr	r3, [r3, #0]
 8001bc6:	689b      	ldr	r3, [r3, #8]
 8001bc8:	f003 5340 	and.w	r3, r3, #805306368	; 0x30000000
 8001bcc:	2b00      	cmp	r3, #0
 8001bce:	d107      	bne.n	8001be0 <HAL_ADC_Start+0x164>
      {
        /* Enable the selected ADC software conversion for regular group */
          hadc->Instance->CR2 |= (uint32_t)ADC_CR2_SWSTART;
 8001bd0:	687b      	ldr	r3, [r7, #4]
 8001bd2:	681b      	ldr	r3, [r3, #0]
 8001bd4:	689a      	ldr	r2, [r3, #8]
 8001bd6:	687b      	ldr	r3, [r7, #4]
 8001bd8:	681b      	ldr	r3, [r3, #0]
 8001bda:	f042 4280 	orr.w	r2, r2, #1073741824	; 0x40000000
 8001bde:	609a      	str	r2, [r3, #8]
      }
    }
  }
  
  /* Return function status */
  return HAL_OK;
 8001be0:	2300      	movs	r3, #0
}
 8001be2:	4618      	mov	r0, r3
 8001be4:	3714      	adds	r7, #20
 8001be6:	46bd      	mov	sp, r7
 8001be8:	f85d 7b04 	ldr.w	r7, [sp], #4
 8001bec:	4770      	bx	lr
 8001bee:	bf00      	nop
 8001bf0:	20000000 	.word	0x20000000
 8001bf4:	431bde83 	.word	0x431bde83
 8001bf8:	40012300 	.word	0x40012300
 8001bfc:	40012000 	.word	0x40012000
 8001c00:	40012100 	.word	0x40012100
 8001c04:	40012200 	.word	0x40012200

08001c08 <HAL_ADC_PollForConversion>:
  *         the configuration information for the specified ADC.
  * @param  Timeout Timeout value in millisecond.  
  * @retval HAL status
  */
HAL_StatusTypeDef HAL_ADC_PollForConversion(ADC_HandleTypeDef* hadc, uint32_t Timeout)
{
 8001c08:	b580      	push	{r7, lr}
 8001c0a:	b084      	sub	sp, #16
 8001c0c:	af00      	add	r7, sp, #0
 8001c0e:	6078      	str	r0, [r7, #4]
 8001c10:	6039      	str	r1, [r7, #0]
  uint32_t tickstart = 0U;
 8001c12:	2300      	movs	r3, #0
 8001c14:	60fb      	str	r3, [r7, #12]
  /* each conversion:                                                       */
  /* Particular case is ADC configured in DMA mode and ADC sequencer with   */
  /* several ranks and polling for end of each conversion.                  */
  /* For code simplicity sake, this particular case is generalized to       */
  /* ADC configured in DMA mode and polling for end of each conversion.     */
  if (HAL_IS_BIT_SET(hadc->Instance->CR2, ADC_CR2_EOCS) &&
 8001c16:	687b      	ldr	r3, [r7, #4]
 8001c18:	681b      	ldr	r3, [r3, #0]
 8001c1a:	689b      	ldr	r3, [r3, #8]
 8001c1c:	f403 6380 	and.w	r3, r3, #1024	; 0x400
 8001c20:	f5b3 6f80 	cmp.w	r3, #1024	; 0x400
 8001c24:	d113      	bne.n	8001c4e <HAL_ADC_PollForConversion+0x46>
      HAL_IS_BIT_SET(hadc->Instance->CR2, ADC_CR2_DMA)    )
 8001c26:	687b      	ldr	r3, [r7, #4]
 8001c28:	681b      	ldr	r3, [r3, #0]
 8001c2a:	689b      	ldr	r3, [r3, #8]
 8001c2c:	f403 7380 	and.w	r3, r3, #256	; 0x100
  if (HAL_IS_BIT_SET(hadc->Instance->CR2, ADC_CR2_EOCS) &&
 8001c30:	f5b3 7f80 	cmp.w	r3, #256	; 0x100
 8001c34:	d10b      	bne.n	8001c4e <HAL_ADC_PollForConversion+0x46>
  {
    /* Update ADC state machine to error */
    SET_BIT(hadc->State, HAL_ADC_STATE_ERROR_CONFIG);
 8001c36:	687b      	ldr	r3, [r7, #4]
 8001c38:	6c1b      	ldr	r3, [r3, #64]	; 0x40
 8001c3a:	f043 0220 	orr.w	r2, r3, #32
 8001c3e:	687b      	ldr	r3, [r7, #4]
 8001c40:	641a      	str	r2, [r3, #64]	; 0x40
    
    /* Process unlocked */
    __HAL_UNLOCK(hadc);
 8001c42:	687b      	ldr	r3, [r7, #4]
 8001c44:	2200      	movs	r2, #0
 8001c46:	f883 203c 	strb.w	r2, [r3, #60]	; 0x3c
    
    return HAL_ERROR;
 8001c4a:	2301      	movs	r3, #1
 8001c4c:	e05c      	b.n	8001d08 <HAL_ADC_PollForConversion+0x100>
  }

  /* Get tick */ 
  tickstart = HAL_GetTick();
 8001c4e:	f7ff fea3 	bl	8001998 <HAL_GetTick>
 8001c52:	60f8      	str	r0, [r7, #12]

  /* Check End of conversion flag */
  while(!(__HAL_ADC_GET_FLAG(hadc, ADC_FLAG_EOC)))
 8001c54:	e01a      	b.n	8001c8c <HAL_ADC_PollForConversion+0x84>
  {
    /* Check if timeout is disabled (set to infinite wait) */
    if(Timeout != HAL_MAX_DELAY)
 8001c56:	683b      	ldr	r3, [r7, #0]
 8001c58:	f1b3 3fff 	cmp.w	r3, #4294967295
 8001c5c:	d016      	beq.n	8001c8c <HAL_ADC_PollForConversion+0x84>
    {
      if((Timeout == 0U) || ((HAL_GetTick() - tickstart ) > Timeout))
 8001c5e:	683b      	ldr	r3, [r7, #0]
 8001c60:	2b00      	cmp	r3, #0
 8001c62:	d007      	beq.n	8001c74 <HAL_ADC_PollForConversion+0x6c>
 8001c64:	f7ff fe98 	bl	8001998 <HAL_GetTick>
 8001c68:	4602      	mov	r2, r0
 8001c6a:	68fb      	ldr	r3, [r7, #12]
 8001c6c:	1ad3      	subs	r3, r2, r3
 8001c6e:	683a      	ldr	r2, [r7, #0]
 8001c70:	429a      	cmp	r2, r3
 8001c72:	d20b      	bcs.n	8001c8c <HAL_ADC_PollForConversion+0x84>
      {
        /* Update ADC state machine to timeout */
        SET_BIT(hadc->State, HAL_ADC_STATE_TIMEOUT);
 8001c74:	687b      	ldr	r3, [r7, #4]
 8001c76:	6c1b      	ldr	r3, [r3, #64]	; 0x40
 8001c78:	f043 0204 	orr.w	r2, r3, #4
 8001c7c:	687b      	ldr	r3, [r7, #4]
 8001c7e:	641a      	str	r2, [r3, #64]	; 0x40
        
        /* Process unlocked */
        __HAL_UNLOCK(hadc);
 8001c80:	687b      	ldr	r3, [r7, #4]
 8001c82:	2200      	movs	r2, #0
 8001c84:	f883 203c 	strb.w	r2, [r3, #60]	; 0x3c
        
        return HAL_TIMEOUT;
 8001c88:	2303      	movs	r3, #3
 8001c8a:	e03d      	b.n	8001d08 <HAL_ADC_PollForConversion+0x100>
  while(!(__HAL_ADC_GET_FLAG(hadc, ADC_FLAG_EOC)))
 8001c8c:	687b      	ldr	r3, [r7, #4]
 8001c8e:	681b      	ldr	r3, [r3, #0]
 8001c90:	681b      	ldr	r3, [r3, #0]
 8001c92:	f003 0302 	and.w	r3, r3, #2
 8001c96:	2b02      	cmp	r3, #2
 8001c98:	d1dd      	bne.n	8001c56 <HAL_ADC_PollForConversion+0x4e>
      }
    }
  }
  
  /* Clear regular group conversion flag */
  __HAL_ADC_CLEAR_FLAG(hadc, ADC_FLAG_STRT | ADC_FLAG_EOC);
 8001c9a:	687b      	ldr	r3, [r7, #4]
 8001c9c:	681b      	ldr	r3, [r3, #0]
 8001c9e:	f06f 0212 	mvn.w	r2, #18
 8001ca2:	601a      	str	r2, [r3, #0]
  
  /* Update ADC state machine */
  SET_BIT(hadc->State, HAL_ADC_STATE_REG_EOC);
 8001ca4:	687b      	ldr	r3, [r7, #4]
 8001ca6:	6c1b      	ldr	r3, [r3, #64]	; 0x40
 8001ca8:	f443 7200 	orr.w	r2, r3, #512	; 0x200
 8001cac:	687b      	ldr	r3, [r7, #4]
 8001cae:	641a      	str	r2, [r3, #64]	; 0x40
  /* by external trigger, continuous mode or scan sequence on going.          */
  /* Note: On STM32F4, there is no independent flag of end of sequence.       */
  /*       The test of scan sequence on going is done either with scan        */
  /*       sequence disabled or with end of conversion flag set to            */
  /*       of end of sequence.                                                */
  if(ADC_IS_SOFTWARE_START_REGULAR(hadc)                   &&
 8001cb0:	687b      	ldr	r3, [r7, #4]
 8001cb2:	681b      	ldr	r3, [r3, #0]
 8001cb4:	689b      	ldr	r3, [r3, #8]
 8001cb6:	f003 5340 	and.w	r3, r3, #805306368	; 0x30000000
 8001cba:	2b00      	cmp	r3, #0
 8001cbc:	d123      	bne.n	8001d06 <HAL_ADC_PollForConversion+0xfe>
     (hadc->Init.ContinuousConvMode == DISABLE)            &&
 8001cbe:	687b      	ldr	r3, [r7, #4]
 8001cc0:	7e1b      	ldrb	r3, [r3, #24]
  if(ADC_IS_SOFTWARE_START_REGULAR(hadc)                   &&
 8001cc2:	2b00      	cmp	r3, #0
 8001cc4:	d11f      	bne.n	8001d06 <HAL_ADC_PollForConversion+0xfe>
     (HAL_IS_BIT_CLR(hadc->Instance->SQR1, ADC_SQR1_L) ||
 8001cc6:	687b      	ldr	r3, [r7, #4]
 8001cc8:	681b      	ldr	r3, [r3, #0]
 8001cca:	6adb      	ldr	r3, [r3, #44]	; 0x2c
 8001ccc:	f403 0370 	and.w	r3, r3, #15728640	; 0xf00000
     (hadc->Init.ContinuousConvMode == DISABLE)            &&
 8001cd0:	2b00      	cmp	r3, #0
 8001cd2:	d006      	beq.n	8001ce2 <HAL_ADC_PollForConversion+0xda>
      HAL_IS_BIT_CLR(hadc->Instance->CR2, ADC_CR2_EOCS)  )   )
 8001cd4:	687b      	ldr	r3, [r7, #4]
 8001cd6:	681b      	ldr	r3, [r3, #0]
 8001cd8:	689b      	ldr	r3, [r3, #8]
 8001cda:	f403 6380 	and.w	r3, r3, #1024	; 0x400
     (HAL_IS_BIT_CLR(hadc->Instance->SQR1, ADC_SQR1_L) ||
 8001cde:	2b00      	cmp	r3, #0
 8001ce0:	d111      	bne.n	8001d06 <HAL_ADC_PollForConversion+0xfe>
  {
    /* Set ADC state */
    CLEAR_BIT(hadc->State, HAL_ADC_STATE_REG_BUSY);   
 8001ce2:	687b      	ldr	r3, [r7, #4]
 8001ce4:	6c1b      	ldr	r3, [r3, #64]	; 0x40
 8001ce6:	f423 7280 	bic.w	r2, r3, #256	; 0x100
 8001cea:	687b      	ldr	r3, [r7, #4]
 8001cec:	641a      	str	r2, [r3, #64]	; 0x40
    
    if (HAL_IS_BIT_CLR(hadc->State, HAL_ADC_STATE_INJ_BUSY))
 8001cee:	687b      	ldr	r3, [r7, #4]
 8001cf0:	6c1b      	ldr	r3, [r3, #64]	; 0x40
 8001cf2:	f403 5380 	and.w	r3, r3, #4096	; 0x1000
 8001cf6:	2b00      	cmp	r3, #0
 8001cf8:	d105      	bne.n	8001d06 <HAL_ADC_PollForConversion+0xfe>
    { 
      SET_BIT(hadc->State, HAL_ADC_STATE_READY);
 8001cfa:	687b      	ldr	r3, [r7, #4]
 8001cfc:	6c1b      	ldr	r3, [r3, #64]	; 0x40
 8001cfe:	f043 0201 	orr.w	r2, r3, #1
 8001d02:	687b      	ldr	r3, [r7, #4]
 8001d04:	641a      	str	r2, [r3, #64]	; 0x40
    }
  }
  
  /* Return ADC state */
  return HAL_OK;
 8001d06:	2300      	movs	r3, #0
}
 8001d08:	4618      	mov	r0, r3
 8001d0a:	3710      	adds	r7, #16
 8001d0c:	46bd      	mov	sp, r7
 8001d0e:	bd80      	pop	{r7, pc}

08001d10 <HAL_ADC_GetValue>:
  * @param  hadc pointer to a ADC_HandleTypeDef structure that contains
  *         the configuration information for the specified ADC.
  * @retval Converted value
  */
uint32_t HAL_ADC_GetValue(ADC_HandleTypeDef* hadc)
{       
 8001d10:	b480      	push	{r7}
 8001d12:	b083      	sub	sp, #12
 8001d14:	af00      	add	r7, sp, #0
 8001d16:	6078      	str	r0, [r7, #4]
  /* Return the selected ADC converted value */ 
  return hadc->Instance->DR;
 8001d18:	687b      	ldr	r3, [r7, #4]
 8001d1a:	681b      	ldr	r3, [r3, #0]
 8001d1c:	6cdb      	ldr	r3, [r3, #76]	; 0x4c
}
 8001d1e:	4618      	mov	r0, r3
 8001d20:	370c      	adds	r7, #12
 8001d22:	46bd      	mov	sp, r7
 8001d24:	f85d 7b04 	ldr.w	r7, [sp], #4
 8001d28:	4770      	bx	lr
	...

08001d2c <HAL_ADC_ConfigChannel>:
  *         the configuration information for the specified ADC.
  * @param  sConfig ADC configuration structure. 
  * @retval HAL status
  */
HAL_StatusTypeDef HAL_ADC_ConfigChannel(ADC_HandleTypeDef* hadc, ADC_ChannelConfTypeDef* sConfig)
{
 8001d2c:	b480      	push	{r7}
 8001d2e:	b085      	sub	sp, #20
 8001d30:	af00      	add	r7, sp, #0
 8001d32:	6078      	str	r0, [r7, #4]
 8001d34:	6039      	str	r1, [r7, #0]
  __IO uint32_t counter = 0U;
 8001d36:	2300      	movs	r3, #0
 8001d38:	60bb      	str	r3, [r7, #8]
  assert_param(IS_ADC_CHANNEL(sConfig->Channel));
  assert_param(IS_ADC_REGULAR_RANK(sConfig->Rank));
  assert_param(IS_ADC_SAMPLE_TIME(sConfig->SamplingTime));
  
  /* Process locked */
  __HAL_LOCK(hadc);
 8001d3a:	687b      	ldr	r3, [r7, #4]
 8001d3c:	f893 303c 	ldrb.w	r3, [r3, #60]	; 0x3c
 8001d40:	2b01      	cmp	r3, #1
 8001d42:	d101      	bne.n	8001d48 <HAL_ADC_ConfigChannel+0x1c>
 8001d44:	2302      	movs	r3, #2
 8001d46:	e113      	b.n	8001f70 <HAL_ADC_ConfigChannel+0x244>
 8001d48:	687b      	ldr	r3, [r7, #4]
 8001d4a:	2201      	movs	r2, #1
 8001d4c:	f883 203c 	strb.w	r2, [r3, #60]	; 0x3c
    
  /* if ADC_Channel_10 ... ADC_Channel_18 is selected */
  if (sConfig->Channel > ADC_CHANNEL_9)
 8001d50:	683b      	ldr	r3, [r7, #0]
 8001d52:	681b      	ldr	r3, [r3, #0]
 8001d54:	2b09      	cmp	r3, #9
 8001d56:	d925      	bls.n	8001da4 <HAL_ADC_ConfigChannel+0x78>
  {
    /* Clear the old sample time */
    hadc->Instance->SMPR1 &= ~ADC_SMPR1(ADC_SMPR1_SMP10, sConfig->Channel);
 8001d58:	687b      	ldr	r3, [r7, #4]
 8001d5a:	681b      	ldr	r3, [r3, #0]
 8001d5c:	68d9      	ldr	r1, [r3, #12]
 8001d5e:	683b      	ldr	r3, [r7, #0]
 8001d60:	681b      	ldr	r3, [r3, #0]
 8001d62:	b29b      	uxth	r3, r3
 8001d64:	461a      	mov	r2, r3
 8001d66:	4613      	mov	r3, r2
 8001d68:	005b      	lsls	r3, r3, #1
 8001d6a:	4413      	add	r3, r2
 8001d6c:	3b1e      	subs	r3, #30
 8001d6e:	2207      	movs	r2, #7
 8001d70:	fa02 f303 	lsl.w	r3, r2, r3
 8001d74:	43da      	mvns	r2, r3
 8001d76:	687b      	ldr	r3, [r7, #4]
 8001d78:	681b      	ldr	r3, [r3, #0]
 8001d7a:	400a      	ands	r2, r1
 8001d7c:	60da      	str	r2, [r3, #12]
    
    /* Set the new sample time */
    hadc->Instance->SMPR1 |= ADC_SMPR1(sConfig->SamplingTime, sConfig->Channel);
 8001d7e:	687b      	ldr	r3, [r7, #4]
 8001d80:	681b      	ldr	r3, [r3, #0]
 8001d82:	68d9      	ldr	r1, [r3, #12]
 8001d84:	683b      	ldr	r3, [r7, #0]
 8001d86:	689a      	ldr	r2, [r3, #8]
 8001d88:	683b      	ldr	r3, [r7, #0]
 8001d8a:	681b      	ldr	r3, [r3, #0]
 8001d8c:	b29b      	uxth	r3, r3
 8001d8e:	4618      	mov	r0, r3
 8001d90:	4603      	mov	r3, r0
 8001d92:	005b      	lsls	r3, r3, #1
 8001d94:	4403      	add	r3, r0
 8001d96:	3b1e      	subs	r3, #30
 8001d98:	409a      	lsls	r2, r3
 8001d9a:	687b      	ldr	r3, [r7, #4]
 8001d9c:	681b      	ldr	r3, [r3, #0]
 8001d9e:	430a      	orrs	r2, r1
 8001da0:	60da      	str	r2, [r3, #12]
 8001da2:	e022      	b.n	8001dea <HAL_ADC_ConfigChannel+0xbe>
  }
  else /* ADC_Channel include in ADC_Channel_[0..9] */
  {
    /* Clear the old sample time */
    hadc->Instance->SMPR2 &= ~ADC_SMPR2(ADC_SMPR2_SMP0, sConfig->Channel);
 8001da4:	687b      	ldr	r3, [r7, #4]
 8001da6:	681b      	ldr	r3, [r3, #0]
 8001da8:	6919      	ldr	r1, [r3, #16]
 8001daa:	683b      	ldr	r3, [r7, #0]
 8001dac:	681b      	ldr	r3, [r3, #0]
 8001dae:	b29b      	uxth	r3, r3
 8001db0:	461a      	mov	r2, r3
 8001db2:	4613      	mov	r3, r2
 8001db4:	005b      	lsls	r3, r3, #1
 8001db6:	4413      	add	r3, r2
 8001db8:	2207      	movs	r2, #7
 8001dba:	fa02 f303 	lsl.w	r3, r2, r3
 8001dbe:	43da      	mvns	r2, r3
 8001dc0:	687b      	ldr	r3, [r7, #4]
 8001dc2:	681b      	ldr	r3, [r3, #0]
 8001dc4:	400a      	ands	r2, r1
 8001dc6:	611a      	str	r2, [r3, #16]
    
    /* Set the new sample time */
    hadc->Instance->SMPR2 |= ADC_SMPR2(sConfig->SamplingTime, sConfig->Channel);
 8001dc8:	687b      	ldr	r3, [r7, #4]
 8001dca:	681b      	ldr	r3, [r3, #0]
 8001dcc:	6919      	ldr	r1, [r3, #16]
 8001dce:	683b      	ldr	r3, [r7, #0]
 8001dd0:	689a      	ldr	r2, [r3, #8]
 8001dd2:	683b      	ldr	r3, [r7, #0]
 8001dd4:	681b      	ldr	r3, [r3, #0]
 8001dd6:	b29b      	uxth	r3, r3
 8001dd8:	4618      	mov	r0, r3
 8001dda:	4603      	mov	r3, r0
 8001ddc:	005b      	lsls	r3, r3, #1
 8001dde:	4403      	add	r3, r0
 8001de0:	409a      	lsls	r2, r3
 8001de2:	687b      	ldr	r3, [r7, #4]
 8001de4:	681b      	ldr	r3, [r3, #0]
 8001de6:	430a      	orrs	r2, r1
 8001de8:	611a      	str	r2, [r3, #16]
  }
  
  /* For Rank 1 to 6 */
  if (sConfig->Rank < 7U)
 8001dea:	683b      	ldr	r3, [r7, #0]
 8001dec:	685b      	ldr	r3, [r3, #4]
 8001dee:	2b06      	cmp	r3, #6
 8001df0:	d824      	bhi.n	8001e3c <HAL_ADC_ConfigChannel+0x110>
  {
    /* Clear the old SQx bits for the selected rank */
    hadc->Instance->SQR3 &= ~ADC_SQR3_RK(ADC_SQR3_SQ1, sConfig->Rank);
 8001df2:	687b      	ldr	r3, [r7, #4]
 8001df4:	681b      	ldr	r3, [r3, #0]
 8001df6:	6b59      	ldr	r1, [r3, #52]	; 0x34
 8001df8:	683b      	ldr	r3, [r7, #0]
 8001dfa:	685a      	ldr	r2, [r3, #4]
 8001dfc:	4613      	mov	r3, r2
 8001dfe:	009b      	lsls	r3, r3, #2
 8001e00:	4413      	add	r3, r2
 8001e02:	3b05      	subs	r3, #5
 8001e04:	221f      	movs	r2, #31
 8001e06:	fa02 f303 	lsl.w	r3, r2, r3
 8001e0a:	43da      	mvns	r2, r3
 8001e0c:	687b      	ldr	r3, [r7, #4]
 8001e0e:	681b      	ldr	r3, [r3, #0]
 8001e10:	400a      	ands	r2, r1
 8001e12:	635a      	str	r2, [r3, #52]	; 0x34
    
    /* Set the SQx bits for the selected rank */
    hadc->Instance->SQR3 |= ADC_SQR3_RK(sConfig->Channel, sConfig->Rank);
 8001e14:	687b      	ldr	r3, [r7, #4]
 8001e16:	681b      	ldr	r3, [r3, #0]
 8001e18:	6b59      	ldr	r1, [r3, #52]	; 0x34
 8001e1a:	683b      	ldr	r3, [r7, #0]
 8001e1c:	681b      	ldr	r3, [r3, #0]
 8001e1e:	b29b      	uxth	r3, r3
 8001e20:	4618      	mov	r0, r3
 8001e22:	683b      	ldr	r3, [r7, #0]
 8001e24:	685a      	ldr	r2, [r3, #4]
 8001e26:	4613      	mov	r3, r2
 8001e28:	009b      	lsls	r3, r3, #2
 8001e2a:	4413      	add	r3, r2
 8001e2c:	3b05      	subs	r3, #5
 8001e2e:	fa00 f203 	lsl.w	r2, r0, r3
 8001e32:	687b      	ldr	r3, [r7, #4]
 8001e34:	681b      	ldr	r3, [r3, #0]
 8001e36:	430a      	orrs	r2, r1
 8001e38:	635a      	str	r2, [r3, #52]	; 0x34
 8001e3a:	e04c      	b.n	8001ed6 <HAL_ADC_ConfigChannel+0x1aa>
  }
  /* For Rank 7 to 12 */
  else if (sConfig->Rank < 13U)
 8001e3c:	683b      	ldr	r3, [r7, #0]
 8001e3e:	685b      	ldr	r3, [r3, #4]
 8001e40:	2b0c      	cmp	r3, #12
 8001e42:	d824      	bhi.n	8001e8e <HAL_ADC_ConfigChannel+0x162>
  {
    /* Clear the old SQx bits for the selected rank */
    hadc->Instance->SQR2 &= ~ADC_SQR2_RK(ADC_SQR2_SQ7, sConfig->Rank);
 8001e44:	687b      	ldr	r3, [r7, #4]
 8001e46:	681b      	ldr	r3, [r3, #0]
 8001e48:	6b19      	ldr	r1, [r3, #48]	; 0x30
 8001e4a:	683b      	ldr	r3, [r7, #0]
 8001e4c:	685a      	ldr	r2, [r3, #4]
 8001e4e:	4613      	mov	r3, r2
 8001e50:	009b      	lsls	r3, r3, #2
 8001e52:	4413      	add	r3, r2
 8001e54:	3b23      	subs	r3, #35	; 0x23
 8001e56:	221f      	movs	r2, #31
 8001e58:	fa02 f303 	lsl.w	r3, r2, r3
 8001e5c:	43da      	mvns	r2, r3
 8001e5e:	687b      	ldr	r3, [r7, #4]
 8001e60:	681b      	ldr	r3, [r3, #0]
 8001e62:	400a      	ands	r2, r1
 8001e64:	631a      	str	r2, [r3, #48]	; 0x30
    
    /* Set the SQx bits for the selected rank */
    hadc->Instance->SQR2 |= ADC_SQR2_RK(sConfig->Channel, sConfig->Rank);
 8001e66:	687b      	ldr	r3, [r7, #4]
 8001e68:	681b      	ldr	r3, [r3, #0]
 8001e6a:	6b19      	ldr	r1, [r3, #48]	; 0x30
 8001e6c:	683b      	ldr	r3, [r7, #0]
 8001e6e:	681b      	ldr	r3, [r3, #0]
 8001e70:	b29b      	uxth	r3, r3
 8001e72:	4618      	mov	r0, r3
 8001e74:	683b      	ldr	r3, [r7, #0]
 8001e76:	685a      	ldr	r2, [r3, #4]
 8001e78:	4613      	mov	r3, r2
 8001e7a:	009b      	lsls	r3, r3, #2
 8001e7c:	4413      	add	r3, r2
 8001e7e:	3b23      	subs	r3, #35	; 0x23
 8001e80:	fa00 f203 	lsl.w	r2, r0, r3
 8001e84:	687b      	ldr	r3, [r7, #4]
 8001e86:	681b      	ldr	r3, [r3, #0]
 8001e88:	430a      	orrs	r2, r1
 8001e8a:	631a      	str	r2, [r3, #48]	; 0x30
 8001e8c:	e023      	b.n	8001ed6 <HAL_ADC_ConfigChannel+0x1aa>
  }
  /* For Rank 13 to 16 */
  else
  {
    /* Clear the old SQx bits for the selected rank */
    hadc->Instance->SQR1 &= ~ADC_SQR1_RK(ADC_SQR1_SQ13, sConfig->Rank);
 8001e8e:	687b      	ldr	r3, [r7, #4]
 8001e90:	681b      	ldr	r3, [r3, #0]
 8001e92:	6ad9      	ldr	r1, [r3, #44]	; 0x2c
 8001e94:	683b      	ldr	r3, [r7, #0]
 8001e96:	685a      	ldr	r2, [r3, #4]
 8001e98:	4613      	mov	r3, r2
 8001e9a:	009b      	lsls	r3, r3, #2
 8001e9c:	4413      	add	r3, r2
 8001e9e:	3b41      	subs	r3, #65	; 0x41
 8001ea0:	221f      	movs	r2, #31
 8001ea2:	fa02 f303 	lsl.w	r3, r2, r3
 8001ea6:	43da      	mvns	r2, r3
 8001ea8:	687b      	ldr	r3, [r7, #4]
 8001eaa:	681b      	ldr	r3, [r3, #0]
 8001eac:	400a      	ands	r2, r1
 8001eae:	62da      	str	r2, [r3, #44]	; 0x2c
    
    /* Set the SQx bits for the selected rank */
    hadc->Instance->SQR1 |= ADC_SQR1_RK(sConfig->Channel, sConfig->Rank);
 8001eb0:	687b      	ldr	r3, [r7, #4]
 8001eb2:	681b      	ldr	r3, [r3, #0]
 8001eb4:	6ad9      	ldr	r1, [r3, #44]	; 0x2c
 8001eb6:	683b      	ldr	r3, [r7, #0]
 8001eb8:	681b      	ldr	r3, [r3, #0]
 8001eba:	b29b      	uxth	r3, r3
 8001ebc:	4618      	mov	r0, r3
 8001ebe:	683b      	ldr	r3, [r7, #0]
 8001ec0:	685a      	ldr	r2, [r3, #4]
 8001ec2:	4613      	mov	r3, r2
 8001ec4:	009b      	lsls	r3, r3, #2
 8001ec6:	4413      	add	r3, r2
 8001ec8:	3b41      	subs	r3, #65	; 0x41
 8001eca:	fa00 f203 	lsl.w	r2, r0, r3
 8001ece:	687b      	ldr	r3, [r7, #4]
 8001ed0:	681b      	ldr	r3, [r3, #0]
 8001ed2:	430a      	orrs	r2, r1
 8001ed4:	62da      	str	r2, [r3, #44]	; 0x2c
  }

    /* Pointer to the common control register to which is belonging hadc    */
    /* (Depending on STM32F4 product, there may be up to 3 ADCs and 1 common */
    /* control register)                                                    */
    tmpADC_Common = ADC_COMMON_REGISTER(hadc);
 8001ed6:	4b29      	ldr	r3, [pc, #164]	; (8001f7c <HAL_ADC_ConfigChannel+0x250>)
 8001ed8:	60fb      	str	r3, [r7, #12]

  /* if ADC1 Channel_18 is selected for VBAT Channel ennable VBATE */
  if ((hadc->Instance == ADC1) && (sConfig->Channel == ADC_CHANNEL_VBAT))
 8001eda:	687b      	ldr	r3, [r7, #4]
 8001edc:	681b      	ldr	r3, [r3, #0]
 8001ede:	4a28      	ldr	r2, [pc, #160]	; (8001f80 <HAL_ADC_ConfigChannel+0x254>)
 8001ee0:	4293      	cmp	r3, r2
 8001ee2:	d10f      	bne.n	8001f04 <HAL_ADC_ConfigChannel+0x1d8>
 8001ee4:	683b      	ldr	r3, [r7, #0]
 8001ee6:	681b      	ldr	r3, [r3, #0]
 8001ee8:	2b12      	cmp	r3, #18
 8001eea:	d10b      	bne.n	8001f04 <HAL_ADC_ConfigChannel+0x1d8>
  {
    /* Disable the TEMPSENSOR channel in case of using board with multiplixed ADC_CHANNEL_VBAT & ADC_CHANNEL_TEMPSENSOR*/    
    if ((uint16_t)ADC_CHANNEL_TEMPSENSOR == (uint16_t)ADC_CHANNEL_VBAT)
    {
      tmpADC_Common->CCR &= ~ADC_CCR_TSVREFE;
 8001eec:	68fb      	ldr	r3, [r7, #12]
 8001eee:	685b      	ldr	r3, [r3, #4]
 8001ef0:	f423 0200 	bic.w	r2, r3, #8388608	; 0x800000
 8001ef4:	68fb      	ldr	r3, [r7, #12]
 8001ef6:	605a      	str	r2, [r3, #4]
    }
    /* Enable the VBAT channel*/
    tmpADC_Common->CCR |= ADC_CCR_VBATE;
 8001ef8:	68fb      	ldr	r3, [r7, #12]
 8001efa:	685b      	ldr	r3, [r3, #4]
 8001efc:	f443 0280 	orr.w	r2, r3, #4194304	; 0x400000
 8001f00:	68fb      	ldr	r3, [r7, #12]
 8001f02:	605a      	str	r2, [r3, #4]
  }
  
  /* if ADC1 Channel_16 or Channel_18 is selected for Temperature sensor or 
     Channel_17 is selected for VREFINT enable TSVREFE */
  if ((hadc->Instance == ADC1) && ((sConfig->Channel == ADC_CHANNEL_TEMPSENSOR) || (sConfig->Channel == ADC_CHANNEL_VREFINT)))
 8001f04:	687b      	ldr	r3, [r7, #4]
 8001f06:	681b      	ldr	r3, [r3, #0]
 8001f08:	4a1d      	ldr	r2, [pc, #116]	; (8001f80 <HAL_ADC_ConfigChannel+0x254>)
 8001f0a:	4293      	cmp	r3, r2
 8001f0c:	d12b      	bne.n	8001f66 <HAL_ADC_ConfigChannel+0x23a>
 8001f0e:	683b      	ldr	r3, [r7, #0]
 8001f10:	681b      	ldr	r3, [r3, #0]
 8001f12:	4a1c      	ldr	r2, [pc, #112]	; (8001f84 <HAL_ADC_ConfigChannel+0x258>)
 8001f14:	4293      	cmp	r3, r2
 8001f16:	d003      	beq.n	8001f20 <HAL_ADC_ConfigChannel+0x1f4>
 8001f18:	683b      	ldr	r3, [r7, #0]
 8001f1a:	681b      	ldr	r3, [r3, #0]
 8001f1c:	2b11      	cmp	r3, #17
 8001f1e:	d122      	bne.n	8001f66 <HAL_ADC_ConfigChannel+0x23a>
  {
    /* Disable the VBAT channel in case of using board with multiplixed ADC_CHANNEL_VBAT & ADC_CHANNEL_TEMPSENSOR*/
    if ((uint16_t)ADC_CHANNEL_TEMPSENSOR == (uint16_t)ADC_CHANNEL_VBAT)
    {
      tmpADC_Common->CCR &= ~ADC_CCR_VBATE;
 8001f20:	68fb      	ldr	r3, [r7, #12]
 8001f22:	685b      	ldr	r3, [r3, #4]
 8001f24:	f423 0280 	bic.w	r2, r3, #4194304	; 0x400000
 8001f28:	68fb      	ldr	r3, [r7, #12]
 8001f2a:	605a      	str	r2, [r3, #4]
    }
    /* Enable the Temperature sensor and VREFINT channel*/
    tmpADC_Common->CCR |= ADC_CCR_TSVREFE;
 8001f2c:	68fb      	ldr	r3, [r7, #12]
 8001f2e:	685b      	ldr	r3, [r3, #4]
 8001f30:	f443 0200 	orr.w	r2, r3, #8388608	; 0x800000
 8001f34:	68fb      	ldr	r3, [r7, #12]
 8001f36:	605a      	str	r2, [r3, #4]
    
    if((sConfig->Channel == ADC_CHANNEL_TEMPSENSOR))
 8001f38:	683b      	ldr	r3, [r7, #0]
 8001f3a:	681b      	ldr	r3, [r3, #0]
 8001f3c:	4a11      	ldr	r2, [pc, #68]	; (8001f84 <HAL_ADC_ConfigChannel+0x258>)
 8001f3e:	4293      	cmp	r3, r2
 8001f40:	d111      	bne.n	8001f66 <HAL_ADC_ConfigChannel+0x23a>
    {
      /* Delay for temperature sensor stabilization time */
      /* Compute number of CPU cycles to wait for */
      counter = (ADC_TEMPSENSOR_DELAY_US * (SystemCoreClock / 1000000U));
 8001f42:	4b11      	ldr	r3, [pc, #68]	; (8001f88 <HAL_ADC_ConfigChannel+0x25c>)
 8001f44:	681b      	ldr	r3, [r3, #0]
 8001f46:	4a11      	ldr	r2, [pc, #68]	; (8001f8c <HAL_ADC_ConfigChannel+0x260>)
 8001f48:	fba2 2303 	umull	r2, r3, r2, r3
 8001f4c:	0c9a      	lsrs	r2, r3, #18
 8001f4e:	4613      	mov	r3, r2
 8001f50:	009b      	lsls	r3, r3, #2
 8001f52:	4413      	add	r3, r2
 8001f54:	005b      	lsls	r3, r3, #1
 8001f56:	60bb      	str	r3, [r7, #8]
      while(counter != 0U)
 8001f58:	e002      	b.n	8001f60 <HAL_ADC_ConfigChannel+0x234>
      {
        counter--;
 8001f5a:	68bb      	ldr	r3, [r7, #8]
 8001f5c:	3b01      	subs	r3, #1
 8001f5e:	60bb      	str	r3, [r7, #8]
      while(counter != 0U)
 8001f60:	68bb      	ldr	r3, [r7, #8]
 8001f62:	2b00      	cmp	r3, #0
 8001f64:	d1f9      	bne.n	8001f5a <HAL_ADC_ConfigChannel+0x22e>
      }
    }
  }
  
  /* Process unlocked */
  __HAL_UNLOCK(hadc);
 8001f66:	687b      	ldr	r3, [r7, #4]
 8001f68:	2200      	movs	r2, #0
 8001f6a:	f883 203c 	strb.w	r2, [r3, #60]	; 0x3c
  
  /* Return function status */
  return HAL_OK;
 8001f6e:	2300      	movs	r3, #0
}
 8001f70:	4618      	mov	r0, r3
 8001f72:	3714      	adds	r7, #20
 8001f74:	46bd      	mov	sp, r7
 8001f76:	f85d 7b04 	ldr.w	r7, [sp], #4
 8001f7a:	4770      	bx	lr
 8001f7c:	40012300 	.word	0x40012300
 8001f80:	40012000 	.word	0x40012000
 8001f84:	10000012 	.word	0x10000012
 8001f88:	20000000 	.word	0x20000000
 8001f8c:	431bde83 	.word	0x431bde83

08001f90 <ADC_Init>:
  * @param  hadc pointer to a ADC_HandleTypeDef structure that contains
  *         the configuration information for the specified ADC.  
  * @retval None
  */
static void ADC_Init(ADC_HandleTypeDef* hadc)
{
 8001f90:	b480      	push	{r7}
 8001f92:	b085      	sub	sp, #20
 8001f94:	af00      	add	r7, sp, #0
 8001f96:	6078      	str	r0, [r7, #4]
  
  /* Set ADC parameters */
  /* Pointer to the common control register to which is belonging hadc    */
  /* (Depending on STM32F4 product, there may be up to 3 ADCs and 1 common */
  /* control register)                                                    */
  tmpADC_Common = ADC_COMMON_REGISTER(hadc);
 8001f98:	4b79      	ldr	r3, [pc, #484]	; (8002180 <ADC_Init+0x1f0>)
 8001f9a:	60fb      	str	r3, [r7, #12]
  
  /* Set the ADC clock prescaler */
  tmpADC_Common->CCR &= ~(ADC_CCR_ADCPRE);
 8001f9c:	68fb      	ldr	r3, [r7, #12]
 8001f9e:	685b      	ldr	r3, [r3, #4]
 8001fa0:	f423 3240 	bic.w	r2, r3, #196608	; 0x30000
 8001fa4:	68fb      	ldr	r3, [r7, #12]
 8001fa6:	605a      	str	r2, [r3, #4]
  tmpADC_Common->CCR |=  hadc->Init.ClockPrescaler;
 8001fa8:	68fb      	ldr	r3, [r7, #12]
 8001faa:	685a      	ldr	r2, [r3, #4]
 8001fac:	687b      	ldr	r3, [r7, #4]
 8001fae:	685b      	ldr	r3, [r3, #4]
 8001fb0:	431a      	orrs	r2, r3
 8001fb2:	68fb      	ldr	r3, [r7, #12]
 8001fb4:	605a      	str	r2, [r3, #4]
  
  /* Set ADC scan mode */
  hadc->Instance->CR1 &= ~(ADC_CR1_SCAN);
 8001fb6:	687b      	ldr	r3, [r7, #4]
 8001fb8:	681b      	ldr	r3, [r3, #0]
 8001fba:	685a      	ldr	r2, [r3, #4]
 8001fbc:	687b      	ldr	r3, [r7, #4]
 8001fbe:	681b      	ldr	r3, [r3, #0]
 8001fc0:	f422 7280 	bic.w	r2, r2, #256	; 0x100
 8001fc4:	605a      	str	r2, [r3, #4]
  hadc->Instance->CR1 |=  ADC_CR1_SCANCONV(hadc->Init.ScanConvMode);
 8001fc6:	687b      	ldr	r3, [r7, #4]
 8001fc8:	681b      	ldr	r3, [r3, #0]
 8001fca:	6859      	ldr	r1, [r3, #4]
 8001fcc:	687b      	ldr	r3, [r7, #4]
 8001fce:	691b      	ldr	r3, [r3, #16]
 8001fd0:	021a      	lsls	r2, r3, #8
 8001fd2:	687b      	ldr	r3, [r7, #4]
 8001fd4:	681b      	ldr	r3, [r3, #0]
 8001fd6:	430a      	orrs	r2, r1
 8001fd8:	605a      	str	r2, [r3, #4]
  
  /* Set ADC resolution */
  hadc->Instance->CR1 &= ~(ADC_CR1_RES);
 8001fda:	687b      	ldr	r3, [r7, #4]
 8001fdc:	681b      	ldr	r3, [r3, #0]
 8001fde:	685a      	ldr	r2, [r3, #4]
 8001fe0:	687b      	ldr	r3, [r7, #4]
 8001fe2:	681b      	ldr	r3, [r3, #0]
 8001fe4:	f022 7240 	bic.w	r2, r2, #50331648	; 0x3000000
 8001fe8:	605a      	str	r2, [r3, #4]
  hadc->Instance->CR1 |=  hadc->Init.Resolution;
 8001fea:	687b      	ldr	r3, [r7, #4]
 8001fec:	681b      	ldr	r3, [r3, #0]
 8001fee:	6859      	ldr	r1, [r3, #4]
 8001ff0:	687b      	ldr	r3, [r7, #4]
 8001ff2:	689a      	ldr	r2, [r3, #8]
 8001ff4:	687b      	ldr	r3, [r7, #4]
 8001ff6:	681b      	ldr	r3, [r3, #0]
 8001ff8:	430a      	orrs	r2, r1
 8001ffa:	605a      	str	r2, [r3, #4]
  
  /* Set ADC data alignment */
  hadc->Instance->CR2 &= ~(ADC_CR2_ALIGN);
 8001ffc:	687b      	ldr	r3, [r7, #4]
 8001ffe:	681b      	ldr	r3, [r3, #0]
 8002000:	689a      	ldr	r2, [r3, #8]
 8002002:	687b      	ldr	r3, [r7, #4]
 8002004:	681b      	ldr	r3, [r3, #0]
 8002006:	f422 6200 	bic.w	r2, r2, #2048	; 0x800
 800200a:	609a      	str	r2, [r3, #8]
  hadc->Instance->CR2 |= hadc->Init.DataAlign;
 800200c:	687b      	ldr	r3, [r7, #4]
 800200e:	681b      	ldr	r3, [r3, #0]
 8002010:	6899      	ldr	r1, [r3, #8]
 8002012:	687b      	ldr	r3, [r7, #4]
 8002014:	68da      	ldr	r2, [r3, #12]
 8002016:	687b      	ldr	r3, [r7, #4]
 8002018:	681b      	ldr	r3, [r3, #0]
 800201a:	430a      	orrs	r2, r1
 800201c:	609a      	str	r2, [r3, #8]
  /* Enable external trigger if trigger selection is different of software  */
  /* start.                                                                 */
  /* Note: This configuration keeps the hardware feature of parameter       */
  /*       ExternalTrigConvEdge "trigger edge none" equivalent to           */
  /*       software start.                                                  */
  if(hadc->Init.ExternalTrigConv != ADC_SOFTWARE_START)
 800201e:	687b      	ldr	r3, [r7, #4]
 8002020:	6a9b      	ldr	r3, [r3, #40]	; 0x28
 8002022:	4a58      	ldr	r2, [pc, #352]	; (8002184 <ADC_Init+0x1f4>)
 8002024:	4293      	cmp	r3, r2
 8002026:	d022      	beq.n	800206e <ADC_Init+0xde>
  {
    /* Select external trigger to start conversion */
    hadc->Instance->CR2 &= ~(ADC_CR2_EXTSEL);
 8002028:	687b      	ldr	r3, [r7, #4]
 800202a:	681b      	ldr	r3, [r3, #0]
 800202c:	689a      	ldr	r2, [r3, #8]
 800202e:	687b      	ldr	r3, [r7, #4]
 8002030:	681b      	ldr	r3, [r3, #0]
 8002032:	f022 6270 	bic.w	r2, r2, #251658240	; 0xf000000
 8002036:	609a      	str	r2, [r3, #8]
    hadc->Instance->CR2 |= hadc->Init.ExternalTrigConv;
 8002038:	687b      	ldr	r3, [r7, #4]
 800203a:	681b      	ldr	r3, [r3, #0]
 800203c:	6899      	ldr	r1, [r3, #8]
 800203e:	687b      	ldr	r3, [r7, #4]
 8002040:	6a9a      	ldr	r2, [r3, #40]	; 0x28
 8002042:	687b      	ldr	r3, [r7, #4]
 8002044:	681b      	ldr	r3, [r3, #0]
 8002046:	430a      	orrs	r2, r1
 8002048:	609a      	str	r2, [r3, #8]
    
    /* Select external trigger polarity */
    hadc->Instance->CR2 &= ~(ADC_CR2_EXTEN);
 800204a:	687b      	ldr	r3, [r7, #4]
 800204c:	681b      	ldr	r3, [r3, #0]
 800204e:	689a      	ldr	r2, [r3, #8]
 8002050:	687b      	ldr	r3, [r7, #4]
 8002052:	681b      	ldr	r3, [r3, #0]
 8002054:	f022 5240 	bic.w	r2, r2, #805306368	; 0x30000000
 8002058:	609a      	str	r2, [r3, #8]
    hadc->Instance->CR2 |= hadc->Init.ExternalTrigConvEdge;
 800205a:	687b      	ldr	r3, [r7, #4]
 800205c:	681b      	ldr	r3, [r3, #0]
 800205e:	6899      	ldr	r1, [r3, #8]
 8002060:	687b      	ldr	r3, [r7, #4]
 8002062:	6ada      	ldr	r2, [r3, #44]	; 0x2c
 8002064:	687b      	ldr	r3, [r7, #4]
 8002066:	681b      	ldr	r3, [r3, #0]
 8002068:	430a      	orrs	r2, r1
 800206a:	609a      	str	r2, [r3, #8]
 800206c:	e00f      	b.n	800208e <ADC_Init+0xfe>
  }
  else
  {
    /* Reset the external trigger */
    hadc->Instance->CR2 &= ~(ADC_CR2_EXTSEL);
 800206e:	687b      	ldr	r3, [r7, #4]
 8002070:	681b      	ldr	r3, [r3, #0]
 8002072:	689a      	ldr	r2, [r3, #8]
 8002074:	687b      	ldr	r3, [r7, #4]
 8002076:	681b      	ldr	r3, [r3, #0]
 8002078:	f022 6270 	bic.w	r2, r2, #251658240	; 0xf000000
 800207c:	609a      	str	r2, [r3, #8]
    hadc->Instance->CR2 &= ~(ADC_CR2_EXTEN);
 800207e:	687b      	ldr	r3, [r7, #4]
 8002080:	681b      	ldr	r3, [r3, #0]
 8002082:	689a      	ldr	r2, [r3, #8]
 8002084:	687b      	ldr	r3, [r7, #4]
 8002086:	681b      	ldr	r3, [r3, #0]
 8002088:	f022 5240 	bic.w	r2, r2, #805306368	; 0x30000000
 800208c:	609a      	str	r2, [r3, #8]
  }
  
  /* Enable or disable ADC continuous conversion mode */
  hadc->Instance->CR2 &= ~(ADC_CR2_CONT);
 800208e:	687b      	ldr	r3, [r7, #4]
 8002090:	681b      	ldr	r3, [r3, #0]
 8002092:	689a      	ldr	r2, [r3, #8]
 8002094:	687b      	ldr	r3, [r7, #4]
 8002096:	681b      	ldr	r3, [r3, #0]
 8002098:	f022 0202 	bic.w	r2, r2, #2
 800209c:	609a      	str	r2, [r3, #8]
  hadc->Instance->CR2 |= ADC_CR2_CONTINUOUS((uint32_t)hadc->Init.ContinuousConvMode);
 800209e:	687b      	ldr	r3, [r7, #4]
 80020a0:	681b      	ldr	r3, [r3, #0]
 80020a2:	6899      	ldr	r1, [r3, #8]
 80020a4:	687b      	ldr	r3, [r7, #4]
 80020a6:	7e1b      	ldrb	r3, [r3, #24]
 80020a8:	005a      	lsls	r2, r3, #1
 80020aa:	687b      	ldr	r3, [r7, #4]
 80020ac:	681b      	ldr	r3, [r3, #0]
 80020ae:	430a      	orrs	r2, r1
 80020b0:	609a      	str	r2, [r3, #8]
  
  if(hadc->Init.DiscontinuousConvMode != DISABLE)
 80020b2:	687b      	ldr	r3, [r7, #4]
 80020b4:	f893 3020 	ldrb.w	r3, [r3, #32]
 80020b8:	2b00      	cmp	r3, #0
 80020ba:	d01b      	beq.n	80020f4 <ADC_Init+0x164>
  {
    assert_param(IS_ADC_REGULAR_DISC_NUMBER(hadc->Init.NbrOfDiscConversion));
  
    /* Enable the selected ADC regular discontinuous mode */
    hadc->Instance->CR1 |= (uint32_t)ADC_CR1_DISCEN;
 80020bc:	687b      	ldr	r3, [r7, #4]
 80020be:	681b      	ldr	r3, [r3, #0]
 80020c0:	685a      	ldr	r2, [r3, #4]
 80020c2:	687b      	ldr	r3, [r7, #4]
 80020c4:	681b      	ldr	r3, [r3, #0]
 80020c6:	f442 6200 	orr.w	r2, r2, #2048	; 0x800
 80020ca:	605a      	str	r2, [r3, #4]
    
    /* Set the number of channels to be converted in discontinuous mode */
    hadc->Instance->CR1 &= ~(ADC_CR1_DISCNUM);
 80020cc:	687b      	ldr	r3, [r7, #4]
 80020ce:	681b      	ldr	r3, [r3, #0]
 80020d0:	685a      	ldr	r2, [r3, #4]
 80020d2:	687b      	ldr	r3, [r7, #4]
 80020d4:	681b      	ldr	r3, [r3, #0]
 80020d6:	f422 4260 	bic.w	r2, r2, #57344	; 0xe000
 80020da:	605a      	str	r2, [r3, #4]
    hadc->Instance->CR1 |=  ADC_CR1_DISCONTINUOUS(hadc->Init.NbrOfDiscConversion);
 80020dc:	687b      	ldr	r3, [r7, #4]
 80020de:	681b      	ldr	r3, [r3, #0]
 80020e0:	6859      	ldr	r1, [r3, #4]
 80020e2:	687b      	ldr	r3, [r7, #4]
 80020e4:	6a5b      	ldr	r3, [r3, #36]	; 0x24
 80020e6:	3b01      	subs	r3, #1
 80020e8:	035a      	lsls	r2, r3, #13
 80020ea:	687b      	ldr	r3, [r7, #4]
 80020ec:	681b      	ldr	r3, [r3, #0]
 80020ee:	430a      	orrs	r2, r1
 80020f0:	605a      	str	r2, [r3, #4]
 80020f2:	e007      	b.n	8002104 <ADC_Init+0x174>
  }
  else
  {
    /* Disable the selected ADC regular discontinuous mode */
    hadc->Instance->CR1 &= ~(ADC_CR1_DISCEN);
 80020f4:	687b      	ldr	r3, [r7, #4]
 80020f6:	681b      	ldr	r3, [r3, #0]
 80020f8:	685a      	ldr	r2, [r3, #4]
 80020fa:	687b      	ldr	r3, [r7, #4]
 80020fc:	681b      	ldr	r3, [r3, #0]
 80020fe:	f422 6200 	bic.w	r2, r2, #2048	; 0x800
 8002102:	605a      	str	r2, [r3, #4]
  }
  
  /* Set ADC number of conversion */
  hadc->Instance->SQR1 &= ~(ADC_SQR1_L);
 8002104:	687b      	ldr	r3, [r7, #4]
 8002106:	681b      	ldr	r3, [r3, #0]
 8002108:	6ada      	ldr	r2, [r3, #44]	; 0x2c
 800210a:	687b      	ldr	r3, [r7, #4]
 800210c:	681b      	ldr	r3, [r3, #0]
 800210e:	f422 0270 	bic.w	r2, r2, #15728640	; 0xf00000
 8002112:	62da      	str	r2, [r3, #44]	; 0x2c
  hadc->Instance->SQR1 |=  ADC_SQR1(hadc->Init.NbrOfConversion);
 8002114:	687b      	ldr	r3, [r7, #4]
 8002116:	681b      	ldr	r3, [r3, #0]
 8002118:	6ad9      	ldr	r1, [r3, #44]	; 0x2c
 800211a:	687b      	ldr	r3, [r7, #4]
 800211c:	69db      	ldr	r3, [r3, #28]
 800211e:	3b01      	subs	r3, #1
 8002120:	051a      	lsls	r2, r3, #20
 8002122:	687b      	ldr	r3, [r7, #4]
 8002124:	681b      	ldr	r3, [r3, #0]
 8002126:	430a      	orrs	r2, r1
 8002128:	62da      	str	r2, [r3, #44]	; 0x2c
  
  /* Enable or disable ADC DMA continuous request */
  hadc->Instance->CR2 &= ~(ADC_CR2_DDS);
 800212a:	687b      	ldr	r3, [r7, #4]
 800212c:	681b      	ldr	r3, [r3, #0]
 800212e:	689a      	ldr	r2, [r3, #8]
 8002130:	687b      	ldr	r3, [r7, #4]
 8002132:	681b      	ldr	r3, [r3, #0]
 8002134:	f422 7200 	bic.w	r2, r2, #512	; 0x200
 8002138:	609a      	str	r2, [r3, #8]
  hadc->Instance->CR2 |= ADC_CR2_DMAContReq((uint32_t)hadc->Init.DMAContinuousRequests);
 800213a:	687b      	ldr	r3, [r7, #4]
 800213c:	681b      	ldr	r3, [r3, #0]
 800213e:	6899      	ldr	r1, [r3, #8]
 8002140:	687b      	ldr	r3, [r7, #4]
 8002142:	f893 3030 	ldrb.w	r3, [r3, #48]	; 0x30
 8002146:	025a      	lsls	r2, r3, #9
 8002148:	687b      	ldr	r3, [r7, #4]
 800214a:	681b      	ldr	r3, [r3, #0]
 800214c:	430a      	orrs	r2, r1
 800214e:	609a      	str	r2, [r3, #8]
  
  /* Enable or disable ADC end of conversion selection */
  hadc->Instance->CR2 &= ~(ADC_CR2_EOCS);
 8002150:	687b      	ldr	r3, [r7, #4]
 8002152:	681b      	ldr	r3, [r3, #0]
 8002154:	689a      	ldr	r2, [r3, #8]
 8002156:	687b      	ldr	r3, [r7, #4]
 8002158:	681b      	ldr	r3, [r3, #0]
 800215a:	f422 6280 	bic.w	r2, r2, #1024	; 0x400
 800215e:	609a      	str	r2, [r3, #8]
  hadc->Instance->CR2 |= ADC_CR2_EOCSelection(hadc->Init.EOCSelection);
 8002160:	687b      	ldr	r3, [r7, #4]
 8002162:	681b      	ldr	r3, [r3, #0]
 8002164:	6899      	ldr	r1, [r3, #8]
 8002166:	687b      	ldr	r3, [r7, #4]
 8002168:	695b      	ldr	r3, [r3, #20]
 800216a:	029a      	lsls	r2, r3, #10
 800216c:	687b      	ldr	r3, [r7, #4]
 800216e:	681b      	ldr	r3, [r3, #0]
 8002170:	430a      	orrs	r2, r1
 8002172:	609a      	str	r2, [r3, #8]
}
 8002174:	bf00      	nop
 8002176:	3714      	adds	r7, #20
 8002178:	46bd      	mov	sp, r7
 800217a:	f85d 7b04 	ldr.w	r7, [sp], #4
 800217e:	4770      	bx	lr
 8002180:	40012300 	.word	0x40012300
 8002184:	0f000001 	.word	0x0f000001

08002188 <__NVIC_SetPriorityGrouping>:
           In case of a conflict between priority grouping and available
           priority bits (__NVIC_PRIO_BITS), the smallest possible priority group is set.
  \param [in]      PriorityGroup  Priority grouping field.
 */
__STATIC_INLINE void __NVIC_SetPriorityGrouping(uint32_t PriorityGroup)
{
 8002188:	b480      	push	{r7}
 800218a:	b085      	sub	sp, #20
 800218c:	af00      	add	r7, sp, #0
 800218e:	6078      	str	r0, [r7, #4]
  uint32_t reg_value;
  uint32_t PriorityGroupTmp = (PriorityGroup & (uint32_t)0x07UL);             /* only values 0..7 are used          */
 8002190:	687b      	ldr	r3, [r7, #4]
 8002192:	f003 0307 	and.w	r3, r3, #7
 8002196:	60fb      	str	r3, [r7, #12]

  reg_value  =  SCB->AIRCR;                                                   /* read old register configuration    */
 8002198:	4b0c      	ldr	r3, [pc, #48]	; (80021cc <__NVIC_SetPriorityGrouping+0x44>)
 800219a:	68db      	ldr	r3, [r3, #12]
 800219c:	60bb      	str	r3, [r7, #8]
  reg_value &= ~((uint32_t)(SCB_AIRCR_VECTKEY_Msk | SCB_AIRCR_PRIGROUP_Msk)); /* clear bits to change               */
 800219e:	68ba      	ldr	r2, [r7, #8]
 80021a0:	f64f 03ff 	movw	r3, #63743	; 0xf8ff
 80021a4:	4013      	ands	r3, r2
 80021a6:	60bb      	str	r3, [r7, #8]
  reg_value  =  (reg_value                                   |
                ((uint32_t)0x5FAUL << SCB_AIRCR_VECTKEY_Pos) |
                (PriorityGroupTmp << SCB_AIRCR_PRIGROUP_Pos)  );              /* Insert write key and priority group */
 80021a8:	68fb      	ldr	r3, [r7, #12]
 80021aa:	021a      	lsls	r2, r3, #8
                ((uint32_t)0x5FAUL << SCB_AIRCR_VECTKEY_Pos) |
 80021ac:	68bb      	ldr	r3, [r7, #8]
 80021ae:	4313      	orrs	r3, r2
  reg_value  =  (reg_value                                   |
 80021b0:	f043 63bf 	orr.w	r3, r3, #100139008	; 0x5f80000
 80021b4:	f443 3300 	orr.w	r3, r3, #131072	; 0x20000
 80021b8:	60bb      	str	r3, [r7, #8]
  SCB->AIRCR =  reg_value;
 80021ba:	4a04      	ldr	r2, [pc, #16]	; (80021cc <__NVIC_SetPriorityGrouping+0x44>)
 80021bc:	68bb      	ldr	r3, [r7, #8]
 80021be:	60d3      	str	r3, [r2, #12]
}
 80021c0:	bf00      	nop
 80021c2:	3714      	adds	r7, #20
 80021c4:	46bd      	mov	sp, r7
 80021c6:	f85d 7b04 	ldr.w	r7, [sp], #4
 80021ca:	4770      	bx	lr
 80021cc:	e000ed00 	.word	0xe000ed00

080021d0 <__NVIC_GetPriorityGrouping>:
  \brief   Get Priority Grouping
  \details Reads the priority grouping field from the NVIC Interrupt Controller.
  \return                Priority grouping field (SCB->AIRCR [10:8] PRIGROUP field).
 */
__STATIC_INLINE uint32_t __NVIC_GetPriorityGrouping(void)
{
 80021d0:	b480      	push	{r7}
 80021d2:	af00      	add	r7, sp, #0
  return ((uint32_t)((SCB->AIRCR & SCB_AIRCR_PRIGROUP_Msk) >> SCB_AIRCR_PRIGROUP_Pos));
 80021d4:	4b04      	ldr	r3, [pc, #16]	; (80021e8 <__NVIC_GetPriorityGrouping+0x18>)
 80021d6:	68db      	ldr	r3, [r3, #12]
 80021d8:	0a1b      	lsrs	r3, r3, #8
 80021da:	f003 0307 	and.w	r3, r3, #7
}
 80021de:	4618      	mov	r0, r3
 80021e0:	46bd      	mov	sp, r7
 80021e2:	f85d 7b04 	ldr.w	r7, [sp], #4
 80021e6:	4770      	bx	lr
 80021e8:	e000ed00 	.word	0xe000ed00

080021ec <__NVIC_SetPriority>:
  \param [in]      IRQn  Interrupt number.
  \param [in]  priority  Priority to set.
  \note    The priority cannot be set for every processor exception.
 */
__STATIC_INLINE void __NVIC_SetPriority(IRQn_Type IRQn, uint32_t priority)
{
 80021ec:	b480      	push	{r7}
 80021ee:	b083      	sub	sp, #12
 80021f0:	af00      	add	r7, sp, #0
 80021f2:	4603      	mov	r3, r0
 80021f4:	6039      	str	r1, [r7, #0]
 80021f6:	71fb      	strb	r3, [r7, #7]
  if ((int32_t)(IRQn) >= 0)
 80021f8:	f997 3007 	ldrsb.w	r3, [r7, #7]
 80021fc:	2b00      	cmp	r3, #0
 80021fe:	db0a      	blt.n	8002216 <__NVIC_SetPriority+0x2a>
  {
    NVIC->IP[((uint32_t)IRQn)]               = (uint8_t)((priority << (8U - __NVIC_PRIO_BITS)) & (uint32_t)0xFFUL);
 8002200:	683b      	ldr	r3, [r7, #0]
 8002202:	b2da      	uxtb	r2, r3
 8002204:	490c      	ldr	r1, [pc, #48]	; (8002238 <__NVIC_SetPriority+0x4c>)
 8002206:	f997 3007 	ldrsb.w	r3, [r7, #7]
 800220a:	0112      	lsls	r2, r2, #4
 800220c:	b2d2      	uxtb	r2, r2
 800220e:	440b      	add	r3, r1
 8002210:	f883 2300 	strb.w	r2, [r3, #768]	; 0x300
  }
  else
  {
    SCB->SHP[(((uint32_t)IRQn) & 0xFUL)-4UL] = (uint8_t)((priority << (8U - __NVIC_PRIO_BITS)) & (uint32_t)0xFFUL);
  }
}
 8002214:	e00a      	b.n	800222c <__NVIC_SetPriority+0x40>
    SCB->SHP[(((uint32_t)IRQn) & 0xFUL)-4UL] = (uint8_t)((priority << (8U - __NVIC_PRIO_BITS)) & (uint32_t)0xFFUL);
 8002216:	683b      	ldr	r3, [r7, #0]
 8002218:	b2da      	uxtb	r2, r3
 800221a:	4908      	ldr	r1, [pc, #32]	; (800223c <__NVIC_SetPriority+0x50>)
 800221c:	79fb      	ldrb	r3, [r7, #7]
 800221e:	f003 030f 	and.w	r3, r3, #15
 8002222:	3b04      	subs	r3, #4
 8002224:	0112      	lsls	r2, r2, #4
 8002226:	b2d2      	uxtb	r2, r2
 8002228:	440b      	add	r3, r1
 800222a:	761a      	strb	r2, [r3, #24]
}
 800222c:	bf00      	nop
 800222e:	370c      	adds	r7, #12
 8002230:	46bd      	mov	sp, r7
 8002232:	f85d 7b04 	ldr.w	r7, [sp], #4
 8002236:	4770      	bx	lr
 8002238:	e000e100 	.word	0xe000e100
 800223c:	e000ed00 	.word	0xe000ed00

08002240 <NVIC_EncodePriority>:
  \param [in]   PreemptPriority  Preemptive priority value (starting from 0).
  \param [in]       SubPriority  Subpriority value (starting from 0).
  \return                        Encoded priority. Value can be used in the function \ref NVIC_SetPriority().
 */
__STATIC_INLINE uint32_t NVIC_EncodePriority (uint32_t PriorityGroup, uint32_t PreemptPriority, uint32_t SubPriority)
{
 8002240:	b480      	push	{r7}
 8002242:	b089      	sub	sp, #36	; 0x24
 8002244:	af00      	add	r7, sp, #0
 8002246:	60f8      	str	r0, [r7, #12]
 8002248:	60b9      	str	r1, [r7, #8]
 800224a:	607a      	str	r2, [r7, #4]
  uint32_t PriorityGroupTmp = (PriorityGroup & (uint32_t)0x07UL);   /* only values 0..7 are used          */
 800224c:	68fb      	ldr	r3, [r7, #12]
 800224e:	f003 0307 	and.w	r3, r3, #7
 8002252:	61fb      	str	r3, [r7, #28]
  uint32_t PreemptPriorityBits;
  uint32_t SubPriorityBits;

  PreemptPriorityBits = ((7UL - PriorityGroupTmp) > (uint32_t)(__NVIC_PRIO_BITS)) ? (uint32_t)(__NVIC_PRIO_BITS) : (uint32_t)(7UL - PriorityGroupTmp);
 8002254:	69fb      	ldr	r3, [r7, #28]
 8002256:	f1c3 0307 	rsb	r3, r3, #7
 800225a:	2b04      	cmp	r3, #4
 800225c:	bf28      	it	cs
 800225e:	2304      	movcs	r3, #4
 8002260:	61bb      	str	r3, [r7, #24]
  SubPriorityBits     = ((PriorityGroupTmp + (uint32_t)(__NVIC_PRIO_BITS)) < (uint32_t)7UL) ? (uint32_t)0UL : (uint32_t)((PriorityGroupTmp - 7UL) + (uint32_t)(__NVIC_PRIO_BITS));
 8002262:	69fb      	ldr	r3, [r7, #28]
 8002264:	3304      	adds	r3, #4
 8002266:	2b06      	cmp	r3, #6
 8002268:	d902      	bls.n	8002270 <NVIC_EncodePriority+0x30>
 800226a:	69fb      	ldr	r3, [r7, #28]
 800226c:	3b03      	subs	r3, #3
 800226e:	e000      	b.n	8002272 <NVIC_EncodePriority+0x32>
 8002270:	2300      	movs	r3, #0
 8002272:	617b      	str	r3, [r7, #20]

  return (
           ((PreemptPriority & (uint32_t)((1UL << (PreemptPriorityBits)) - 1UL)) << SubPriorityBits) |
 8002274:	f04f 32ff 	mov.w	r2, #4294967295
 8002278:	69bb      	ldr	r3, [r7, #24]
 800227a:	fa02 f303 	lsl.w	r3, r2, r3
 800227e:	43da      	mvns	r2, r3
 8002280:	68bb      	ldr	r3, [r7, #8]
 8002282:	401a      	ands	r2, r3
 8002284:	697b      	ldr	r3, [r7, #20]
 8002286:	409a      	lsls	r2, r3
           ((SubPriority     & (uint32_t)((1UL << (SubPriorityBits    )) - 1UL)))
 8002288:	f04f 31ff 	mov.w	r1, #4294967295
 800228c:	697b      	ldr	r3, [r7, #20]
 800228e:	fa01 f303 	lsl.w	r3, r1, r3
 8002292:	43d9      	mvns	r1, r3
 8002294:	687b      	ldr	r3, [r7, #4]
 8002296:	400b      	ands	r3, r1
           ((PreemptPriority & (uint32_t)((1UL << (PreemptPriorityBits)) - 1UL)) << SubPriorityBits) |
 8002298:	4313      	orrs	r3, r2
         );
}
 800229a:	4618      	mov	r0, r3
 800229c:	3724      	adds	r7, #36	; 0x24
 800229e:	46bd      	mov	sp, r7
 80022a0:	f85d 7b04 	ldr.w	r7, [sp], #4
 80022a4:	4770      	bx	lr
	...

080022a8 <SysTick_Config>:
  \note    When the variable <b>__Vendor_SysTickConfig</b> is set to 1, then the
           function <b>SysTick_Config</b> is not included. In this case, the file <b><i>device</i>.h</b>
           must contain a vendor-specific implementation of this function.
 */
__STATIC_INLINE uint32_t SysTick_Config(uint32_t ticks)
{
 80022a8:	b580      	push	{r7, lr}
 80022aa:	b082      	sub	sp, #8
 80022ac:	af00      	add	r7, sp, #0
 80022ae:	6078      	str	r0, [r7, #4]
  if ((ticks - 1UL) > SysTick_LOAD_RELOAD_Msk)
 80022b0:	687b      	ldr	r3, [r7, #4]
 80022b2:	3b01      	subs	r3, #1
 80022b4:	f1b3 7f80 	cmp.w	r3, #16777216	; 0x1000000
 80022b8:	d301      	bcc.n	80022be <SysTick_Config+0x16>
  {
    return (1UL);                                                   /* Reload value impossible */
 80022ba:	2301      	movs	r3, #1
 80022bc:	e00f      	b.n	80022de <SysTick_Config+0x36>
  }

  SysTick->LOAD  = (uint32_t)(ticks - 1UL);                         /* set reload register */
 80022be:	4a0a      	ldr	r2, [pc, #40]	; (80022e8 <SysTick_Config+0x40>)
 80022c0:	687b      	ldr	r3, [r7, #4]
 80022c2:	3b01      	subs	r3, #1
 80022c4:	6053      	str	r3, [r2, #4]
  NVIC_SetPriority (SysTick_IRQn, (1UL << __NVIC_PRIO_BITS) - 1UL); /* set Priority for Systick Interrupt */
 80022c6:	210f      	movs	r1, #15
 80022c8:	f04f 30ff 	mov.w	r0, #4294967295
 80022cc:	f7ff ff8e 	bl	80021ec <__NVIC_SetPriority>
  SysTick->VAL   = 0UL;                                             /* Load the SysTick Counter Value */
 80022d0:	4b05      	ldr	r3, [pc, #20]	; (80022e8 <SysTick_Config+0x40>)
 80022d2:	2200      	movs	r2, #0
 80022d4:	609a      	str	r2, [r3, #8]
  SysTick->CTRL  = SysTick_CTRL_CLKSOURCE_Msk |
 80022d6:	4b04      	ldr	r3, [pc, #16]	; (80022e8 <SysTick_Config+0x40>)
 80022d8:	2207      	movs	r2, #7
 80022da:	601a      	str	r2, [r3, #0]
                   SysTick_CTRL_TICKINT_Msk   |
                   SysTick_CTRL_ENABLE_Msk;                         /* Enable SysTick IRQ and SysTick Timer */
  return (0UL);                                                     /* Function successful */
 80022dc:	2300      	movs	r3, #0
}
 80022de:	4618      	mov	r0, r3
 80022e0:	3708      	adds	r7, #8
 80022e2:	46bd      	mov	sp, r7
 80022e4:	bd80      	pop	{r7, pc}
 80022e6:	bf00      	nop
 80022e8:	e000e010 	.word	0xe000e010

080022ec <HAL_NVIC_SetPriorityGrouping>:
  * @note   When the NVIC_PriorityGroup_0 is selected, IRQ preemption is no more possible. 
  *         The pending IRQ priority will be managed only by the subpriority. 
  * @retval None
  */
void HAL_NVIC_SetPriorityGrouping(uint32_t PriorityGroup)
{
 80022ec:	b580      	push	{r7, lr}
 80022ee:	b082      	sub	sp, #8
 80022f0:	af00      	add	r7, sp, #0
 80022f2:	6078      	str	r0, [r7, #4]
  /* Check the parameters */
  assert_param(IS_NVIC_PRIORITY_GROUP(PriorityGroup));
  
  /* Set the PRIGROUP[10:8] bits according to the PriorityGroup parameter value */
  NVIC_SetPriorityGrouping(PriorityGroup);
 80022f4:	6878      	ldr	r0, [r7, #4]
 80022f6:	f7ff ff47 	bl	8002188 <__NVIC_SetPriorityGrouping>
}
 80022fa:	bf00      	nop
 80022fc:	3708      	adds	r7, #8
 80022fe:	46bd      	mov	sp, r7
 8002300:	bd80      	pop	{r7, pc}

08002302 <HAL_NVIC_SetPriority>:
  *         This parameter can be a value between 0 and 15
  *         A lower priority value indicates a higher priority.          
  * @retval None
  */
void HAL_NVIC_SetPriority(IRQn_Type IRQn, uint32_t PreemptPriority, uint32_t SubPriority)
{ 
 8002302:	b580      	push	{r7, lr}
 8002304:	b086      	sub	sp, #24
 8002306:	af00      	add	r7, sp, #0
 8002308:	4603      	mov	r3, r0
 800230a:	60b9      	str	r1, [r7, #8]
 800230c:	607a      	str	r2, [r7, #4]
 800230e:	73fb      	strb	r3, [r7, #15]
  uint32_t prioritygroup = 0x00U;
 8002310:	2300      	movs	r3, #0
 8002312:	617b      	str	r3, [r7, #20]
  
  /* Check the parameters */
  assert_param(IS_NVIC_SUB_PRIORITY(SubPriority));
  assert_param(IS_NVIC_PREEMPTION_PRIORITY(PreemptPriority));
  
  prioritygroup = NVIC_GetPriorityGrouping();
 8002314:	f7ff ff5c 	bl	80021d0 <__NVIC_GetPriorityGrouping>
 8002318:	6178      	str	r0, [r7, #20]
  
  NVIC_SetPriority(IRQn, NVIC_EncodePriority(prioritygroup, PreemptPriority, SubPriority));
 800231a:	687a      	ldr	r2, [r7, #4]
 800231c:	68b9      	ldr	r1, [r7, #8]
 800231e:	6978      	ldr	r0, [r7, #20]
 8002320:	f7ff ff8e 	bl	8002240 <NVIC_EncodePriority>
 8002324:	4602      	mov	r2, r0
 8002326:	f997 300f 	ldrsb.w	r3, [r7, #15]
 800232a:	4611      	mov	r1, r2
 800232c:	4618      	mov	r0, r3
 800232e:	f7ff ff5d 	bl	80021ec <__NVIC_SetPriority>
}
 8002332:	bf00      	nop
 8002334:	3718      	adds	r7, #24
 8002336:	46bd      	mov	sp, r7
 8002338:	bd80      	pop	{r7, pc}

0800233a <HAL_SYSTICK_Config>:
  * @param  TicksNumb Specifies the ticks Number of ticks between two interrupts.
  * @retval status:  - 0  Function succeeded.
  *                  - 1  Function failed.
  */
uint32_t HAL_SYSTICK_Config(uint32_t TicksNumb)
{
 800233a:	b580      	push	{r7, lr}
 800233c:	b082      	sub	sp, #8
 800233e:	af00      	add	r7, sp, #0
 8002340:	6078      	str	r0, [r7, #4]
   return SysTick_Config(TicksNumb);
 8002342:	6878      	ldr	r0, [r7, #4]
 8002344:	f7ff ffb0 	bl	80022a8 <SysTick_Config>
 8002348:	4603      	mov	r3, r0
}
 800234a:	4618      	mov	r0, r3
 800234c:	3708      	adds	r7, #8
 800234e:	46bd      	mov	sp, r7
 8002350:	bd80      	pop	{r7, pc}
	...

08002354 <HAL_GPIO_Init>:
  * @param  GPIO_Init pointer to a GPIO_InitTypeDef structure that contains
  *         the configuration information for the specified GPIO peripheral.
  * @retval None
  */
void HAL_GPIO_Init(GPIO_TypeDef  *GPIOx, GPIO_InitTypeDef *GPIO_Init)
{
 8002354:	b480      	push	{r7}
 8002356:	b089      	sub	sp, #36	; 0x24
 8002358:	af00      	add	r7, sp, #0
 800235a:	6078      	str	r0, [r7, #4]
 800235c:	6039      	str	r1, [r7, #0]
  uint32_t position;
  uint32_t ioposition = 0x00U;
 800235e:	2300      	movs	r3, #0
 8002360:	617b      	str	r3, [r7, #20]
  uint32_t iocurrent = 0x00U;
 8002362:	2300      	movs	r3, #0
 8002364:	613b      	str	r3, [r7, #16]
  uint32_t temp = 0x00U;
 8002366:	2300      	movs	r3, #0
 8002368:	61bb      	str	r3, [r7, #24]
  assert_param(IS_GPIO_PIN(GPIO_Init->Pin));
  assert_param(IS_GPIO_MODE(GPIO_Init->Mode));
  assert_param(IS_GPIO_PULL(GPIO_Init->Pull));

  /* Configure the port pins */
  for(position = 0U; position < GPIO_NUMBER; position++)
 800236a:	2300      	movs	r3, #0
 800236c:	61fb      	str	r3, [r7, #28]
 800236e:	e165      	b.n	800263c <HAL_GPIO_Init+0x2e8>
  {
    /* Get the IO position */
    ioposition = 0x01U << position;
 8002370:	2201      	movs	r2, #1
 8002372:	69fb      	ldr	r3, [r7, #28]
 8002374:	fa02 f303 	lsl.w	r3, r2, r3
 8002378:	617b      	str	r3, [r7, #20]
    /* Get the current IO position */
    iocurrent = (uint32_t)(GPIO_Init->Pin) & ioposition;
 800237a:	683b      	ldr	r3, [r7, #0]
 800237c:	681b      	ldr	r3, [r3, #0]
 800237e:	697a      	ldr	r2, [r7, #20]
 8002380:	4013      	ands	r3, r2
 8002382:	613b      	str	r3, [r7, #16]

    if(iocurrent == ioposition)
 8002384:	693a      	ldr	r2, [r7, #16]
 8002386:	697b      	ldr	r3, [r7, #20]
 8002388:	429a      	cmp	r2, r3
 800238a:	f040 8154 	bne.w	8002636 <HAL_GPIO_Init+0x2e2>
    {
      /*--------------------- GPIO Mode Configuration ------------------------*/
      /* In case of Output or Alternate function mode selection */
      if((GPIO_Init->Mode == GPIO_MODE_OUTPUT_PP) || (GPIO_Init->Mode == GPIO_MODE_AF_PP) ||
 800238e:	683b      	ldr	r3, [r7, #0]
 8002390:	685b      	ldr	r3, [r3, #4]
 8002392:	2b01      	cmp	r3, #1
 8002394:	d00b      	beq.n	80023ae <HAL_GPIO_Init+0x5a>
 8002396:	683b      	ldr	r3, [r7, #0]
 8002398:	685b      	ldr	r3, [r3, #4]
 800239a:	2b02      	cmp	r3, #2
 800239c:	d007      	beq.n	80023ae <HAL_GPIO_Init+0x5a>
         (GPIO_Init->Mode == GPIO_MODE_OUTPUT_OD) || (GPIO_Init->Mode == GPIO_MODE_AF_OD))
 800239e:	683b      	ldr	r3, [r7, #0]
 80023a0:	685b      	ldr	r3, [r3, #4]
      if((GPIO_Init->Mode == GPIO_MODE_OUTPUT_PP) || (GPIO_Init->Mode == GPIO_MODE_AF_PP) ||
 80023a2:	2b11      	cmp	r3, #17
 80023a4:	d003      	beq.n	80023ae <HAL_GPIO_Init+0x5a>
         (GPIO_Init->Mode == GPIO_MODE_OUTPUT_OD) || (GPIO_Init->Mode == GPIO_MODE_AF_OD))
 80023a6:	683b      	ldr	r3, [r7, #0]
 80023a8:	685b      	ldr	r3, [r3, #4]
 80023aa:	2b12      	cmp	r3, #18
 80023ac:	d130      	bne.n	8002410 <HAL_GPIO_Init+0xbc>
      {
        /* Check the Speed parameter */
        assert_param(IS_GPIO_SPEED(GPIO_Init->Speed));
        /* Configure the IO Speed */
        temp = GPIOx->OSPEEDR; 
 80023ae:	687b      	ldr	r3, [r7, #4]
 80023b0:	689b      	ldr	r3, [r3, #8]
 80023b2:	61bb      	str	r3, [r7, #24]
        temp &= ~(GPIO_OSPEEDER_OSPEEDR0 << (position * 2U));
 80023b4:	69fb      	ldr	r3, [r7, #28]
 80023b6:	005b      	lsls	r3, r3, #1
 80023b8:	2203      	movs	r2, #3
 80023ba:	fa02 f303 	lsl.w	r3, r2, r3
 80023be:	43db      	mvns	r3, r3
 80023c0:	69ba      	ldr	r2, [r7, #24]
 80023c2:	4013      	ands	r3, r2
 80023c4:	61bb      	str	r3, [r7, #24]
        temp |= (GPIO_Init->Speed << (position * 2U));
 80023c6:	683b      	ldr	r3, [r7, #0]
 80023c8:	68da      	ldr	r2, [r3, #12]
 80023ca:	69fb      	ldr	r3, [r7, #28]
 80023cc:	005b      	lsls	r3, r3, #1
 80023ce:	fa02 f303 	lsl.w	r3, r2, r3
 80023d2:	69ba      	ldr	r2, [r7, #24]
 80023d4:	4313      	orrs	r3, r2
 80023d6:	61bb      	str	r3, [r7, #24]
        GPIOx->OSPEEDR = temp;
 80023d8:	687b      	ldr	r3, [r7, #4]
 80023da:	69ba      	ldr	r2, [r7, #24]
 80023dc:	609a      	str	r2, [r3, #8]

        /* Configure the IO Output Type */
        temp = GPIOx->OTYPER;
 80023de:	687b      	ldr	r3, [r7, #4]
 80023e0:	685b      	ldr	r3, [r3, #4]
 80023e2:	61bb      	str	r3, [r7, #24]
        temp &= ~(GPIO_OTYPER_OT_0 << position) ;
 80023e4:	2201      	movs	r2, #1
 80023e6:	69fb      	ldr	r3, [r7, #28]
 80023e8:	fa02 f303 	lsl.w	r3, r2, r3
 80023ec:	43db      	mvns	r3, r3
 80023ee:	69ba      	ldr	r2, [r7, #24]
 80023f0:	4013      	ands	r3, r2
 80023f2:	61bb      	str	r3, [r7, #24]
        temp |= (((GPIO_Init->Mode & GPIO_OUTPUT_TYPE) >> 4U) << position);
 80023f4:	683b      	ldr	r3, [r7, #0]
 80023f6:	685b      	ldr	r3, [r3, #4]
 80023f8:	091b      	lsrs	r3, r3, #4
 80023fa:	f003 0201 	and.w	r2, r3, #1
 80023fe:	69fb      	ldr	r3, [r7, #28]
 8002400:	fa02 f303 	lsl.w	r3, r2, r3
 8002404:	69ba      	ldr	r2, [r7, #24]
 8002406:	4313      	orrs	r3, r2
 8002408:	61bb      	str	r3, [r7, #24]
        GPIOx->OTYPER = temp;
 800240a:	687b      	ldr	r3, [r7, #4]
 800240c:	69ba      	ldr	r2, [r7, #24]
 800240e:	605a      	str	r2, [r3, #4]
       }

      /* Activate the Pull-up or Pull down resistor for the current IO */
      temp = GPIOx->PUPDR;
 8002410:	687b      	ldr	r3, [r7, #4]
 8002412:	68db      	ldr	r3, [r3, #12]
 8002414:	61bb      	str	r3, [r7, #24]
      temp &= ~(GPIO_PUPDR_PUPDR0 << (position * 2U));
 8002416:	69fb      	ldr	r3, [r7, #28]
 8002418:	005b      	lsls	r3, r3, #1
 800241a:	2203      	movs	r2, #3
 800241c:	fa02 f303 	lsl.w	r3, r2, r3
 8002420:	43db      	mvns	r3, r3
 8002422:	69ba      	ldr	r2, [r7, #24]
 8002424:	4013      	ands	r3, r2
 8002426:	61bb      	str	r3, [r7, #24]
      temp |= ((GPIO_Init->Pull) << (position * 2U));
 8002428:	683b      	ldr	r3, [r7, #0]
 800242a:	689a      	ldr	r2, [r3, #8]
 800242c:	69fb      	ldr	r3, [r7, #28]
 800242e:	005b      	lsls	r3, r3, #1
 8002430:	fa02 f303 	lsl.w	r3, r2, r3
 8002434:	69ba      	ldr	r2, [r7, #24]
 8002436:	4313      	orrs	r3, r2
 8002438:	61bb      	str	r3, [r7, #24]
      GPIOx->PUPDR = temp;
 800243a:	687b      	ldr	r3, [r7, #4]
 800243c:	69ba      	ldr	r2, [r7, #24]
 800243e:	60da      	str	r2, [r3, #12]

      /* In case of Alternate function mode selection */
      if((GPIO_Init->Mode == GPIO_MODE_AF_PP) || (GPIO_Init->Mode == GPIO_MODE_AF_OD))
 8002440:	683b      	ldr	r3, [r7, #0]
 8002442:	685b      	ldr	r3, [r3, #4]
 8002444:	2b02      	cmp	r3, #2
 8002446:	d003      	beq.n	8002450 <HAL_GPIO_Init+0xfc>
 8002448:	683b      	ldr	r3, [r7, #0]
 800244a:	685b      	ldr	r3, [r3, #4]
 800244c:	2b12      	cmp	r3, #18
 800244e:	d123      	bne.n	8002498 <HAL_GPIO_Init+0x144>
      {
        /* Check the Alternate function parameter */
        assert_param(IS_GPIO_AF(GPIO_Init->Alternate));
        /* Configure Alternate function mapped with the current IO */
        temp = GPIOx->AFR[position >> 3U];
 8002450:	69fb      	ldr	r3, [r7, #28]
 8002452:	08da      	lsrs	r2, r3, #3
 8002454:	687b      	ldr	r3, [r7, #4]
 8002456:	3208      	adds	r2, #8
 8002458:	f853 3022 	ldr.w	r3, [r3, r2, lsl #2]
 800245c:	61bb      	str	r3, [r7, #24]
        temp &= ~(0xFU << ((uint32_t)(position & 0x07U) * 4U)) ;
 800245e:	69fb      	ldr	r3, [r7, #28]
 8002460:	f003 0307 	and.w	r3, r3, #7
 8002464:	009b      	lsls	r3, r3, #2
 8002466:	220f      	movs	r2, #15
 8002468:	fa02 f303 	lsl.w	r3, r2, r3
 800246c:	43db      	mvns	r3, r3
 800246e:	69ba      	ldr	r2, [r7, #24]
 8002470:	4013      	ands	r3, r2
 8002472:	61bb      	str	r3, [r7, #24]
        temp |= ((uint32_t)(GPIO_Init->Alternate) << (((uint32_t)position & 0x07U) * 4U));
 8002474:	683b      	ldr	r3, [r7, #0]
 8002476:	691a      	ldr	r2, [r3, #16]
 8002478:	69fb      	ldr	r3, [r7, #28]
 800247a:	f003 0307 	and.w	r3, r3, #7
 800247e:	009b      	lsls	r3, r3, #2
 8002480:	fa02 f303 	lsl.w	r3, r2, r3
 8002484:	69ba      	ldr	r2, [r7, #24]
 8002486:	4313      	orrs	r3, r2
 8002488:	61bb      	str	r3, [r7, #24]
        GPIOx->AFR[position >> 3U] = temp;
 800248a:	69fb      	ldr	r3, [r7, #28]
 800248c:	08da      	lsrs	r2, r3, #3
 800248e:	687b      	ldr	r3, [r7, #4]
 8002490:	3208      	adds	r2, #8
 8002492:	69b9      	ldr	r1, [r7, #24]
 8002494:	f843 1022 	str.w	r1, [r3, r2, lsl #2]
      }

      /* Configure IO Direction mode (Input, Output, Alternate or Analog) */
      temp = GPIOx->MODER;
 8002498:	687b      	ldr	r3, [r7, #4]
 800249a:	681b      	ldr	r3, [r3, #0]
 800249c:	61bb      	str	r3, [r7, #24]
      temp &= ~(GPIO_MODER_MODER0 << (position * 2U));
 800249e:	69fb      	ldr	r3, [r7, #28]
 80024a0:	005b      	lsls	r3, r3, #1
 80024a2:	2203      	movs	r2, #3
 80024a4:	fa02 f303 	lsl.w	r3, r2, r3
 80024a8:	43db      	mvns	r3, r3
 80024aa:	69ba      	ldr	r2, [r7, #24]
 80024ac:	4013      	ands	r3, r2
 80024ae:	61bb      	str	r3, [r7, #24]
      temp |= ((GPIO_Init->Mode & GPIO_MODE) << (position * 2U));
 80024b0:	683b      	ldr	r3, [r7, #0]
 80024b2:	685b      	ldr	r3, [r3, #4]
 80024b4:	f003 0203 	and.w	r2, r3, #3
 80024b8:	69fb      	ldr	r3, [r7, #28]
 80024ba:	005b      	lsls	r3, r3, #1
 80024bc:	fa02 f303 	lsl.w	r3, r2, r3
 80024c0:	69ba      	ldr	r2, [r7, #24]
 80024c2:	4313      	orrs	r3, r2
 80024c4:	61bb      	str	r3, [r7, #24]
      GPIOx->MODER = temp;
 80024c6:	687b      	ldr	r3, [r7, #4]
 80024c8:	69ba      	ldr	r2, [r7, #24]
 80024ca:	601a      	str	r2, [r3, #0]

      /*--------------------- EXTI Mode Configuration ------------------------*/
      /* Configure the External Interrupt or event for the current IO */
      if((GPIO_Init->Mode & EXTI_MODE) == EXTI_MODE)
 80024cc:	683b      	ldr	r3, [r7, #0]
 80024ce:	685b      	ldr	r3, [r3, #4]
 80024d0:	f003 5380 	and.w	r3, r3, #268435456	; 0x10000000
 80024d4:	2b00      	cmp	r3, #0
 80024d6:	f000 80ae 	beq.w	8002636 <HAL_GPIO_Init+0x2e2>
      {
        /* Enable SYSCFG Clock */
        __HAL_RCC_SYSCFG_CLK_ENABLE();
 80024da:	2300      	movs	r3, #0
 80024dc:	60fb      	str	r3, [r7, #12]
 80024de:	4b5c      	ldr	r3, [pc, #368]	; (8002650 <HAL_GPIO_Init+0x2fc>)
 80024e0:	6c5b      	ldr	r3, [r3, #68]	; 0x44
 80024e2:	4a5b      	ldr	r2, [pc, #364]	; (8002650 <HAL_GPIO_Init+0x2fc>)
 80024e4:	f443 4380 	orr.w	r3, r3, #16384	; 0x4000
 80024e8:	6453      	str	r3, [r2, #68]	; 0x44
 80024ea:	4b59      	ldr	r3, [pc, #356]	; (8002650 <HAL_GPIO_Init+0x2fc>)
 80024ec:	6c5b      	ldr	r3, [r3, #68]	; 0x44
 80024ee:	f403 4380 	and.w	r3, r3, #16384	; 0x4000
 80024f2:	60fb      	str	r3, [r7, #12]
 80024f4:	68fb      	ldr	r3, [r7, #12]

        temp = SYSCFG->EXTICR[position >> 2U];
 80024f6:	4a57      	ldr	r2, [pc, #348]	; (8002654 <HAL_GPIO_Init+0x300>)
 80024f8:	69fb      	ldr	r3, [r7, #28]
 80024fa:	089b      	lsrs	r3, r3, #2
 80024fc:	3302      	adds	r3, #2
 80024fe:	f852 3023 	ldr.w	r3, [r2, r3, lsl #2]
 8002502:	61bb      	str	r3, [r7, #24]
        temp &= ~(0x0FU << (4U * (position & 0x03U)));
 8002504:	69fb      	ldr	r3, [r7, #28]
 8002506:	f003 0303 	and.w	r3, r3, #3
 800250a:	009b      	lsls	r3, r3, #2
 800250c:	220f      	movs	r2, #15
 800250e:	fa02 f303 	lsl.w	r3, r2, r3
 8002512:	43db      	mvns	r3, r3
 8002514:	69ba      	ldr	r2, [r7, #24]
 8002516:	4013      	ands	r3, r2
 8002518:	61bb      	str	r3, [r7, #24]
        temp |= ((uint32_t)(GPIO_GET_INDEX(GPIOx)) << (4U * (position & 0x03U)));
 800251a:	687b      	ldr	r3, [r7, #4]
 800251c:	4a4e      	ldr	r2, [pc, #312]	; (8002658 <HAL_GPIO_Init+0x304>)
 800251e:	4293      	cmp	r3, r2
 8002520:	d025      	beq.n	800256e <HAL_GPIO_Init+0x21a>
 8002522:	687b      	ldr	r3, [r7, #4]
 8002524:	4a4d      	ldr	r2, [pc, #308]	; (800265c <HAL_GPIO_Init+0x308>)
 8002526:	4293      	cmp	r3, r2
 8002528:	d01f      	beq.n	800256a <HAL_GPIO_Init+0x216>
 800252a:	687b      	ldr	r3, [r7, #4]
 800252c:	4a4c      	ldr	r2, [pc, #304]	; (8002660 <HAL_GPIO_Init+0x30c>)
 800252e:	4293      	cmp	r3, r2
 8002530:	d019      	beq.n	8002566 <HAL_GPIO_Init+0x212>
 8002532:	687b      	ldr	r3, [r7, #4]
 8002534:	4a4b      	ldr	r2, [pc, #300]	; (8002664 <HAL_GPIO_Init+0x310>)
 8002536:	4293      	cmp	r3, r2
 8002538:	d013      	beq.n	8002562 <HAL_GPIO_Init+0x20e>
 800253a:	687b      	ldr	r3, [r7, #4]
 800253c:	4a4a      	ldr	r2, [pc, #296]	; (8002668 <HAL_GPIO_Init+0x314>)
 800253e:	4293      	cmp	r3, r2
 8002540:	d00d      	beq.n	800255e <HAL_GPIO_Init+0x20a>
 8002542:	687b      	ldr	r3, [r7, #4]
 8002544:	4a49      	ldr	r2, [pc, #292]	; (800266c <HAL_GPIO_Init+0x318>)
 8002546:	4293      	cmp	r3, r2
 8002548:	d007      	beq.n	800255a <HAL_GPIO_Init+0x206>
 800254a:	687b      	ldr	r3, [r7, #4]
 800254c:	4a48      	ldr	r2, [pc, #288]	; (8002670 <HAL_GPIO_Init+0x31c>)
 800254e:	4293      	cmp	r3, r2
 8002550:	d101      	bne.n	8002556 <HAL_GPIO_Init+0x202>
 8002552:	2306      	movs	r3, #6
 8002554:	e00c      	b.n	8002570 <HAL_GPIO_Init+0x21c>
 8002556:	2307      	movs	r3, #7
 8002558:	e00a      	b.n	8002570 <HAL_GPIO_Init+0x21c>
 800255a:	2305      	movs	r3, #5
 800255c:	e008      	b.n	8002570 <HAL_GPIO_Init+0x21c>
 800255e:	2304      	movs	r3, #4
 8002560:	e006      	b.n	8002570 <HAL_GPIO_Init+0x21c>
 8002562:	2303      	movs	r3, #3
 8002564:	e004      	b.n	8002570 <HAL_GPIO_Init+0x21c>
 8002566:	2302      	movs	r3, #2
 8002568:	e002      	b.n	8002570 <HAL_GPIO_Init+0x21c>
 800256a:	2301      	movs	r3, #1
 800256c:	e000      	b.n	8002570 <HAL_GPIO_Init+0x21c>
 800256e:	2300      	movs	r3, #0
 8002570:	69fa      	ldr	r2, [r7, #28]
 8002572:	f002 0203 	and.w	r2, r2, #3
 8002576:	0092      	lsls	r2, r2, #2
 8002578:	4093      	lsls	r3, r2
 800257a:	69ba      	ldr	r2, [r7, #24]
 800257c:	4313      	orrs	r3, r2
 800257e:	61bb      	str	r3, [r7, #24]
        SYSCFG->EXTICR[position >> 2U] = temp;
 8002580:	4934      	ldr	r1, [pc, #208]	; (8002654 <HAL_GPIO_Init+0x300>)
 8002582:	69fb      	ldr	r3, [r7, #28]
 8002584:	089b      	lsrs	r3, r3, #2
 8002586:	3302      	adds	r3, #2
 8002588:	69ba      	ldr	r2, [r7, #24]
 800258a:	f841 2023 	str.w	r2, [r1, r3, lsl #2]

        /* Clear EXTI line configuration */
        temp = EXTI->IMR;
 800258e:	4b39      	ldr	r3, [pc, #228]	; (8002674 <HAL_GPIO_Init+0x320>)
 8002590:	681b      	ldr	r3, [r3, #0]
 8002592:	61bb      	str	r3, [r7, #24]
        temp &= ~((uint32_t)iocurrent);
 8002594:	693b      	ldr	r3, [r7, #16]
 8002596:	43db      	mvns	r3, r3
 8002598:	69ba      	ldr	r2, [r7, #24]
 800259a:	4013      	ands	r3, r2
 800259c:	61bb      	str	r3, [r7, #24]
        if((GPIO_Init->Mode & GPIO_MODE_IT) == GPIO_MODE_IT)
 800259e:	683b      	ldr	r3, [r7, #0]
 80025a0:	685b      	ldr	r3, [r3, #4]
 80025a2:	f403 3380 	and.w	r3, r3, #65536	; 0x10000
 80025a6:	2b00      	cmp	r3, #0
 80025a8:	d003      	beq.n	80025b2 <HAL_GPIO_Init+0x25e>
        {
          temp |= iocurrent;
 80025aa:	69ba      	ldr	r2, [r7, #24]
 80025ac:	693b      	ldr	r3, [r7, #16]
 80025ae:	4313      	orrs	r3, r2
 80025b0:	61bb      	str	r3, [r7, #24]
        }
        EXTI->IMR = temp;
 80025b2:	4a30      	ldr	r2, [pc, #192]	; (8002674 <HAL_GPIO_Init+0x320>)
 80025b4:	69bb      	ldr	r3, [r7, #24]
 80025b6:	6013      	str	r3, [r2, #0]

        temp = EXTI->EMR;
 80025b8:	4b2e      	ldr	r3, [pc, #184]	; (8002674 <HAL_GPIO_Init+0x320>)
 80025ba:	685b      	ldr	r3, [r3, #4]
 80025bc:	61bb      	str	r3, [r7, #24]
        temp &= ~((uint32_t)iocurrent);
 80025be:	693b      	ldr	r3, [r7, #16]
 80025c0:	43db      	mvns	r3, r3
 80025c2:	69ba      	ldr	r2, [r7, #24]
 80025c4:	4013      	ands	r3, r2
 80025c6:	61bb      	str	r3, [r7, #24]
        if((GPIO_Init->Mode & GPIO_MODE_EVT) == GPIO_MODE_EVT)
 80025c8:	683b      	ldr	r3, [r7, #0]
 80025ca:	685b      	ldr	r3, [r3, #4]
 80025cc:	f403 3300 	and.w	r3, r3, #131072	; 0x20000
 80025d0:	2b00      	cmp	r3, #0
 80025d2:	d003      	beq.n	80025dc <HAL_GPIO_Init+0x288>
        {
          temp |= iocurrent;
 80025d4:	69ba      	ldr	r2, [r7, #24]
 80025d6:	693b      	ldr	r3, [r7, #16]
 80025d8:	4313      	orrs	r3, r2
 80025da:	61bb      	str	r3, [r7, #24]
        }
        EXTI->EMR = temp;
 80025dc:	4a25      	ldr	r2, [pc, #148]	; (8002674 <HAL_GPIO_Init+0x320>)
 80025de:	69bb      	ldr	r3, [r7, #24]
 80025e0:	6053      	str	r3, [r2, #4]

        /* Clear Rising Falling edge configuration */
        temp = EXTI->RTSR;
 80025e2:	4b24      	ldr	r3, [pc, #144]	; (8002674 <HAL_GPIO_Init+0x320>)
 80025e4:	689b      	ldr	r3, [r3, #8]
 80025e6:	61bb      	str	r3, [r7, #24]
        temp &= ~((uint32_t)iocurrent);
 80025e8:	693b      	ldr	r3, [r7, #16]
 80025ea:	43db      	mvns	r3, r3
 80025ec:	69ba      	ldr	r2, [r7, #24]
 80025ee:	4013      	ands	r3, r2
 80025f0:	61bb      	str	r3, [r7, #24]
        if((GPIO_Init->Mode & RISING_EDGE) == RISING_EDGE)
 80025f2:	683b      	ldr	r3, [r7, #0]
 80025f4:	685b      	ldr	r3, [r3, #4]
 80025f6:	f403 1380 	and.w	r3, r3, #1048576	; 0x100000
 80025fa:	2b00      	cmp	r3, #0
 80025fc:	d003      	beq.n	8002606 <HAL_GPIO_Init+0x2b2>
        {
          temp |= iocurrent;
 80025fe:	69ba      	ldr	r2, [r7, #24]
 8002600:	693b      	ldr	r3, [r7, #16]
 8002602:	4313      	orrs	r3, r2
 8002604:	61bb      	str	r3, [r7, #24]
        }
        EXTI->RTSR = temp;
 8002606:	4a1b      	ldr	r2, [pc, #108]	; (8002674 <HAL_GPIO_Init+0x320>)
 8002608:	69bb      	ldr	r3, [r7, #24]
 800260a:	6093      	str	r3, [r2, #8]

        temp = EXTI->FTSR;
 800260c:	4b19      	ldr	r3, [pc, #100]	; (8002674 <HAL_GPIO_Init+0x320>)
 800260e:	68db      	ldr	r3, [r3, #12]
 8002610:	61bb      	str	r3, [r7, #24]
        temp &= ~((uint32_t)iocurrent);
 8002612:	693b      	ldr	r3, [r7, #16]
 8002614:	43db      	mvns	r3, r3
 8002616:	69ba      	ldr	r2, [r7, #24]
 8002618:	4013      	ands	r3, r2
 800261a:	61bb      	str	r3, [r7, #24]
        if((GPIO_Init->Mode & FALLING_EDGE) == FALLING_EDGE)
 800261c:	683b      	ldr	r3, [r7, #0]
 800261e:	685b      	ldr	r3, [r3, #4]
 8002620:	f403 1300 	and.w	r3, r3, #2097152	; 0x200000
 8002624:	2b00      	cmp	r3, #0
 8002626:	d003      	beq.n	8002630 <HAL_GPIO_Init+0x2dc>
        {
          temp |= iocurrent;
 8002628:	69ba      	ldr	r2, [r7, #24]
 800262a:	693b      	ldr	r3, [r7, #16]
 800262c:	4313      	orrs	r3, r2
 800262e:	61bb      	str	r3, [r7, #24]
        }
        EXTI->FTSR = temp;
 8002630:	4a10      	ldr	r2, [pc, #64]	; (8002674 <HAL_GPIO_Init+0x320>)
 8002632:	69bb      	ldr	r3, [r7, #24]
 8002634:	60d3      	str	r3, [r2, #12]
  for(position = 0U; position < GPIO_NUMBER; position++)
 8002636:	69fb      	ldr	r3, [r7, #28]
 8002638:	3301      	adds	r3, #1
 800263a:	61fb      	str	r3, [r7, #28]
 800263c:	69fb      	ldr	r3, [r7, #28]
 800263e:	2b0f      	cmp	r3, #15
 8002640:	f67f ae96 	bls.w	8002370 <HAL_GPIO_Init+0x1c>
      }
    }
  }
}
 8002644:	bf00      	nop
 8002646:	3724      	adds	r7, #36	; 0x24
 8002648:	46bd      	mov	sp, r7
 800264a:	f85d 7b04 	ldr.w	r7, [sp], #4
 800264e:	4770      	bx	lr
 8002650:	40023800 	.word	0x40023800
 8002654:	40013800 	.word	0x40013800
 8002658:	40020000 	.word	0x40020000
 800265c:	40020400 	.word	0x40020400
 8002660:	40020800 	.word	0x40020800
 8002664:	40020c00 	.word	0x40020c00
 8002668:	40021000 	.word	0x40021000
 800266c:	40021400 	.word	0x40021400
 8002670:	40021800 	.word	0x40021800
 8002674:	40013c00 	.word	0x40013c00

08002678 <HAL_GPIO_WritePin>:
  *            @arg GPIO_PIN_RESET: to clear the port pin
  *            @arg GPIO_PIN_SET: to set the port pin
  * @retval None
  */
void HAL_GPIO_WritePin(GPIO_TypeDef* GPIOx, uint16_t GPIO_Pin, GPIO_PinState PinState)
{
 8002678:	b480      	push	{r7}
 800267a:	b083      	sub	sp, #12
 800267c:	af00      	add	r7, sp, #0
 800267e:	6078      	str	r0, [r7, #4]
 8002680:	460b      	mov	r3, r1
 8002682:	807b      	strh	r3, [r7, #2]
 8002684:	4613      	mov	r3, r2
 8002686:	707b      	strb	r3, [r7, #1]
  /* Check the parameters */
  assert_param(IS_GPIO_PIN(GPIO_Pin));
  assert_param(IS_GPIO_PIN_ACTION(PinState));

  if(PinState != GPIO_PIN_RESET)
 8002688:	787b      	ldrb	r3, [r7, #1]
 800268a:	2b00      	cmp	r3, #0
 800268c:	d003      	beq.n	8002696 <HAL_GPIO_WritePin+0x1e>
  {
    GPIOx->BSRR = GPIO_Pin;
 800268e:	887a      	ldrh	r2, [r7, #2]
 8002690:	687b      	ldr	r3, [r7, #4]
 8002692:	619a      	str	r2, [r3, #24]
  }
  else
  {
    GPIOx->BSRR = (uint32_t)GPIO_Pin << 16U;
  }
}
 8002694:	e003      	b.n	800269e <HAL_GPIO_WritePin+0x26>
    GPIOx->BSRR = (uint32_t)GPIO_Pin << 16U;
 8002696:	887b      	ldrh	r3, [r7, #2]
 8002698:	041a      	lsls	r2, r3, #16
 800269a:	687b      	ldr	r3, [r7, #4]
 800269c:	619a      	str	r2, [r3, #24]
}
 800269e:	bf00      	nop
 80026a0:	370c      	adds	r7, #12
 80026a2:	46bd      	mov	sp, r7
 80026a4:	f85d 7b04 	ldr.w	r7, [sp], #4
 80026a8:	4770      	bx	lr
	...

080026ac <HAL_RCC_ClockConfig>:
  *         HPRE[3:0] bits to ensure that HCLK not exceed the maximum allowed frequency
  *         (for more details refer to section above "Initialization/de-initialization functions")
  * @retval None
  */
HAL_StatusTypeDef HAL_RCC_ClockConfig(RCC_ClkInitTypeDef  *RCC_ClkInitStruct, uint32_t FLatency)
{
 80026ac:	b580      	push	{r7, lr}
 80026ae:	b084      	sub	sp, #16
 80026b0:	af00      	add	r7, sp, #0
 80026b2:	6078      	str	r0, [r7, #4]
 80026b4:	6039      	str	r1, [r7, #0]
  uint32_t tickstart;

  /* Check Null pointer */
  if(RCC_ClkInitStruct == NULL)
 80026b6:	687b      	ldr	r3, [r7, #4]
 80026b8:	2b00      	cmp	r3, #0
 80026ba:	d101      	bne.n	80026c0 <HAL_RCC_ClockConfig+0x14>
  {
    return HAL_ERROR;
 80026bc:	2301      	movs	r3, #1
 80026be:	e0cc      	b.n	800285a <HAL_RCC_ClockConfig+0x1ae>
  /* To correctly read data from FLASH memory, the number of wait states (LATENCY)
    must be correctly programmed according to the frequency of the CPU clock
    (HCLK) and the supply voltage of the device. */

  /* Increasing the number of wait states because of higher CPU frequency */
  if(FLatency > __HAL_FLASH_GET_LATENCY())
 80026c0:	4b68      	ldr	r3, [pc, #416]	; (8002864 <HAL_RCC_ClockConfig+0x1b8>)
 80026c2:	681b      	ldr	r3, [r3, #0]
 80026c4:	f003 030f 	and.w	r3, r3, #15
 80026c8:	683a      	ldr	r2, [r7, #0]
 80026ca:	429a      	cmp	r2, r3
 80026cc:	d90c      	bls.n	80026e8 <HAL_RCC_ClockConfig+0x3c>
  {
    /* Program the new number of wait states to the LATENCY bits in the FLASH_ACR register */
    __HAL_FLASH_SET_LATENCY(FLatency);
 80026ce:	4b65      	ldr	r3, [pc, #404]	; (8002864 <HAL_RCC_ClockConfig+0x1b8>)
 80026d0:	683a      	ldr	r2, [r7, #0]
 80026d2:	b2d2      	uxtb	r2, r2
 80026d4:	701a      	strb	r2, [r3, #0]

    /* Check that the new number of wait states is taken into account to access the Flash
    memory by reading the FLASH_ACR register */
    if(__HAL_FLASH_GET_LATENCY() != FLatency)
 80026d6:	4b63      	ldr	r3, [pc, #396]	; (8002864 <HAL_RCC_ClockConfig+0x1b8>)
 80026d8:	681b      	ldr	r3, [r3, #0]
 80026da:	f003 030f 	and.w	r3, r3, #15
 80026de:	683a      	ldr	r2, [r7, #0]
 80026e0:	429a      	cmp	r2, r3
 80026e2:	d001      	beq.n	80026e8 <HAL_RCC_ClockConfig+0x3c>
    {
      return HAL_ERROR;
 80026e4:	2301      	movs	r3, #1
 80026e6:	e0b8      	b.n	800285a <HAL_RCC_ClockConfig+0x1ae>
    }
  }

  /*-------------------------- HCLK Configuration --------------------------*/
  if(((RCC_ClkInitStruct->ClockType) & RCC_CLOCKTYPE_HCLK) == RCC_CLOCKTYPE_HCLK)
 80026e8:	687b      	ldr	r3, [r7, #4]
 80026ea:	681b      	ldr	r3, [r3, #0]
 80026ec:	f003 0302 	and.w	r3, r3, #2
 80026f0:	2b00      	cmp	r3, #0
 80026f2:	d020      	beq.n	8002736 <HAL_RCC_ClockConfig+0x8a>
  {
    /* Set the highest APBx dividers in order to ensure that we do not go through
       a non-spec phase whatever we decrease or increase HCLK. */
    if(((RCC_ClkInitStruct->ClockType) & RCC_CLOCKTYPE_PCLK1) == RCC_CLOCKTYPE_PCLK1)
 80026f4:	687b      	ldr	r3, [r7, #4]
 80026f6:	681b      	ldr	r3, [r3, #0]
 80026f8:	f003 0304 	and.w	r3, r3, #4
 80026fc:	2b00      	cmp	r3, #0
 80026fe:	d005      	beq.n	800270c <HAL_RCC_ClockConfig+0x60>
    {
      MODIFY_REG(RCC->CFGR, RCC_CFGR_PPRE1, RCC_HCLK_DIV16);
 8002700:	4b59      	ldr	r3, [pc, #356]	; (8002868 <HAL_RCC_ClockConfig+0x1bc>)
 8002702:	689b      	ldr	r3, [r3, #8]
 8002704:	4a58      	ldr	r2, [pc, #352]	; (8002868 <HAL_RCC_ClockConfig+0x1bc>)
 8002706:	f443 53e0 	orr.w	r3, r3, #7168	; 0x1c00
 800270a:	6093      	str	r3, [r2, #8]
    }

    if(((RCC_ClkInitStruct->ClockType) & RCC_CLOCKTYPE_PCLK2) == RCC_CLOCKTYPE_PCLK2)
 800270c:	687b      	ldr	r3, [r7, #4]
 800270e:	681b      	ldr	r3, [r3, #0]
 8002710:	f003 0308 	and.w	r3, r3, #8
 8002714:	2b00      	cmp	r3, #0
 8002716:	d005      	beq.n	8002724 <HAL_RCC_ClockConfig+0x78>
    {
      MODIFY_REG(RCC->CFGR, RCC_CFGR_PPRE2, (RCC_HCLK_DIV16 << 3));
 8002718:	4b53      	ldr	r3, [pc, #332]	; (8002868 <HAL_RCC_ClockConfig+0x1bc>)
 800271a:	689b      	ldr	r3, [r3, #8]
 800271c:	4a52      	ldr	r2, [pc, #328]	; (8002868 <HAL_RCC_ClockConfig+0x1bc>)
 800271e:	f443 4360 	orr.w	r3, r3, #57344	; 0xe000
 8002722:	6093      	str	r3, [r2, #8]
    }

    assert_param(IS_RCC_HCLK(RCC_ClkInitStruct->AHBCLKDivider));
    MODIFY_REG(RCC->CFGR, RCC_CFGR_HPRE, RCC_ClkInitStruct->AHBCLKDivider);
 8002724:	4b50      	ldr	r3, [pc, #320]	; (8002868 <HAL_RCC_ClockConfig+0x1bc>)
 8002726:	689b      	ldr	r3, [r3, #8]
 8002728:	f023 02f0 	bic.w	r2, r3, #240	; 0xf0
 800272c:	687b      	ldr	r3, [r7, #4]
 800272e:	689b      	ldr	r3, [r3, #8]
 8002730:	494d      	ldr	r1, [pc, #308]	; (8002868 <HAL_RCC_ClockConfig+0x1bc>)
 8002732:	4313      	orrs	r3, r2
 8002734:	608b      	str	r3, [r1, #8]
  }

  /*------------------------- SYSCLK Configuration ---------------------------*/
  if(((RCC_ClkInitStruct->ClockType) & RCC_CLOCKTYPE_SYSCLK) == RCC_CLOCKTYPE_SYSCLK)
 8002736:	687b      	ldr	r3, [r7, #4]
 8002738:	681b      	ldr	r3, [r3, #0]
 800273a:	f003 0301 	and.w	r3, r3, #1
 800273e:	2b00      	cmp	r3, #0
 8002740:	d044      	beq.n	80027cc <HAL_RCC_ClockConfig+0x120>
  {
    assert_param(IS_RCC_SYSCLKSOURCE(RCC_ClkInitStruct->SYSCLKSource));

    /* HSE is selected as System Clock Source */
    if(RCC_ClkInitStruct->SYSCLKSource == RCC_SYSCLKSOURCE_HSE)
 8002742:	687b      	ldr	r3, [r7, #4]
 8002744:	685b      	ldr	r3, [r3, #4]
 8002746:	2b01      	cmp	r3, #1
 8002748:	d107      	bne.n	800275a <HAL_RCC_ClockConfig+0xae>
    {
      /* Check the HSE ready flag */
      if(__HAL_RCC_GET_FLAG(RCC_FLAG_HSERDY) == RESET)
 800274a:	4b47      	ldr	r3, [pc, #284]	; (8002868 <HAL_RCC_ClockConfig+0x1bc>)
 800274c:	681b      	ldr	r3, [r3, #0]
 800274e:	f403 3300 	and.w	r3, r3, #131072	; 0x20000
 8002752:	2b00      	cmp	r3, #0
 8002754:	d119      	bne.n	800278a <HAL_RCC_ClockConfig+0xde>
      {
        return HAL_ERROR;
 8002756:	2301      	movs	r3, #1
 8002758:	e07f      	b.n	800285a <HAL_RCC_ClockConfig+0x1ae>
      }
    }
    /* PLL is selected as System Clock Source */
    else if((RCC_ClkInitStruct->SYSCLKSource == RCC_SYSCLKSOURCE_PLLCLK)   ||
 800275a:	687b      	ldr	r3, [r7, #4]
 800275c:	685b      	ldr	r3, [r3, #4]
 800275e:	2b02      	cmp	r3, #2
 8002760:	d003      	beq.n	800276a <HAL_RCC_ClockConfig+0xbe>
            (RCC_ClkInitStruct->SYSCLKSource == RCC_SYSCLKSOURCE_PLLRCLK))
 8002762:	687b      	ldr	r3, [r7, #4]
 8002764:	685b      	ldr	r3, [r3, #4]
    else if((RCC_ClkInitStruct->SYSCLKSource == RCC_SYSCLKSOURCE_PLLCLK)   ||
 8002766:	2b03      	cmp	r3, #3
 8002768:	d107      	bne.n	800277a <HAL_RCC_ClockConfig+0xce>
    {
      /* Check the PLL ready flag */
      if(__HAL_RCC_GET_FLAG(RCC_FLAG_PLLRDY) == RESET)
 800276a:	4b3f      	ldr	r3, [pc, #252]	; (8002868 <HAL_RCC_ClockConfig+0x1bc>)
 800276c:	681b      	ldr	r3, [r3, #0]
 800276e:	f003 7300 	and.w	r3, r3, #33554432	; 0x2000000
 8002772:	2b00      	cmp	r3, #0
 8002774:	d109      	bne.n	800278a <HAL_RCC_ClockConfig+0xde>
      {
        return HAL_ERROR;
 8002776:	2301      	movs	r3, #1
 8002778:	e06f      	b.n	800285a <HAL_RCC_ClockConfig+0x1ae>
    }
    /* HSI is selected as System Clock Source */
    else
    {
      /* Check the HSI ready flag */
      if(__HAL_RCC_GET_FLAG(RCC_FLAG_HSIRDY) == RESET)
 800277a:	4b3b      	ldr	r3, [pc, #236]	; (8002868 <HAL_RCC_ClockConfig+0x1bc>)
 800277c:	681b      	ldr	r3, [r3, #0]
 800277e:	f003 0302 	and.w	r3, r3, #2
 8002782:	2b00      	cmp	r3, #0
 8002784:	d101      	bne.n	800278a <HAL_RCC_ClockConfig+0xde>
      {
        return HAL_ERROR;
 8002786:	2301      	movs	r3, #1
 8002788:	e067      	b.n	800285a <HAL_RCC_ClockConfig+0x1ae>
      }
    }

    __HAL_RCC_SYSCLK_CONFIG(RCC_ClkInitStruct->SYSCLKSource);
 800278a:	4b37      	ldr	r3, [pc, #220]	; (8002868 <HAL_RCC_ClockConfig+0x1bc>)
 800278c:	689b      	ldr	r3, [r3, #8]
 800278e:	f023 0203 	bic.w	r2, r3, #3
 8002792:	687b      	ldr	r3, [r7, #4]
 8002794:	685b      	ldr	r3, [r3, #4]
 8002796:	4934      	ldr	r1, [pc, #208]	; (8002868 <HAL_RCC_ClockConfig+0x1bc>)
 8002798:	4313      	orrs	r3, r2
 800279a:	608b      	str	r3, [r1, #8]

    /* Get Start Tick */
    tickstart = HAL_GetTick();
 800279c:	f7ff f8fc 	bl	8001998 <HAL_GetTick>
 80027a0:	60f8      	str	r0, [r7, #12]

    while (__HAL_RCC_GET_SYSCLK_SOURCE() != (RCC_ClkInitStruct->SYSCLKSource << RCC_CFGR_SWS_Pos))
 80027a2:	e00a      	b.n	80027ba <HAL_RCC_ClockConfig+0x10e>
    {
      if ((HAL_GetTick() - tickstart) > CLOCKSWITCH_TIMEOUT_VALUE)
 80027a4:	f7ff f8f8 	bl	8001998 <HAL_GetTick>
 80027a8:	4602      	mov	r2, r0
 80027aa:	68fb      	ldr	r3, [r7, #12]
 80027ac:	1ad3      	subs	r3, r2, r3
 80027ae:	f241 3288 	movw	r2, #5000	; 0x1388
 80027b2:	4293      	cmp	r3, r2
 80027b4:	d901      	bls.n	80027ba <HAL_RCC_ClockConfig+0x10e>
      {
        return HAL_TIMEOUT;
 80027b6:	2303      	movs	r3, #3
 80027b8:	e04f      	b.n	800285a <HAL_RCC_ClockConfig+0x1ae>
    while (__HAL_RCC_GET_SYSCLK_SOURCE() != (RCC_ClkInitStruct->SYSCLKSource << RCC_CFGR_SWS_Pos))
 80027ba:	4b2b      	ldr	r3, [pc, #172]	; (8002868 <HAL_RCC_ClockConfig+0x1bc>)
 80027bc:	689b      	ldr	r3, [r3, #8]
 80027be:	f003 020c 	and.w	r2, r3, #12
 80027c2:	687b      	ldr	r3, [r7, #4]
 80027c4:	685b      	ldr	r3, [r3, #4]
 80027c6:	009b      	lsls	r3, r3, #2
 80027c8:	429a      	cmp	r2, r3
 80027ca:	d1eb      	bne.n	80027a4 <HAL_RCC_ClockConfig+0xf8>
      }
    }
  }

  /* Decreasing the number of wait states because of lower CPU frequency */
  if(FLatency < __HAL_FLASH_GET_LATENCY())
 80027cc:	4b25      	ldr	r3, [pc, #148]	; (8002864 <HAL_RCC_ClockConfig+0x1b8>)
 80027ce:	681b      	ldr	r3, [r3, #0]
 80027d0:	f003 030f 	and.w	r3, r3, #15
 80027d4:	683a      	ldr	r2, [r7, #0]
 80027d6:	429a      	cmp	r2, r3
 80027d8:	d20c      	bcs.n	80027f4 <HAL_RCC_ClockConfig+0x148>
  {
     /* Program the new number of wait states to the LATENCY bits in the FLASH_ACR register */
    __HAL_FLASH_SET_LATENCY(FLatency);
 80027da:	4b22      	ldr	r3, [pc, #136]	; (8002864 <HAL_RCC_ClockConfig+0x1b8>)
 80027dc:	683a      	ldr	r2, [r7, #0]
 80027de:	b2d2      	uxtb	r2, r2
 80027e0:	701a      	strb	r2, [r3, #0]

    /* Check that the new number of wait states is taken into account to access the Flash
    memory by reading the FLASH_ACR register */
    if(__HAL_FLASH_GET_LATENCY() != FLatency)
 80027e2:	4b20      	ldr	r3, [pc, #128]	; (8002864 <HAL_RCC_ClockConfig+0x1b8>)
 80027e4:	681b      	ldr	r3, [r3, #0]
 80027e6:	f003 030f 	and.w	r3, r3, #15
 80027ea:	683a      	ldr	r2, [r7, #0]
 80027ec:	429a      	cmp	r2, r3
 80027ee:	d001      	beq.n	80027f4 <HAL_RCC_ClockConfig+0x148>
    {
      return HAL_ERROR;
 80027f0:	2301      	movs	r3, #1
 80027f2:	e032      	b.n	800285a <HAL_RCC_ClockConfig+0x1ae>
    }
  }

  /*-------------------------- PCLK1 Configuration ---------------------------*/
  if(((RCC_ClkInitStruct->ClockType) & RCC_CLOCKTYPE_PCLK1) == RCC_CLOCKTYPE_PCLK1)
 80027f4:	687b      	ldr	r3, [r7, #4]
 80027f6:	681b      	ldr	r3, [r3, #0]
 80027f8:	f003 0304 	and.w	r3, r3, #4
 80027fc:	2b00      	cmp	r3, #0
 80027fe:	d008      	beq.n	8002812 <HAL_RCC_ClockConfig+0x166>
  {
    assert_param(IS_RCC_PCLK(RCC_ClkInitStruct->APB1CLKDivider));
    MODIFY_REG(RCC->CFGR, RCC_CFGR_PPRE1, RCC_ClkInitStruct->APB1CLKDivider);
 8002800:	4b19      	ldr	r3, [pc, #100]	; (8002868 <HAL_RCC_ClockConfig+0x1bc>)
 8002802:	689b      	ldr	r3, [r3, #8]
 8002804:	f423 52e0 	bic.w	r2, r3, #7168	; 0x1c00
 8002808:	687b      	ldr	r3, [r7, #4]
 800280a:	68db      	ldr	r3, [r3, #12]
 800280c:	4916      	ldr	r1, [pc, #88]	; (8002868 <HAL_RCC_ClockConfig+0x1bc>)
 800280e:	4313      	orrs	r3, r2
 8002810:	608b      	str	r3, [r1, #8]
  }

  /*-------------------------- PCLK2 Configuration ---------------------------*/
  if(((RCC_ClkInitStruct->ClockType) & RCC_CLOCKTYPE_PCLK2) == RCC_CLOCKTYPE_PCLK2)
 8002812:	687b      	ldr	r3, [r7, #4]
 8002814:	681b      	ldr	r3, [r3, #0]
 8002816:	f003 0308 	and.w	r3, r3, #8
 800281a:	2b00      	cmp	r3, #0
 800281c:	d009      	beq.n	8002832 <HAL_RCC_ClockConfig+0x186>
  {
    assert_param(IS_RCC_PCLK(RCC_ClkInitStruct->APB2CLKDivider));
    MODIFY_REG(RCC->CFGR, RCC_CFGR_PPRE2, ((RCC_ClkInitStruct->APB2CLKDivider) << 3U));
 800281e:	4b12      	ldr	r3, [pc, #72]	; (8002868 <HAL_RCC_ClockConfig+0x1bc>)
 8002820:	689b      	ldr	r3, [r3, #8]
 8002822:	f423 4260 	bic.w	r2, r3, #57344	; 0xe000
 8002826:	687b      	ldr	r3, [r7, #4]
 8002828:	691b      	ldr	r3, [r3, #16]
 800282a:	00db      	lsls	r3, r3, #3
 800282c:	490e      	ldr	r1, [pc, #56]	; (8002868 <HAL_RCC_ClockConfig+0x1bc>)
 800282e:	4313      	orrs	r3, r2
 8002830:	608b      	str	r3, [r1, #8]
  }

  /* Update the SystemCoreClock global variable */
  SystemCoreClock = HAL_RCC_GetSysClockFreq() >> AHBPrescTable[(RCC->CFGR & RCC_CFGR_HPRE)>> RCC_CFGR_HPRE_Pos];
 8002832:	f000 f855 	bl	80028e0 <HAL_RCC_GetSysClockFreq>
 8002836:	4601      	mov	r1, r0
 8002838:	4b0b      	ldr	r3, [pc, #44]	; (8002868 <HAL_RCC_ClockConfig+0x1bc>)
 800283a:	689b      	ldr	r3, [r3, #8]
 800283c:	091b      	lsrs	r3, r3, #4
 800283e:	f003 030f 	and.w	r3, r3, #15
 8002842:	4a0a      	ldr	r2, [pc, #40]	; (800286c <HAL_RCC_ClockConfig+0x1c0>)
 8002844:	5cd3      	ldrb	r3, [r2, r3]
 8002846:	fa21 f303 	lsr.w	r3, r1, r3
 800284a:	4a09      	ldr	r2, [pc, #36]	; (8002870 <HAL_RCC_ClockConfig+0x1c4>)
 800284c:	6013      	str	r3, [r2, #0]

  /* Configure the source of time base considering new system clocks settings */
  HAL_InitTick (uwTickPrio);
 800284e:	4b09      	ldr	r3, [pc, #36]	; (8002874 <HAL_RCC_ClockConfig+0x1c8>)
 8002850:	681b      	ldr	r3, [r3, #0]
 8002852:	4618      	mov	r0, r3
 8002854:	f7ff f85c 	bl	8001910 <HAL_InitTick>

  return HAL_OK;
 8002858:	2300      	movs	r3, #0
}
 800285a:	4618      	mov	r0, r3
 800285c:	3710      	adds	r7, #16
 800285e:	46bd      	mov	sp, r7
 8002860:	bd80      	pop	{r7, pc}
 8002862:	bf00      	nop
 8002864:	40023c00 	.word	0x40023c00
 8002868:	40023800 	.word	0x40023800
 800286c:	08005b2c 	.word	0x08005b2c
 8002870:	20000000 	.word	0x20000000
 8002874:	20000004 	.word	0x20000004

08002878 <HAL_RCC_GetHCLKFreq>:
  * @note   The SystemCoreClock CMSIS variable is used to store System Clock Frequency
  *         and updated within this function
  * @retval HCLK frequency
  */
uint32_t HAL_RCC_GetHCLKFreq(void)
{
 8002878:	b480      	push	{r7}
 800287a:	af00      	add	r7, sp, #0
  return SystemCoreClock;
 800287c:	4b03      	ldr	r3, [pc, #12]	; (800288c <HAL_RCC_GetHCLKFreq+0x14>)
 800287e:	681b      	ldr	r3, [r3, #0]
}
 8002880:	4618      	mov	r0, r3
 8002882:	46bd      	mov	sp, r7
 8002884:	f85d 7b04 	ldr.w	r7, [sp], #4
 8002888:	4770      	bx	lr
 800288a:	bf00      	nop
 800288c:	20000000 	.word	0x20000000

08002890 <HAL_RCC_GetPCLK1Freq>:
  * @note   Each time PCLK1 changes, this function must be called to update the
  *         right PCLK1 value. Otherwise, any configuration based on this function will be incorrect.
  * @retval PCLK1 frequency
  */
uint32_t HAL_RCC_GetPCLK1Freq(void)
{
 8002890:	b580      	push	{r7, lr}
 8002892:	af00      	add	r7, sp, #0
  /* Get HCLK source and Compute PCLK1 frequency ---------------------------*/
  return (HAL_RCC_GetHCLKFreq() >> APBPrescTable[(RCC->CFGR & RCC_CFGR_PPRE1)>> RCC_CFGR_PPRE1_Pos]);
 8002894:	f7ff fff0 	bl	8002878 <HAL_RCC_GetHCLKFreq>
 8002898:	4601      	mov	r1, r0
 800289a:	4b05      	ldr	r3, [pc, #20]	; (80028b0 <HAL_RCC_GetPCLK1Freq+0x20>)
 800289c:	689b      	ldr	r3, [r3, #8]
 800289e:	0a9b      	lsrs	r3, r3, #10
 80028a0:	f003 0307 	and.w	r3, r3, #7
 80028a4:	4a03      	ldr	r2, [pc, #12]	; (80028b4 <HAL_RCC_GetPCLK1Freq+0x24>)
 80028a6:	5cd3      	ldrb	r3, [r2, r3]
 80028a8:	fa21 f303 	lsr.w	r3, r1, r3
}
 80028ac:	4618      	mov	r0, r3
 80028ae:	bd80      	pop	{r7, pc}
 80028b0:	40023800 	.word	0x40023800
 80028b4:	08005b3c 	.word	0x08005b3c

080028b8 <HAL_RCC_GetPCLK2Freq>:
  * @note   Each time PCLK2 changes, this function must be called to update the
  *         right PCLK2 value. Otherwise, any configuration based on this function will be incorrect.
  * @retval PCLK2 frequency
  */
uint32_t HAL_RCC_GetPCLK2Freq(void)
{
 80028b8:	b580      	push	{r7, lr}
 80028ba:	af00      	add	r7, sp, #0
  /* Get HCLK source and Compute PCLK2 frequency ---------------------------*/
  return (HAL_RCC_GetHCLKFreq()>> APBPrescTable[(RCC->CFGR & RCC_CFGR_PPRE2)>> RCC_CFGR_PPRE2_Pos]);
 80028bc:	f7ff ffdc 	bl	8002878 <HAL_RCC_GetHCLKFreq>
 80028c0:	4601      	mov	r1, r0
 80028c2:	4b05      	ldr	r3, [pc, #20]	; (80028d8 <HAL_RCC_GetPCLK2Freq+0x20>)
 80028c4:	689b      	ldr	r3, [r3, #8]
 80028c6:	0b5b      	lsrs	r3, r3, #13
 80028c8:	f003 0307 	and.w	r3, r3, #7
 80028cc:	4a03      	ldr	r2, [pc, #12]	; (80028dc <HAL_RCC_GetPCLK2Freq+0x24>)
 80028ce:	5cd3      	ldrb	r3, [r2, r3]
 80028d0:	fa21 f303 	lsr.w	r3, r1, r3
}
 80028d4:	4618      	mov	r0, r3
 80028d6:	bd80      	pop	{r7, pc}
 80028d8:	40023800 	.word	0x40023800
 80028dc:	08005b3c 	.word	0x08005b3c

080028e0 <HAL_RCC_GetSysClockFreq>:
  *
  *
  * @retval SYSCLK frequency
  */
uint32_t HAL_RCC_GetSysClockFreq(void)
{
 80028e0:	b5f0      	push	{r4, r5, r6, r7, lr}
 80028e2:	b087      	sub	sp, #28
 80028e4:	af00      	add	r7, sp, #0
  uint32_t pllm = 0U;
 80028e6:	2300      	movs	r3, #0
 80028e8:	60fb      	str	r3, [r7, #12]
  uint32_t pllvco = 0U;
 80028ea:	2300      	movs	r3, #0
 80028ec:	617b      	str	r3, [r7, #20]
  uint32_t pllp = 0U;
 80028ee:	2300      	movs	r3, #0
 80028f0:	60bb      	str	r3, [r7, #8]
  uint32_t pllr = 0U;
 80028f2:	2300      	movs	r3, #0
 80028f4:	607b      	str	r3, [r7, #4]
  uint32_t sysclockfreq = 0U;
 80028f6:	2300      	movs	r3, #0
 80028f8:	613b      	str	r3, [r7, #16]

  /* Get SYSCLK source -------------------------------------------------------*/
  switch (RCC->CFGR & RCC_CFGR_SWS)
 80028fa:	4bc6      	ldr	r3, [pc, #792]	; (8002c14 <HAL_RCC_GetSysClockFreq+0x334>)
 80028fc:	689b      	ldr	r3, [r3, #8]
 80028fe:	f003 030c 	and.w	r3, r3, #12
 8002902:	2b0c      	cmp	r3, #12
 8002904:	f200 817e 	bhi.w	8002c04 <HAL_RCC_GetSysClockFreq+0x324>
 8002908:	a201      	add	r2, pc, #4	; (adr r2, 8002910 <HAL_RCC_GetSysClockFreq+0x30>)
 800290a:	f852 f023 	ldr.w	pc, [r2, r3, lsl #2]
 800290e:	bf00      	nop
 8002910:	08002945 	.word	0x08002945
 8002914:	08002c05 	.word	0x08002c05
 8002918:	08002c05 	.word	0x08002c05
 800291c:	08002c05 	.word	0x08002c05
 8002920:	0800294b 	.word	0x0800294b
 8002924:	08002c05 	.word	0x08002c05
 8002928:	08002c05 	.word	0x08002c05
 800292c:	08002c05 	.word	0x08002c05
 8002930:	08002951 	.word	0x08002951
 8002934:	08002c05 	.word	0x08002c05
 8002938:	08002c05 	.word	0x08002c05
 800293c:	08002c05 	.word	0x08002c05
 8002940:	08002aad 	.word	0x08002aad
  {
    case RCC_CFGR_SWS_HSI:  /* HSI used as system clock source */
    {
      sysclockfreq = HSI_VALUE;
 8002944:	4bb4      	ldr	r3, [pc, #720]	; (8002c18 <HAL_RCC_GetSysClockFreq+0x338>)
 8002946:	613b      	str	r3, [r7, #16]
       break;
 8002948:	e15f      	b.n	8002c0a <HAL_RCC_GetSysClockFreq+0x32a>
    }
    case RCC_CFGR_SWS_HSE:  /* HSE used as system clock  source */
    {
      sysclockfreq = HSE_VALUE;
 800294a:	4bb4      	ldr	r3, [pc, #720]	; (8002c1c <HAL_RCC_GetSysClockFreq+0x33c>)
 800294c:	613b      	str	r3, [r7, #16]
      break;
 800294e:	e15c      	b.n	8002c0a <HAL_RCC_GetSysClockFreq+0x32a>
    }
    case RCC_CFGR_SWS_PLL:  /* PLL/PLLP used as system clock  source */
    {
      /* PLL_VCO = (HSE_VALUE or HSI_VALUE / PLLM) * PLLN
      SYSCLK = PLL_VCO / PLLP */
      pllm = RCC->PLLCFGR & RCC_PLLCFGR_PLLM;
 8002950:	4bb0      	ldr	r3, [pc, #704]	; (8002c14 <HAL_RCC_GetSysClockFreq+0x334>)
 8002952:	685b      	ldr	r3, [r3, #4]
 8002954:	f003 033f 	and.w	r3, r3, #63	; 0x3f
 8002958:	60fb      	str	r3, [r7, #12]
      if(__HAL_RCC_GET_PLL_OSCSOURCE() != RCC_PLLSOURCE_HSI)
 800295a:	4bae      	ldr	r3, [pc, #696]	; (8002c14 <HAL_RCC_GetSysClockFreq+0x334>)
 800295c:	685b      	ldr	r3, [r3, #4]
 800295e:	f403 0380 	and.w	r3, r3, #4194304	; 0x400000
 8002962:	2b00      	cmp	r3, #0
 8002964:	d04a      	beq.n	80029fc <HAL_RCC_GetSysClockFreq+0x11c>
      {
        /* HSE used as PLL clock source */
        pllvco = (uint32_t) ((((uint64_t) HSE_VALUE * ((uint64_t) ((RCC->PLLCFGR & RCC_PLLCFGR_PLLN) >> RCC_PLLCFGR_PLLN_Pos)))) / (uint64_t)pllm);
 8002966:	4bab      	ldr	r3, [pc, #684]	; (8002c14 <HAL_RCC_GetSysClockFreq+0x334>)
 8002968:	685b      	ldr	r3, [r3, #4]
 800296a:	099b      	lsrs	r3, r3, #6
 800296c:	f04f 0400 	mov.w	r4, #0
 8002970:	f240 11ff 	movw	r1, #511	; 0x1ff
 8002974:	f04f 0200 	mov.w	r2, #0
 8002978:	ea03 0501 	and.w	r5, r3, r1
 800297c:	ea04 0602 	and.w	r6, r4, r2
 8002980:	4629      	mov	r1, r5
 8002982:	4632      	mov	r2, r6
 8002984:	f04f 0300 	mov.w	r3, #0
 8002988:	f04f 0400 	mov.w	r4, #0
 800298c:	0154      	lsls	r4, r2, #5
 800298e:	ea44 64d1 	orr.w	r4, r4, r1, lsr #27
 8002992:	014b      	lsls	r3, r1, #5
 8002994:	4619      	mov	r1, r3
 8002996:	4622      	mov	r2, r4
 8002998:	1b49      	subs	r1, r1, r5
 800299a:	eb62 0206 	sbc.w	r2, r2, r6
 800299e:	f04f 0300 	mov.w	r3, #0
 80029a2:	f04f 0400 	mov.w	r4, #0
 80029a6:	0194      	lsls	r4, r2, #6
 80029a8:	ea44 6491 	orr.w	r4, r4, r1, lsr #26
 80029ac:	018b      	lsls	r3, r1, #6
 80029ae:	1a5b      	subs	r3, r3, r1
 80029b0:	eb64 0402 	sbc.w	r4, r4, r2
 80029b4:	f04f 0100 	mov.w	r1, #0
 80029b8:	f04f 0200 	mov.w	r2, #0
 80029bc:	00e2      	lsls	r2, r4, #3
 80029be:	ea42 7253 	orr.w	r2, r2, r3, lsr #29
 80029c2:	00d9      	lsls	r1, r3, #3
 80029c4:	460b      	mov	r3, r1
 80029c6:	4614      	mov	r4, r2
 80029c8:	195b      	adds	r3, r3, r5
 80029ca:	eb44 0406 	adc.w	r4, r4, r6
 80029ce:	f04f 0100 	mov.w	r1, #0
 80029d2:	f04f 0200 	mov.w	r2, #0
 80029d6:	0262      	lsls	r2, r4, #9
 80029d8:	ea42 52d3 	orr.w	r2, r2, r3, lsr #23
 80029dc:	0259      	lsls	r1, r3, #9
 80029de:	460b      	mov	r3, r1
 80029e0:	4614      	mov	r4, r2
 80029e2:	4618      	mov	r0, r3
 80029e4:	4621      	mov	r1, r4
 80029e6:	68fb      	ldr	r3, [r7, #12]
 80029e8:	f04f 0400 	mov.w	r4, #0
 80029ec:	461a      	mov	r2, r3
 80029ee:	4623      	mov	r3, r4
 80029f0:	f7fe f94a 	bl	8000c88 <__aeabi_uldivmod>
 80029f4:	4603      	mov	r3, r0
 80029f6:	460c      	mov	r4, r1
 80029f8:	617b      	str	r3, [r7, #20]
 80029fa:	e049      	b.n	8002a90 <HAL_RCC_GetSysClockFreq+0x1b0>
      }
      else
      {
        /* HSI used as PLL clock source */
        pllvco = (uint32_t) ((((uint64_t) HSI_VALUE * ((uint64_t) ((RCC->PLLCFGR & RCC_PLLCFGR_PLLN) >> RCC_PLLCFGR_PLLN_Pos)))) / (uint64_t)pllm);
 80029fc:	4b85      	ldr	r3, [pc, #532]	; (8002c14 <HAL_RCC_GetSysClockFreq+0x334>)
 80029fe:	685b      	ldr	r3, [r3, #4]
 8002a00:	099b      	lsrs	r3, r3, #6
 8002a02:	f04f 0400 	mov.w	r4, #0
 8002a06:	f240 11ff 	movw	r1, #511	; 0x1ff
 8002a0a:	f04f 0200 	mov.w	r2, #0
 8002a0e:	ea03 0501 	and.w	r5, r3, r1
 8002a12:	ea04 0602 	and.w	r6, r4, r2
 8002a16:	4629      	mov	r1, r5
 8002a18:	4632      	mov	r2, r6
 8002a1a:	f04f 0300 	mov.w	r3, #0
 8002a1e:	f04f 0400 	mov.w	r4, #0
 8002a22:	0154      	lsls	r4, r2, #5
 8002a24:	ea44 64d1 	orr.w	r4, r4, r1, lsr #27
 8002a28:	014b      	lsls	r3, r1, #5
 8002a2a:	4619      	mov	r1, r3
 8002a2c:	4622      	mov	r2, r4
 8002a2e:	1b49      	subs	r1, r1, r5
 8002a30:	eb62 0206 	sbc.w	r2, r2, r6
 8002a34:	f04f 0300 	mov.w	r3, #0
 8002a38:	f04f 0400 	mov.w	r4, #0
 8002a3c:	0194      	lsls	r4, r2, #6
 8002a3e:	ea44 6491 	orr.w	r4, r4, r1, lsr #26
 8002a42:	018b      	lsls	r3, r1, #6
 8002a44:	1a5b      	subs	r3, r3, r1
 8002a46:	eb64 0402 	sbc.w	r4, r4, r2
 8002a4a:	f04f 0100 	mov.w	r1, #0
 8002a4e:	f04f 0200 	mov.w	r2, #0
 8002a52:	00e2      	lsls	r2, r4, #3
 8002a54:	ea42 7253 	orr.w	r2, r2, r3, lsr #29
 8002a58:	00d9      	lsls	r1, r3, #3
 8002a5a:	460b      	mov	r3, r1
 8002a5c:	4614      	mov	r4, r2
 8002a5e:	195b      	adds	r3, r3, r5
 8002a60:	eb44 0406 	adc.w	r4, r4, r6
 8002a64:	f04f 0100 	mov.w	r1, #0
 8002a68:	f04f 0200 	mov.w	r2, #0
 8002a6c:	02a2      	lsls	r2, r4, #10
 8002a6e:	ea42 5293 	orr.w	r2, r2, r3, lsr #22
 8002a72:	0299      	lsls	r1, r3, #10
 8002a74:	460b      	mov	r3, r1
 8002a76:	4614      	mov	r4, r2
 8002a78:	4618      	mov	r0, r3
 8002a7a:	4621      	mov	r1, r4
 8002a7c:	68fb      	ldr	r3, [r7, #12]
 8002a7e:	f04f 0400 	mov.w	r4, #0
 8002a82:	461a      	mov	r2, r3
 8002a84:	4623      	mov	r3, r4
 8002a86:	f7fe f8ff 	bl	8000c88 <__aeabi_uldivmod>
 8002a8a:	4603      	mov	r3, r0
 8002a8c:	460c      	mov	r4, r1
 8002a8e:	617b      	str	r3, [r7, #20]
      }
      pllp = ((((RCC->PLLCFGR & RCC_PLLCFGR_PLLP) >> RCC_PLLCFGR_PLLP_Pos) + 1U) *2U);
 8002a90:	4b60      	ldr	r3, [pc, #384]	; (8002c14 <HAL_RCC_GetSysClockFreq+0x334>)
 8002a92:	685b      	ldr	r3, [r3, #4]
 8002a94:	0c1b      	lsrs	r3, r3, #16
 8002a96:	f003 0303 	and.w	r3, r3, #3
 8002a9a:	3301      	adds	r3, #1
 8002a9c:	005b      	lsls	r3, r3, #1
 8002a9e:	60bb      	str	r3, [r7, #8]

      sysclockfreq = pllvco/pllp;
 8002aa0:	697a      	ldr	r2, [r7, #20]
 8002aa2:	68bb      	ldr	r3, [r7, #8]
 8002aa4:	fbb2 f3f3 	udiv	r3, r2, r3
 8002aa8:	613b      	str	r3, [r7, #16]
      break;
 8002aaa:	e0ae      	b.n	8002c0a <HAL_RCC_GetSysClockFreq+0x32a>
    }
    case RCC_CFGR_SWS_PLLR:  /* PLL/PLLR used as system clock  source */
    {
      /* PLL_VCO = (HSE_VALUE or HSI_VALUE / PLLM) * PLLN
      SYSCLK = PLL_VCO / PLLR */
      pllm = RCC->PLLCFGR & RCC_PLLCFGR_PLLM;
 8002aac:	4b59      	ldr	r3, [pc, #356]	; (8002c14 <HAL_RCC_GetSysClockFreq+0x334>)
 8002aae:	685b      	ldr	r3, [r3, #4]
 8002ab0:	f003 033f 	and.w	r3, r3, #63	; 0x3f
 8002ab4:	60fb      	str	r3, [r7, #12]
      if(__HAL_RCC_GET_PLL_OSCSOURCE() != RCC_PLLSOURCE_HSI)
 8002ab6:	4b57      	ldr	r3, [pc, #348]	; (8002c14 <HAL_RCC_GetSysClockFreq+0x334>)
 8002ab8:	685b      	ldr	r3, [r3, #4]
 8002aba:	f403 0380 	and.w	r3, r3, #4194304	; 0x400000
 8002abe:	2b00      	cmp	r3, #0
 8002ac0:	d04a      	beq.n	8002b58 <HAL_RCC_GetSysClockFreq+0x278>
      {
        /* HSE used as PLL clock source */
        pllvco = (uint32_t) ((((uint64_t) HSE_VALUE * ((uint64_t) ((RCC->PLLCFGR & RCC_PLLCFGR_PLLN) >> RCC_PLLCFGR_PLLN_Pos)))) / (uint64_t)pllm);
 8002ac2:	4b54      	ldr	r3, [pc, #336]	; (8002c14 <HAL_RCC_GetSysClockFreq+0x334>)
 8002ac4:	685b      	ldr	r3, [r3, #4]
 8002ac6:	099b      	lsrs	r3, r3, #6
 8002ac8:	f04f 0400 	mov.w	r4, #0
 8002acc:	f240 11ff 	movw	r1, #511	; 0x1ff
 8002ad0:	f04f 0200 	mov.w	r2, #0
 8002ad4:	ea03 0501 	and.w	r5, r3, r1
 8002ad8:	ea04 0602 	and.w	r6, r4, r2
 8002adc:	4629      	mov	r1, r5
 8002ade:	4632      	mov	r2, r6
 8002ae0:	f04f 0300 	mov.w	r3, #0
 8002ae4:	f04f 0400 	mov.w	r4, #0
 8002ae8:	0154      	lsls	r4, r2, #5
 8002aea:	ea44 64d1 	orr.w	r4, r4, r1, lsr #27
 8002aee:	014b      	lsls	r3, r1, #5
 8002af0:	4619      	mov	r1, r3
 8002af2:	4622      	mov	r2, r4
 8002af4:	1b49      	subs	r1, r1, r5
 8002af6:	eb62 0206 	sbc.w	r2, r2, r6
 8002afa:	f04f 0300 	mov.w	r3, #0
 8002afe:	f04f 0400 	mov.w	r4, #0
 8002b02:	0194      	lsls	r4, r2, #6
 8002b04:	ea44 6491 	orr.w	r4, r4, r1, lsr #26
 8002b08:	018b      	lsls	r3, r1, #6
 8002b0a:	1a5b      	subs	r3, r3, r1
 8002b0c:	eb64 0402 	sbc.w	r4, r4, r2
 8002b10:	f04f 0100 	mov.w	r1, #0
 8002b14:	f04f 0200 	mov.w	r2, #0
 8002b18:	00e2      	lsls	r2, r4, #3
 8002b1a:	ea42 7253 	orr.w	r2, r2, r3, lsr #29
 8002b1e:	00d9      	lsls	r1, r3, #3
 8002b20:	460b      	mov	r3, r1
 8002b22:	4614      	mov	r4, r2
 8002b24:	195b      	adds	r3, r3, r5
 8002b26:	eb44 0406 	adc.w	r4, r4, r6
 8002b2a:	f04f 0100 	mov.w	r1, #0
 8002b2e:	f04f 0200 	mov.w	r2, #0
 8002b32:	0262      	lsls	r2, r4, #9
 8002b34:	ea42 52d3 	orr.w	r2, r2, r3, lsr #23
 8002b38:	0259      	lsls	r1, r3, #9
 8002b3a:	460b      	mov	r3, r1
 8002b3c:	4614      	mov	r4, r2
 8002b3e:	4618      	mov	r0, r3
 8002b40:	4621      	mov	r1, r4
 8002b42:	68fb      	ldr	r3, [r7, #12]
 8002b44:	f04f 0400 	mov.w	r4, #0
 8002b48:	461a      	mov	r2, r3
 8002b4a:	4623      	mov	r3, r4
 8002b4c:	f7fe f89c 	bl	8000c88 <__aeabi_uldivmod>
 8002b50:	4603      	mov	r3, r0
 8002b52:	460c      	mov	r4, r1
 8002b54:	617b      	str	r3, [r7, #20]
 8002b56:	e049      	b.n	8002bec <HAL_RCC_GetSysClockFreq+0x30c>
      }
      else
      {
        /* HSI used as PLL clock source */
        pllvco = (uint32_t) ((((uint64_t) HSI_VALUE * ((uint64_t) ((RCC->PLLCFGR & RCC_PLLCFGR_PLLN) >> RCC_PLLCFGR_PLLN_Pos)))) / (uint64_t)pllm);
 8002b58:	4b2e      	ldr	r3, [pc, #184]	; (8002c14 <HAL_RCC_GetSysClockFreq+0x334>)
 8002b5a:	685b      	ldr	r3, [r3, #4]
 8002b5c:	099b      	lsrs	r3, r3, #6
 8002b5e:	f04f 0400 	mov.w	r4, #0
 8002b62:	f240 11ff 	movw	r1, #511	; 0x1ff
 8002b66:	f04f 0200 	mov.w	r2, #0
 8002b6a:	ea03 0501 	and.w	r5, r3, r1
 8002b6e:	ea04 0602 	and.w	r6, r4, r2
 8002b72:	4629      	mov	r1, r5
 8002b74:	4632      	mov	r2, r6
 8002b76:	f04f 0300 	mov.w	r3, #0
 8002b7a:	f04f 0400 	mov.w	r4, #0
 8002b7e:	0154      	lsls	r4, r2, #5
 8002b80:	ea44 64d1 	orr.w	r4, r4, r1, lsr #27
 8002b84:	014b      	lsls	r3, r1, #5
 8002b86:	4619      	mov	r1, r3
 8002b88:	4622      	mov	r2, r4
 8002b8a:	1b49      	subs	r1, r1, r5
 8002b8c:	eb62 0206 	sbc.w	r2, r2, r6
 8002b90:	f04f 0300 	mov.w	r3, #0
 8002b94:	f04f 0400 	mov.w	r4, #0
 8002b98:	0194      	lsls	r4, r2, #6
 8002b9a:	ea44 6491 	orr.w	r4, r4, r1, lsr #26
 8002b9e:	018b      	lsls	r3, r1, #6
 8002ba0:	1a5b      	subs	r3, r3, r1
 8002ba2:	eb64 0402 	sbc.w	r4, r4, r2
 8002ba6:	f04f 0100 	mov.w	r1, #0
 8002baa:	f04f 0200 	mov.w	r2, #0
 8002bae:	00e2      	lsls	r2, r4, #3
 8002bb0:	ea42 7253 	orr.w	r2, r2, r3, lsr #29
 8002bb4:	00d9      	lsls	r1, r3, #3
 8002bb6:	460b      	mov	r3, r1
 8002bb8:	4614      	mov	r4, r2
 8002bba:	195b      	adds	r3, r3, r5
 8002bbc:	eb44 0406 	adc.w	r4, r4, r6
 8002bc0:	f04f 0100 	mov.w	r1, #0
 8002bc4:	f04f 0200 	mov.w	r2, #0
 8002bc8:	02a2      	lsls	r2, r4, #10
 8002bca:	ea42 5293 	orr.w	r2, r2, r3, lsr #22
 8002bce:	0299      	lsls	r1, r3, #10
 8002bd0:	460b      	mov	r3, r1
 8002bd2:	4614      	mov	r4, r2
 8002bd4:	4618      	mov	r0, r3
 8002bd6:	4621      	mov	r1, r4
 8002bd8:	68fb      	ldr	r3, [r7, #12]
 8002bda:	f04f 0400 	mov.w	r4, #0
 8002bde:	461a      	mov	r2, r3
 8002be0:	4623      	mov	r3, r4
 8002be2:	f7fe f851 	bl	8000c88 <__aeabi_uldivmod>
 8002be6:	4603      	mov	r3, r0
 8002be8:	460c      	mov	r4, r1
 8002bea:	617b      	str	r3, [r7, #20]
      }
      pllr = ((RCC->PLLCFGR & RCC_PLLCFGR_PLLR) >> RCC_PLLCFGR_PLLR_Pos);
 8002bec:	4b09      	ldr	r3, [pc, #36]	; (8002c14 <HAL_RCC_GetSysClockFreq+0x334>)
 8002bee:	685b      	ldr	r3, [r3, #4]
 8002bf0:	0f1b      	lsrs	r3, r3, #28
 8002bf2:	f003 0307 	and.w	r3, r3, #7
 8002bf6:	607b      	str	r3, [r7, #4]

      sysclockfreq = pllvco/pllr;
 8002bf8:	697a      	ldr	r2, [r7, #20]
 8002bfa:	687b      	ldr	r3, [r7, #4]
 8002bfc:	fbb2 f3f3 	udiv	r3, r2, r3
 8002c00:	613b      	str	r3, [r7, #16]
      break;
 8002c02:	e002      	b.n	8002c0a <HAL_RCC_GetSysClockFreq+0x32a>
    }
    default:
    {
      sysclockfreq = HSI_VALUE;
 8002c04:	4b04      	ldr	r3, [pc, #16]	; (8002c18 <HAL_RCC_GetSysClockFreq+0x338>)
 8002c06:	613b      	str	r3, [r7, #16]
      break;
 8002c08:	bf00      	nop
    }
  }
  return sysclockfreq;
 8002c0a:	693b      	ldr	r3, [r7, #16]
}
 8002c0c:	4618      	mov	r0, r3
 8002c0e:	371c      	adds	r7, #28
 8002c10:	46bd      	mov	sp, r7
 8002c12:	bdf0      	pop	{r4, r5, r6, r7, pc}
 8002c14:	40023800 	.word	0x40023800
 8002c18:	00f42400 	.word	0x00f42400
 8002c1c:	007a1200 	.word	0x007a1200

08002c20 <HAL_RCC_OscConfig>:
  * @note   This function add the PLL/PLLR factor management during PLL configuration this feature
  *         is only available in STM32F410xx/STM32F446xx/STM32F469xx/STM32F479xx/STM32F412Zx/STM32F412Vx/STM32F412Rx/STM32F412Cx devices
  * @retval HAL status
  */
HAL_StatusTypeDef HAL_RCC_OscConfig(RCC_OscInitTypeDef  *RCC_OscInitStruct)
{
 8002c20:	b580      	push	{r7, lr}
 8002c22:	b086      	sub	sp, #24
 8002c24:	af00      	add	r7, sp, #0
 8002c26:	6078      	str	r0, [r7, #4]
  uint32_t tickstart = 0U;
 8002c28:	2300      	movs	r3, #0
 8002c2a:	613b      	str	r3, [r7, #16]

  /* Check the parameters */
  assert_param(IS_RCC_OSCILLATORTYPE(RCC_OscInitStruct->OscillatorType));
  /*------------------------------- HSE Configuration ------------------------*/
  if(((RCC_OscInitStruct->OscillatorType) & RCC_OSCILLATORTYPE_HSE) == RCC_OSCILLATORTYPE_HSE)
 8002c2c:	687b      	ldr	r3, [r7, #4]
 8002c2e:	681b      	ldr	r3, [r3, #0]
 8002c30:	f003 0301 	and.w	r3, r3, #1
 8002c34:	2b00      	cmp	r3, #0
 8002c36:	f000 8083 	beq.w	8002d40 <HAL_RCC_OscConfig+0x120>
  {
    /* Check the parameters */
    assert_param(IS_RCC_HSE(RCC_OscInitStruct->HSEState));
    /* When the HSE is used as system clock or clock source for PLL in these cases HSE will not disabled */
#if defined(STM32F446xx)
    if((__HAL_RCC_GET_SYSCLK_SOURCE() == RCC_CFGR_SWS_HSE)                                                                     ||\
 8002c3a:	4b95      	ldr	r3, [pc, #596]	; (8002e90 <HAL_RCC_OscConfig+0x270>)
 8002c3c:	689b      	ldr	r3, [r3, #8]
 8002c3e:	f003 030c 	and.w	r3, r3, #12
 8002c42:	2b04      	cmp	r3, #4
 8002c44:	d019      	beq.n	8002c7a <HAL_RCC_OscConfig+0x5a>
      ((__HAL_RCC_GET_SYSCLK_SOURCE() == RCC_CFGR_SWS_PLL) && ((RCC->PLLCFGR & RCC_PLLCFGR_PLLSRC) == RCC_PLLCFGR_PLLSRC_HSE)) ||\
 8002c46:	4b92      	ldr	r3, [pc, #584]	; (8002e90 <HAL_RCC_OscConfig+0x270>)
 8002c48:	689b      	ldr	r3, [r3, #8]
 8002c4a:	f003 030c 	and.w	r3, r3, #12
    if((__HAL_RCC_GET_SYSCLK_SOURCE() == RCC_CFGR_SWS_HSE)                                                                     ||\
 8002c4e:	2b08      	cmp	r3, #8
 8002c50:	d106      	bne.n	8002c60 <HAL_RCC_OscConfig+0x40>
      ((__HAL_RCC_GET_SYSCLK_SOURCE() == RCC_CFGR_SWS_PLL) && ((RCC->PLLCFGR & RCC_PLLCFGR_PLLSRC) == RCC_PLLCFGR_PLLSRC_HSE)) ||\
 8002c52:	4b8f      	ldr	r3, [pc, #572]	; (8002e90 <HAL_RCC_OscConfig+0x270>)
 8002c54:	685b      	ldr	r3, [r3, #4]
 8002c56:	f403 0380 	and.w	r3, r3, #4194304	; 0x400000
 8002c5a:	f5b3 0f80 	cmp.w	r3, #4194304	; 0x400000
 8002c5e:	d00c      	beq.n	8002c7a <HAL_RCC_OscConfig+0x5a>
      ((__HAL_RCC_GET_SYSCLK_SOURCE() == RCC_CFGR_SWS_PLLR) && ((RCC->PLLCFGR & RCC_PLLCFGR_PLLSRC) == RCC_PLLCFGR_PLLSRC_HSE)))
 8002c60:	4b8b      	ldr	r3, [pc, #556]	; (8002e90 <HAL_RCC_OscConfig+0x270>)
 8002c62:	689b      	ldr	r3, [r3, #8]
 8002c64:	f003 030c 	and.w	r3, r3, #12
      ((__HAL_RCC_GET_SYSCLK_SOURCE() == RCC_CFGR_SWS_PLL) && ((RCC->PLLCFGR & RCC_PLLCFGR_PLLSRC) == RCC_PLLCFGR_PLLSRC_HSE)) ||\
 8002c68:	2b0c      	cmp	r3, #12
 8002c6a:	d112      	bne.n	8002c92 <HAL_RCC_OscConfig+0x72>
      ((__HAL_RCC_GET_SYSCLK_SOURCE() == RCC_CFGR_SWS_PLLR) && ((RCC->PLLCFGR & RCC_PLLCFGR_PLLSRC) == RCC_PLLCFGR_PLLSRC_HSE)))
 8002c6c:	4b88      	ldr	r3, [pc, #544]	; (8002e90 <HAL_RCC_OscConfig+0x270>)
 8002c6e:	685b      	ldr	r3, [r3, #4]
 8002c70:	f403 0380 	and.w	r3, r3, #4194304	; 0x400000
 8002c74:	f5b3 0f80 	cmp.w	r3, #4194304	; 0x400000
 8002c78:	d10b      	bne.n	8002c92 <HAL_RCC_OscConfig+0x72>
#else
    if((__HAL_RCC_GET_SYSCLK_SOURCE() == RCC_CFGR_SWS_HSE)                                                                     ||\
      ((__HAL_RCC_GET_SYSCLK_SOURCE() == RCC_CFGR_SWS_PLL) && ((RCC->PLLCFGR & RCC_PLLCFGR_PLLSRC) == RCC_PLLCFGR_PLLSRC_HSE)))
#endif /* STM32F446xx */
    {
      if((__HAL_RCC_GET_FLAG(RCC_FLAG_HSERDY) != RESET) && (RCC_OscInitStruct->HSEState == RCC_HSE_OFF))
 8002c7a:	4b85      	ldr	r3, [pc, #532]	; (8002e90 <HAL_RCC_OscConfig+0x270>)
 8002c7c:	681b      	ldr	r3, [r3, #0]
 8002c7e:	f403 3300 	and.w	r3, r3, #131072	; 0x20000
 8002c82:	2b00      	cmp	r3, #0
 8002c84:	d05b      	beq.n	8002d3e <HAL_RCC_OscConfig+0x11e>
 8002c86:	687b      	ldr	r3, [r7, #4]
 8002c88:	685b      	ldr	r3, [r3, #4]
 8002c8a:	2b00      	cmp	r3, #0
 8002c8c:	d157      	bne.n	8002d3e <HAL_RCC_OscConfig+0x11e>
      {
        return HAL_ERROR;
 8002c8e:	2301      	movs	r3, #1
 8002c90:	e216      	b.n	80030c0 <HAL_RCC_OscConfig+0x4a0>
      }
    }
    else
    {
      /* Set the new HSE configuration ---------------------------------------*/
      __HAL_RCC_HSE_CONFIG(RCC_OscInitStruct->HSEState);
 8002c92:	687b      	ldr	r3, [r7, #4]
 8002c94:	685b      	ldr	r3, [r3, #4]
 8002c96:	f5b3 3f80 	cmp.w	r3, #65536	; 0x10000
 8002c9a:	d106      	bne.n	8002caa <HAL_RCC_OscConfig+0x8a>
 8002c9c:	4b7c      	ldr	r3, [pc, #496]	; (8002e90 <HAL_RCC_OscConfig+0x270>)
 8002c9e:	681b      	ldr	r3, [r3, #0]
 8002ca0:	4a7b      	ldr	r2, [pc, #492]	; (8002e90 <HAL_RCC_OscConfig+0x270>)
 8002ca2:	f443 3380 	orr.w	r3, r3, #65536	; 0x10000
 8002ca6:	6013      	str	r3, [r2, #0]
 8002ca8:	e01d      	b.n	8002ce6 <HAL_RCC_OscConfig+0xc6>
 8002caa:	687b      	ldr	r3, [r7, #4]
 8002cac:	685b      	ldr	r3, [r3, #4]
 8002cae:	f5b3 2fa0 	cmp.w	r3, #327680	; 0x50000
 8002cb2:	d10c      	bne.n	8002cce <HAL_RCC_OscConfig+0xae>
 8002cb4:	4b76      	ldr	r3, [pc, #472]	; (8002e90 <HAL_RCC_OscConfig+0x270>)
 8002cb6:	681b      	ldr	r3, [r3, #0]
 8002cb8:	4a75      	ldr	r2, [pc, #468]	; (8002e90 <HAL_RCC_OscConfig+0x270>)
 8002cba:	f443 2380 	orr.w	r3, r3, #262144	; 0x40000
 8002cbe:	6013      	str	r3, [r2, #0]
 8002cc0:	4b73      	ldr	r3, [pc, #460]	; (8002e90 <HAL_RCC_OscConfig+0x270>)
 8002cc2:	681b      	ldr	r3, [r3, #0]
 8002cc4:	4a72      	ldr	r2, [pc, #456]	; (8002e90 <HAL_RCC_OscConfig+0x270>)
 8002cc6:	f443 3380 	orr.w	r3, r3, #65536	; 0x10000
 8002cca:	6013      	str	r3, [r2, #0]
 8002ccc:	e00b      	b.n	8002ce6 <HAL_RCC_OscConfig+0xc6>
 8002cce:	4b70      	ldr	r3, [pc, #448]	; (8002e90 <HAL_RCC_OscConfig+0x270>)
 8002cd0:	681b      	ldr	r3, [r3, #0]
 8002cd2:	4a6f      	ldr	r2, [pc, #444]	; (8002e90 <HAL_RCC_OscConfig+0x270>)
 8002cd4:	f423 3380 	bic.w	r3, r3, #65536	; 0x10000
 8002cd8:	6013      	str	r3, [r2, #0]
 8002cda:	4b6d      	ldr	r3, [pc, #436]	; (8002e90 <HAL_RCC_OscConfig+0x270>)
 8002cdc:	681b      	ldr	r3, [r3, #0]
 8002cde:	4a6c      	ldr	r2, [pc, #432]	; (8002e90 <HAL_RCC_OscConfig+0x270>)
 8002ce0:	f423 2380 	bic.w	r3, r3, #262144	; 0x40000
 8002ce4:	6013      	str	r3, [r2, #0]

      /* Check the HSE State */
      if((RCC_OscInitStruct->HSEState) != RCC_HSE_OFF)
 8002ce6:	687b      	ldr	r3, [r7, #4]
 8002ce8:	685b      	ldr	r3, [r3, #4]
 8002cea:	2b00      	cmp	r3, #0
 8002cec:	d013      	beq.n	8002d16 <HAL_RCC_OscConfig+0xf6>
      {
        /* Get Start Tick*/
        tickstart = HAL_GetTick();
 8002cee:	f7fe fe53 	bl	8001998 <HAL_GetTick>
 8002cf2:	6138      	str	r0, [r7, #16]

        /* Wait till HSE is ready */
        while(__HAL_RCC_GET_FLAG(RCC_FLAG_HSERDY) == RESET)
 8002cf4:	e008      	b.n	8002d08 <HAL_RCC_OscConfig+0xe8>
        {
          if((HAL_GetTick() - tickstart ) > HSE_TIMEOUT_VALUE)
 8002cf6:	f7fe fe4f 	bl	8001998 <HAL_GetTick>
 8002cfa:	4602      	mov	r2, r0
 8002cfc:	693b      	ldr	r3, [r7, #16]
 8002cfe:	1ad3      	subs	r3, r2, r3
 8002d00:	2b64      	cmp	r3, #100	; 0x64
 8002d02:	d901      	bls.n	8002d08 <HAL_RCC_OscConfig+0xe8>
          {
            return HAL_TIMEOUT;
 8002d04:	2303      	movs	r3, #3
 8002d06:	e1db      	b.n	80030c0 <HAL_RCC_OscConfig+0x4a0>
        while(__HAL_RCC_GET_FLAG(RCC_FLAG_HSERDY) == RESET)
 8002d08:	4b61      	ldr	r3, [pc, #388]	; (8002e90 <HAL_RCC_OscConfig+0x270>)
 8002d0a:	681b      	ldr	r3, [r3, #0]
 8002d0c:	f403 3300 	and.w	r3, r3, #131072	; 0x20000
 8002d10:	2b00      	cmp	r3, #0
 8002d12:	d0f0      	beq.n	8002cf6 <HAL_RCC_OscConfig+0xd6>
 8002d14:	e014      	b.n	8002d40 <HAL_RCC_OscConfig+0x120>
        }
      }
      else
      {
        /* Get Start Tick*/
        tickstart = HAL_GetTick();
 8002d16:	f7fe fe3f 	bl	8001998 <HAL_GetTick>
 8002d1a:	6138      	str	r0, [r7, #16]

        /* Wait till HSE is bypassed or disabled */
        while(__HAL_RCC_GET_FLAG(RCC_FLAG_HSERDY) != RESET)
 8002d1c:	e008      	b.n	8002d30 <HAL_RCC_OscConfig+0x110>
        {
          if((HAL_GetTick() - tickstart ) > HSE_TIMEOUT_VALUE)
 8002d1e:	f7fe fe3b 	bl	8001998 <HAL_GetTick>
 8002d22:	4602      	mov	r2, r0
 8002d24:	693b      	ldr	r3, [r7, #16]
 8002d26:	1ad3      	subs	r3, r2, r3
 8002d28:	2b64      	cmp	r3, #100	; 0x64
 8002d2a:	d901      	bls.n	8002d30 <HAL_RCC_OscConfig+0x110>
          {
            return HAL_TIMEOUT;
 8002d2c:	2303      	movs	r3, #3
 8002d2e:	e1c7      	b.n	80030c0 <HAL_RCC_OscConfig+0x4a0>
        while(__HAL_RCC_GET_FLAG(RCC_FLAG_HSERDY) != RESET)
 8002d30:	4b57      	ldr	r3, [pc, #348]	; (8002e90 <HAL_RCC_OscConfig+0x270>)
 8002d32:	681b      	ldr	r3, [r3, #0]
 8002d34:	f403 3300 	and.w	r3, r3, #131072	; 0x20000
 8002d38:	2b00      	cmp	r3, #0
 8002d3a:	d1f0      	bne.n	8002d1e <HAL_RCC_OscConfig+0xfe>
 8002d3c:	e000      	b.n	8002d40 <HAL_RCC_OscConfig+0x120>
      if((__HAL_RCC_GET_FLAG(RCC_FLAG_HSERDY) != RESET) && (RCC_OscInitStruct->HSEState == RCC_HSE_OFF))
 8002d3e:	bf00      	nop
        }
      }
    }
  }
  /*----------------------------- HSI Configuration --------------------------*/
  if(((RCC_OscInitStruct->OscillatorType) & RCC_OSCILLATORTYPE_HSI) == RCC_OSCILLATORTYPE_HSI)
 8002d40:	687b      	ldr	r3, [r7, #4]
 8002d42:	681b      	ldr	r3, [r3, #0]
 8002d44:	f003 0302 	and.w	r3, r3, #2
 8002d48:	2b00      	cmp	r3, #0
 8002d4a:	d06f      	beq.n	8002e2c <HAL_RCC_OscConfig+0x20c>
    assert_param(IS_RCC_HSI(RCC_OscInitStruct->HSIState));
    assert_param(IS_RCC_CALIBRATION_VALUE(RCC_OscInitStruct->HSICalibrationValue));

    /* Check if HSI is used as system clock or as PLL source when PLL is selected as system clock */
#if defined(STM32F446xx)
    if((__HAL_RCC_GET_SYSCLK_SOURCE() == RCC_CFGR_SWS_HSI)                                                                     ||\
 8002d4c:	4b50      	ldr	r3, [pc, #320]	; (8002e90 <HAL_RCC_OscConfig+0x270>)
 8002d4e:	689b      	ldr	r3, [r3, #8]
 8002d50:	f003 030c 	and.w	r3, r3, #12
 8002d54:	2b00      	cmp	r3, #0
 8002d56:	d017      	beq.n	8002d88 <HAL_RCC_OscConfig+0x168>
      ((__HAL_RCC_GET_SYSCLK_SOURCE() == RCC_CFGR_SWS_PLL) && ((RCC->PLLCFGR & RCC_PLLCFGR_PLLSRC) == RCC_PLLCFGR_PLLSRC_HSI)) ||\
 8002d58:	4b4d      	ldr	r3, [pc, #308]	; (8002e90 <HAL_RCC_OscConfig+0x270>)
 8002d5a:	689b      	ldr	r3, [r3, #8]
 8002d5c:	f003 030c 	and.w	r3, r3, #12
    if((__HAL_RCC_GET_SYSCLK_SOURCE() == RCC_CFGR_SWS_HSI)                                                                     ||\
 8002d60:	2b08      	cmp	r3, #8
 8002d62:	d105      	bne.n	8002d70 <HAL_RCC_OscConfig+0x150>
      ((__HAL_RCC_GET_SYSCLK_SOURCE() == RCC_CFGR_SWS_PLL) && ((RCC->PLLCFGR & RCC_PLLCFGR_PLLSRC) == RCC_PLLCFGR_PLLSRC_HSI)) ||\
 8002d64:	4b4a      	ldr	r3, [pc, #296]	; (8002e90 <HAL_RCC_OscConfig+0x270>)
 8002d66:	685b      	ldr	r3, [r3, #4]
 8002d68:	f403 0380 	and.w	r3, r3, #4194304	; 0x400000
 8002d6c:	2b00      	cmp	r3, #0
 8002d6e:	d00b      	beq.n	8002d88 <HAL_RCC_OscConfig+0x168>
      ((__HAL_RCC_GET_SYSCLK_SOURCE() == RCC_CFGR_SWS_PLLR) && ((RCC->PLLCFGR & RCC_PLLCFGR_PLLSRC) == RCC_PLLCFGR_PLLSRC_HSI)))
 8002d70:	4b47      	ldr	r3, [pc, #284]	; (8002e90 <HAL_RCC_OscConfig+0x270>)
 8002d72:	689b      	ldr	r3, [r3, #8]
 8002d74:	f003 030c 	and.w	r3, r3, #12
      ((__HAL_RCC_GET_SYSCLK_SOURCE() == RCC_CFGR_SWS_PLL) && ((RCC->PLLCFGR & RCC_PLLCFGR_PLLSRC) == RCC_PLLCFGR_PLLSRC_HSI)) ||\
 8002d78:	2b0c      	cmp	r3, #12
 8002d7a:	d11c      	bne.n	8002db6 <HAL_RCC_OscConfig+0x196>
      ((__HAL_RCC_GET_SYSCLK_SOURCE() == RCC_CFGR_SWS_PLLR) && ((RCC->PLLCFGR & RCC_PLLCFGR_PLLSRC) == RCC_PLLCFGR_PLLSRC_HSI)))
 8002d7c:	4b44      	ldr	r3, [pc, #272]	; (8002e90 <HAL_RCC_OscConfig+0x270>)
 8002d7e:	685b      	ldr	r3, [r3, #4]
 8002d80:	f403 0380 	and.w	r3, r3, #4194304	; 0x400000
 8002d84:	2b00      	cmp	r3, #0
 8002d86:	d116      	bne.n	8002db6 <HAL_RCC_OscConfig+0x196>
    if((__HAL_RCC_GET_SYSCLK_SOURCE() == RCC_CFGR_SWS_HSI)                                                                     ||\
      ((__HAL_RCC_GET_SYSCLK_SOURCE() == RCC_CFGR_SWS_PLL) && ((RCC->PLLCFGR & RCC_PLLCFGR_PLLSRC) == RCC_PLLCFGR_PLLSRC_HSI)))
#endif /* STM32F446xx */
    {
      /* When HSI is used as system clock it will not disabled */
      if((__HAL_RCC_GET_FLAG(RCC_FLAG_HSIRDY) != RESET) && (RCC_OscInitStruct->HSIState != RCC_HSI_ON))
 8002d88:	4b41      	ldr	r3, [pc, #260]	; (8002e90 <HAL_RCC_OscConfig+0x270>)
 8002d8a:	681b      	ldr	r3, [r3, #0]
 8002d8c:	f003 0302 	and.w	r3, r3, #2
 8002d90:	2b00      	cmp	r3, #0
 8002d92:	d005      	beq.n	8002da0 <HAL_RCC_OscConfig+0x180>
 8002d94:	687b      	ldr	r3, [r7, #4]
 8002d96:	68db      	ldr	r3, [r3, #12]
 8002d98:	2b01      	cmp	r3, #1
 8002d9a:	d001      	beq.n	8002da0 <HAL_RCC_OscConfig+0x180>
      {
        return HAL_ERROR;
 8002d9c:	2301      	movs	r3, #1
 8002d9e:	e18f      	b.n	80030c0 <HAL_RCC_OscConfig+0x4a0>
      }
      /* Otherwise, just the calibration is allowed */
      else
      {
        /* Adjusts the Internal High Speed oscillator (HSI) calibration value.*/
        __HAL_RCC_HSI_CALIBRATIONVALUE_ADJUST(RCC_OscInitStruct->HSICalibrationValue);
 8002da0:	4b3b      	ldr	r3, [pc, #236]	; (8002e90 <HAL_RCC_OscConfig+0x270>)
 8002da2:	681b      	ldr	r3, [r3, #0]
 8002da4:	f023 02f8 	bic.w	r2, r3, #248	; 0xf8
 8002da8:	687b      	ldr	r3, [r7, #4]
 8002daa:	691b      	ldr	r3, [r3, #16]
 8002dac:	00db      	lsls	r3, r3, #3
 8002dae:	4938      	ldr	r1, [pc, #224]	; (8002e90 <HAL_RCC_OscConfig+0x270>)
 8002db0:	4313      	orrs	r3, r2
 8002db2:	600b      	str	r3, [r1, #0]
      if((__HAL_RCC_GET_FLAG(RCC_FLAG_HSIRDY) != RESET) && (RCC_OscInitStruct->HSIState != RCC_HSI_ON))
 8002db4:	e03a      	b.n	8002e2c <HAL_RCC_OscConfig+0x20c>
      }
    }
    else
    {
      /* Check the HSI State */
      if((RCC_OscInitStruct->HSIState)!= RCC_HSI_OFF)
 8002db6:	687b      	ldr	r3, [r7, #4]
 8002db8:	68db      	ldr	r3, [r3, #12]
 8002dba:	2b00      	cmp	r3, #0
 8002dbc:	d020      	beq.n	8002e00 <HAL_RCC_OscConfig+0x1e0>
      {
        /* Enable the Internal High Speed oscillator (HSI). */
        __HAL_RCC_HSI_ENABLE();
 8002dbe:	4b35      	ldr	r3, [pc, #212]	; (8002e94 <HAL_RCC_OscConfig+0x274>)
 8002dc0:	2201      	movs	r2, #1
 8002dc2:	601a      	str	r2, [r3, #0]

        /* Get Start Tick*/
        tickstart = HAL_GetTick();
 8002dc4:	f7fe fde8 	bl	8001998 <HAL_GetTick>
 8002dc8:	6138      	str	r0, [r7, #16]

        /* Wait till HSI is ready */
        while(__HAL_RCC_GET_FLAG(RCC_FLAG_HSIRDY) == RESET)
 8002dca:	e008      	b.n	8002dde <HAL_RCC_OscConfig+0x1be>
        {
          if((HAL_GetTick() - tickstart ) > HSI_TIMEOUT_VALUE)
 8002dcc:	f7fe fde4 	bl	8001998 <HAL_GetTick>
 8002dd0:	4602      	mov	r2, r0
 8002dd2:	693b      	ldr	r3, [r7, #16]
 8002dd4:	1ad3      	subs	r3, r2, r3
 8002dd6:	2b02      	cmp	r3, #2
 8002dd8:	d901      	bls.n	8002dde <HAL_RCC_OscConfig+0x1be>
          {
            return HAL_TIMEOUT;
 8002dda:	2303      	movs	r3, #3
 8002ddc:	e170      	b.n	80030c0 <HAL_RCC_OscConfig+0x4a0>
        while(__HAL_RCC_GET_FLAG(RCC_FLAG_HSIRDY) == RESET)
 8002dde:	4b2c      	ldr	r3, [pc, #176]	; (8002e90 <HAL_RCC_OscConfig+0x270>)
 8002de0:	681b      	ldr	r3, [r3, #0]
 8002de2:	f003 0302 	and.w	r3, r3, #2
 8002de6:	2b00      	cmp	r3, #0
 8002de8:	d0f0      	beq.n	8002dcc <HAL_RCC_OscConfig+0x1ac>
          }
        }

        /* Adjusts the Internal High Speed oscillator (HSI) calibration value.*/
        __HAL_RCC_HSI_CALIBRATIONVALUE_ADJUST(RCC_OscInitStruct->HSICalibrationValue);
 8002dea:	4b29      	ldr	r3, [pc, #164]	; (8002e90 <HAL_RCC_OscConfig+0x270>)
 8002dec:	681b      	ldr	r3, [r3, #0]
 8002dee:	f023 02f8 	bic.w	r2, r3, #248	; 0xf8
 8002df2:	687b      	ldr	r3, [r7, #4]
 8002df4:	691b      	ldr	r3, [r3, #16]
 8002df6:	00db      	lsls	r3, r3, #3
 8002df8:	4925      	ldr	r1, [pc, #148]	; (8002e90 <HAL_RCC_OscConfig+0x270>)
 8002dfa:	4313      	orrs	r3, r2
 8002dfc:	600b      	str	r3, [r1, #0]
 8002dfe:	e015      	b.n	8002e2c <HAL_RCC_OscConfig+0x20c>
      }
      else
      {
        /* Disable the Internal High Speed oscillator (HSI). */
        __HAL_RCC_HSI_DISABLE();
 8002e00:	4b24      	ldr	r3, [pc, #144]	; (8002e94 <HAL_RCC_OscConfig+0x274>)
 8002e02:	2200      	movs	r2, #0
 8002e04:	601a      	str	r2, [r3, #0]

        /* Get Start Tick*/
        tickstart = HAL_GetTick();
 8002e06:	f7fe fdc7 	bl	8001998 <HAL_GetTick>
 8002e0a:	6138      	str	r0, [r7, #16]

        /* Wait till HSI is ready */
        while(__HAL_RCC_GET_FLAG(RCC_FLAG_HSIRDY) != RESET)
 8002e0c:	e008      	b.n	8002e20 <HAL_RCC_OscConfig+0x200>
        {
          if((HAL_GetTick() - tickstart ) > HSI_TIMEOUT_VALUE)
 8002e0e:	f7fe fdc3 	bl	8001998 <HAL_GetTick>
 8002e12:	4602      	mov	r2, r0
 8002e14:	693b      	ldr	r3, [r7, #16]
 8002e16:	1ad3      	subs	r3, r2, r3
 8002e18:	2b02      	cmp	r3, #2
 8002e1a:	d901      	bls.n	8002e20 <HAL_RCC_OscConfig+0x200>
          {
            return HAL_TIMEOUT;
 8002e1c:	2303      	movs	r3, #3
 8002e1e:	e14f      	b.n	80030c0 <HAL_RCC_OscConfig+0x4a0>
        while(__HAL_RCC_GET_FLAG(RCC_FLAG_HSIRDY) != RESET)
 8002e20:	4b1b      	ldr	r3, [pc, #108]	; (8002e90 <HAL_RCC_OscConfig+0x270>)
 8002e22:	681b      	ldr	r3, [r3, #0]
 8002e24:	f003 0302 	and.w	r3, r3, #2
 8002e28:	2b00      	cmp	r3, #0
 8002e2a:	d1f0      	bne.n	8002e0e <HAL_RCC_OscConfig+0x1ee>
        }
      }
    }
  }
  /*------------------------------ LSI Configuration -------------------------*/
  if(((RCC_OscInitStruct->OscillatorType) & RCC_OSCILLATORTYPE_LSI) == RCC_OSCILLATORTYPE_LSI)
 8002e2c:	687b      	ldr	r3, [r7, #4]
 8002e2e:	681b      	ldr	r3, [r3, #0]
 8002e30:	f003 0308 	and.w	r3, r3, #8
 8002e34:	2b00      	cmp	r3, #0
 8002e36:	d037      	beq.n	8002ea8 <HAL_RCC_OscConfig+0x288>
  {
    /* Check the parameters */
    assert_param(IS_RCC_LSI(RCC_OscInitStruct->LSIState));

    /* Check the LSI State */
    if((RCC_OscInitStruct->LSIState)!= RCC_LSI_OFF)
 8002e38:	687b      	ldr	r3, [r7, #4]
 8002e3a:	695b      	ldr	r3, [r3, #20]
 8002e3c:	2b00      	cmp	r3, #0
 8002e3e:	d016      	beq.n	8002e6e <HAL_RCC_OscConfig+0x24e>
    {
      /* Enable the Internal Low Speed oscillator (LSI). */
      __HAL_RCC_LSI_ENABLE();
 8002e40:	4b15      	ldr	r3, [pc, #84]	; (8002e98 <HAL_RCC_OscConfig+0x278>)
 8002e42:	2201      	movs	r2, #1
 8002e44:	601a      	str	r2, [r3, #0]

      /* Get Start Tick*/
      tickstart = HAL_GetTick();
 8002e46:	f7fe fda7 	bl	8001998 <HAL_GetTick>
 8002e4a:	6138      	str	r0, [r7, #16]

      /* Wait till LSI is ready */
      while(__HAL_RCC_GET_FLAG(RCC_FLAG_LSIRDY) == RESET)
 8002e4c:	e008      	b.n	8002e60 <HAL_RCC_OscConfig+0x240>
      {
        if((HAL_GetTick() - tickstart ) > LSI_TIMEOUT_VALUE)
 8002e4e:	f7fe fda3 	bl	8001998 <HAL_GetTick>
 8002e52:	4602      	mov	r2, r0
 8002e54:	693b      	ldr	r3, [r7, #16]
 8002e56:	1ad3      	subs	r3, r2, r3
 8002e58:	2b02      	cmp	r3, #2
 8002e5a:	d901      	bls.n	8002e60 <HAL_RCC_OscConfig+0x240>
        {
          return HAL_TIMEOUT;
 8002e5c:	2303      	movs	r3, #3
 8002e5e:	e12f      	b.n	80030c0 <HAL_RCC_OscConfig+0x4a0>
      while(__HAL_RCC_GET_FLAG(RCC_FLAG_LSIRDY) == RESET)
 8002e60:	4b0b      	ldr	r3, [pc, #44]	; (8002e90 <HAL_RCC_OscConfig+0x270>)
 8002e62:	6f5b      	ldr	r3, [r3, #116]	; 0x74
 8002e64:	f003 0302 	and.w	r3, r3, #2
 8002e68:	2b00      	cmp	r3, #0
 8002e6a:	d0f0      	beq.n	8002e4e <HAL_RCC_OscConfig+0x22e>
 8002e6c:	e01c      	b.n	8002ea8 <HAL_RCC_OscConfig+0x288>
      }
    }
    else
    {
      /* Disable the Internal Low Speed oscillator (LSI). */
      __HAL_RCC_LSI_DISABLE();
 8002e6e:	4b0a      	ldr	r3, [pc, #40]	; (8002e98 <HAL_RCC_OscConfig+0x278>)
 8002e70:	2200      	movs	r2, #0
 8002e72:	601a      	str	r2, [r3, #0]

      /* Get Start Tick*/
      tickstart = HAL_GetTick();
 8002e74:	f7fe fd90 	bl	8001998 <HAL_GetTick>
 8002e78:	6138      	str	r0, [r7, #16]

      /* Wait till LSI is ready */
      while(__HAL_RCC_GET_FLAG(RCC_FLAG_LSIRDY) != RESET)
 8002e7a:	e00f      	b.n	8002e9c <HAL_RCC_OscConfig+0x27c>
      {
        if((HAL_GetTick() - tickstart ) > LSI_TIMEOUT_VALUE)
 8002e7c:	f7fe fd8c 	bl	8001998 <HAL_GetTick>
 8002e80:	4602      	mov	r2, r0
 8002e82:	693b      	ldr	r3, [r7, #16]
 8002e84:	1ad3      	subs	r3, r2, r3
 8002e86:	2b02      	cmp	r3, #2
 8002e88:	d908      	bls.n	8002e9c <HAL_RCC_OscConfig+0x27c>
        {
          return HAL_TIMEOUT;
 8002e8a:	2303      	movs	r3, #3
 8002e8c:	e118      	b.n	80030c0 <HAL_RCC_OscConfig+0x4a0>
 8002e8e:	bf00      	nop
 8002e90:	40023800 	.word	0x40023800
 8002e94:	42470000 	.word	0x42470000
 8002e98:	42470e80 	.word	0x42470e80
      while(__HAL_RCC_GET_FLAG(RCC_FLAG_LSIRDY) != RESET)
 8002e9c:	4b8a      	ldr	r3, [pc, #552]	; (80030c8 <HAL_RCC_OscConfig+0x4a8>)
 8002e9e:	6f5b      	ldr	r3, [r3, #116]	; 0x74
 8002ea0:	f003 0302 	and.w	r3, r3, #2
 8002ea4:	2b00      	cmp	r3, #0
 8002ea6:	d1e9      	bne.n	8002e7c <HAL_RCC_OscConfig+0x25c>
        }
      }
    }
  }
  /*------------------------------ LSE Configuration -------------------------*/
  if(((RCC_OscInitStruct->OscillatorType) & RCC_OSCILLATORTYPE_LSE) == RCC_OSCILLATORTYPE_LSE)
 8002ea8:	687b      	ldr	r3, [r7, #4]
 8002eaa:	681b      	ldr	r3, [r3, #0]
 8002eac:	f003 0304 	and.w	r3, r3, #4
 8002eb0:	2b00      	cmp	r3, #0
 8002eb2:	f000 8097 	beq.w	8002fe4 <HAL_RCC_OscConfig+0x3c4>
  {
    FlagStatus       pwrclkchanged = RESET;
 8002eb6:	2300      	movs	r3, #0
 8002eb8:	75fb      	strb	r3, [r7, #23]
    /* Check the parameters */
    assert_param(IS_RCC_LSE(RCC_OscInitStruct->LSEState));

    /* Update LSE configuration in Backup Domain control register    */
    /* Requires to enable write access to Backup Domain of necessary */
    if(__HAL_RCC_PWR_IS_CLK_DISABLED())
 8002eba:	4b83      	ldr	r3, [pc, #524]	; (80030c8 <HAL_RCC_OscConfig+0x4a8>)
 8002ebc:	6c1b      	ldr	r3, [r3, #64]	; 0x40
 8002ebe:	f003 5380 	and.w	r3, r3, #268435456	; 0x10000000
 8002ec2:	2b00      	cmp	r3, #0
 8002ec4:	d10f      	bne.n	8002ee6 <HAL_RCC_OscConfig+0x2c6>
    {
      __HAL_RCC_PWR_CLK_ENABLE();
 8002ec6:	2300      	movs	r3, #0
 8002ec8:	60fb      	str	r3, [r7, #12]
 8002eca:	4b7f      	ldr	r3, [pc, #508]	; (80030c8 <HAL_RCC_OscConfig+0x4a8>)
 8002ecc:	6c1b      	ldr	r3, [r3, #64]	; 0x40
 8002ece:	4a7e      	ldr	r2, [pc, #504]	; (80030c8 <HAL_RCC_OscConfig+0x4a8>)
 8002ed0:	f043 5380 	orr.w	r3, r3, #268435456	; 0x10000000
 8002ed4:	6413      	str	r3, [r2, #64]	; 0x40
 8002ed6:	4b7c      	ldr	r3, [pc, #496]	; (80030c8 <HAL_RCC_OscConfig+0x4a8>)
 8002ed8:	6c1b      	ldr	r3, [r3, #64]	; 0x40
 8002eda:	f003 5380 	and.w	r3, r3, #268435456	; 0x10000000
 8002ede:	60fb      	str	r3, [r7, #12]
 8002ee0:	68fb      	ldr	r3, [r7, #12]
      pwrclkchanged = SET;
 8002ee2:	2301      	movs	r3, #1
 8002ee4:	75fb      	strb	r3, [r7, #23]
    }

    if(HAL_IS_BIT_CLR(PWR->CR, PWR_CR_DBP))
 8002ee6:	4b79      	ldr	r3, [pc, #484]	; (80030cc <HAL_RCC_OscConfig+0x4ac>)
 8002ee8:	681b      	ldr	r3, [r3, #0]
 8002eea:	f403 7380 	and.w	r3, r3, #256	; 0x100
 8002eee:	2b00      	cmp	r3, #0
 8002ef0:	d118      	bne.n	8002f24 <HAL_RCC_OscConfig+0x304>
    {
      /* Enable write access to Backup domain */
      SET_BIT(PWR->CR, PWR_CR_DBP);
 8002ef2:	4b76      	ldr	r3, [pc, #472]	; (80030cc <HAL_RCC_OscConfig+0x4ac>)
 8002ef4:	681b      	ldr	r3, [r3, #0]
 8002ef6:	4a75      	ldr	r2, [pc, #468]	; (80030cc <HAL_RCC_OscConfig+0x4ac>)
 8002ef8:	f443 7380 	orr.w	r3, r3, #256	; 0x100
 8002efc:	6013      	str	r3, [r2, #0]

      /* Wait for Backup domain Write protection disable */
      tickstart = HAL_GetTick();
 8002efe:	f7fe fd4b 	bl	8001998 <HAL_GetTick>
 8002f02:	6138      	str	r0, [r7, #16]

      while(HAL_IS_BIT_CLR(PWR->CR, PWR_CR_DBP))
 8002f04:	e008      	b.n	8002f18 <HAL_RCC_OscConfig+0x2f8>
      {
        if((HAL_GetTick() - tickstart) > RCC_DBP_TIMEOUT_VALUE)
 8002f06:	f7fe fd47 	bl	8001998 <HAL_GetTick>
 8002f0a:	4602      	mov	r2, r0
 8002f0c:	693b      	ldr	r3, [r7, #16]
 8002f0e:	1ad3      	subs	r3, r2, r3
 8002f10:	2b02      	cmp	r3, #2
 8002f12:	d901      	bls.n	8002f18 <HAL_RCC_OscConfig+0x2f8>
        {
          return HAL_TIMEOUT;
 8002f14:	2303      	movs	r3, #3
 8002f16:	e0d3      	b.n	80030c0 <HAL_RCC_OscConfig+0x4a0>
      while(HAL_IS_BIT_CLR(PWR->CR, PWR_CR_DBP))
 8002f18:	4b6c      	ldr	r3, [pc, #432]	; (80030cc <HAL_RCC_OscConfig+0x4ac>)
 8002f1a:	681b      	ldr	r3, [r3, #0]
 8002f1c:	f403 7380 	and.w	r3, r3, #256	; 0x100
 8002f20:	2b00      	cmp	r3, #0
 8002f22:	d0f0      	beq.n	8002f06 <HAL_RCC_OscConfig+0x2e6>
        }
      }
    }

    /* Set the new LSE configuration -----------------------------------------*/
    __HAL_RCC_LSE_CONFIG(RCC_OscInitStruct->LSEState);
 8002f24:	687b      	ldr	r3, [r7, #4]
 8002f26:	689b      	ldr	r3, [r3, #8]
 8002f28:	2b01      	cmp	r3, #1
 8002f2a:	d106      	bne.n	8002f3a <HAL_RCC_OscConfig+0x31a>
 8002f2c:	4b66      	ldr	r3, [pc, #408]	; (80030c8 <HAL_RCC_OscConfig+0x4a8>)
 8002f2e:	6f1b      	ldr	r3, [r3, #112]	; 0x70
 8002f30:	4a65      	ldr	r2, [pc, #404]	; (80030c8 <HAL_RCC_OscConfig+0x4a8>)
 8002f32:	f043 0301 	orr.w	r3, r3, #1
 8002f36:	6713      	str	r3, [r2, #112]	; 0x70
 8002f38:	e01c      	b.n	8002f74 <HAL_RCC_OscConfig+0x354>
 8002f3a:	687b      	ldr	r3, [r7, #4]
 8002f3c:	689b      	ldr	r3, [r3, #8]
 8002f3e:	2b05      	cmp	r3, #5
 8002f40:	d10c      	bne.n	8002f5c <HAL_RCC_OscConfig+0x33c>
 8002f42:	4b61      	ldr	r3, [pc, #388]	; (80030c8 <HAL_RCC_OscConfig+0x4a8>)
 8002f44:	6f1b      	ldr	r3, [r3, #112]	; 0x70
 8002f46:	4a60      	ldr	r2, [pc, #384]	; (80030c8 <HAL_RCC_OscConfig+0x4a8>)
 8002f48:	f043 0304 	orr.w	r3, r3, #4
 8002f4c:	6713      	str	r3, [r2, #112]	; 0x70
 8002f4e:	4b5e      	ldr	r3, [pc, #376]	; (80030c8 <HAL_RCC_OscConfig+0x4a8>)
 8002f50:	6f1b      	ldr	r3, [r3, #112]	; 0x70
 8002f52:	4a5d      	ldr	r2, [pc, #372]	; (80030c8 <HAL_RCC_OscConfig+0x4a8>)
 8002f54:	f043 0301 	orr.w	r3, r3, #1
 8002f58:	6713      	str	r3, [r2, #112]	; 0x70
 8002f5a:	e00b      	b.n	8002f74 <HAL_RCC_OscConfig+0x354>
 8002f5c:	4b5a      	ldr	r3, [pc, #360]	; (80030c8 <HAL_RCC_OscConfig+0x4a8>)
 8002f5e:	6f1b      	ldr	r3, [r3, #112]	; 0x70
 8002f60:	4a59      	ldr	r2, [pc, #356]	; (80030c8 <HAL_RCC_OscConfig+0x4a8>)
 8002f62:	f023 0301 	bic.w	r3, r3, #1
 8002f66:	6713      	str	r3, [r2, #112]	; 0x70
 8002f68:	4b57      	ldr	r3, [pc, #348]	; (80030c8 <HAL_RCC_OscConfig+0x4a8>)
 8002f6a:	6f1b      	ldr	r3, [r3, #112]	; 0x70
 8002f6c:	4a56      	ldr	r2, [pc, #344]	; (80030c8 <HAL_RCC_OscConfig+0x4a8>)
 8002f6e:	f023 0304 	bic.w	r3, r3, #4
 8002f72:	6713      	str	r3, [r2, #112]	; 0x70
    /* Check the LSE State */
    if((RCC_OscInitStruct->LSEState) != RCC_LSE_OFF)
 8002f74:	687b      	ldr	r3, [r7, #4]
 8002f76:	689b      	ldr	r3, [r3, #8]
 8002f78:	2b00      	cmp	r3, #0
 8002f7a:	d015      	beq.n	8002fa8 <HAL_RCC_OscConfig+0x388>
    {
      /* Get Start Tick*/
      tickstart = HAL_GetTick();
 8002f7c:	f7fe fd0c 	bl	8001998 <HAL_GetTick>
 8002f80:	6138      	str	r0, [r7, #16]

      /* Wait till LSE is ready */
      while(__HAL_RCC_GET_FLAG(RCC_FLAG_LSERDY) == RESET)
 8002f82:	e00a      	b.n	8002f9a <HAL_RCC_OscConfig+0x37a>
      {
        if((HAL_GetTick() - tickstart ) > RCC_LSE_TIMEOUT_VALUE)
 8002f84:	f7fe fd08 	bl	8001998 <HAL_GetTick>
 8002f88:	4602      	mov	r2, r0
 8002f8a:	693b      	ldr	r3, [r7, #16]
 8002f8c:	1ad3      	subs	r3, r2, r3
 8002f8e:	f241 3288 	movw	r2, #5000	; 0x1388
 8002f92:	4293      	cmp	r3, r2
 8002f94:	d901      	bls.n	8002f9a <HAL_RCC_OscConfig+0x37a>
        {
          return HAL_TIMEOUT;
 8002f96:	2303      	movs	r3, #3
 8002f98:	e092      	b.n	80030c0 <HAL_RCC_OscConfig+0x4a0>
      while(__HAL_RCC_GET_FLAG(RCC_FLAG_LSERDY) == RESET)
 8002f9a:	4b4b      	ldr	r3, [pc, #300]	; (80030c8 <HAL_RCC_OscConfig+0x4a8>)
 8002f9c:	6f1b      	ldr	r3, [r3, #112]	; 0x70
 8002f9e:	f003 0302 	and.w	r3, r3, #2
 8002fa2:	2b00      	cmp	r3, #0
 8002fa4:	d0ee      	beq.n	8002f84 <HAL_RCC_OscConfig+0x364>
 8002fa6:	e014      	b.n	8002fd2 <HAL_RCC_OscConfig+0x3b2>
      }
    }
    else
    {
      /* Get Start Tick*/
      tickstart = HAL_GetTick();
 8002fa8:	f7fe fcf6 	bl	8001998 <HAL_GetTick>
 8002fac:	6138      	str	r0, [r7, #16]

      /* Wait till LSE is ready */
      while(__HAL_RCC_GET_FLAG(RCC_FLAG_LSERDY) != RESET)
 8002fae:	e00a      	b.n	8002fc6 <HAL_RCC_OscConfig+0x3a6>
      {
        if((HAL_GetTick() - tickstart ) > RCC_LSE_TIMEOUT_VALUE)
 8002fb0:	f7fe fcf2 	bl	8001998 <HAL_GetTick>
 8002fb4:	4602      	mov	r2, r0
 8002fb6:	693b      	ldr	r3, [r7, #16]
 8002fb8:	1ad3      	subs	r3, r2, r3
 8002fba:	f241 3288 	movw	r2, #5000	; 0x1388
 8002fbe:	4293      	cmp	r3, r2
 8002fc0:	d901      	bls.n	8002fc6 <HAL_RCC_OscConfig+0x3a6>
        {
          return HAL_TIMEOUT;
 8002fc2:	2303      	movs	r3, #3
 8002fc4:	e07c      	b.n	80030c0 <HAL_RCC_OscConfig+0x4a0>
      while(__HAL_RCC_GET_FLAG(RCC_FLAG_LSERDY) != RESET)
 8002fc6:	4b40      	ldr	r3, [pc, #256]	; (80030c8 <HAL_RCC_OscConfig+0x4a8>)
 8002fc8:	6f1b      	ldr	r3, [r3, #112]	; 0x70
 8002fca:	f003 0302 	and.w	r3, r3, #2
 8002fce:	2b00      	cmp	r3, #0
 8002fd0:	d1ee      	bne.n	8002fb0 <HAL_RCC_OscConfig+0x390>
        }
      }
    }

    /* Restore clock configuration if changed */
    if(pwrclkchanged == SET)
 8002fd2:	7dfb      	ldrb	r3, [r7, #23]
 8002fd4:	2b01      	cmp	r3, #1
 8002fd6:	d105      	bne.n	8002fe4 <HAL_RCC_OscConfig+0x3c4>
    {
      __HAL_RCC_PWR_CLK_DISABLE();
 8002fd8:	4b3b      	ldr	r3, [pc, #236]	; (80030c8 <HAL_RCC_OscConfig+0x4a8>)
 8002fda:	6c1b      	ldr	r3, [r3, #64]	; 0x40
 8002fdc:	4a3a      	ldr	r2, [pc, #232]	; (80030c8 <HAL_RCC_OscConfig+0x4a8>)
 8002fde:	f023 5380 	bic.w	r3, r3, #268435456	; 0x10000000
 8002fe2:	6413      	str	r3, [r2, #64]	; 0x40
    }
  }
  /*-------------------------------- PLL Configuration -----------------------*/
  /* Check the parameters */
  assert_param(IS_RCC_PLL(RCC_OscInitStruct->PLL.PLLState));
  if ((RCC_OscInitStruct->PLL.PLLState) != RCC_PLL_NONE)
 8002fe4:	687b      	ldr	r3, [r7, #4]
 8002fe6:	699b      	ldr	r3, [r3, #24]
 8002fe8:	2b00      	cmp	r3, #0
 8002fea:	d068      	beq.n	80030be <HAL_RCC_OscConfig+0x49e>
  {
    /* Check if the PLL is used as system clock or not */
    if(__HAL_RCC_GET_SYSCLK_SOURCE() != RCC_CFGR_SWS_PLL)
 8002fec:	4b36      	ldr	r3, [pc, #216]	; (80030c8 <HAL_RCC_OscConfig+0x4a8>)
 8002fee:	689b      	ldr	r3, [r3, #8]
 8002ff0:	f003 030c 	and.w	r3, r3, #12
 8002ff4:	2b08      	cmp	r3, #8
 8002ff6:	d060      	beq.n	80030ba <HAL_RCC_OscConfig+0x49a>
    {
      if((RCC_OscInitStruct->PLL.PLLState) == RCC_PLL_ON)
 8002ff8:	687b      	ldr	r3, [r7, #4]
 8002ffa:	699b      	ldr	r3, [r3, #24]
 8002ffc:	2b02      	cmp	r3, #2
 8002ffe:	d145      	bne.n	800308c <HAL_RCC_OscConfig+0x46c>
        assert_param(IS_RCC_PLLP_VALUE(RCC_OscInitStruct->PLL.PLLP));
        assert_param(IS_RCC_PLLQ_VALUE(RCC_OscInitStruct->PLL.PLLQ));
        assert_param(IS_RCC_PLLR_VALUE(RCC_OscInitStruct->PLL.PLLR));

        /* Disable the main PLL. */
        __HAL_RCC_PLL_DISABLE();
 8003000:	4b33      	ldr	r3, [pc, #204]	; (80030d0 <HAL_RCC_OscConfig+0x4b0>)
 8003002:	2200      	movs	r2, #0
 8003004:	601a      	str	r2, [r3, #0]

        /* Get Start Tick*/
        tickstart = HAL_GetTick();
 8003006:	f7fe fcc7 	bl	8001998 <HAL_GetTick>
 800300a:	6138      	str	r0, [r7, #16]

        /* Wait till PLL is ready */
        while(__HAL_RCC_GET_FLAG(RCC_FLAG_PLLRDY) != RESET)
 800300c:	e008      	b.n	8003020 <HAL_RCC_OscConfig+0x400>
        {
          if((HAL_GetTick() - tickstart ) > PLL_TIMEOUT_VALUE)
 800300e:	f7fe fcc3 	bl	8001998 <HAL_GetTick>
 8003012:	4602      	mov	r2, r0
 8003014:	693b      	ldr	r3, [r7, #16]
 8003016:	1ad3      	subs	r3, r2, r3
 8003018:	2b02      	cmp	r3, #2
 800301a:	d901      	bls.n	8003020 <HAL_RCC_OscConfig+0x400>
          {
            return HAL_TIMEOUT;
 800301c:	2303      	movs	r3, #3
 800301e:	e04f      	b.n	80030c0 <HAL_RCC_OscConfig+0x4a0>
        while(__HAL_RCC_GET_FLAG(RCC_FLAG_PLLRDY) != RESET)
 8003020:	4b29      	ldr	r3, [pc, #164]	; (80030c8 <HAL_RCC_OscConfig+0x4a8>)
 8003022:	681b      	ldr	r3, [r3, #0]
 8003024:	f003 7300 	and.w	r3, r3, #33554432	; 0x2000000
 8003028:	2b00      	cmp	r3, #0
 800302a:	d1f0      	bne.n	800300e <HAL_RCC_OscConfig+0x3ee>
          }
        }

        /* Configure the main PLL clock source, multiplication and division factors. */
        __HAL_RCC_PLL_CONFIG(RCC_OscInitStruct->PLL.PLLSource,
 800302c:	687b      	ldr	r3, [r7, #4]
 800302e:	69da      	ldr	r2, [r3, #28]
 8003030:	687b      	ldr	r3, [r7, #4]
 8003032:	6a1b      	ldr	r3, [r3, #32]
 8003034:	431a      	orrs	r2, r3
 8003036:	687b      	ldr	r3, [r7, #4]
 8003038:	6a5b      	ldr	r3, [r3, #36]	; 0x24
 800303a:	019b      	lsls	r3, r3, #6
 800303c:	431a      	orrs	r2, r3
 800303e:	687b      	ldr	r3, [r7, #4]
 8003040:	6a9b      	ldr	r3, [r3, #40]	; 0x28
 8003042:	085b      	lsrs	r3, r3, #1
 8003044:	3b01      	subs	r3, #1
 8003046:	041b      	lsls	r3, r3, #16
 8003048:	431a      	orrs	r2, r3
 800304a:	687b      	ldr	r3, [r7, #4]
 800304c:	6adb      	ldr	r3, [r3, #44]	; 0x2c
 800304e:	061b      	lsls	r3, r3, #24
 8003050:	431a      	orrs	r2, r3
 8003052:	687b      	ldr	r3, [r7, #4]
 8003054:	6b1b      	ldr	r3, [r3, #48]	; 0x30
 8003056:	071b      	lsls	r3, r3, #28
 8003058:	491b      	ldr	r1, [pc, #108]	; (80030c8 <HAL_RCC_OscConfig+0x4a8>)
 800305a:	4313      	orrs	r3, r2
 800305c:	604b      	str	r3, [r1, #4]
                             RCC_OscInitStruct->PLL.PLLP,
                             RCC_OscInitStruct->PLL.PLLQ,
                             RCC_OscInitStruct->PLL.PLLR);

        /* Enable the main PLL. */
        __HAL_RCC_PLL_ENABLE();
 800305e:	4b1c      	ldr	r3, [pc, #112]	; (80030d0 <HAL_RCC_OscConfig+0x4b0>)
 8003060:	2201      	movs	r2, #1
 8003062:	601a      	str	r2, [r3, #0]

        /* Get Start Tick*/
        tickstart = HAL_GetTick();
 8003064:	f7fe fc98 	bl	8001998 <HAL_GetTick>
 8003068:	6138      	str	r0, [r7, #16]

        /* Wait till PLL is ready */
        while(__HAL_RCC_GET_FLAG(RCC_FLAG_PLLRDY) == RESET)
 800306a:	e008      	b.n	800307e <HAL_RCC_OscConfig+0x45e>
        {
          if((HAL_GetTick() - tickstart ) > PLL_TIMEOUT_VALUE)
 800306c:	f7fe fc94 	bl	8001998 <HAL_GetTick>
 8003070:	4602      	mov	r2, r0
 8003072:	693b      	ldr	r3, [r7, #16]
 8003074:	1ad3      	subs	r3, r2, r3
 8003076:	2b02      	cmp	r3, #2
 8003078:	d901      	bls.n	800307e <HAL_RCC_OscConfig+0x45e>
          {
            return HAL_TIMEOUT;
 800307a:	2303      	movs	r3, #3
 800307c:	e020      	b.n	80030c0 <HAL_RCC_OscConfig+0x4a0>
        while(__HAL_RCC_GET_FLAG(RCC_FLAG_PLLRDY) == RESET)
 800307e:	4b12      	ldr	r3, [pc, #72]	; (80030c8 <HAL_RCC_OscConfig+0x4a8>)
 8003080:	681b      	ldr	r3, [r3, #0]
 8003082:	f003 7300 	and.w	r3, r3, #33554432	; 0x2000000
 8003086:	2b00      	cmp	r3, #0
 8003088:	d0f0      	beq.n	800306c <HAL_RCC_OscConfig+0x44c>
 800308a:	e018      	b.n	80030be <HAL_RCC_OscConfig+0x49e>
        }
      }
      else
      {
        /* Disable the main PLL. */
        __HAL_RCC_PLL_DISABLE();
 800308c:	4b10      	ldr	r3, [pc, #64]	; (80030d0 <HAL_RCC_OscConfig+0x4b0>)
 800308e:	2200      	movs	r2, #0
 8003090:	601a      	str	r2, [r3, #0]

        /* Get Start Tick*/
        tickstart = HAL_GetTick();
 8003092:	f7fe fc81 	bl	8001998 <HAL_GetTick>
 8003096:	6138      	str	r0, [r7, #16]

        /* Wait till PLL is ready */
        while(__HAL_RCC_GET_FLAG(RCC_FLAG_PLLRDY) != RESET)
 8003098:	e008      	b.n	80030ac <HAL_RCC_OscConfig+0x48c>
        {
          if((HAL_GetTick() - tickstart ) > PLL_TIMEOUT_VALUE)
 800309a:	f7fe fc7d 	bl	8001998 <HAL_GetTick>
 800309e:	4602      	mov	r2, r0
 80030a0:	693b      	ldr	r3, [r7, #16]
 80030a2:	1ad3      	subs	r3, r2, r3
 80030a4:	2b02      	cmp	r3, #2
 80030a6:	d901      	bls.n	80030ac <HAL_RCC_OscConfig+0x48c>
          {
            return HAL_TIMEOUT;
 80030a8:	2303      	movs	r3, #3
 80030aa:	e009      	b.n	80030c0 <HAL_RCC_OscConfig+0x4a0>
        while(__HAL_RCC_GET_FLAG(RCC_FLAG_PLLRDY) != RESET)
 80030ac:	4b06      	ldr	r3, [pc, #24]	; (80030c8 <HAL_RCC_OscConfig+0x4a8>)
 80030ae:	681b      	ldr	r3, [r3, #0]
 80030b0:	f003 7300 	and.w	r3, r3, #33554432	; 0x2000000
 80030b4:	2b00      	cmp	r3, #0
 80030b6:	d1f0      	bne.n	800309a <HAL_RCC_OscConfig+0x47a>
 80030b8:	e001      	b.n	80030be <HAL_RCC_OscConfig+0x49e>
        }
      }
    }
    else
    {
      return HAL_ERROR;
 80030ba:	2301      	movs	r3, #1
 80030bc:	e000      	b.n	80030c0 <HAL_RCC_OscConfig+0x4a0>
    }
  }
  return HAL_OK;
 80030be:	2300      	movs	r3, #0
}
 80030c0:	4618      	mov	r0, r3
 80030c2:	3718      	adds	r7, #24
 80030c4:	46bd      	mov	sp, r7
 80030c6:	bd80      	pop	{r7, pc}
 80030c8:	40023800 	.word	0x40023800
 80030cc:	40007000 	.word	0x40007000
 80030d0:	42470060 	.word	0x42470060

080030d4 <HAL_UART_Init>:
  * @param  huart  Pointer to a UART_HandleTypeDef structure that contains
  *                the configuration information for the specified UART module.
  * @retval HAL status
  */
HAL_StatusTypeDef HAL_UART_Init(UART_HandleTypeDef *huart)
{
 80030d4:	b580      	push	{r7, lr}
 80030d6:	b082      	sub	sp, #8
 80030d8:	af00      	add	r7, sp, #0
 80030da:	6078      	str	r0, [r7, #4]
  /* Check the UART handle allocation */
  if (huart == NULL)
 80030dc:	687b      	ldr	r3, [r7, #4]
 80030de:	2b00      	cmp	r3, #0
 80030e0:	d101      	bne.n	80030e6 <HAL_UART_Init+0x12>
  {
    return HAL_ERROR;
 80030e2:	2301      	movs	r3, #1
 80030e4:	e03f      	b.n	8003166 <HAL_UART_Init+0x92>
    assert_param(IS_UART_INSTANCE(huart->Instance));
  }
  assert_param(IS_UART_WORD_LENGTH(huart->Init.WordLength));
  assert_param(IS_UART_OVERSAMPLING(huart->Init.OverSampling));

  if (huart->gState == HAL_UART_STATE_RESET)
 80030e6:	687b      	ldr	r3, [r7, #4]
 80030e8:	f893 3039 	ldrb.w	r3, [r3, #57]	; 0x39
 80030ec:	b2db      	uxtb	r3, r3
 80030ee:	2b00      	cmp	r3, #0
 80030f0:	d106      	bne.n	8003100 <HAL_UART_Init+0x2c>
  {
    /* Allocate lock resource and initialize it */
    huart->Lock = HAL_UNLOCKED;
 80030f2:	687b      	ldr	r3, [r7, #4]
 80030f4:	2200      	movs	r2, #0
 80030f6:	f883 2038 	strb.w	r2, [r3, #56]	; 0x38

    /* Init the low level hardware */
    huart->MspInitCallback(huart);
#else
    /* Init the low level hardware : GPIO, CLOCK */
    HAL_UART_MspInit(huart);
 80030fa:	6878      	ldr	r0, [r7, #4]
 80030fc:	f7fe fafa 	bl	80016f4 <HAL_UART_MspInit>
#endif /* (USE_HAL_UART_REGISTER_CALLBACKS) */
  }

  huart->gState = HAL_UART_STATE_BUSY;
 8003100:	687b      	ldr	r3, [r7, #4]
 8003102:	2224      	movs	r2, #36	; 0x24
 8003104:	f883 2039 	strb.w	r2, [r3, #57]	; 0x39

  /* Disable the peripheral */
  __HAL_UART_DISABLE(huart);
 8003108:	687b      	ldr	r3, [r7, #4]
 800310a:	681b      	ldr	r3, [r3, #0]
 800310c:	68da      	ldr	r2, [r3, #12]
 800310e:	687b      	ldr	r3, [r7, #4]
 8003110:	681b      	ldr	r3, [r3, #0]
 8003112:	f422 5200 	bic.w	r2, r2, #8192	; 0x2000
 8003116:	60da      	str	r2, [r3, #12]

  /* Set the UART Communication parameters */
  UART_SetConfig(huart);
 8003118:	6878      	ldr	r0, [r7, #4]
 800311a:	f000 f90b 	bl	8003334 <UART_SetConfig>

  /* In asynchronous mode, the following bits must be kept cleared:
     - LINEN and CLKEN bits in the USART_CR2 register,
     - SCEN, HDSEL and IREN  bits in the USART_CR3 register.*/
  CLEAR_BIT(huart->Instance->CR2, (USART_CR2_LINEN | USART_CR2_CLKEN));
 800311e:	687b      	ldr	r3, [r7, #4]
 8003120:	681b      	ldr	r3, [r3, #0]
 8003122:	691a      	ldr	r2, [r3, #16]
 8003124:	687b      	ldr	r3, [r7, #4]
 8003126:	681b      	ldr	r3, [r3, #0]
 8003128:	f422 4290 	bic.w	r2, r2, #18432	; 0x4800
 800312c:	611a      	str	r2, [r3, #16]
  CLEAR_BIT(huart->Instance->CR3, (USART_CR3_SCEN | USART_CR3_HDSEL | USART_CR3_IREN));
 800312e:	687b      	ldr	r3, [r7, #4]
 8003130:	681b      	ldr	r3, [r3, #0]
 8003132:	695a      	ldr	r2, [r3, #20]
 8003134:	687b      	ldr	r3, [r7, #4]
 8003136:	681b      	ldr	r3, [r3, #0]
 8003138:	f022 022a 	bic.w	r2, r2, #42	; 0x2a
 800313c:	615a      	str	r2, [r3, #20]

  /* Enable the peripheral */
  __HAL_UART_ENABLE(huart);
 800313e:	687b      	ldr	r3, [r7, #4]
 8003140:	681b      	ldr	r3, [r3, #0]
 8003142:	68da      	ldr	r2, [r3, #12]
 8003144:	687b      	ldr	r3, [r7, #4]
 8003146:	681b      	ldr	r3, [r3, #0]
 8003148:	f442 5200 	orr.w	r2, r2, #8192	; 0x2000
 800314c:	60da      	str	r2, [r3, #12]

  /* Initialize the UART state */
  huart->ErrorCode = HAL_UART_ERROR_NONE;
 800314e:	687b      	ldr	r3, [r7, #4]
 8003150:	2200      	movs	r2, #0
 8003152:	63da      	str	r2, [r3, #60]	; 0x3c
  huart->gState = HAL_UART_STATE_READY;
 8003154:	687b      	ldr	r3, [r7, #4]
 8003156:	2220      	movs	r2, #32
 8003158:	f883 2039 	strb.w	r2, [r3, #57]	; 0x39
  huart->RxState = HAL_UART_STATE_READY;
 800315c:	687b      	ldr	r3, [r7, #4]
 800315e:	2220      	movs	r2, #32
 8003160:	f883 203a 	strb.w	r2, [r3, #58]	; 0x3a

  return HAL_OK;
 8003164:	2300      	movs	r3, #0
}
 8003166:	4618      	mov	r0, r3
 8003168:	3708      	adds	r7, #8
 800316a:	46bd      	mov	sp, r7
 800316c:	bd80      	pop	{r7, pc}

0800316e <HAL_UART_Transmit>:
  * @param  Size  Amount of data elements (u8 or u16) to be sent
  * @param  Timeout Timeout duration
  * @retval HAL status
  */
HAL_StatusTypeDef HAL_UART_Transmit(UART_HandleTypeDef *huart, uint8_t *pData, uint16_t Size, uint32_t Timeout)
{
 800316e:	b580      	push	{r7, lr}
 8003170:	b088      	sub	sp, #32
 8003172:	af02      	add	r7, sp, #8
 8003174:	60f8      	str	r0, [r7, #12]
 8003176:	60b9      	str	r1, [r7, #8]
 8003178:	603b      	str	r3, [r7, #0]
 800317a:	4613      	mov	r3, r2
 800317c:	80fb      	strh	r3, [r7, #6]
  uint16_t *tmp;
  uint32_t tickstart = 0U;
 800317e:	2300      	movs	r3, #0
 8003180:	617b      	str	r3, [r7, #20]

  /* Check that a Tx process is not already ongoing */
  if (huart->gState == HAL_UART_STATE_READY)
 8003182:	68fb      	ldr	r3, [r7, #12]
 8003184:	f893 3039 	ldrb.w	r3, [r3, #57]	; 0x39
 8003188:	b2db      	uxtb	r3, r3
 800318a:	2b20      	cmp	r3, #32
 800318c:	f040 8083 	bne.w	8003296 <HAL_UART_Transmit+0x128>
  {
    if ((pData == NULL) || (Size == 0U))
 8003190:	68bb      	ldr	r3, [r7, #8]
 8003192:	2b00      	cmp	r3, #0
 8003194:	d002      	beq.n	800319c <HAL_UART_Transmit+0x2e>
 8003196:	88fb      	ldrh	r3, [r7, #6]
 8003198:	2b00      	cmp	r3, #0
 800319a:	d101      	bne.n	80031a0 <HAL_UART_Transmit+0x32>
    {
      return  HAL_ERROR;
 800319c:	2301      	movs	r3, #1
 800319e:	e07b      	b.n	8003298 <HAL_UART_Transmit+0x12a>
    }

    /* Process Locked */
    __HAL_LOCK(huart);
 80031a0:	68fb      	ldr	r3, [r7, #12]
 80031a2:	f893 3038 	ldrb.w	r3, [r3, #56]	; 0x38
 80031a6:	2b01      	cmp	r3, #1
 80031a8:	d101      	bne.n	80031ae <HAL_UART_Transmit+0x40>
 80031aa:	2302      	movs	r3, #2
 80031ac:	e074      	b.n	8003298 <HAL_UART_Transmit+0x12a>
 80031ae:	68fb      	ldr	r3, [r7, #12]
 80031b0:	2201      	movs	r2, #1
 80031b2:	f883 2038 	strb.w	r2, [r3, #56]	; 0x38

    huart->ErrorCode = HAL_UART_ERROR_NONE;
 80031b6:	68fb      	ldr	r3, [r7, #12]
 80031b8:	2200      	movs	r2, #0
 80031ba:	63da      	str	r2, [r3, #60]	; 0x3c
    huart->gState = HAL_UART_STATE_BUSY_TX;
 80031bc:	68fb      	ldr	r3, [r7, #12]
 80031be:	2221      	movs	r2, #33	; 0x21
 80031c0:	f883 2039 	strb.w	r2, [r3, #57]	; 0x39

    /* Init tickstart for timeout managment */
    tickstart = HAL_GetTick();
 80031c4:	f7fe fbe8 	bl	8001998 <HAL_GetTick>
 80031c8:	6178      	str	r0, [r7, #20]

    huart->TxXferSize = Size;
 80031ca:	68fb      	ldr	r3, [r7, #12]
 80031cc:	88fa      	ldrh	r2, [r7, #6]
 80031ce:	849a      	strh	r2, [r3, #36]	; 0x24
    huart->TxXferCount = Size;
 80031d0:	68fb      	ldr	r3, [r7, #12]
 80031d2:	88fa      	ldrh	r2, [r7, #6]
 80031d4:	84da      	strh	r2, [r3, #38]	; 0x26

    /* Process Unlocked */
    __HAL_UNLOCK(huart);
 80031d6:	68fb      	ldr	r3, [r7, #12]
 80031d8:	2200      	movs	r2, #0
 80031da:	f883 2038 	strb.w	r2, [r3, #56]	; 0x38

    while (huart->TxXferCount > 0U)
 80031de:	e042      	b.n	8003266 <HAL_UART_Transmit+0xf8>
    {
      huart->TxXferCount--;
 80031e0:	68fb      	ldr	r3, [r7, #12]
 80031e2:	8cdb      	ldrh	r3, [r3, #38]	; 0x26
 80031e4:	b29b      	uxth	r3, r3
 80031e6:	3b01      	subs	r3, #1
 80031e8:	b29a      	uxth	r2, r3
 80031ea:	68fb      	ldr	r3, [r7, #12]
 80031ec:	84da      	strh	r2, [r3, #38]	; 0x26
      if (huart->Init.WordLength == UART_WORDLENGTH_9B)
 80031ee:	68fb      	ldr	r3, [r7, #12]
 80031f0:	689b      	ldr	r3, [r3, #8]
 80031f2:	f5b3 5f80 	cmp.w	r3, #4096	; 0x1000
 80031f6:	d122      	bne.n	800323e <HAL_UART_Transmit+0xd0>
      {
        if (UART_WaitOnFlagUntilTimeout(huart, UART_FLAG_TXE, RESET, tickstart, Timeout) != HAL_OK)
 80031f8:	683b      	ldr	r3, [r7, #0]
 80031fa:	9300      	str	r3, [sp, #0]
 80031fc:	697b      	ldr	r3, [r7, #20]
 80031fe:	2200      	movs	r2, #0
 8003200:	2180      	movs	r1, #128	; 0x80
 8003202:	68f8      	ldr	r0, [r7, #12]
 8003204:	f000 f84c 	bl	80032a0 <UART_WaitOnFlagUntilTimeout>
 8003208:	4603      	mov	r3, r0
 800320a:	2b00      	cmp	r3, #0
 800320c:	d001      	beq.n	8003212 <HAL_UART_Transmit+0xa4>
        {
          return HAL_TIMEOUT;
 800320e:	2303      	movs	r3, #3
 8003210:	e042      	b.n	8003298 <HAL_UART_Transmit+0x12a>
        }
        tmp = (uint16_t *) pData;
 8003212:	68bb      	ldr	r3, [r7, #8]
 8003214:	613b      	str	r3, [r7, #16]
        huart->Instance->DR = (*tmp & (uint16_t)0x01FF);
 8003216:	693b      	ldr	r3, [r7, #16]
 8003218:	881b      	ldrh	r3, [r3, #0]
 800321a:	461a      	mov	r2, r3
 800321c:	68fb      	ldr	r3, [r7, #12]
 800321e:	681b      	ldr	r3, [r3, #0]
 8003220:	f3c2 0208 	ubfx	r2, r2, #0, #9
 8003224:	605a      	str	r2, [r3, #4]
        if (huart->Init.Parity == UART_PARITY_NONE)
 8003226:	68fb      	ldr	r3, [r7, #12]
 8003228:	691b      	ldr	r3, [r3, #16]
 800322a:	2b00      	cmp	r3, #0
 800322c:	d103      	bne.n	8003236 <HAL_UART_Transmit+0xc8>
        {
          pData += 2U;
 800322e:	68bb      	ldr	r3, [r7, #8]
 8003230:	3302      	adds	r3, #2
 8003232:	60bb      	str	r3, [r7, #8]
 8003234:	e017      	b.n	8003266 <HAL_UART_Transmit+0xf8>
        }
        else
        {
          pData += 1U;
 8003236:	68bb      	ldr	r3, [r7, #8]
 8003238:	3301      	adds	r3, #1
 800323a:	60bb      	str	r3, [r7, #8]
 800323c:	e013      	b.n	8003266 <HAL_UART_Transmit+0xf8>
        }
      }
      else
      {
        if (UART_WaitOnFlagUntilTimeout(huart, UART_FLAG_TXE, RESET, tickstart, Timeout) != HAL_OK)
 800323e:	683b      	ldr	r3, [r7, #0]
 8003240:	9300      	str	r3, [sp, #0]
 8003242:	697b      	ldr	r3, [r7, #20]
 8003244:	2200      	movs	r2, #0
 8003246:	2180      	movs	r1, #128	; 0x80
 8003248:	68f8      	ldr	r0, [r7, #12]
 800324a:	f000 f829 	bl	80032a0 <UART_WaitOnFlagUntilTimeout>
 800324e:	4603      	mov	r3, r0
 8003250:	2b00      	cmp	r3, #0
 8003252:	d001      	beq.n	8003258 <HAL_UART_Transmit+0xea>
        {
          return HAL_TIMEOUT;
 8003254:	2303      	movs	r3, #3
 8003256:	e01f      	b.n	8003298 <HAL_UART_Transmit+0x12a>
        }
        huart->Instance->DR = (*pData++ & (uint8_t)0xFF);
 8003258:	68bb      	ldr	r3, [r7, #8]
 800325a:	1c5a      	adds	r2, r3, #1
 800325c:	60ba      	str	r2, [r7, #8]
 800325e:	781a      	ldrb	r2, [r3, #0]
 8003260:	68fb      	ldr	r3, [r7, #12]
 8003262:	681b      	ldr	r3, [r3, #0]
 8003264:	605a      	str	r2, [r3, #4]
    while (huart->TxXferCount > 0U)
 8003266:	68fb      	ldr	r3, [r7, #12]
 8003268:	8cdb      	ldrh	r3, [r3, #38]	; 0x26
 800326a:	b29b      	uxth	r3, r3
 800326c:	2b00      	cmp	r3, #0
 800326e:	d1b7      	bne.n	80031e0 <HAL_UART_Transmit+0x72>
      }
    }

    if (UART_WaitOnFlagUntilTimeout(huart, UART_FLAG_TC, RESET, tickstart, Timeout) != HAL_OK)
 8003270:	683b      	ldr	r3, [r7, #0]
 8003272:	9300      	str	r3, [sp, #0]
 8003274:	697b      	ldr	r3, [r7, #20]
 8003276:	2200      	movs	r2, #0
 8003278:	2140      	movs	r1, #64	; 0x40
 800327a:	68f8      	ldr	r0, [r7, #12]
 800327c:	f000 f810 	bl	80032a0 <UART_WaitOnFlagUntilTimeout>
 8003280:	4603      	mov	r3, r0
 8003282:	2b00      	cmp	r3, #0
 8003284:	d001      	beq.n	800328a <HAL_UART_Transmit+0x11c>
    {
      return HAL_TIMEOUT;
 8003286:	2303      	movs	r3, #3
 8003288:	e006      	b.n	8003298 <HAL_UART_Transmit+0x12a>
    }

    /* At end of Tx process, restore huart->gState to Ready */
    huart->gState = HAL_UART_STATE_READY;
 800328a:	68fb      	ldr	r3, [r7, #12]
 800328c:	2220      	movs	r2, #32
 800328e:	f883 2039 	strb.w	r2, [r3, #57]	; 0x39

    return HAL_OK;
 8003292:	2300      	movs	r3, #0
 8003294:	e000      	b.n	8003298 <HAL_UART_Transmit+0x12a>
  }
  else
  {
    return HAL_BUSY;
 8003296:	2302      	movs	r3, #2
  }
}
 8003298:	4618      	mov	r0, r3
 800329a:	3718      	adds	r7, #24
 800329c:	46bd      	mov	sp, r7
 800329e:	bd80      	pop	{r7, pc}

080032a0 <UART_WaitOnFlagUntilTimeout>:
  * @param  Tickstart Tick start value
  * @param  Timeout Timeout duration
  * @retval HAL status
  */
static HAL_StatusTypeDef UART_WaitOnFlagUntilTimeout(UART_HandleTypeDef *huart, uint32_t Flag, FlagStatus Status, uint32_t Tickstart, uint32_t Timeout)
{
 80032a0:	b580      	push	{r7, lr}
 80032a2:	b084      	sub	sp, #16
 80032a4:	af00      	add	r7, sp, #0
 80032a6:	60f8      	str	r0, [r7, #12]
 80032a8:	60b9      	str	r1, [r7, #8]
 80032aa:	603b      	str	r3, [r7, #0]
 80032ac:	4613      	mov	r3, r2
 80032ae:	71fb      	strb	r3, [r7, #7]
  /* Wait until flag is set */
  while ((__HAL_UART_GET_FLAG(huart, Flag) ? SET : RESET) == Status)
 80032b0:	e02c      	b.n	800330c <UART_WaitOnFlagUntilTimeout+0x6c>
  {
    /* Check for the Timeout */
    if (Timeout != HAL_MAX_DELAY)
 80032b2:	69bb      	ldr	r3, [r7, #24]
 80032b4:	f1b3 3fff 	cmp.w	r3, #4294967295
 80032b8:	d028      	beq.n	800330c <UART_WaitOnFlagUntilTimeout+0x6c>
    {
      if ((Timeout == 0U) || ((HAL_GetTick() - Tickstart) > Timeout))
 80032ba:	69bb      	ldr	r3, [r7, #24]
 80032bc:	2b00      	cmp	r3, #0
 80032be:	d007      	beq.n	80032d0 <UART_WaitOnFlagUntilTimeout+0x30>
 80032c0:	f7fe fb6a 	bl	8001998 <HAL_GetTick>
 80032c4:	4602      	mov	r2, r0
 80032c6:	683b      	ldr	r3, [r7, #0]
 80032c8:	1ad3      	subs	r3, r2, r3
 80032ca:	69ba      	ldr	r2, [r7, #24]
 80032cc:	429a      	cmp	r2, r3
 80032ce:	d21d      	bcs.n	800330c <UART_WaitOnFlagUntilTimeout+0x6c>
      {
        /* Disable TXE, RXNE, PE and ERR (Frame error, noise error, overrun error) interrupts for the interrupt process */
        CLEAR_BIT(huart->Instance->CR1, (USART_CR1_RXNEIE | USART_CR1_PEIE | USART_CR1_TXEIE));
 80032d0:	68fb      	ldr	r3, [r7, #12]
 80032d2:	681b      	ldr	r3, [r3, #0]
 80032d4:	68da      	ldr	r2, [r3, #12]
 80032d6:	68fb      	ldr	r3, [r7, #12]
 80032d8:	681b      	ldr	r3, [r3, #0]
 80032da:	f422 72d0 	bic.w	r2, r2, #416	; 0x1a0
 80032de:	60da      	str	r2, [r3, #12]
        CLEAR_BIT(huart->Instance->CR3, USART_CR3_EIE);
 80032e0:	68fb      	ldr	r3, [r7, #12]
 80032e2:	681b      	ldr	r3, [r3, #0]
 80032e4:	695a      	ldr	r2, [r3, #20]
 80032e6:	68fb      	ldr	r3, [r7, #12]
 80032e8:	681b      	ldr	r3, [r3, #0]
 80032ea:	f022 0201 	bic.w	r2, r2, #1
 80032ee:	615a      	str	r2, [r3, #20]

        huart->gState  = HAL_UART_STATE_READY;
 80032f0:	68fb      	ldr	r3, [r7, #12]
 80032f2:	2220      	movs	r2, #32
 80032f4:	f883 2039 	strb.w	r2, [r3, #57]	; 0x39
        huart->RxState = HAL_UART_STATE_READY;
 80032f8:	68fb      	ldr	r3, [r7, #12]
 80032fa:	2220      	movs	r2, #32
 80032fc:	f883 203a 	strb.w	r2, [r3, #58]	; 0x3a

        /* Process Unlocked */
        __HAL_UNLOCK(huart);
 8003300:	68fb      	ldr	r3, [r7, #12]
 8003302:	2200      	movs	r2, #0
 8003304:	f883 2038 	strb.w	r2, [r3, #56]	; 0x38

        return HAL_TIMEOUT;
 8003308:	2303      	movs	r3, #3
 800330a:	e00f      	b.n	800332c <UART_WaitOnFlagUntilTimeout+0x8c>
  while ((__HAL_UART_GET_FLAG(huart, Flag) ? SET : RESET) == Status)
 800330c:	68fb      	ldr	r3, [r7, #12]
 800330e:	681b      	ldr	r3, [r3, #0]
 8003310:	681a      	ldr	r2, [r3, #0]
 8003312:	68bb      	ldr	r3, [r7, #8]
 8003314:	4013      	ands	r3, r2
 8003316:	68ba      	ldr	r2, [r7, #8]
 8003318:	429a      	cmp	r2, r3
 800331a:	bf0c      	ite	eq
 800331c:	2301      	moveq	r3, #1
 800331e:	2300      	movne	r3, #0
 8003320:	b2db      	uxtb	r3, r3
 8003322:	461a      	mov	r2, r3
 8003324:	79fb      	ldrb	r3, [r7, #7]
 8003326:	429a      	cmp	r2, r3
 8003328:	d0c3      	beq.n	80032b2 <UART_WaitOnFlagUntilTimeout+0x12>
      }
    }
  }
  return HAL_OK;
 800332a:	2300      	movs	r3, #0
}
 800332c:	4618      	mov	r0, r3
 800332e:	3710      	adds	r7, #16
 8003330:	46bd      	mov	sp, r7
 8003332:	bd80      	pop	{r7, pc}

08003334 <UART_SetConfig>:
  * @param  huart  Pointer to a UART_HandleTypeDef structure that contains
  *                the configuration information for the specified UART module.
  * @retval None
  */
static void UART_SetConfig(UART_HandleTypeDef *huart)
{
 8003334:	e92d 4ff0 	stmdb	sp!, {r4, r5, r6, r7, r8, r9, sl, fp, lr}
 8003338:	b085      	sub	sp, #20
 800333a:	af00      	add	r7, sp, #0
 800333c:	6078      	str	r0, [r7, #4]
  assert_param(IS_UART_MODE(huart->Init.Mode));

  /*-------------------------- USART CR2 Configuration -----------------------*/
  /* Configure the UART Stop Bits: Set STOP[13:12] bits
     according to huart->Init.StopBits value */
  MODIFY_REG(huart->Instance->CR2, USART_CR2_STOP, huart->Init.StopBits);
 800333e:	687b      	ldr	r3, [r7, #4]
 8003340:	681b      	ldr	r3, [r3, #0]
 8003342:	691b      	ldr	r3, [r3, #16]
 8003344:	f423 5140 	bic.w	r1, r3, #12288	; 0x3000
 8003348:	687b      	ldr	r3, [r7, #4]
 800334a:	68da      	ldr	r2, [r3, #12]
 800334c:	687b      	ldr	r3, [r7, #4]
 800334e:	681b      	ldr	r3, [r3, #0]
 8003350:	430a      	orrs	r2, r1
 8003352:	611a      	str	r2, [r3, #16]
     Set the M bits according to huart->Init.WordLength value
     Set PCE and PS bits according to huart->Init.Parity value
     Set TE and RE bits according to huart->Init.Mode value
     Set OVER8 bit according to huart->Init.OverSampling value */

  tmpreg = (uint32_t)huart->Init.WordLength | huart->Init.Parity | huart->Init.Mode | huart->Init.OverSampling;
 8003354:	687b      	ldr	r3, [r7, #4]
 8003356:	689a      	ldr	r2, [r3, #8]
 8003358:	687b      	ldr	r3, [r7, #4]
 800335a:	691b      	ldr	r3, [r3, #16]
 800335c:	431a      	orrs	r2, r3
 800335e:	687b      	ldr	r3, [r7, #4]
 8003360:	695b      	ldr	r3, [r3, #20]
 8003362:	431a      	orrs	r2, r3
 8003364:	687b      	ldr	r3, [r7, #4]
 8003366:	69db      	ldr	r3, [r3, #28]
 8003368:	4313      	orrs	r3, r2
 800336a:	60fb      	str	r3, [r7, #12]
  MODIFY_REG(huart->Instance->CR1,
 800336c:	687b      	ldr	r3, [r7, #4]
 800336e:	681b      	ldr	r3, [r3, #0]
 8003370:	68db      	ldr	r3, [r3, #12]
 8003372:	f423 4316 	bic.w	r3, r3, #38400	; 0x9600
 8003376:	f023 030c 	bic.w	r3, r3, #12
 800337a:	687a      	ldr	r2, [r7, #4]
 800337c:	6812      	ldr	r2, [r2, #0]
 800337e:	68f9      	ldr	r1, [r7, #12]
 8003380:	430b      	orrs	r3, r1
 8003382:	60d3      	str	r3, [r2, #12]
             (uint32_t)(USART_CR1_M | USART_CR1_PCE | USART_CR1_PS | USART_CR1_TE | USART_CR1_RE | USART_CR1_OVER8),
             tmpreg);

  /*-------------------------- USART CR3 Configuration -----------------------*/
  /* Configure the UART HFC: Set CTSE and RTSE bits according to huart->Init.HwFlowCtl value */
  MODIFY_REG(huart->Instance->CR3, (USART_CR3_RTSE | USART_CR3_CTSE), huart->Init.HwFlowCtl);
 8003384:	687b      	ldr	r3, [r7, #4]
 8003386:	681b      	ldr	r3, [r3, #0]
 8003388:	695b      	ldr	r3, [r3, #20]
 800338a:	f423 7140 	bic.w	r1, r3, #768	; 0x300
 800338e:	687b      	ldr	r3, [r7, #4]
 8003390:	699a      	ldr	r2, [r3, #24]
 8003392:	687b      	ldr	r3, [r7, #4]
 8003394:	681b      	ldr	r3, [r3, #0]
 8003396:	430a      	orrs	r2, r1
 8003398:	615a      	str	r2, [r3, #20]

  /* Check the Over Sampling */
  if (huart->Init.OverSampling == UART_OVERSAMPLING_8)
 800339a:	687b      	ldr	r3, [r7, #4]
 800339c:	69db      	ldr	r3, [r3, #28]
 800339e:	f5b3 4f00 	cmp.w	r3, #32768	; 0x8000
 80033a2:	f040 818b 	bne.w	80036bc <UART_SetConfig+0x388>
    {
      pclk = HAL_RCC_GetPCLK2Freq();
      huart->Instance->BRR = UART_BRR_SAMPLING8(pclk, huart->Init.BaudRate);
    }
#elif defined(USART6)
    if ((huart->Instance == USART1) || (huart->Instance == USART6))
 80033a6:	687b      	ldr	r3, [r7, #4]
 80033a8:	681b      	ldr	r3, [r3, #0]
 80033aa:	4ac1      	ldr	r2, [pc, #772]	; (80036b0 <UART_SetConfig+0x37c>)
 80033ac:	4293      	cmp	r3, r2
 80033ae:	d005      	beq.n	80033bc <UART_SetConfig+0x88>
 80033b0:	687b      	ldr	r3, [r7, #4]
 80033b2:	681b      	ldr	r3, [r3, #0]
 80033b4:	4abf      	ldr	r2, [pc, #764]	; (80036b4 <UART_SetConfig+0x380>)
 80033b6:	4293      	cmp	r3, r2
 80033b8:	f040 80bd 	bne.w	8003536 <UART_SetConfig+0x202>
    {
      pclk = HAL_RCC_GetPCLK2Freq();
 80033bc:	f7ff fa7c 	bl	80028b8 <HAL_RCC_GetPCLK2Freq>
 80033c0:	60b8      	str	r0, [r7, #8]
      huart->Instance->BRR = UART_BRR_SAMPLING8(pclk, huart->Init.BaudRate);
 80033c2:	68bb      	ldr	r3, [r7, #8]
 80033c4:	461d      	mov	r5, r3
 80033c6:	f04f 0600 	mov.w	r6, #0
 80033ca:	46a8      	mov	r8, r5
 80033cc:	46b1      	mov	r9, r6
 80033ce:	eb18 0308 	adds.w	r3, r8, r8
 80033d2:	eb49 0409 	adc.w	r4, r9, r9
 80033d6:	4698      	mov	r8, r3
 80033d8:	46a1      	mov	r9, r4
 80033da:	eb18 0805 	adds.w	r8, r8, r5
 80033de:	eb49 0906 	adc.w	r9, r9, r6
 80033e2:	f04f 0100 	mov.w	r1, #0
 80033e6:	f04f 0200 	mov.w	r2, #0
 80033ea:	ea4f 02c9 	mov.w	r2, r9, lsl #3
 80033ee:	ea42 7258 	orr.w	r2, r2, r8, lsr #29
 80033f2:	ea4f 01c8 	mov.w	r1, r8, lsl #3
 80033f6:	4688      	mov	r8, r1
 80033f8:	4691      	mov	r9, r2
 80033fa:	eb18 0005 	adds.w	r0, r8, r5
 80033fe:	eb49 0106 	adc.w	r1, r9, r6
 8003402:	687b      	ldr	r3, [r7, #4]
 8003404:	685b      	ldr	r3, [r3, #4]
 8003406:	461d      	mov	r5, r3
 8003408:	f04f 0600 	mov.w	r6, #0
 800340c:	196b      	adds	r3, r5, r5
 800340e:	eb46 0406 	adc.w	r4, r6, r6
 8003412:	461a      	mov	r2, r3
 8003414:	4623      	mov	r3, r4
 8003416:	f7fd fc37 	bl	8000c88 <__aeabi_uldivmod>
 800341a:	4603      	mov	r3, r0
 800341c:	460c      	mov	r4, r1
 800341e:	461a      	mov	r2, r3
 8003420:	4ba5      	ldr	r3, [pc, #660]	; (80036b8 <UART_SetConfig+0x384>)
 8003422:	fba3 2302 	umull	r2, r3, r3, r2
 8003426:	095b      	lsrs	r3, r3, #5
 8003428:	ea4f 1803 	mov.w	r8, r3, lsl #4
 800342c:	68bb      	ldr	r3, [r7, #8]
 800342e:	461d      	mov	r5, r3
 8003430:	f04f 0600 	mov.w	r6, #0
 8003434:	46a9      	mov	r9, r5
 8003436:	46b2      	mov	sl, r6
 8003438:	eb19 0309 	adds.w	r3, r9, r9
 800343c:	eb4a 040a 	adc.w	r4, sl, sl
 8003440:	4699      	mov	r9, r3
 8003442:	46a2      	mov	sl, r4
 8003444:	eb19 0905 	adds.w	r9, r9, r5
 8003448:	eb4a 0a06 	adc.w	sl, sl, r6
 800344c:	f04f 0100 	mov.w	r1, #0
 8003450:	f04f 0200 	mov.w	r2, #0
 8003454:	ea4f 02ca 	mov.w	r2, sl, lsl #3
 8003458:	ea42 7259 	orr.w	r2, r2, r9, lsr #29
 800345c:	ea4f 01c9 	mov.w	r1, r9, lsl #3
 8003460:	4689      	mov	r9, r1
 8003462:	4692      	mov	sl, r2
 8003464:	eb19 0005 	adds.w	r0, r9, r5
 8003468:	eb4a 0106 	adc.w	r1, sl, r6
 800346c:	687b      	ldr	r3, [r7, #4]
 800346e:	685b      	ldr	r3, [r3, #4]
 8003470:	461d      	mov	r5, r3
 8003472:	f04f 0600 	mov.w	r6, #0
 8003476:	196b      	adds	r3, r5, r5
 8003478:	eb46 0406 	adc.w	r4, r6, r6
 800347c:	461a      	mov	r2, r3
 800347e:	4623      	mov	r3, r4
 8003480:	f7fd fc02 	bl	8000c88 <__aeabi_uldivmod>
 8003484:	4603      	mov	r3, r0
 8003486:	460c      	mov	r4, r1
 8003488:	461a      	mov	r2, r3
 800348a:	4b8b      	ldr	r3, [pc, #556]	; (80036b8 <UART_SetConfig+0x384>)
 800348c:	fba3 1302 	umull	r1, r3, r3, r2
 8003490:	095b      	lsrs	r3, r3, #5
 8003492:	2164      	movs	r1, #100	; 0x64
 8003494:	fb01 f303 	mul.w	r3, r1, r3
 8003498:	1ad3      	subs	r3, r2, r3
 800349a:	00db      	lsls	r3, r3, #3
 800349c:	3332      	adds	r3, #50	; 0x32
 800349e:	4a86      	ldr	r2, [pc, #536]	; (80036b8 <UART_SetConfig+0x384>)
 80034a0:	fba2 2303 	umull	r2, r3, r2, r3
 80034a4:	095b      	lsrs	r3, r3, #5
 80034a6:	005b      	lsls	r3, r3, #1
 80034a8:	f403 73f8 	and.w	r3, r3, #496	; 0x1f0
 80034ac:	4498      	add	r8, r3
 80034ae:	68bb      	ldr	r3, [r7, #8]
 80034b0:	461d      	mov	r5, r3
 80034b2:	f04f 0600 	mov.w	r6, #0
 80034b6:	46a9      	mov	r9, r5
 80034b8:	46b2      	mov	sl, r6
 80034ba:	eb19 0309 	adds.w	r3, r9, r9
 80034be:	eb4a 040a 	adc.w	r4, sl, sl
 80034c2:	4699      	mov	r9, r3
 80034c4:	46a2      	mov	sl, r4
 80034c6:	eb19 0905 	adds.w	r9, r9, r5
 80034ca:	eb4a 0a06 	adc.w	sl, sl, r6
 80034ce:	f04f 0100 	mov.w	r1, #0
 80034d2:	f04f 0200 	mov.w	r2, #0
 80034d6:	ea4f 02ca 	mov.w	r2, sl, lsl #3
 80034da:	ea42 7259 	orr.w	r2, r2, r9, lsr #29
 80034de:	ea4f 01c9 	mov.w	r1, r9, lsl #3
 80034e2:	4689      	mov	r9, r1
 80034e4:	4692      	mov	sl, r2
 80034e6:	eb19 0005 	adds.w	r0, r9, r5
 80034ea:	eb4a 0106 	adc.w	r1, sl, r6
 80034ee:	687b      	ldr	r3, [r7, #4]
 80034f0:	685b      	ldr	r3, [r3, #4]
 80034f2:	461d      	mov	r5, r3
 80034f4:	f04f 0600 	mov.w	r6, #0
 80034f8:	196b      	adds	r3, r5, r5
 80034fa:	eb46 0406 	adc.w	r4, r6, r6
 80034fe:	461a      	mov	r2, r3
 8003500:	4623      	mov	r3, r4
 8003502:	f7fd fbc1 	bl	8000c88 <__aeabi_uldivmod>
 8003506:	4603      	mov	r3, r0
 8003508:	460c      	mov	r4, r1
 800350a:	461a      	mov	r2, r3
 800350c:	4b6a      	ldr	r3, [pc, #424]	; (80036b8 <UART_SetConfig+0x384>)
 800350e:	fba3 1302 	umull	r1, r3, r3, r2
 8003512:	095b      	lsrs	r3, r3, #5
 8003514:	2164      	movs	r1, #100	; 0x64
 8003516:	fb01 f303 	mul.w	r3, r1, r3
 800351a:	1ad3      	subs	r3, r2, r3
 800351c:	00db      	lsls	r3, r3, #3
 800351e:	3332      	adds	r3, #50	; 0x32
 8003520:	4a65      	ldr	r2, [pc, #404]	; (80036b8 <UART_SetConfig+0x384>)
 8003522:	fba2 2303 	umull	r2, r3, r2, r3
 8003526:	095b      	lsrs	r3, r3, #5
 8003528:	f003 0207 	and.w	r2, r3, #7
 800352c:	687b      	ldr	r3, [r7, #4]
 800352e:	681b      	ldr	r3, [r3, #0]
 8003530:	4442      	add	r2, r8
 8003532:	609a      	str	r2, [r3, #8]
 8003534:	e26f      	b.n	8003a16 <UART_SetConfig+0x6e2>
      huart->Instance->BRR = UART_BRR_SAMPLING8(pclk, huart->Init.BaudRate);
    }
#endif /* USART6 */
    else
    {
      pclk = HAL_RCC_GetPCLK1Freq();
 8003536:	f7ff f9ab 	bl	8002890 <HAL_RCC_GetPCLK1Freq>
 800353a:	60b8      	str	r0, [r7, #8]
      huart->Instance->BRR = UART_BRR_SAMPLING8(pclk, huart->Init.BaudRate);
 800353c:	68bb      	ldr	r3, [r7, #8]
 800353e:	461d      	mov	r5, r3
 8003540:	f04f 0600 	mov.w	r6, #0
 8003544:	46a8      	mov	r8, r5
 8003546:	46b1      	mov	r9, r6
 8003548:	eb18 0308 	adds.w	r3, r8, r8
 800354c:	eb49 0409 	adc.w	r4, r9, r9
 8003550:	4698      	mov	r8, r3
 8003552:	46a1      	mov	r9, r4
 8003554:	eb18 0805 	adds.w	r8, r8, r5
 8003558:	eb49 0906 	adc.w	r9, r9, r6
 800355c:	f04f 0100 	mov.w	r1, #0
 8003560:	f04f 0200 	mov.w	r2, #0
 8003564:	ea4f 02c9 	mov.w	r2, r9, lsl #3
 8003568:	ea42 7258 	orr.w	r2, r2, r8, lsr #29
 800356c:	ea4f 01c8 	mov.w	r1, r8, lsl #3
 8003570:	4688      	mov	r8, r1
 8003572:	4691      	mov	r9, r2
 8003574:	eb18 0005 	adds.w	r0, r8, r5
 8003578:	eb49 0106 	adc.w	r1, r9, r6
 800357c:	687b      	ldr	r3, [r7, #4]
 800357e:	685b      	ldr	r3, [r3, #4]
 8003580:	461d      	mov	r5, r3
 8003582:	f04f 0600 	mov.w	r6, #0
 8003586:	196b      	adds	r3, r5, r5
 8003588:	eb46 0406 	adc.w	r4, r6, r6
 800358c:	461a      	mov	r2, r3
 800358e:	4623      	mov	r3, r4
 8003590:	f7fd fb7a 	bl	8000c88 <__aeabi_uldivmod>
 8003594:	4603      	mov	r3, r0
 8003596:	460c      	mov	r4, r1
 8003598:	461a      	mov	r2, r3
 800359a:	4b47      	ldr	r3, [pc, #284]	; (80036b8 <UART_SetConfig+0x384>)
 800359c:	fba3 2302 	umull	r2, r3, r3, r2
 80035a0:	095b      	lsrs	r3, r3, #5
 80035a2:	ea4f 1803 	mov.w	r8, r3, lsl #4
 80035a6:	68bb      	ldr	r3, [r7, #8]
 80035a8:	461d      	mov	r5, r3
 80035aa:	f04f 0600 	mov.w	r6, #0
 80035ae:	46a9      	mov	r9, r5
 80035b0:	46b2      	mov	sl, r6
 80035b2:	eb19 0309 	adds.w	r3, r9, r9
 80035b6:	eb4a 040a 	adc.w	r4, sl, sl
 80035ba:	4699      	mov	r9, r3
 80035bc:	46a2      	mov	sl, r4
 80035be:	eb19 0905 	adds.w	r9, r9, r5
 80035c2:	eb4a 0a06 	adc.w	sl, sl, r6
 80035c6:	f04f 0100 	mov.w	r1, #0
 80035ca:	f04f 0200 	mov.w	r2, #0
 80035ce:	ea4f 02ca 	mov.w	r2, sl, lsl #3
 80035d2:	ea42 7259 	orr.w	r2, r2, r9, lsr #29
 80035d6:	ea4f 01c9 	mov.w	r1, r9, lsl #3
 80035da:	4689      	mov	r9, r1
 80035dc:	4692      	mov	sl, r2
 80035de:	eb19 0005 	adds.w	r0, r9, r5
 80035e2:	eb4a 0106 	adc.w	r1, sl, r6
 80035e6:	687b      	ldr	r3, [r7, #4]
 80035e8:	685b      	ldr	r3, [r3, #4]
 80035ea:	461d      	mov	r5, r3
 80035ec:	f04f 0600 	mov.w	r6, #0
 80035f0:	196b      	adds	r3, r5, r5
 80035f2:	eb46 0406 	adc.w	r4, r6, r6
 80035f6:	461a      	mov	r2, r3
 80035f8:	4623      	mov	r3, r4
 80035fa:	f7fd fb45 	bl	8000c88 <__aeabi_uldivmod>
 80035fe:	4603      	mov	r3, r0
 8003600:	460c      	mov	r4, r1
 8003602:	461a      	mov	r2, r3
 8003604:	4b2c      	ldr	r3, [pc, #176]	; (80036b8 <UART_SetConfig+0x384>)
 8003606:	fba3 1302 	umull	r1, r3, r3, r2
 800360a:	095b      	lsrs	r3, r3, #5
 800360c:	2164      	movs	r1, #100	; 0x64
 800360e:	fb01 f303 	mul.w	r3, r1, r3
 8003612:	1ad3      	subs	r3, r2, r3
 8003614:	00db      	lsls	r3, r3, #3
 8003616:	3332      	adds	r3, #50	; 0x32
 8003618:	4a27      	ldr	r2, [pc, #156]	; (80036b8 <UART_SetConfig+0x384>)
 800361a:	fba2 2303 	umull	r2, r3, r2, r3
 800361e:	095b      	lsrs	r3, r3, #5
 8003620:	005b      	lsls	r3, r3, #1
 8003622:	f403 73f8 	and.w	r3, r3, #496	; 0x1f0
 8003626:	4498      	add	r8, r3
 8003628:	68bb      	ldr	r3, [r7, #8]
 800362a:	461d      	mov	r5, r3
 800362c:	f04f 0600 	mov.w	r6, #0
 8003630:	46a9      	mov	r9, r5
 8003632:	46b2      	mov	sl, r6
 8003634:	eb19 0309 	adds.w	r3, r9, r9
 8003638:	eb4a 040a 	adc.w	r4, sl, sl
 800363c:	4699      	mov	r9, r3
 800363e:	46a2      	mov	sl, r4
 8003640:	eb19 0905 	adds.w	r9, r9, r5
 8003644:	eb4a 0a06 	adc.w	sl, sl, r6
 8003648:	f04f 0100 	mov.w	r1, #0
 800364c:	f04f 0200 	mov.w	r2, #0
 8003650:	ea4f 02ca 	mov.w	r2, sl, lsl #3
 8003654:	ea42 7259 	orr.w	r2, r2, r9, lsr #29
 8003658:	ea4f 01c9 	mov.w	r1, r9, lsl #3
 800365c:	4689      	mov	r9, r1
 800365e:	4692      	mov	sl, r2
 8003660:	eb19 0005 	adds.w	r0, r9, r5
 8003664:	eb4a 0106 	adc.w	r1, sl, r6
 8003668:	687b      	ldr	r3, [r7, #4]
 800366a:	685b      	ldr	r3, [r3, #4]
 800366c:	461d      	mov	r5, r3
 800366e:	f04f 0600 	mov.w	r6, #0
 8003672:	196b      	adds	r3, r5, r5
 8003674:	eb46 0406 	adc.w	r4, r6, r6
 8003678:	461a      	mov	r2, r3
 800367a:	4623      	mov	r3, r4
 800367c:	f7fd fb04 	bl	8000c88 <__aeabi_uldivmod>
 8003680:	4603      	mov	r3, r0
 8003682:	460c      	mov	r4, r1
 8003684:	461a      	mov	r2, r3
 8003686:	4b0c      	ldr	r3, [pc, #48]	; (80036b8 <UART_SetConfig+0x384>)
 8003688:	fba3 1302 	umull	r1, r3, r3, r2
 800368c:	095b      	lsrs	r3, r3, #5
 800368e:	2164      	movs	r1, #100	; 0x64
 8003690:	fb01 f303 	mul.w	r3, r1, r3
 8003694:	1ad3      	subs	r3, r2, r3
 8003696:	00db      	lsls	r3, r3, #3
 8003698:	3332      	adds	r3, #50	; 0x32
 800369a:	4a07      	ldr	r2, [pc, #28]	; (80036b8 <UART_SetConfig+0x384>)
 800369c:	fba2 2303 	umull	r2, r3, r2, r3
 80036a0:	095b      	lsrs	r3, r3, #5
 80036a2:	f003 0207 	and.w	r2, r3, #7
 80036a6:	687b      	ldr	r3, [r7, #4]
 80036a8:	681b      	ldr	r3, [r3, #0]
 80036aa:	4442      	add	r2, r8
 80036ac:	609a      	str	r2, [r3, #8]
    {
      pclk = HAL_RCC_GetPCLK1Freq();
      huart->Instance->BRR = UART_BRR_SAMPLING16(pclk, huart->Init.BaudRate);
    }
  }
}
 80036ae:	e1b2      	b.n	8003a16 <UART_SetConfig+0x6e2>
 80036b0:	40011000 	.word	0x40011000
 80036b4:	40011400 	.word	0x40011400
 80036b8:	51eb851f 	.word	0x51eb851f
    if ((huart->Instance == USART1) || (huart->Instance == USART6))
 80036bc:	687b      	ldr	r3, [r7, #4]
 80036be:	681b      	ldr	r3, [r3, #0]
 80036c0:	4ad7      	ldr	r2, [pc, #860]	; (8003a20 <UART_SetConfig+0x6ec>)
 80036c2:	4293      	cmp	r3, r2
 80036c4:	d005      	beq.n	80036d2 <UART_SetConfig+0x39e>
 80036c6:	687b      	ldr	r3, [r7, #4]
 80036c8:	681b      	ldr	r3, [r3, #0]
 80036ca:	4ad6      	ldr	r2, [pc, #856]	; (8003a24 <UART_SetConfig+0x6f0>)
 80036cc:	4293      	cmp	r3, r2
 80036ce:	f040 80d1 	bne.w	8003874 <UART_SetConfig+0x540>
      pclk = HAL_RCC_GetPCLK2Freq();
 80036d2:	f7ff f8f1 	bl	80028b8 <HAL_RCC_GetPCLK2Freq>
 80036d6:	60b8      	str	r0, [r7, #8]
      huart->Instance->BRR = UART_BRR_SAMPLING16(pclk, huart->Init.BaudRate);
 80036d8:	68bb      	ldr	r3, [r7, #8]
 80036da:	469a      	mov	sl, r3
 80036dc:	f04f 0b00 	mov.w	fp, #0
 80036e0:	46d0      	mov	r8, sl
 80036e2:	46d9      	mov	r9, fp
 80036e4:	eb18 0308 	adds.w	r3, r8, r8
 80036e8:	eb49 0409 	adc.w	r4, r9, r9
 80036ec:	4698      	mov	r8, r3
 80036ee:	46a1      	mov	r9, r4
 80036f0:	eb18 080a 	adds.w	r8, r8, sl
 80036f4:	eb49 090b 	adc.w	r9, r9, fp
 80036f8:	f04f 0100 	mov.w	r1, #0
 80036fc:	f04f 0200 	mov.w	r2, #0
 8003700:	ea4f 02c9 	mov.w	r2, r9, lsl #3
 8003704:	ea42 7258 	orr.w	r2, r2, r8, lsr #29
 8003708:	ea4f 01c8 	mov.w	r1, r8, lsl #3
 800370c:	4688      	mov	r8, r1
 800370e:	4691      	mov	r9, r2
 8003710:	eb1a 0508 	adds.w	r5, sl, r8
 8003714:	eb4b 0609 	adc.w	r6, fp, r9
 8003718:	687b      	ldr	r3, [r7, #4]
 800371a:	685b      	ldr	r3, [r3, #4]
 800371c:	4619      	mov	r1, r3
 800371e:	f04f 0200 	mov.w	r2, #0
 8003722:	f04f 0300 	mov.w	r3, #0
 8003726:	f04f 0400 	mov.w	r4, #0
 800372a:	0094      	lsls	r4, r2, #2
 800372c:	ea44 7491 	orr.w	r4, r4, r1, lsr #30
 8003730:	008b      	lsls	r3, r1, #2
 8003732:	461a      	mov	r2, r3
 8003734:	4623      	mov	r3, r4
 8003736:	4628      	mov	r0, r5
 8003738:	4631      	mov	r1, r6
 800373a:	f7fd faa5 	bl	8000c88 <__aeabi_uldivmod>
 800373e:	4603      	mov	r3, r0
 8003740:	460c      	mov	r4, r1
 8003742:	461a      	mov	r2, r3
 8003744:	4bb8      	ldr	r3, [pc, #736]	; (8003a28 <UART_SetConfig+0x6f4>)
 8003746:	fba3 2302 	umull	r2, r3, r3, r2
 800374a:	095b      	lsrs	r3, r3, #5
 800374c:	ea4f 1803 	mov.w	r8, r3, lsl #4
 8003750:	68bb      	ldr	r3, [r7, #8]
 8003752:	469b      	mov	fp, r3
 8003754:	f04f 0c00 	mov.w	ip, #0
 8003758:	46d9      	mov	r9, fp
 800375a:	46e2      	mov	sl, ip
 800375c:	eb19 0309 	adds.w	r3, r9, r9
 8003760:	eb4a 040a 	adc.w	r4, sl, sl
 8003764:	4699      	mov	r9, r3
 8003766:	46a2      	mov	sl, r4
 8003768:	eb19 090b 	adds.w	r9, r9, fp
 800376c:	eb4a 0a0c 	adc.w	sl, sl, ip
 8003770:	f04f 0100 	mov.w	r1, #0
 8003774:	f04f 0200 	mov.w	r2, #0
 8003778:	ea4f 02ca 	mov.w	r2, sl, lsl #3
 800377c:	ea42 7259 	orr.w	r2, r2, r9, lsr #29
 8003780:	ea4f 01c9 	mov.w	r1, r9, lsl #3
 8003784:	4689      	mov	r9, r1
 8003786:	4692      	mov	sl, r2
 8003788:	eb1b 0509 	adds.w	r5, fp, r9
 800378c:	eb4c 060a 	adc.w	r6, ip, sl
 8003790:	687b      	ldr	r3, [r7, #4]
 8003792:	685b      	ldr	r3, [r3, #4]
 8003794:	4619      	mov	r1, r3
 8003796:	f04f 0200 	mov.w	r2, #0
 800379a:	f04f 0300 	mov.w	r3, #0
 800379e:	f04f 0400 	mov.w	r4, #0
 80037a2:	0094      	lsls	r4, r2, #2
 80037a4:	ea44 7491 	orr.w	r4, r4, r1, lsr #30
 80037a8:	008b      	lsls	r3, r1, #2
 80037aa:	461a      	mov	r2, r3
 80037ac:	4623      	mov	r3, r4
 80037ae:	4628      	mov	r0, r5
 80037b0:	4631      	mov	r1, r6
 80037b2:	f7fd fa69 	bl	8000c88 <__aeabi_uldivmod>
 80037b6:	4603      	mov	r3, r0
 80037b8:	460c      	mov	r4, r1
 80037ba:	461a      	mov	r2, r3
 80037bc:	4b9a      	ldr	r3, [pc, #616]	; (8003a28 <UART_SetConfig+0x6f4>)
 80037be:	fba3 1302 	umull	r1, r3, r3, r2
 80037c2:	095b      	lsrs	r3, r3, #5
 80037c4:	2164      	movs	r1, #100	; 0x64
 80037c6:	fb01 f303 	mul.w	r3, r1, r3
 80037ca:	1ad3      	subs	r3, r2, r3
 80037cc:	011b      	lsls	r3, r3, #4
 80037ce:	3332      	adds	r3, #50	; 0x32
 80037d0:	4a95      	ldr	r2, [pc, #596]	; (8003a28 <UART_SetConfig+0x6f4>)
 80037d2:	fba2 2303 	umull	r2, r3, r2, r3
 80037d6:	095b      	lsrs	r3, r3, #5
 80037d8:	f003 03f0 	and.w	r3, r3, #240	; 0xf0
 80037dc:	4498      	add	r8, r3
 80037de:	68bb      	ldr	r3, [r7, #8]
 80037e0:	469b      	mov	fp, r3
 80037e2:	f04f 0c00 	mov.w	ip, #0
 80037e6:	46d9      	mov	r9, fp
 80037e8:	46e2      	mov	sl, ip
 80037ea:	eb19 0309 	adds.w	r3, r9, r9
 80037ee:	eb4a 040a 	adc.w	r4, sl, sl
 80037f2:	4699      	mov	r9, r3
 80037f4:	46a2      	mov	sl, r4
 80037f6:	eb19 090b 	adds.w	r9, r9, fp
 80037fa:	eb4a 0a0c 	adc.w	sl, sl, ip
 80037fe:	f04f 0100 	mov.w	r1, #0
 8003802:	f04f 0200 	mov.w	r2, #0
 8003806:	ea4f 02ca 	mov.w	r2, sl, lsl #3
 800380a:	ea42 7259 	orr.w	r2, r2, r9, lsr #29
 800380e:	ea4f 01c9 	mov.w	r1, r9, lsl #3
 8003812:	4689      	mov	r9, r1
 8003814:	4692      	mov	sl, r2
 8003816:	eb1b 0509 	adds.w	r5, fp, r9
 800381a:	eb4c 060a 	adc.w	r6, ip, sl
 800381e:	687b      	ldr	r3, [r7, #4]
 8003820:	685b      	ldr	r3, [r3, #4]
 8003822:	4619      	mov	r1, r3
 8003824:	f04f 0200 	mov.w	r2, #0
 8003828:	f04f 0300 	mov.w	r3, #0
 800382c:	f04f 0400 	mov.w	r4, #0
 8003830:	0094      	lsls	r4, r2, #2
 8003832:	ea44 7491 	orr.w	r4, r4, r1, lsr #30
 8003836:	008b      	lsls	r3, r1, #2
 8003838:	461a      	mov	r2, r3
 800383a:	4623      	mov	r3, r4
 800383c:	4628      	mov	r0, r5
 800383e:	4631      	mov	r1, r6
 8003840:	f7fd fa22 	bl	8000c88 <__aeabi_uldivmod>
 8003844:	4603      	mov	r3, r0
 8003846:	460c      	mov	r4, r1
 8003848:	461a      	mov	r2, r3
 800384a:	4b77      	ldr	r3, [pc, #476]	; (8003a28 <UART_SetConfig+0x6f4>)
 800384c:	fba3 1302 	umull	r1, r3, r3, r2
 8003850:	095b      	lsrs	r3, r3, #5
 8003852:	2164      	movs	r1, #100	; 0x64
 8003854:	fb01 f303 	mul.w	r3, r1, r3
 8003858:	1ad3      	subs	r3, r2, r3
 800385a:	011b      	lsls	r3, r3, #4
 800385c:	3332      	adds	r3, #50	; 0x32
 800385e:	4a72      	ldr	r2, [pc, #456]	; (8003a28 <UART_SetConfig+0x6f4>)
 8003860:	fba2 2303 	umull	r2, r3, r2, r3
 8003864:	095b      	lsrs	r3, r3, #5
 8003866:	f003 020f 	and.w	r2, r3, #15
 800386a:	687b      	ldr	r3, [r7, #4]
 800386c:	681b      	ldr	r3, [r3, #0]
 800386e:	4442      	add	r2, r8
 8003870:	609a      	str	r2, [r3, #8]
 8003872:	e0d0      	b.n	8003a16 <UART_SetConfig+0x6e2>
      pclk = HAL_RCC_GetPCLK1Freq();
 8003874:	f7ff f80c 	bl	8002890 <HAL_RCC_GetPCLK1Freq>
 8003878:	60b8      	str	r0, [r7, #8]
      huart->Instance->BRR = UART_BRR_SAMPLING16(pclk, huart->Init.BaudRate);
 800387a:	68bb      	ldr	r3, [r7, #8]
 800387c:	469a      	mov	sl, r3
 800387e:	f04f 0b00 	mov.w	fp, #0
 8003882:	46d0      	mov	r8, sl
 8003884:	46d9      	mov	r9, fp
 8003886:	eb18 0308 	adds.w	r3, r8, r8
 800388a:	eb49 0409 	adc.w	r4, r9, r9
 800388e:	4698      	mov	r8, r3
 8003890:	46a1      	mov	r9, r4
 8003892:	eb18 080a 	adds.w	r8, r8, sl
 8003896:	eb49 090b 	adc.w	r9, r9, fp
 800389a:	f04f 0100 	mov.w	r1, #0
 800389e:	f04f 0200 	mov.w	r2, #0
 80038a2:	ea4f 02c9 	mov.w	r2, r9, lsl #3
 80038a6:	ea42 7258 	orr.w	r2, r2, r8, lsr #29
 80038aa:	ea4f 01c8 	mov.w	r1, r8, lsl #3
 80038ae:	4688      	mov	r8, r1
 80038b0:	4691      	mov	r9, r2
 80038b2:	eb1a 0508 	adds.w	r5, sl, r8
 80038b6:	eb4b 0609 	adc.w	r6, fp, r9
 80038ba:	687b      	ldr	r3, [r7, #4]
 80038bc:	685b      	ldr	r3, [r3, #4]
 80038be:	4619      	mov	r1, r3
 80038c0:	f04f 0200 	mov.w	r2, #0
 80038c4:	f04f 0300 	mov.w	r3, #0
 80038c8:	f04f 0400 	mov.w	r4, #0
 80038cc:	0094      	lsls	r4, r2, #2
 80038ce:	ea44 7491 	orr.w	r4, r4, r1, lsr #30
 80038d2:	008b      	lsls	r3, r1, #2
 80038d4:	461a      	mov	r2, r3
 80038d6:	4623      	mov	r3, r4
 80038d8:	4628      	mov	r0, r5
 80038da:	4631      	mov	r1, r6
 80038dc:	f7fd f9d4 	bl	8000c88 <__aeabi_uldivmod>
 80038e0:	4603      	mov	r3, r0
 80038e2:	460c      	mov	r4, r1
 80038e4:	461a      	mov	r2, r3
 80038e6:	4b50      	ldr	r3, [pc, #320]	; (8003a28 <UART_SetConfig+0x6f4>)
 80038e8:	fba3 2302 	umull	r2, r3, r3, r2
 80038ec:	095b      	lsrs	r3, r3, #5
 80038ee:	ea4f 1803 	mov.w	r8, r3, lsl #4
 80038f2:	68bb      	ldr	r3, [r7, #8]
 80038f4:	469b      	mov	fp, r3
 80038f6:	f04f 0c00 	mov.w	ip, #0
 80038fa:	46d9      	mov	r9, fp
 80038fc:	46e2      	mov	sl, ip
 80038fe:	eb19 0309 	adds.w	r3, r9, r9
 8003902:	eb4a 040a 	adc.w	r4, sl, sl
 8003906:	4699      	mov	r9, r3
 8003908:	46a2      	mov	sl, r4
 800390a:	eb19 090b 	adds.w	r9, r9, fp
 800390e:	eb4a 0a0c 	adc.w	sl, sl, ip
 8003912:	f04f 0100 	mov.w	r1, #0
 8003916:	f04f 0200 	mov.w	r2, #0
 800391a:	ea4f 02ca 	mov.w	r2, sl, lsl #3
 800391e:	ea42 7259 	orr.w	r2, r2, r9, lsr #29
 8003922:	ea4f 01c9 	mov.w	r1, r9, lsl #3
 8003926:	4689      	mov	r9, r1
 8003928:	4692      	mov	sl, r2
 800392a:	eb1b 0509 	adds.w	r5, fp, r9
 800392e:	eb4c 060a 	adc.w	r6, ip, sl
 8003932:	687b      	ldr	r3, [r7, #4]
 8003934:	685b      	ldr	r3, [r3, #4]
 8003936:	4619      	mov	r1, r3
 8003938:	f04f 0200 	mov.w	r2, #0
 800393c:	f04f 0300 	mov.w	r3, #0
 8003940:	f04f 0400 	mov.w	r4, #0
 8003944:	0094      	lsls	r4, r2, #2
 8003946:	ea44 7491 	orr.w	r4, r4, r1, lsr #30
 800394a:	008b      	lsls	r3, r1, #2
 800394c:	461a      	mov	r2, r3
 800394e:	4623      	mov	r3, r4
 8003950:	4628      	mov	r0, r5
 8003952:	4631      	mov	r1, r6
 8003954:	f7fd f998 	bl	8000c88 <__aeabi_uldivmod>
 8003958:	4603      	mov	r3, r0
 800395a:	460c      	mov	r4, r1
 800395c:	461a      	mov	r2, r3
 800395e:	4b32      	ldr	r3, [pc, #200]	; (8003a28 <UART_SetConfig+0x6f4>)
 8003960:	fba3 1302 	umull	r1, r3, r3, r2
 8003964:	095b      	lsrs	r3, r3, #5
 8003966:	2164      	movs	r1, #100	; 0x64
 8003968:	fb01 f303 	mul.w	r3, r1, r3
 800396c:	1ad3      	subs	r3, r2, r3
 800396e:	011b      	lsls	r3, r3, #4
 8003970:	3332      	adds	r3, #50	; 0x32
 8003972:	4a2d      	ldr	r2, [pc, #180]	; (8003a28 <UART_SetConfig+0x6f4>)
 8003974:	fba2 2303 	umull	r2, r3, r2, r3
 8003978:	095b      	lsrs	r3, r3, #5
 800397a:	f003 03f0 	and.w	r3, r3, #240	; 0xf0
 800397e:	4498      	add	r8, r3
 8003980:	68bb      	ldr	r3, [r7, #8]
 8003982:	469b      	mov	fp, r3
 8003984:	f04f 0c00 	mov.w	ip, #0
 8003988:	46d9      	mov	r9, fp
 800398a:	46e2      	mov	sl, ip
 800398c:	eb19 0309 	adds.w	r3, r9, r9
 8003990:	eb4a 040a 	adc.w	r4, sl, sl
 8003994:	4699      	mov	r9, r3
 8003996:	46a2      	mov	sl, r4
 8003998:	eb19 090b 	adds.w	r9, r9, fp
 800399c:	eb4a 0a0c 	adc.w	sl, sl, ip
 80039a0:	f04f 0100 	mov.w	r1, #0
 80039a4:	f04f 0200 	mov.w	r2, #0
 80039a8:	ea4f 02ca 	mov.w	r2, sl, lsl #3
 80039ac:	ea42 7259 	orr.w	r2, r2, r9, lsr #29
 80039b0:	ea4f 01c9 	mov.w	r1, r9, lsl #3
 80039b4:	4689      	mov	r9, r1
 80039b6:	4692      	mov	sl, r2
 80039b8:	eb1b 0509 	adds.w	r5, fp, r9
 80039bc:	eb4c 060a 	adc.w	r6, ip, sl
 80039c0:	687b      	ldr	r3, [r7, #4]
 80039c2:	685b      	ldr	r3, [r3, #4]
 80039c4:	4619      	mov	r1, r3
 80039c6:	f04f 0200 	mov.w	r2, #0
 80039ca:	f04f 0300 	mov.w	r3, #0
 80039ce:	f04f 0400 	mov.w	r4, #0
 80039d2:	0094      	lsls	r4, r2, #2
 80039d4:	ea44 7491 	orr.w	r4, r4, r1, lsr #30
 80039d8:	008b      	lsls	r3, r1, #2
 80039da:	461a      	mov	r2, r3
 80039dc:	4623      	mov	r3, r4
 80039de:	4628      	mov	r0, r5
 80039e0:	4631      	mov	r1, r6
 80039e2:	f7fd f951 	bl	8000c88 <__aeabi_uldivmod>
 80039e6:	4603      	mov	r3, r0
 80039e8:	460c      	mov	r4, r1
 80039ea:	461a      	mov	r2, r3
 80039ec:	4b0e      	ldr	r3, [pc, #56]	; (8003a28 <UART_SetConfig+0x6f4>)
 80039ee:	fba3 1302 	umull	r1, r3, r3, r2
 80039f2:	095b      	lsrs	r3, r3, #5
 80039f4:	2164      	movs	r1, #100	; 0x64
 80039f6:	fb01 f303 	mul.w	r3, r1, r3
 80039fa:	1ad3      	subs	r3, r2, r3
 80039fc:	011b      	lsls	r3, r3, #4
 80039fe:	3332      	adds	r3, #50	; 0x32
 8003a00:	4a09      	ldr	r2, [pc, #36]	; (8003a28 <UART_SetConfig+0x6f4>)
 8003a02:	fba2 2303 	umull	r2, r3, r2, r3
 8003a06:	095b      	lsrs	r3, r3, #5
 8003a08:	f003 020f 	and.w	r2, r3, #15
 8003a0c:	687b      	ldr	r3, [r7, #4]
 8003a0e:	681b      	ldr	r3, [r3, #0]
 8003a10:	4442      	add	r2, r8
 8003a12:	609a      	str	r2, [r3, #8]
}
 8003a14:	e7ff      	b.n	8003a16 <UART_SetConfig+0x6e2>
 8003a16:	bf00      	nop
 8003a18:	3714      	adds	r7, #20
 8003a1a:	46bd      	mov	sp, r7
 8003a1c:	e8bd 8ff0 	ldmia.w	sp!, {r4, r5, r6, r7, r8, r9, sl, fp, pc}
 8003a20:	40011000 	.word	0x40011000
 8003a24:	40011400 	.word	0x40011400
 8003a28:	51eb851f 	.word	0x51eb851f

08003a2c <__errno>:
 8003a2c:	4b01      	ldr	r3, [pc, #4]	; (8003a34 <__errno+0x8>)
 8003a2e:	6818      	ldr	r0, [r3, #0]
 8003a30:	4770      	bx	lr
 8003a32:	bf00      	nop
 8003a34:	2000000c 	.word	0x2000000c

08003a38 <__libc_init_array>:
 8003a38:	b570      	push	{r4, r5, r6, lr}
 8003a3a:	4e0d      	ldr	r6, [pc, #52]	; (8003a70 <__libc_init_array+0x38>)
 8003a3c:	4c0d      	ldr	r4, [pc, #52]	; (8003a74 <__libc_init_array+0x3c>)
 8003a3e:	1ba4      	subs	r4, r4, r6
 8003a40:	10a4      	asrs	r4, r4, #2
 8003a42:	2500      	movs	r5, #0
 8003a44:	42a5      	cmp	r5, r4
 8003a46:	d109      	bne.n	8003a5c <__libc_init_array+0x24>
 8003a48:	4e0b      	ldr	r6, [pc, #44]	; (8003a78 <__libc_init_array+0x40>)
 8003a4a:	4c0c      	ldr	r4, [pc, #48]	; (8003a7c <__libc_init_array+0x44>)
 8003a4c:	f002 f85c 	bl	8005b08 <_init>
 8003a50:	1ba4      	subs	r4, r4, r6
 8003a52:	10a4      	asrs	r4, r4, #2
 8003a54:	2500      	movs	r5, #0
 8003a56:	42a5      	cmp	r5, r4
 8003a58:	d105      	bne.n	8003a66 <__libc_init_array+0x2e>
 8003a5a:	bd70      	pop	{r4, r5, r6, pc}
 8003a5c:	f856 3025 	ldr.w	r3, [r6, r5, lsl #2]
 8003a60:	4798      	blx	r3
 8003a62:	3501      	adds	r5, #1
 8003a64:	e7ee      	b.n	8003a44 <__libc_init_array+0xc>
 8003a66:	f856 3025 	ldr.w	r3, [r6, r5, lsl #2]
 8003a6a:	4798      	blx	r3
 8003a6c:	3501      	adds	r5, #1
 8003a6e:	e7f2      	b.n	8003a56 <__libc_init_array+0x1e>
 8003a70:	08005da8 	.word	0x08005da8
 8003a74:	08005da8 	.word	0x08005da8
 8003a78:	08005da8 	.word	0x08005da8
 8003a7c:	08005dac 	.word	0x08005dac

08003a80 <memset>:
 8003a80:	4402      	add	r2, r0
 8003a82:	4603      	mov	r3, r0
 8003a84:	4293      	cmp	r3, r2
 8003a86:	d100      	bne.n	8003a8a <memset+0xa>
 8003a88:	4770      	bx	lr
 8003a8a:	f803 1b01 	strb.w	r1, [r3], #1
 8003a8e:	e7f9      	b.n	8003a84 <memset+0x4>

08003a90 <__cvt>:
 8003a90:	e92d 47ff 	stmdb	sp!, {r0, r1, r2, r3, r4, r5, r6, r7, r8, r9, sl, lr}
 8003a94:	ec55 4b10 	vmov	r4, r5, d0
 8003a98:	9f0d      	ldr	r7, [sp, #52]	; 0x34
 8003a9a:	f8dd a030 	ldr.w	sl, [sp, #48]	; 0x30
 8003a9e:	2d00      	cmp	r5, #0
 8003aa0:	460e      	mov	r6, r1
 8003aa2:	4691      	mov	r9, r2
 8003aa4:	4619      	mov	r1, r3
 8003aa6:	bfb8      	it	lt
 8003aa8:	4622      	movlt	r2, r4
 8003aaa:	462b      	mov	r3, r5
 8003aac:	f027 0720 	bic.w	r7, r7, #32
 8003ab0:	bfbb      	ittet	lt
 8003ab2:	f105 4300 	addlt.w	r3, r5, #2147483648	; 0x80000000
 8003ab6:	461d      	movlt	r5, r3
 8003ab8:	2300      	movge	r3, #0
 8003aba:	232d      	movlt	r3, #45	; 0x2d
 8003abc:	bfb8      	it	lt
 8003abe:	4614      	movlt	r4, r2
 8003ac0:	2f46      	cmp	r7, #70	; 0x46
 8003ac2:	700b      	strb	r3, [r1, #0]
 8003ac4:	d004      	beq.n	8003ad0 <__cvt+0x40>
 8003ac6:	2f45      	cmp	r7, #69	; 0x45
 8003ac8:	d100      	bne.n	8003acc <__cvt+0x3c>
 8003aca:	3601      	adds	r6, #1
 8003acc:	2102      	movs	r1, #2
 8003ace:	e000      	b.n	8003ad2 <__cvt+0x42>
 8003ad0:	2103      	movs	r1, #3
 8003ad2:	ab03      	add	r3, sp, #12
 8003ad4:	9301      	str	r3, [sp, #4]
 8003ad6:	ab02      	add	r3, sp, #8
 8003ad8:	9300      	str	r3, [sp, #0]
 8003ada:	4632      	mov	r2, r6
 8003adc:	4653      	mov	r3, sl
 8003ade:	ec45 4b10 	vmov	d0, r4, r5
 8003ae2:	f000 fcdd 	bl	80044a0 <_dtoa_r>
 8003ae6:	2f47      	cmp	r7, #71	; 0x47
 8003ae8:	4680      	mov	r8, r0
 8003aea:	d102      	bne.n	8003af2 <__cvt+0x62>
 8003aec:	f019 0f01 	tst.w	r9, #1
 8003af0:	d026      	beq.n	8003b40 <__cvt+0xb0>
 8003af2:	2f46      	cmp	r7, #70	; 0x46
 8003af4:	eb08 0906 	add.w	r9, r8, r6
 8003af8:	d111      	bne.n	8003b1e <__cvt+0x8e>
 8003afa:	f898 3000 	ldrb.w	r3, [r8]
 8003afe:	2b30      	cmp	r3, #48	; 0x30
 8003b00:	d10a      	bne.n	8003b18 <__cvt+0x88>
 8003b02:	2200      	movs	r2, #0
 8003b04:	2300      	movs	r3, #0
 8003b06:	4620      	mov	r0, r4
 8003b08:	4629      	mov	r1, r5
 8003b0a:	f7fc fffd 	bl	8000b08 <__aeabi_dcmpeq>
 8003b0e:	b918      	cbnz	r0, 8003b18 <__cvt+0x88>
 8003b10:	f1c6 0601 	rsb	r6, r6, #1
 8003b14:	f8ca 6000 	str.w	r6, [sl]
 8003b18:	f8da 3000 	ldr.w	r3, [sl]
 8003b1c:	4499      	add	r9, r3
 8003b1e:	2200      	movs	r2, #0
 8003b20:	2300      	movs	r3, #0
 8003b22:	4620      	mov	r0, r4
 8003b24:	4629      	mov	r1, r5
 8003b26:	f7fc ffef 	bl	8000b08 <__aeabi_dcmpeq>
 8003b2a:	b938      	cbnz	r0, 8003b3c <__cvt+0xac>
 8003b2c:	2230      	movs	r2, #48	; 0x30
 8003b2e:	9b03      	ldr	r3, [sp, #12]
 8003b30:	454b      	cmp	r3, r9
 8003b32:	d205      	bcs.n	8003b40 <__cvt+0xb0>
 8003b34:	1c59      	adds	r1, r3, #1
 8003b36:	9103      	str	r1, [sp, #12]
 8003b38:	701a      	strb	r2, [r3, #0]
 8003b3a:	e7f8      	b.n	8003b2e <__cvt+0x9e>
 8003b3c:	f8cd 900c 	str.w	r9, [sp, #12]
 8003b40:	9b03      	ldr	r3, [sp, #12]
 8003b42:	9a0e      	ldr	r2, [sp, #56]	; 0x38
 8003b44:	eba3 0308 	sub.w	r3, r3, r8
 8003b48:	4640      	mov	r0, r8
 8003b4a:	6013      	str	r3, [r2, #0]
 8003b4c:	b004      	add	sp, #16
 8003b4e:	e8bd 87f0 	ldmia.w	sp!, {r4, r5, r6, r7, r8, r9, sl, pc}

08003b52 <__exponent>:
 8003b52:	b5f7      	push	{r0, r1, r2, r4, r5, r6, r7, lr}
 8003b54:	2900      	cmp	r1, #0
 8003b56:	4604      	mov	r4, r0
 8003b58:	bfba      	itte	lt
 8003b5a:	4249      	neglt	r1, r1
 8003b5c:	232d      	movlt	r3, #45	; 0x2d
 8003b5e:	232b      	movge	r3, #43	; 0x2b
 8003b60:	2909      	cmp	r1, #9
 8003b62:	f804 2b02 	strb.w	r2, [r4], #2
 8003b66:	7043      	strb	r3, [r0, #1]
 8003b68:	dd20      	ble.n	8003bac <__exponent+0x5a>
 8003b6a:	f10d 0307 	add.w	r3, sp, #7
 8003b6e:	461f      	mov	r7, r3
 8003b70:	260a      	movs	r6, #10
 8003b72:	fb91 f5f6 	sdiv	r5, r1, r6
 8003b76:	fb06 1115 	mls	r1, r6, r5, r1
 8003b7a:	3130      	adds	r1, #48	; 0x30
 8003b7c:	2d09      	cmp	r5, #9
 8003b7e:	f803 1c01 	strb.w	r1, [r3, #-1]
 8003b82:	f103 32ff 	add.w	r2, r3, #4294967295
 8003b86:	4629      	mov	r1, r5
 8003b88:	dc09      	bgt.n	8003b9e <__exponent+0x4c>
 8003b8a:	3130      	adds	r1, #48	; 0x30
 8003b8c:	3b02      	subs	r3, #2
 8003b8e:	f802 1c01 	strb.w	r1, [r2, #-1]
 8003b92:	42bb      	cmp	r3, r7
 8003b94:	4622      	mov	r2, r4
 8003b96:	d304      	bcc.n	8003ba2 <__exponent+0x50>
 8003b98:	1a10      	subs	r0, r2, r0
 8003b9a:	b003      	add	sp, #12
 8003b9c:	bdf0      	pop	{r4, r5, r6, r7, pc}
 8003b9e:	4613      	mov	r3, r2
 8003ba0:	e7e7      	b.n	8003b72 <__exponent+0x20>
 8003ba2:	f813 2b01 	ldrb.w	r2, [r3], #1
 8003ba6:	f804 2b01 	strb.w	r2, [r4], #1
 8003baa:	e7f2      	b.n	8003b92 <__exponent+0x40>
 8003bac:	2330      	movs	r3, #48	; 0x30
 8003bae:	4419      	add	r1, r3
 8003bb0:	7083      	strb	r3, [r0, #2]
 8003bb2:	1d02      	adds	r2, r0, #4
 8003bb4:	70c1      	strb	r1, [r0, #3]
 8003bb6:	e7ef      	b.n	8003b98 <__exponent+0x46>

08003bb8 <_printf_float>:
 8003bb8:	e92d 4ff0 	stmdb	sp!, {r4, r5, r6, r7, r8, r9, sl, fp, lr}
 8003bbc:	b08d      	sub	sp, #52	; 0x34
 8003bbe:	460c      	mov	r4, r1
 8003bc0:	f8dd 8058 	ldr.w	r8, [sp, #88]	; 0x58
 8003bc4:	4616      	mov	r6, r2
 8003bc6:	461f      	mov	r7, r3
 8003bc8:	4605      	mov	r5, r0
 8003bca:	f001 fa21 	bl	8005010 <_localeconv_r>
 8003bce:	6803      	ldr	r3, [r0, #0]
 8003bd0:	9304      	str	r3, [sp, #16]
 8003bd2:	4618      	mov	r0, r3
 8003bd4:	f7fc fb1c 	bl	8000210 <strlen>
 8003bd8:	2300      	movs	r3, #0
 8003bda:	930a      	str	r3, [sp, #40]	; 0x28
 8003bdc:	f8d8 3000 	ldr.w	r3, [r8]
 8003be0:	9005      	str	r0, [sp, #20]
 8003be2:	3307      	adds	r3, #7
 8003be4:	f023 0307 	bic.w	r3, r3, #7
 8003be8:	f103 0208 	add.w	r2, r3, #8
 8003bec:	f894 a018 	ldrb.w	sl, [r4, #24]
 8003bf0:	f8d4 b000 	ldr.w	fp, [r4]
 8003bf4:	f8c8 2000 	str.w	r2, [r8]
 8003bf8:	e9d3 2300 	ldrd	r2, r3, [r3]
 8003bfc:	e9c4 2312 	strd	r2, r3, [r4, #72]	; 0x48
 8003c00:	e9d4 8912 	ldrd	r8, r9, [r4, #72]	; 0x48
 8003c04:	f029 4300 	bic.w	r3, r9, #2147483648	; 0x80000000
 8003c08:	9307      	str	r3, [sp, #28]
 8003c0a:	f8cd 8018 	str.w	r8, [sp, #24]
 8003c0e:	f04f 32ff 	mov.w	r2, #4294967295
 8003c12:	4ba7      	ldr	r3, [pc, #668]	; (8003eb0 <_printf_float+0x2f8>)
 8003c14:	e9dd 0106 	ldrd	r0, r1, [sp, #24]
 8003c18:	f7fc ffa8 	bl	8000b6c <__aeabi_dcmpun>
 8003c1c:	bb70      	cbnz	r0, 8003c7c <_printf_float+0xc4>
 8003c1e:	f04f 32ff 	mov.w	r2, #4294967295
 8003c22:	4ba3      	ldr	r3, [pc, #652]	; (8003eb0 <_printf_float+0x2f8>)
 8003c24:	e9dd 0106 	ldrd	r0, r1, [sp, #24]
 8003c28:	f7fc ff82 	bl	8000b30 <__aeabi_dcmple>
 8003c2c:	bb30      	cbnz	r0, 8003c7c <_printf_float+0xc4>
 8003c2e:	2200      	movs	r2, #0
 8003c30:	2300      	movs	r3, #0
 8003c32:	4640      	mov	r0, r8
 8003c34:	4649      	mov	r1, r9
 8003c36:	f7fc ff71 	bl	8000b1c <__aeabi_dcmplt>
 8003c3a:	b110      	cbz	r0, 8003c42 <_printf_float+0x8a>
 8003c3c:	232d      	movs	r3, #45	; 0x2d
 8003c3e:	f884 3043 	strb.w	r3, [r4, #67]	; 0x43
 8003c42:	4a9c      	ldr	r2, [pc, #624]	; (8003eb4 <_printf_float+0x2fc>)
 8003c44:	4b9c      	ldr	r3, [pc, #624]	; (8003eb8 <_printf_float+0x300>)
 8003c46:	f1ba 0f47 	cmp.w	sl, #71	; 0x47
 8003c4a:	bf8c      	ite	hi
 8003c4c:	4690      	movhi	r8, r2
 8003c4e:	4698      	movls	r8, r3
 8003c50:	2303      	movs	r3, #3
 8003c52:	f02b 0204 	bic.w	r2, fp, #4
 8003c56:	6123      	str	r3, [r4, #16]
 8003c58:	6022      	str	r2, [r4, #0]
 8003c5a:	f04f 0900 	mov.w	r9, #0
 8003c5e:	9700      	str	r7, [sp, #0]
 8003c60:	4633      	mov	r3, r6
 8003c62:	aa0b      	add	r2, sp, #44	; 0x2c
 8003c64:	4621      	mov	r1, r4
 8003c66:	4628      	mov	r0, r5
 8003c68:	f000 f9e6 	bl	8004038 <_printf_common>
 8003c6c:	3001      	adds	r0, #1
 8003c6e:	f040 808d 	bne.w	8003d8c <_printf_float+0x1d4>
 8003c72:	f04f 30ff 	mov.w	r0, #4294967295
 8003c76:	b00d      	add	sp, #52	; 0x34
 8003c78:	e8bd 8ff0 	ldmia.w	sp!, {r4, r5, r6, r7, r8, r9, sl, fp, pc}
 8003c7c:	4642      	mov	r2, r8
 8003c7e:	464b      	mov	r3, r9
 8003c80:	4640      	mov	r0, r8
 8003c82:	4649      	mov	r1, r9
 8003c84:	f7fc ff72 	bl	8000b6c <__aeabi_dcmpun>
 8003c88:	b110      	cbz	r0, 8003c90 <_printf_float+0xd8>
 8003c8a:	4a8c      	ldr	r2, [pc, #560]	; (8003ebc <_printf_float+0x304>)
 8003c8c:	4b8c      	ldr	r3, [pc, #560]	; (8003ec0 <_printf_float+0x308>)
 8003c8e:	e7da      	b.n	8003c46 <_printf_float+0x8e>
 8003c90:	6861      	ldr	r1, [r4, #4]
 8003c92:	1c4b      	adds	r3, r1, #1
 8003c94:	f44b 6280 	orr.w	r2, fp, #1024	; 0x400
 8003c98:	a80a      	add	r0, sp, #40	; 0x28
 8003c9a:	d13e      	bne.n	8003d1a <_printf_float+0x162>
 8003c9c:	2306      	movs	r3, #6
 8003c9e:	6063      	str	r3, [r4, #4]
 8003ca0:	2300      	movs	r3, #0
 8003ca2:	e9cd 0302 	strd	r0, r3, [sp, #8]
 8003ca6:	ab09      	add	r3, sp, #36	; 0x24
 8003ca8:	9300      	str	r3, [sp, #0]
 8003caa:	ec49 8b10 	vmov	d0, r8, r9
 8003cae:	f10d 0323 	add.w	r3, sp, #35	; 0x23
 8003cb2:	6022      	str	r2, [r4, #0]
 8003cb4:	f8cd a004 	str.w	sl, [sp, #4]
 8003cb8:	6861      	ldr	r1, [r4, #4]
 8003cba:	4628      	mov	r0, r5
 8003cbc:	f7ff fee8 	bl	8003a90 <__cvt>
 8003cc0:	f00a 03df 	and.w	r3, sl, #223	; 0xdf
 8003cc4:	2b47      	cmp	r3, #71	; 0x47
 8003cc6:	4680      	mov	r8, r0
 8003cc8:	d109      	bne.n	8003cde <_printf_float+0x126>
 8003cca:	9b09      	ldr	r3, [sp, #36]	; 0x24
 8003ccc:	1cd8      	adds	r0, r3, #3
 8003cce:	db02      	blt.n	8003cd6 <_printf_float+0x11e>
 8003cd0:	6862      	ldr	r2, [r4, #4]
 8003cd2:	4293      	cmp	r3, r2
 8003cd4:	dd47      	ble.n	8003d66 <_printf_float+0x1ae>
 8003cd6:	f1aa 0a02 	sub.w	sl, sl, #2
 8003cda:	fa5f fa8a 	uxtb.w	sl, sl
 8003cde:	f1ba 0f65 	cmp.w	sl, #101	; 0x65
 8003ce2:	9909      	ldr	r1, [sp, #36]	; 0x24
 8003ce4:	d824      	bhi.n	8003d30 <_printf_float+0x178>
 8003ce6:	3901      	subs	r1, #1
 8003ce8:	4652      	mov	r2, sl
 8003cea:	f104 0050 	add.w	r0, r4, #80	; 0x50
 8003cee:	9109      	str	r1, [sp, #36]	; 0x24
 8003cf0:	f7ff ff2f 	bl	8003b52 <__exponent>
 8003cf4:	9a0a      	ldr	r2, [sp, #40]	; 0x28
 8003cf6:	1813      	adds	r3, r2, r0
 8003cf8:	2a01      	cmp	r2, #1
 8003cfa:	4681      	mov	r9, r0
 8003cfc:	6123      	str	r3, [r4, #16]
 8003cfe:	dc02      	bgt.n	8003d06 <_printf_float+0x14e>
 8003d00:	6822      	ldr	r2, [r4, #0]
 8003d02:	07d1      	lsls	r1, r2, #31
 8003d04:	d501      	bpl.n	8003d0a <_printf_float+0x152>
 8003d06:	3301      	adds	r3, #1
 8003d08:	6123      	str	r3, [r4, #16]
 8003d0a:	f89d 3023 	ldrb.w	r3, [sp, #35]	; 0x23
 8003d0e:	2b00      	cmp	r3, #0
 8003d10:	d0a5      	beq.n	8003c5e <_printf_float+0xa6>
 8003d12:	232d      	movs	r3, #45	; 0x2d
 8003d14:	f884 3043 	strb.w	r3, [r4, #67]	; 0x43
 8003d18:	e7a1      	b.n	8003c5e <_printf_float+0xa6>
 8003d1a:	f1ba 0f67 	cmp.w	sl, #103	; 0x67
 8003d1e:	f000 8177 	beq.w	8004010 <_printf_float+0x458>
 8003d22:	f1ba 0f47 	cmp.w	sl, #71	; 0x47
 8003d26:	d1bb      	bne.n	8003ca0 <_printf_float+0xe8>
 8003d28:	2900      	cmp	r1, #0
 8003d2a:	d1b9      	bne.n	8003ca0 <_printf_float+0xe8>
 8003d2c:	2301      	movs	r3, #1
 8003d2e:	e7b6      	b.n	8003c9e <_printf_float+0xe6>
 8003d30:	f1ba 0f66 	cmp.w	sl, #102	; 0x66
 8003d34:	d119      	bne.n	8003d6a <_printf_float+0x1b2>
 8003d36:	2900      	cmp	r1, #0
 8003d38:	6863      	ldr	r3, [r4, #4]
 8003d3a:	dd0c      	ble.n	8003d56 <_printf_float+0x19e>
 8003d3c:	6121      	str	r1, [r4, #16]
 8003d3e:	b913      	cbnz	r3, 8003d46 <_printf_float+0x18e>
 8003d40:	6822      	ldr	r2, [r4, #0]
 8003d42:	07d2      	lsls	r2, r2, #31
 8003d44:	d502      	bpl.n	8003d4c <_printf_float+0x194>
 8003d46:	3301      	adds	r3, #1
 8003d48:	440b      	add	r3, r1
 8003d4a:	6123      	str	r3, [r4, #16]
 8003d4c:	9b09      	ldr	r3, [sp, #36]	; 0x24
 8003d4e:	65a3      	str	r3, [r4, #88]	; 0x58
 8003d50:	f04f 0900 	mov.w	r9, #0
 8003d54:	e7d9      	b.n	8003d0a <_printf_float+0x152>
 8003d56:	b913      	cbnz	r3, 8003d5e <_printf_float+0x1a6>
 8003d58:	6822      	ldr	r2, [r4, #0]
 8003d5a:	07d0      	lsls	r0, r2, #31
 8003d5c:	d501      	bpl.n	8003d62 <_printf_float+0x1aa>
 8003d5e:	3302      	adds	r3, #2
 8003d60:	e7f3      	b.n	8003d4a <_printf_float+0x192>
 8003d62:	2301      	movs	r3, #1
 8003d64:	e7f1      	b.n	8003d4a <_printf_float+0x192>
 8003d66:	f04f 0a67 	mov.w	sl, #103	; 0x67
 8003d6a:	e9dd 3209 	ldrd	r3, r2, [sp, #36]	; 0x24
 8003d6e:	4293      	cmp	r3, r2
 8003d70:	db05      	blt.n	8003d7e <_printf_float+0x1c6>
 8003d72:	6822      	ldr	r2, [r4, #0]
 8003d74:	6123      	str	r3, [r4, #16]
 8003d76:	07d1      	lsls	r1, r2, #31
 8003d78:	d5e8      	bpl.n	8003d4c <_printf_float+0x194>
 8003d7a:	3301      	adds	r3, #1
 8003d7c:	e7e5      	b.n	8003d4a <_printf_float+0x192>
 8003d7e:	2b00      	cmp	r3, #0
 8003d80:	bfd4      	ite	le
 8003d82:	f1c3 0302 	rsble	r3, r3, #2
 8003d86:	2301      	movgt	r3, #1
 8003d88:	4413      	add	r3, r2
 8003d8a:	e7de      	b.n	8003d4a <_printf_float+0x192>
 8003d8c:	6823      	ldr	r3, [r4, #0]
 8003d8e:	055a      	lsls	r2, r3, #21
 8003d90:	d407      	bmi.n	8003da2 <_printf_float+0x1ea>
 8003d92:	6923      	ldr	r3, [r4, #16]
 8003d94:	4642      	mov	r2, r8
 8003d96:	4631      	mov	r1, r6
 8003d98:	4628      	mov	r0, r5
 8003d9a:	47b8      	blx	r7
 8003d9c:	3001      	adds	r0, #1
 8003d9e:	d12b      	bne.n	8003df8 <_printf_float+0x240>
 8003da0:	e767      	b.n	8003c72 <_printf_float+0xba>
 8003da2:	f1ba 0f65 	cmp.w	sl, #101	; 0x65
 8003da6:	f240 80dc 	bls.w	8003f62 <_printf_float+0x3aa>
 8003daa:	2200      	movs	r2, #0
 8003dac:	2300      	movs	r3, #0
 8003dae:	e9d4 0112 	ldrd	r0, r1, [r4, #72]	; 0x48
 8003db2:	f7fc fea9 	bl	8000b08 <__aeabi_dcmpeq>
 8003db6:	2800      	cmp	r0, #0
 8003db8:	d033      	beq.n	8003e22 <_printf_float+0x26a>
 8003dba:	2301      	movs	r3, #1
 8003dbc:	4a41      	ldr	r2, [pc, #260]	; (8003ec4 <_printf_float+0x30c>)
 8003dbe:	4631      	mov	r1, r6
 8003dc0:	4628      	mov	r0, r5
 8003dc2:	47b8      	blx	r7
 8003dc4:	3001      	adds	r0, #1
 8003dc6:	f43f af54 	beq.w	8003c72 <_printf_float+0xba>
 8003dca:	e9dd 2309 	ldrd	r2, r3, [sp, #36]	; 0x24
 8003dce:	429a      	cmp	r2, r3
 8003dd0:	db02      	blt.n	8003dd8 <_printf_float+0x220>
 8003dd2:	6823      	ldr	r3, [r4, #0]
 8003dd4:	07d8      	lsls	r0, r3, #31
 8003dd6:	d50f      	bpl.n	8003df8 <_printf_float+0x240>
 8003dd8:	e9dd 2304 	ldrd	r2, r3, [sp, #16]
 8003ddc:	4631      	mov	r1, r6
 8003dde:	4628      	mov	r0, r5
 8003de0:	47b8      	blx	r7
 8003de2:	3001      	adds	r0, #1
 8003de4:	f43f af45 	beq.w	8003c72 <_printf_float+0xba>
 8003de8:	f04f 0800 	mov.w	r8, #0
 8003dec:	f104 091a 	add.w	r9, r4, #26
 8003df0:	9b0a      	ldr	r3, [sp, #40]	; 0x28
 8003df2:	3b01      	subs	r3, #1
 8003df4:	4543      	cmp	r3, r8
 8003df6:	dc09      	bgt.n	8003e0c <_printf_float+0x254>
 8003df8:	6823      	ldr	r3, [r4, #0]
 8003dfa:	079b      	lsls	r3, r3, #30
 8003dfc:	f100 8103 	bmi.w	8004006 <_printf_float+0x44e>
 8003e00:	68e0      	ldr	r0, [r4, #12]
 8003e02:	9b0b      	ldr	r3, [sp, #44]	; 0x2c
 8003e04:	4298      	cmp	r0, r3
 8003e06:	bfb8      	it	lt
 8003e08:	4618      	movlt	r0, r3
 8003e0a:	e734      	b.n	8003c76 <_printf_float+0xbe>
 8003e0c:	2301      	movs	r3, #1
 8003e0e:	464a      	mov	r2, r9
 8003e10:	4631      	mov	r1, r6
 8003e12:	4628      	mov	r0, r5
 8003e14:	47b8      	blx	r7
 8003e16:	3001      	adds	r0, #1
 8003e18:	f43f af2b 	beq.w	8003c72 <_printf_float+0xba>
 8003e1c:	f108 0801 	add.w	r8, r8, #1
 8003e20:	e7e6      	b.n	8003df0 <_printf_float+0x238>
 8003e22:	9b09      	ldr	r3, [sp, #36]	; 0x24
 8003e24:	2b00      	cmp	r3, #0
 8003e26:	dc2b      	bgt.n	8003e80 <_printf_float+0x2c8>
 8003e28:	2301      	movs	r3, #1
 8003e2a:	4a26      	ldr	r2, [pc, #152]	; (8003ec4 <_printf_float+0x30c>)
 8003e2c:	4631      	mov	r1, r6
 8003e2e:	4628      	mov	r0, r5
 8003e30:	47b8      	blx	r7
 8003e32:	3001      	adds	r0, #1
 8003e34:	f43f af1d 	beq.w	8003c72 <_printf_float+0xba>
 8003e38:	9b09      	ldr	r3, [sp, #36]	; 0x24
 8003e3a:	b923      	cbnz	r3, 8003e46 <_printf_float+0x28e>
 8003e3c:	9b0a      	ldr	r3, [sp, #40]	; 0x28
 8003e3e:	b913      	cbnz	r3, 8003e46 <_printf_float+0x28e>
 8003e40:	6823      	ldr	r3, [r4, #0]
 8003e42:	07d9      	lsls	r1, r3, #31
 8003e44:	d5d8      	bpl.n	8003df8 <_printf_float+0x240>
 8003e46:	e9dd 2304 	ldrd	r2, r3, [sp, #16]
 8003e4a:	4631      	mov	r1, r6
 8003e4c:	4628      	mov	r0, r5
 8003e4e:	47b8      	blx	r7
 8003e50:	3001      	adds	r0, #1
 8003e52:	f43f af0e 	beq.w	8003c72 <_printf_float+0xba>
 8003e56:	f04f 0900 	mov.w	r9, #0
 8003e5a:	f104 0a1a 	add.w	sl, r4, #26
 8003e5e:	9b09      	ldr	r3, [sp, #36]	; 0x24
 8003e60:	425b      	negs	r3, r3
 8003e62:	454b      	cmp	r3, r9
 8003e64:	dc01      	bgt.n	8003e6a <_printf_float+0x2b2>
 8003e66:	9b0a      	ldr	r3, [sp, #40]	; 0x28
 8003e68:	e794      	b.n	8003d94 <_printf_float+0x1dc>
 8003e6a:	2301      	movs	r3, #1
 8003e6c:	4652      	mov	r2, sl
 8003e6e:	4631      	mov	r1, r6
 8003e70:	4628      	mov	r0, r5
 8003e72:	47b8      	blx	r7
 8003e74:	3001      	adds	r0, #1
 8003e76:	f43f aefc 	beq.w	8003c72 <_printf_float+0xba>
 8003e7a:	f109 0901 	add.w	r9, r9, #1
 8003e7e:	e7ee      	b.n	8003e5e <_printf_float+0x2a6>
 8003e80:	9a0a      	ldr	r2, [sp, #40]	; 0x28
 8003e82:	6da3      	ldr	r3, [r4, #88]	; 0x58
 8003e84:	429a      	cmp	r2, r3
 8003e86:	bfa8      	it	ge
 8003e88:	461a      	movge	r2, r3
 8003e8a:	2a00      	cmp	r2, #0
 8003e8c:	4691      	mov	r9, r2
 8003e8e:	dd07      	ble.n	8003ea0 <_printf_float+0x2e8>
 8003e90:	4613      	mov	r3, r2
 8003e92:	4631      	mov	r1, r6
 8003e94:	4642      	mov	r2, r8
 8003e96:	4628      	mov	r0, r5
 8003e98:	47b8      	blx	r7
 8003e9a:	3001      	adds	r0, #1
 8003e9c:	f43f aee9 	beq.w	8003c72 <_printf_float+0xba>
 8003ea0:	f104 031a 	add.w	r3, r4, #26
 8003ea4:	f04f 0b00 	mov.w	fp, #0
 8003ea8:	ea29 79e9 	bic.w	r9, r9, r9, asr #31
 8003eac:	9306      	str	r3, [sp, #24]
 8003eae:	e015      	b.n	8003edc <_printf_float+0x324>
 8003eb0:	7fefffff 	.word	0x7fefffff
 8003eb4:	08005b48 	.word	0x08005b48
 8003eb8:	08005b44 	.word	0x08005b44
 8003ebc:	08005b50 	.word	0x08005b50
 8003ec0:	08005b4c 	.word	0x08005b4c
 8003ec4:	08005b54 	.word	0x08005b54
 8003ec8:	2301      	movs	r3, #1
 8003eca:	9a06      	ldr	r2, [sp, #24]
 8003ecc:	4631      	mov	r1, r6
 8003ece:	4628      	mov	r0, r5
 8003ed0:	47b8      	blx	r7
 8003ed2:	3001      	adds	r0, #1
 8003ed4:	f43f aecd 	beq.w	8003c72 <_printf_float+0xba>
 8003ed8:	f10b 0b01 	add.w	fp, fp, #1
 8003edc:	f8d4 a058 	ldr.w	sl, [r4, #88]	; 0x58
 8003ee0:	ebaa 0309 	sub.w	r3, sl, r9
 8003ee4:	455b      	cmp	r3, fp
 8003ee6:	dcef      	bgt.n	8003ec8 <_printf_float+0x310>
 8003ee8:	e9dd 2309 	ldrd	r2, r3, [sp, #36]	; 0x24
 8003eec:	429a      	cmp	r2, r3
 8003eee:	44d0      	add	r8, sl
 8003ef0:	db15      	blt.n	8003f1e <_printf_float+0x366>
 8003ef2:	6823      	ldr	r3, [r4, #0]
 8003ef4:	07da      	lsls	r2, r3, #31
 8003ef6:	d412      	bmi.n	8003f1e <_printf_float+0x366>
 8003ef8:	9b0a      	ldr	r3, [sp, #40]	; 0x28
 8003efa:	9909      	ldr	r1, [sp, #36]	; 0x24
 8003efc:	eba3 020a 	sub.w	r2, r3, sl
 8003f00:	eba3 0a01 	sub.w	sl, r3, r1
 8003f04:	4592      	cmp	sl, r2
 8003f06:	bfa8      	it	ge
 8003f08:	4692      	movge	sl, r2
 8003f0a:	f1ba 0f00 	cmp.w	sl, #0
 8003f0e:	dc0e      	bgt.n	8003f2e <_printf_float+0x376>
 8003f10:	f04f 0800 	mov.w	r8, #0
 8003f14:	ea2a 7aea 	bic.w	sl, sl, sl, asr #31
 8003f18:	f104 091a 	add.w	r9, r4, #26
 8003f1c:	e019      	b.n	8003f52 <_printf_float+0x39a>
 8003f1e:	e9dd 2304 	ldrd	r2, r3, [sp, #16]
 8003f22:	4631      	mov	r1, r6
 8003f24:	4628      	mov	r0, r5
 8003f26:	47b8      	blx	r7
 8003f28:	3001      	adds	r0, #1
 8003f2a:	d1e5      	bne.n	8003ef8 <_printf_float+0x340>
 8003f2c:	e6a1      	b.n	8003c72 <_printf_float+0xba>
 8003f2e:	4653      	mov	r3, sl
 8003f30:	4642      	mov	r2, r8
 8003f32:	4631      	mov	r1, r6
 8003f34:	4628      	mov	r0, r5
 8003f36:	47b8      	blx	r7
 8003f38:	3001      	adds	r0, #1
 8003f3a:	d1e9      	bne.n	8003f10 <_printf_float+0x358>
 8003f3c:	e699      	b.n	8003c72 <_printf_float+0xba>
 8003f3e:	2301      	movs	r3, #1
 8003f40:	464a      	mov	r2, r9
 8003f42:	4631      	mov	r1, r6
 8003f44:	4628      	mov	r0, r5
 8003f46:	47b8      	blx	r7
 8003f48:	3001      	adds	r0, #1
 8003f4a:	f43f ae92 	beq.w	8003c72 <_printf_float+0xba>
 8003f4e:	f108 0801 	add.w	r8, r8, #1
 8003f52:	e9dd 2309 	ldrd	r2, r3, [sp, #36]	; 0x24
 8003f56:	1a9b      	subs	r3, r3, r2
 8003f58:	eba3 030a 	sub.w	r3, r3, sl
 8003f5c:	4543      	cmp	r3, r8
 8003f5e:	dcee      	bgt.n	8003f3e <_printf_float+0x386>
 8003f60:	e74a      	b.n	8003df8 <_printf_float+0x240>
 8003f62:	9a0a      	ldr	r2, [sp, #40]	; 0x28
 8003f64:	2a01      	cmp	r2, #1
 8003f66:	dc01      	bgt.n	8003f6c <_printf_float+0x3b4>
 8003f68:	07db      	lsls	r3, r3, #31
 8003f6a:	d53a      	bpl.n	8003fe2 <_printf_float+0x42a>
 8003f6c:	2301      	movs	r3, #1
 8003f6e:	4642      	mov	r2, r8
 8003f70:	4631      	mov	r1, r6
 8003f72:	4628      	mov	r0, r5
 8003f74:	47b8      	blx	r7
 8003f76:	3001      	adds	r0, #1
 8003f78:	f43f ae7b 	beq.w	8003c72 <_printf_float+0xba>
 8003f7c:	e9dd 2304 	ldrd	r2, r3, [sp, #16]
 8003f80:	4631      	mov	r1, r6
 8003f82:	4628      	mov	r0, r5
 8003f84:	47b8      	blx	r7
 8003f86:	3001      	adds	r0, #1
 8003f88:	f108 0801 	add.w	r8, r8, #1
 8003f8c:	f43f ae71 	beq.w	8003c72 <_printf_float+0xba>
 8003f90:	9b0a      	ldr	r3, [sp, #40]	; 0x28
 8003f92:	2200      	movs	r2, #0
 8003f94:	f103 3aff 	add.w	sl, r3, #4294967295
 8003f98:	e9d4 0112 	ldrd	r0, r1, [r4, #72]	; 0x48
 8003f9c:	2300      	movs	r3, #0
 8003f9e:	f7fc fdb3 	bl	8000b08 <__aeabi_dcmpeq>
 8003fa2:	b9c8      	cbnz	r0, 8003fd8 <_printf_float+0x420>
 8003fa4:	4653      	mov	r3, sl
 8003fa6:	4642      	mov	r2, r8
 8003fa8:	4631      	mov	r1, r6
 8003faa:	4628      	mov	r0, r5
 8003fac:	47b8      	blx	r7
 8003fae:	3001      	adds	r0, #1
 8003fb0:	d10e      	bne.n	8003fd0 <_printf_float+0x418>
 8003fb2:	e65e      	b.n	8003c72 <_printf_float+0xba>
 8003fb4:	2301      	movs	r3, #1
 8003fb6:	4652      	mov	r2, sl
 8003fb8:	4631      	mov	r1, r6
 8003fba:	4628      	mov	r0, r5
 8003fbc:	47b8      	blx	r7
 8003fbe:	3001      	adds	r0, #1
 8003fc0:	f43f ae57 	beq.w	8003c72 <_printf_float+0xba>
 8003fc4:	f108 0801 	add.w	r8, r8, #1
 8003fc8:	9b0a      	ldr	r3, [sp, #40]	; 0x28
 8003fca:	3b01      	subs	r3, #1
 8003fcc:	4543      	cmp	r3, r8
 8003fce:	dcf1      	bgt.n	8003fb4 <_printf_float+0x3fc>
 8003fd0:	464b      	mov	r3, r9
 8003fd2:	f104 0250 	add.w	r2, r4, #80	; 0x50
 8003fd6:	e6de      	b.n	8003d96 <_printf_float+0x1de>
 8003fd8:	f04f 0800 	mov.w	r8, #0
 8003fdc:	f104 0a1a 	add.w	sl, r4, #26
 8003fe0:	e7f2      	b.n	8003fc8 <_printf_float+0x410>
 8003fe2:	2301      	movs	r3, #1
 8003fe4:	e7df      	b.n	8003fa6 <_printf_float+0x3ee>
 8003fe6:	2301      	movs	r3, #1
 8003fe8:	464a      	mov	r2, r9
 8003fea:	4631      	mov	r1, r6
 8003fec:	4628      	mov	r0, r5
 8003fee:	47b8      	blx	r7
 8003ff0:	3001      	adds	r0, #1
 8003ff2:	f43f ae3e 	beq.w	8003c72 <_printf_float+0xba>
 8003ff6:	f108 0801 	add.w	r8, r8, #1
 8003ffa:	68e3      	ldr	r3, [r4, #12]
 8003ffc:	9a0b      	ldr	r2, [sp, #44]	; 0x2c
 8003ffe:	1a9b      	subs	r3, r3, r2
 8004000:	4543      	cmp	r3, r8
 8004002:	dcf0      	bgt.n	8003fe6 <_printf_float+0x42e>
 8004004:	e6fc      	b.n	8003e00 <_printf_float+0x248>
 8004006:	f04f 0800 	mov.w	r8, #0
 800400a:	f104 0919 	add.w	r9, r4, #25
 800400e:	e7f4      	b.n	8003ffa <_printf_float+0x442>
 8004010:	2900      	cmp	r1, #0
 8004012:	f43f ae8b 	beq.w	8003d2c <_printf_float+0x174>
 8004016:	2300      	movs	r3, #0
 8004018:	e9cd 0302 	strd	r0, r3, [sp, #8]
 800401c:	ab09      	add	r3, sp, #36	; 0x24
 800401e:	9300      	str	r3, [sp, #0]
 8004020:	ec49 8b10 	vmov	d0, r8, r9
 8004024:	6022      	str	r2, [r4, #0]
 8004026:	f8cd a004 	str.w	sl, [sp, #4]
 800402a:	f10d 0323 	add.w	r3, sp, #35	; 0x23
 800402e:	4628      	mov	r0, r5
 8004030:	f7ff fd2e 	bl	8003a90 <__cvt>
 8004034:	4680      	mov	r8, r0
 8004036:	e648      	b.n	8003cca <_printf_float+0x112>

08004038 <_printf_common>:
 8004038:	e92d 47f0 	stmdb	sp!, {r4, r5, r6, r7, r8, r9, sl, lr}
 800403c:	4691      	mov	r9, r2
 800403e:	461f      	mov	r7, r3
 8004040:	688a      	ldr	r2, [r1, #8]
 8004042:	690b      	ldr	r3, [r1, #16]
 8004044:	f8dd 8020 	ldr.w	r8, [sp, #32]
 8004048:	4293      	cmp	r3, r2
 800404a:	bfb8      	it	lt
 800404c:	4613      	movlt	r3, r2
 800404e:	f8c9 3000 	str.w	r3, [r9]
 8004052:	f891 2043 	ldrb.w	r2, [r1, #67]	; 0x43
 8004056:	4606      	mov	r6, r0
 8004058:	460c      	mov	r4, r1
 800405a:	b112      	cbz	r2, 8004062 <_printf_common+0x2a>
 800405c:	3301      	adds	r3, #1
 800405e:	f8c9 3000 	str.w	r3, [r9]
 8004062:	6823      	ldr	r3, [r4, #0]
 8004064:	0699      	lsls	r1, r3, #26
 8004066:	bf42      	ittt	mi
 8004068:	f8d9 3000 	ldrmi.w	r3, [r9]
 800406c:	3302      	addmi	r3, #2
 800406e:	f8c9 3000 	strmi.w	r3, [r9]
 8004072:	6825      	ldr	r5, [r4, #0]
 8004074:	f015 0506 	ands.w	r5, r5, #6
 8004078:	d107      	bne.n	800408a <_printf_common+0x52>
 800407a:	f104 0a19 	add.w	sl, r4, #25
 800407e:	68e3      	ldr	r3, [r4, #12]
 8004080:	f8d9 2000 	ldr.w	r2, [r9]
 8004084:	1a9b      	subs	r3, r3, r2
 8004086:	42ab      	cmp	r3, r5
 8004088:	dc28      	bgt.n	80040dc <_printf_common+0xa4>
 800408a:	f894 3043 	ldrb.w	r3, [r4, #67]	; 0x43
 800408e:	6822      	ldr	r2, [r4, #0]
 8004090:	3300      	adds	r3, #0
 8004092:	bf18      	it	ne
 8004094:	2301      	movne	r3, #1
 8004096:	0692      	lsls	r2, r2, #26
 8004098:	d42d      	bmi.n	80040f6 <_printf_common+0xbe>
 800409a:	f104 0243 	add.w	r2, r4, #67	; 0x43
 800409e:	4639      	mov	r1, r7
 80040a0:	4630      	mov	r0, r6
 80040a2:	47c0      	blx	r8
 80040a4:	3001      	adds	r0, #1
 80040a6:	d020      	beq.n	80040ea <_printf_common+0xb2>
 80040a8:	6823      	ldr	r3, [r4, #0]
 80040aa:	68e5      	ldr	r5, [r4, #12]
 80040ac:	f8d9 2000 	ldr.w	r2, [r9]
 80040b0:	f003 0306 	and.w	r3, r3, #6
 80040b4:	2b04      	cmp	r3, #4
 80040b6:	bf08      	it	eq
 80040b8:	1aad      	subeq	r5, r5, r2
 80040ba:	68a3      	ldr	r3, [r4, #8]
 80040bc:	6922      	ldr	r2, [r4, #16]
 80040be:	bf0c      	ite	eq
 80040c0:	ea25 75e5 	biceq.w	r5, r5, r5, asr #31
 80040c4:	2500      	movne	r5, #0
 80040c6:	4293      	cmp	r3, r2
 80040c8:	bfc4      	itt	gt
 80040ca:	1a9b      	subgt	r3, r3, r2
 80040cc:	18ed      	addgt	r5, r5, r3
 80040ce:	f04f 0900 	mov.w	r9, #0
 80040d2:	341a      	adds	r4, #26
 80040d4:	454d      	cmp	r5, r9
 80040d6:	d11a      	bne.n	800410e <_printf_common+0xd6>
 80040d8:	2000      	movs	r0, #0
 80040da:	e008      	b.n	80040ee <_printf_common+0xb6>
 80040dc:	2301      	movs	r3, #1
 80040de:	4652      	mov	r2, sl
 80040e0:	4639      	mov	r1, r7
 80040e2:	4630      	mov	r0, r6
 80040e4:	47c0      	blx	r8
 80040e6:	3001      	adds	r0, #1
 80040e8:	d103      	bne.n	80040f2 <_printf_common+0xba>
 80040ea:	f04f 30ff 	mov.w	r0, #4294967295
 80040ee:	e8bd 87f0 	ldmia.w	sp!, {r4, r5, r6, r7, r8, r9, sl, pc}
 80040f2:	3501      	adds	r5, #1
 80040f4:	e7c3      	b.n	800407e <_printf_common+0x46>
 80040f6:	18e1      	adds	r1, r4, r3
 80040f8:	1c5a      	adds	r2, r3, #1
 80040fa:	2030      	movs	r0, #48	; 0x30
 80040fc:	f881 0043 	strb.w	r0, [r1, #67]	; 0x43
 8004100:	4422      	add	r2, r4
 8004102:	f894 1045 	ldrb.w	r1, [r4, #69]	; 0x45
 8004106:	f882 1043 	strb.w	r1, [r2, #67]	; 0x43
 800410a:	3302      	adds	r3, #2
 800410c:	e7c5      	b.n	800409a <_printf_common+0x62>
 800410e:	2301      	movs	r3, #1
 8004110:	4622      	mov	r2, r4
 8004112:	4639      	mov	r1, r7
 8004114:	4630      	mov	r0, r6
 8004116:	47c0      	blx	r8
 8004118:	3001      	adds	r0, #1
 800411a:	d0e6      	beq.n	80040ea <_printf_common+0xb2>
 800411c:	f109 0901 	add.w	r9, r9, #1
 8004120:	e7d8      	b.n	80040d4 <_printf_common+0x9c>
	...

08004124 <_printf_i>:
 8004124:	e92d 43f0 	stmdb	sp!, {r4, r5, r6, r7, r8, r9, lr}
 8004128:	f101 0c43 	add.w	ip, r1, #67	; 0x43
 800412c:	460c      	mov	r4, r1
 800412e:	7e09      	ldrb	r1, [r1, #24]
 8004130:	b085      	sub	sp, #20
 8004132:	296e      	cmp	r1, #110	; 0x6e
 8004134:	4617      	mov	r7, r2
 8004136:	4606      	mov	r6, r0
 8004138:	4698      	mov	r8, r3
 800413a:	9a0c      	ldr	r2, [sp, #48]	; 0x30
 800413c:	f000 80b3 	beq.w	80042a6 <_printf_i+0x182>
 8004140:	d822      	bhi.n	8004188 <_printf_i+0x64>
 8004142:	2963      	cmp	r1, #99	; 0x63
 8004144:	d036      	beq.n	80041b4 <_printf_i+0x90>
 8004146:	d80a      	bhi.n	800415e <_printf_i+0x3a>
 8004148:	2900      	cmp	r1, #0
 800414a:	f000 80b9 	beq.w	80042c0 <_printf_i+0x19c>
 800414e:	2958      	cmp	r1, #88	; 0x58
 8004150:	f000 8083 	beq.w	800425a <_printf_i+0x136>
 8004154:	f104 0542 	add.w	r5, r4, #66	; 0x42
 8004158:	f884 1042 	strb.w	r1, [r4, #66]	; 0x42
 800415c:	e032      	b.n	80041c4 <_printf_i+0xa0>
 800415e:	2964      	cmp	r1, #100	; 0x64
 8004160:	d001      	beq.n	8004166 <_printf_i+0x42>
 8004162:	2969      	cmp	r1, #105	; 0x69
 8004164:	d1f6      	bne.n	8004154 <_printf_i+0x30>
 8004166:	6820      	ldr	r0, [r4, #0]
 8004168:	6813      	ldr	r3, [r2, #0]
 800416a:	0605      	lsls	r5, r0, #24
 800416c:	f103 0104 	add.w	r1, r3, #4
 8004170:	d52a      	bpl.n	80041c8 <_printf_i+0xa4>
 8004172:	681b      	ldr	r3, [r3, #0]
 8004174:	6011      	str	r1, [r2, #0]
 8004176:	2b00      	cmp	r3, #0
 8004178:	da03      	bge.n	8004182 <_printf_i+0x5e>
 800417a:	222d      	movs	r2, #45	; 0x2d
 800417c:	425b      	negs	r3, r3
 800417e:	f884 2043 	strb.w	r2, [r4, #67]	; 0x43
 8004182:	486f      	ldr	r0, [pc, #444]	; (8004340 <_printf_i+0x21c>)
 8004184:	220a      	movs	r2, #10
 8004186:	e039      	b.n	80041fc <_printf_i+0xd8>
 8004188:	2973      	cmp	r1, #115	; 0x73
 800418a:	f000 809d 	beq.w	80042c8 <_printf_i+0x1a4>
 800418e:	d808      	bhi.n	80041a2 <_printf_i+0x7e>
 8004190:	296f      	cmp	r1, #111	; 0x6f
 8004192:	d020      	beq.n	80041d6 <_printf_i+0xb2>
 8004194:	2970      	cmp	r1, #112	; 0x70
 8004196:	d1dd      	bne.n	8004154 <_printf_i+0x30>
 8004198:	6823      	ldr	r3, [r4, #0]
 800419a:	f043 0320 	orr.w	r3, r3, #32
 800419e:	6023      	str	r3, [r4, #0]
 80041a0:	e003      	b.n	80041aa <_printf_i+0x86>
 80041a2:	2975      	cmp	r1, #117	; 0x75
 80041a4:	d017      	beq.n	80041d6 <_printf_i+0xb2>
 80041a6:	2978      	cmp	r1, #120	; 0x78
 80041a8:	d1d4      	bne.n	8004154 <_printf_i+0x30>
 80041aa:	2378      	movs	r3, #120	; 0x78
 80041ac:	f884 3045 	strb.w	r3, [r4, #69]	; 0x45
 80041b0:	4864      	ldr	r0, [pc, #400]	; (8004344 <_printf_i+0x220>)
 80041b2:	e055      	b.n	8004260 <_printf_i+0x13c>
 80041b4:	6813      	ldr	r3, [r2, #0]
 80041b6:	1d19      	adds	r1, r3, #4
 80041b8:	681b      	ldr	r3, [r3, #0]
 80041ba:	6011      	str	r1, [r2, #0]
 80041bc:	f104 0542 	add.w	r5, r4, #66	; 0x42
 80041c0:	f884 3042 	strb.w	r3, [r4, #66]	; 0x42
 80041c4:	2301      	movs	r3, #1
 80041c6:	e08c      	b.n	80042e2 <_printf_i+0x1be>
 80041c8:	681b      	ldr	r3, [r3, #0]
 80041ca:	6011      	str	r1, [r2, #0]
 80041cc:	f010 0f40 	tst.w	r0, #64	; 0x40
 80041d0:	bf18      	it	ne
 80041d2:	b21b      	sxthne	r3, r3
 80041d4:	e7cf      	b.n	8004176 <_printf_i+0x52>
 80041d6:	6813      	ldr	r3, [r2, #0]
 80041d8:	6825      	ldr	r5, [r4, #0]
 80041da:	1d18      	adds	r0, r3, #4
 80041dc:	6010      	str	r0, [r2, #0]
 80041de:	0628      	lsls	r0, r5, #24
 80041e0:	d501      	bpl.n	80041e6 <_printf_i+0xc2>
 80041e2:	681b      	ldr	r3, [r3, #0]
 80041e4:	e002      	b.n	80041ec <_printf_i+0xc8>
 80041e6:	0668      	lsls	r0, r5, #25
 80041e8:	d5fb      	bpl.n	80041e2 <_printf_i+0xbe>
 80041ea:	881b      	ldrh	r3, [r3, #0]
 80041ec:	4854      	ldr	r0, [pc, #336]	; (8004340 <_printf_i+0x21c>)
 80041ee:	296f      	cmp	r1, #111	; 0x6f
 80041f0:	bf14      	ite	ne
 80041f2:	220a      	movne	r2, #10
 80041f4:	2208      	moveq	r2, #8
 80041f6:	2100      	movs	r1, #0
 80041f8:	f884 1043 	strb.w	r1, [r4, #67]	; 0x43
 80041fc:	6865      	ldr	r5, [r4, #4]
 80041fe:	60a5      	str	r5, [r4, #8]
 8004200:	2d00      	cmp	r5, #0
 8004202:	f2c0 8095 	blt.w	8004330 <_printf_i+0x20c>
 8004206:	6821      	ldr	r1, [r4, #0]
 8004208:	f021 0104 	bic.w	r1, r1, #4
 800420c:	6021      	str	r1, [r4, #0]
 800420e:	2b00      	cmp	r3, #0
 8004210:	d13d      	bne.n	800428e <_printf_i+0x16a>
 8004212:	2d00      	cmp	r5, #0
 8004214:	f040 808e 	bne.w	8004334 <_printf_i+0x210>
 8004218:	4665      	mov	r5, ip
 800421a:	2a08      	cmp	r2, #8
 800421c:	d10b      	bne.n	8004236 <_printf_i+0x112>
 800421e:	6823      	ldr	r3, [r4, #0]
 8004220:	07db      	lsls	r3, r3, #31
 8004222:	d508      	bpl.n	8004236 <_printf_i+0x112>
 8004224:	6923      	ldr	r3, [r4, #16]
 8004226:	6862      	ldr	r2, [r4, #4]
 8004228:	429a      	cmp	r2, r3
 800422a:	bfde      	ittt	le
 800422c:	2330      	movle	r3, #48	; 0x30
 800422e:	f805 3c01 	strble.w	r3, [r5, #-1]
 8004232:	f105 35ff 	addle.w	r5, r5, #4294967295
 8004236:	ebac 0305 	sub.w	r3, ip, r5
 800423a:	6123      	str	r3, [r4, #16]
 800423c:	f8cd 8000 	str.w	r8, [sp]
 8004240:	463b      	mov	r3, r7
 8004242:	aa03      	add	r2, sp, #12
 8004244:	4621      	mov	r1, r4
 8004246:	4630      	mov	r0, r6
 8004248:	f7ff fef6 	bl	8004038 <_printf_common>
 800424c:	3001      	adds	r0, #1
 800424e:	d14d      	bne.n	80042ec <_printf_i+0x1c8>
 8004250:	f04f 30ff 	mov.w	r0, #4294967295
 8004254:	b005      	add	sp, #20
 8004256:	e8bd 83f0 	ldmia.w	sp!, {r4, r5, r6, r7, r8, r9, pc}
 800425a:	4839      	ldr	r0, [pc, #228]	; (8004340 <_printf_i+0x21c>)
 800425c:	f884 1045 	strb.w	r1, [r4, #69]	; 0x45
 8004260:	6813      	ldr	r3, [r2, #0]
 8004262:	6821      	ldr	r1, [r4, #0]
 8004264:	1d1d      	adds	r5, r3, #4
 8004266:	681b      	ldr	r3, [r3, #0]
 8004268:	6015      	str	r5, [r2, #0]
 800426a:	060a      	lsls	r2, r1, #24
 800426c:	d50b      	bpl.n	8004286 <_printf_i+0x162>
 800426e:	07ca      	lsls	r2, r1, #31
 8004270:	bf44      	itt	mi
 8004272:	f041 0120 	orrmi.w	r1, r1, #32
 8004276:	6021      	strmi	r1, [r4, #0]
 8004278:	b91b      	cbnz	r3, 8004282 <_printf_i+0x15e>
 800427a:	6822      	ldr	r2, [r4, #0]
 800427c:	f022 0220 	bic.w	r2, r2, #32
 8004280:	6022      	str	r2, [r4, #0]
 8004282:	2210      	movs	r2, #16
 8004284:	e7b7      	b.n	80041f6 <_printf_i+0xd2>
 8004286:	064d      	lsls	r5, r1, #25
 8004288:	bf48      	it	mi
 800428a:	b29b      	uxthmi	r3, r3
 800428c:	e7ef      	b.n	800426e <_printf_i+0x14a>
 800428e:	4665      	mov	r5, ip
 8004290:	fbb3 f1f2 	udiv	r1, r3, r2
 8004294:	fb02 3311 	mls	r3, r2, r1, r3
 8004298:	5cc3      	ldrb	r3, [r0, r3]
 800429a:	f805 3d01 	strb.w	r3, [r5, #-1]!
 800429e:	460b      	mov	r3, r1
 80042a0:	2900      	cmp	r1, #0
 80042a2:	d1f5      	bne.n	8004290 <_printf_i+0x16c>
 80042a4:	e7b9      	b.n	800421a <_printf_i+0xf6>
 80042a6:	6813      	ldr	r3, [r2, #0]
 80042a8:	6825      	ldr	r5, [r4, #0]
 80042aa:	6961      	ldr	r1, [r4, #20]
 80042ac:	1d18      	adds	r0, r3, #4
 80042ae:	6010      	str	r0, [r2, #0]
 80042b0:	0628      	lsls	r0, r5, #24
 80042b2:	681b      	ldr	r3, [r3, #0]
 80042b4:	d501      	bpl.n	80042ba <_printf_i+0x196>
 80042b6:	6019      	str	r1, [r3, #0]
 80042b8:	e002      	b.n	80042c0 <_printf_i+0x19c>
 80042ba:	066a      	lsls	r2, r5, #25
 80042bc:	d5fb      	bpl.n	80042b6 <_printf_i+0x192>
 80042be:	8019      	strh	r1, [r3, #0]
 80042c0:	2300      	movs	r3, #0
 80042c2:	6123      	str	r3, [r4, #16]
 80042c4:	4665      	mov	r5, ip
 80042c6:	e7b9      	b.n	800423c <_printf_i+0x118>
 80042c8:	6813      	ldr	r3, [r2, #0]
 80042ca:	1d19      	adds	r1, r3, #4
 80042cc:	6011      	str	r1, [r2, #0]
 80042ce:	681d      	ldr	r5, [r3, #0]
 80042d0:	6862      	ldr	r2, [r4, #4]
 80042d2:	2100      	movs	r1, #0
 80042d4:	4628      	mov	r0, r5
 80042d6:	f7fb ffa3 	bl	8000220 <memchr>
 80042da:	b108      	cbz	r0, 80042e0 <_printf_i+0x1bc>
 80042dc:	1b40      	subs	r0, r0, r5
 80042de:	6060      	str	r0, [r4, #4]
 80042e0:	6863      	ldr	r3, [r4, #4]
 80042e2:	6123      	str	r3, [r4, #16]
 80042e4:	2300      	movs	r3, #0
 80042e6:	f884 3043 	strb.w	r3, [r4, #67]	; 0x43
 80042ea:	e7a7      	b.n	800423c <_printf_i+0x118>
 80042ec:	6923      	ldr	r3, [r4, #16]
 80042ee:	462a      	mov	r2, r5
 80042f0:	4639      	mov	r1, r7
 80042f2:	4630      	mov	r0, r6
 80042f4:	47c0      	blx	r8
 80042f6:	3001      	adds	r0, #1
 80042f8:	d0aa      	beq.n	8004250 <_printf_i+0x12c>
 80042fa:	6823      	ldr	r3, [r4, #0]
 80042fc:	079b      	lsls	r3, r3, #30
 80042fe:	d413      	bmi.n	8004328 <_printf_i+0x204>
 8004300:	68e0      	ldr	r0, [r4, #12]
 8004302:	9b03      	ldr	r3, [sp, #12]
 8004304:	4298      	cmp	r0, r3
 8004306:	bfb8      	it	lt
 8004308:	4618      	movlt	r0, r3
 800430a:	e7a3      	b.n	8004254 <_printf_i+0x130>
 800430c:	2301      	movs	r3, #1
 800430e:	464a      	mov	r2, r9
 8004310:	4639      	mov	r1, r7
 8004312:	4630      	mov	r0, r6
 8004314:	47c0      	blx	r8
 8004316:	3001      	adds	r0, #1
 8004318:	d09a      	beq.n	8004250 <_printf_i+0x12c>
 800431a:	3501      	adds	r5, #1
 800431c:	68e3      	ldr	r3, [r4, #12]
 800431e:	9a03      	ldr	r2, [sp, #12]
 8004320:	1a9b      	subs	r3, r3, r2
 8004322:	42ab      	cmp	r3, r5
 8004324:	dcf2      	bgt.n	800430c <_printf_i+0x1e8>
 8004326:	e7eb      	b.n	8004300 <_printf_i+0x1dc>
 8004328:	2500      	movs	r5, #0
 800432a:	f104 0919 	add.w	r9, r4, #25
 800432e:	e7f5      	b.n	800431c <_printf_i+0x1f8>
 8004330:	2b00      	cmp	r3, #0
 8004332:	d1ac      	bne.n	800428e <_printf_i+0x16a>
 8004334:	7803      	ldrb	r3, [r0, #0]
 8004336:	f884 3042 	strb.w	r3, [r4, #66]	; 0x42
 800433a:	f104 0542 	add.w	r5, r4, #66	; 0x42
 800433e:	e76c      	b.n	800421a <_printf_i+0xf6>
 8004340:	08005b56 	.word	0x08005b56
 8004344:	08005b67 	.word	0x08005b67

08004348 <siprintf>:
 8004348:	b40e      	push	{r1, r2, r3}
 800434a:	b500      	push	{lr}
 800434c:	b09c      	sub	sp, #112	; 0x70
 800434e:	ab1d      	add	r3, sp, #116	; 0x74
 8004350:	9002      	str	r0, [sp, #8]
 8004352:	9006      	str	r0, [sp, #24]
 8004354:	f06f 4100 	mvn.w	r1, #2147483648	; 0x80000000
 8004358:	4809      	ldr	r0, [pc, #36]	; (8004380 <siprintf+0x38>)
 800435a:	9107      	str	r1, [sp, #28]
 800435c:	9104      	str	r1, [sp, #16]
 800435e:	4909      	ldr	r1, [pc, #36]	; (8004384 <siprintf+0x3c>)
 8004360:	f853 2b04 	ldr.w	r2, [r3], #4
 8004364:	9105      	str	r1, [sp, #20]
 8004366:	6800      	ldr	r0, [r0, #0]
 8004368:	9301      	str	r3, [sp, #4]
 800436a:	a902      	add	r1, sp, #8
 800436c:	f001 fa5c 	bl	8005828 <_svfiprintf_r>
 8004370:	9b02      	ldr	r3, [sp, #8]
 8004372:	2200      	movs	r2, #0
 8004374:	701a      	strb	r2, [r3, #0]
 8004376:	b01c      	add	sp, #112	; 0x70
 8004378:	f85d eb04 	ldr.w	lr, [sp], #4
 800437c:	b003      	add	sp, #12
 800437e:	4770      	bx	lr
 8004380:	2000000c 	.word	0x2000000c
 8004384:	ffff0208 	.word	0xffff0208

08004388 <quorem>:
 8004388:	e92d 4ff7 	stmdb	sp!, {r0, r1, r2, r4, r5, r6, r7, r8, r9, sl, fp, lr}
 800438c:	6903      	ldr	r3, [r0, #16]
 800438e:	690c      	ldr	r4, [r1, #16]
 8004390:	42a3      	cmp	r3, r4
 8004392:	4680      	mov	r8, r0
 8004394:	f2c0 8082 	blt.w	800449c <quorem+0x114>
 8004398:	3c01      	subs	r4, #1
 800439a:	f101 0714 	add.w	r7, r1, #20
 800439e:	ea4f 0c84 	mov.w	ip, r4, lsl #2
 80043a2:	f100 0614 	add.w	r6, r0, #20
 80043a6:	f857 5024 	ldr.w	r5, [r7, r4, lsl #2]
 80043aa:	f856 0024 	ldr.w	r0, [r6, r4, lsl #2]
 80043ae:	eb06 030c 	add.w	r3, r6, ip
 80043b2:	3501      	adds	r5, #1
 80043b4:	eb07 090c 	add.w	r9, r7, ip
 80043b8:	9301      	str	r3, [sp, #4]
 80043ba:	fbb0 f5f5 	udiv	r5, r0, r5
 80043be:	b395      	cbz	r5, 8004426 <quorem+0x9e>
 80043c0:	f04f 0a00 	mov.w	sl, #0
 80043c4:	4638      	mov	r0, r7
 80043c6:	46b6      	mov	lr, r6
 80043c8:	46d3      	mov	fp, sl
 80043ca:	f850 2b04 	ldr.w	r2, [r0], #4
 80043ce:	b293      	uxth	r3, r2
 80043d0:	fb05 a303 	mla	r3, r5, r3, sl
 80043d4:	ea4f 4a13 	mov.w	sl, r3, lsr #16
 80043d8:	b29b      	uxth	r3, r3
 80043da:	ebab 0303 	sub.w	r3, fp, r3
 80043de:	0c12      	lsrs	r2, r2, #16
 80043e0:	f8de b000 	ldr.w	fp, [lr]
 80043e4:	fb05 a202 	mla	r2, r5, r2, sl
 80043e8:	fa13 f38b 	uxtah	r3, r3, fp
 80043ec:	ea4f 4a12 	mov.w	sl, r2, lsr #16
 80043f0:	fa1f fb82 	uxth.w	fp, r2
 80043f4:	f8de 2000 	ldr.w	r2, [lr]
 80043f8:	ebcb 4212 	rsb	r2, fp, r2, lsr #16
 80043fc:	eb02 4223 	add.w	r2, r2, r3, asr #16
 8004400:	b29b      	uxth	r3, r3
 8004402:	ea43 4302 	orr.w	r3, r3, r2, lsl #16
 8004406:	4581      	cmp	r9, r0
 8004408:	ea4f 4b22 	mov.w	fp, r2, asr #16
 800440c:	f84e 3b04 	str.w	r3, [lr], #4
 8004410:	d2db      	bcs.n	80043ca <quorem+0x42>
 8004412:	f856 300c 	ldr.w	r3, [r6, ip]
 8004416:	b933      	cbnz	r3, 8004426 <quorem+0x9e>
 8004418:	9b01      	ldr	r3, [sp, #4]
 800441a:	3b04      	subs	r3, #4
 800441c:	429e      	cmp	r6, r3
 800441e:	461a      	mov	r2, r3
 8004420:	d330      	bcc.n	8004484 <quorem+0xfc>
 8004422:	f8c8 4010 	str.w	r4, [r8, #16]
 8004426:	4640      	mov	r0, r8
 8004428:	f001 f828 	bl	800547c <__mcmp>
 800442c:	2800      	cmp	r0, #0
 800442e:	db25      	blt.n	800447c <quorem+0xf4>
 8004430:	3501      	adds	r5, #1
 8004432:	4630      	mov	r0, r6
 8004434:	f04f 0c00 	mov.w	ip, #0
 8004438:	f857 2b04 	ldr.w	r2, [r7], #4
 800443c:	f8d0 e000 	ldr.w	lr, [r0]
 8004440:	b293      	uxth	r3, r2
 8004442:	ebac 0303 	sub.w	r3, ip, r3
 8004446:	0c12      	lsrs	r2, r2, #16
 8004448:	fa13 f38e 	uxtah	r3, r3, lr
 800444c:	ebc2 421e 	rsb	r2, r2, lr, lsr #16
 8004450:	eb02 4223 	add.w	r2, r2, r3, asr #16
 8004454:	b29b      	uxth	r3, r3
 8004456:	ea43 4302 	orr.w	r3, r3, r2, lsl #16
 800445a:	45b9      	cmp	r9, r7
 800445c:	ea4f 4c22 	mov.w	ip, r2, asr #16
 8004460:	f840 3b04 	str.w	r3, [r0], #4
 8004464:	d2e8      	bcs.n	8004438 <quorem+0xb0>
 8004466:	f856 2024 	ldr.w	r2, [r6, r4, lsl #2]
 800446a:	eb06 0384 	add.w	r3, r6, r4, lsl #2
 800446e:	b92a      	cbnz	r2, 800447c <quorem+0xf4>
 8004470:	3b04      	subs	r3, #4
 8004472:	429e      	cmp	r6, r3
 8004474:	461a      	mov	r2, r3
 8004476:	d30b      	bcc.n	8004490 <quorem+0x108>
 8004478:	f8c8 4010 	str.w	r4, [r8, #16]
 800447c:	4628      	mov	r0, r5
 800447e:	b003      	add	sp, #12
 8004480:	e8bd 8ff0 	ldmia.w	sp!, {r4, r5, r6, r7, r8, r9, sl, fp, pc}
 8004484:	6812      	ldr	r2, [r2, #0]
 8004486:	3b04      	subs	r3, #4
 8004488:	2a00      	cmp	r2, #0
 800448a:	d1ca      	bne.n	8004422 <quorem+0x9a>
 800448c:	3c01      	subs	r4, #1
 800448e:	e7c5      	b.n	800441c <quorem+0x94>
 8004490:	6812      	ldr	r2, [r2, #0]
 8004492:	3b04      	subs	r3, #4
 8004494:	2a00      	cmp	r2, #0
 8004496:	d1ef      	bne.n	8004478 <quorem+0xf0>
 8004498:	3c01      	subs	r4, #1
 800449a:	e7ea      	b.n	8004472 <quorem+0xea>
 800449c:	2000      	movs	r0, #0
 800449e:	e7ee      	b.n	800447e <quorem+0xf6>

080044a0 <_dtoa_r>:
 80044a0:	e92d 4ff0 	stmdb	sp!, {r4, r5, r6, r7, r8, r9, sl, fp, lr}
 80044a4:	ec57 6b10 	vmov	r6, r7, d0
 80044a8:	b097      	sub	sp, #92	; 0x5c
 80044aa:	6a45      	ldr	r5, [r0, #36]	; 0x24
 80044ac:	9106      	str	r1, [sp, #24]
 80044ae:	4604      	mov	r4, r0
 80044b0:	920b      	str	r2, [sp, #44]	; 0x2c
 80044b2:	9312      	str	r3, [sp, #72]	; 0x48
 80044b4:	f8dd 8080 	ldr.w	r8, [sp, #128]	; 0x80
 80044b8:	e9cd 6700 	strd	r6, r7, [sp]
 80044bc:	b93d      	cbnz	r5, 80044ce <_dtoa_r+0x2e>
 80044be:	2010      	movs	r0, #16
 80044c0:	f000 fdb4 	bl	800502c <malloc>
 80044c4:	6260      	str	r0, [r4, #36]	; 0x24
 80044c6:	e9c0 5501 	strd	r5, r5, [r0, #4]
 80044ca:	6005      	str	r5, [r0, #0]
 80044cc:	60c5      	str	r5, [r0, #12]
 80044ce:	6a63      	ldr	r3, [r4, #36]	; 0x24
 80044d0:	6819      	ldr	r1, [r3, #0]
 80044d2:	b151      	cbz	r1, 80044ea <_dtoa_r+0x4a>
 80044d4:	685a      	ldr	r2, [r3, #4]
 80044d6:	604a      	str	r2, [r1, #4]
 80044d8:	2301      	movs	r3, #1
 80044da:	4093      	lsls	r3, r2
 80044dc:	608b      	str	r3, [r1, #8]
 80044de:	4620      	mov	r0, r4
 80044e0:	f000 fdeb 	bl	80050ba <_Bfree>
 80044e4:	6a63      	ldr	r3, [r4, #36]	; 0x24
 80044e6:	2200      	movs	r2, #0
 80044e8:	601a      	str	r2, [r3, #0]
 80044ea:	1e3b      	subs	r3, r7, #0
 80044ec:	bfbb      	ittet	lt
 80044ee:	f023 4300 	biclt.w	r3, r3, #2147483648	; 0x80000000
 80044f2:	9301      	strlt	r3, [sp, #4]
 80044f4:	2300      	movge	r3, #0
 80044f6:	2201      	movlt	r2, #1
 80044f8:	bfac      	ite	ge
 80044fa:	f8c8 3000 	strge.w	r3, [r8]
 80044fe:	f8c8 2000 	strlt.w	r2, [r8]
 8004502:	4baf      	ldr	r3, [pc, #700]	; (80047c0 <_dtoa_r+0x320>)
 8004504:	f8dd 8004 	ldr.w	r8, [sp, #4]
 8004508:	ea33 0308 	bics.w	r3, r3, r8
 800450c:	d114      	bne.n	8004538 <_dtoa_r+0x98>
 800450e:	9a12      	ldr	r2, [sp, #72]	; 0x48
 8004510:	f242 730f 	movw	r3, #9999	; 0x270f
 8004514:	6013      	str	r3, [r2, #0]
 8004516:	9b00      	ldr	r3, [sp, #0]
 8004518:	b923      	cbnz	r3, 8004524 <_dtoa_r+0x84>
 800451a:	f3c8 0013 	ubfx	r0, r8, #0, #20
 800451e:	2800      	cmp	r0, #0
 8004520:	f000 8542 	beq.w	8004fa8 <_dtoa_r+0xb08>
 8004524:	9b21      	ldr	r3, [sp, #132]	; 0x84
 8004526:	f8df b2ac 	ldr.w	fp, [pc, #684]	; 80047d4 <_dtoa_r+0x334>
 800452a:	2b00      	cmp	r3, #0
 800452c:	f000 8544 	beq.w	8004fb8 <_dtoa_r+0xb18>
 8004530:	f10b 0303 	add.w	r3, fp, #3
 8004534:	f000 bd3e 	b.w	8004fb4 <_dtoa_r+0xb14>
 8004538:	e9dd 6700 	ldrd	r6, r7, [sp]
 800453c:	2200      	movs	r2, #0
 800453e:	2300      	movs	r3, #0
 8004540:	4630      	mov	r0, r6
 8004542:	4639      	mov	r1, r7
 8004544:	f7fc fae0 	bl	8000b08 <__aeabi_dcmpeq>
 8004548:	4681      	mov	r9, r0
 800454a:	b168      	cbz	r0, 8004568 <_dtoa_r+0xc8>
 800454c:	9a12      	ldr	r2, [sp, #72]	; 0x48
 800454e:	2301      	movs	r3, #1
 8004550:	6013      	str	r3, [r2, #0]
 8004552:	9b21      	ldr	r3, [sp, #132]	; 0x84
 8004554:	2b00      	cmp	r3, #0
 8004556:	f000 8524 	beq.w	8004fa2 <_dtoa_r+0xb02>
 800455a:	4b9a      	ldr	r3, [pc, #616]	; (80047c4 <_dtoa_r+0x324>)
 800455c:	9a21      	ldr	r2, [sp, #132]	; 0x84
 800455e:	f103 3bff 	add.w	fp, r3, #4294967295
 8004562:	6013      	str	r3, [r2, #0]
 8004564:	f000 bd28 	b.w	8004fb8 <_dtoa_r+0xb18>
 8004568:	aa14      	add	r2, sp, #80	; 0x50
 800456a:	a915      	add	r1, sp, #84	; 0x54
 800456c:	ec47 6b10 	vmov	d0, r6, r7
 8004570:	4620      	mov	r0, r4
 8004572:	f000 fffa 	bl	800556a <__d2b>
 8004576:	f3c8 550a 	ubfx	r5, r8, #20, #11
 800457a:	9004      	str	r0, [sp, #16]
 800457c:	2d00      	cmp	r5, #0
 800457e:	d07c      	beq.n	800467a <_dtoa_r+0x1da>
 8004580:	f3c7 0313 	ubfx	r3, r7, #0, #20
 8004584:	f043 5b7f 	orr.w	fp, r3, #1069547520	; 0x3fc00000
 8004588:	46b2      	mov	sl, r6
 800458a:	f44b 1b40 	orr.w	fp, fp, #3145728	; 0x300000
 800458e:	f2a5 35ff 	subw	r5, r5, #1023	; 0x3ff
 8004592:	f8cd 904c 	str.w	r9, [sp, #76]	; 0x4c
 8004596:	2200      	movs	r2, #0
 8004598:	4b8b      	ldr	r3, [pc, #556]	; (80047c8 <_dtoa_r+0x328>)
 800459a:	4650      	mov	r0, sl
 800459c:	4659      	mov	r1, fp
 800459e:	f7fb fe93 	bl	80002c8 <__aeabi_dsub>
 80045a2:	a381      	add	r3, pc, #516	; (adr r3, 80047a8 <_dtoa_r+0x308>)
 80045a4:	e9d3 2300 	ldrd	r2, r3, [r3]
 80045a8:	f7fc f846 	bl	8000638 <__aeabi_dmul>
 80045ac:	a380      	add	r3, pc, #512	; (adr r3, 80047b0 <_dtoa_r+0x310>)
 80045ae:	e9d3 2300 	ldrd	r2, r3, [r3]
 80045b2:	f7fb fe8b 	bl	80002cc <__adddf3>
 80045b6:	4606      	mov	r6, r0
 80045b8:	4628      	mov	r0, r5
 80045ba:	460f      	mov	r7, r1
 80045bc:	f7fb ffd2 	bl	8000564 <__aeabi_i2d>
 80045c0:	a37d      	add	r3, pc, #500	; (adr r3, 80047b8 <_dtoa_r+0x318>)
 80045c2:	e9d3 2300 	ldrd	r2, r3, [r3]
 80045c6:	f7fc f837 	bl	8000638 <__aeabi_dmul>
 80045ca:	4602      	mov	r2, r0
 80045cc:	460b      	mov	r3, r1
 80045ce:	4630      	mov	r0, r6
 80045d0:	4639      	mov	r1, r7
 80045d2:	f7fb fe7b 	bl	80002cc <__adddf3>
 80045d6:	4606      	mov	r6, r0
 80045d8:	460f      	mov	r7, r1
 80045da:	f7fc fadd 	bl	8000b98 <__aeabi_d2iz>
 80045de:	2200      	movs	r2, #0
 80045e0:	4682      	mov	sl, r0
 80045e2:	2300      	movs	r3, #0
 80045e4:	4630      	mov	r0, r6
 80045e6:	4639      	mov	r1, r7
 80045e8:	f7fc fa98 	bl	8000b1c <__aeabi_dcmplt>
 80045ec:	b148      	cbz	r0, 8004602 <_dtoa_r+0x162>
 80045ee:	4650      	mov	r0, sl
 80045f0:	f7fb ffb8 	bl	8000564 <__aeabi_i2d>
 80045f4:	4632      	mov	r2, r6
 80045f6:	463b      	mov	r3, r7
 80045f8:	f7fc fa86 	bl	8000b08 <__aeabi_dcmpeq>
 80045fc:	b908      	cbnz	r0, 8004602 <_dtoa_r+0x162>
 80045fe:	f10a 3aff 	add.w	sl, sl, #4294967295
 8004602:	f1ba 0f16 	cmp.w	sl, #22
 8004606:	d859      	bhi.n	80046bc <_dtoa_r+0x21c>
 8004608:	4970      	ldr	r1, [pc, #448]	; (80047cc <_dtoa_r+0x32c>)
 800460a:	eb01 01ca 	add.w	r1, r1, sl, lsl #3
 800460e:	e9dd 2300 	ldrd	r2, r3, [sp]
 8004612:	e9d1 0100 	ldrd	r0, r1, [r1]
 8004616:	f7fc fa9f 	bl	8000b58 <__aeabi_dcmpgt>
 800461a:	2800      	cmp	r0, #0
 800461c:	d050      	beq.n	80046c0 <_dtoa_r+0x220>
 800461e:	f10a 3aff 	add.w	sl, sl, #4294967295
 8004622:	2300      	movs	r3, #0
 8004624:	930f      	str	r3, [sp, #60]	; 0x3c
 8004626:	9b14      	ldr	r3, [sp, #80]	; 0x50
 8004628:	1b5d      	subs	r5, r3, r5
 800462a:	f1b5 0801 	subs.w	r8, r5, #1
 800462e:	bf49      	itett	mi
 8004630:	f1c5 0301 	rsbmi	r3, r5, #1
 8004634:	2300      	movpl	r3, #0
 8004636:	9305      	strmi	r3, [sp, #20]
 8004638:	f04f 0800 	movmi.w	r8, #0
 800463c:	bf58      	it	pl
 800463e:	9305      	strpl	r3, [sp, #20]
 8004640:	f1ba 0f00 	cmp.w	sl, #0
 8004644:	db3e      	blt.n	80046c4 <_dtoa_r+0x224>
 8004646:	2300      	movs	r3, #0
 8004648:	44d0      	add	r8, sl
 800464a:	f8cd a038 	str.w	sl, [sp, #56]	; 0x38
 800464e:	9307      	str	r3, [sp, #28]
 8004650:	9b06      	ldr	r3, [sp, #24]
 8004652:	2b09      	cmp	r3, #9
 8004654:	f200 8090 	bhi.w	8004778 <_dtoa_r+0x2d8>
 8004658:	2b05      	cmp	r3, #5
 800465a:	bfc4      	itt	gt
 800465c:	3b04      	subgt	r3, #4
 800465e:	9306      	strgt	r3, [sp, #24]
 8004660:	9b06      	ldr	r3, [sp, #24]
 8004662:	f1a3 0302 	sub.w	r3, r3, #2
 8004666:	bfcc      	ite	gt
 8004668:	2500      	movgt	r5, #0
 800466a:	2501      	movle	r5, #1
 800466c:	2b03      	cmp	r3, #3
 800466e:	f200 808f 	bhi.w	8004790 <_dtoa_r+0x2f0>
 8004672:	e8df f003 	tbb	[pc, r3]
 8004676:	7f7d      	.short	0x7f7d
 8004678:	7131      	.short	0x7131
 800467a:	e9dd 5314 	ldrd	r5, r3, [sp, #80]	; 0x50
 800467e:	441d      	add	r5, r3
 8004680:	f205 4032 	addw	r0, r5, #1074	; 0x432
 8004684:	2820      	cmp	r0, #32
 8004686:	dd13      	ble.n	80046b0 <_dtoa_r+0x210>
 8004688:	f1c0 0040 	rsb	r0, r0, #64	; 0x40
 800468c:	9b00      	ldr	r3, [sp, #0]
 800468e:	fa08 f800 	lsl.w	r8, r8, r0
 8004692:	f205 4012 	addw	r0, r5, #1042	; 0x412
 8004696:	fa23 f000 	lsr.w	r0, r3, r0
 800469a:	ea48 0000 	orr.w	r0, r8, r0
 800469e:	f7fb ff51 	bl	8000544 <__aeabi_ui2d>
 80046a2:	2301      	movs	r3, #1
 80046a4:	4682      	mov	sl, r0
 80046a6:	f1a1 7bf8 	sub.w	fp, r1, #32505856	; 0x1f00000
 80046aa:	3d01      	subs	r5, #1
 80046ac:	9313      	str	r3, [sp, #76]	; 0x4c
 80046ae:	e772      	b.n	8004596 <_dtoa_r+0xf6>
 80046b0:	9b00      	ldr	r3, [sp, #0]
 80046b2:	f1c0 0020 	rsb	r0, r0, #32
 80046b6:	fa03 f000 	lsl.w	r0, r3, r0
 80046ba:	e7f0      	b.n	800469e <_dtoa_r+0x1fe>
 80046bc:	2301      	movs	r3, #1
 80046be:	e7b1      	b.n	8004624 <_dtoa_r+0x184>
 80046c0:	900f      	str	r0, [sp, #60]	; 0x3c
 80046c2:	e7b0      	b.n	8004626 <_dtoa_r+0x186>
 80046c4:	9b05      	ldr	r3, [sp, #20]
 80046c6:	eba3 030a 	sub.w	r3, r3, sl
 80046ca:	9305      	str	r3, [sp, #20]
 80046cc:	f1ca 0300 	rsb	r3, sl, #0
 80046d0:	9307      	str	r3, [sp, #28]
 80046d2:	2300      	movs	r3, #0
 80046d4:	930e      	str	r3, [sp, #56]	; 0x38
 80046d6:	e7bb      	b.n	8004650 <_dtoa_r+0x1b0>
 80046d8:	2301      	movs	r3, #1
 80046da:	930a      	str	r3, [sp, #40]	; 0x28
 80046dc:	9b0b      	ldr	r3, [sp, #44]	; 0x2c
 80046de:	2b00      	cmp	r3, #0
 80046e0:	dd59      	ble.n	8004796 <_dtoa_r+0x2f6>
 80046e2:	9302      	str	r3, [sp, #8]
 80046e4:	4699      	mov	r9, r3
 80046e6:	6a66      	ldr	r6, [r4, #36]	; 0x24
 80046e8:	2200      	movs	r2, #0
 80046ea:	6072      	str	r2, [r6, #4]
 80046ec:	2204      	movs	r2, #4
 80046ee:	f102 0014 	add.w	r0, r2, #20
 80046f2:	4298      	cmp	r0, r3
 80046f4:	6871      	ldr	r1, [r6, #4]
 80046f6:	d953      	bls.n	80047a0 <_dtoa_r+0x300>
 80046f8:	4620      	mov	r0, r4
 80046fa:	f000 fcaa 	bl	8005052 <_Balloc>
 80046fe:	6a63      	ldr	r3, [r4, #36]	; 0x24
 8004700:	6030      	str	r0, [r6, #0]
 8004702:	f1b9 0f0e 	cmp.w	r9, #14
 8004706:	f8d3 b000 	ldr.w	fp, [r3]
 800470a:	f200 80e6 	bhi.w	80048da <_dtoa_r+0x43a>
 800470e:	2d00      	cmp	r5, #0
 8004710:	f000 80e3 	beq.w	80048da <_dtoa_r+0x43a>
 8004714:	ed9d 7b00 	vldr	d7, [sp]
 8004718:	f1ba 0f00 	cmp.w	sl, #0
 800471c:	ed8d 7b10 	vstr	d7, [sp, #64]	; 0x40
 8004720:	dd74      	ble.n	800480c <_dtoa_r+0x36c>
 8004722:	4a2a      	ldr	r2, [pc, #168]	; (80047cc <_dtoa_r+0x32c>)
 8004724:	f00a 030f 	and.w	r3, sl, #15
 8004728:	eb02 03c3 	add.w	r3, r2, r3, lsl #3
 800472c:	ed93 7b00 	vldr	d7, [r3]
 8004730:	ea4f 162a 	mov.w	r6, sl, asr #4
 8004734:	06f0      	lsls	r0, r6, #27
 8004736:	ed8d 7b08 	vstr	d7, [sp, #32]
 800473a:	d565      	bpl.n	8004808 <_dtoa_r+0x368>
 800473c:	4b24      	ldr	r3, [pc, #144]	; (80047d0 <_dtoa_r+0x330>)
 800473e:	e9dd 0110 	ldrd	r0, r1, [sp, #64]	; 0x40
 8004742:	e9d3 2308 	ldrd	r2, r3, [r3, #32]
 8004746:	f7fc f8a1 	bl	800088c <__aeabi_ddiv>
 800474a:	e9cd 0100 	strd	r0, r1, [sp]
 800474e:	f006 060f 	and.w	r6, r6, #15
 8004752:	2503      	movs	r5, #3
 8004754:	4f1e      	ldr	r7, [pc, #120]	; (80047d0 <_dtoa_r+0x330>)
 8004756:	e04c      	b.n	80047f2 <_dtoa_r+0x352>
 8004758:	2301      	movs	r3, #1
 800475a:	930a      	str	r3, [sp, #40]	; 0x28
 800475c:	9b0b      	ldr	r3, [sp, #44]	; 0x2c
 800475e:	4453      	add	r3, sl
 8004760:	f103 0901 	add.w	r9, r3, #1
 8004764:	9302      	str	r3, [sp, #8]
 8004766:	464b      	mov	r3, r9
 8004768:	2b01      	cmp	r3, #1
 800476a:	bfb8      	it	lt
 800476c:	2301      	movlt	r3, #1
 800476e:	e7ba      	b.n	80046e6 <_dtoa_r+0x246>
 8004770:	2300      	movs	r3, #0
 8004772:	e7b2      	b.n	80046da <_dtoa_r+0x23a>
 8004774:	2300      	movs	r3, #0
 8004776:	e7f0      	b.n	800475a <_dtoa_r+0x2ba>
 8004778:	2501      	movs	r5, #1
 800477a:	2300      	movs	r3, #0
 800477c:	9306      	str	r3, [sp, #24]
 800477e:	950a      	str	r5, [sp, #40]	; 0x28
 8004780:	f04f 33ff 	mov.w	r3, #4294967295
 8004784:	9302      	str	r3, [sp, #8]
 8004786:	4699      	mov	r9, r3
 8004788:	2200      	movs	r2, #0
 800478a:	2312      	movs	r3, #18
 800478c:	920b      	str	r2, [sp, #44]	; 0x2c
 800478e:	e7aa      	b.n	80046e6 <_dtoa_r+0x246>
 8004790:	2301      	movs	r3, #1
 8004792:	930a      	str	r3, [sp, #40]	; 0x28
 8004794:	e7f4      	b.n	8004780 <_dtoa_r+0x2e0>
 8004796:	2301      	movs	r3, #1
 8004798:	9302      	str	r3, [sp, #8]
 800479a:	4699      	mov	r9, r3
 800479c:	461a      	mov	r2, r3
 800479e:	e7f5      	b.n	800478c <_dtoa_r+0x2ec>
 80047a0:	3101      	adds	r1, #1
 80047a2:	6071      	str	r1, [r6, #4]
 80047a4:	0052      	lsls	r2, r2, #1
 80047a6:	e7a2      	b.n	80046ee <_dtoa_r+0x24e>
 80047a8:	636f4361 	.word	0x636f4361
 80047ac:	3fd287a7 	.word	0x3fd287a7
 80047b0:	8b60c8b3 	.word	0x8b60c8b3
 80047b4:	3fc68a28 	.word	0x3fc68a28
 80047b8:	509f79fb 	.word	0x509f79fb
 80047bc:	3fd34413 	.word	0x3fd34413
 80047c0:	7ff00000 	.word	0x7ff00000
 80047c4:	08005b55 	.word	0x08005b55
 80047c8:	3ff80000 	.word	0x3ff80000
 80047cc:	08005bb0 	.word	0x08005bb0
 80047d0:	08005b88 	.word	0x08005b88
 80047d4:	08005b81 	.word	0x08005b81
 80047d8:	07f1      	lsls	r1, r6, #31
 80047da:	d508      	bpl.n	80047ee <_dtoa_r+0x34e>
 80047dc:	e9dd 0108 	ldrd	r0, r1, [sp, #32]
 80047e0:	e9d7 2300 	ldrd	r2, r3, [r7]
 80047e4:	f7fb ff28 	bl	8000638 <__aeabi_dmul>
 80047e8:	e9cd 0108 	strd	r0, r1, [sp, #32]
 80047ec:	3501      	adds	r5, #1
 80047ee:	1076      	asrs	r6, r6, #1
 80047f0:	3708      	adds	r7, #8
 80047f2:	2e00      	cmp	r6, #0
 80047f4:	d1f0      	bne.n	80047d8 <_dtoa_r+0x338>
 80047f6:	e9dd 2308 	ldrd	r2, r3, [sp, #32]
 80047fa:	e9dd 0100 	ldrd	r0, r1, [sp]
 80047fe:	f7fc f845 	bl	800088c <__aeabi_ddiv>
 8004802:	e9cd 0100 	strd	r0, r1, [sp]
 8004806:	e01a      	b.n	800483e <_dtoa_r+0x39e>
 8004808:	2502      	movs	r5, #2
 800480a:	e7a3      	b.n	8004754 <_dtoa_r+0x2b4>
 800480c:	f000 80a0 	beq.w	8004950 <_dtoa_r+0x4b0>
 8004810:	f1ca 0600 	rsb	r6, sl, #0
 8004814:	4b9f      	ldr	r3, [pc, #636]	; (8004a94 <_dtoa_r+0x5f4>)
 8004816:	4fa0      	ldr	r7, [pc, #640]	; (8004a98 <_dtoa_r+0x5f8>)
 8004818:	f006 020f 	and.w	r2, r6, #15
 800481c:	eb03 03c2 	add.w	r3, r3, r2, lsl #3
 8004820:	e9d3 2300 	ldrd	r2, r3, [r3]
 8004824:	e9dd 0110 	ldrd	r0, r1, [sp, #64]	; 0x40
 8004828:	f7fb ff06 	bl	8000638 <__aeabi_dmul>
 800482c:	e9cd 0100 	strd	r0, r1, [sp]
 8004830:	1136      	asrs	r6, r6, #4
 8004832:	2300      	movs	r3, #0
 8004834:	2502      	movs	r5, #2
 8004836:	2e00      	cmp	r6, #0
 8004838:	d17f      	bne.n	800493a <_dtoa_r+0x49a>
 800483a:	2b00      	cmp	r3, #0
 800483c:	d1e1      	bne.n	8004802 <_dtoa_r+0x362>
 800483e:	9b0f      	ldr	r3, [sp, #60]	; 0x3c
 8004840:	2b00      	cmp	r3, #0
 8004842:	f000 8087 	beq.w	8004954 <_dtoa_r+0x4b4>
 8004846:	e9dd 6700 	ldrd	r6, r7, [sp]
 800484a:	2200      	movs	r2, #0
 800484c:	4b93      	ldr	r3, [pc, #588]	; (8004a9c <_dtoa_r+0x5fc>)
 800484e:	4630      	mov	r0, r6
 8004850:	4639      	mov	r1, r7
 8004852:	f7fc f963 	bl	8000b1c <__aeabi_dcmplt>
 8004856:	2800      	cmp	r0, #0
 8004858:	d07c      	beq.n	8004954 <_dtoa_r+0x4b4>
 800485a:	f1b9 0f00 	cmp.w	r9, #0
 800485e:	d079      	beq.n	8004954 <_dtoa_r+0x4b4>
 8004860:	9b02      	ldr	r3, [sp, #8]
 8004862:	2b00      	cmp	r3, #0
 8004864:	dd35      	ble.n	80048d2 <_dtoa_r+0x432>
 8004866:	f10a 33ff 	add.w	r3, sl, #4294967295
 800486a:	9308      	str	r3, [sp, #32]
 800486c:	4639      	mov	r1, r7
 800486e:	2200      	movs	r2, #0
 8004870:	4b8b      	ldr	r3, [pc, #556]	; (8004aa0 <_dtoa_r+0x600>)
 8004872:	4630      	mov	r0, r6
 8004874:	f7fb fee0 	bl	8000638 <__aeabi_dmul>
 8004878:	e9cd 0100 	strd	r0, r1, [sp]
 800487c:	9f02      	ldr	r7, [sp, #8]
 800487e:	3501      	adds	r5, #1
 8004880:	4628      	mov	r0, r5
 8004882:	f7fb fe6f 	bl	8000564 <__aeabi_i2d>
 8004886:	e9dd 2300 	ldrd	r2, r3, [sp]
 800488a:	f7fb fed5 	bl	8000638 <__aeabi_dmul>
 800488e:	2200      	movs	r2, #0
 8004890:	4b84      	ldr	r3, [pc, #528]	; (8004aa4 <_dtoa_r+0x604>)
 8004892:	f7fb fd1b 	bl	80002cc <__adddf3>
 8004896:	4605      	mov	r5, r0
 8004898:	f1a1 7650 	sub.w	r6, r1, #54525952	; 0x3400000
 800489c:	2f00      	cmp	r7, #0
 800489e:	d15d      	bne.n	800495c <_dtoa_r+0x4bc>
 80048a0:	2200      	movs	r2, #0
 80048a2:	4b81      	ldr	r3, [pc, #516]	; (8004aa8 <_dtoa_r+0x608>)
 80048a4:	e9dd 0100 	ldrd	r0, r1, [sp]
 80048a8:	f7fb fd0e 	bl	80002c8 <__aeabi_dsub>
 80048ac:	462a      	mov	r2, r5
 80048ae:	4633      	mov	r3, r6
 80048b0:	e9cd 0100 	strd	r0, r1, [sp]
 80048b4:	f7fc f950 	bl	8000b58 <__aeabi_dcmpgt>
 80048b8:	2800      	cmp	r0, #0
 80048ba:	f040 8288 	bne.w	8004dce <_dtoa_r+0x92e>
 80048be:	462a      	mov	r2, r5
 80048c0:	f106 4300 	add.w	r3, r6, #2147483648	; 0x80000000
 80048c4:	e9dd 0100 	ldrd	r0, r1, [sp]
 80048c8:	f7fc f928 	bl	8000b1c <__aeabi_dcmplt>
 80048cc:	2800      	cmp	r0, #0
 80048ce:	f040 827c 	bne.w	8004dca <_dtoa_r+0x92a>
 80048d2:	e9dd 2310 	ldrd	r2, r3, [sp, #64]	; 0x40
 80048d6:	e9cd 2300 	strd	r2, r3, [sp]
 80048da:	9b15      	ldr	r3, [sp, #84]	; 0x54
 80048dc:	2b00      	cmp	r3, #0
 80048de:	f2c0 8150 	blt.w	8004b82 <_dtoa_r+0x6e2>
 80048e2:	f1ba 0f0e 	cmp.w	sl, #14
 80048e6:	f300 814c 	bgt.w	8004b82 <_dtoa_r+0x6e2>
 80048ea:	4b6a      	ldr	r3, [pc, #424]	; (8004a94 <_dtoa_r+0x5f4>)
 80048ec:	eb03 03ca 	add.w	r3, r3, sl, lsl #3
 80048f0:	ed93 7b00 	vldr	d7, [r3]
 80048f4:	9b0b      	ldr	r3, [sp, #44]	; 0x2c
 80048f6:	2b00      	cmp	r3, #0
 80048f8:	ed8d 7b02 	vstr	d7, [sp, #8]
 80048fc:	f280 80d8 	bge.w	8004ab0 <_dtoa_r+0x610>
 8004900:	f1b9 0f00 	cmp.w	r9, #0
 8004904:	f300 80d4 	bgt.w	8004ab0 <_dtoa_r+0x610>
 8004908:	f040 825e 	bne.w	8004dc8 <_dtoa_r+0x928>
 800490c:	2200      	movs	r2, #0
 800490e:	4b66      	ldr	r3, [pc, #408]	; (8004aa8 <_dtoa_r+0x608>)
 8004910:	ec51 0b17 	vmov	r0, r1, d7
 8004914:	f7fb fe90 	bl	8000638 <__aeabi_dmul>
 8004918:	e9dd 2300 	ldrd	r2, r3, [sp]
 800491c:	f7fc f912 	bl	8000b44 <__aeabi_dcmpge>
 8004920:	464f      	mov	r7, r9
 8004922:	464e      	mov	r6, r9
 8004924:	2800      	cmp	r0, #0
 8004926:	f040 8234 	bne.w	8004d92 <_dtoa_r+0x8f2>
 800492a:	2331      	movs	r3, #49	; 0x31
 800492c:	f10b 0501 	add.w	r5, fp, #1
 8004930:	f88b 3000 	strb.w	r3, [fp]
 8004934:	f10a 0a01 	add.w	sl, sl, #1
 8004938:	e22f      	b.n	8004d9a <_dtoa_r+0x8fa>
 800493a:	07f2      	lsls	r2, r6, #31
 800493c:	d505      	bpl.n	800494a <_dtoa_r+0x4aa>
 800493e:	e9d7 2300 	ldrd	r2, r3, [r7]
 8004942:	f7fb fe79 	bl	8000638 <__aeabi_dmul>
 8004946:	3501      	adds	r5, #1
 8004948:	2301      	movs	r3, #1
 800494a:	1076      	asrs	r6, r6, #1
 800494c:	3708      	adds	r7, #8
 800494e:	e772      	b.n	8004836 <_dtoa_r+0x396>
 8004950:	2502      	movs	r5, #2
 8004952:	e774      	b.n	800483e <_dtoa_r+0x39e>
 8004954:	f8cd a020 	str.w	sl, [sp, #32]
 8004958:	464f      	mov	r7, r9
 800495a:	e791      	b.n	8004880 <_dtoa_r+0x3e0>
 800495c:	4b4d      	ldr	r3, [pc, #308]	; (8004a94 <_dtoa_r+0x5f4>)
 800495e:	eb03 03c7 	add.w	r3, r3, r7, lsl #3
 8004962:	e953 0102 	ldrd	r0, r1, [r3, #-8]
 8004966:	9b0a      	ldr	r3, [sp, #40]	; 0x28
 8004968:	2b00      	cmp	r3, #0
 800496a:	d047      	beq.n	80049fc <_dtoa_r+0x55c>
 800496c:	4602      	mov	r2, r0
 800496e:	460b      	mov	r3, r1
 8004970:	2000      	movs	r0, #0
 8004972:	494e      	ldr	r1, [pc, #312]	; (8004aac <_dtoa_r+0x60c>)
 8004974:	f7fb ff8a 	bl	800088c <__aeabi_ddiv>
 8004978:	462a      	mov	r2, r5
 800497a:	4633      	mov	r3, r6
 800497c:	f7fb fca4 	bl	80002c8 <__aeabi_dsub>
 8004980:	e9cd 010c 	strd	r0, r1, [sp, #48]	; 0x30
 8004984:	465d      	mov	r5, fp
 8004986:	e9dd 0100 	ldrd	r0, r1, [sp]
 800498a:	f7fc f905 	bl	8000b98 <__aeabi_d2iz>
 800498e:	4606      	mov	r6, r0
 8004990:	f7fb fde8 	bl	8000564 <__aeabi_i2d>
 8004994:	4602      	mov	r2, r0
 8004996:	460b      	mov	r3, r1
 8004998:	e9dd 0100 	ldrd	r0, r1, [sp]
 800499c:	f7fb fc94 	bl	80002c8 <__aeabi_dsub>
 80049a0:	3630      	adds	r6, #48	; 0x30
 80049a2:	f805 6b01 	strb.w	r6, [r5], #1
 80049a6:	e9dd 230c 	ldrd	r2, r3, [sp, #48]	; 0x30
 80049aa:	e9cd 0100 	strd	r0, r1, [sp]
 80049ae:	f7fc f8b5 	bl	8000b1c <__aeabi_dcmplt>
 80049b2:	2800      	cmp	r0, #0
 80049b4:	d163      	bne.n	8004a7e <_dtoa_r+0x5de>
 80049b6:	e9dd 2300 	ldrd	r2, r3, [sp]
 80049ba:	2000      	movs	r0, #0
 80049bc:	4937      	ldr	r1, [pc, #220]	; (8004a9c <_dtoa_r+0x5fc>)
 80049be:	f7fb fc83 	bl	80002c8 <__aeabi_dsub>
 80049c2:	e9dd 230c 	ldrd	r2, r3, [sp, #48]	; 0x30
 80049c6:	f7fc f8a9 	bl	8000b1c <__aeabi_dcmplt>
 80049ca:	2800      	cmp	r0, #0
 80049cc:	f040 80b7 	bne.w	8004b3e <_dtoa_r+0x69e>
 80049d0:	eba5 030b 	sub.w	r3, r5, fp
 80049d4:	429f      	cmp	r7, r3
 80049d6:	f77f af7c 	ble.w	80048d2 <_dtoa_r+0x432>
 80049da:	2200      	movs	r2, #0
 80049dc:	4b30      	ldr	r3, [pc, #192]	; (8004aa0 <_dtoa_r+0x600>)
 80049de:	e9dd 010c 	ldrd	r0, r1, [sp, #48]	; 0x30
 80049e2:	f7fb fe29 	bl	8000638 <__aeabi_dmul>
 80049e6:	2200      	movs	r2, #0
 80049e8:	e9cd 010c 	strd	r0, r1, [sp, #48]	; 0x30
 80049ec:	4b2c      	ldr	r3, [pc, #176]	; (8004aa0 <_dtoa_r+0x600>)
 80049ee:	e9dd 0100 	ldrd	r0, r1, [sp]
 80049f2:	f7fb fe21 	bl	8000638 <__aeabi_dmul>
 80049f6:	e9cd 0100 	strd	r0, r1, [sp]
 80049fa:	e7c4      	b.n	8004986 <_dtoa_r+0x4e6>
 80049fc:	462a      	mov	r2, r5
 80049fe:	4633      	mov	r3, r6
 8004a00:	f7fb fe1a 	bl	8000638 <__aeabi_dmul>
 8004a04:	e9cd 010c 	strd	r0, r1, [sp, #48]	; 0x30
 8004a08:	eb0b 0507 	add.w	r5, fp, r7
 8004a0c:	465e      	mov	r6, fp
 8004a0e:	e9dd 0100 	ldrd	r0, r1, [sp]
 8004a12:	f7fc f8c1 	bl	8000b98 <__aeabi_d2iz>
 8004a16:	4607      	mov	r7, r0
 8004a18:	f7fb fda4 	bl	8000564 <__aeabi_i2d>
 8004a1c:	3730      	adds	r7, #48	; 0x30
 8004a1e:	4602      	mov	r2, r0
 8004a20:	460b      	mov	r3, r1
 8004a22:	e9dd 0100 	ldrd	r0, r1, [sp]
 8004a26:	f7fb fc4f 	bl	80002c8 <__aeabi_dsub>
 8004a2a:	f806 7b01 	strb.w	r7, [r6], #1
 8004a2e:	42ae      	cmp	r6, r5
 8004a30:	e9cd 0100 	strd	r0, r1, [sp]
 8004a34:	f04f 0200 	mov.w	r2, #0
 8004a38:	d126      	bne.n	8004a88 <_dtoa_r+0x5e8>
 8004a3a:	4b1c      	ldr	r3, [pc, #112]	; (8004aac <_dtoa_r+0x60c>)
 8004a3c:	e9dd 010c 	ldrd	r0, r1, [sp, #48]	; 0x30
 8004a40:	f7fb fc44 	bl	80002cc <__adddf3>
 8004a44:	4602      	mov	r2, r0
 8004a46:	460b      	mov	r3, r1
 8004a48:	e9dd 0100 	ldrd	r0, r1, [sp]
 8004a4c:	f7fc f884 	bl	8000b58 <__aeabi_dcmpgt>
 8004a50:	2800      	cmp	r0, #0
 8004a52:	d174      	bne.n	8004b3e <_dtoa_r+0x69e>
 8004a54:	e9dd 230c 	ldrd	r2, r3, [sp, #48]	; 0x30
 8004a58:	2000      	movs	r0, #0
 8004a5a:	4914      	ldr	r1, [pc, #80]	; (8004aac <_dtoa_r+0x60c>)
 8004a5c:	f7fb fc34 	bl	80002c8 <__aeabi_dsub>
 8004a60:	4602      	mov	r2, r0
 8004a62:	460b      	mov	r3, r1
 8004a64:	e9dd 0100 	ldrd	r0, r1, [sp]
 8004a68:	f7fc f858 	bl	8000b1c <__aeabi_dcmplt>
 8004a6c:	2800      	cmp	r0, #0
 8004a6e:	f43f af30 	beq.w	80048d2 <_dtoa_r+0x432>
 8004a72:	f815 3c01 	ldrb.w	r3, [r5, #-1]
 8004a76:	2b30      	cmp	r3, #48	; 0x30
 8004a78:	f105 32ff 	add.w	r2, r5, #4294967295
 8004a7c:	d002      	beq.n	8004a84 <_dtoa_r+0x5e4>
 8004a7e:	f8dd a020 	ldr.w	sl, [sp, #32]
 8004a82:	e04a      	b.n	8004b1a <_dtoa_r+0x67a>
 8004a84:	4615      	mov	r5, r2
 8004a86:	e7f4      	b.n	8004a72 <_dtoa_r+0x5d2>
 8004a88:	4b05      	ldr	r3, [pc, #20]	; (8004aa0 <_dtoa_r+0x600>)
 8004a8a:	f7fb fdd5 	bl	8000638 <__aeabi_dmul>
 8004a8e:	e9cd 0100 	strd	r0, r1, [sp]
 8004a92:	e7bc      	b.n	8004a0e <_dtoa_r+0x56e>
 8004a94:	08005bb0 	.word	0x08005bb0
 8004a98:	08005b88 	.word	0x08005b88
 8004a9c:	3ff00000 	.word	0x3ff00000
 8004aa0:	40240000 	.word	0x40240000
 8004aa4:	401c0000 	.word	0x401c0000
 8004aa8:	40140000 	.word	0x40140000
 8004aac:	3fe00000 	.word	0x3fe00000
 8004ab0:	e9dd 6700 	ldrd	r6, r7, [sp]
 8004ab4:	465d      	mov	r5, fp
 8004ab6:	e9dd 2302 	ldrd	r2, r3, [sp, #8]
 8004aba:	4630      	mov	r0, r6
 8004abc:	4639      	mov	r1, r7
 8004abe:	f7fb fee5 	bl	800088c <__aeabi_ddiv>
 8004ac2:	f7fc f869 	bl	8000b98 <__aeabi_d2iz>
 8004ac6:	4680      	mov	r8, r0
 8004ac8:	f7fb fd4c 	bl	8000564 <__aeabi_i2d>
 8004acc:	e9dd 2302 	ldrd	r2, r3, [sp, #8]
 8004ad0:	f7fb fdb2 	bl	8000638 <__aeabi_dmul>
 8004ad4:	4602      	mov	r2, r0
 8004ad6:	460b      	mov	r3, r1
 8004ad8:	4630      	mov	r0, r6
 8004ada:	4639      	mov	r1, r7
 8004adc:	f108 0630 	add.w	r6, r8, #48	; 0x30
 8004ae0:	f7fb fbf2 	bl	80002c8 <__aeabi_dsub>
 8004ae4:	f805 6b01 	strb.w	r6, [r5], #1
 8004ae8:	eba5 060b 	sub.w	r6, r5, fp
 8004aec:	45b1      	cmp	r9, r6
 8004aee:	4602      	mov	r2, r0
 8004af0:	460b      	mov	r3, r1
 8004af2:	d139      	bne.n	8004b68 <_dtoa_r+0x6c8>
 8004af4:	f7fb fbea 	bl	80002cc <__adddf3>
 8004af8:	e9dd 2302 	ldrd	r2, r3, [sp, #8]
 8004afc:	4606      	mov	r6, r0
 8004afe:	460f      	mov	r7, r1
 8004b00:	f7fc f82a 	bl	8000b58 <__aeabi_dcmpgt>
 8004b04:	b9c8      	cbnz	r0, 8004b3a <_dtoa_r+0x69a>
 8004b06:	e9dd 2302 	ldrd	r2, r3, [sp, #8]
 8004b0a:	4630      	mov	r0, r6
 8004b0c:	4639      	mov	r1, r7
 8004b0e:	f7fb fffb 	bl	8000b08 <__aeabi_dcmpeq>
 8004b12:	b110      	cbz	r0, 8004b1a <_dtoa_r+0x67a>
 8004b14:	f018 0f01 	tst.w	r8, #1
 8004b18:	d10f      	bne.n	8004b3a <_dtoa_r+0x69a>
 8004b1a:	9904      	ldr	r1, [sp, #16]
 8004b1c:	4620      	mov	r0, r4
 8004b1e:	f000 facc 	bl	80050ba <_Bfree>
 8004b22:	2300      	movs	r3, #0
 8004b24:	9a12      	ldr	r2, [sp, #72]	; 0x48
 8004b26:	702b      	strb	r3, [r5, #0]
 8004b28:	f10a 0301 	add.w	r3, sl, #1
 8004b2c:	6013      	str	r3, [r2, #0]
 8004b2e:	9b21      	ldr	r3, [sp, #132]	; 0x84
 8004b30:	2b00      	cmp	r3, #0
 8004b32:	f000 8241 	beq.w	8004fb8 <_dtoa_r+0xb18>
 8004b36:	601d      	str	r5, [r3, #0]
 8004b38:	e23e      	b.n	8004fb8 <_dtoa_r+0xb18>
 8004b3a:	f8cd a020 	str.w	sl, [sp, #32]
 8004b3e:	f815 2c01 	ldrb.w	r2, [r5, #-1]
 8004b42:	2a39      	cmp	r2, #57	; 0x39
 8004b44:	f105 33ff 	add.w	r3, r5, #4294967295
 8004b48:	d108      	bne.n	8004b5c <_dtoa_r+0x6bc>
 8004b4a:	459b      	cmp	fp, r3
 8004b4c:	d10a      	bne.n	8004b64 <_dtoa_r+0x6c4>
 8004b4e:	9b08      	ldr	r3, [sp, #32]
 8004b50:	3301      	adds	r3, #1
 8004b52:	9308      	str	r3, [sp, #32]
 8004b54:	2330      	movs	r3, #48	; 0x30
 8004b56:	f88b 3000 	strb.w	r3, [fp]
 8004b5a:	465b      	mov	r3, fp
 8004b5c:	781a      	ldrb	r2, [r3, #0]
 8004b5e:	3201      	adds	r2, #1
 8004b60:	701a      	strb	r2, [r3, #0]
 8004b62:	e78c      	b.n	8004a7e <_dtoa_r+0x5de>
 8004b64:	461d      	mov	r5, r3
 8004b66:	e7ea      	b.n	8004b3e <_dtoa_r+0x69e>
 8004b68:	2200      	movs	r2, #0
 8004b6a:	4b9b      	ldr	r3, [pc, #620]	; (8004dd8 <_dtoa_r+0x938>)
 8004b6c:	f7fb fd64 	bl	8000638 <__aeabi_dmul>
 8004b70:	2200      	movs	r2, #0
 8004b72:	2300      	movs	r3, #0
 8004b74:	4606      	mov	r6, r0
 8004b76:	460f      	mov	r7, r1
 8004b78:	f7fb ffc6 	bl	8000b08 <__aeabi_dcmpeq>
 8004b7c:	2800      	cmp	r0, #0
 8004b7e:	d09a      	beq.n	8004ab6 <_dtoa_r+0x616>
 8004b80:	e7cb      	b.n	8004b1a <_dtoa_r+0x67a>
 8004b82:	9a0a      	ldr	r2, [sp, #40]	; 0x28
 8004b84:	2a00      	cmp	r2, #0
 8004b86:	f000 808b 	beq.w	8004ca0 <_dtoa_r+0x800>
 8004b8a:	9a06      	ldr	r2, [sp, #24]
 8004b8c:	2a01      	cmp	r2, #1
 8004b8e:	dc6e      	bgt.n	8004c6e <_dtoa_r+0x7ce>
 8004b90:	9a13      	ldr	r2, [sp, #76]	; 0x4c
 8004b92:	2a00      	cmp	r2, #0
 8004b94:	d067      	beq.n	8004c66 <_dtoa_r+0x7c6>
 8004b96:	f203 4333 	addw	r3, r3, #1075	; 0x433
 8004b9a:	9f07      	ldr	r7, [sp, #28]
 8004b9c:	9d05      	ldr	r5, [sp, #20]
 8004b9e:	9a05      	ldr	r2, [sp, #20]
 8004ba0:	2101      	movs	r1, #1
 8004ba2:	441a      	add	r2, r3
 8004ba4:	4620      	mov	r0, r4
 8004ba6:	9205      	str	r2, [sp, #20]
 8004ba8:	4498      	add	r8, r3
 8004baa:	f000 fb26 	bl	80051fa <__i2b>
 8004bae:	4606      	mov	r6, r0
 8004bb0:	2d00      	cmp	r5, #0
 8004bb2:	dd0c      	ble.n	8004bce <_dtoa_r+0x72e>
 8004bb4:	f1b8 0f00 	cmp.w	r8, #0
 8004bb8:	dd09      	ble.n	8004bce <_dtoa_r+0x72e>
 8004bba:	4545      	cmp	r5, r8
 8004bbc:	9a05      	ldr	r2, [sp, #20]
 8004bbe:	462b      	mov	r3, r5
 8004bc0:	bfa8      	it	ge
 8004bc2:	4643      	movge	r3, r8
 8004bc4:	1ad2      	subs	r2, r2, r3
 8004bc6:	9205      	str	r2, [sp, #20]
 8004bc8:	1aed      	subs	r5, r5, r3
 8004bca:	eba8 0803 	sub.w	r8, r8, r3
 8004bce:	9b07      	ldr	r3, [sp, #28]
 8004bd0:	b1eb      	cbz	r3, 8004c0e <_dtoa_r+0x76e>
 8004bd2:	9b0a      	ldr	r3, [sp, #40]	; 0x28
 8004bd4:	2b00      	cmp	r3, #0
 8004bd6:	d067      	beq.n	8004ca8 <_dtoa_r+0x808>
 8004bd8:	b18f      	cbz	r7, 8004bfe <_dtoa_r+0x75e>
 8004bda:	4631      	mov	r1, r6
 8004bdc:	463a      	mov	r2, r7
 8004bde:	4620      	mov	r0, r4
 8004be0:	f000 fbaa 	bl	8005338 <__pow5mult>
 8004be4:	9a04      	ldr	r2, [sp, #16]
 8004be6:	4601      	mov	r1, r0
 8004be8:	4606      	mov	r6, r0
 8004bea:	4620      	mov	r0, r4
 8004bec:	f000 fb0e 	bl	800520c <__multiply>
 8004bf0:	9904      	ldr	r1, [sp, #16]
 8004bf2:	9008      	str	r0, [sp, #32]
 8004bf4:	4620      	mov	r0, r4
 8004bf6:	f000 fa60 	bl	80050ba <_Bfree>
 8004bfa:	9b08      	ldr	r3, [sp, #32]
 8004bfc:	9304      	str	r3, [sp, #16]
 8004bfe:	9b07      	ldr	r3, [sp, #28]
 8004c00:	1bda      	subs	r2, r3, r7
 8004c02:	d004      	beq.n	8004c0e <_dtoa_r+0x76e>
 8004c04:	9904      	ldr	r1, [sp, #16]
 8004c06:	4620      	mov	r0, r4
 8004c08:	f000 fb96 	bl	8005338 <__pow5mult>
 8004c0c:	9004      	str	r0, [sp, #16]
 8004c0e:	2101      	movs	r1, #1
 8004c10:	4620      	mov	r0, r4
 8004c12:	f000 faf2 	bl	80051fa <__i2b>
 8004c16:	9b0e      	ldr	r3, [sp, #56]	; 0x38
 8004c18:	4607      	mov	r7, r0
 8004c1a:	2b00      	cmp	r3, #0
 8004c1c:	f000 81d0 	beq.w	8004fc0 <_dtoa_r+0xb20>
 8004c20:	461a      	mov	r2, r3
 8004c22:	4601      	mov	r1, r0
 8004c24:	4620      	mov	r0, r4
 8004c26:	f000 fb87 	bl	8005338 <__pow5mult>
 8004c2a:	9b06      	ldr	r3, [sp, #24]
 8004c2c:	2b01      	cmp	r3, #1
 8004c2e:	4607      	mov	r7, r0
 8004c30:	dc40      	bgt.n	8004cb4 <_dtoa_r+0x814>
 8004c32:	9b00      	ldr	r3, [sp, #0]
 8004c34:	2b00      	cmp	r3, #0
 8004c36:	d139      	bne.n	8004cac <_dtoa_r+0x80c>
 8004c38:	9b01      	ldr	r3, [sp, #4]
 8004c3a:	f3c3 0313 	ubfx	r3, r3, #0, #20
 8004c3e:	2b00      	cmp	r3, #0
 8004c40:	d136      	bne.n	8004cb0 <_dtoa_r+0x810>
 8004c42:	9b01      	ldr	r3, [sp, #4]
 8004c44:	f023 4300 	bic.w	r3, r3, #2147483648	; 0x80000000
 8004c48:	0d1b      	lsrs	r3, r3, #20
 8004c4a:	051b      	lsls	r3, r3, #20
 8004c4c:	b12b      	cbz	r3, 8004c5a <_dtoa_r+0x7ba>
 8004c4e:	9b05      	ldr	r3, [sp, #20]
 8004c50:	3301      	adds	r3, #1
 8004c52:	9305      	str	r3, [sp, #20]
 8004c54:	f108 0801 	add.w	r8, r8, #1
 8004c58:	2301      	movs	r3, #1
 8004c5a:	9307      	str	r3, [sp, #28]
 8004c5c:	9b0e      	ldr	r3, [sp, #56]	; 0x38
 8004c5e:	2b00      	cmp	r3, #0
 8004c60:	d12a      	bne.n	8004cb8 <_dtoa_r+0x818>
 8004c62:	2001      	movs	r0, #1
 8004c64:	e030      	b.n	8004cc8 <_dtoa_r+0x828>
 8004c66:	9b14      	ldr	r3, [sp, #80]	; 0x50
 8004c68:	f1c3 0336 	rsb	r3, r3, #54	; 0x36
 8004c6c:	e795      	b.n	8004b9a <_dtoa_r+0x6fa>
 8004c6e:	9b07      	ldr	r3, [sp, #28]
 8004c70:	f109 37ff 	add.w	r7, r9, #4294967295
 8004c74:	42bb      	cmp	r3, r7
 8004c76:	bfbf      	itttt	lt
 8004c78:	9b07      	ldrlt	r3, [sp, #28]
 8004c7a:	9707      	strlt	r7, [sp, #28]
 8004c7c:	1afa      	sublt	r2, r7, r3
 8004c7e:	9b0e      	ldrlt	r3, [sp, #56]	; 0x38
 8004c80:	bfbb      	ittet	lt
 8004c82:	189b      	addlt	r3, r3, r2
 8004c84:	930e      	strlt	r3, [sp, #56]	; 0x38
 8004c86:	1bdf      	subge	r7, r3, r7
 8004c88:	2700      	movlt	r7, #0
 8004c8a:	f1b9 0f00 	cmp.w	r9, #0
 8004c8e:	bfb5      	itete	lt
 8004c90:	9b05      	ldrlt	r3, [sp, #20]
 8004c92:	9d05      	ldrge	r5, [sp, #20]
 8004c94:	eba3 0509 	sublt.w	r5, r3, r9
 8004c98:	464b      	movge	r3, r9
 8004c9a:	bfb8      	it	lt
 8004c9c:	2300      	movlt	r3, #0
 8004c9e:	e77e      	b.n	8004b9e <_dtoa_r+0x6fe>
 8004ca0:	9f07      	ldr	r7, [sp, #28]
 8004ca2:	9d05      	ldr	r5, [sp, #20]
 8004ca4:	9e0a      	ldr	r6, [sp, #40]	; 0x28
 8004ca6:	e783      	b.n	8004bb0 <_dtoa_r+0x710>
 8004ca8:	9a07      	ldr	r2, [sp, #28]
 8004caa:	e7ab      	b.n	8004c04 <_dtoa_r+0x764>
 8004cac:	2300      	movs	r3, #0
 8004cae:	e7d4      	b.n	8004c5a <_dtoa_r+0x7ba>
 8004cb0:	9b00      	ldr	r3, [sp, #0]
 8004cb2:	e7d2      	b.n	8004c5a <_dtoa_r+0x7ba>
 8004cb4:	2300      	movs	r3, #0
 8004cb6:	9307      	str	r3, [sp, #28]
 8004cb8:	693b      	ldr	r3, [r7, #16]
 8004cba:	eb07 0383 	add.w	r3, r7, r3, lsl #2
 8004cbe:	6918      	ldr	r0, [r3, #16]
 8004cc0:	f000 fa4d 	bl	800515e <__hi0bits>
 8004cc4:	f1c0 0020 	rsb	r0, r0, #32
 8004cc8:	4440      	add	r0, r8
 8004cca:	f010 001f 	ands.w	r0, r0, #31
 8004cce:	d047      	beq.n	8004d60 <_dtoa_r+0x8c0>
 8004cd0:	f1c0 0320 	rsb	r3, r0, #32
 8004cd4:	2b04      	cmp	r3, #4
 8004cd6:	dd3b      	ble.n	8004d50 <_dtoa_r+0x8b0>
 8004cd8:	9b05      	ldr	r3, [sp, #20]
 8004cda:	f1c0 001c 	rsb	r0, r0, #28
 8004cde:	4403      	add	r3, r0
 8004ce0:	9305      	str	r3, [sp, #20]
 8004ce2:	4405      	add	r5, r0
 8004ce4:	4480      	add	r8, r0
 8004ce6:	9b05      	ldr	r3, [sp, #20]
 8004ce8:	2b00      	cmp	r3, #0
 8004cea:	dd05      	ble.n	8004cf8 <_dtoa_r+0x858>
 8004cec:	461a      	mov	r2, r3
 8004cee:	9904      	ldr	r1, [sp, #16]
 8004cf0:	4620      	mov	r0, r4
 8004cf2:	f000 fb6f 	bl	80053d4 <__lshift>
 8004cf6:	9004      	str	r0, [sp, #16]
 8004cf8:	f1b8 0f00 	cmp.w	r8, #0
 8004cfc:	dd05      	ble.n	8004d0a <_dtoa_r+0x86a>
 8004cfe:	4639      	mov	r1, r7
 8004d00:	4642      	mov	r2, r8
 8004d02:	4620      	mov	r0, r4
 8004d04:	f000 fb66 	bl	80053d4 <__lshift>
 8004d08:	4607      	mov	r7, r0
 8004d0a:	9b0f      	ldr	r3, [sp, #60]	; 0x3c
 8004d0c:	b353      	cbz	r3, 8004d64 <_dtoa_r+0x8c4>
 8004d0e:	4639      	mov	r1, r7
 8004d10:	9804      	ldr	r0, [sp, #16]
 8004d12:	f000 fbb3 	bl	800547c <__mcmp>
 8004d16:	2800      	cmp	r0, #0
 8004d18:	da24      	bge.n	8004d64 <_dtoa_r+0x8c4>
 8004d1a:	2300      	movs	r3, #0
 8004d1c:	220a      	movs	r2, #10
 8004d1e:	9904      	ldr	r1, [sp, #16]
 8004d20:	4620      	mov	r0, r4
 8004d22:	f000 f9e1 	bl	80050e8 <__multadd>
 8004d26:	9b0a      	ldr	r3, [sp, #40]	; 0x28
 8004d28:	9004      	str	r0, [sp, #16]
 8004d2a:	f10a 3aff 	add.w	sl, sl, #4294967295
 8004d2e:	2b00      	cmp	r3, #0
 8004d30:	f000 814d 	beq.w	8004fce <_dtoa_r+0xb2e>
 8004d34:	2300      	movs	r3, #0
 8004d36:	4631      	mov	r1, r6
 8004d38:	220a      	movs	r2, #10
 8004d3a:	4620      	mov	r0, r4
 8004d3c:	f000 f9d4 	bl	80050e8 <__multadd>
 8004d40:	9b02      	ldr	r3, [sp, #8]
 8004d42:	2b00      	cmp	r3, #0
 8004d44:	4606      	mov	r6, r0
 8004d46:	dc4f      	bgt.n	8004de8 <_dtoa_r+0x948>
 8004d48:	9b06      	ldr	r3, [sp, #24]
 8004d4a:	2b02      	cmp	r3, #2
 8004d4c:	dd4c      	ble.n	8004de8 <_dtoa_r+0x948>
 8004d4e:	e011      	b.n	8004d74 <_dtoa_r+0x8d4>
 8004d50:	d0c9      	beq.n	8004ce6 <_dtoa_r+0x846>
 8004d52:	9a05      	ldr	r2, [sp, #20]
 8004d54:	331c      	adds	r3, #28
 8004d56:	441a      	add	r2, r3
 8004d58:	9205      	str	r2, [sp, #20]
 8004d5a:	441d      	add	r5, r3
 8004d5c:	4498      	add	r8, r3
 8004d5e:	e7c2      	b.n	8004ce6 <_dtoa_r+0x846>
 8004d60:	4603      	mov	r3, r0
 8004d62:	e7f6      	b.n	8004d52 <_dtoa_r+0x8b2>
 8004d64:	f1b9 0f00 	cmp.w	r9, #0
 8004d68:	dc38      	bgt.n	8004ddc <_dtoa_r+0x93c>
 8004d6a:	9b06      	ldr	r3, [sp, #24]
 8004d6c:	2b02      	cmp	r3, #2
 8004d6e:	dd35      	ble.n	8004ddc <_dtoa_r+0x93c>
 8004d70:	f8cd 9008 	str.w	r9, [sp, #8]
 8004d74:	9b02      	ldr	r3, [sp, #8]
 8004d76:	b963      	cbnz	r3, 8004d92 <_dtoa_r+0x8f2>
 8004d78:	4639      	mov	r1, r7
 8004d7a:	2205      	movs	r2, #5
 8004d7c:	4620      	mov	r0, r4
 8004d7e:	f000 f9b3 	bl	80050e8 <__multadd>
 8004d82:	4601      	mov	r1, r0
 8004d84:	4607      	mov	r7, r0
 8004d86:	9804      	ldr	r0, [sp, #16]
 8004d88:	f000 fb78 	bl	800547c <__mcmp>
 8004d8c:	2800      	cmp	r0, #0
 8004d8e:	f73f adcc 	bgt.w	800492a <_dtoa_r+0x48a>
 8004d92:	9b0b      	ldr	r3, [sp, #44]	; 0x2c
 8004d94:	465d      	mov	r5, fp
 8004d96:	ea6f 0a03 	mvn.w	sl, r3
 8004d9a:	f04f 0900 	mov.w	r9, #0
 8004d9e:	4639      	mov	r1, r7
 8004da0:	4620      	mov	r0, r4
 8004da2:	f000 f98a 	bl	80050ba <_Bfree>
 8004da6:	2e00      	cmp	r6, #0
 8004da8:	f43f aeb7 	beq.w	8004b1a <_dtoa_r+0x67a>
 8004dac:	f1b9 0f00 	cmp.w	r9, #0
 8004db0:	d005      	beq.n	8004dbe <_dtoa_r+0x91e>
 8004db2:	45b1      	cmp	r9, r6
 8004db4:	d003      	beq.n	8004dbe <_dtoa_r+0x91e>
 8004db6:	4649      	mov	r1, r9
 8004db8:	4620      	mov	r0, r4
 8004dba:	f000 f97e 	bl	80050ba <_Bfree>
 8004dbe:	4631      	mov	r1, r6
 8004dc0:	4620      	mov	r0, r4
 8004dc2:	f000 f97a 	bl	80050ba <_Bfree>
 8004dc6:	e6a8      	b.n	8004b1a <_dtoa_r+0x67a>
 8004dc8:	2700      	movs	r7, #0
 8004dca:	463e      	mov	r6, r7
 8004dcc:	e7e1      	b.n	8004d92 <_dtoa_r+0x8f2>
 8004dce:	f8dd a020 	ldr.w	sl, [sp, #32]
 8004dd2:	463e      	mov	r6, r7
 8004dd4:	e5a9      	b.n	800492a <_dtoa_r+0x48a>
 8004dd6:	bf00      	nop
 8004dd8:	40240000 	.word	0x40240000
 8004ddc:	9b0a      	ldr	r3, [sp, #40]	; 0x28
 8004dde:	f8cd 9008 	str.w	r9, [sp, #8]
 8004de2:	2b00      	cmp	r3, #0
 8004de4:	f000 80fa 	beq.w	8004fdc <_dtoa_r+0xb3c>
 8004de8:	2d00      	cmp	r5, #0
 8004dea:	dd05      	ble.n	8004df8 <_dtoa_r+0x958>
 8004dec:	4631      	mov	r1, r6
 8004dee:	462a      	mov	r2, r5
 8004df0:	4620      	mov	r0, r4
 8004df2:	f000 faef 	bl	80053d4 <__lshift>
 8004df6:	4606      	mov	r6, r0
 8004df8:	9b07      	ldr	r3, [sp, #28]
 8004dfa:	2b00      	cmp	r3, #0
 8004dfc:	d04c      	beq.n	8004e98 <_dtoa_r+0x9f8>
 8004dfe:	6871      	ldr	r1, [r6, #4]
 8004e00:	4620      	mov	r0, r4
 8004e02:	f000 f926 	bl	8005052 <_Balloc>
 8004e06:	6932      	ldr	r2, [r6, #16]
 8004e08:	3202      	adds	r2, #2
 8004e0a:	4605      	mov	r5, r0
 8004e0c:	0092      	lsls	r2, r2, #2
 8004e0e:	f106 010c 	add.w	r1, r6, #12
 8004e12:	300c      	adds	r0, #12
 8004e14:	f000 f912 	bl	800503c <memcpy>
 8004e18:	2201      	movs	r2, #1
 8004e1a:	4629      	mov	r1, r5
 8004e1c:	4620      	mov	r0, r4
 8004e1e:	f000 fad9 	bl	80053d4 <__lshift>
 8004e22:	9b00      	ldr	r3, [sp, #0]
 8004e24:	f8cd b014 	str.w	fp, [sp, #20]
 8004e28:	f003 0301 	and.w	r3, r3, #1
 8004e2c:	46b1      	mov	r9, r6
 8004e2e:	9307      	str	r3, [sp, #28]
 8004e30:	4606      	mov	r6, r0
 8004e32:	4639      	mov	r1, r7
 8004e34:	9804      	ldr	r0, [sp, #16]
 8004e36:	f7ff faa7 	bl	8004388 <quorem>
 8004e3a:	4649      	mov	r1, r9
 8004e3c:	4605      	mov	r5, r0
 8004e3e:	f100 0830 	add.w	r8, r0, #48	; 0x30
 8004e42:	9804      	ldr	r0, [sp, #16]
 8004e44:	f000 fb1a 	bl	800547c <__mcmp>
 8004e48:	4632      	mov	r2, r6
 8004e4a:	9000      	str	r0, [sp, #0]
 8004e4c:	4639      	mov	r1, r7
 8004e4e:	4620      	mov	r0, r4
 8004e50:	f000 fb2e 	bl	80054b0 <__mdiff>
 8004e54:	68c3      	ldr	r3, [r0, #12]
 8004e56:	4602      	mov	r2, r0
 8004e58:	bb03      	cbnz	r3, 8004e9c <_dtoa_r+0x9fc>
 8004e5a:	4601      	mov	r1, r0
 8004e5c:	9008      	str	r0, [sp, #32]
 8004e5e:	9804      	ldr	r0, [sp, #16]
 8004e60:	f000 fb0c 	bl	800547c <__mcmp>
 8004e64:	9a08      	ldr	r2, [sp, #32]
 8004e66:	4603      	mov	r3, r0
 8004e68:	4611      	mov	r1, r2
 8004e6a:	4620      	mov	r0, r4
 8004e6c:	9308      	str	r3, [sp, #32]
 8004e6e:	f000 f924 	bl	80050ba <_Bfree>
 8004e72:	9b08      	ldr	r3, [sp, #32]
 8004e74:	b9a3      	cbnz	r3, 8004ea0 <_dtoa_r+0xa00>
 8004e76:	9a06      	ldr	r2, [sp, #24]
 8004e78:	b992      	cbnz	r2, 8004ea0 <_dtoa_r+0xa00>
 8004e7a:	9a07      	ldr	r2, [sp, #28]
 8004e7c:	b982      	cbnz	r2, 8004ea0 <_dtoa_r+0xa00>
 8004e7e:	f1b8 0f39 	cmp.w	r8, #57	; 0x39
 8004e82:	d029      	beq.n	8004ed8 <_dtoa_r+0xa38>
 8004e84:	9b00      	ldr	r3, [sp, #0]
 8004e86:	2b00      	cmp	r3, #0
 8004e88:	dd01      	ble.n	8004e8e <_dtoa_r+0x9ee>
 8004e8a:	f105 0831 	add.w	r8, r5, #49	; 0x31
 8004e8e:	9b05      	ldr	r3, [sp, #20]
 8004e90:	1c5d      	adds	r5, r3, #1
 8004e92:	f883 8000 	strb.w	r8, [r3]
 8004e96:	e782      	b.n	8004d9e <_dtoa_r+0x8fe>
 8004e98:	4630      	mov	r0, r6
 8004e9a:	e7c2      	b.n	8004e22 <_dtoa_r+0x982>
 8004e9c:	2301      	movs	r3, #1
 8004e9e:	e7e3      	b.n	8004e68 <_dtoa_r+0x9c8>
 8004ea0:	9a00      	ldr	r2, [sp, #0]
 8004ea2:	2a00      	cmp	r2, #0
 8004ea4:	db04      	blt.n	8004eb0 <_dtoa_r+0xa10>
 8004ea6:	d125      	bne.n	8004ef4 <_dtoa_r+0xa54>
 8004ea8:	9a06      	ldr	r2, [sp, #24]
 8004eaa:	bb1a      	cbnz	r2, 8004ef4 <_dtoa_r+0xa54>
 8004eac:	9a07      	ldr	r2, [sp, #28]
 8004eae:	bb0a      	cbnz	r2, 8004ef4 <_dtoa_r+0xa54>
 8004eb0:	2b00      	cmp	r3, #0
 8004eb2:	ddec      	ble.n	8004e8e <_dtoa_r+0x9ee>
 8004eb4:	2201      	movs	r2, #1
 8004eb6:	9904      	ldr	r1, [sp, #16]
 8004eb8:	4620      	mov	r0, r4
 8004eba:	f000 fa8b 	bl	80053d4 <__lshift>
 8004ebe:	4639      	mov	r1, r7
 8004ec0:	9004      	str	r0, [sp, #16]
 8004ec2:	f000 fadb 	bl	800547c <__mcmp>
 8004ec6:	2800      	cmp	r0, #0
 8004ec8:	dc03      	bgt.n	8004ed2 <_dtoa_r+0xa32>
 8004eca:	d1e0      	bne.n	8004e8e <_dtoa_r+0x9ee>
 8004ecc:	f018 0f01 	tst.w	r8, #1
 8004ed0:	d0dd      	beq.n	8004e8e <_dtoa_r+0x9ee>
 8004ed2:	f1b8 0f39 	cmp.w	r8, #57	; 0x39
 8004ed6:	d1d8      	bne.n	8004e8a <_dtoa_r+0x9ea>
 8004ed8:	9b05      	ldr	r3, [sp, #20]
 8004eda:	9a05      	ldr	r2, [sp, #20]
 8004edc:	1c5d      	adds	r5, r3, #1
 8004ede:	2339      	movs	r3, #57	; 0x39
 8004ee0:	7013      	strb	r3, [r2, #0]
 8004ee2:	f815 3c01 	ldrb.w	r3, [r5, #-1]
 8004ee6:	2b39      	cmp	r3, #57	; 0x39
 8004ee8:	f105 32ff 	add.w	r2, r5, #4294967295
 8004eec:	d04f      	beq.n	8004f8e <_dtoa_r+0xaee>
 8004eee:	3301      	adds	r3, #1
 8004ef0:	7013      	strb	r3, [r2, #0]
 8004ef2:	e754      	b.n	8004d9e <_dtoa_r+0x8fe>
 8004ef4:	9a05      	ldr	r2, [sp, #20]
 8004ef6:	2b00      	cmp	r3, #0
 8004ef8:	f102 0501 	add.w	r5, r2, #1
 8004efc:	dd06      	ble.n	8004f0c <_dtoa_r+0xa6c>
 8004efe:	f1b8 0f39 	cmp.w	r8, #57	; 0x39
 8004f02:	d0e9      	beq.n	8004ed8 <_dtoa_r+0xa38>
 8004f04:	f108 0801 	add.w	r8, r8, #1
 8004f08:	9b05      	ldr	r3, [sp, #20]
 8004f0a:	e7c2      	b.n	8004e92 <_dtoa_r+0x9f2>
 8004f0c:	9a02      	ldr	r2, [sp, #8]
 8004f0e:	f805 8c01 	strb.w	r8, [r5, #-1]
 8004f12:	eba5 030b 	sub.w	r3, r5, fp
 8004f16:	4293      	cmp	r3, r2
 8004f18:	d021      	beq.n	8004f5e <_dtoa_r+0xabe>
 8004f1a:	2300      	movs	r3, #0
 8004f1c:	220a      	movs	r2, #10
 8004f1e:	9904      	ldr	r1, [sp, #16]
 8004f20:	4620      	mov	r0, r4
 8004f22:	f000 f8e1 	bl	80050e8 <__multadd>
 8004f26:	45b1      	cmp	r9, r6
 8004f28:	9004      	str	r0, [sp, #16]
 8004f2a:	f04f 0300 	mov.w	r3, #0
 8004f2e:	f04f 020a 	mov.w	r2, #10
 8004f32:	4649      	mov	r1, r9
 8004f34:	4620      	mov	r0, r4
 8004f36:	d105      	bne.n	8004f44 <_dtoa_r+0xaa4>
 8004f38:	f000 f8d6 	bl	80050e8 <__multadd>
 8004f3c:	4681      	mov	r9, r0
 8004f3e:	4606      	mov	r6, r0
 8004f40:	9505      	str	r5, [sp, #20]
 8004f42:	e776      	b.n	8004e32 <_dtoa_r+0x992>
 8004f44:	f000 f8d0 	bl	80050e8 <__multadd>
 8004f48:	4631      	mov	r1, r6
 8004f4a:	4681      	mov	r9, r0
 8004f4c:	2300      	movs	r3, #0
 8004f4e:	220a      	movs	r2, #10
 8004f50:	4620      	mov	r0, r4
 8004f52:	f000 f8c9 	bl	80050e8 <__multadd>
 8004f56:	4606      	mov	r6, r0
 8004f58:	e7f2      	b.n	8004f40 <_dtoa_r+0xaa0>
 8004f5a:	f04f 0900 	mov.w	r9, #0
 8004f5e:	2201      	movs	r2, #1
 8004f60:	9904      	ldr	r1, [sp, #16]
 8004f62:	4620      	mov	r0, r4
 8004f64:	f000 fa36 	bl	80053d4 <__lshift>
 8004f68:	4639      	mov	r1, r7
 8004f6a:	9004      	str	r0, [sp, #16]
 8004f6c:	f000 fa86 	bl	800547c <__mcmp>
 8004f70:	2800      	cmp	r0, #0
 8004f72:	dcb6      	bgt.n	8004ee2 <_dtoa_r+0xa42>
 8004f74:	d102      	bne.n	8004f7c <_dtoa_r+0xadc>
 8004f76:	f018 0f01 	tst.w	r8, #1
 8004f7a:	d1b2      	bne.n	8004ee2 <_dtoa_r+0xa42>
 8004f7c:	f815 3c01 	ldrb.w	r3, [r5, #-1]
 8004f80:	2b30      	cmp	r3, #48	; 0x30
 8004f82:	f105 32ff 	add.w	r2, r5, #4294967295
 8004f86:	f47f af0a 	bne.w	8004d9e <_dtoa_r+0x8fe>
 8004f8a:	4615      	mov	r5, r2
 8004f8c:	e7f6      	b.n	8004f7c <_dtoa_r+0xadc>
 8004f8e:	4593      	cmp	fp, r2
 8004f90:	d105      	bne.n	8004f9e <_dtoa_r+0xafe>
 8004f92:	2331      	movs	r3, #49	; 0x31
 8004f94:	f10a 0a01 	add.w	sl, sl, #1
 8004f98:	f88b 3000 	strb.w	r3, [fp]
 8004f9c:	e6ff      	b.n	8004d9e <_dtoa_r+0x8fe>
 8004f9e:	4615      	mov	r5, r2
 8004fa0:	e79f      	b.n	8004ee2 <_dtoa_r+0xa42>
 8004fa2:	f8df b064 	ldr.w	fp, [pc, #100]	; 8005008 <_dtoa_r+0xb68>
 8004fa6:	e007      	b.n	8004fb8 <_dtoa_r+0xb18>
 8004fa8:	9b21      	ldr	r3, [sp, #132]	; 0x84
 8004faa:	f8df b060 	ldr.w	fp, [pc, #96]	; 800500c <_dtoa_r+0xb6c>
 8004fae:	b11b      	cbz	r3, 8004fb8 <_dtoa_r+0xb18>
 8004fb0:	f10b 0308 	add.w	r3, fp, #8
 8004fb4:	9a21      	ldr	r2, [sp, #132]	; 0x84
 8004fb6:	6013      	str	r3, [r2, #0]
 8004fb8:	4658      	mov	r0, fp
 8004fba:	b017      	add	sp, #92	; 0x5c
 8004fbc:	e8bd 8ff0 	ldmia.w	sp!, {r4, r5, r6, r7, r8, r9, sl, fp, pc}
 8004fc0:	9b06      	ldr	r3, [sp, #24]
 8004fc2:	2b01      	cmp	r3, #1
 8004fc4:	f77f ae35 	ble.w	8004c32 <_dtoa_r+0x792>
 8004fc8:	9b0e      	ldr	r3, [sp, #56]	; 0x38
 8004fca:	9307      	str	r3, [sp, #28]
 8004fcc:	e649      	b.n	8004c62 <_dtoa_r+0x7c2>
 8004fce:	9b02      	ldr	r3, [sp, #8]
 8004fd0:	2b00      	cmp	r3, #0
 8004fd2:	dc03      	bgt.n	8004fdc <_dtoa_r+0xb3c>
 8004fd4:	9b06      	ldr	r3, [sp, #24]
 8004fd6:	2b02      	cmp	r3, #2
 8004fd8:	f73f aecc 	bgt.w	8004d74 <_dtoa_r+0x8d4>
 8004fdc:	465d      	mov	r5, fp
 8004fde:	4639      	mov	r1, r7
 8004fe0:	9804      	ldr	r0, [sp, #16]
 8004fe2:	f7ff f9d1 	bl	8004388 <quorem>
 8004fe6:	f100 0830 	add.w	r8, r0, #48	; 0x30
 8004fea:	f805 8b01 	strb.w	r8, [r5], #1
 8004fee:	9a02      	ldr	r2, [sp, #8]
 8004ff0:	eba5 030b 	sub.w	r3, r5, fp
 8004ff4:	429a      	cmp	r2, r3
 8004ff6:	ddb0      	ble.n	8004f5a <_dtoa_r+0xaba>
 8004ff8:	2300      	movs	r3, #0
 8004ffa:	220a      	movs	r2, #10
 8004ffc:	9904      	ldr	r1, [sp, #16]
 8004ffe:	4620      	mov	r0, r4
 8005000:	f000 f872 	bl	80050e8 <__multadd>
 8005004:	9004      	str	r0, [sp, #16]
 8005006:	e7ea      	b.n	8004fde <_dtoa_r+0xb3e>
 8005008:	08005b54 	.word	0x08005b54
 800500c:	08005b78 	.word	0x08005b78

08005010 <_localeconv_r>:
 8005010:	4b04      	ldr	r3, [pc, #16]	; (8005024 <_localeconv_r+0x14>)
 8005012:	681b      	ldr	r3, [r3, #0]
 8005014:	6a18      	ldr	r0, [r3, #32]
 8005016:	4b04      	ldr	r3, [pc, #16]	; (8005028 <_localeconv_r+0x18>)
 8005018:	2800      	cmp	r0, #0
 800501a:	bf08      	it	eq
 800501c:	4618      	moveq	r0, r3
 800501e:	30f0      	adds	r0, #240	; 0xf0
 8005020:	4770      	bx	lr
 8005022:	bf00      	nop
 8005024:	2000000c 	.word	0x2000000c
 8005028:	20000070 	.word	0x20000070

0800502c <malloc>:
 800502c:	4b02      	ldr	r3, [pc, #8]	; (8005038 <malloc+0xc>)
 800502e:	4601      	mov	r1, r0
 8005030:	6818      	ldr	r0, [r3, #0]
 8005032:	f000 bb45 	b.w	80056c0 <_malloc_r>
 8005036:	bf00      	nop
 8005038:	2000000c 	.word	0x2000000c

0800503c <memcpy>:
 800503c:	b510      	push	{r4, lr}
 800503e:	1e43      	subs	r3, r0, #1
 8005040:	440a      	add	r2, r1
 8005042:	4291      	cmp	r1, r2
 8005044:	d100      	bne.n	8005048 <memcpy+0xc>
 8005046:	bd10      	pop	{r4, pc}
 8005048:	f811 4b01 	ldrb.w	r4, [r1], #1
 800504c:	f803 4f01 	strb.w	r4, [r3, #1]!
 8005050:	e7f7      	b.n	8005042 <memcpy+0x6>

08005052 <_Balloc>:
 8005052:	b570      	push	{r4, r5, r6, lr}
 8005054:	6a45      	ldr	r5, [r0, #36]	; 0x24
 8005056:	4604      	mov	r4, r0
 8005058:	460e      	mov	r6, r1
 800505a:	b93d      	cbnz	r5, 800506c <_Balloc+0x1a>
 800505c:	2010      	movs	r0, #16
 800505e:	f7ff ffe5 	bl	800502c <malloc>
 8005062:	6260      	str	r0, [r4, #36]	; 0x24
 8005064:	e9c0 5501 	strd	r5, r5, [r0, #4]
 8005068:	6005      	str	r5, [r0, #0]
 800506a:	60c5      	str	r5, [r0, #12]
 800506c:	6a65      	ldr	r5, [r4, #36]	; 0x24
 800506e:	68eb      	ldr	r3, [r5, #12]
 8005070:	b183      	cbz	r3, 8005094 <_Balloc+0x42>
 8005072:	6a63      	ldr	r3, [r4, #36]	; 0x24
 8005074:	68db      	ldr	r3, [r3, #12]
 8005076:	f853 0026 	ldr.w	r0, [r3, r6, lsl #2]
 800507a:	b9b8      	cbnz	r0, 80050ac <_Balloc+0x5a>
 800507c:	2101      	movs	r1, #1
 800507e:	fa01 f506 	lsl.w	r5, r1, r6
 8005082:	1d6a      	adds	r2, r5, #5
 8005084:	0092      	lsls	r2, r2, #2
 8005086:	4620      	mov	r0, r4
 8005088:	f000 fabe 	bl	8005608 <_calloc_r>
 800508c:	b160      	cbz	r0, 80050a8 <_Balloc+0x56>
 800508e:	e9c0 6501 	strd	r6, r5, [r0, #4]
 8005092:	e00e      	b.n	80050b2 <_Balloc+0x60>
 8005094:	2221      	movs	r2, #33	; 0x21
 8005096:	2104      	movs	r1, #4
 8005098:	4620      	mov	r0, r4
 800509a:	f000 fab5 	bl	8005608 <_calloc_r>
 800509e:	6a63      	ldr	r3, [r4, #36]	; 0x24
 80050a0:	60e8      	str	r0, [r5, #12]
 80050a2:	68db      	ldr	r3, [r3, #12]
 80050a4:	2b00      	cmp	r3, #0
 80050a6:	d1e4      	bne.n	8005072 <_Balloc+0x20>
 80050a8:	2000      	movs	r0, #0
 80050aa:	bd70      	pop	{r4, r5, r6, pc}
 80050ac:	6802      	ldr	r2, [r0, #0]
 80050ae:	f843 2026 	str.w	r2, [r3, r6, lsl #2]
 80050b2:	2300      	movs	r3, #0
 80050b4:	e9c0 3303 	strd	r3, r3, [r0, #12]
 80050b8:	e7f7      	b.n	80050aa <_Balloc+0x58>

080050ba <_Bfree>:
 80050ba:	b570      	push	{r4, r5, r6, lr}
 80050bc:	6a44      	ldr	r4, [r0, #36]	; 0x24
 80050be:	4606      	mov	r6, r0
 80050c0:	460d      	mov	r5, r1
 80050c2:	b93c      	cbnz	r4, 80050d4 <_Bfree+0x1a>
 80050c4:	2010      	movs	r0, #16
 80050c6:	f7ff ffb1 	bl	800502c <malloc>
 80050ca:	6270      	str	r0, [r6, #36]	; 0x24
 80050cc:	e9c0 4401 	strd	r4, r4, [r0, #4]
 80050d0:	6004      	str	r4, [r0, #0]
 80050d2:	60c4      	str	r4, [r0, #12]
 80050d4:	b13d      	cbz	r5, 80050e6 <_Bfree+0x2c>
 80050d6:	6a73      	ldr	r3, [r6, #36]	; 0x24
 80050d8:	686a      	ldr	r2, [r5, #4]
 80050da:	68db      	ldr	r3, [r3, #12]
 80050dc:	f853 1022 	ldr.w	r1, [r3, r2, lsl #2]
 80050e0:	6029      	str	r1, [r5, #0]
 80050e2:	f843 5022 	str.w	r5, [r3, r2, lsl #2]
 80050e6:	bd70      	pop	{r4, r5, r6, pc}

080050e8 <__multadd>:
 80050e8:	e92d 41f0 	stmdb	sp!, {r4, r5, r6, r7, r8, lr}
 80050ec:	690d      	ldr	r5, [r1, #16]
 80050ee:	461f      	mov	r7, r3
 80050f0:	4606      	mov	r6, r0
 80050f2:	460c      	mov	r4, r1
 80050f4:	f101 0c14 	add.w	ip, r1, #20
 80050f8:	2300      	movs	r3, #0
 80050fa:	f8dc 0000 	ldr.w	r0, [ip]
 80050fe:	b281      	uxth	r1, r0
 8005100:	fb02 7101 	mla	r1, r2, r1, r7
 8005104:	0c0f      	lsrs	r7, r1, #16
 8005106:	0c00      	lsrs	r0, r0, #16
 8005108:	fb02 7000 	mla	r0, r2, r0, r7
 800510c:	b289      	uxth	r1, r1
 800510e:	3301      	adds	r3, #1
 8005110:	eb01 4100 	add.w	r1, r1, r0, lsl #16
 8005114:	429d      	cmp	r5, r3
 8005116:	ea4f 4710 	mov.w	r7, r0, lsr #16
 800511a:	f84c 1b04 	str.w	r1, [ip], #4
 800511e:	dcec      	bgt.n	80050fa <__multadd+0x12>
 8005120:	b1d7      	cbz	r7, 8005158 <__multadd+0x70>
 8005122:	68a3      	ldr	r3, [r4, #8]
 8005124:	42ab      	cmp	r3, r5
 8005126:	dc12      	bgt.n	800514e <__multadd+0x66>
 8005128:	6861      	ldr	r1, [r4, #4]
 800512a:	4630      	mov	r0, r6
 800512c:	3101      	adds	r1, #1
 800512e:	f7ff ff90 	bl	8005052 <_Balloc>
 8005132:	6922      	ldr	r2, [r4, #16]
 8005134:	3202      	adds	r2, #2
 8005136:	f104 010c 	add.w	r1, r4, #12
 800513a:	4680      	mov	r8, r0
 800513c:	0092      	lsls	r2, r2, #2
 800513e:	300c      	adds	r0, #12
 8005140:	f7ff ff7c 	bl	800503c <memcpy>
 8005144:	4621      	mov	r1, r4
 8005146:	4630      	mov	r0, r6
 8005148:	f7ff ffb7 	bl	80050ba <_Bfree>
 800514c:	4644      	mov	r4, r8
 800514e:	eb04 0385 	add.w	r3, r4, r5, lsl #2
 8005152:	3501      	adds	r5, #1
 8005154:	615f      	str	r7, [r3, #20]
 8005156:	6125      	str	r5, [r4, #16]
 8005158:	4620      	mov	r0, r4
 800515a:	e8bd 81f0 	ldmia.w	sp!, {r4, r5, r6, r7, r8, pc}

0800515e <__hi0bits>:
 800515e:	0c02      	lsrs	r2, r0, #16
 8005160:	0412      	lsls	r2, r2, #16
 8005162:	4603      	mov	r3, r0
 8005164:	b9b2      	cbnz	r2, 8005194 <__hi0bits+0x36>
 8005166:	0403      	lsls	r3, r0, #16
 8005168:	2010      	movs	r0, #16
 800516a:	f013 4f7f 	tst.w	r3, #4278190080	; 0xff000000
 800516e:	bf04      	itt	eq
 8005170:	021b      	lsleq	r3, r3, #8
 8005172:	3008      	addeq	r0, #8
 8005174:	f013 4f70 	tst.w	r3, #4026531840	; 0xf0000000
 8005178:	bf04      	itt	eq
 800517a:	011b      	lsleq	r3, r3, #4
 800517c:	3004      	addeq	r0, #4
 800517e:	f013 4f40 	tst.w	r3, #3221225472	; 0xc0000000
 8005182:	bf04      	itt	eq
 8005184:	009b      	lsleq	r3, r3, #2
 8005186:	3002      	addeq	r0, #2
 8005188:	2b00      	cmp	r3, #0
 800518a:	db06      	blt.n	800519a <__hi0bits+0x3c>
 800518c:	005b      	lsls	r3, r3, #1
 800518e:	d503      	bpl.n	8005198 <__hi0bits+0x3a>
 8005190:	3001      	adds	r0, #1
 8005192:	4770      	bx	lr
 8005194:	2000      	movs	r0, #0
 8005196:	e7e8      	b.n	800516a <__hi0bits+0xc>
 8005198:	2020      	movs	r0, #32
 800519a:	4770      	bx	lr

0800519c <__lo0bits>:
 800519c:	6803      	ldr	r3, [r0, #0]
 800519e:	f013 0207 	ands.w	r2, r3, #7
 80051a2:	4601      	mov	r1, r0
 80051a4:	d00b      	beq.n	80051be <__lo0bits+0x22>
 80051a6:	07da      	lsls	r2, r3, #31
 80051a8:	d423      	bmi.n	80051f2 <__lo0bits+0x56>
 80051aa:	0798      	lsls	r0, r3, #30
 80051ac:	bf49      	itett	mi
 80051ae:	085b      	lsrmi	r3, r3, #1
 80051b0:	089b      	lsrpl	r3, r3, #2
 80051b2:	2001      	movmi	r0, #1
 80051b4:	600b      	strmi	r3, [r1, #0]
 80051b6:	bf5c      	itt	pl
 80051b8:	600b      	strpl	r3, [r1, #0]
 80051ba:	2002      	movpl	r0, #2
 80051bc:	4770      	bx	lr
 80051be:	b298      	uxth	r0, r3
 80051c0:	b9a8      	cbnz	r0, 80051ee <__lo0bits+0x52>
 80051c2:	0c1b      	lsrs	r3, r3, #16
 80051c4:	2010      	movs	r0, #16
 80051c6:	f013 0fff 	tst.w	r3, #255	; 0xff
 80051ca:	bf04      	itt	eq
 80051cc:	0a1b      	lsreq	r3, r3, #8
 80051ce:	3008      	addeq	r0, #8
 80051d0:	071a      	lsls	r2, r3, #28
 80051d2:	bf04      	itt	eq
 80051d4:	091b      	lsreq	r3, r3, #4
 80051d6:	3004      	addeq	r0, #4
 80051d8:	079a      	lsls	r2, r3, #30
 80051da:	bf04      	itt	eq
 80051dc:	089b      	lsreq	r3, r3, #2
 80051de:	3002      	addeq	r0, #2
 80051e0:	07da      	lsls	r2, r3, #31
 80051e2:	d402      	bmi.n	80051ea <__lo0bits+0x4e>
 80051e4:	085b      	lsrs	r3, r3, #1
 80051e6:	d006      	beq.n	80051f6 <__lo0bits+0x5a>
 80051e8:	3001      	adds	r0, #1
 80051ea:	600b      	str	r3, [r1, #0]
 80051ec:	4770      	bx	lr
 80051ee:	4610      	mov	r0, r2
 80051f0:	e7e9      	b.n	80051c6 <__lo0bits+0x2a>
 80051f2:	2000      	movs	r0, #0
 80051f4:	4770      	bx	lr
 80051f6:	2020      	movs	r0, #32
 80051f8:	4770      	bx	lr

080051fa <__i2b>:
 80051fa:	b510      	push	{r4, lr}
 80051fc:	460c      	mov	r4, r1
 80051fe:	2101      	movs	r1, #1
 8005200:	f7ff ff27 	bl	8005052 <_Balloc>
 8005204:	2201      	movs	r2, #1
 8005206:	6144      	str	r4, [r0, #20]
 8005208:	6102      	str	r2, [r0, #16]
 800520a:	bd10      	pop	{r4, pc}

0800520c <__multiply>:
 800520c:	e92d 4ff7 	stmdb	sp!, {r0, r1, r2, r4, r5, r6, r7, r8, r9, sl, fp, lr}
 8005210:	4614      	mov	r4, r2
 8005212:	690a      	ldr	r2, [r1, #16]
 8005214:	6923      	ldr	r3, [r4, #16]
 8005216:	429a      	cmp	r2, r3
 8005218:	bfb8      	it	lt
 800521a:	460b      	movlt	r3, r1
 800521c:	4688      	mov	r8, r1
 800521e:	bfbc      	itt	lt
 8005220:	46a0      	movlt	r8, r4
 8005222:	461c      	movlt	r4, r3
 8005224:	f8d8 7010 	ldr.w	r7, [r8, #16]
 8005228:	f8d4 9010 	ldr.w	r9, [r4, #16]
 800522c:	f8d8 3008 	ldr.w	r3, [r8, #8]
 8005230:	f8d8 1004 	ldr.w	r1, [r8, #4]
 8005234:	eb07 0609 	add.w	r6, r7, r9
 8005238:	42b3      	cmp	r3, r6
 800523a:	bfb8      	it	lt
 800523c:	3101      	addlt	r1, #1
 800523e:	f7ff ff08 	bl	8005052 <_Balloc>
 8005242:	f100 0514 	add.w	r5, r0, #20
 8005246:	eb05 0e86 	add.w	lr, r5, r6, lsl #2
 800524a:	462b      	mov	r3, r5
 800524c:	2200      	movs	r2, #0
 800524e:	4573      	cmp	r3, lr
 8005250:	d316      	bcc.n	8005280 <__multiply+0x74>
 8005252:	f104 0214 	add.w	r2, r4, #20
 8005256:	f108 0114 	add.w	r1, r8, #20
 800525a:	eb02 0389 	add.w	r3, r2, r9, lsl #2
 800525e:	eb01 0787 	add.w	r7, r1, r7, lsl #2
 8005262:	9300      	str	r3, [sp, #0]
 8005264:	9b00      	ldr	r3, [sp, #0]
 8005266:	9201      	str	r2, [sp, #4]
 8005268:	4293      	cmp	r3, r2
 800526a:	d80c      	bhi.n	8005286 <__multiply+0x7a>
 800526c:	2e00      	cmp	r6, #0
 800526e:	dd03      	ble.n	8005278 <__multiply+0x6c>
 8005270:	f85e 3d04 	ldr.w	r3, [lr, #-4]!
 8005274:	2b00      	cmp	r3, #0
 8005276:	d05d      	beq.n	8005334 <__multiply+0x128>
 8005278:	6106      	str	r6, [r0, #16]
 800527a:	b003      	add	sp, #12
 800527c:	e8bd 8ff0 	ldmia.w	sp!, {r4, r5, r6, r7, r8, r9, sl, fp, pc}
 8005280:	f843 2b04 	str.w	r2, [r3], #4
 8005284:	e7e3      	b.n	800524e <__multiply+0x42>
 8005286:	f8b2 b000 	ldrh.w	fp, [r2]
 800528a:	f1bb 0f00 	cmp.w	fp, #0
 800528e:	d023      	beq.n	80052d8 <__multiply+0xcc>
 8005290:	4689      	mov	r9, r1
 8005292:	46ac      	mov	ip, r5
 8005294:	f04f 0800 	mov.w	r8, #0
 8005298:	f859 4b04 	ldr.w	r4, [r9], #4
 800529c:	f8dc a000 	ldr.w	sl, [ip]
 80052a0:	b2a3      	uxth	r3, r4
 80052a2:	fa1f fa8a 	uxth.w	sl, sl
 80052a6:	fb0b a303 	mla	r3, fp, r3, sl
 80052aa:	ea4f 4a14 	mov.w	sl, r4, lsr #16
 80052ae:	f8dc 4000 	ldr.w	r4, [ip]
 80052b2:	4443      	add	r3, r8
 80052b4:	ea4f 4814 	mov.w	r8, r4, lsr #16
 80052b8:	fb0b 840a 	mla	r4, fp, sl, r8
 80052bc:	eb04 4413 	add.w	r4, r4, r3, lsr #16
 80052c0:	46e2      	mov	sl, ip
 80052c2:	b29b      	uxth	r3, r3
 80052c4:	ea43 4304 	orr.w	r3, r3, r4, lsl #16
 80052c8:	454f      	cmp	r7, r9
 80052ca:	ea4f 4814 	mov.w	r8, r4, lsr #16
 80052ce:	f84a 3b04 	str.w	r3, [sl], #4
 80052d2:	d82b      	bhi.n	800532c <__multiply+0x120>
 80052d4:	f8cc 8004 	str.w	r8, [ip, #4]
 80052d8:	9b01      	ldr	r3, [sp, #4]
 80052da:	f8b3 a002 	ldrh.w	sl, [r3, #2]
 80052de:	3204      	adds	r2, #4
 80052e0:	f1ba 0f00 	cmp.w	sl, #0
 80052e4:	d020      	beq.n	8005328 <__multiply+0x11c>
 80052e6:	682b      	ldr	r3, [r5, #0]
 80052e8:	4689      	mov	r9, r1
 80052ea:	46a8      	mov	r8, r5
 80052ec:	f04f 0b00 	mov.w	fp, #0
 80052f0:	f8b9 c000 	ldrh.w	ip, [r9]
 80052f4:	f8b8 4002 	ldrh.w	r4, [r8, #2]
 80052f8:	fb0a 440c 	mla	r4, sl, ip, r4
 80052fc:	445c      	add	r4, fp
 80052fe:	46c4      	mov	ip, r8
 8005300:	b29b      	uxth	r3, r3
 8005302:	ea43 4304 	orr.w	r3, r3, r4, lsl #16
 8005306:	f84c 3b04 	str.w	r3, [ip], #4
 800530a:	f859 3b04 	ldr.w	r3, [r9], #4
 800530e:	f8b8 b004 	ldrh.w	fp, [r8, #4]
 8005312:	0c1b      	lsrs	r3, r3, #16
 8005314:	fb0a b303 	mla	r3, sl, r3, fp
 8005318:	eb03 4314 	add.w	r3, r3, r4, lsr #16
 800531c:	454f      	cmp	r7, r9
 800531e:	ea4f 4b13 	mov.w	fp, r3, lsr #16
 8005322:	d805      	bhi.n	8005330 <__multiply+0x124>
 8005324:	f8c8 3004 	str.w	r3, [r8, #4]
 8005328:	3504      	adds	r5, #4
 800532a:	e79b      	b.n	8005264 <__multiply+0x58>
 800532c:	46d4      	mov	ip, sl
 800532e:	e7b3      	b.n	8005298 <__multiply+0x8c>
 8005330:	46e0      	mov	r8, ip
 8005332:	e7dd      	b.n	80052f0 <__multiply+0xe4>
 8005334:	3e01      	subs	r6, #1
 8005336:	e799      	b.n	800526c <__multiply+0x60>

08005338 <__pow5mult>:
 8005338:	e92d 43f8 	stmdb	sp!, {r3, r4, r5, r6, r7, r8, r9, lr}
 800533c:	4615      	mov	r5, r2
 800533e:	f012 0203 	ands.w	r2, r2, #3
 8005342:	4606      	mov	r6, r0
 8005344:	460f      	mov	r7, r1
 8005346:	d007      	beq.n	8005358 <__pow5mult+0x20>
 8005348:	3a01      	subs	r2, #1
 800534a:	4c21      	ldr	r4, [pc, #132]	; (80053d0 <__pow5mult+0x98>)
 800534c:	2300      	movs	r3, #0
 800534e:	f854 2022 	ldr.w	r2, [r4, r2, lsl #2]
 8005352:	f7ff fec9 	bl	80050e8 <__multadd>
 8005356:	4607      	mov	r7, r0
 8005358:	10ad      	asrs	r5, r5, #2
 800535a:	d035      	beq.n	80053c8 <__pow5mult+0x90>
 800535c:	6a74      	ldr	r4, [r6, #36]	; 0x24
 800535e:	b93c      	cbnz	r4, 8005370 <__pow5mult+0x38>
 8005360:	2010      	movs	r0, #16
 8005362:	f7ff fe63 	bl	800502c <malloc>
 8005366:	6270      	str	r0, [r6, #36]	; 0x24
 8005368:	e9c0 4401 	strd	r4, r4, [r0, #4]
 800536c:	6004      	str	r4, [r0, #0]
 800536e:	60c4      	str	r4, [r0, #12]
 8005370:	f8d6 8024 	ldr.w	r8, [r6, #36]	; 0x24
 8005374:	f8d8 4008 	ldr.w	r4, [r8, #8]
 8005378:	b94c      	cbnz	r4, 800538e <__pow5mult+0x56>
 800537a:	f240 2171 	movw	r1, #625	; 0x271
 800537e:	4630      	mov	r0, r6
 8005380:	f7ff ff3b 	bl	80051fa <__i2b>
 8005384:	2300      	movs	r3, #0
 8005386:	f8c8 0008 	str.w	r0, [r8, #8]
 800538a:	4604      	mov	r4, r0
 800538c:	6003      	str	r3, [r0, #0]
 800538e:	f04f 0800 	mov.w	r8, #0
 8005392:	07eb      	lsls	r3, r5, #31
 8005394:	d50a      	bpl.n	80053ac <__pow5mult+0x74>
 8005396:	4639      	mov	r1, r7
 8005398:	4622      	mov	r2, r4
 800539a:	4630      	mov	r0, r6
 800539c:	f7ff ff36 	bl	800520c <__multiply>
 80053a0:	4639      	mov	r1, r7
 80053a2:	4681      	mov	r9, r0
 80053a4:	4630      	mov	r0, r6
 80053a6:	f7ff fe88 	bl	80050ba <_Bfree>
 80053aa:	464f      	mov	r7, r9
 80053ac:	106d      	asrs	r5, r5, #1
 80053ae:	d00b      	beq.n	80053c8 <__pow5mult+0x90>
 80053b0:	6820      	ldr	r0, [r4, #0]
 80053b2:	b938      	cbnz	r0, 80053c4 <__pow5mult+0x8c>
 80053b4:	4622      	mov	r2, r4
 80053b6:	4621      	mov	r1, r4
 80053b8:	4630      	mov	r0, r6
 80053ba:	f7ff ff27 	bl	800520c <__multiply>
 80053be:	6020      	str	r0, [r4, #0]
 80053c0:	f8c0 8000 	str.w	r8, [r0]
 80053c4:	4604      	mov	r4, r0
 80053c6:	e7e4      	b.n	8005392 <__pow5mult+0x5a>
 80053c8:	4638      	mov	r0, r7
 80053ca:	e8bd 83f8 	ldmia.w	sp!, {r3, r4, r5, r6, r7, r8, r9, pc}
 80053ce:	bf00      	nop
 80053d0:	08005c78 	.word	0x08005c78

080053d4 <__lshift>:
 80053d4:	e92d 47f0 	stmdb	sp!, {r4, r5, r6, r7, r8, r9, sl, lr}
 80053d8:	460c      	mov	r4, r1
 80053da:	ea4f 1a62 	mov.w	sl, r2, asr #5
 80053de:	6923      	ldr	r3, [r4, #16]
 80053e0:	6849      	ldr	r1, [r1, #4]
 80053e2:	eb0a 0903 	add.w	r9, sl, r3
 80053e6:	68a3      	ldr	r3, [r4, #8]
 80053e8:	4607      	mov	r7, r0
 80053ea:	4616      	mov	r6, r2
 80053ec:	f109 0501 	add.w	r5, r9, #1
 80053f0:	42ab      	cmp	r3, r5
 80053f2:	db32      	blt.n	800545a <__lshift+0x86>
 80053f4:	4638      	mov	r0, r7
 80053f6:	f7ff fe2c 	bl	8005052 <_Balloc>
 80053fa:	2300      	movs	r3, #0
 80053fc:	4680      	mov	r8, r0
 80053fe:	f100 0114 	add.w	r1, r0, #20
 8005402:	461a      	mov	r2, r3
 8005404:	4553      	cmp	r3, sl
 8005406:	db2b      	blt.n	8005460 <__lshift+0x8c>
 8005408:	6920      	ldr	r0, [r4, #16]
 800540a:	ea2a 7aea 	bic.w	sl, sl, sl, asr #31
 800540e:	f104 0314 	add.w	r3, r4, #20
 8005412:	f016 021f 	ands.w	r2, r6, #31
 8005416:	eb01 018a 	add.w	r1, r1, sl, lsl #2
 800541a:	eb03 0c80 	add.w	ip, r3, r0, lsl #2
 800541e:	d025      	beq.n	800546c <__lshift+0x98>
 8005420:	f1c2 0e20 	rsb	lr, r2, #32
 8005424:	2000      	movs	r0, #0
 8005426:	681e      	ldr	r6, [r3, #0]
 8005428:	468a      	mov	sl, r1
 800542a:	4096      	lsls	r6, r2
 800542c:	4330      	orrs	r0, r6
 800542e:	f84a 0b04 	str.w	r0, [sl], #4
 8005432:	f853 0b04 	ldr.w	r0, [r3], #4
 8005436:	459c      	cmp	ip, r3
 8005438:	fa20 f00e 	lsr.w	r0, r0, lr
 800543c:	d814      	bhi.n	8005468 <__lshift+0x94>
 800543e:	6048      	str	r0, [r1, #4]
 8005440:	b108      	cbz	r0, 8005446 <__lshift+0x72>
 8005442:	f109 0502 	add.w	r5, r9, #2
 8005446:	3d01      	subs	r5, #1
 8005448:	4638      	mov	r0, r7
 800544a:	f8c8 5010 	str.w	r5, [r8, #16]
 800544e:	4621      	mov	r1, r4
 8005450:	f7ff fe33 	bl	80050ba <_Bfree>
 8005454:	4640      	mov	r0, r8
 8005456:	e8bd 87f0 	ldmia.w	sp!, {r4, r5, r6, r7, r8, r9, sl, pc}
 800545a:	3101      	adds	r1, #1
 800545c:	005b      	lsls	r3, r3, #1
 800545e:	e7c7      	b.n	80053f0 <__lshift+0x1c>
 8005460:	f841 2023 	str.w	r2, [r1, r3, lsl #2]
 8005464:	3301      	adds	r3, #1
 8005466:	e7cd      	b.n	8005404 <__lshift+0x30>
 8005468:	4651      	mov	r1, sl
 800546a:	e7dc      	b.n	8005426 <__lshift+0x52>
 800546c:	3904      	subs	r1, #4
 800546e:	f853 2b04 	ldr.w	r2, [r3], #4
 8005472:	f841 2f04 	str.w	r2, [r1, #4]!
 8005476:	459c      	cmp	ip, r3
 8005478:	d8f9      	bhi.n	800546e <__lshift+0x9a>
 800547a:	e7e4      	b.n	8005446 <__lshift+0x72>

0800547c <__mcmp>:
 800547c:	6903      	ldr	r3, [r0, #16]
 800547e:	690a      	ldr	r2, [r1, #16]
 8005480:	1a9b      	subs	r3, r3, r2
 8005482:	b530      	push	{r4, r5, lr}
 8005484:	d10c      	bne.n	80054a0 <__mcmp+0x24>
 8005486:	0092      	lsls	r2, r2, #2
 8005488:	3014      	adds	r0, #20
 800548a:	3114      	adds	r1, #20
 800548c:	1884      	adds	r4, r0, r2
 800548e:	4411      	add	r1, r2
 8005490:	f854 5d04 	ldr.w	r5, [r4, #-4]!
 8005494:	f851 2d04 	ldr.w	r2, [r1, #-4]!
 8005498:	4295      	cmp	r5, r2
 800549a:	d003      	beq.n	80054a4 <__mcmp+0x28>
 800549c:	d305      	bcc.n	80054aa <__mcmp+0x2e>
 800549e:	2301      	movs	r3, #1
 80054a0:	4618      	mov	r0, r3
 80054a2:	bd30      	pop	{r4, r5, pc}
 80054a4:	42a0      	cmp	r0, r4
 80054a6:	d3f3      	bcc.n	8005490 <__mcmp+0x14>
 80054a8:	e7fa      	b.n	80054a0 <__mcmp+0x24>
 80054aa:	f04f 33ff 	mov.w	r3, #4294967295
 80054ae:	e7f7      	b.n	80054a0 <__mcmp+0x24>

080054b0 <__mdiff>:
 80054b0:	e92d 47f0 	stmdb	sp!, {r4, r5, r6, r7, r8, r9, sl, lr}
 80054b4:	460d      	mov	r5, r1
 80054b6:	4607      	mov	r7, r0
 80054b8:	4611      	mov	r1, r2
 80054ba:	4628      	mov	r0, r5
 80054bc:	4614      	mov	r4, r2
 80054be:	f7ff ffdd 	bl	800547c <__mcmp>
 80054c2:	1e06      	subs	r6, r0, #0
 80054c4:	d108      	bne.n	80054d8 <__mdiff+0x28>
 80054c6:	4631      	mov	r1, r6
 80054c8:	4638      	mov	r0, r7
 80054ca:	f7ff fdc2 	bl	8005052 <_Balloc>
 80054ce:	2301      	movs	r3, #1
 80054d0:	e9c0 3604 	strd	r3, r6, [r0, #16]
 80054d4:	e8bd 87f0 	ldmia.w	sp!, {r4, r5, r6, r7, r8, r9, sl, pc}
 80054d8:	bfa4      	itt	ge
 80054da:	4623      	movge	r3, r4
 80054dc:	462c      	movge	r4, r5
 80054de:	4638      	mov	r0, r7
 80054e0:	6861      	ldr	r1, [r4, #4]
 80054e2:	bfa6      	itte	ge
 80054e4:	461d      	movge	r5, r3
 80054e6:	2600      	movge	r6, #0
 80054e8:	2601      	movlt	r6, #1
 80054ea:	f7ff fdb2 	bl	8005052 <_Balloc>
 80054ee:	692b      	ldr	r3, [r5, #16]
 80054f0:	60c6      	str	r6, [r0, #12]
 80054f2:	6926      	ldr	r6, [r4, #16]
 80054f4:	f105 0914 	add.w	r9, r5, #20
 80054f8:	f104 0214 	add.w	r2, r4, #20
 80054fc:	eb02 0786 	add.w	r7, r2, r6, lsl #2
 8005500:	eb09 0883 	add.w	r8, r9, r3, lsl #2
 8005504:	f100 0514 	add.w	r5, r0, #20
 8005508:	f04f 0e00 	mov.w	lr, #0
 800550c:	f852 ab04 	ldr.w	sl, [r2], #4
 8005510:	f859 4b04 	ldr.w	r4, [r9], #4
 8005514:	fa1e f18a 	uxtah	r1, lr, sl
 8005518:	b2a3      	uxth	r3, r4
 800551a:	1ac9      	subs	r1, r1, r3
 800551c:	0c23      	lsrs	r3, r4, #16
 800551e:	ebc3 431a 	rsb	r3, r3, sl, lsr #16
 8005522:	eb03 4321 	add.w	r3, r3, r1, asr #16
 8005526:	b289      	uxth	r1, r1
 8005528:	ea4f 4e23 	mov.w	lr, r3, asr #16
 800552c:	45c8      	cmp	r8, r9
 800552e:	ea41 4303 	orr.w	r3, r1, r3, lsl #16
 8005532:	4694      	mov	ip, r2
 8005534:	f845 3b04 	str.w	r3, [r5], #4
 8005538:	d8e8      	bhi.n	800550c <__mdiff+0x5c>
 800553a:	45bc      	cmp	ip, r7
 800553c:	d304      	bcc.n	8005548 <__mdiff+0x98>
 800553e:	f855 3d04 	ldr.w	r3, [r5, #-4]!
 8005542:	b183      	cbz	r3, 8005566 <__mdiff+0xb6>
 8005544:	6106      	str	r6, [r0, #16]
 8005546:	e7c5      	b.n	80054d4 <__mdiff+0x24>
 8005548:	f85c 1b04 	ldr.w	r1, [ip], #4
 800554c:	fa1e f381 	uxtah	r3, lr, r1
 8005550:	141a      	asrs	r2, r3, #16
 8005552:	eb02 4211 	add.w	r2, r2, r1, lsr #16
 8005556:	b29b      	uxth	r3, r3
 8005558:	ea43 4302 	orr.w	r3, r3, r2, lsl #16
 800555c:	ea4f 4e22 	mov.w	lr, r2, asr #16
 8005560:	f845 3b04 	str.w	r3, [r5], #4
 8005564:	e7e9      	b.n	800553a <__mdiff+0x8a>
 8005566:	3e01      	subs	r6, #1
 8005568:	e7e9      	b.n	800553e <__mdiff+0x8e>

0800556a <__d2b>:
 800556a:	e92d 43f7 	stmdb	sp!, {r0, r1, r2, r4, r5, r6, r7, r8, r9, lr}
 800556e:	460e      	mov	r6, r1
 8005570:	2101      	movs	r1, #1
 8005572:	ec59 8b10 	vmov	r8, r9, d0
 8005576:	4615      	mov	r5, r2
 8005578:	f7ff fd6b 	bl	8005052 <_Balloc>
 800557c:	f3c9 540a 	ubfx	r4, r9, #20, #11
 8005580:	4607      	mov	r7, r0
 8005582:	f3c9 0313 	ubfx	r3, r9, #0, #20
 8005586:	bb34      	cbnz	r4, 80055d6 <__d2b+0x6c>
 8005588:	9301      	str	r3, [sp, #4]
 800558a:	f1b8 0300 	subs.w	r3, r8, #0
 800558e:	d027      	beq.n	80055e0 <__d2b+0x76>
 8005590:	a802      	add	r0, sp, #8
 8005592:	f840 3d08 	str.w	r3, [r0, #-8]!
 8005596:	f7ff fe01 	bl	800519c <__lo0bits>
 800559a:	9900      	ldr	r1, [sp, #0]
 800559c:	b1f0      	cbz	r0, 80055dc <__d2b+0x72>
 800559e:	9a01      	ldr	r2, [sp, #4]
 80055a0:	f1c0 0320 	rsb	r3, r0, #32
 80055a4:	fa02 f303 	lsl.w	r3, r2, r3
 80055a8:	430b      	orrs	r3, r1
 80055aa:	40c2      	lsrs	r2, r0
 80055ac:	617b      	str	r3, [r7, #20]
 80055ae:	9201      	str	r2, [sp, #4]
 80055b0:	9b01      	ldr	r3, [sp, #4]
 80055b2:	61bb      	str	r3, [r7, #24]
 80055b4:	2b00      	cmp	r3, #0
 80055b6:	bf14      	ite	ne
 80055b8:	2102      	movne	r1, #2
 80055ba:	2101      	moveq	r1, #1
 80055bc:	6139      	str	r1, [r7, #16]
 80055be:	b1c4      	cbz	r4, 80055f2 <__d2b+0x88>
 80055c0:	f2a4 4433 	subw	r4, r4, #1075	; 0x433
 80055c4:	4404      	add	r4, r0
 80055c6:	6034      	str	r4, [r6, #0]
 80055c8:	f1c0 0035 	rsb	r0, r0, #53	; 0x35
 80055cc:	6028      	str	r0, [r5, #0]
 80055ce:	4638      	mov	r0, r7
 80055d0:	b003      	add	sp, #12
 80055d2:	e8bd 83f0 	ldmia.w	sp!, {r4, r5, r6, r7, r8, r9, pc}
 80055d6:	f443 1380 	orr.w	r3, r3, #1048576	; 0x100000
 80055da:	e7d5      	b.n	8005588 <__d2b+0x1e>
 80055dc:	6179      	str	r1, [r7, #20]
 80055de:	e7e7      	b.n	80055b0 <__d2b+0x46>
 80055e0:	a801      	add	r0, sp, #4
 80055e2:	f7ff fddb 	bl	800519c <__lo0bits>
 80055e6:	9b01      	ldr	r3, [sp, #4]
 80055e8:	617b      	str	r3, [r7, #20]
 80055ea:	2101      	movs	r1, #1
 80055ec:	6139      	str	r1, [r7, #16]
 80055ee:	3020      	adds	r0, #32
 80055f0:	e7e5      	b.n	80055be <__d2b+0x54>
 80055f2:	eb07 0381 	add.w	r3, r7, r1, lsl #2
 80055f6:	f2a0 4032 	subw	r0, r0, #1074	; 0x432
 80055fa:	6030      	str	r0, [r6, #0]
 80055fc:	6918      	ldr	r0, [r3, #16]
 80055fe:	f7ff fdae 	bl	800515e <__hi0bits>
 8005602:	ebc0 1041 	rsb	r0, r0, r1, lsl #5
 8005606:	e7e1      	b.n	80055cc <__d2b+0x62>

08005608 <_calloc_r>:
 8005608:	b538      	push	{r3, r4, r5, lr}
 800560a:	fb02 f401 	mul.w	r4, r2, r1
 800560e:	4621      	mov	r1, r4
 8005610:	f000 f856 	bl	80056c0 <_malloc_r>
 8005614:	4605      	mov	r5, r0
 8005616:	b118      	cbz	r0, 8005620 <_calloc_r+0x18>
 8005618:	4622      	mov	r2, r4
 800561a:	2100      	movs	r1, #0
 800561c:	f7fe fa30 	bl	8003a80 <memset>
 8005620:	4628      	mov	r0, r5
 8005622:	bd38      	pop	{r3, r4, r5, pc}

08005624 <_free_r>:
 8005624:	b538      	push	{r3, r4, r5, lr}
 8005626:	4605      	mov	r5, r0
 8005628:	2900      	cmp	r1, #0
 800562a:	d045      	beq.n	80056b8 <_free_r+0x94>
 800562c:	f851 3c04 	ldr.w	r3, [r1, #-4]
 8005630:	1f0c      	subs	r4, r1, #4
 8005632:	2b00      	cmp	r3, #0
 8005634:	bfb8      	it	lt
 8005636:	18e4      	addlt	r4, r4, r3
 8005638:	f000 fa29 	bl	8005a8e <__malloc_lock>
 800563c:	4a1f      	ldr	r2, [pc, #124]	; (80056bc <_free_r+0x98>)
 800563e:	6813      	ldr	r3, [r2, #0]
 8005640:	4610      	mov	r0, r2
 8005642:	b933      	cbnz	r3, 8005652 <_free_r+0x2e>
 8005644:	6063      	str	r3, [r4, #4]
 8005646:	6014      	str	r4, [r2, #0]
 8005648:	4628      	mov	r0, r5
 800564a:	e8bd 4038 	ldmia.w	sp!, {r3, r4, r5, lr}
 800564e:	f000 ba1f 	b.w	8005a90 <__malloc_unlock>
 8005652:	42a3      	cmp	r3, r4
 8005654:	d90c      	bls.n	8005670 <_free_r+0x4c>
 8005656:	6821      	ldr	r1, [r4, #0]
 8005658:	1862      	adds	r2, r4, r1
 800565a:	4293      	cmp	r3, r2
 800565c:	bf04      	itt	eq
 800565e:	681a      	ldreq	r2, [r3, #0]
 8005660:	685b      	ldreq	r3, [r3, #4]
 8005662:	6063      	str	r3, [r4, #4]
 8005664:	bf04      	itt	eq
 8005666:	1852      	addeq	r2, r2, r1
 8005668:	6022      	streq	r2, [r4, #0]
 800566a:	6004      	str	r4, [r0, #0]
 800566c:	e7ec      	b.n	8005648 <_free_r+0x24>
 800566e:	4613      	mov	r3, r2
 8005670:	685a      	ldr	r2, [r3, #4]
 8005672:	b10a      	cbz	r2, 8005678 <_free_r+0x54>
 8005674:	42a2      	cmp	r2, r4
 8005676:	d9fa      	bls.n	800566e <_free_r+0x4a>
 8005678:	6819      	ldr	r1, [r3, #0]
 800567a:	1858      	adds	r0, r3, r1
 800567c:	42a0      	cmp	r0, r4
 800567e:	d10b      	bne.n	8005698 <_free_r+0x74>
 8005680:	6820      	ldr	r0, [r4, #0]
 8005682:	4401      	add	r1, r0
 8005684:	1858      	adds	r0, r3, r1
 8005686:	4282      	cmp	r2, r0
 8005688:	6019      	str	r1, [r3, #0]
 800568a:	d1dd      	bne.n	8005648 <_free_r+0x24>
 800568c:	6810      	ldr	r0, [r2, #0]
 800568e:	6852      	ldr	r2, [r2, #4]
 8005690:	605a      	str	r2, [r3, #4]
 8005692:	4401      	add	r1, r0
 8005694:	6019      	str	r1, [r3, #0]
 8005696:	e7d7      	b.n	8005648 <_free_r+0x24>
 8005698:	d902      	bls.n	80056a0 <_free_r+0x7c>
 800569a:	230c      	movs	r3, #12
 800569c:	602b      	str	r3, [r5, #0]
 800569e:	e7d3      	b.n	8005648 <_free_r+0x24>
 80056a0:	6820      	ldr	r0, [r4, #0]
 80056a2:	1821      	adds	r1, r4, r0
 80056a4:	428a      	cmp	r2, r1
 80056a6:	bf04      	itt	eq
 80056a8:	6811      	ldreq	r1, [r2, #0]
 80056aa:	6852      	ldreq	r2, [r2, #4]
 80056ac:	6062      	str	r2, [r4, #4]
 80056ae:	bf04      	itt	eq
 80056b0:	1809      	addeq	r1, r1, r0
 80056b2:	6021      	streq	r1, [r4, #0]
 80056b4:	605c      	str	r4, [r3, #4]
 80056b6:	e7c7      	b.n	8005648 <_free_r+0x24>
 80056b8:	bd38      	pop	{r3, r4, r5, pc}
 80056ba:	bf00      	nop
 80056bc:	200001fc 	.word	0x200001fc

080056c0 <_malloc_r>:
 80056c0:	b570      	push	{r4, r5, r6, lr}
 80056c2:	1ccd      	adds	r5, r1, #3
 80056c4:	f025 0503 	bic.w	r5, r5, #3
 80056c8:	3508      	adds	r5, #8
 80056ca:	2d0c      	cmp	r5, #12
 80056cc:	bf38      	it	cc
 80056ce:	250c      	movcc	r5, #12
 80056d0:	2d00      	cmp	r5, #0
 80056d2:	4606      	mov	r6, r0
 80056d4:	db01      	blt.n	80056da <_malloc_r+0x1a>
 80056d6:	42a9      	cmp	r1, r5
 80056d8:	d903      	bls.n	80056e2 <_malloc_r+0x22>
 80056da:	230c      	movs	r3, #12
 80056dc:	6033      	str	r3, [r6, #0]
 80056de:	2000      	movs	r0, #0
 80056e0:	bd70      	pop	{r4, r5, r6, pc}
 80056e2:	f000 f9d4 	bl	8005a8e <__malloc_lock>
 80056e6:	4a21      	ldr	r2, [pc, #132]	; (800576c <_malloc_r+0xac>)
 80056e8:	6814      	ldr	r4, [r2, #0]
 80056ea:	4621      	mov	r1, r4
 80056ec:	b991      	cbnz	r1, 8005714 <_malloc_r+0x54>
 80056ee:	4c20      	ldr	r4, [pc, #128]	; (8005770 <_malloc_r+0xb0>)
 80056f0:	6823      	ldr	r3, [r4, #0]
 80056f2:	b91b      	cbnz	r3, 80056fc <_malloc_r+0x3c>
 80056f4:	4630      	mov	r0, r6
 80056f6:	f000 f98f 	bl	8005a18 <_sbrk_r>
 80056fa:	6020      	str	r0, [r4, #0]
 80056fc:	4629      	mov	r1, r5
 80056fe:	4630      	mov	r0, r6
 8005700:	f000 f98a 	bl	8005a18 <_sbrk_r>
 8005704:	1c43      	adds	r3, r0, #1
 8005706:	d124      	bne.n	8005752 <_malloc_r+0x92>
 8005708:	230c      	movs	r3, #12
 800570a:	6033      	str	r3, [r6, #0]
 800570c:	4630      	mov	r0, r6
 800570e:	f000 f9bf 	bl	8005a90 <__malloc_unlock>
 8005712:	e7e4      	b.n	80056de <_malloc_r+0x1e>
 8005714:	680b      	ldr	r3, [r1, #0]
 8005716:	1b5b      	subs	r3, r3, r5
 8005718:	d418      	bmi.n	800574c <_malloc_r+0x8c>
 800571a:	2b0b      	cmp	r3, #11
 800571c:	d90f      	bls.n	800573e <_malloc_r+0x7e>
 800571e:	600b      	str	r3, [r1, #0]
 8005720:	50cd      	str	r5, [r1, r3]
 8005722:	18cc      	adds	r4, r1, r3
 8005724:	4630      	mov	r0, r6
 8005726:	f000 f9b3 	bl	8005a90 <__malloc_unlock>
 800572a:	f104 000b 	add.w	r0, r4, #11
 800572e:	1d23      	adds	r3, r4, #4
 8005730:	f020 0007 	bic.w	r0, r0, #7
 8005734:	1ac3      	subs	r3, r0, r3
 8005736:	d0d3      	beq.n	80056e0 <_malloc_r+0x20>
 8005738:	425a      	negs	r2, r3
 800573a:	50e2      	str	r2, [r4, r3]
 800573c:	e7d0      	b.n	80056e0 <_malloc_r+0x20>
 800573e:	428c      	cmp	r4, r1
 8005740:	684b      	ldr	r3, [r1, #4]
 8005742:	bf16      	itet	ne
 8005744:	6063      	strne	r3, [r4, #4]
 8005746:	6013      	streq	r3, [r2, #0]
 8005748:	460c      	movne	r4, r1
 800574a:	e7eb      	b.n	8005724 <_malloc_r+0x64>
 800574c:	460c      	mov	r4, r1
 800574e:	6849      	ldr	r1, [r1, #4]
 8005750:	e7cc      	b.n	80056ec <_malloc_r+0x2c>
 8005752:	1cc4      	adds	r4, r0, #3
 8005754:	f024 0403 	bic.w	r4, r4, #3
 8005758:	42a0      	cmp	r0, r4
 800575a:	d005      	beq.n	8005768 <_malloc_r+0xa8>
 800575c:	1a21      	subs	r1, r4, r0
 800575e:	4630      	mov	r0, r6
 8005760:	f000 f95a 	bl	8005a18 <_sbrk_r>
 8005764:	3001      	adds	r0, #1
 8005766:	d0cf      	beq.n	8005708 <_malloc_r+0x48>
 8005768:	6025      	str	r5, [r4, #0]
 800576a:	e7db      	b.n	8005724 <_malloc_r+0x64>
 800576c:	200001fc 	.word	0x200001fc
 8005770:	20000200 	.word	0x20000200

08005774 <__ssputs_r>:
 8005774:	e92d 47f0 	stmdb	sp!, {r4, r5, r6, r7, r8, r9, sl, lr}
 8005778:	688e      	ldr	r6, [r1, #8]
 800577a:	429e      	cmp	r6, r3
 800577c:	4682      	mov	sl, r0
 800577e:	460c      	mov	r4, r1
 8005780:	4690      	mov	r8, r2
 8005782:	4699      	mov	r9, r3
 8005784:	d837      	bhi.n	80057f6 <__ssputs_r+0x82>
 8005786:	898a      	ldrh	r2, [r1, #12]
 8005788:	f412 6f90 	tst.w	r2, #1152	; 0x480
 800578c:	d031      	beq.n	80057f2 <__ssputs_r+0x7e>
 800578e:	6825      	ldr	r5, [r4, #0]
 8005790:	6909      	ldr	r1, [r1, #16]
 8005792:	1a6f      	subs	r7, r5, r1
 8005794:	6965      	ldr	r5, [r4, #20]
 8005796:	2302      	movs	r3, #2
 8005798:	eb05 0545 	add.w	r5, r5, r5, lsl #1
 800579c:	fb95 f5f3 	sdiv	r5, r5, r3
 80057a0:	f109 0301 	add.w	r3, r9, #1
 80057a4:	443b      	add	r3, r7
 80057a6:	429d      	cmp	r5, r3
 80057a8:	bf38      	it	cc
 80057aa:	461d      	movcc	r5, r3
 80057ac:	0553      	lsls	r3, r2, #21
 80057ae:	d530      	bpl.n	8005812 <__ssputs_r+0x9e>
 80057b0:	4629      	mov	r1, r5
 80057b2:	f7ff ff85 	bl	80056c0 <_malloc_r>
 80057b6:	4606      	mov	r6, r0
 80057b8:	b950      	cbnz	r0, 80057d0 <__ssputs_r+0x5c>
 80057ba:	230c      	movs	r3, #12
 80057bc:	f8ca 3000 	str.w	r3, [sl]
 80057c0:	89a3      	ldrh	r3, [r4, #12]
 80057c2:	f043 0340 	orr.w	r3, r3, #64	; 0x40
 80057c6:	81a3      	strh	r3, [r4, #12]
 80057c8:	f04f 30ff 	mov.w	r0, #4294967295
 80057cc:	e8bd 87f0 	ldmia.w	sp!, {r4, r5, r6, r7, r8, r9, sl, pc}
 80057d0:	463a      	mov	r2, r7
 80057d2:	6921      	ldr	r1, [r4, #16]
 80057d4:	f7ff fc32 	bl	800503c <memcpy>
 80057d8:	89a3      	ldrh	r3, [r4, #12]
 80057da:	f423 6390 	bic.w	r3, r3, #1152	; 0x480
 80057de:	f043 0380 	orr.w	r3, r3, #128	; 0x80
 80057e2:	81a3      	strh	r3, [r4, #12]
 80057e4:	6126      	str	r6, [r4, #16]
 80057e6:	6165      	str	r5, [r4, #20]
 80057e8:	443e      	add	r6, r7
 80057ea:	1bed      	subs	r5, r5, r7
 80057ec:	6026      	str	r6, [r4, #0]
 80057ee:	60a5      	str	r5, [r4, #8]
 80057f0:	464e      	mov	r6, r9
 80057f2:	454e      	cmp	r6, r9
 80057f4:	d900      	bls.n	80057f8 <__ssputs_r+0x84>
 80057f6:	464e      	mov	r6, r9
 80057f8:	4632      	mov	r2, r6
 80057fa:	4641      	mov	r1, r8
 80057fc:	6820      	ldr	r0, [r4, #0]
 80057fe:	f000 f92d 	bl	8005a5c <memmove>
 8005802:	68a3      	ldr	r3, [r4, #8]
 8005804:	1b9b      	subs	r3, r3, r6
 8005806:	60a3      	str	r3, [r4, #8]
 8005808:	6823      	ldr	r3, [r4, #0]
 800580a:	441e      	add	r6, r3
 800580c:	6026      	str	r6, [r4, #0]
 800580e:	2000      	movs	r0, #0
 8005810:	e7dc      	b.n	80057cc <__ssputs_r+0x58>
 8005812:	462a      	mov	r2, r5
 8005814:	f000 f93d 	bl	8005a92 <_realloc_r>
 8005818:	4606      	mov	r6, r0
 800581a:	2800      	cmp	r0, #0
 800581c:	d1e2      	bne.n	80057e4 <__ssputs_r+0x70>
 800581e:	6921      	ldr	r1, [r4, #16]
 8005820:	4650      	mov	r0, sl
 8005822:	f7ff feff 	bl	8005624 <_free_r>
 8005826:	e7c8      	b.n	80057ba <__ssputs_r+0x46>

08005828 <_svfiprintf_r>:
 8005828:	e92d 4ff0 	stmdb	sp!, {r4, r5, r6, r7, r8, r9, sl, fp, lr}
 800582c:	461d      	mov	r5, r3
 800582e:	898b      	ldrh	r3, [r1, #12]
 8005830:	061f      	lsls	r7, r3, #24
 8005832:	b09d      	sub	sp, #116	; 0x74
 8005834:	4680      	mov	r8, r0
 8005836:	460c      	mov	r4, r1
 8005838:	4616      	mov	r6, r2
 800583a:	d50f      	bpl.n	800585c <_svfiprintf_r+0x34>
 800583c:	690b      	ldr	r3, [r1, #16]
 800583e:	b96b      	cbnz	r3, 800585c <_svfiprintf_r+0x34>
 8005840:	2140      	movs	r1, #64	; 0x40
 8005842:	f7ff ff3d 	bl	80056c0 <_malloc_r>
 8005846:	6020      	str	r0, [r4, #0]
 8005848:	6120      	str	r0, [r4, #16]
 800584a:	b928      	cbnz	r0, 8005858 <_svfiprintf_r+0x30>
 800584c:	230c      	movs	r3, #12
 800584e:	f8c8 3000 	str.w	r3, [r8]
 8005852:	f04f 30ff 	mov.w	r0, #4294967295
 8005856:	e0c8      	b.n	80059ea <_svfiprintf_r+0x1c2>
 8005858:	2340      	movs	r3, #64	; 0x40
 800585a:	6163      	str	r3, [r4, #20]
 800585c:	2300      	movs	r3, #0
 800585e:	9309      	str	r3, [sp, #36]	; 0x24
 8005860:	2320      	movs	r3, #32
 8005862:	f88d 3029 	strb.w	r3, [sp, #41]	; 0x29
 8005866:	2330      	movs	r3, #48	; 0x30
 8005868:	f88d 302a 	strb.w	r3, [sp, #42]	; 0x2a
 800586c:	9503      	str	r5, [sp, #12]
 800586e:	f04f 0b01 	mov.w	fp, #1
 8005872:	4637      	mov	r7, r6
 8005874:	463d      	mov	r5, r7
 8005876:	f815 3b01 	ldrb.w	r3, [r5], #1
 800587a:	b10b      	cbz	r3, 8005880 <_svfiprintf_r+0x58>
 800587c:	2b25      	cmp	r3, #37	; 0x25
 800587e:	d13e      	bne.n	80058fe <_svfiprintf_r+0xd6>
 8005880:	ebb7 0a06 	subs.w	sl, r7, r6
 8005884:	d00b      	beq.n	800589e <_svfiprintf_r+0x76>
 8005886:	4653      	mov	r3, sl
 8005888:	4632      	mov	r2, r6
 800588a:	4621      	mov	r1, r4
 800588c:	4640      	mov	r0, r8
 800588e:	f7ff ff71 	bl	8005774 <__ssputs_r>
 8005892:	3001      	adds	r0, #1
 8005894:	f000 80a4 	beq.w	80059e0 <_svfiprintf_r+0x1b8>
 8005898:	9b09      	ldr	r3, [sp, #36]	; 0x24
 800589a:	4453      	add	r3, sl
 800589c:	9309      	str	r3, [sp, #36]	; 0x24
 800589e:	783b      	ldrb	r3, [r7, #0]
 80058a0:	2b00      	cmp	r3, #0
 80058a2:	f000 809d 	beq.w	80059e0 <_svfiprintf_r+0x1b8>
 80058a6:	2300      	movs	r3, #0
 80058a8:	f04f 32ff 	mov.w	r2, #4294967295
 80058ac:	e9cd 2305 	strd	r2, r3, [sp, #20]
 80058b0:	9304      	str	r3, [sp, #16]
 80058b2:	9307      	str	r3, [sp, #28]
 80058b4:	f88d 3053 	strb.w	r3, [sp, #83]	; 0x53
 80058b8:	931a      	str	r3, [sp, #104]	; 0x68
 80058ba:	462f      	mov	r7, r5
 80058bc:	2205      	movs	r2, #5
 80058be:	f817 1b01 	ldrb.w	r1, [r7], #1
 80058c2:	4850      	ldr	r0, [pc, #320]	; (8005a04 <_svfiprintf_r+0x1dc>)
 80058c4:	f7fa fcac 	bl	8000220 <memchr>
 80058c8:	9b04      	ldr	r3, [sp, #16]
 80058ca:	b9d0      	cbnz	r0, 8005902 <_svfiprintf_r+0xda>
 80058cc:	06d9      	lsls	r1, r3, #27
 80058ce:	bf44      	itt	mi
 80058d0:	2220      	movmi	r2, #32
 80058d2:	f88d 2053 	strbmi.w	r2, [sp, #83]	; 0x53
 80058d6:	071a      	lsls	r2, r3, #28
 80058d8:	bf44      	itt	mi
 80058da:	222b      	movmi	r2, #43	; 0x2b
 80058dc:	f88d 2053 	strbmi.w	r2, [sp, #83]	; 0x53
 80058e0:	782a      	ldrb	r2, [r5, #0]
 80058e2:	2a2a      	cmp	r2, #42	; 0x2a
 80058e4:	d015      	beq.n	8005912 <_svfiprintf_r+0xea>
 80058e6:	9a07      	ldr	r2, [sp, #28]
 80058e8:	462f      	mov	r7, r5
 80058ea:	2000      	movs	r0, #0
 80058ec:	250a      	movs	r5, #10
 80058ee:	4639      	mov	r1, r7
 80058f0:	f811 3b01 	ldrb.w	r3, [r1], #1
 80058f4:	3b30      	subs	r3, #48	; 0x30
 80058f6:	2b09      	cmp	r3, #9
 80058f8:	d94d      	bls.n	8005996 <_svfiprintf_r+0x16e>
 80058fa:	b1b8      	cbz	r0, 800592c <_svfiprintf_r+0x104>
 80058fc:	e00f      	b.n	800591e <_svfiprintf_r+0xf6>
 80058fe:	462f      	mov	r7, r5
 8005900:	e7b8      	b.n	8005874 <_svfiprintf_r+0x4c>
 8005902:	4a40      	ldr	r2, [pc, #256]	; (8005a04 <_svfiprintf_r+0x1dc>)
 8005904:	1a80      	subs	r0, r0, r2
 8005906:	fa0b f000 	lsl.w	r0, fp, r0
 800590a:	4318      	orrs	r0, r3
 800590c:	9004      	str	r0, [sp, #16]
 800590e:	463d      	mov	r5, r7
 8005910:	e7d3      	b.n	80058ba <_svfiprintf_r+0x92>
 8005912:	9a03      	ldr	r2, [sp, #12]
 8005914:	1d11      	adds	r1, r2, #4
 8005916:	6812      	ldr	r2, [r2, #0]
 8005918:	9103      	str	r1, [sp, #12]
 800591a:	2a00      	cmp	r2, #0
 800591c:	db01      	blt.n	8005922 <_svfiprintf_r+0xfa>
 800591e:	9207      	str	r2, [sp, #28]
 8005920:	e004      	b.n	800592c <_svfiprintf_r+0x104>
 8005922:	4252      	negs	r2, r2
 8005924:	f043 0302 	orr.w	r3, r3, #2
 8005928:	9207      	str	r2, [sp, #28]
 800592a:	9304      	str	r3, [sp, #16]
 800592c:	783b      	ldrb	r3, [r7, #0]
 800592e:	2b2e      	cmp	r3, #46	; 0x2e
 8005930:	d10c      	bne.n	800594c <_svfiprintf_r+0x124>
 8005932:	787b      	ldrb	r3, [r7, #1]
 8005934:	2b2a      	cmp	r3, #42	; 0x2a
 8005936:	d133      	bne.n	80059a0 <_svfiprintf_r+0x178>
 8005938:	9b03      	ldr	r3, [sp, #12]
 800593a:	1d1a      	adds	r2, r3, #4
 800593c:	681b      	ldr	r3, [r3, #0]
 800593e:	9203      	str	r2, [sp, #12]
 8005940:	2b00      	cmp	r3, #0
 8005942:	bfb8      	it	lt
 8005944:	f04f 33ff 	movlt.w	r3, #4294967295
 8005948:	3702      	adds	r7, #2
 800594a:	9305      	str	r3, [sp, #20]
 800594c:	4d2e      	ldr	r5, [pc, #184]	; (8005a08 <_svfiprintf_r+0x1e0>)
 800594e:	7839      	ldrb	r1, [r7, #0]
 8005950:	2203      	movs	r2, #3
 8005952:	4628      	mov	r0, r5
 8005954:	f7fa fc64 	bl	8000220 <memchr>
 8005958:	b138      	cbz	r0, 800596a <_svfiprintf_r+0x142>
 800595a:	2340      	movs	r3, #64	; 0x40
 800595c:	1b40      	subs	r0, r0, r5
 800595e:	fa03 f000 	lsl.w	r0, r3, r0
 8005962:	9b04      	ldr	r3, [sp, #16]
 8005964:	4303      	orrs	r3, r0
 8005966:	3701      	adds	r7, #1
 8005968:	9304      	str	r3, [sp, #16]
 800596a:	7839      	ldrb	r1, [r7, #0]
 800596c:	4827      	ldr	r0, [pc, #156]	; (8005a0c <_svfiprintf_r+0x1e4>)
 800596e:	f88d 1028 	strb.w	r1, [sp, #40]	; 0x28
 8005972:	2206      	movs	r2, #6
 8005974:	1c7e      	adds	r6, r7, #1
 8005976:	f7fa fc53 	bl	8000220 <memchr>
 800597a:	2800      	cmp	r0, #0
 800597c:	d038      	beq.n	80059f0 <_svfiprintf_r+0x1c8>
 800597e:	4b24      	ldr	r3, [pc, #144]	; (8005a10 <_svfiprintf_r+0x1e8>)
 8005980:	bb13      	cbnz	r3, 80059c8 <_svfiprintf_r+0x1a0>
 8005982:	9b03      	ldr	r3, [sp, #12]
 8005984:	3307      	adds	r3, #7
 8005986:	f023 0307 	bic.w	r3, r3, #7
 800598a:	3308      	adds	r3, #8
 800598c:	9303      	str	r3, [sp, #12]
 800598e:	9b09      	ldr	r3, [sp, #36]	; 0x24
 8005990:	444b      	add	r3, r9
 8005992:	9309      	str	r3, [sp, #36]	; 0x24
 8005994:	e76d      	b.n	8005872 <_svfiprintf_r+0x4a>
 8005996:	fb05 3202 	mla	r2, r5, r2, r3
 800599a:	2001      	movs	r0, #1
 800599c:	460f      	mov	r7, r1
 800599e:	e7a6      	b.n	80058ee <_svfiprintf_r+0xc6>
 80059a0:	2300      	movs	r3, #0
 80059a2:	3701      	adds	r7, #1
 80059a4:	9305      	str	r3, [sp, #20]
 80059a6:	4619      	mov	r1, r3
 80059a8:	250a      	movs	r5, #10
 80059aa:	4638      	mov	r0, r7
 80059ac:	f810 2b01 	ldrb.w	r2, [r0], #1
 80059b0:	3a30      	subs	r2, #48	; 0x30
 80059b2:	2a09      	cmp	r2, #9
 80059b4:	d903      	bls.n	80059be <_svfiprintf_r+0x196>
 80059b6:	2b00      	cmp	r3, #0
 80059b8:	d0c8      	beq.n	800594c <_svfiprintf_r+0x124>
 80059ba:	9105      	str	r1, [sp, #20]
 80059bc:	e7c6      	b.n	800594c <_svfiprintf_r+0x124>
 80059be:	fb05 2101 	mla	r1, r5, r1, r2
 80059c2:	2301      	movs	r3, #1
 80059c4:	4607      	mov	r7, r0
 80059c6:	e7f0      	b.n	80059aa <_svfiprintf_r+0x182>
 80059c8:	ab03      	add	r3, sp, #12
 80059ca:	9300      	str	r3, [sp, #0]
 80059cc:	4622      	mov	r2, r4
 80059ce:	4b11      	ldr	r3, [pc, #68]	; (8005a14 <_svfiprintf_r+0x1ec>)
 80059d0:	a904      	add	r1, sp, #16
 80059d2:	4640      	mov	r0, r8
 80059d4:	f7fe f8f0 	bl	8003bb8 <_printf_float>
 80059d8:	f1b0 3fff 	cmp.w	r0, #4294967295
 80059dc:	4681      	mov	r9, r0
 80059de:	d1d6      	bne.n	800598e <_svfiprintf_r+0x166>
 80059e0:	89a3      	ldrh	r3, [r4, #12]
 80059e2:	065b      	lsls	r3, r3, #25
 80059e4:	f53f af35 	bmi.w	8005852 <_svfiprintf_r+0x2a>
 80059e8:	9809      	ldr	r0, [sp, #36]	; 0x24
 80059ea:	b01d      	add	sp, #116	; 0x74
 80059ec:	e8bd 8ff0 	ldmia.w	sp!, {r4, r5, r6, r7, r8, r9, sl, fp, pc}
 80059f0:	ab03      	add	r3, sp, #12
 80059f2:	9300      	str	r3, [sp, #0]
 80059f4:	4622      	mov	r2, r4
 80059f6:	4b07      	ldr	r3, [pc, #28]	; (8005a14 <_svfiprintf_r+0x1ec>)
 80059f8:	a904      	add	r1, sp, #16
 80059fa:	4640      	mov	r0, r8
 80059fc:	f7fe fb92 	bl	8004124 <_printf_i>
 8005a00:	e7ea      	b.n	80059d8 <_svfiprintf_r+0x1b0>
 8005a02:	bf00      	nop
 8005a04:	08005c84 	.word	0x08005c84
 8005a08:	08005c8a 	.word	0x08005c8a
 8005a0c:	08005c8e 	.word	0x08005c8e
 8005a10:	08003bb9 	.word	0x08003bb9
 8005a14:	08005775 	.word	0x08005775

08005a18 <_sbrk_r>:
 8005a18:	b538      	push	{r3, r4, r5, lr}
 8005a1a:	4c06      	ldr	r4, [pc, #24]	; (8005a34 <_sbrk_r+0x1c>)
 8005a1c:	2300      	movs	r3, #0
 8005a1e:	4605      	mov	r5, r0
 8005a20:	4608      	mov	r0, r1
 8005a22:	6023      	str	r3, [r4, #0]
 8005a24:	f7fb fedc 	bl	80017e0 <_sbrk>
 8005a28:	1c43      	adds	r3, r0, #1
 8005a2a:	d102      	bne.n	8005a32 <_sbrk_r+0x1a>
 8005a2c:	6823      	ldr	r3, [r4, #0]
 8005a2e:	b103      	cbz	r3, 8005a32 <_sbrk_r+0x1a>
 8005a30:	602b      	str	r3, [r5, #0]
 8005a32:	bd38      	pop	{r3, r4, r5, pc}
 8005a34:	20000290 	.word	0x20000290

08005a38 <__ascii_mbtowc>:
 8005a38:	b082      	sub	sp, #8
 8005a3a:	b901      	cbnz	r1, 8005a3e <__ascii_mbtowc+0x6>
 8005a3c:	a901      	add	r1, sp, #4
 8005a3e:	b142      	cbz	r2, 8005a52 <__ascii_mbtowc+0x1a>
 8005a40:	b14b      	cbz	r3, 8005a56 <__ascii_mbtowc+0x1e>
 8005a42:	7813      	ldrb	r3, [r2, #0]
 8005a44:	600b      	str	r3, [r1, #0]
 8005a46:	7812      	ldrb	r2, [r2, #0]
 8005a48:	1c10      	adds	r0, r2, #0
 8005a4a:	bf18      	it	ne
 8005a4c:	2001      	movne	r0, #1
 8005a4e:	b002      	add	sp, #8
 8005a50:	4770      	bx	lr
 8005a52:	4610      	mov	r0, r2
 8005a54:	e7fb      	b.n	8005a4e <__ascii_mbtowc+0x16>
 8005a56:	f06f 0001 	mvn.w	r0, #1
 8005a5a:	e7f8      	b.n	8005a4e <__ascii_mbtowc+0x16>

08005a5c <memmove>:
 8005a5c:	4288      	cmp	r0, r1
 8005a5e:	b510      	push	{r4, lr}
 8005a60:	eb01 0302 	add.w	r3, r1, r2
 8005a64:	d807      	bhi.n	8005a76 <memmove+0x1a>
 8005a66:	1e42      	subs	r2, r0, #1
 8005a68:	4299      	cmp	r1, r3
 8005a6a:	d00a      	beq.n	8005a82 <memmove+0x26>
 8005a6c:	f811 4b01 	ldrb.w	r4, [r1], #1
 8005a70:	f802 4f01 	strb.w	r4, [r2, #1]!
 8005a74:	e7f8      	b.n	8005a68 <memmove+0xc>
 8005a76:	4283      	cmp	r3, r0
 8005a78:	d9f5      	bls.n	8005a66 <memmove+0xa>
 8005a7a:	1881      	adds	r1, r0, r2
 8005a7c:	1ad2      	subs	r2, r2, r3
 8005a7e:	42d3      	cmn	r3, r2
 8005a80:	d100      	bne.n	8005a84 <memmove+0x28>
 8005a82:	bd10      	pop	{r4, pc}
 8005a84:	f813 4d01 	ldrb.w	r4, [r3, #-1]!
 8005a88:	f801 4d01 	strb.w	r4, [r1, #-1]!
 8005a8c:	e7f7      	b.n	8005a7e <memmove+0x22>

08005a8e <__malloc_lock>:
 8005a8e:	4770      	bx	lr

08005a90 <__malloc_unlock>:
 8005a90:	4770      	bx	lr

08005a92 <_realloc_r>:
 8005a92:	b5f8      	push	{r3, r4, r5, r6, r7, lr}
 8005a94:	4607      	mov	r7, r0
 8005a96:	4614      	mov	r4, r2
 8005a98:	460e      	mov	r6, r1
 8005a9a:	b921      	cbnz	r1, 8005aa6 <_realloc_r+0x14>
 8005a9c:	4611      	mov	r1, r2
 8005a9e:	e8bd 40f8 	ldmia.w	sp!, {r3, r4, r5, r6, r7, lr}
 8005aa2:	f7ff be0d 	b.w	80056c0 <_malloc_r>
 8005aa6:	b922      	cbnz	r2, 8005ab2 <_realloc_r+0x20>
 8005aa8:	f7ff fdbc 	bl	8005624 <_free_r>
 8005aac:	4625      	mov	r5, r4
 8005aae:	4628      	mov	r0, r5
 8005ab0:	bdf8      	pop	{r3, r4, r5, r6, r7, pc}
 8005ab2:	f000 f821 	bl	8005af8 <_malloc_usable_size_r>
 8005ab6:	42a0      	cmp	r0, r4
 8005ab8:	d20f      	bcs.n	8005ada <_realloc_r+0x48>
 8005aba:	4621      	mov	r1, r4
 8005abc:	4638      	mov	r0, r7
 8005abe:	f7ff fdff 	bl	80056c0 <_malloc_r>
 8005ac2:	4605      	mov	r5, r0
 8005ac4:	2800      	cmp	r0, #0
 8005ac6:	d0f2      	beq.n	8005aae <_realloc_r+0x1c>
 8005ac8:	4631      	mov	r1, r6
 8005aca:	4622      	mov	r2, r4
 8005acc:	f7ff fab6 	bl	800503c <memcpy>
 8005ad0:	4631      	mov	r1, r6
 8005ad2:	4638      	mov	r0, r7
 8005ad4:	f7ff fda6 	bl	8005624 <_free_r>
 8005ad8:	e7e9      	b.n	8005aae <_realloc_r+0x1c>
 8005ada:	4635      	mov	r5, r6
 8005adc:	e7e7      	b.n	8005aae <_realloc_r+0x1c>

08005ade <__ascii_wctomb>:
 8005ade:	b149      	cbz	r1, 8005af4 <__ascii_wctomb+0x16>
 8005ae0:	2aff      	cmp	r2, #255	; 0xff
 8005ae2:	bf85      	ittet	hi
 8005ae4:	238a      	movhi	r3, #138	; 0x8a
 8005ae6:	6003      	strhi	r3, [r0, #0]
 8005ae8:	700a      	strbls	r2, [r1, #0]
 8005aea:	f04f 30ff 	movhi.w	r0, #4294967295
 8005aee:	bf98      	it	ls
 8005af0:	2001      	movls	r0, #1
 8005af2:	4770      	bx	lr
 8005af4:	4608      	mov	r0, r1
 8005af6:	4770      	bx	lr

08005af8 <_malloc_usable_size_r>:
 8005af8:	f851 3c04 	ldr.w	r3, [r1, #-4]
 8005afc:	1f18      	subs	r0, r3, #4
 8005afe:	2b00      	cmp	r3, #0
 8005b00:	bfbc      	itt	lt
 8005b02:	580b      	ldrlt	r3, [r1, r0]
 8005b04:	18c0      	addlt	r0, r0, r3
 8005b06:	4770      	bx	lr

08005b08 <_init>:
 8005b08:	b5f8      	push	{r3, r4, r5, r6, r7, lr}
 8005b0a:	bf00      	nop
 8005b0c:	bcf8      	pop	{r3, r4, r5, r6, r7}
 8005b0e:	bc08      	pop	{r3}
 8005b10:	469e      	mov	lr, r3
 8005b12:	4770      	bx	lr

08005b14 <_fini>:
 8005b14:	b5f8      	push	{r3, r4, r5, r6, r7, lr}
 8005b16:	bf00      	nop
 8005b18:	bcf8      	pop	{r3, r4, r5, r6, r7}
 8005b1a:	bc08      	pop	{r3}
 8005b1c:	469e      	mov	lr, r3
 8005b1e:	4770      	bx	lr
